ARM GAS  /tmp/cc4XUFVs.s 			page 1


   1              		.cpu cortex-m4
   2              		.eabi_attribute 27, 1
   3              		.eabi_attribute 28, 1
   4              		.eabi_attribute 20, 1
   5              		.eabi_attribute 21, 1
   6              		.eabi_attribute 23, 3
   7              		.eabi_attribute 24, 1
   8              		.eabi_attribute 25, 1
   9              		.eabi_attribute 26, 1
  10              		.eabi_attribute 30, 1
  11              		.eabi_attribute 34, 1
  12              		.eabi_attribute 18, 4
  13              		.file	"i2c.c"
  14              		.text
  15              	.Ltext0:
  16              		.cfi_sections	.debug_frame
  17              		.section	.text._i2c_get_hw_info,"ax",%progbits
  18              		.align	1
  19              		.syntax unified
  20              		.thumb
  21              		.thumb_func
  22              		.fpu fpv4-sp-d16
  24              	_i2c_get_hw_info:
  25              	.LFB133:
  26              		.file 1 "/home/phong/Documents/thesis/stm32f4/stm-idf/components/driver/i2c.c"
   1:/home/phong/Documents/thesis/stm32f4/stm-idf/components/driver/i2c.c **** #include "driver/i2c.h"
   2:/home/phong/Documents/thesis/stm32f4/stm-idf/components/driver/i2c.c **** 
   3:/home/phong/Documents/thesis/stm32f4/stm-idf/components/driver/i2c.c **** #define I2C_DUTYCYCLE_DEFAULT           I2C_DUTYCYCLE_2             /*!< Default I2C duty cycle */
   4:/home/phong/Documents/thesis/stm32f4/stm-idf/components/driver/i2c.c **** #define I2C_CLOCKSPEED_DEFAULT          100000                      /*!< Default I2C clock speed */
   5:/home/phong/Documents/thesis/stm32f4/stm-idf/components/driver/i2c.c **** #define I2C_OWN_ADDRESS1_DEFAULT        0                           /*!< Default I2C own address 1 
   6:/home/phong/Documents/thesis/stm32f4/stm-idf/components/driver/i2c.c **** #define I2C_ADDRESSING_MODE_DEFAULT     I2C_ADDRESSINGMODE_7BIT     /*!< Default I2C address mode *
   7:/home/phong/Documents/thesis/stm32f4/stm-idf/components/driver/i2c.c **** #define I2C_DUAL_ADDRESS_MODE_DEFAULT   I2C_DUALADDRESS_DISABLE     /*!< Default I2C dual address m
   8:/home/phong/Documents/thesis/stm32f4/stm-idf/components/driver/i2c.c **** #define I2C_OWN_ADDRESS2_DEFAULT        0                           /*!< Default I2C own address 2 
   9:/home/phong/Documents/thesis/stm32f4/stm-idf/components/driver/i2c.c **** #define I2C_GENERALCALL_MODE_DEFAULT    I2C_GENERALCALL_DISABLE     /*!< Default I2C general call m
  10:/home/phong/Documents/thesis/stm32f4/stm-idf/components/driver/i2c.c **** #define I2C_NOSTRETCH_MODE_DEFAULT      I2C_NOSTRETCH_DISABLE       /*!< Default I2C nostretch mode
  11:/home/phong/Documents/thesis/stm32f4/stm-idf/components/driver/i2c.c **** 
  12:/home/phong/Documents/thesis/stm32f4/stm-idf/components/driver/i2c.c **** #define GPIO_MODE_DEFAULT               GPIO_MODE_AF_OD             /*!< Default GPIO mode */
  13:/home/phong/Documents/thesis/stm32f4/stm-idf/components/driver/i2c.c **** #define GPIO_PULL_REG_DEFAULT           GPIO_PULLUP                 /*!< Default pull registor mode
  14:/home/phong/Documents/thesis/stm32f4/stm-idf/components/driver/i2c.c **** #define GPIO_SPEED_FREQ_DEFAULT         GPIO_SPEED_FREQ_VERY_HIGH   /*!< Default GPIO speed */
  15:/home/phong/Documents/thesis/stm32f4/stm-idf/components/driver/i2c.c **** 
  16:/home/phong/Documents/thesis/stm32f4/stm-idf/components/driver/i2c.c **** static const char* I2C_TAG = "DRIVER I2C";
  17:/home/phong/Documents/thesis/stm32f4/stm-idf/components/driver/i2c.c **** #define I2C_CHECK(a, str, ret)  if(!(a)) {                                             \
  18:/home/phong/Documents/thesis/stm32f4/stm-idf/components/driver/i2c.c ****         STM_LOGE(I2C_TAG,"%s:%d (%s):%s", __FILE__, __LINE__, __FUNCTION__, str);      \
  19:/home/phong/Documents/thesis/stm32f4/stm-idf/components/driver/i2c.c ****         return (ret);                                                                  \
  20:/home/phong/Documents/thesis/stm32f4/stm-idf/components/driver/i2c.c ****         }
  21:/home/phong/Documents/thesis/stm32f4/stm-idf/components/driver/i2c.c **** 
  22:/home/phong/Documents/thesis/stm32f4/stm-idf/components/driver/i2c.c **** #define I2C_INIT_ERR_STR        "i2c init error"
  23:/home/phong/Documents/thesis/stm32f4/stm-idf/components/driver/i2c.c **** #define I2C_MALLOC_ERR_STR      "i2c malloc error"
  24:/home/phong/Documents/thesis/stm32f4/stm-idf/components/driver/i2c.c **** #define I2C_NUM_ERR_STR         "i2c num error"
  25:/home/phong/Documents/thesis/stm32f4/stm-idf/components/driver/i2c.c **** #define I2C_PINS_PACK_ERR_STR   "i2c pins pack error"
  26:/home/phong/Documents/thesis/stm32f4/stm-idf/components/driver/i2c.c **** #define I2C_CLOCKSPEED_ERR_STR  "i2c clock speed error"
  27:/home/phong/Documents/thesis/stm32f4/stm-idf/components/driver/i2c.c **** #define I2C_TRANS_ERR_STR       "i2c transmit data error"
  28:/home/phong/Documents/thesis/stm32f4/stm-idf/components/driver/i2c.c **** #define I2C_REC_ERR_STR         "i2c receive data error"
  29:/home/phong/Documents/thesis/stm32f4/stm-idf/components/driver/i2c.c **** 
  30:/home/phong/Documents/thesis/stm32f4/stm-idf/components/driver/i2c.c **** /*
  31:/home/phong/Documents/thesis/stm32f4/stm-idf/components/driver/i2c.c ****  * I2C Hardware Information Define.
  32:/home/phong/Documents/thesis/stm32f4/stm-idf/components/driver/i2c.c ****  */
ARM GAS  /tmp/cc4XUFVs.s 			page 2


  33:/home/phong/Documents/thesis/stm32f4/stm-idf/components/driver/i2c.c **** #define I2C1_PP1_HW_INFO    {.i2c = I2C1,                                   \
  34:/home/phong/Documents/thesis/stm32f4/stm-idf/components/driver/i2c.c ****                              .rcc_apbenr_i2cen = RCC_APB1ENR_I2C1EN,        \
  35:/home/phong/Documents/thesis/stm32f4/stm-idf/components/driver/i2c.c ****                              .rcc_ahbenr_gpio_scl = RCC_AHB1ENR_GPIOBEN,    \
  36:/home/phong/Documents/thesis/stm32f4/stm-idf/components/driver/i2c.c ****                              .rcc_ahbenr_gpio_sda = RCC_AHB1ENR_GPIOBEN,    \
  37:/home/phong/Documents/thesis/stm32f4/stm-idf/components/driver/i2c.c ****                              .port_scl = GPIOB,                             \
  38:/home/phong/Documents/thesis/stm32f4/stm-idf/components/driver/i2c.c ****                              .port_sda = GPIOB,                             \
  39:/home/phong/Documents/thesis/stm32f4/stm-idf/components/driver/i2c.c ****                              .pin_scl = GPIO_PIN_6,                         \
  40:/home/phong/Documents/thesis/stm32f4/stm-idf/components/driver/i2c.c ****                              .pin_sda = GPIO_PIN_7,                         \
  41:/home/phong/Documents/thesis/stm32f4/stm-idf/components/driver/i2c.c ****                              .alternate_func = GPIO_AF4_I2C1}
  42:/home/phong/Documents/thesis/stm32f4/stm-idf/components/driver/i2c.c **** 
  43:/home/phong/Documents/thesis/stm32f4/stm-idf/components/driver/i2c.c **** #define I2C1_PP2_HW_INFO    {.i2c = I2C1,                                   \
  44:/home/phong/Documents/thesis/stm32f4/stm-idf/components/driver/i2c.c ****                              .rcc_apbenr_i2cen = RCC_APB1ENR_I2C1EN,        \
  45:/home/phong/Documents/thesis/stm32f4/stm-idf/components/driver/i2c.c ****                              .rcc_ahbenr_gpio_scl = RCC_AHB1ENR_GPIOBEN,    \
  46:/home/phong/Documents/thesis/stm32f4/stm-idf/components/driver/i2c.c ****                              .rcc_ahbenr_gpio_sda = RCC_AHB1ENR_GPIOBEN,    \
  47:/home/phong/Documents/thesis/stm32f4/stm-idf/components/driver/i2c.c ****                              .port_scl = GPIOB,                             \
  48:/home/phong/Documents/thesis/stm32f4/stm-idf/components/driver/i2c.c ****                              .port_sda = GPIOB,                             \
  49:/home/phong/Documents/thesis/stm32f4/stm-idf/components/driver/i2c.c ****                              .pin_scl = GPIO_PIN_8,                         \
  50:/home/phong/Documents/thesis/stm32f4/stm-idf/components/driver/i2c.c ****                              .pin_sda = GPIO_PIN_9,                         \
  51:/home/phong/Documents/thesis/stm32f4/stm-idf/components/driver/i2c.c ****                              .alternate_func = GPIO_AF4_I2C1}
  52:/home/phong/Documents/thesis/stm32f4/stm-idf/components/driver/i2c.c **** 
  53:/home/phong/Documents/thesis/stm32f4/stm-idf/components/driver/i2c.c **** #define I2C1_PP3_HW_INFO    {.i2c = I2C1,                                   \
  54:/home/phong/Documents/thesis/stm32f4/stm-idf/components/driver/i2c.c ****                              .rcc_apbenr_i2cen = RCC_APB1ENR_I2C1EN,        \
  55:/home/phong/Documents/thesis/stm32f4/stm-idf/components/driver/i2c.c ****                              .rcc_ahbenr_gpio_scl = RCC_AHB1ENR_GPIOBEN,    \
  56:/home/phong/Documents/thesis/stm32f4/stm-idf/components/driver/i2c.c ****                              .rcc_ahbenr_gpio_sda = RCC_AHB1ENR_GPIOBEN,    \
  57:/home/phong/Documents/thesis/stm32f4/stm-idf/components/driver/i2c.c ****                              .port_scl = GPIOB,                             \
  58:/home/phong/Documents/thesis/stm32f4/stm-idf/components/driver/i2c.c ****                              .port_sda = GPIOB,                             \
  59:/home/phong/Documents/thesis/stm32f4/stm-idf/components/driver/i2c.c ****                              .pin_scl = GPIO_PIN_6,                         \
  60:/home/phong/Documents/thesis/stm32f4/stm-idf/components/driver/i2c.c ****                              .pin_sda = GPIO_PIN_9,                         \
  61:/home/phong/Documents/thesis/stm32f4/stm-idf/components/driver/i2c.c ****                              .alternate_func = GPIO_AF4_I2C1}
  62:/home/phong/Documents/thesis/stm32f4/stm-idf/components/driver/i2c.c **** 
  63:/home/phong/Documents/thesis/stm32f4/stm-idf/components/driver/i2c.c **** #define I2C2_PP1_HW_INFO    {.i2c = I2C2,                                   \
  64:/home/phong/Documents/thesis/stm32f4/stm-idf/components/driver/i2c.c ****                              .rcc_apbenr_i2cen = RCC_APB1ENR_I2C2EN,        \
  65:/home/phong/Documents/thesis/stm32f4/stm-idf/components/driver/i2c.c ****                              .rcc_ahbenr_gpio_scl = RCC_AHB1ENR_GPIOBEN,    \
  66:/home/phong/Documents/thesis/stm32f4/stm-idf/components/driver/i2c.c ****                              .rcc_ahbenr_gpio_sda = RCC_AHB1ENR_GPIOBEN,    \
  67:/home/phong/Documents/thesis/stm32f4/stm-idf/components/driver/i2c.c ****                              .port_scl = GPIOB,                             \
  68:/home/phong/Documents/thesis/stm32f4/stm-idf/components/driver/i2c.c ****                              .port_sda = GPIOB,                             \
  69:/home/phong/Documents/thesis/stm32f4/stm-idf/components/driver/i2c.c ****                              .pin_scl = GPIO_PIN_10,                        \
  70:/home/phong/Documents/thesis/stm32f4/stm-idf/components/driver/i2c.c ****                              .pin_sda = GPIO_PIN_11,                        \
  71:/home/phong/Documents/thesis/stm32f4/stm-idf/components/driver/i2c.c ****                              .alternate_func = GPIO_AF4_I2C2}
  72:/home/phong/Documents/thesis/stm32f4/stm-idf/components/driver/i2c.c **** 
  73:/home/phong/Documents/thesis/stm32f4/stm-idf/components/driver/i2c.c **** #define I2C2_PP2_HW_INFO    {.i2c = I2C2,                                   \
  74:/home/phong/Documents/thesis/stm32f4/stm-idf/components/driver/i2c.c ****                              .rcc_apbenr_i2cen = RCC_APB1ENR_I2C2EN,        \
  75:/home/phong/Documents/thesis/stm32f4/stm-idf/components/driver/i2c.c ****                              .rcc_ahbenr_gpio_scl = RCC_AHB1ENR_GPIOFEN,    \
  76:/home/phong/Documents/thesis/stm32f4/stm-idf/components/driver/i2c.c ****                              .rcc_ahbenr_gpio_sda = RCC_AHB1ENR_GPIOFEN,    \
  77:/home/phong/Documents/thesis/stm32f4/stm-idf/components/driver/i2c.c ****                              .port_scl = GPIOF,                             \
  78:/home/phong/Documents/thesis/stm32f4/stm-idf/components/driver/i2c.c ****                              .port_sda = GPIOF,                             \
  79:/home/phong/Documents/thesis/stm32f4/stm-idf/components/driver/i2c.c ****                              .pin_scl = GPIO_PIN_1,                         \
  80:/home/phong/Documents/thesis/stm32f4/stm-idf/components/driver/i2c.c ****                              .pin_sda = GPIO_PIN_0,                         \
  81:/home/phong/Documents/thesis/stm32f4/stm-idf/components/driver/i2c.c ****                              .alternate_func = GPIO_AF4_I2C2}
  82:/home/phong/Documents/thesis/stm32f4/stm-idf/components/driver/i2c.c **** 
  83:/home/phong/Documents/thesis/stm32f4/stm-idf/components/driver/i2c.c **** #define I2C2_PP3_HW_INFO    {.i2c = I2C2,                                   \
  84:/home/phong/Documents/thesis/stm32f4/stm-idf/components/driver/i2c.c ****                              .rcc_apbenr_i2cen = RCC_APB1ENR_I2C2EN,        \
  85:/home/phong/Documents/thesis/stm32f4/stm-idf/components/driver/i2c.c ****                              .rcc_ahbenr_gpio_scl = RCC_AHB1ENR_GPIOHEN,    \
  86:/home/phong/Documents/thesis/stm32f4/stm-idf/components/driver/i2c.c ****                              .rcc_ahbenr_gpio_sda = RCC_AHB1ENR_GPIOHEN,    \
  87:/home/phong/Documents/thesis/stm32f4/stm-idf/components/driver/i2c.c ****                              .port_scl = GPIOH,                             \
  88:/home/phong/Documents/thesis/stm32f4/stm-idf/components/driver/i2c.c ****                              .port_sda = GPIOH,                             \
  89:/home/phong/Documents/thesis/stm32f4/stm-idf/components/driver/i2c.c ****                              .pin_scl = GPIO_PIN_4,                         \
ARM GAS  /tmp/cc4XUFVs.s 			page 3


  90:/home/phong/Documents/thesis/stm32f4/stm-idf/components/driver/i2c.c ****                              .pin_sda = GPIO_PIN_5,                         \
  91:/home/phong/Documents/thesis/stm32f4/stm-idf/components/driver/i2c.c ****                              .alternate_func = GPIO_AF4_I2C2}
  92:/home/phong/Documents/thesis/stm32f4/stm-idf/components/driver/i2c.c **** 
  93:/home/phong/Documents/thesis/stm32f4/stm-idf/components/driver/i2c.c **** #define I2C3_PP1_HW_INFO    {.i2c = I2C3,                                   \
  94:/home/phong/Documents/thesis/stm32f4/stm-idf/components/driver/i2c.c ****                              .rcc_apbenr_i2cen = RCC_APB1ENR_I2C3EN,        \
  95:/home/phong/Documents/thesis/stm32f4/stm-idf/components/driver/i2c.c ****                              .rcc_ahbenr_gpio_scl = RCC_AHB1ENR_GPIOAEN,    \
  96:/home/phong/Documents/thesis/stm32f4/stm-idf/components/driver/i2c.c ****                              .rcc_ahbenr_gpio_sda = RCC_AHB1ENR_GPIOCEN,    \
  97:/home/phong/Documents/thesis/stm32f4/stm-idf/components/driver/i2c.c ****                              .port_scl = GPIOA,                             \
  98:/home/phong/Documents/thesis/stm32f4/stm-idf/components/driver/i2c.c ****                              .port_sda = GPIOC,                             \
  99:/home/phong/Documents/thesis/stm32f4/stm-idf/components/driver/i2c.c ****                              .pin_scl = GPIO_PIN_8,                         \
 100:/home/phong/Documents/thesis/stm32f4/stm-idf/components/driver/i2c.c ****                              .pin_sda = GPIO_PIN_9,                         \
 101:/home/phong/Documents/thesis/stm32f4/stm-idf/components/driver/i2c.c ****                              .alternate_func = GPIO_AF4_I2C3}
 102:/home/phong/Documents/thesis/stm32f4/stm-idf/components/driver/i2c.c **** 
 103:/home/phong/Documents/thesis/stm32f4/stm-idf/components/driver/i2c.c **** #define I2C3_PP2_HW_INFO    {.i2c = I2C3,                                   \
 104:/home/phong/Documents/thesis/stm32f4/stm-idf/components/driver/i2c.c ****                              .rcc_apbenr_i2cen = RCC_APB1ENR_I2C3EN,        \
 105:/home/phong/Documents/thesis/stm32f4/stm-idf/components/driver/i2c.c ****                              .rcc_ahbenr_gpio_scl = RCC_AHB1ENR_GPIOHEN,    \
 106:/home/phong/Documents/thesis/stm32f4/stm-idf/components/driver/i2c.c ****                              .rcc_ahbenr_gpio_sda = RCC_AHB1ENR_GPIOHEN,    \
 107:/home/phong/Documents/thesis/stm32f4/stm-idf/components/driver/i2c.c ****                              .port_scl = GPIOH,                             \
 108:/home/phong/Documents/thesis/stm32f4/stm-idf/components/driver/i2c.c ****                              .port_sda = GPIOH,                             \
 109:/home/phong/Documents/thesis/stm32f4/stm-idf/components/driver/i2c.c ****                              .pin_scl = GPIO_PIN_7,                         \
 110:/home/phong/Documents/thesis/stm32f4/stm-idf/components/driver/i2c.c ****                              .pin_sda = GPIO_PIN_8,                         \
 111:/home/phong/Documents/thesis/stm32f4/stm-idf/components/driver/i2c.c ****                              .alternate_func = GPIO_AF4_I2C3}
 112:/home/phong/Documents/thesis/stm32f4/stm-idf/components/driver/i2c.c **** 
 113:/home/phong/Documents/thesis/stm32f4/stm-idf/components/driver/i2c.c **** /*
 114:/home/phong/Documents/thesis/stm32f4/stm-idf/components/driver/i2c.c ****  * I2C Hardware Information Structure.
 115:/home/phong/Documents/thesis/stm32f4/stm-idf/components/driver/i2c.c ****  */
 116:/home/phong/Documents/thesis/stm32f4/stm-idf/components/driver/i2c.c **** typedef struct {
 117:/home/phong/Documents/thesis/stm32f4/stm-idf/components/driver/i2c.c ****     I2C_TypeDef     *i2c;                   /*!< I2C */
 118:/home/phong/Documents/thesis/stm32f4/stm-idf/components/driver/i2c.c ****     uint32_t        rcc_apbenr_i2cen;       /*!< I2C RCC APBENR register */
 119:/home/phong/Documents/thesis/stm32f4/stm-idf/components/driver/i2c.c ****     uint32_t        rcc_ahbenr_gpio_scl;    /*!< SCL GPIO RCC AHPENR register */
 120:/home/phong/Documents/thesis/stm32f4/stm-idf/components/driver/i2c.c ****     uint32_t        rcc_ahbenr_gpio_sda;    /*!< SDA GPIO RCC AHPENR register */
 121:/home/phong/Documents/thesis/stm32f4/stm-idf/components/driver/i2c.c ****     GPIO_TypeDef    *port_scl;              /*!< SCL General Purpose I/O */
 122:/home/phong/Documents/thesis/stm32f4/stm-idf/components/driver/i2c.c ****     GPIO_TypeDef    *port_sda;              /*!< SDA General Purpose I/O */
 123:/home/phong/Documents/thesis/stm32f4/stm-idf/components/driver/i2c.c ****     uint16_t        pin_scl;                /*!< SCL GPIO Pin */
 124:/home/phong/Documents/thesis/stm32f4/stm-idf/components/driver/i2c.c ****     uint16_t        pin_sda;                /*!< SDA GPIO Pin */
 125:/home/phong/Documents/thesis/stm32f4/stm-idf/components/driver/i2c.c ****     uint8_t         alternate_func;         /*!< I2C Alternate Function */
 126:/home/phong/Documents/thesis/stm32f4/stm-idf/components/driver/i2c.c **** } i2c_hw_info_t;
 127:/home/phong/Documents/thesis/stm32f4/stm-idf/components/driver/i2c.c **** 
 128:/home/phong/Documents/thesis/stm32f4/stm-idf/components/driver/i2c.c **** /* 
 129:/home/phong/Documents/thesis/stm32f4/stm-idf/components/driver/i2c.c ****  * I2C Handle.
 130:/home/phong/Documents/thesis/stm32f4/stm-idf/components/driver/i2c.c ****  */
 131:/home/phong/Documents/thesis/stm32f4/stm-idf/components/driver/i2c.c **** static I2C_HandleTypeDef i2c_handle[I2C_NUM_MAX];
 132:/home/phong/Documents/thesis/stm32f4/stm-idf/components/driver/i2c.c **** 
 133:/home/phong/Documents/thesis/stm32f4/stm-idf/components/driver/i2c.c **** /*
 134:/home/phong/Documents/thesis/stm32f4/stm-idf/components/driver/i2c.c ****  * I2C Hardware Information Mapping Table.
 135:/home/phong/Documents/thesis/stm32f4/stm-idf/components/driver/i2c.c ****  */
 136:/home/phong/Documents/thesis/stm32f4/stm-idf/components/driver/i2c.c **** static i2c_hw_info_t I2C_HW_INFO_MAPPING[I2C_NUM_MAX][I2C_PINS_PACK_MAX] = {
 137:/home/phong/Documents/thesis/stm32f4/stm-idf/components/driver/i2c.c ****     {I2C1_PP1_HW_INFO, I2C1_PP2_HW_INFO, I2C1_PP3_HW_INFO},
 138:/home/phong/Documents/thesis/stm32f4/stm-idf/components/driver/i2c.c ****     {I2C2_PP1_HW_INFO, I2C2_PP2_HW_INFO, I2C2_PP3_HW_INFO},
 139:/home/phong/Documents/thesis/stm32f4/stm-idf/components/driver/i2c.c ****     {I2C3_PP1_HW_INFO, I2C3_PP2_HW_INFO, {0}             }
 140:/home/phong/Documents/thesis/stm32f4/stm-idf/components/driver/i2c.c **** };
 141:/home/phong/Documents/thesis/stm32f4/stm-idf/components/driver/i2c.c **** 
 142:/home/phong/Documents/thesis/stm32f4/stm-idf/components/driver/i2c.c **** static i2c_hw_info_t _i2c_get_hw_info(i2c_num_t i2c_num, i2c_pins_pack_t i2c_pins_pack)
 143:/home/phong/Documents/thesis/stm32f4/stm-idf/components/driver/i2c.c **** {
  27              		.loc 1 143 0
  28              		.cfi_startproc
  29              		@ args = 0, pretend = 0, frame = 0
ARM GAS  /tmp/cc4XUFVs.s 			page 4


  30              		@ frame_needed = 0, uses_anonymous_args = 0
  31              		@ link register save eliminated.
  32              	.LVL0:
  33 0000 70B4     		push	{r4, r5, r6}
  34              	.LCFI0:
  35              		.cfi_def_cfa_offset 12
  36              		.cfi_offset 4, -12
  37              		.cfi_offset 5, -8
  38              		.cfi_offset 6, -4
  39 0002 0646     		mov	r6, r0
 144:/home/phong/Documents/thesis/stm32f4/stm-idf/components/driver/i2c.c ****     i2c_hw_info_t hw_info;
 145:/home/phong/Documents/thesis/stm32f4/stm-idf/components/driver/i2c.c ****     hw_info = I2C_HW_INFO_MAPPING[i2c_num][i2c_pins_pack];
  40              		.loc 1 145 0
  41 0004 01EB4101 		add	r1, r1, r1, lsl #1
  42              	.LVL1:
  43 0008 0A44     		add	r2, r2, r1
  44              	.LVL2:
  45 000a 0546     		mov	r5, r0
  46 000c 054C     		ldr	r4, .L3
  47 000e 04EB4214 		add	r4, r4, r2, lsl #5
  48 0012 0FCC     		ldmia	r4!, {r0, r1, r2, r3}
  49              	.LVL3:
  50 0014 0FC5     		stmia	r5!, {r0, r1, r2, r3}
  51              	.LVL4:
  52 0016 94E80F00 		ldm	r4, {r0, r1, r2, r3}
  53 001a 85E80F00 		stm	r5, {r0, r1, r2, r3}
 146:/home/phong/Documents/thesis/stm32f4/stm-idf/components/driver/i2c.c **** 
 147:/home/phong/Documents/thesis/stm32f4/stm-idf/components/driver/i2c.c ****     return hw_info;
 148:/home/phong/Documents/thesis/stm32f4/stm-idf/components/driver/i2c.c **** }
  54              		.loc 1 148 0
  55 001e 3046     		mov	r0, r6
  56 0020 70BC     		pop	{r4, r5, r6}
  57              	.LCFI1:
  58              		.cfi_restore 6
  59              		.cfi_restore 5
  60              		.cfi_restore 4
  61              		.cfi_def_cfa_offset 0
  62              	.LVL5:
  63 0022 7047     		bx	lr
  64              	.L4:
  65              		.align	2
  66              	.L3:
  67 0024 00000000 		.word	.LANCHOR0
  68              		.cfi_endproc
  69              	.LFE133:
  71              		.section	.text.i2c_config,"ax",%progbits
  72              		.align	1
  73              		.global	i2c_config
  74              		.syntax unified
  75              		.thumb
  76              		.thumb_func
  77              		.fpu fpv4-sp-d16
  79              	i2c_config:
  80              	.LFB134:
 149:/home/phong/Documents/thesis/stm32f4/stm-idf/components/driver/i2c.c **** 
 150:/home/phong/Documents/thesis/stm32f4/stm-idf/components/driver/i2c.c **** stm_err_t i2c_config(i2c_config_t *config)
 151:/home/phong/Documents/thesis/stm32f4/stm-idf/components/driver/i2c.c **** {
ARM GAS  /tmp/cc4XUFVs.s 			page 5


  81              		.loc 1 151 0
  82              		.cfi_startproc
  83              		@ args = 0, pretend = 0, frame = 56
  84              		@ frame_needed = 0, uses_anonymous_args = 0
  85              	.LVL6:
  86 0000 F0B5     		push	{r4, r5, r6, r7, lr}
  87              	.LCFI2:
  88              		.cfi_def_cfa_offset 20
  89              		.cfi_offset 4, -20
  90              		.cfi_offset 5, -16
  91              		.cfi_offset 6, -12
  92              		.cfi_offset 7, -8
  93              		.cfi_offset 14, -4
  94 0002 95B0     		sub	sp, sp, #84
  95              	.LCFI3:
  96              		.cfi_def_cfa_offset 104
 152:/home/phong/Documents/thesis/stm32f4/stm-idf/components/driver/i2c.c ****     /* Check input condition */
 153:/home/phong/Documents/thesis/stm32f4/stm-idf/components/driver/i2c.c ****     I2C_CHECK(config, I2C_INIT_ERR_STR, STM_ERR_INVALID_ARG);
  97              		.loc 1 153 0
  98 0004 D0B1     		cbz	r0, .L12
  99 0006 0446     		mov	r4, r0
 154:/home/phong/Documents/thesis/stm32f4/stm-idf/components/driver/i2c.c ****     I2C_CHECK(config->i2c_num < I2C_NUM_MAX, I2C_NUM_ERR_STR, STM_ERR_INVALID_ARG);
 100              		.loc 1 154 0
 101 0008 0178     		ldrb	r1, [r0]	@ zero_extendqisi2
 102 000a 0229     		cmp	r1, #2
 103 000c 2AD8     		bhi	.L13
 155:/home/phong/Documents/thesis/stm32f4/stm-idf/components/driver/i2c.c ****     I2C_CHECK(config->i2c_pins_pack < I2C_PINS_PACK_MAX, I2C_PINS_PACK_ERR_STR, STM_ERR_INVALID_ARG
 104              		.loc 1 155 0
 105 000e 4278     		ldrb	r2, [r0, #1]	@ zero_extendqisi2
 106 0010 022A     		cmp	r2, #2
 107 0012 3CD9     		bls	.L9
 108              		.loc 1 155 0 is_stmt 0 discriminator 4
 109 0014 FFF7FEFF 		bl	stm_log_timestamp
 110              	.LVL7:
 111 0018 5749     		ldr	r1, .L15
 112 001a 584B     		ldr	r3, .L15+4
 113 001c 0493     		str	r3, [sp, #16]
 114 001e 584B     		ldr	r3, .L15+8
 115 0020 0393     		str	r3, [sp, #12]
 116 0022 9B23     		movs	r3, #155
 117 0024 0293     		str	r3, [sp, #8]
 118 0026 574B     		ldr	r3, .L15+12
 119 0028 0193     		str	r3, [sp, #4]
 120 002a 0091     		str	r1, [sp]
 121 002c 0346     		mov	r3, r0
 122 002e 564A     		ldr	r2, .L15+16
 123 0030 0120     		movs	r0, #1
 124 0032 FFF7FEFF 		bl	stm_log_write
 125              	.LVL8:
 126 0036 4FF48170 		mov	r0, #258
 127 003a 26E0     		b	.L5
 128              	.LVL9:
 129              	.L12:
 153:/home/phong/Documents/thesis/stm32f4/stm-idf/components/driver/i2c.c ****     I2C_CHECK(config->i2c_num < I2C_NUM_MAX, I2C_NUM_ERR_STR, STM_ERR_INVALID_ARG);
 130              		.loc 1 153 0 is_stmt 1 discriminator 4
 131 003c FFF7FEFF 		bl	stm_log_timestamp
 132              	.LVL10:
ARM GAS  /tmp/cc4XUFVs.s 			page 6


 133 0040 4D49     		ldr	r1, .L15
 134 0042 524B     		ldr	r3, .L15+20
 135 0044 0493     		str	r3, [sp, #16]
 136 0046 4E4B     		ldr	r3, .L15+8
 137 0048 0393     		str	r3, [sp, #12]
 138 004a 9923     		movs	r3, #153
 139 004c 0293     		str	r3, [sp, #8]
 140 004e 4D4B     		ldr	r3, .L15+12
 141 0050 0193     		str	r3, [sp, #4]
 142 0052 0091     		str	r1, [sp]
 143 0054 0346     		mov	r3, r0
 144 0056 4C4A     		ldr	r2, .L15+16
 145 0058 0120     		movs	r0, #1
 146 005a FFF7FEFF 		bl	stm_log_write
 147              	.LVL11:
 148 005e 4FF48170 		mov	r0, #258
 149 0062 12E0     		b	.L5
 150              	.LVL12:
 151              	.L13:
 154:/home/phong/Documents/thesis/stm32f4/stm-idf/components/driver/i2c.c ****     I2C_CHECK(config->i2c_num < I2C_NUM_MAX, I2C_NUM_ERR_STR, STM_ERR_INVALID_ARG);
 152              		.loc 1 154 0 discriminator 4
 153 0064 FFF7FEFF 		bl	stm_log_timestamp
 154              	.LVL13:
 155 0068 4349     		ldr	r1, .L15
 156 006a 494B     		ldr	r3, .L15+24
 157 006c 0493     		str	r3, [sp, #16]
 158 006e 444B     		ldr	r3, .L15+8
 159 0070 0393     		str	r3, [sp, #12]
 160 0072 9A23     		movs	r3, #154
 161 0074 0293     		str	r3, [sp, #8]
 162 0076 434B     		ldr	r3, .L15+12
 163 0078 0193     		str	r3, [sp, #4]
 164 007a 0091     		str	r1, [sp]
 165 007c 0346     		mov	r3, r0
 166 007e 424A     		ldr	r2, .L15+16
 167 0080 0120     		movs	r0, #1
 168 0082 FFF7FEFF 		bl	stm_log_write
 169              	.LVL14:
 170 0086 4FF48170 		mov	r0, #258
 171              	.LVL15:
 172              	.L5:
 156:/home/phong/Documents/thesis/stm32f4/stm-idf/components/driver/i2c.c **** 
 157:/home/phong/Documents/thesis/stm32f4/stm-idf/components/driver/i2c.c ****     /* Get I2C hardware information */
 158:/home/phong/Documents/thesis/stm32f4/stm-idf/components/driver/i2c.c ****     i2c_hw_info_t hw_info = _i2c_get_hw_info(config->i2c_num, config->i2c_pins_pack);
 159:/home/phong/Documents/thesis/stm32f4/stm-idf/components/driver/i2c.c **** 
 160:/home/phong/Documents/thesis/stm32f4/stm-idf/components/driver/i2c.c ****     /* Enable I2C clock */
 161:/home/phong/Documents/thesis/stm32f4/stm-idf/components/driver/i2c.c ****     uint32_t tmpreg = 0x00;
 162:/home/phong/Documents/thesis/stm32f4/stm-idf/components/driver/i2c.c ****     SET_BIT(RCC->APB1ENR, hw_info.rcc_apbenr_i2cen);
 163:/home/phong/Documents/thesis/stm32f4/stm-idf/components/driver/i2c.c ****     tmpreg = READ_BIT(RCC->APB1ENR, hw_info.rcc_apbenr_i2cen);
 164:/home/phong/Documents/thesis/stm32f4/stm-idf/components/driver/i2c.c ****     UNUSED(tmpreg);
 165:/home/phong/Documents/thesis/stm32f4/stm-idf/components/driver/i2c.c **** 
 166:/home/phong/Documents/thesis/stm32f4/stm-idf/components/driver/i2c.c ****     /* Enable SCL GPIO Port clock */
 167:/home/phong/Documents/thesis/stm32f4/stm-idf/components/driver/i2c.c ****     tmpreg = 0x00;
 168:/home/phong/Documents/thesis/stm32f4/stm-idf/components/driver/i2c.c ****     SET_BIT(RCC->AHB1ENR, hw_info.rcc_ahbenr_gpio_scl);
 169:/home/phong/Documents/thesis/stm32f4/stm-idf/components/driver/i2c.c ****     tmpreg = READ_BIT(RCC->AHB1ENR, hw_info.rcc_ahbenr_gpio_scl);
 170:/home/phong/Documents/thesis/stm32f4/stm-idf/components/driver/i2c.c ****     UNUSED(tmpreg);
 171:/home/phong/Documents/thesis/stm32f4/stm-idf/components/driver/i2c.c **** 
ARM GAS  /tmp/cc4XUFVs.s 			page 7


 172:/home/phong/Documents/thesis/stm32f4/stm-idf/components/driver/i2c.c ****     /* Enable SDA GPIO Port clock */
 173:/home/phong/Documents/thesis/stm32f4/stm-idf/components/driver/i2c.c ****     tmpreg = 0x00;
 174:/home/phong/Documents/thesis/stm32f4/stm-idf/components/driver/i2c.c ****     SET_BIT(RCC->AHB1ENR, hw_info.rcc_ahbenr_gpio_sda);
 175:/home/phong/Documents/thesis/stm32f4/stm-idf/components/driver/i2c.c ****     tmpreg = READ_BIT(RCC->AHB1ENR, hw_info.rcc_ahbenr_gpio_sda);
 176:/home/phong/Documents/thesis/stm32f4/stm-idf/components/driver/i2c.c ****     UNUSED(tmpreg);
 177:/home/phong/Documents/thesis/stm32f4/stm-idf/components/driver/i2c.c **** 
 178:/home/phong/Documents/thesis/stm32f4/stm-idf/components/driver/i2c.c ****     int err;
 179:/home/phong/Documents/thesis/stm32f4/stm-idf/components/driver/i2c.c **** 
 180:/home/phong/Documents/thesis/stm32f4/stm-idf/components/driver/i2c.c ****     /* Configure I2C */
 181:/home/phong/Documents/thesis/stm32f4/stm-idf/components/driver/i2c.c ****     i2c_handle[config->i2c_num].Instance = hw_info.i2c;
 182:/home/phong/Documents/thesis/stm32f4/stm-idf/components/driver/i2c.c ****     i2c_handle[config->i2c_num].Init.ClockSpeed = config->clk_speed;
 183:/home/phong/Documents/thesis/stm32f4/stm-idf/components/driver/i2c.c ****     i2c_handle[config->i2c_num].Init.DutyCycle = I2C_DUTYCYCLE_DEFAULT;
 184:/home/phong/Documents/thesis/stm32f4/stm-idf/components/driver/i2c.c ****     i2c_handle[config->i2c_num].Init.OwnAddress1 = I2C_OWN_ADDRESS1_DEFAULT;
 185:/home/phong/Documents/thesis/stm32f4/stm-idf/components/driver/i2c.c ****     i2c_handle[config->i2c_num].Init.AddressingMode = I2C_ADDRESSING_MODE_DEFAULT;
 186:/home/phong/Documents/thesis/stm32f4/stm-idf/components/driver/i2c.c ****     i2c_handle[config->i2c_num].Init.DualAddressMode = I2C_DUAL_ADDRESS_MODE_DEFAULT;
 187:/home/phong/Documents/thesis/stm32f4/stm-idf/components/driver/i2c.c ****     i2c_handle[config->i2c_num].Init.OwnAddress2 = I2C_OWN_ADDRESS2_DEFAULT;
 188:/home/phong/Documents/thesis/stm32f4/stm-idf/components/driver/i2c.c ****     i2c_handle[config->i2c_num].Init.GeneralCallMode = I2C_GENERALCALL_MODE_DEFAULT;
 189:/home/phong/Documents/thesis/stm32f4/stm-idf/components/driver/i2c.c ****     i2c_handle[config->i2c_num].Init.NoStretchMode = I2C_NOSTRETCH_MODE_DEFAULT;
 190:/home/phong/Documents/thesis/stm32f4/stm-idf/components/driver/i2c.c ****     err = HAL_I2C_Init(&i2c_handle[config->i2c_num]);
 191:/home/phong/Documents/thesis/stm32f4/stm-idf/components/driver/i2c.c ****     I2C_CHECK(err == HAL_OK, I2C_INIT_ERR_STR, STM_FAIL);
 192:/home/phong/Documents/thesis/stm32f4/stm-idf/components/driver/i2c.c ****     
 193:/home/phong/Documents/thesis/stm32f4/stm-idf/components/driver/i2c.c ****     /* Configure SCL Pin */
 194:/home/phong/Documents/thesis/stm32f4/stm-idf/components/driver/i2c.c ****     GPIO_InitTypeDef GPIO_InitStruct = {0};
 195:/home/phong/Documents/thesis/stm32f4/stm-idf/components/driver/i2c.c ****     GPIO_InitStruct.Pin = hw_info.pin_scl;
 196:/home/phong/Documents/thesis/stm32f4/stm-idf/components/driver/i2c.c ****     GPIO_InitStruct.Mode = GPIO_MODE_DEFAULT;
 197:/home/phong/Documents/thesis/stm32f4/stm-idf/components/driver/i2c.c ****     GPIO_InitStruct.Pull = GPIO_PULL_REG_DEFAULT;
 198:/home/phong/Documents/thesis/stm32f4/stm-idf/components/driver/i2c.c ****     GPIO_InitStruct.Speed = GPIO_SPEED_FREQ_DEFAULT;
 199:/home/phong/Documents/thesis/stm32f4/stm-idf/components/driver/i2c.c ****     GPIO_InitStruct.Alternate = hw_info.alternate_func;
 200:/home/phong/Documents/thesis/stm32f4/stm-idf/components/driver/i2c.c ****     HAL_GPIO_Init(hw_info.port_scl, &GPIO_InitStruct);
 201:/home/phong/Documents/thesis/stm32f4/stm-idf/components/driver/i2c.c **** 
 202:/home/phong/Documents/thesis/stm32f4/stm-idf/components/driver/i2c.c ****     /* Configure SDA Pin */
 203:/home/phong/Documents/thesis/stm32f4/stm-idf/components/driver/i2c.c ****     GPIO_InitStruct.Pin = hw_info.pin_sda;
 204:/home/phong/Documents/thesis/stm32f4/stm-idf/components/driver/i2c.c ****     GPIO_InitStruct.Mode = GPIO_MODE_DEFAULT;
 205:/home/phong/Documents/thesis/stm32f4/stm-idf/components/driver/i2c.c ****     GPIO_InitStruct.Pull = GPIO_PULL_REG_DEFAULT;
 206:/home/phong/Documents/thesis/stm32f4/stm-idf/components/driver/i2c.c ****     GPIO_InitStruct.Speed = GPIO_SPEED_FREQ_DEFAULT;
 207:/home/phong/Documents/thesis/stm32f4/stm-idf/components/driver/i2c.c ****     GPIO_InitStruct.Alternate = hw_info.alternate_func;
 208:/home/phong/Documents/thesis/stm32f4/stm-idf/components/driver/i2c.c ****     HAL_GPIO_Init(hw_info.port_sda, &GPIO_InitStruct);
 209:/home/phong/Documents/thesis/stm32f4/stm-idf/components/driver/i2c.c **** 
 210:/home/phong/Documents/thesis/stm32f4/stm-idf/components/driver/i2c.c ****     return STM_OK;
 211:/home/phong/Documents/thesis/stm32f4/stm-idf/components/driver/i2c.c **** }
 173              		.loc 1 211 0
 174 008a 15B0     		add	sp, sp, #84
 175              	.LCFI4:
 176              		.cfi_remember_state
 177              		.cfi_def_cfa_offset 20
 178              		@ sp needed
 179 008c F0BD     		pop	{r4, r5, r6, r7, pc}
 180              	.LVL16:
 181              	.L9:
 182              	.LCFI5:
 183              		.cfi_restore_state
 158:/home/phong/Documents/thesis/stm32f4/stm-idf/components/driver/i2c.c **** 
 184              		.loc 1 158 0
 185 008e 0CA8     		add	r0, sp, #48
 186              	.LVL17:
 187 0090 FFF7FEFF 		bl	_i2c_get_hw_info
 188              	.LVL18:
ARM GAS  /tmp/cc4XUFVs.s 			page 8


 162:/home/phong/Documents/thesis/stm32f4/stm-idf/components/driver/i2c.c ****     tmpreg = READ_BIT(RCC->APB1ENR, hw_info.rcc_apbenr_i2cen);
 189              		.loc 1 162 0
 190 0094 3F4B     		ldr	r3, .L15+28
 191 0096 1A6C     		ldr	r2, [r3, #64]
 192 0098 0D99     		ldr	r1, [sp, #52]
 193 009a 0A43     		orrs	r2, r2, r1
 194 009c 1A64     		str	r2, [r3, #64]
 163:/home/phong/Documents/thesis/stm32f4/stm-idf/components/driver/i2c.c ****     UNUSED(tmpreg);
 195              		.loc 1 163 0
 196 009e 1A6C     		ldr	r2, [r3, #64]
 168:/home/phong/Documents/thesis/stm32f4/stm-idf/components/driver/i2c.c ****     tmpreg = READ_BIT(RCC->AHB1ENR, hw_info.rcc_ahbenr_gpio_scl);
 197              		.loc 1 168 0
 198 00a0 1A6B     		ldr	r2, [r3, #48]
 199 00a2 0E99     		ldr	r1, [sp, #56]
 200 00a4 0A43     		orrs	r2, r2, r1
 201 00a6 1A63     		str	r2, [r3, #48]
 169:/home/phong/Documents/thesis/stm32f4/stm-idf/components/driver/i2c.c ****     UNUSED(tmpreg);
 202              		.loc 1 169 0
 203 00a8 1A6B     		ldr	r2, [r3, #48]
 174:/home/phong/Documents/thesis/stm32f4/stm-idf/components/driver/i2c.c ****     tmpreg = READ_BIT(RCC->AHB1ENR, hw_info.rcc_ahbenr_gpio_sda);
 204              		.loc 1 174 0
 205 00aa 1A6B     		ldr	r2, [r3, #48]
 206 00ac 0F99     		ldr	r1, [sp, #60]
 207 00ae 0A43     		orrs	r2, r2, r1
 208 00b0 1A63     		str	r2, [r3, #48]
 175:/home/phong/Documents/thesis/stm32f4/stm-idf/components/driver/i2c.c ****     UNUSED(tmpreg);
 209              		.loc 1 175 0
 210 00b2 1B6B     		ldr	r3, [r3, #48]
 211              	.LVL19:
 181:/home/phong/Documents/thesis/stm32f4/stm-idf/components/driver/i2c.c ****     i2c_handle[config->i2c_num].Init.ClockSpeed = config->clk_speed;
 212              		.loc 1 181 0
 213 00b4 2178     		ldrb	r1, [r4]	@ zero_extendqisi2
 214 00b6 384B     		ldr	r3, .L15+32
 215 00b8 5422     		movs	r2, #84
 216 00ba 02FB01F1 		mul	r1, r2, r1
 217 00be 0C98     		ldr	r0, [sp, #48]
 218 00c0 5850     		str	r0, [r3, r1]
 182:/home/phong/Documents/thesis/stm32f4/stm-idf/components/driver/i2c.c ****     i2c_handle[config->i2c_num].Init.DutyCycle = I2C_DUTYCYCLE_DEFAULT;
 219              		.loc 1 182 0
 220 00c2 2178     		ldrb	r1, [r4]	@ zero_extendqisi2
 221 00c4 6068     		ldr	r0, [r4, #4]
 222 00c6 02FB0131 		mla	r1, r2, r1, r3
 223 00ca 4860     		str	r0, [r1, #4]
 183:/home/phong/Documents/thesis/stm32f4/stm-idf/components/driver/i2c.c ****     i2c_handle[config->i2c_num].Init.OwnAddress1 = I2C_OWN_ADDRESS1_DEFAULT;
 224              		.loc 1 183 0
 225 00cc 2078     		ldrb	r0, [r4]	@ zero_extendqisi2
 226 00ce 02FB0030 		mla	r0, r2, r0, r3
 227 00d2 0021     		movs	r1, #0
 228 00d4 8160     		str	r1, [r0, #8]
 184:/home/phong/Documents/thesis/stm32f4/stm-idf/components/driver/i2c.c ****     i2c_handle[config->i2c_num].Init.AddressingMode = I2C_ADDRESSING_MODE_DEFAULT;
 229              		.loc 1 184 0
 230 00d6 2078     		ldrb	r0, [r4]	@ zero_extendqisi2
 231 00d8 02FB0030 		mla	r0, r2, r0, r3
 232 00dc C160     		str	r1, [r0, #12]
 185:/home/phong/Documents/thesis/stm32f4/stm-idf/components/driver/i2c.c ****     i2c_handle[config->i2c_num].Init.DualAddressMode = I2C_DUAL_ADDRESS_MODE_DEFAULT;
 233              		.loc 1 185 0
 234 00de 2078     		ldrb	r0, [r4]	@ zero_extendqisi2
ARM GAS  /tmp/cc4XUFVs.s 			page 9


 235 00e0 02FB0030 		mla	r0, r2, r0, r3
 236 00e4 4FF48045 		mov	r5, #16384
 237 00e8 0561     		str	r5, [r0, #16]
 186:/home/phong/Documents/thesis/stm32f4/stm-idf/components/driver/i2c.c ****     i2c_handle[config->i2c_num].Init.OwnAddress2 = I2C_OWN_ADDRESS2_DEFAULT;
 238              		.loc 1 186 0
 239 00ea 2078     		ldrb	r0, [r4]	@ zero_extendqisi2
 240 00ec 02FB0030 		mla	r0, r2, r0, r3
 241 00f0 4161     		str	r1, [r0, #20]
 187:/home/phong/Documents/thesis/stm32f4/stm-idf/components/driver/i2c.c ****     i2c_handle[config->i2c_num].Init.GeneralCallMode = I2C_GENERALCALL_MODE_DEFAULT;
 242              		.loc 1 187 0
 243 00f2 2078     		ldrb	r0, [r4]	@ zero_extendqisi2
 244 00f4 02FB0030 		mla	r0, r2, r0, r3
 245 00f8 8161     		str	r1, [r0, #24]
 188:/home/phong/Documents/thesis/stm32f4/stm-idf/components/driver/i2c.c ****     i2c_handle[config->i2c_num].Init.NoStretchMode = I2C_NOSTRETCH_MODE_DEFAULT;
 246              		.loc 1 188 0
 247 00fa 2078     		ldrb	r0, [r4]	@ zero_extendqisi2
 248 00fc 02FB0030 		mla	r0, r2, r0, r3
 249 0100 C161     		str	r1, [r0, #28]
 189:/home/phong/Documents/thesis/stm32f4/stm-idf/components/driver/i2c.c ****     err = HAL_I2C_Init(&i2c_handle[config->i2c_num]);
 250              		.loc 1 189 0
 251 0102 2078     		ldrb	r0, [r4]	@ zero_extendqisi2
 252 0104 02FB0030 		mla	r0, r2, r0, r3
 253 0108 0162     		str	r1, [r0, #32]
 190:/home/phong/Documents/thesis/stm32f4/stm-idf/components/driver/i2c.c ****     I2C_CHECK(err == HAL_OK, I2C_INIT_ERR_STR, STM_FAIL);
 254              		.loc 1 190 0
 255 010a 2078     		ldrb	r0, [r4]	@ zero_extendqisi2
 256 010c 02FB0030 		mla	r0, r2, r0, r3
 257 0110 FFF7FEFF 		bl	HAL_I2C_Init
 258              	.LVL20:
 191:/home/phong/Documents/thesis/stm32f4/stm-idf/components/driver/i2c.c ****     
 259              		.loc 1 191 0
 260 0114 E0B9     		cbnz	r0, .L14
 195:/home/phong/Documents/thesis/stm32f4/stm-idf/components/driver/i2c.c ****     GPIO_InitStruct.Mode = GPIO_MODE_DEFAULT;
 261              		.loc 1 195 0
 262 0116 BDF84830 		ldrh	r3, [sp, #72]
 263 011a 0793     		str	r3, [sp, #28]
 196:/home/phong/Documents/thesis/stm32f4/stm-idf/components/driver/i2c.c ****     GPIO_InitStruct.Pull = GPIO_PULL_REG_DEFAULT;
 264              		.loc 1 196 0
 265 011c 1227     		movs	r7, #18
 266 011e 0897     		str	r7, [sp, #32]
 197:/home/phong/Documents/thesis/stm32f4/stm-idf/components/driver/i2c.c ****     GPIO_InitStruct.Speed = GPIO_SPEED_FREQ_DEFAULT;
 267              		.loc 1 197 0
 268 0120 0126     		movs	r6, #1
 269 0122 0996     		str	r6, [sp, #36]
 198:/home/phong/Documents/thesis/stm32f4/stm-idf/components/driver/i2c.c ****     GPIO_InitStruct.Alternate = hw_info.alternate_func;
 270              		.loc 1 198 0
 271 0124 0325     		movs	r5, #3
 272 0126 0A95     		str	r5, [sp, #40]
 199:/home/phong/Documents/thesis/stm32f4/stm-idf/components/driver/i2c.c ****     HAL_GPIO_Init(hw_info.port_scl, &GPIO_InitStruct);
 273              		.loc 1 199 0
 274 0128 9DF84C40 		ldrb	r4, [sp, #76]	@ zero_extendqisi2
 275              	.LVL21:
 276 012c 0B94     		str	r4, [sp, #44]
 200:/home/phong/Documents/thesis/stm32f4/stm-idf/components/driver/i2c.c **** 
 277              		.loc 1 200 0
 278 012e 07A9     		add	r1, sp, #28
 279 0130 1098     		ldr	r0, [sp, #64]
ARM GAS  /tmp/cc4XUFVs.s 			page 10


 280              	.LVL22:
 281 0132 FFF7FEFF 		bl	HAL_GPIO_Init
 282              	.LVL23:
 203:/home/phong/Documents/thesis/stm32f4/stm-idf/components/driver/i2c.c ****     GPIO_InitStruct.Mode = GPIO_MODE_DEFAULT;
 283              		.loc 1 203 0
 284 0136 BDF84A30 		ldrh	r3, [sp, #74]
 285 013a 0793     		str	r3, [sp, #28]
 204:/home/phong/Documents/thesis/stm32f4/stm-idf/components/driver/i2c.c ****     GPIO_InitStruct.Pull = GPIO_PULL_REG_DEFAULT;
 286              		.loc 1 204 0
 287 013c 0897     		str	r7, [sp, #32]
 205:/home/phong/Documents/thesis/stm32f4/stm-idf/components/driver/i2c.c ****     GPIO_InitStruct.Speed = GPIO_SPEED_FREQ_DEFAULT;
 288              		.loc 1 205 0
 289 013e 0996     		str	r6, [sp, #36]
 206:/home/phong/Documents/thesis/stm32f4/stm-idf/components/driver/i2c.c ****     GPIO_InitStruct.Alternate = hw_info.alternate_func;
 290              		.loc 1 206 0
 291 0140 0A95     		str	r5, [sp, #40]
 207:/home/phong/Documents/thesis/stm32f4/stm-idf/components/driver/i2c.c ****     HAL_GPIO_Init(hw_info.port_sda, &GPIO_InitStruct);
 292              		.loc 1 207 0
 293 0142 0B94     		str	r4, [sp, #44]
 208:/home/phong/Documents/thesis/stm32f4/stm-idf/components/driver/i2c.c **** 
 294              		.loc 1 208 0
 295 0144 07A9     		add	r1, sp, #28
 296 0146 1198     		ldr	r0, [sp, #68]
 297 0148 FFF7FEFF 		bl	HAL_GPIO_Init
 298              	.LVL24:
 210:/home/phong/Documents/thesis/stm32f4/stm-idf/components/driver/i2c.c **** }
 299              		.loc 1 210 0
 300 014c 0020     		movs	r0, #0
 301 014e 9CE7     		b	.L5
 302              	.LVL25:
 303              	.L14:
 191:/home/phong/Documents/thesis/stm32f4/stm-idf/components/driver/i2c.c ****     
 304              		.loc 1 191 0 discriminator 4
 305 0150 FFF7FEFF 		bl	stm_log_timestamp
 306              	.LVL26:
 307 0154 0849     		ldr	r1, .L15
 308 0156 0D4B     		ldr	r3, .L15+20
 309 0158 0493     		str	r3, [sp, #16]
 310 015a 094B     		ldr	r3, .L15+8
 311 015c 0393     		str	r3, [sp, #12]
 312 015e BF23     		movs	r3, #191
 313 0160 0293     		str	r3, [sp, #8]
 314 0162 084B     		ldr	r3, .L15+12
 315 0164 0193     		str	r3, [sp, #4]
 316 0166 0091     		str	r1, [sp]
 317 0168 0346     		mov	r3, r0
 318 016a 074A     		ldr	r2, .L15+16
 319 016c 0120     		movs	r0, #1
 320 016e FFF7FEFF 		bl	stm_log_write
 321              	.LVL27:
 322 0172 4FF0FF30 		mov	r0, #-1
 323 0176 88E7     		b	.L5
 324              	.L16:
 325              		.align	2
 326              	.L15:
 327 0178 28000000 		.word	.LC1
 328 017c 9C000000 		.word	.LC5
ARM GAS  /tmp/cc4XUFVs.s 			page 11


 329 0180 00000000 		.word	.LANCHOR1
 330 0184 44000000 		.word	.LC3
 331 0188 00000000 		.word	.LC0
 332 018c 34000000 		.word	.LC2
 333 0190 8C000000 		.word	.LC4
 334 0194 00380240 		.word	1073887232
 335 0198 00000000 		.word	.LANCHOR2
 336              		.cfi_endproc
 337              	.LFE134:
 339              		.section	.text.i2c_write_bytes,"ax",%progbits
 340              		.align	1
 341              		.global	i2c_write_bytes
 342              		.syntax unified
 343              		.thumb
 344              		.thumb_func
 345              		.fpu fpv4-sp-d16
 347              	i2c_write_bytes:
 348              	.LFB135:
 212:/home/phong/Documents/thesis/stm32f4/stm-idf/components/driver/i2c.c **** 
 213:/home/phong/Documents/thesis/stm32f4/stm-idf/components/driver/i2c.c **** stm_err_t i2c_write_bytes(i2c_num_t i2c_num, uint16_t dev_addr, uint8_t *data, uint16_t length, uin
 214:/home/phong/Documents/thesis/stm32f4/stm-idf/components/driver/i2c.c **** {
 349              		.loc 1 214 0
 350              		.cfi_startproc
 351              		@ args = 4, pretend = 0, frame = 0
 352              		@ frame_needed = 0, uses_anonymous_args = 0
 353              	.LVL28:
 354 0000 30B5     		push	{r4, r5, lr}
 355              	.LCFI6:
 356              		.cfi_def_cfa_offset 12
 357              		.cfi_offset 4, -12
 358              		.cfi_offset 5, -8
 359              		.cfi_offset 14, -4
 360 0002 87B0     		sub	sp, sp, #28
 361              	.LCFI7:
 362              		.cfi_def_cfa_offset 40
 215:/home/phong/Documents/thesis/stm32f4/stm-idf/components/driver/i2c.c ****     I2C_CHECK(i2c_num < I2C_NUM_MAX, I2C_TRANS_ERR_STR, STM_ERR_INVALID_ARG);
 363              		.loc 1 215 0
 364 0004 0228     		cmp	r0, #2
 365 0006 14D9     		bls	.L18
 366              		.loc 1 215 0 is_stmt 0 discriminator 4
 367 0008 FFF7FEFF 		bl	stm_log_timestamp
 368              	.LVL29:
 369 000c 1849     		ldr	r1, .L23
 370 000e 194B     		ldr	r3, .L23+4
 371 0010 0493     		str	r3, [sp, #16]
 372 0012 194B     		ldr	r3, .L23+8
 373 0014 0393     		str	r3, [sp, #12]
 374 0016 D723     		movs	r3, #215
 375 0018 0293     		str	r3, [sp, #8]
 376 001a 184B     		ldr	r3, .L23+12
 377 001c 0193     		str	r3, [sp, #4]
 378 001e 0091     		str	r1, [sp]
 379 0020 0346     		mov	r3, r0
 380 0022 174A     		ldr	r2, .L23+16
 381 0024 0120     		movs	r0, #1
 382 0026 FFF7FEFF 		bl	stm_log_write
 383              	.LVL30:
ARM GAS  /tmp/cc4XUFVs.s 			page 12


 384 002a 4FF48170 		mov	r0, #258
 385              	.L17:
 216:/home/phong/Documents/thesis/stm32f4/stm-idf/components/driver/i2c.c **** 
 217:/home/phong/Documents/thesis/stm32f4/stm-idf/components/driver/i2c.c ****     int ret = HAL_I2C_Master_Transmit(&i2c_handle[i2c_num], dev_addr, data, length, timeout_ms);
 218:/home/phong/Documents/thesis/stm32f4/stm-idf/components/driver/i2c.c ****     I2C_CHECK(!ret, I2C_TRANS_ERR_STR, STM_FAIL);
 219:/home/phong/Documents/thesis/stm32f4/stm-idf/components/driver/i2c.c **** 
 220:/home/phong/Documents/thesis/stm32f4/stm-idf/components/driver/i2c.c ****     return STM_OK;
 221:/home/phong/Documents/thesis/stm32f4/stm-idf/components/driver/i2c.c **** }
 386              		.loc 1 221 0 is_stmt 1
 387 002e 07B0     		add	sp, sp, #28
 388              	.LCFI8:
 389              		.cfi_remember_state
 390              		.cfi_def_cfa_offset 12
 391              		@ sp needed
 392 0030 30BD     		pop	{r4, r5, pc}
 393              	.LVL31:
 394              	.L18:
 395              	.LCFI9:
 396              		.cfi_restore_state
 217:/home/phong/Documents/thesis/stm32f4/stm-idf/components/driver/i2c.c ****     I2C_CHECK(!ret, I2C_TRANS_ERR_STR, STM_FAIL);
 397              		.loc 1 217 0
 398 0032 0A9C     		ldr	r4, [sp, #40]
 399 0034 0094     		str	r4, [sp]
 400 0036 5425     		movs	r5, #84
 401 0038 124C     		ldr	r4, .L23+20
 402 003a 05FB0040 		mla	r0, r5, r0, r4
 403              	.LVL32:
 404 003e FFF7FEFF 		bl	HAL_I2C_Master_Transmit
 405              	.LVL33:
 218:/home/phong/Documents/thesis/stm32f4/stm-idf/components/driver/i2c.c **** 
 406              		.loc 1 218 0
 407 0042 08B9     		cbnz	r0, .L22
 220:/home/phong/Documents/thesis/stm32f4/stm-idf/components/driver/i2c.c **** }
 408              		.loc 1 220 0
 409 0044 0020     		movs	r0, #0
 410              	.LVL34:
 411 0046 F2E7     		b	.L17
 412              	.LVL35:
 413              	.L22:
 218:/home/phong/Documents/thesis/stm32f4/stm-idf/components/driver/i2c.c **** 
 414              		.loc 1 218 0 discriminator 4
 415 0048 FFF7FEFF 		bl	stm_log_timestamp
 416              	.LVL36:
 417 004c 0849     		ldr	r1, .L23
 418 004e 094B     		ldr	r3, .L23+4
 419 0050 0493     		str	r3, [sp, #16]
 420 0052 094B     		ldr	r3, .L23+8
 421 0054 0393     		str	r3, [sp, #12]
 422 0056 DA23     		movs	r3, #218
 423 0058 0293     		str	r3, [sp, #8]
 424 005a 084B     		ldr	r3, .L23+12
 425 005c 0193     		str	r3, [sp, #4]
 426 005e 0091     		str	r1, [sp]
 427 0060 0346     		mov	r3, r0
 428 0062 074A     		ldr	r2, .L23+16
 429 0064 0120     		movs	r0, #1
 430 0066 FFF7FEFF 		bl	stm_log_write
ARM GAS  /tmp/cc4XUFVs.s 			page 13


 431              	.LVL37:
 432 006a 4FF0FF30 		mov	r0, #-1
 433 006e DEE7     		b	.L17
 434              	.L24:
 435              		.align	2
 436              	.L23:
 437 0070 28000000 		.word	.LC1
 438 0074 00000000 		.word	.LC6
 439 0078 00000000 		.word	.LANCHOR3
 440 007c 44000000 		.word	.LC3
 441 0080 00000000 		.word	.LC0
 442 0084 00000000 		.word	.LANCHOR2
 443              		.cfi_endproc
 444              	.LFE135:
 446              		.section	.text.i2c_read_bytes,"ax",%progbits
 447              		.align	1
 448              		.global	i2c_read_bytes
 449              		.syntax unified
 450              		.thumb
 451              		.thumb_func
 452              		.fpu fpv4-sp-d16
 454              	i2c_read_bytes:
 455              	.LFB136:
 222:/home/phong/Documents/thesis/stm32f4/stm-idf/components/driver/i2c.c **** 
 223:/home/phong/Documents/thesis/stm32f4/stm-idf/components/driver/i2c.c **** stm_err_t i2c_read_bytes(i2c_num_t i2c_num, uint16_t dev_addr, uint8_t *buf, uint16_t length, uint3
 224:/home/phong/Documents/thesis/stm32f4/stm-idf/components/driver/i2c.c **** {
 456              		.loc 1 224 0
 457              		.cfi_startproc
 458              		@ args = 4, pretend = 0, frame = 0
 459              		@ frame_needed = 0, uses_anonymous_args = 0
 460              	.LVL38:
 461 0000 30B5     		push	{r4, r5, lr}
 462              	.LCFI10:
 463              		.cfi_def_cfa_offset 12
 464              		.cfi_offset 4, -12
 465              		.cfi_offset 5, -8
 466              		.cfi_offset 14, -4
 467 0002 87B0     		sub	sp, sp, #28
 468              	.LCFI11:
 469              		.cfi_def_cfa_offset 40
 225:/home/phong/Documents/thesis/stm32f4/stm-idf/components/driver/i2c.c ****     I2C_CHECK(i2c_num < I2C_NUM_MAX, I2C_REC_ERR_STR, STM_ERR_INVALID_ARG)
 470              		.loc 1 225 0
 471 0004 0228     		cmp	r0, #2
 472 0006 14D9     		bls	.L26
 473              		.loc 1 225 0 is_stmt 0 discriminator 4
 474 0008 FFF7FEFF 		bl	stm_log_timestamp
 475              	.LVL39:
 476 000c 1849     		ldr	r1, .L31
 477 000e 194B     		ldr	r3, .L31+4
 478 0010 0493     		str	r3, [sp, #16]
 479 0012 194B     		ldr	r3, .L31+8
 480 0014 0393     		str	r3, [sp, #12]
 481 0016 E123     		movs	r3, #225
 482 0018 0293     		str	r3, [sp, #8]
 483 001a 184B     		ldr	r3, .L31+12
 484 001c 0193     		str	r3, [sp, #4]
 485 001e 0091     		str	r1, [sp]
ARM GAS  /tmp/cc4XUFVs.s 			page 14


 486 0020 0346     		mov	r3, r0
 487 0022 174A     		ldr	r2, .L31+16
 488 0024 0120     		movs	r0, #1
 489 0026 FFF7FEFF 		bl	stm_log_write
 490              	.LVL40:
 491 002a 4FF48170 		mov	r0, #258
 492              	.L25:
 226:/home/phong/Documents/thesis/stm32f4/stm-idf/components/driver/i2c.c **** 
 227:/home/phong/Documents/thesis/stm32f4/stm-idf/components/driver/i2c.c ****     int ret = HAL_I2C_Master_Receive(&i2c_handle[i2c_num], dev_addr, buf, length, timeout_ms);
 228:/home/phong/Documents/thesis/stm32f4/stm-idf/components/driver/i2c.c ****     I2C_CHECK(!ret, I2C_REC_ERR_STR, STM_FAIL);
 229:/home/phong/Documents/thesis/stm32f4/stm-idf/components/driver/i2c.c **** 
 230:/home/phong/Documents/thesis/stm32f4/stm-idf/components/driver/i2c.c ****     return STM_OK;
 231:/home/phong/Documents/thesis/stm32f4/stm-idf/components/driver/i2c.c **** }
 493              		.loc 1 231 0 is_stmt 1
 494 002e 07B0     		add	sp, sp, #28
 495              	.LCFI12:
 496              		.cfi_remember_state
 497              		.cfi_def_cfa_offset 12
 498              		@ sp needed
 499 0030 30BD     		pop	{r4, r5, pc}
 500              	.LVL41:
 501              	.L26:
 502              	.LCFI13:
 503              		.cfi_restore_state
 227:/home/phong/Documents/thesis/stm32f4/stm-idf/components/driver/i2c.c ****     I2C_CHECK(!ret, I2C_REC_ERR_STR, STM_FAIL);
 504              		.loc 1 227 0
 505 0032 0A9C     		ldr	r4, [sp, #40]
 506 0034 0094     		str	r4, [sp]
 507 0036 5425     		movs	r5, #84
 508 0038 124C     		ldr	r4, .L31+20
 509 003a 05FB0040 		mla	r0, r5, r0, r4
 510              	.LVL42:
 511 003e FFF7FEFF 		bl	HAL_I2C_Master_Receive
 512              	.LVL43:
 228:/home/phong/Documents/thesis/stm32f4/stm-idf/components/driver/i2c.c **** 
 513              		.loc 1 228 0
 514 0042 08B9     		cbnz	r0, .L30
 230:/home/phong/Documents/thesis/stm32f4/stm-idf/components/driver/i2c.c **** }
 515              		.loc 1 230 0
 516 0044 0020     		movs	r0, #0
 517              	.LVL44:
 518 0046 F2E7     		b	.L25
 519              	.LVL45:
 520              	.L30:
 228:/home/phong/Documents/thesis/stm32f4/stm-idf/components/driver/i2c.c **** 
 521              		.loc 1 228 0 discriminator 4
 522 0048 FFF7FEFF 		bl	stm_log_timestamp
 523              	.LVL46:
 524 004c 0849     		ldr	r1, .L31
 525 004e 094B     		ldr	r3, .L31+4
 526 0050 0493     		str	r3, [sp, #16]
 527 0052 094B     		ldr	r3, .L31+8
 528 0054 0393     		str	r3, [sp, #12]
 529 0056 E423     		movs	r3, #228
 530 0058 0293     		str	r3, [sp, #8]
 531 005a 084B     		ldr	r3, .L31+12
 532 005c 0193     		str	r3, [sp, #4]
ARM GAS  /tmp/cc4XUFVs.s 			page 15


 533 005e 0091     		str	r1, [sp]
 534 0060 0346     		mov	r3, r0
 535 0062 074A     		ldr	r2, .L31+16
 536 0064 0120     		movs	r0, #1
 537 0066 FFF7FEFF 		bl	stm_log_write
 538              	.LVL47:
 539 006a 4FF0FF30 		mov	r0, #-1
 540 006e DEE7     		b	.L25
 541              	.L32:
 542              		.align	2
 543              	.L31:
 544 0070 28000000 		.word	.LC1
 545 0074 00000000 		.word	.LC7
 546 0078 00000000 		.word	.LANCHOR4
 547 007c 44000000 		.word	.LC3
 548 0080 00000000 		.word	.LC0
 549 0084 00000000 		.word	.LANCHOR2
 550              		.cfi_endproc
 551              	.LFE136:
 553              		.section	.bss.i2c_handle,"aw",%nobits
 554              		.align	2
 555              		.set	.LANCHOR2,. + 0
 558              	i2c_handle:
 559 0000 00000000 		.space	252
 559      00000000 
 559      00000000 
 559      00000000 
 559      00000000 
 560              		.section	.rodata.I2C_HW_INFO_MAPPING,"a",%progbits
 561              		.align	2
 562              		.set	.LANCHOR0,. + 0
 565              	I2C_HW_INFO_MAPPING:
 566 0000 00540040 		.word	1073763328
 567 0004 00002000 		.word	2097152
 568 0008 02000000 		.word	2
 569 000c 02000000 		.word	2
 570 0010 00040240 		.word	1073873920
 571 0014 00040240 		.word	1073873920
 572 0018 4000     		.short	64
 573 001a 8000     		.short	128
 574 001c 04       		.byte	4
 575 001d 000000   		.space	3
 576 0020 00540040 		.word	1073763328
 577 0024 00002000 		.word	2097152
 578 0028 02000000 		.word	2
 579 002c 02000000 		.word	2
 580 0030 00040240 		.word	1073873920
 581 0034 00040240 		.word	1073873920
 582 0038 0001     		.short	256
 583 003a 0002     		.short	512
 584 003c 04       		.byte	4
 585 003d 000000   		.space	3
 586 0040 00540040 		.word	1073763328
 587 0044 00002000 		.word	2097152
 588 0048 02000000 		.word	2
 589 004c 02000000 		.word	2
 590 0050 00040240 		.word	1073873920
ARM GAS  /tmp/cc4XUFVs.s 			page 16


 591 0054 00040240 		.word	1073873920
 592 0058 4000     		.short	64
 593 005a 0002     		.short	512
 594 005c 04       		.byte	4
 595 005d 000000   		.space	3
 596 0060 00580040 		.word	1073764352
 597 0064 00004000 		.word	4194304
 598 0068 02000000 		.word	2
 599 006c 02000000 		.word	2
 600 0070 00040240 		.word	1073873920
 601 0074 00040240 		.word	1073873920
 602 0078 0004     		.short	1024
 603 007a 0008     		.short	2048
 604 007c 04       		.byte	4
 605 007d 000000   		.space	3
 606 0080 00580040 		.word	1073764352
 607 0084 00004000 		.word	4194304
 608 0088 20000000 		.word	32
 609 008c 20000000 		.word	32
 610 0090 00140240 		.word	1073878016
 611 0094 00140240 		.word	1073878016
 612 0098 0200     		.short	2
 613 009a 0100     		.short	1
 614 009c 04       		.byte	4
 615 009d 000000   		.space	3
 616 00a0 00580040 		.word	1073764352
 617 00a4 00004000 		.word	4194304
 618 00a8 80000000 		.word	128
 619 00ac 80000000 		.word	128
 620 00b0 001C0240 		.word	1073880064
 621 00b4 001C0240 		.word	1073880064
 622 00b8 1000     		.short	16
 623 00ba 2000     		.short	32
 624 00bc 04       		.byte	4
 625 00bd 000000   		.space	3
 626 00c0 005C0040 		.word	1073765376
 627 00c4 00008000 		.word	8388608
 628 00c8 01000000 		.word	1
 629 00cc 04000000 		.word	4
 630 00d0 00000240 		.word	1073872896
 631 00d4 00080240 		.word	1073874944
 632 00d8 0001     		.short	256
 633 00da 0002     		.short	512
 634 00dc 04       		.byte	4
 635 00dd 000000   		.space	3
 636 00e0 005C0040 		.word	1073765376
 637 00e4 00008000 		.word	8388608
 638 00e8 80000000 		.word	128
 639 00ec 80000000 		.word	128
 640 00f0 001C0240 		.word	1073880064
 641 00f4 001C0240 		.word	1073880064
 642 00f8 8000     		.short	128
 643 00fa 0001     		.short	256
 644 00fc 04       		.byte	4
 645 00fd 000000   		.space	3
 646 0100 00000000 		.word	0
 647 0104 00000000 		.space	28
ARM GAS  /tmp/cc4XUFVs.s 			page 17


 647      00000000 
 647      00000000 
 647      00000000 
 647      00000000 
 648              		.section	.rodata.__FUNCTION__.12154,"a",%progbits
 649              		.align	2
 650              		.set	.LANCHOR1,. + 0
 653              	__FUNCTION__.12154:
 654 0000 6932635F 		.ascii	"i2c_config\000"
 654      636F6E66 
 654      696700
 655              		.section	.rodata.__FUNCTION__.12166,"a",%progbits
 656              		.align	2
 657              		.set	.LANCHOR3,. + 0
 660              	__FUNCTION__.12166:
 661 0000 6932635F 		.ascii	"i2c_write_bytes\000"
 661      77726974 
 661      655F6279 
 661      74657300 
 662              		.section	.rodata.__FUNCTION__.12175,"a",%progbits
 663              		.align	2
 664              		.set	.LANCHOR4,. + 0
 667              	__FUNCTION__.12175:
 668 0000 6932635F 		.ascii	"i2c_read_bytes\000"
 668      72656164 
 668      5F627974 
 668      657300
 669              		.section	.rodata.i2c_config.str1.4,"aMS",%progbits,1
 670              		.align	2
 671              	.LC0:
 672 0000 1B5B303B 		.ascii	"\033[0;31mE (%d) %s: %s:%d (%s):%s\033[0m\015\012\000"
 672      33316D45 
 672      20282564 
 672      29202573 
 672      3A202573 
 673 0026 0000     		.space	2
 674              	.LC1:
 675 0028 44524956 		.ascii	"DRIVER I2C\000"
 675      45522049 
 675      324300
 676 0033 00       		.space	1
 677              	.LC2:
 678 0034 69326320 		.ascii	"i2c init error\000"
 678      696E6974 
 678      20657272 
 678      6F7200
 679 0043 00       		.space	1
 680              	.LC3:
 681 0044 2F686F6D 		.ascii	"/home/phong/Documents/thesis/stm32f4/stm-idf/compon"
 681      652F7068 
 681      6F6E672F 
 681      446F6375 
 681      6D656E74 
 682 0077 656E7473 		.ascii	"ents/driver/i2c.c\000"
 682      2F647269 
 682      7665722F 
 682      6932632E 
ARM GAS  /tmp/cc4XUFVs.s 			page 18


 682      6300
 683 0089 000000   		.space	3
 684              	.LC4:
 685 008c 69326320 		.ascii	"i2c num error\000"
 685      6E756D20 
 685      6572726F 
 685      7200
 686 009a 0000     		.space	2
 687              	.LC5:
 688 009c 69326320 		.ascii	"i2c pins pack error\000"
 688      70696E73 
 688      20706163 
 688      6B206572 
 688      726F7200 
 689              		.section	.rodata.i2c_read_bytes.str1.4,"aMS",%progbits,1
 690              		.align	2
 691              	.LC7:
 692 0000 69326320 		.ascii	"i2c receive data error\000"
 692      72656365 
 692      69766520 
 692      64617461 
 692      20657272 
 693              		.section	.rodata.i2c_write_bytes.str1.4,"aMS",%progbits,1
 694              		.align	2
 695              	.LC6:
 696 0000 69326320 		.ascii	"i2c transmit data error\000"
 696      7472616E 
 696      736D6974 
 696      20646174 
 696      61206572 
 697              		.text
 698              	.Letext0:
 699              		.file 2 "/home/phong/Documents/thesis/stm32f4/stm-idf/components/newlib/include/machine/_default_t
 700              		.file 3 "/home/phong/Documents/thesis/stm32f4/stm-idf/components/newlib/include/sys/lock.h"
 701              		.file 4 "/home/phong/Documents/thesis/stm32f4/stm-idf/components/newlib/include/sys/_types.h"
 702              		.file 5 "/usr/lib/gcc/arm-none-eabi/6.3.1/include/stddef.h"
 703              		.file 6 "/home/phong/Documents/thesis/stm32f4/stm-idf/components/newlib/include/sys/reent.h"
 704              		.file 7 "/home/phong/Documents/thesis/stm32f4/stm-idf/components/newlib/include/stdlib.h"
 705              		.file 8 "/home/phong/Documents/thesis/stm32f4/stm-idf/components/newlib/include/sys/_stdint.h"
 706              		.file 9 "/home/phong/Documents/thesis/stm32f4/stm-idf/components/cmsis/include/core_cm4.h"
 707              		.file 10 "/home/phong/Documents/thesis/stm32f4/stm-idf/components/cmsis/device/stm32/stm32f4xx/inc
 708              		.file 11 "/home/phong/Documents/thesis/stm32f4/stm-idf/components/cmsis/device/stm32/stm32f4xx/inc
 709              		.file 12 "/home/phong/Documents/thesis/stm32f4/stm-idf/components/stm32f4xx_hal_driver/include/stm
 710              		.file 13 "/home/phong/Documents/thesis/stm32f4/stm-idf/components/stm32f4xx_hal_driver/include/stm
 711              		.file 14 "/home/phong/Documents/thesis/stm32f4/stm-idf/components/stm32f4xx_hal_driver/include/stm
 712              		.file 15 "/home/phong/Documents/thesis/stm32f4/stm-idf/components/stm32f4xx_hal_driver/include/stm
 713              		.file 16 "/home/phong/Documents/thesis/stm32f4/stm-idf/components/stm32f4xx_hal_driver/include/stm
 714              		.file 17 "/home/phong/Documents/thesis/stm32f4/stm-idf/components/stm_common/include/stm_err.h"
 715              		.file 18 "/home/phong/Documents/thesis/stm32f4/stm-idf/components/log/include/stm_log.h"
 716              		.file 19 "/home/phong/Documents/thesis/stm32f4/stm-idf/components/driver/include/driver/i2c.h"
ARM GAS  /tmp/cc4XUFVs.s 			page 19

