ARM GAS  /tmp/cc17vVDA.s 			page 1


   1              		.cpu cortex-m4
   2              		.eabi_attribute 27, 1
   3              		.eabi_attribute 28, 1
   4              		.eabi_attribute 20, 1
   5              		.eabi_attribute 21, 1
   6              		.eabi_attribute 23, 3
   7              		.eabi_attribute 24, 1
   8              		.eabi_attribute 25, 1
   9              		.eabi_attribute 26, 1
  10              		.eabi_attribute 30, 1
  11              		.eabi_attribute 34, 1
  12              		.eabi_attribute 18, 4
  13              		.file	"stm32f4xx_hal_rtc_ex.c"
  14              		.text
  15              	.Ltext0:
  16              		.cfi_sections	.debug_frame
  17              		.section	.text.HAL_RTCEx_SetTimeStamp,"ax",%progbits
  18              		.align	1
  19              		.global	HAL_RTCEx_SetTimeStamp
  20              		.syntax unified
  21              		.thumb
  22              		.thumb_func
  23              		.fpu fpv4-sp-d16
  25              	HAL_RTCEx_SetTimeStamp:
  26              	.LFB130:
  27              		.file 1 "/home/phong/Documents/thesis/stm32f4/stm-idf/components/stm32f4xx_hal_driver/stm32f4xx_ha
   1:/home/phong/Documents/thesis/stm32f4/stm-idf/components/stm32f4xx_hal_driver/stm32f4xx_hal_rtc_ex.c **** /**
   2:/home/phong/Documents/thesis/stm32f4/stm-idf/components/stm32f4xx_hal_driver/stm32f4xx_hal_rtc_ex.c ****   ******************************************************************************
   3:/home/phong/Documents/thesis/stm32f4/stm-idf/components/stm32f4xx_hal_driver/stm32f4xx_hal_rtc_ex.c ****   * @file    stm32f4xx_hal_rtc_ex.c
   4:/home/phong/Documents/thesis/stm32f4/stm-idf/components/stm32f4xx_hal_driver/stm32f4xx_hal_rtc_ex.c ****   * @author  MCD Application Team
   5:/home/phong/Documents/thesis/stm32f4/stm-idf/components/stm32f4xx_hal_driver/stm32f4xx_hal_rtc_ex.c ****   * @brief   RTC HAL module driver.
   6:/home/phong/Documents/thesis/stm32f4/stm-idf/components/stm32f4xx_hal_driver/stm32f4xx_hal_rtc_ex.c ****   *          This file provides firmware functions to manage the following
   7:/home/phong/Documents/thesis/stm32f4/stm-idf/components/stm32f4xx_hal_driver/stm32f4xx_hal_rtc_ex.c ****   *          functionalities of the Real Time Clock (RTC) Extension peripheral:
   8:/home/phong/Documents/thesis/stm32f4/stm-idf/components/stm32f4xx_hal_driver/stm32f4xx_hal_rtc_ex.c ****   *           + RTC Time Stamp functions
   9:/home/phong/Documents/thesis/stm32f4/stm-idf/components/stm32f4xx_hal_driver/stm32f4xx_hal_rtc_ex.c ****   *           + RTC Tamper functions
  10:/home/phong/Documents/thesis/stm32f4/stm-idf/components/stm32f4xx_hal_driver/stm32f4xx_hal_rtc_ex.c ****   *           + RTC Wake-up functions
  11:/home/phong/Documents/thesis/stm32f4/stm-idf/components/stm32f4xx_hal_driver/stm32f4xx_hal_rtc_ex.c ****   *           + Extension Control functions
  12:/home/phong/Documents/thesis/stm32f4/stm-idf/components/stm32f4xx_hal_driver/stm32f4xx_hal_rtc_ex.c ****   *           + Extension RTC features functions
  13:/home/phong/Documents/thesis/stm32f4/stm-idf/components/stm32f4xx_hal_driver/stm32f4xx_hal_rtc_ex.c ****   *
  14:/home/phong/Documents/thesis/stm32f4/stm-idf/components/stm32f4xx_hal_driver/stm32f4xx_hal_rtc_ex.c ****   @verbatim
  15:/home/phong/Documents/thesis/stm32f4/stm-idf/components/stm32f4xx_hal_driver/stm32f4xx_hal_rtc_ex.c ****   ==============================================================================
  16:/home/phong/Documents/thesis/stm32f4/stm-idf/components/stm32f4xx_hal_driver/stm32f4xx_hal_rtc_ex.c ****                   ##### How to use this driver #####
  17:/home/phong/Documents/thesis/stm32f4/stm-idf/components/stm32f4xx_hal_driver/stm32f4xx_hal_rtc_ex.c ****   ==============================================================================
  18:/home/phong/Documents/thesis/stm32f4/stm-idf/components/stm32f4xx_hal_driver/stm32f4xx_hal_rtc_ex.c ****   [..]
  19:/home/phong/Documents/thesis/stm32f4/stm-idf/components/stm32f4xx_hal_driver/stm32f4xx_hal_rtc_ex.c ****     (+) Enable the RTC domain access.
  20:/home/phong/Documents/thesis/stm32f4/stm-idf/components/stm32f4xx_hal_driver/stm32f4xx_hal_rtc_ex.c ****     (+) Configure the RTC Prescaler (Asynchronous and Synchronous) and RTC hour
  21:/home/phong/Documents/thesis/stm32f4/stm-idf/components/stm32f4xx_hal_driver/stm32f4xx_hal_rtc_ex.c ****         format using the HAL_RTC_Init() function.
  22:/home/phong/Documents/thesis/stm32f4/stm-idf/components/stm32f4xx_hal_driver/stm32f4xx_hal_rtc_ex.c **** 
  23:/home/phong/Documents/thesis/stm32f4/stm-idf/components/stm32f4xx_hal_driver/stm32f4xx_hal_rtc_ex.c ****   *** RTC Wake-up configuration ***
  24:/home/phong/Documents/thesis/stm32f4/stm-idf/components/stm32f4xx_hal_driver/stm32f4xx_hal_rtc_ex.c ****   ================================
  25:/home/phong/Documents/thesis/stm32f4/stm-idf/components/stm32f4xx_hal_driver/stm32f4xx_hal_rtc_ex.c ****   [..]
  26:/home/phong/Documents/thesis/stm32f4/stm-idf/components/stm32f4xx_hal_driver/stm32f4xx_hal_rtc_ex.c ****     (+) To configure the RTC Wake-up Clock source and Counter use the HAL_RTCEx_SetWakeUpTimer()
  27:/home/phong/Documents/thesis/stm32f4/stm-idf/components/stm32f4xx_hal_driver/stm32f4xx_hal_rtc_ex.c ****         function. You can also configure the RTC Wake-up timer in interrupt mode
  28:/home/phong/Documents/thesis/stm32f4/stm-idf/components/stm32f4xx_hal_driver/stm32f4xx_hal_rtc_ex.c ****         using the HAL_RTCEx_SetWakeUpTimer_IT() function.
  29:/home/phong/Documents/thesis/stm32f4/stm-idf/components/stm32f4xx_hal_driver/stm32f4xx_hal_rtc_ex.c ****     (+) To read the RTC Wake-up Counter register, use the HAL_RTCEx_GetWakeUpTimer()
  30:/home/phong/Documents/thesis/stm32f4/stm-idf/components/stm32f4xx_hal_driver/stm32f4xx_hal_rtc_ex.c ****         function.
  31:/home/phong/Documents/thesis/stm32f4/stm-idf/components/stm32f4xx_hal_driver/stm32f4xx_hal_rtc_ex.c **** 
ARM GAS  /tmp/cc17vVDA.s 			page 2


  32:/home/phong/Documents/thesis/stm32f4/stm-idf/components/stm32f4xx_hal_driver/stm32f4xx_hal_rtc_ex.c ****   *** TimeStamp configuration ***
  33:/home/phong/Documents/thesis/stm32f4/stm-idf/components/stm32f4xx_hal_driver/stm32f4xx_hal_rtc_ex.c ****   ===============================
  34:/home/phong/Documents/thesis/stm32f4/stm-idf/components/stm32f4xx_hal_driver/stm32f4xx_hal_rtc_ex.c ****   [..]
  35:/home/phong/Documents/thesis/stm32f4/stm-idf/components/stm32f4xx_hal_driver/stm32f4xx_hal_rtc_ex.c ****     (+) Configure the RTC_AFx trigger and enable the RTC TimeStamp using the
  36:/home/phong/Documents/thesis/stm32f4/stm-idf/components/stm32f4xx_hal_driver/stm32f4xx_hal_rtc_ex.c ****         HAL_RTCEx_SetTimeStamp() function. You can also configure the RTC TimeStamp with
  37:/home/phong/Documents/thesis/stm32f4/stm-idf/components/stm32f4xx_hal_driver/stm32f4xx_hal_rtc_ex.c ****         interrupt mode using the HAL_RTCEx_SetTimeStamp_IT() function.
  38:/home/phong/Documents/thesis/stm32f4/stm-idf/components/stm32f4xx_hal_driver/stm32f4xx_hal_rtc_ex.c ****     (+) To read the RTC TimeStamp Time and Date register, use the HAL_RTCEx_GetTimeStamp()
  39:/home/phong/Documents/thesis/stm32f4/stm-idf/components/stm32f4xx_hal_driver/stm32f4xx_hal_rtc_ex.c ****         function.
  40:/home/phong/Documents/thesis/stm32f4/stm-idf/components/stm32f4xx_hal_driver/stm32f4xx_hal_rtc_ex.c ****     (+) The TIMESTAMP alternate function can be mapped either to RTC_AF1 (PC13)
  41:/home/phong/Documents/thesis/stm32f4/stm-idf/components/stm32f4xx_hal_driver/stm32f4xx_hal_rtc_ex.c ****         or RTC_AF2 (PI8 or PA0 only for STM32F446xx devices) depending on the value of TSINSEL bit 
  42:/home/phong/Documents/thesis/stm32f4/stm-idf/components/stm32f4xx_hal_driver/stm32f4xx_hal_rtc_ex.c ****         RTC_TAFCR register. The corresponding pin is also selected by HAL_RTCEx_SetTimeStamp()
  43:/home/phong/Documents/thesis/stm32f4/stm-idf/components/stm32f4xx_hal_driver/stm32f4xx_hal_rtc_ex.c ****         or HAL_RTCEx_SetTimeStamp_IT() function.
  44:/home/phong/Documents/thesis/stm32f4/stm-idf/components/stm32f4xx_hal_driver/stm32f4xx_hal_rtc_ex.c **** 
  45:/home/phong/Documents/thesis/stm32f4/stm-idf/components/stm32f4xx_hal_driver/stm32f4xx_hal_rtc_ex.c ****   *** Tamper configuration ***
  46:/home/phong/Documents/thesis/stm32f4/stm-idf/components/stm32f4xx_hal_driver/stm32f4xx_hal_rtc_ex.c ****   ============================
  47:/home/phong/Documents/thesis/stm32f4/stm-idf/components/stm32f4xx_hal_driver/stm32f4xx_hal_rtc_ex.c ****   [..]
  48:/home/phong/Documents/thesis/stm32f4/stm-idf/components/stm32f4xx_hal_driver/stm32f4xx_hal_rtc_ex.c ****     (+) Enable the RTC Tamper and configure the Tamper filter count, trigger Edge
  49:/home/phong/Documents/thesis/stm32f4/stm-idf/components/stm32f4xx_hal_driver/stm32f4xx_hal_rtc_ex.c ****         or Level according to the Tamper filter (if equal to 0 Edge else Level)
  50:/home/phong/Documents/thesis/stm32f4/stm-idf/components/stm32f4xx_hal_driver/stm32f4xx_hal_rtc_ex.c ****         value, sampling frequency, precharge or discharge and Pull-UP using the
  51:/home/phong/Documents/thesis/stm32f4/stm-idf/components/stm32f4xx_hal_driver/stm32f4xx_hal_rtc_ex.c ****         HAL_RTCEx_SetTamper() function. You can configure RTC Tamper in interrupt
  52:/home/phong/Documents/thesis/stm32f4/stm-idf/components/stm32f4xx_hal_driver/stm32f4xx_hal_rtc_ex.c ****         mode using HAL_RTCEx_SetTamper_IT() function.
  53:/home/phong/Documents/thesis/stm32f4/stm-idf/components/stm32f4xx_hal_driver/stm32f4xx_hal_rtc_ex.c ****     (+) The TAMPER1 alternate function can be mapped either to RTC_AF1 (PC13)
  54:/home/phong/Documents/thesis/stm32f4/stm-idf/components/stm32f4xx_hal_driver/stm32f4xx_hal_rtc_ex.c ****         or RTC_AF2 (PI8 or PA0 only for STM32F446xx devices) depending on the value of TAMP1INSEL b
  55:/home/phong/Documents/thesis/stm32f4/stm-idf/components/stm32f4xx_hal_driver/stm32f4xx_hal_rtc_ex.c ****         RTC_TAFCR register. The corresponding pin is also selected by HAL_RTCEx_SetTamper()
  56:/home/phong/Documents/thesis/stm32f4/stm-idf/components/stm32f4xx_hal_driver/stm32f4xx_hal_rtc_ex.c ****         or HAL_RTCEx_SetTamper_IT() function.
  57:/home/phong/Documents/thesis/stm32f4/stm-idf/components/stm32f4xx_hal_driver/stm32f4xx_hal_rtc_ex.c **** 
  58:/home/phong/Documents/thesis/stm32f4/stm-idf/components/stm32f4xx_hal_driver/stm32f4xx_hal_rtc_ex.c ****   *** Backup Data Registers configuration ***
  59:/home/phong/Documents/thesis/stm32f4/stm-idf/components/stm32f4xx_hal_driver/stm32f4xx_hal_rtc_ex.c ****   ===========================================
  60:/home/phong/Documents/thesis/stm32f4/stm-idf/components/stm32f4xx_hal_driver/stm32f4xx_hal_rtc_ex.c ****   [..]
  61:/home/phong/Documents/thesis/stm32f4/stm-idf/components/stm32f4xx_hal_driver/stm32f4xx_hal_rtc_ex.c ****     (+) To write to the RTC Backup Data registers, use the HAL_RTCEx_BKUPWrite()
  62:/home/phong/Documents/thesis/stm32f4/stm-idf/components/stm32f4xx_hal_driver/stm32f4xx_hal_rtc_ex.c ****         function.
  63:/home/phong/Documents/thesis/stm32f4/stm-idf/components/stm32f4xx_hal_driver/stm32f4xx_hal_rtc_ex.c ****     (+) To read the RTC Backup Data registers, use the HAL_RTCEx_BKUPRead()
  64:/home/phong/Documents/thesis/stm32f4/stm-idf/components/stm32f4xx_hal_driver/stm32f4xx_hal_rtc_ex.c ****         function.
  65:/home/phong/Documents/thesis/stm32f4/stm-idf/components/stm32f4xx_hal_driver/stm32f4xx_hal_rtc_ex.c **** 
  66:/home/phong/Documents/thesis/stm32f4/stm-idf/components/stm32f4xx_hal_driver/stm32f4xx_hal_rtc_ex.c ****    @endverbatim
  67:/home/phong/Documents/thesis/stm32f4/stm-idf/components/stm32f4xx_hal_driver/stm32f4xx_hal_rtc_ex.c ****   ******************************************************************************
  68:/home/phong/Documents/thesis/stm32f4/stm-idf/components/stm32f4xx_hal_driver/stm32f4xx_hal_rtc_ex.c ****   * @attention
  69:/home/phong/Documents/thesis/stm32f4/stm-idf/components/stm32f4xx_hal_driver/stm32f4xx_hal_rtc_ex.c ****   *
  70:/home/phong/Documents/thesis/stm32f4/stm-idf/components/stm32f4xx_hal_driver/stm32f4xx_hal_rtc_ex.c ****   * <h2><center>&copy; Copyright (c) 2017 STMicroelectronics.
  71:/home/phong/Documents/thesis/stm32f4/stm-idf/components/stm32f4xx_hal_driver/stm32f4xx_hal_rtc_ex.c ****   * All rights reserved.</center></h2>
  72:/home/phong/Documents/thesis/stm32f4/stm-idf/components/stm32f4xx_hal_driver/stm32f4xx_hal_rtc_ex.c ****   *
  73:/home/phong/Documents/thesis/stm32f4/stm-idf/components/stm32f4xx_hal_driver/stm32f4xx_hal_rtc_ex.c ****   * This software component is licensed by ST under BSD 3-Clause license,
  74:/home/phong/Documents/thesis/stm32f4/stm-idf/components/stm32f4xx_hal_driver/stm32f4xx_hal_rtc_ex.c ****   * the "License"; You may not use this file except in compliance with the
  75:/home/phong/Documents/thesis/stm32f4/stm-idf/components/stm32f4xx_hal_driver/stm32f4xx_hal_rtc_ex.c ****   * License. You may obtain a copy of the License at:
  76:/home/phong/Documents/thesis/stm32f4/stm-idf/components/stm32f4xx_hal_driver/stm32f4xx_hal_rtc_ex.c ****   *                        opensource.org/licenses/BSD-3-Clause
  77:/home/phong/Documents/thesis/stm32f4/stm-idf/components/stm32f4xx_hal_driver/stm32f4xx_hal_rtc_ex.c ****   *
  78:/home/phong/Documents/thesis/stm32f4/stm-idf/components/stm32f4xx_hal_driver/stm32f4xx_hal_rtc_ex.c ****   ******************************************************************************
  79:/home/phong/Documents/thesis/stm32f4/stm-idf/components/stm32f4xx_hal_driver/stm32f4xx_hal_rtc_ex.c ****   */
  80:/home/phong/Documents/thesis/stm32f4/stm-idf/components/stm32f4xx_hal_driver/stm32f4xx_hal_rtc_ex.c **** 
  81:/home/phong/Documents/thesis/stm32f4/stm-idf/components/stm32f4xx_hal_driver/stm32f4xx_hal_rtc_ex.c **** /* Includes ------------------------------------------------------------------*/
  82:/home/phong/Documents/thesis/stm32f4/stm-idf/components/stm32f4xx_hal_driver/stm32f4xx_hal_rtc_ex.c **** #include "stm32f4xx_hal.h"
  83:/home/phong/Documents/thesis/stm32f4/stm-idf/components/stm32f4xx_hal_driver/stm32f4xx_hal_rtc_ex.c **** 
  84:/home/phong/Documents/thesis/stm32f4/stm-idf/components/stm32f4xx_hal_driver/stm32f4xx_hal_rtc_ex.c **** /** @addtogroup STM32F4xx_HAL_Driver
  85:/home/phong/Documents/thesis/stm32f4/stm-idf/components/stm32f4xx_hal_driver/stm32f4xx_hal_rtc_ex.c ****   * @{
  86:/home/phong/Documents/thesis/stm32f4/stm-idf/components/stm32f4xx_hal_driver/stm32f4xx_hal_rtc_ex.c ****   */
  87:/home/phong/Documents/thesis/stm32f4/stm-idf/components/stm32f4xx_hal_driver/stm32f4xx_hal_rtc_ex.c **** 
  88:/home/phong/Documents/thesis/stm32f4/stm-idf/components/stm32f4xx_hal_driver/stm32f4xx_hal_rtc_ex.c **** /** @defgroup RTCEx RTCEx
ARM GAS  /tmp/cc17vVDA.s 			page 3


  89:/home/phong/Documents/thesis/stm32f4/stm-idf/components/stm32f4xx_hal_driver/stm32f4xx_hal_rtc_ex.c ****   * @brief RTC HAL module driver
  90:/home/phong/Documents/thesis/stm32f4/stm-idf/components/stm32f4xx_hal_driver/stm32f4xx_hal_rtc_ex.c ****   * @{
  91:/home/phong/Documents/thesis/stm32f4/stm-idf/components/stm32f4xx_hal_driver/stm32f4xx_hal_rtc_ex.c ****   */
  92:/home/phong/Documents/thesis/stm32f4/stm-idf/components/stm32f4xx_hal_driver/stm32f4xx_hal_rtc_ex.c **** 
  93:/home/phong/Documents/thesis/stm32f4/stm-idf/components/stm32f4xx_hal_driver/stm32f4xx_hal_rtc_ex.c **** #ifdef HAL_RTC_MODULE_ENABLED
  94:/home/phong/Documents/thesis/stm32f4/stm-idf/components/stm32f4xx_hal_driver/stm32f4xx_hal_rtc_ex.c **** 
  95:/home/phong/Documents/thesis/stm32f4/stm-idf/components/stm32f4xx_hal_driver/stm32f4xx_hal_rtc_ex.c **** /* Private typedef -----------------------------------------------------------*/
  96:/home/phong/Documents/thesis/stm32f4/stm-idf/components/stm32f4xx_hal_driver/stm32f4xx_hal_rtc_ex.c **** /* Private define ------------------------------------------------------------*/
  97:/home/phong/Documents/thesis/stm32f4/stm-idf/components/stm32f4xx_hal_driver/stm32f4xx_hal_rtc_ex.c **** /* Private macro -------------------------------------------------------------*/
  98:/home/phong/Documents/thesis/stm32f4/stm-idf/components/stm32f4xx_hal_driver/stm32f4xx_hal_rtc_ex.c **** /* Private variables ---------------------------------------------------------*/
  99:/home/phong/Documents/thesis/stm32f4/stm-idf/components/stm32f4xx_hal_driver/stm32f4xx_hal_rtc_ex.c **** /* Private function prototypes -----------------------------------------------*/
 100:/home/phong/Documents/thesis/stm32f4/stm-idf/components/stm32f4xx_hal_driver/stm32f4xx_hal_rtc_ex.c **** /* Private functions ---------------------------------------------------------*/
 101:/home/phong/Documents/thesis/stm32f4/stm-idf/components/stm32f4xx_hal_driver/stm32f4xx_hal_rtc_ex.c **** 
 102:/home/phong/Documents/thesis/stm32f4/stm-idf/components/stm32f4xx_hal_driver/stm32f4xx_hal_rtc_ex.c **** /** @defgroup RTCEx_Exported_Functions RTCEx Exported Functions
 103:/home/phong/Documents/thesis/stm32f4/stm-idf/components/stm32f4xx_hal_driver/stm32f4xx_hal_rtc_ex.c ****   * @{
 104:/home/phong/Documents/thesis/stm32f4/stm-idf/components/stm32f4xx_hal_driver/stm32f4xx_hal_rtc_ex.c ****   */
 105:/home/phong/Documents/thesis/stm32f4/stm-idf/components/stm32f4xx_hal_driver/stm32f4xx_hal_rtc_ex.c **** 
 106:/home/phong/Documents/thesis/stm32f4/stm-idf/components/stm32f4xx_hal_driver/stm32f4xx_hal_rtc_ex.c **** /** @defgroup RTCEx_Exported_Functions_Group1 RTC TimeStamp and Tamper functions
 107:/home/phong/Documents/thesis/stm32f4/stm-idf/components/stm32f4xx_hal_driver/stm32f4xx_hal_rtc_ex.c ****  *  @brief   RTC TimeStamp and Tamper functions
 108:/home/phong/Documents/thesis/stm32f4/stm-idf/components/stm32f4xx_hal_driver/stm32f4xx_hal_rtc_ex.c ****  *
 109:/home/phong/Documents/thesis/stm32f4/stm-idf/components/stm32f4xx_hal_driver/stm32f4xx_hal_rtc_ex.c **** @verbatim
 110:/home/phong/Documents/thesis/stm32f4/stm-idf/components/stm32f4xx_hal_driver/stm32f4xx_hal_rtc_ex.c ****  ===============================================================================
 111:/home/phong/Documents/thesis/stm32f4/stm-idf/components/stm32f4xx_hal_driver/stm32f4xx_hal_rtc_ex.c ****                  ##### RTC TimeStamp and Tamper functions #####
 112:/home/phong/Documents/thesis/stm32f4/stm-idf/components/stm32f4xx_hal_driver/stm32f4xx_hal_rtc_ex.c ****  ===============================================================================
 113:/home/phong/Documents/thesis/stm32f4/stm-idf/components/stm32f4xx_hal_driver/stm32f4xx_hal_rtc_ex.c **** 
 114:/home/phong/Documents/thesis/stm32f4/stm-idf/components/stm32f4xx_hal_driver/stm32f4xx_hal_rtc_ex.c ****  [..] This section provides functions allowing to configure TimeStamp feature
 115:/home/phong/Documents/thesis/stm32f4/stm-idf/components/stm32f4xx_hal_driver/stm32f4xx_hal_rtc_ex.c **** 
 116:/home/phong/Documents/thesis/stm32f4/stm-idf/components/stm32f4xx_hal_driver/stm32f4xx_hal_rtc_ex.c **** @endverbatim
 117:/home/phong/Documents/thesis/stm32f4/stm-idf/components/stm32f4xx_hal_driver/stm32f4xx_hal_rtc_ex.c ****   * @{
 118:/home/phong/Documents/thesis/stm32f4/stm-idf/components/stm32f4xx_hal_driver/stm32f4xx_hal_rtc_ex.c ****   */
 119:/home/phong/Documents/thesis/stm32f4/stm-idf/components/stm32f4xx_hal_driver/stm32f4xx_hal_rtc_ex.c **** 
 120:/home/phong/Documents/thesis/stm32f4/stm-idf/components/stm32f4xx_hal_driver/stm32f4xx_hal_rtc_ex.c **** /**
 121:/home/phong/Documents/thesis/stm32f4/stm-idf/components/stm32f4xx_hal_driver/stm32f4xx_hal_rtc_ex.c ****   * @brief  Sets TimeStamp.
 122:/home/phong/Documents/thesis/stm32f4/stm-idf/components/stm32f4xx_hal_driver/stm32f4xx_hal_rtc_ex.c ****   * @note   This API must be called before enabling the TimeStamp feature.
 123:/home/phong/Documents/thesis/stm32f4/stm-idf/components/stm32f4xx_hal_driver/stm32f4xx_hal_rtc_ex.c ****   * @param  hrtc pointer to a RTC_HandleTypeDef structure that contains
 124:/home/phong/Documents/thesis/stm32f4/stm-idf/components/stm32f4xx_hal_driver/stm32f4xx_hal_rtc_ex.c ****   *                the configuration information for RTC.
 125:/home/phong/Documents/thesis/stm32f4/stm-idf/components/stm32f4xx_hal_driver/stm32f4xx_hal_rtc_ex.c ****   * @param  TimeStampEdge Specifies the pin edge on which the TimeStamp is
 126:/home/phong/Documents/thesis/stm32f4/stm-idf/components/stm32f4xx_hal_driver/stm32f4xx_hal_rtc_ex.c ****   *         activated.
 127:/home/phong/Documents/thesis/stm32f4/stm-idf/components/stm32f4xx_hal_driver/stm32f4xx_hal_rtc_ex.c ****   *          This parameter can be one of the following values:
 128:/home/phong/Documents/thesis/stm32f4/stm-idf/components/stm32f4xx_hal_driver/stm32f4xx_hal_rtc_ex.c ****   *             @arg RTC_TIMESTAMPEDGE_RISING: the Time stamp event occurs on the
 129:/home/phong/Documents/thesis/stm32f4/stm-idf/components/stm32f4xx_hal_driver/stm32f4xx_hal_rtc_ex.c ****   *                                        rising edge of the related pin.
 130:/home/phong/Documents/thesis/stm32f4/stm-idf/components/stm32f4xx_hal_driver/stm32f4xx_hal_rtc_ex.c ****   *             @arg RTC_TIMESTAMPEDGE_FALLING: the Time stamp event occurs on the
 131:/home/phong/Documents/thesis/stm32f4/stm-idf/components/stm32f4xx_hal_driver/stm32f4xx_hal_rtc_ex.c ****   *                                         falling edge of the related pin.
 132:/home/phong/Documents/thesis/stm32f4/stm-idf/components/stm32f4xx_hal_driver/stm32f4xx_hal_rtc_ex.c ****   * @param  RTC_TimeStampPin specifies the RTC TimeStamp Pin.
 133:/home/phong/Documents/thesis/stm32f4/stm-idf/components/stm32f4xx_hal_driver/stm32f4xx_hal_rtc_ex.c ****   *          This parameter can be one of the following values:
 134:/home/phong/Documents/thesis/stm32f4/stm-idf/components/stm32f4xx_hal_driver/stm32f4xx_hal_rtc_ex.c ****   *             @arg RTC_TIMESTAMPPIN_DEFAULT: PC13 is selected as RTC TimeStamp Pin.
 135:/home/phong/Documents/thesis/stm32f4/stm-idf/components/stm32f4xx_hal_driver/stm32f4xx_hal_rtc_ex.c ****   *             @arg RTC_TIMESTAMPPIN_POS1: PI8/PA0 is selected as RTC TimeStamp Pin.
 136:/home/phong/Documents/thesis/stm32f4/stm-idf/components/stm32f4xx_hal_driver/stm32f4xx_hal_rtc_ex.c ****   *             (not applicable in the case of STM32F412xx, STM32F413xx and STM32F423xx devices)
 137:/home/phong/Documents/thesis/stm32f4/stm-idf/components/stm32f4xx_hal_driver/stm32f4xx_hal_rtc_ex.c ****   *             (PI8 for all STM32 devices except for STM32F446xx devices the PA0 is used)
 138:/home/phong/Documents/thesis/stm32f4/stm-idf/components/stm32f4xx_hal_driver/stm32f4xx_hal_rtc_ex.c ****   *             @arg RTC_TIMESTAMPPIN_PA0: PA0 is selected as RTC TimeStamp Pin only for STM32F446x
 139:/home/phong/Documents/thesis/stm32f4/stm-idf/components/stm32f4xx_hal_driver/stm32f4xx_hal_rtc_ex.c ****   * @retval HAL status
 140:/home/phong/Documents/thesis/stm32f4/stm-idf/components/stm32f4xx_hal_driver/stm32f4xx_hal_rtc_ex.c ****   */
 141:/home/phong/Documents/thesis/stm32f4/stm-idf/components/stm32f4xx_hal_driver/stm32f4xx_hal_rtc_ex.c **** HAL_StatusTypeDef HAL_RTCEx_SetTimeStamp(RTC_HandleTypeDef *hrtc, uint32_t TimeStampEdge, uint32_t 
 142:/home/phong/Documents/thesis/stm32f4/stm-idf/components/stm32f4xx_hal_driver/stm32f4xx_hal_rtc_ex.c **** {
  28              		.loc 1 142 0
  29              		.cfi_startproc
  30              		@ args = 0, pretend = 0, frame = 0
ARM GAS  /tmp/cc17vVDA.s 			page 4


  31              		@ frame_needed = 0, uses_anonymous_args = 0
  32              		@ link register save eliminated.
  33              	.LVL0:
  34 0000 30B4     		push	{r4, r5}
  35              	.LCFI0:
  36              		.cfi_def_cfa_offset 8
  37              		.cfi_offset 4, -8
  38              		.cfi_offset 5, -4
  39              	.LVL1:
 143:/home/phong/Documents/thesis/stm32f4/stm-idf/components/stm32f4xx_hal_driver/stm32f4xx_hal_rtc_ex.c ****   uint32_t tmpreg = 0U;
 144:/home/phong/Documents/thesis/stm32f4/stm-idf/components/stm32f4xx_hal_driver/stm32f4xx_hal_rtc_ex.c **** 
 145:/home/phong/Documents/thesis/stm32f4/stm-idf/components/stm32f4xx_hal_driver/stm32f4xx_hal_rtc_ex.c ****   /* Check the parameters */
 146:/home/phong/Documents/thesis/stm32f4/stm-idf/components/stm32f4xx_hal_driver/stm32f4xx_hal_rtc_ex.c ****   assert_param(IS_TIMESTAMP_EDGE(TimeStampEdge));
 147:/home/phong/Documents/thesis/stm32f4/stm-idf/components/stm32f4xx_hal_driver/stm32f4xx_hal_rtc_ex.c ****   assert_param(IS_RTC_TIMESTAMP_PIN(RTC_TimeStampPin));
 148:/home/phong/Documents/thesis/stm32f4/stm-idf/components/stm32f4xx_hal_driver/stm32f4xx_hal_rtc_ex.c **** 
 149:/home/phong/Documents/thesis/stm32f4/stm-idf/components/stm32f4xx_hal_driver/stm32f4xx_hal_rtc_ex.c ****   /* Process Locked */
 150:/home/phong/Documents/thesis/stm32f4/stm-idf/components/stm32f4xx_hal_driver/stm32f4xx_hal_rtc_ex.c ****   __HAL_LOCK(hrtc);
  40              		.loc 1 150 0
  41 0002 047F     		ldrb	r4, [r0, #28]	@ zero_extendqisi2
  42 0004 012C     		cmp	r4, #1
  43 0006 28D0     		beq	.L3
  44              		.loc 1 150 0 is_stmt 0 discriminator 2
  45 0008 0124     		movs	r4, #1
  46 000a 0477     		strb	r4, [r0, #28]
 151:/home/phong/Documents/thesis/stm32f4/stm-idf/components/stm32f4xx_hal_driver/stm32f4xx_hal_rtc_ex.c **** 
 152:/home/phong/Documents/thesis/stm32f4/stm-idf/components/stm32f4xx_hal_driver/stm32f4xx_hal_rtc_ex.c ****   hrtc->State = HAL_RTC_STATE_BUSY;
  47              		.loc 1 152 0 is_stmt 1 discriminator 2
  48 000c 0223     		movs	r3, #2
  49 000e 4377     		strb	r3, [r0, #29]
 153:/home/phong/Documents/thesis/stm32f4/stm-idf/components/stm32f4xx_hal_driver/stm32f4xx_hal_rtc_ex.c **** 
 154:/home/phong/Documents/thesis/stm32f4/stm-idf/components/stm32f4xx_hal_driver/stm32f4xx_hal_rtc_ex.c ****   /* Get the RTC_CR register and clear the bits to be configured */
 155:/home/phong/Documents/thesis/stm32f4/stm-idf/components/stm32f4xx_hal_driver/stm32f4xx_hal_rtc_ex.c ****   tmpreg = (uint32_t)(hrtc->Instance->CR & (uint32_t)~(RTC_CR_TSEDGE | RTC_CR_TSE));
  50              		.loc 1 155 0 discriminator 2
  51 0010 0568     		ldr	r5, [r0]
  52 0012 AB68     		ldr	r3, [r5, #8]
  53 0014 23F40063 		bic	r3, r3, #2048
  54 0018 23F00803 		bic	r3, r3, #8
  55              	.LVL2:
 156:/home/phong/Documents/thesis/stm32f4/stm-idf/components/stm32f4xx_hal_driver/stm32f4xx_hal_rtc_ex.c **** 
 157:/home/phong/Documents/thesis/stm32f4/stm-idf/components/stm32f4xx_hal_driver/stm32f4xx_hal_rtc_ex.c ****   tmpreg|= TimeStampEdge;
  56              		.loc 1 157 0 discriminator 2
  57 001c 0B43     		orrs	r3, r3, r1
  58              	.LVL3:
 158:/home/phong/Documents/thesis/stm32f4/stm-idf/components/stm32f4xx_hal_driver/stm32f4xx_hal_rtc_ex.c **** 
 159:/home/phong/Documents/thesis/stm32f4/stm-idf/components/stm32f4xx_hal_driver/stm32f4xx_hal_rtc_ex.c ****   /* Disable the write protection for RTC registers */
 160:/home/phong/Documents/thesis/stm32f4/stm-idf/components/stm32f4xx_hal_driver/stm32f4xx_hal_rtc_ex.c ****   __HAL_RTC_WRITEPROTECTION_DISABLE(hrtc);
  59              		.loc 1 160 0 discriminator 2
  60 001e CA21     		movs	r1, #202
  61              	.LVL4:
  62 0020 6962     		str	r1, [r5, #36]
  63 0022 0168     		ldr	r1, [r0]
  64 0024 5325     		movs	r5, #83
  65 0026 4D62     		str	r5, [r1, #36]
 161:/home/phong/Documents/thesis/stm32f4/stm-idf/components/stm32f4xx_hal_driver/stm32f4xx_hal_rtc_ex.c **** 
 162:/home/phong/Documents/thesis/stm32f4/stm-idf/components/stm32f4xx_hal_driver/stm32f4xx_hal_rtc_ex.c ****   hrtc->Instance->TAFCR &= (uint32_t)~RTC_TAFCR_TSINSEL;
  66              		.loc 1 162 0 discriminator 2
  67 0028 0568     		ldr	r5, [r0]
ARM GAS  /tmp/cc17vVDA.s 			page 5


  68 002a 296C     		ldr	r1, [r5, #64]
  69 002c 21F40031 		bic	r1, r1, #131072
  70 0030 2964     		str	r1, [r5, #64]
 163:/home/phong/Documents/thesis/stm32f4/stm-idf/components/stm32f4xx_hal_driver/stm32f4xx_hal_rtc_ex.c ****   hrtc->Instance->TAFCR |= (uint32_t)(RTC_TimeStampPin);
  71              		.loc 1 163 0 discriminator 2
  72 0032 0568     		ldr	r5, [r0]
  73 0034 296C     		ldr	r1, [r5, #64]
  74 0036 0A43     		orrs	r2, r2, r1
  75              	.LVL5:
  76 0038 2A64     		str	r2, [r5, #64]
 164:/home/phong/Documents/thesis/stm32f4/stm-idf/components/stm32f4xx_hal_driver/stm32f4xx_hal_rtc_ex.c **** 
 165:/home/phong/Documents/thesis/stm32f4/stm-idf/components/stm32f4xx_hal_driver/stm32f4xx_hal_rtc_ex.c ****   /* Configure the Time Stamp TSEDGE and Enable bits */
 166:/home/phong/Documents/thesis/stm32f4/stm-idf/components/stm32f4xx_hal_driver/stm32f4xx_hal_rtc_ex.c ****   hrtc->Instance->CR = (uint32_t)tmpreg;
  77              		.loc 1 166 0 discriminator 2
  78 003a 0268     		ldr	r2, [r0]
  79 003c 9360     		str	r3, [r2, #8]
 167:/home/phong/Documents/thesis/stm32f4/stm-idf/components/stm32f4xx_hal_driver/stm32f4xx_hal_rtc_ex.c **** 
 168:/home/phong/Documents/thesis/stm32f4/stm-idf/components/stm32f4xx_hal_driver/stm32f4xx_hal_rtc_ex.c ****   __HAL_RTC_TIMESTAMP_ENABLE(hrtc);
  80              		.loc 1 168 0 discriminator 2
  81 003e 0268     		ldr	r2, [r0]
  82 0040 9368     		ldr	r3, [r2, #8]
  83              	.LVL6:
  84 0042 43F40063 		orr	r3, r3, #2048
  85 0046 9360     		str	r3, [r2, #8]
 169:/home/phong/Documents/thesis/stm32f4/stm-idf/components/stm32f4xx_hal_driver/stm32f4xx_hal_rtc_ex.c **** 
 170:/home/phong/Documents/thesis/stm32f4/stm-idf/components/stm32f4xx_hal_driver/stm32f4xx_hal_rtc_ex.c ****   /* Enable the write protection for RTC registers */
 171:/home/phong/Documents/thesis/stm32f4/stm-idf/components/stm32f4xx_hal_driver/stm32f4xx_hal_rtc_ex.c ****   __HAL_RTC_WRITEPROTECTION_ENABLE(hrtc);
  86              		.loc 1 171 0 discriminator 2
  87 0048 0368     		ldr	r3, [r0]
  88 004a FF22     		movs	r2, #255
  89 004c 5A62     		str	r2, [r3, #36]
 172:/home/phong/Documents/thesis/stm32f4/stm-idf/components/stm32f4xx_hal_driver/stm32f4xx_hal_rtc_ex.c **** 
 173:/home/phong/Documents/thesis/stm32f4/stm-idf/components/stm32f4xx_hal_driver/stm32f4xx_hal_rtc_ex.c ****   /* Change RTC state */
 174:/home/phong/Documents/thesis/stm32f4/stm-idf/components/stm32f4xx_hal_driver/stm32f4xx_hal_rtc_ex.c ****   hrtc->State = HAL_RTC_STATE_READY;
  90              		.loc 1 174 0 discriminator 2
  91 004e 4477     		strb	r4, [r0, #29]
 175:/home/phong/Documents/thesis/stm32f4/stm-idf/components/stm32f4xx_hal_driver/stm32f4xx_hal_rtc_ex.c **** 
 176:/home/phong/Documents/thesis/stm32f4/stm-idf/components/stm32f4xx_hal_driver/stm32f4xx_hal_rtc_ex.c ****   /* Process Unlocked */
 177:/home/phong/Documents/thesis/stm32f4/stm-idf/components/stm32f4xx_hal_driver/stm32f4xx_hal_rtc_ex.c ****   __HAL_UNLOCK(hrtc);
  92              		.loc 1 177 0 discriminator 2
  93 0050 0023     		movs	r3, #0
  94 0052 0377     		strb	r3, [r0, #28]
 178:/home/phong/Documents/thesis/stm32f4/stm-idf/components/stm32f4xx_hal_driver/stm32f4xx_hal_rtc_ex.c **** 
 179:/home/phong/Documents/thesis/stm32f4/stm-idf/components/stm32f4xx_hal_driver/stm32f4xx_hal_rtc_ex.c ****   return HAL_OK;
  95              		.loc 1 179 0 discriminator 2
  96 0054 1846     		mov	r0, r3
  97              	.LVL7:
  98              	.L2:
 180:/home/phong/Documents/thesis/stm32f4/stm-idf/components/stm32f4xx_hal_driver/stm32f4xx_hal_rtc_ex.c **** }
  99              		.loc 1 180 0
 100 0056 30BC     		pop	{r4, r5}
 101              	.LCFI1:
 102              		.cfi_remember_state
 103              		.cfi_restore 5
 104              		.cfi_restore 4
 105              		.cfi_def_cfa_offset 0
 106 0058 7047     		bx	lr
ARM GAS  /tmp/cc17vVDA.s 			page 6


 107              	.LVL8:
 108              	.L3:
 109              	.LCFI2:
 110              		.cfi_restore_state
 150:/home/phong/Documents/thesis/stm32f4/stm-idf/components/stm32f4xx_hal_driver/stm32f4xx_hal_rtc_ex.c **** 
 111              		.loc 1 150 0
 112 005a 0220     		movs	r0, #2
 113              	.LVL9:
 114 005c FBE7     		b	.L2
 115              		.cfi_endproc
 116              	.LFE130:
 118              		.section	.text.HAL_RTCEx_SetTimeStamp_IT,"ax",%progbits
 119              		.align	1
 120              		.global	HAL_RTCEx_SetTimeStamp_IT
 121              		.syntax unified
 122              		.thumb
 123              		.thumb_func
 124              		.fpu fpv4-sp-d16
 126              	HAL_RTCEx_SetTimeStamp_IT:
 127              	.LFB131:
 181:/home/phong/Documents/thesis/stm32f4/stm-idf/components/stm32f4xx_hal_driver/stm32f4xx_hal_rtc_ex.c **** 
 182:/home/phong/Documents/thesis/stm32f4/stm-idf/components/stm32f4xx_hal_driver/stm32f4xx_hal_rtc_ex.c **** /**
 183:/home/phong/Documents/thesis/stm32f4/stm-idf/components/stm32f4xx_hal_driver/stm32f4xx_hal_rtc_ex.c ****   * @brief  Sets TimeStamp with Interrupt.
 184:/home/phong/Documents/thesis/stm32f4/stm-idf/components/stm32f4xx_hal_driver/stm32f4xx_hal_rtc_ex.c ****   * @param  hrtc pointer to a RTC_HandleTypeDef structure that contains
 185:/home/phong/Documents/thesis/stm32f4/stm-idf/components/stm32f4xx_hal_driver/stm32f4xx_hal_rtc_ex.c ****   *                the configuration information for RTC.
 186:/home/phong/Documents/thesis/stm32f4/stm-idf/components/stm32f4xx_hal_driver/stm32f4xx_hal_rtc_ex.c ****   * @note   This API must be called before enabling the TimeStamp feature.
 187:/home/phong/Documents/thesis/stm32f4/stm-idf/components/stm32f4xx_hal_driver/stm32f4xx_hal_rtc_ex.c ****   * @param  TimeStampEdge Specifies the pin edge on which the TimeStamp is
 188:/home/phong/Documents/thesis/stm32f4/stm-idf/components/stm32f4xx_hal_driver/stm32f4xx_hal_rtc_ex.c ****   *         activated.
 189:/home/phong/Documents/thesis/stm32f4/stm-idf/components/stm32f4xx_hal_driver/stm32f4xx_hal_rtc_ex.c ****   *          This parameter can be one of the following values:
 190:/home/phong/Documents/thesis/stm32f4/stm-idf/components/stm32f4xx_hal_driver/stm32f4xx_hal_rtc_ex.c ****   *             @arg RTC_TIMESTAMPEDGE_RISING: the Time stamp event occurs on the
 191:/home/phong/Documents/thesis/stm32f4/stm-idf/components/stm32f4xx_hal_driver/stm32f4xx_hal_rtc_ex.c ****   *                                        rising edge of the related pin.
 192:/home/phong/Documents/thesis/stm32f4/stm-idf/components/stm32f4xx_hal_driver/stm32f4xx_hal_rtc_ex.c ****   *             @arg RTC_TIMESTAMPEDGE_FALLING: the Time stamp event occurs on the
 193:/home/phong/Documents/thesis/stm32f4/stm-idf/components/stm32f4xx_hal_driver/stm32f4xx_hal_rtc_ex.c ****   *                                         falling edge of the related pin.
 194:/home/phong/Documents/thesis/stm32f4/stm-idf/components/stm32f4xx_hal_driver/stm32f4xx_hal_rtc_ex.c ****   * @param  RTC_TimeStampPin Specifies the RTC TimeStamp Pin.
 195:/home/phong/Documents/thesis/stm32f4/stm-idf/components/stm32f4xx_hal_driver/stm32f4xx_hal_rtc_ex.c ****   *          This parameter can be one of the following values:
 196:/home/phong/Documents/thesis/stm32f4/stm-idf/components/stm32f4xx_hal_driver/stm32f4xx_hal_rtc_ex.c ****   *             @arg RTC_TIMESTAMPPIN_DEFAULT: PC13 is selected as RTC TimeStamp Pin.
 197:/home/phong/Documents/thesis/stm32f4/stm-idf/components/stm32f4xx_hal_driver/stm32f4xx_hal_rtc_ex.c ****   *             @arg RTC_TIMESTAMPPIN_PI8: PI8 is selected as RTC TimeStamp Pin. (not applicable in
 198:/home/phong/Documents/thesis/stm32f4/stm-idf/components/stm32f4xx_hal_driver/stm32f4xx_hal_rtc_ex.c ****   *             @arg RTC_TIMESTAMPPIN_PA0: PA0 is selected as RTC TimeStamp Pin only for STM32F446x
 199:/home/phong/Documents/thesis/stm32f4/stm-idf/components/stm32f4xx_hal_driver/stm32f4xx_hal_rtc_ex.c ****   * @retval HAL status
 200:/home/phong/Documents/thesis/stm32f4/stm-idf/components/stm32f4xx_hal_driver/stm32f4xx_hal_rtc_ex.c ****   */
 201:/home/phong/Documents/thesis/stm32f4/stm-idf/components/stm32f4xx_hal_driver/stm32f4xx_hal_rtc_ex.c **** HAL_StatusTypeDef HAL_RTCEx_SetTimeStamp_IT(RTC_HandleTypeDef *hrtc, uint32_t TimeStampEdge, uint32
 202:/home/phong/Documents/thesis/stm32f4/stm-idf/components/stm32f4xx_hal_driver/stm32f4xx_hal_rtc_ex.c **** {
 128              		.loc 1 202 0
 129              		.cfi_startproc
 130              		@ args = 0, pretend = 0, frame = 0
 131              		@ frame_needed = 0, uses_anonymous_args = 0
 132              		@ link register save eliminated.
 133              	.LVL10:
 134 0000 30B4     		push	{r4, r5}
 135              	.LCFI3:
 136              		.cfi_def_cfa_offset 8
 137              		.cfi_offset 4, -8
 138              		.cfi_offset 5, -4
 139              	.LVL11:
 203:/home/phong/Documents/thesis/stm32f4/stm-idf/components/stm32f4xx_hal_driver/stm32f4xx_hal_rtc_ex.c ****   uint32_t tmpreg = 0U;
 204:/home/phong/Documents/thesis/stm32f4/stm-idf/components/stm32f4xx_hal_driver/stm32f4xx_hal_rtc_ex.c **** 
 205:/home/phong/Documents/thesis/stm32f4/stm-idf/components/stm32f4xx_hal_driver/stm32f4xx_hal_rtc_ex.c ****   /* Check the parameters */
ARM GAS  /tmp/cc17vVDA.s 			page 7


 206:/home/phong/Documents/thesis/stm32f4/stm-idf/components/stm32f4xx_hal_driver/stm32f4xx_hal_rtc_ex.c ****   assert_param(IS_TIMESTAMP_EDGE(TimeStampEdge));
 207:/home/phong/Documents/thesis/stm32f4/stm-idf/components/stm32f4xx_hal_driver/stm32f4xx_hal_rtc_ex.c ****   assert_param(IS_RTC_TIMESTAMP_PIN(RTC_TimeStampPin));
 208:/home/phong/Documents/thesis/stm32f4/stm-idf/components/stm32f4xx_hal_driver/stm32f4xx_hal_rtc_ex.c **** 
 209:/home/phong/Documents/thesis/stm32f4/stm-idf/components/stm32f4xx_hal_driver/stm32f4xx_hal_rtc_ex.c ****   /* Process Locked */
 210:/home/phong/Documents/thesis/stm32f4/stm-idf/components/stm32f4xx_hal_driver/stm32f4xx_hal_rtc_ex.c ****   __HAL_LOCK(hrtc);
 140              		.loc 1 210 0
 141 0002 047F     		ldrb	r4, [r0, #28]	@ zero_extendqisi2
 142 0004 012C     		cmp	r4, #1
 143 0006 3CD0     		beq	.L7
 144              		.loc 1 210 0 is_stmt 0 discriminator 2
 145 0008 0124     		movs	r4, #1
 146 000a 0477     		strb	r4, [r0, #28]
 211:/home/phong/Documents/thesis/stm32f4/stm-idf/components/stm32f4xx_hal_driver/stm32f4xx_hal_rtc_ex.c **** 
 212:/home/phong/Documents/thesis/stm32f4/stm-idf/components/stm32f4xx_hal_driver/stm32f4xx_hal_rtc_ex.c ****   hrtc->State = HAL_RTC_STATE_BUSY;
 147              		.loc 1 212 0 is_stmt 1 discriminator 2
 148 000c 0223     		movs	r3, #2
 149 000e 4377     		strb	r3, [r0, #29]
 213:/home/phong/Documents/thesis/stm32f4/stm-idf/components/stm32f4xx_hal_driver/stm32f4xx_hal_rtc_ex.c **** 
 214:/home/phong/Documents/thesis/stm32f4/stm-idf/components/stm32f4xx_hal_driver/stm32f4xx_hal_rtc_ex.c ****   /* Get the RTC_CR register and clear the bits to be configured */
 215:/home/phong/Documents/thesis/stm32f4/stm-idf/components/stm32f4xx_hal_driver/stm32f4xx_hal_rtc_ex.c ****   tmpreg = (uint32_t)(hrtc->Instance->CR & (uint32_t)~(RTC_CR_TSEDGE | RTC_CR_TSE));
 150              		.loc 1 215 0 discriminator 2
 151 0010 0568     		ldr	r5, [r0]
 152 0012 AB68     		ldr	r3, [r5, #8]
 153 0014 23F40063 		bic	r3, r3, #2048
 154 0018 23F00803 		bic	r3, r3, #8
 155              	.LVL12:
 216:/home/phong/Documents/thesis/stm32f4/stm-idf/components/stm32f4xx_hal_driver/stm32f4xx_hal_rtc_ex.c **** 
 217:/home/phong/Documents/thesis/stm32f4/stm-idf/components/stm32f4xx_hal_driver/stm32f4xx_hal_rtc_ex.c ****   tmpreg |= TimeStampEdge;
 156              		.loc 1 217 0 discriminator 2
 157 001c 0B43     		orrs	r3, r3, r1
 158              	.LVL13:
 218:/home/phong/Documents/thesis/stm32f4/stm-idf/components/stm32f4xx_hal_driver/stm32f4xx_hal_rtc_ex.c **** 
 219:/home/phong/Documents/thesis/stm32f4/stm-idf/components/stm32f4xx_hal_driver/stm32f4xx_hal_rtc_ex.c ****   /* Disable the write protection for RTC registers */
 220:/home/phong/Documents/thesis/stm32f4/stm-idf/components/stm32f4xx_hal_driver/stm32f4xx_hal_rtc_ex.c ****   __HAL_RTC_WRITEPROTECTION_DISABLE(hrtc);
 159              		.loc 1 220 0 discriminator 2
 160 001e CA21     		movs	r1, #202
 161              	.LVL14:
 162 0020 6962     		str	r1, [r5, #36]
 163 0022 0168     		ldr	r1, [r0]
 164 0024 5325     		movs	r5, #83
 165 0026 4D62     		str	r5, [r1, #36]
 221:/home/phong/Documents/thesis/stm32f4/stm-idf/components/stm32f4xx_hal_driver/stm32f4xx_hal_rtc_ex.c **** 
 222:/home/phong/Documents/thesis/stm32f4/stm-idf/components/stm32f4xx_hal_driver/stm32f4xx_hal_rtc_ex.c ****   /* Configure the Time Stamp TSEDGE and Enable bits */
 223:/home/phong/Documents/thesis/stm32f4/stm-idf/components/stm32f4xx_hal_driver/stm32f4xx_hal_rtc_ex.c ****   hrtc->Instance->CR = (uint32_t)tmpreg;
 166              		.loc 1 223 0 discriminator 2
 167 0028 0168     		ldr	r1, [r0]
 168 002a 8B60     		str	r3, [r1, #8]
 224:/home/phong/Documents/thesis/stm32f4/stm-idf/components/stm32f4xx_hal_driver/stm32f4xx_hal_rtc_ex.c **** 
 225:/home/phong/Documents/thesis/stm32f4/stm-idf/components/stm32f4xx_hal_driver/stm32f4xx_hal_rtc_ex.c ****   hrtc->Instance->TAFCR &= (uint32_t)~RTC_TAFCR_TSINSEL;
 169              		.loc 1 225 0 discriminator 2
 170 002c 0168     		ldr	r1, [r0]
 171 002e 0B6C     		ldr	r3, [r1, #64]
 172              	.LVL15:
 173 0030 23F40033 		bic	r3, r3, #131072
 174 0034 0B64     		str	r3, [r1, #64]
 226:/home/phong/Documents/thesis/stm32f4/stm-idf/components/stm32f4xx_hal_driver/stm32f4xx_hal_rtc_ex.c ****   hrtc->Instance->TAFCR |= (uint32_t)(RTC_TimeStampPin);
 175              		.loc 1 226 0 discriminator 2
ARM GAS  /tmp/cc17vVDA.s 			page 8


 176 0036 0168     		ldr	r1, [r0]
 177 0038 0B6C     		ldr	r3, [r1, #64]
 178 003a 1A43     		orrs	r2, r2, r3
 179              	.LVL16:
 180 003c 0A64     		str	r2, [r1, #64]
 227:/home/phong/Documents/thesis/stm32f4/stm-idf/components/stm32f4xx_hal_driver/stm32f4xx_hal_rtc_ex.c **** 
 228:/home/phong/Documents/thesis/stm32f4/stm-idf/components/stm32f4xx_hal_driver/stm32f4xx_hal_rtc_ex.c ****   /* Clear RTC Timestamp flag */
 229:/home/phong/Documents/thesis/stm32f4/stm-idf/components/stm32f4xx_hal_driver/stm32f4xx_hal_rtc_ex.c ****   __HAL_RTC_TIMESTAMP_CLEAR_FLAG(hrtc, RTC_FLAG_TSF);
 181              		.loc 1 229 0 discriminator 2
 182 003e 0268     		ldr	r2, [r0]
 183 0040 D368     		ldr	r3, [r2, #12]
 184 0042 DBB2     		uxtb	r3, r3
 185 0044 63F40863 		orn	r3, r3, #2176
 186 0048 D360     		str	r3, [r2, #12]
 230:/home/phong/Documents/thesis/stm32f4/stm-idf/components/stm32f4xx_hal_driver/stm32f4xx_hal_rtc_ex.c **** 
 231:/home/phong/Documents/thesis/stm32f4/stm-idf/components/stm32f4xx_hal_driver/stm32f4xx_hal_rtc_ex.c ****   __HAL_RTC_TIMESTAMP_ENABLE(hrtc);
 187              		.loc 1 231 0 discriminator 2
 188 004a 0268     		ldr	r2, [r0]
 189 004c 9368     		ldr	r3, [r2, #8]
 190 004e 43F40063 		orr	r3, r3, #2048
 191 0052 9360     		str	r3, [r2, #8]
 232:/home/phong/Documents/thesis/stm32f4/stm-idf/components/stm32f4xx_hal_driver/stm32f4xx_hal_rtc_ex.c **** 
 233:/home/phong/Documents/thesis/stm32f4/stm-idf/components/stm32f4xx_hal_driver/stm32f4xx_hal_rtc_ex.c ****   /* Enable IT timestamp */
 234:/home/phong/Documents/thesis/stm32f4/stm-idf/components/stm32f4xx_hal_driver/stm32f4xx_hal_rtc_ex.c ****   __HAL_RTC_TIMESTAMP_ENABLE_IT(hrtc,RTC_IT_TS);
 192              		.loc 1 234 0 discriminator 2
 193 0054 0268     		ldr	r2, [r0]
 194 0056 9368     		ldr	r3, [r2, #8]
 195 0058 43F40043 		orr	r3, r3, #32768
 196 005c 9360     		str	r3, [r2, #8]
 235:/home/phong/Documents/thesis/stm32f4/stm-idf/components/stm32f4xx_hal_driver/stm32f4xx_hal_rtc_ex.c **** 
 236:/home/phong/Documents/thesis/stm32f4/stm-idf/components/stm32f4xx_hal_driver/stm32f4xx_hal_rtc_ex.c ****   /* RTC timestamp Interrupt Configuration: EXTI configuration */
 237:/home/phong/Documents/thesis/stm32f4/stm-idf/components/stm32f4xx_hal_driver/stm32f4xx_hal_rtc_ex.c ****   __HAL_RTC_TAMPER_TIMESTAMP_EXTI_ENABLE_IT();
 197              		.loc 1 237 0 discriminator 2
 198 005e 0A4B     		ldr	r3, .L9
 199 0060 1A68     		ldr	r2, [r3]
 200 0062 42F40012 		orr	r2, r2, #2097152
 201 0066 1A60     		str	r2, [r3]
 238:/home/phong/Documents/thesis/stm32f4/stm-idf/components/stm32f4xx_hal_driver/stm32f4xx_hal_rtc_ex.c **** 
 239:/home/phong/Documents/thesis/stm32f4/stm-idf/components/stm32f4xx_hal_driver/stm32f4xx_hal_rtc_ex.c ****   EXTI->RTSR |= RTC_EXTI_LINE_TAMPER_TIMESTAMP_EVENT;
 202              		.loc 1 239 0 discriminator 2
 203 0068 9A68     		ldr	r2, [r3, #8]
 204 006a 42F40012 		orr	r2, r2, #2097152
 205 006e 9A60     		str	r2, [r3, #8]
 240:/home/phong/Documents/thesis/stm32f4/stm-idf/components/stm32f4xx_hal_driver/stm32f4xx_hal_rtc_ex.c **** 
 241:/home/phong/Documents/thesis/stm32f4/stm-idf/components/stm32f4xx_hal_driver/stm32f4xx_hal_rtc_ex.c ****   /* Enable the write protection for RTC registers */
 242:/home/phong/Documents/thesis/stm32f4/stm-idf/components/stm32f4xx_hal_driver/stm32f4xx_hal_rtc_ex.c ****   __HAL_RTC_WRITEPROTECTION_ENABLE(hrtc);
 206              		.loc 1 242 0 discriminator 2
 207 0070 0368     		ldr	r3, [r0]
 208 0072 FF22     		movs	r2, #255
 209 0074 5A62     		str	r2, [r3, #36]
 243:/home/phong/Documents/thesis/stm32f4/stm-idf/components/stm32f4xx_hal_driver/stm32f4xx_hal_rtc_ex.c **** 
 244:/home/phong/Documents/thesis/stm32f4/stm-idf/components/stm32f4xx_hal_driver/stm32f4xx_hal_rtc_ex.c ****   hrtc->State = HAL_RTC_STATE_READY;
 210              		.loc 1 244 0 discriminator 2
 211 0076 4477     		strb	r4, [r0, #29]
 245:/home/phong/Documents/thesis/stm32f4/stm-idf/components/stm32f4xx_hal_driver/stm32f4xx_hal_rtc_ex.c **** 
 246:/home/phong/Documents/thesis/stm32f4/stm-idf/components/stm32f4xx_hal_driver/stm32f4xx_hal_rtc_ex.c ****   /* Process Unlocked */
 247:/home/phong/Documents/thesis/stm32f4/stm-idf/components/stm32f4xx_hal_driver/stm32f4xx_hal_rtc_ex.c ****   __HAL_UNLOCK(hrtc);
ARM GAS  /tmp/cc17vVDA.s 			page 9


 212              		.loc 1 247 0 discriminator 2
 213 0078 0023     		movs	r3, #0
 214 007a 0377     		strb	r3, [r0, #28]
 248:/home/phong/Documents/thesis/stm32f4/stm-idf/components/stm32f4xx_hal_driver/stm32f4xx_hal_rtc_ex.c **** 
 249:/home/phong/Documents/thesis/stm32f4/stm-idf/components/stm32f4xx_hal_driver/stm32f4xx_hal_rtc_ex.c ****   return HAL_OK;
 215              		.loc 1 249 0 discriminator 2
 216 007c 1846     		mov	r0, r3
 217              	.LVL17:
 218              	.L6:
 250:/home/phong/Documents/thesis/stm32f4/stm-idf/components/stm32f4xx_hal_driver/stm32f4xx_hal_rtc_ex.c **** }
 219              		.loc 1 250 0
 220 007e 30BC     		pop	{r4, r5}
 221              	.LCFI4:
 222              		.cfi_remember_state
 223              		.cfi_restore 5
 224              		.cfi_restore 4
 225              		.cfi_def_cfa_offset 0
 226 0080 7047     		bx	lr
 227              	.LVL18:
 228              	.L7:
 229              	.LCFI5:
 230              		.cfi_restore_state
 210:/home/phong/Documents/thesis/stm32f4/stm-idf/components/stm32f4xx_hal_driver/stm32f4xx_hal_rtc_ex.c **** 
 231              		.loc 1 210 0
 232 0082 0220     		movs	r0, #2
 233              	.LVL19:
 234 0084 FBE7     		b	.L6
 235              	.L10:
 236 0086 00BF     		.align	2
 237              	.L9:
 238 0088 003C0140 		.word	1073822720
 239              		.cfi_endproc
 240              	.LFE131:
 242              		.section	.text.HAL_RTCEx_DeactivateTimeStamp,"ax",%progbits
 243              		.align	1
 244              		.global	HAL_RTCEx_DeactivateTimeStamp
 245              		.syntax unified
 246              		.thumb
 247              		.thumb_func
 248              		.fpu fpv4-sp-d16
 250              	HAL_RTCEx_DeactivateTimeStamp:
 251              	.LFB132:
 251:/home/phong/Documents/thesis/stm32f4/stm-idf/components/stm32f4xx_hal_driver/stm32f4xx_hal_rtc_ex.c **** 
 252:/home/phong/Documents/thesis/stm32f4/stm-idf/components/stm32f4xx_hal_driver/stm32f4xx_hal_rtc_ex.c **** /**
 253:/home/phong/Documents/thesis/stm32f4/stm-idf/components/stm32f4xx_hal_driver/stm32f4xx_hal_rtc_ex.c ****   * @brief  Deactivates TimeStamp.
 254:/home/phong/Documents/thesis/stm32f4/stm-idf/components/stm32f4xx_hal_driver/stm32f4xx_hal_rtc_ex.c ****   * @param  hrtc pointer to a RTC_HandleTypeDef structure that contains
 255:/home/phong/Documents/thesis/stm32f4/stm-idf/components/stm32f4xx_hal_driver/stm32f4xx_hal_rtc_ex.c ****   *                the configuration information for RTC.
 256:/home/phong/Documents/thesis/stm32f4/stm-idf/components/stm32f4xx_hal_driver/stm32f4xx_hal_rtc_ex.c ****   * @retval HAL status
 257:/home/phong/Documents/thesis/stm32f4/stm-idf/components/stm32f4xx_hal_driver/stm32f4xx_hal_rtc_ex.c ****   */
 258:/home/phong/Documents/thesis/stm32f4/stm-idf/components/stm32f4xx_hal_driver/stm32f4xx_hal_rtc_ex.c **** HAL_StatusTypeDef HAL_RTCEx_DeactivateTimeStamp(RTC_HandleTypeDef *hrtc)
 259:/home/phong/Documents/thesis/stm32f4/stm-idf/components/stm32f4xx_hal_driver/stm32f4xx_hal_rtc_ex.c **** {
 252              		.loc 1 259 0
 253              		.cfi_startproc
 254              		@ args = 0, pretend = 0, frame = 0
 255              		@ frame_needed = 0, uses_anonymous_args = 0
 256              		@ link register save eliminated.
 257              	.LVL20:
ARM GAS  /tmp/cc17vVDA.s 			page 10


 260:/home/phong/Documents/thesis/stm32f4/stm-idf/components/stm32f4xx_hal_driver/stm32f4xx_hal_rtc_ex.c ****   uint32_t tmpreg = 0U;
 261:/home/phong/Documents/thesis/stm32f4/stm-idf/components/stm32f4xx_hal_driver/stm32f4xx_hal_rtc_ex.c **** 
 262:/home/phong/Documents/thesis/stm32f4/stm-idf/components/stm32f4xx_hal_driver/stm32f4xx_hal_rtc_ex.c ****   /* Process Locked */
 263:/home/phong/Documents/thesis/stm32f4/stm-idf/components/stm32f4xx_hal_driver/stm32f4xx_hal_rtc_ex.c ****   __HAL_LOCK(hrtc);
 258              		.loc 1 263 0
 259 0000 037F     		ldrb	r3, [r0, #28]	@ zero_extendqisi2
 260 0002 012B     		cmp	r3, #1
 261 0004 1DD0     		beq	.L13
 262              		.loc 1 263 0 is_stmt 0 discriminator 2
 263 0006 0122     		movs	r2, #1
 264 0008 0277     		strb	r2, [r0, #28]
 264:/home/phong/Documents/thesis/stm32f4/stm-idf/components/stm32f4xx_hal_driver/stm32f4xx_hal_rtc_ex.c **** 
 265:/home/phong/Documents/thesis/stm32f4/stm-idf/components/stm32f4xx_hal_driver/stm32f4xx_hal_rtc_ex.c ****   hrtc->State = HAL_RTC_STATE_BUSY;
 265              		.loc 1 265 0 is_stmt 1 discriminator 2
 266 000a 0223     		movs	r3, #2
 267 000c 4377     		strb	r3, [r0, #29]
 266:/home/phong/Documents/thesis/stm32f4/stm-idf/components/stm32f4xx_hal_driver/stm32f4xx_hal_rtc_ex.c **** 
 267:/home/phong/Documents/thesis/stm32f4/stm-idf/components/stm32f4xx_hal_driver/stm32f4xx_hal_rtc_ex.c ****   /* Disable the write protection for RTC registers */
 268:/home/phong/Documents/thesis/stm32f4/stm-idf/components/stm32f4xx_hal_driver/stm32f4xx_hal_rtc_ex.c ****   __HAL_RTC_WRITEPROTECTION_DISABLE(hrtc);
 268              		.loc 1 268 0 discriminator 2
 269 000e 0368     		ldr	r3, [r0]
 270 0010 CA21     		movs	r1, #202
 271 0012 5962     		str	r1, [r3, #36]
 272 0014 0368     		ldr	r3, [r0]
 273 0016 5321     		movs	r1, #83
 274 0018 5962     		str	r1, [r3, #36]
 269:/home/phong/Documents/thesis/stm32f4/stm-idf/components/stm32f4xx_hal_driver/stm32f4xx_hal_rtc_ex.c **** 
 270:/home/phong/Documents/thesis/stm32f4/stm-idf/components/stm32f4xx_hal_driver/stm32f4xx_hal_rtc_ex.c ****   /* In case of interrupt mode is used, the interrupt source must disabled */
 271:/home/phong/Documents/thesis/stm32f4/stm-idf/components/stm32f4xx_hal_driver/stm32f4xx_hal_rtc_ex.c ****   __HAL_RTC_TIMESTAMP_DISABLE_IT(hrtc, RTC_IT_TS);
 275              		.loc 1 271 0 discriminator 2
 276 001a 0168     		ldr	r1, [r0]
 277 001c 8B68     		ldr	r3, [r1, #8]
 278 001e 23F40043 		bic	r3, r3, #32768
 279 0022 8B60     		str	r3, [r1, #8]
 272:/home/phong/Documents/thesis/stm32f4/stm-idf/components/stm32f4xx_hal_driver/stm32f4xx_hal_rtc_ex.c **** 
 273:/home/phong/Documents/thesis/stm32f4/stm-idf/components/stm32f4xx_hal_driver/stm32f4xx_hal_rtc_ex.c ****   /* Get the RTC_CR register and clear the bits to be configured */
 274:/home/phong/Documents/thesis/stm32f4/stm-idf/components/stm32f4xx_hal_driver/stm32f4xx_hal_rtc_ex.c ****   tmpreg = (uint32_t)(hrtc->Instance->CR & (uint32_t)~(RTC_CR_TSEDGE | RTC_CR_TSE));
 280              		.loc 1 274 0 discriminator 2
 281 0024 0168     		ldr	r1, [r0]
 282 0026 8B68     		ldr	r3, [r1, #8]
 283 0028 23F40063 		bic	r3, r3, #2048
 284 002c 23F00803 		bic	r3, r3, #8
 285              	.LVL21:
 275:/home/phong/Documents/thesis/stm32f4/stm-idf/components/stm32f4xx_hal_driver/stm32f4xx_hal_rtc_ex.c **** 
 276:/home/phong/Documents/thesis/stm32f4/stm-idf/components/stm32f4xx_hal_driver/stm32f4xx_hal_rtc_ex.c ****   /* Configure the Time Stamp TSEDGE and Enable bits */
 277:/home/phong/Documents/thesis/stm32f4/stm-idf/components/stm32f4xx_hal_driver/stm32f4xx_hal_rtc_ex.c ****   hrtc->Instance->CR = (uint32_t)tmpreg;
 286              		.loc 1 277 0 discriminator 2
 287 0030 8B60     		str	r3, [r1, #8]
 278:/home/phong/Documents/thesis/stm32f4/stm-idf/components/stm32f4xx_hal_driver/stm32f4xx_hal_rtc_ex.c **** 
 279:/home/phong/Documents/thesis/stm32f4/stm-idf/components/stm32f4xx_hal_driver/stm32f4xx_hal_rtc_ex.c ****   /* Enable the write protection for RTC registers */
 280:/home/phong/Documents/thesis/stm32f4/stm-idf/components/stm32f4xx_hal_driver/stm32f4xx_hal_rtc_ex.c ****   __HAL_RTC_WRITEPROTECTION_ENABLE(hrtc);
 288              		.loc 1 280 0 discriminator 2
 289 0032 0368     		ldr	r3, [r0]
 290              	.LVL22:
 291 0034 FF21     		movs	r1, #255
 292              	.LVL23:
 293 0036 5962     		str	r1, [r3, #36]
ARM GAS  /tmp/cc17vVDA.s 			page 11


 281:/home/phong/Documents/thesis/stm32f4/stm-idf/components/stm32f4xx_hal_driver/stm32f4xx_hal_rtc_ex.c **** 
 282:/home/phong/Documents/thesis/stm32f4/stm-idf/components/stm32f4xx_hal_driver/stm32f4xx_hal_rtc_ex.c ****   hrtc->State = HAL_RTC_STATE_READY;
 294              		.loc 1 282 0 discriminator 2
 295 0038 4277     		strb	r2, [r0, #29]
 283:/home/phong/Documents/thesis/stm32f4/stm-idf/components/stm32f4xx_hal_driver/stm32f4xx_hal_rtc_ex.c **** 
 284:/home/phong/Documents/thesis/stm32f4/stm-idf/components/stm32f4xx_hal_driver/stm32f4xx_hal_rtc_ex.c ****   /* Process Unlocked */
 285:/home/phong/Documents/thesis/stm32f4/stm-idf/components/stm32f4xx_hal_driver/stm32f4xx_hal_rtc_ex.c ****   __HAL_UNLOCK(hrtc);
 296              		.loc 1 285 0 discriminator 2
 297 003a 0023     		movs	r3, #0
 298 003c 0377     		strb	r3, [r0, #28]
 286:/home/phong/Documents/thesis/stm32f4/stm-idf/components/stm32f4xx_hal_driver/stm32f4xx_hal_rtc_ex.c **** 
 287:/home/phong/Documents/thesis/stm32f4/stm-idf/components/stm32f4xx_hal_driver/stm32f4xx_hal_rtc_ex.c ****   return HAL_OK;
 299              		.loc 1 287 0 discriminator 2
 300 003e 1846     		mov	r0, r3
 301              	.LVL24:
 302 0040 7047     		bx	lr
 303              	.LVL25:
 304              	.L13:
 263:/home/phong/Documents/thesis/stm32f4/stm-idf/components/stm32f4xx_hal_driver/stm32f4xx_hal_rtc_ex.c **** 
 305              		.loc 1 263 0
 306 0042 0220     		movs	r0, #2
 307              	.LVL26:
 288:/home/phong/Documents/thesis/stm32f4/stm-idf/components/stm32f4xx_hal_driver/stm32f4xx_hal_rtc_ex.c **** }
 308              		.loc 1 288 0
 309 0044 7047     		bx	lr
 310              		.cfi_endproc
 311              	.LFE132:
 313              		.section	.text.HAL_RTCEx_GetTimeStamp,"ax",%progbits
 314              		.align	1
 315              		.global	HAL_RTCEx_GetTimeStamp
 316              		.syntax unified
 317              		.thumb
 318              		.thumb_func
 319              		.fpu fpv4-sp-d16
 321              	HAL_RTCEx_GetTimeStamp:
 322              	.LFB133:
 289:/home/phong/Documents/thesis/stm32f4/stm-idf/components/stm32f4xx_hal_driver/stm32f4xx_hal_rtc_ex.c **** 
 290:/home/phong/Documents/thesis/stm32f4/stm-idf/components/stm32f4xx_hal_driver/stm32f4xx_hal_rtc_ex.c **** /**
 291:/home/phong/Documents/thesis/stm32f4/stm-idf/components/stm32f4xx_hal_driver/stm32f4xx_hal_rtc_ex.c ****   * @brief  Gets the RTC TimeStamp value.
 292:/home/phong/Documents/thesis/stm32f4/stm-idf/components/stm32f4xx_hal_driver/stm32f4xx_hal_rtc_ex.c ****   * @param  hrtc pointer to a RTC_HandleTypeDef structure that contains
 293:/home/phong/Documents/thesis/stm32f4/stm-idf/components/stm32f4xx_hal_driver/stm32f4xx_hal_rtc_ex.c ****   *                the configuration information for RTC.
 294:/home/phong/Documents/thesis/stm32f4/stm-idf/components/stm32f4xx_hal_driver/stm32f4xx_hal_rtc_ex.c ****   * @param  sTimeStamp Pointer to Time structure
 295:/home/phong/Documents/thesis/stm32f4/stm-idf/components/stm32f4xx_hal_driver/stm32f4xx_hal_rtc_ex.c ****   * @param  sTimeStampDate Pointer to Date structure
 296:/home/phong/Documents/thesis/stm32f4/stm-idf/components/stm32f4xx_hal_driver/stm32f4xx_hal_rtc_ex.c ****   * @param  Format specifies the format of the entered parameters.
 297:/home/phong/Documents/thesis/stm32f4/stm-idf/components/stm32f4xx_hal_driver/stm32f4xx_hal_rtc_ex.c ****   *          This parameter can be one of the following values:
 298:/home/phong/Documents/thesis/stm32f4/stm-idf/components/stm32f4xx_hal_driver/stm32f4xx_hal_rtc_ex.c ****   *             RTC_FORMAT_BIN: Binary data format
 299:/home/phong/Documents/thesis/stm32f4/stm-idf/components/stm32f4xx_hal_driver/stm32f4xx_hal_rtc_ex.c ****   *             RTC_FORMAT_BCD: BCD data format
 300:/home/phong/Documents/thesis/stm32f4/stm-idf/components/stm32f4xx_hal_driver/stm32f4xx_hal_rtc_ex.c ****   * @retval HAL status
 301:/home/phong/Documents/thesis/stm32f4/stm-idf/components/stm32f4xx_hal_driver/stm32f4xx_hal_rtc_ex.c ****   */
 302:/home/phong/Documents/thesis/stm32f4/stm-idf/components/stm32f4xx_hal_driver/stm32f4xx_hal_rtc_ex.c **** HAL_StatusTypeDef HAL_RTCEx_GetTimeStamp(RTC_HandleTypeDef *hrtc, RTC_TimeTypeDef* sTimeStamp, RTC_
 303:/home/phong/Documents/thesis/stm32f4/stm-idf/components/stm32f4xx_hal_driver/stm32f4xx_hal_rtc_ex.c **** {
 323              		.loc 1 303 0
 324              		.cfi_startproc
 325              		@ args = 0, pretend = 0, frame = 0
 326              		@ frame_needed = 0, uses_anonymous_args = 0
 327              	.LVL27:
 328 0000 F8B5     		push	{r3, r4, r5, r6, r7, lr}
ARM GAS  /tmp/cc17vVDA.s 			page 12


 329              	.LCFI6:
 330              		.cfi_def_cfa_offset 24
 331              		.cfi_offset 3, -24
 332              		.cfi_offset 4, -20
 333              		.cfi_offset 5, -16
 334              		.cfi_offset 6, -12
 335              		.cfi_offset 7, -8
 336              		.cfi_offset 14, -4
 337 0002 0646     		mov	r6, r0
 338 0004 0C46     		mov	r4, r1
 339 0006 1546     		mov	r5, r2
 340              	.LVL28:
 304:/home/phong/Documents/thesis/stm32f4/stm-idf/components/stm32f4xx_hal_driver/stm32f4xx_hal_rtc_ex.c ****   uint32_t tmptime = 0U, tmpdate = 0U;
 305:/home/phong/Documents/thesis/stm32f4/stm-idf/components/stm32f4xx_hal_driver/stm32f4xx_hal_rtc_ex.c **** 
 306:/home/phong/Documents/thesis/stm32f4/stm-idf/components/stm32f4xx_hal_driver/stm32f4xx_hal_rtc_ex.c ****   /* Check the parameters */
 307:/home/phong/Documents/thesis/stm32f4/stm-idf/components/stm32f4xx_hal_driver/stm32f4xx_hal_rtc_ex.c ****   assert_param(IS_RTC_FORMAT(Format));
 308:/home/phong/Documents/thesis/stm32f4/stm-idf/components/stm32f4xx_hal_driver/stm32f4xx_hal_rtc_ex.c **** 
 309:/home/phong/Documents/thesis/stm32f4/stm-idf/components/stm32f4xx_hal_driver/stm32f4xx_hal_rtc_ex.c ****   /* Get the TimeStamp time and date registers values */
 310:/home/phong/Documents/thesis/stm32f4/stm-idf/components/stm32f4xx_hal_driver/stm32f4xx_hal_rtc_ex.c ****   tmptime = (uint32_t)(hrtc->Instance->TSTR & RTC_TR_RESERVED_MASK);
 341              		.loc 1 310 0
 342 0008 0268     		ldr	r2, [r0]
 343              	.LVL29:
 344 000a 116B     		ldr	r1, [r2, #48]
 345              	.LVL30:
 346 000c 01F07F31 		and	r1, r1, #2139062143
 347 0010 21F0FE41 		bic	r1, r1, #2130706432
 348              	.LVL31:
 311:/home/phong/Documents/thesis/stm32f4/stm-idf/components/stm32f4xx_hal_driver/stm32f4xx_hal_rtc_ex.c ****   tmpdate = (uint32_t)(hrtc->Instance->TSDR & RTC_DR_RESERVED_MASK);
 349              		.loc 1 311 0
 350 0014 526B     		ldr	r2, [r2, #52]
 351 0016 22F07F42 		bic	r2, r2, #-16777216
 352 001a 22F0C002 		bic	r2, r2, #192
 353              	.LVL32:
 312:/home/phong/Documents/thesis/stm32f4/stm-idf/components/stm32f4xx_hal_driver/stm32f4xx_hal_rtc_ex.c **** 
 313:/home/phong/Documents/thesis/stm32f4/stm-idf/components/stm32f4xx_hal_driver/stm32f4xx_hal_rtc_ex.c ****   /* Fill the Time structure fields with the read parameters */
 314:/home/phong/Documents/thesis/stm32f4/stm-idf/components/stm32f4xx_hal_driver/stm32f4xx_hal_rtc_ex.c ****   sTimeStamp->Hours = (uint8_t)((tmptime & (RTC_TR_HT | RTC_TR_HU)) >> 16U);
 354              		.loc 1 314 0
 355 001e 080C     		lsrs	r0, r1, #16
 356              	.LVL33:
 357 0020 00F03F07 		and	r7, r0, #63
 358 0024 2770     		strb	r7, [r4]
 315:/home/phong/Documents/thesis/stm32f4/stm-idf/components/stm32f4xx_hal_driver/stm32f4xx_hal_rtc_ex.c ****   sTimeStamp->Minutes = (uint8_t)((tmptime & (RTC_TR_MNT | RTC_TR_MNU)) >> 8U);
 359              		.loc 1 315 0
 360 0026 C1F30627 		ubfx	r7, r1, #8, #7
 361 002a 6770     		strb	r7, [r4, #1]
 316:/home/phong/Documents/thesis/stm32f4/stm-idf/components/stm32f4xx_hal_driver/stm32f4xx_hal_rtc_ex.c ****   sTimeStamp->Seconds = (uint8_t)(tmptime & (RTC_TR_ST | RTC_TR_SU));
 362              		.loc 1 316 0
 363 002c A170     		strb	r1, [r4, #2]
 317:/home/phong/Documents/thesis/stm32f4/stm-idf/components/stm32f4xx_hal_driver/stm32f4xx_hal_rtc_ex.c ****   sTimeStamp->TimeFormat = (uint8_t)((tmptime & (RTC_TR_PM)) >> 16U);
 364              		.loc 1 317 0
 365 002e 00F04000 		and	r0, r0, #64
 366 0032 E070     		strb	r0, [r4, #3]
 318:/home/phong/Documents/thesis/stm32f4/stm-idf/components/stm32f4xx_hal_driver/stm32f4xx_hal_rtc_ex.c ****   sTimeStamp->SubSeconds = (uint32_t) hrtc->Instance->TSSSR;
 367              		.loc 1 318 0
 368 0034 3168     		ldr	r1, [r6]
 369              	.LVL34:
 370 0036 896B     		ldr	r1, [r1, #56]
ARM GAS  /tmp/cc17vVDA.s 			page 13


 371 0038 6160     		str	r1, [r4, #4]
 319:/home/phong/Documents/thesis/stm32f4/stm-idf/components/stm32f4xx_hal_driver/stm32f4xx_hal_rtc_ex.c **** 
 320:/home/phong/Documents/thesis/stm32f4/stm-idf/components/stm32f4xx_hal_driver/stm32f4xx_hal_rtc_ex.c ****   /* Fill the Date structure fields with the read parameters */
 321:/home/phong/Documents/thesis/stm32f4/stm-idf/components/stm32f4xx_hal_driver/stm32f4xx_hal_rtc_ex.c ****   sTimeStampDate->Year = 0U;
 372              		.loc 1 321 0
 373 003a 0021     		movs	r1, #0
 374 003c E970     		strb	r1, [r5, #3]
 322:/home/phong/Documents/thesis/stm32f4/stm-idf/components/stm32f4xx_hal_driver/stm32f4xx_hal_rtc_ex.c ****   sTimeStampDate->Month = (uint8_t)((tmpdate & (RTC_DR_MT | RTC_DR_MU)) >> 8U);
 375              		.loc 1 322 0
 376 003e C2F30421 		ubfx	r1, r2, #8, #5
 377 0042 6970     		strb	r1, [r5, #1]
 323:/home/phong/Documents/thesis/stm32f4/stm-idf/components/stm32f4xx_hal_driver/stm32f4xx_hal_rtc_ex.c ****   sTimeStampDate->Date = (uint8_t)(tmpdate & (RTC_DR_DT | RTC_DR_DU));
 378              		.loc 1 323 0
 379 0044 AA70     		strb	r2, [r5, #2]
 324:/home/phong/Documents/thesis/stm32f4/stm-idf/components/stm32f4xx_hal_driver/stm32f4xx_hal_rtc_ex.c ****   sTimeStampDate->WeekDay = (uint8_t)((tmpdate & (RTC_DR_WDU)) >> 13U);
 380              		.loc 1 324 0
 381 0046 C2F34232 		ubfx	r2, r2, #13, #3
 382              	.LVL35:
 383 004a 2A70     		strb	r2, [r5]
 325:/home/phong/Documents/thesis/stm32f4/stm-idf/components/stm32f4xx_hal_driver/stm32f4xx_hal_rtc_ex.c **** 
 326:/home/phong/Documents/thesis/stm32f4/stm-idf/components/stm32f4xx_hal_driver/stm32f4xx_hal_rtc_ex.c ****   /* Check the input parameters format */
 327:/home/phong/Documents/thesis/stm32f4/stm-idf/components/stm32f4xx_hal_driver/stm32f4xx_hal_rtc_ex.c ****   if(Format == RTC_FORMAT_BIN)
 384              		.loc 1 327 0
 385 004c 3BB1     		cbz	r3, .L17
 386              	.LVL36:
 387              	.L15:
 328:/home/phong/Documents/thesis/stm32f4/stm-idf/components/stm32f4xx_hal_driver/stm32f4xx_hal_rtc_ex.c ****   {
 329:/home/phong/Documents/thesis/stm32f4/stm-idf/components/stm32f4xx_hal_driver/stm32f4xx_hal_rtc_ex.c ****     /* Convert the TimeStamp structure parameters to Binary format */
 330:/home/phong/Documents/thesis/stm32f4/stm-idf/components/stm32f4xx_hal_driver/stm32f4xx_hal_rtc_ex.c ****     sTimeStamp->Hours = (uint8_t)RTC_Bcd2ToByte(sTimeStamp->Hours);
 331:/home/phong/Documents/thesis/stm32f4/stm-idf/components/stm32f4xx_hal_driver/stm32f4xx_hal_rtc_ex.c ****     sTimeStamp->Minutes = (uint8_t)RTC_Bcd2ToByte(sTimeStamp->Minutes);
 332:/home/phong/Documents/thesis/stm32f4/stm-idf/components/stm32f4xx_hal_driver/stm32f4xx_hal_rtc_ex.c ****     sTimeStamp->Seconds = (uint8_t)RTC_Bcd2ToByte(sTimeStamp->Seconds);
 333:/home/phong/Documents/thesis/stm32f4/stm-idf/components/stm32f4xx_hal_driver/stm32f4xx_hal_rtc_ex.c **** 
 334:/home/phong/Documents/thesis/stm32f4/stm-idf/components/stm32f4xx_hal_driver/stm32f4xx_hal_rtc_ex.c ****     /* Convert the DateTimeStamp structure parameters to Binary format */
 335:/home/phong/Documents/thesis/stm32f4/stm-idf/components/stm32f4xx_hal_driver/stm32f4xx_hal_rtc_ex.c ****     sTimeStampDate->Month = (uint8_t)RTC_Bcd2ToByte(sTimeStampDate->Month);
 336:/home/phong/Documents/thesis/stm32f4/stm-idf/components/stm32f4xx_hal_driver/stm32f4xx_hal_rtc_ex.c ****     sTimeStampDate->Date = (uint8_t)RTC_Bcd2ToByte(sTimeStampDate->Date);
 337:/home/phong/Documents/thesis/stm32f4/stm-idf/components/stm32f4xx_hal_driver/stm32f4xx_hal_rtc_ex.c ****     sTimeStampDate->WeekDay = (uint8_t)RTC_Bcd2ToByte(sTimeStampDate->WeekDay);
 338:/home/phong/Documents/thesis/stm32f4/stm-idf/components/stm32f4xx_hal_driver/stm32f4xx_hal_rtc_ex.c ****   }
 339:/home/phong/Documents/thesis/stm32f4/stm-idf/components/stm32f4xx_hal_driver/stm32f4xx_hal_rtc_ex.c **** 
 340:/home/phong/Documents/thesis/stm32f4/stm-idf/components/stm32f4xx_hal_driver/stm32f4xx_hal_rtc_ex.c ****   /* Clear the TIMESTAMP Flag */
 341:/home/phong/Documents/thesis/stm32f4/stm-idf/components/stm32f4xx_hal_driver/stm32f4xx_hal_rtc_ex.c ****   __HAL_RTC_TIMESTAMP_CLEAR_FLAG(hrtc, RTC_FLAG_TSF);
 388              		.loc 1 341 0
 389 004e 3268     		ldr	r2, [r6]
 390 0050 D368     		ldr	r3, [r2, #12]
 391 0052 DBB2     		uxtb	r3, r3
 392 0054 63F40863 		orn	r3, r3, #2176
 393 0058 D360     		str	r3, [r2, #12]
 342:/home/phong/Documents/thesis/stm32f4/stm-idf/components/stm32f4xx_hal_driver/stm32f4xx_hal_rtc_ex.c **** 
 343:/home/phong/Documents/thesis/stm32f4/stm-idf/components/stm32f4xx_hal_driver/stm32f4xx_hal_rtc_ex.c ****   return HAL_OK;
 344:/home/phong/Documents/thesis/stm32f4/stm-idf/components/stm32f4xx_hal_driver/stm32f4xx_hal_rtc_ex.c **** }
 394              		.loc 1 344 0
 395 005a 0020     		movs	r0, #0
 396 005c F8BD     		pop	{r3, r4, r5, r6, r7, pc}
 397              	.LVL37:
 398              	.L17:
 330:/home/phong/Documents/thesis/stm32f4/stm-idf/components/stm32f4xx_hal_driver/stm32f4xx_hal_rtc_ex.c ****     sTimeStamp->Minutes = (uint8_t)RTC_Bcd2ToByte(sTimeStamp->Minutes);
 399              		.loc 1 330 0
 400 005e 2078     		ldrb	r0, [r4]	@ zero_extendqisi2
ARM GAS  /tmp/cc17vVDA.s 			page 14


 401 0060 FFF7FEFF 		bl	RTC_Bcd2ToByte
 402              	.LVL38:
 403 0064 2070     		strb	r0, [r4]
 331:/home/phong/Documents/thesis/stm32f4/stm-idf/components/stm32f4xx_hal_driver/stm32f4xx_hal_rtc_ex.c ****     sTimeStamp->Seconds = (uint8_t)RTC_Bcd2ToByte(sTimeStamp->Seconds);
 404              		.loc 1 331 0
 405 0066 6078     		ldrb	r0, [r4, #1]	@ zero_extendqisi2
 406 0068 FFF7FEFF 		bl	RTC_Bcd2ToByte
 407              	.LVL39:
 408 006c 6070     		strb	r0, [r4, #1]
 332:/home/phong/Documents/thesis/stm32f4/stm-idf/components/stm32f4xx_hal_driver/stm32f4xx_hal_rtc_ex.c **** 
 409              		.loc 1 332 0
 410 006e A078     		ldrb	r0, [r4, #2]	@ zero_extendqisi2
 411 0070 FFF7FEFF 		bl	RTC_Bcd2ToByte
 412              	.LVL40:
 413 0074 A070     		strb	r0, [r4, #2]
 335:/home/phong/Documents/thesis/stm32f4/stm-idf/components/stm32f4xx_hal_driver/stm32f4xx_hal_rtc_ex.c ****     sTimeStampDate->Date = (uint8_t)RTC_Bcd2ToByte(sTimeStampDate->Date);
 414              		.loc 1 335 0
 415 0076 6878     		ldrb	r0, [r5, #1]	@ zero_extendqisi2
 416 0078 FFF7FEFF 		bl	RTC_Bcd2ToByte
 417              	.LVL41:
 418 007c 6870     		strb	r0, [r5, #1]
 336:/home/phong/Documents/thesis/stm32f4/stm-idf/components/stm32f4xx_hal_driver/stm32f4xx_hal_rtc_ex.c ****     sTimeStampDate->WeekDay = (uint8_t)RTC_Bcd2ToByte(sTimeStampDate->WeekDay);
 419              		.loc 1 336 0
 420 007e A878     		ldrb	r0, [r5, #2]	@ zero_extendqisi2
 421 0080 FFF7FEFF 		bl	RTC_Bcd2ToByte
 422              	.LVL42:
 423 0084 A870     		strb	r0, [r5, #2]
 337:/home/phong/Documents/thesis/stm32f4/stm-idf/components/stm32f4xx_hal_driver/stm32f4xx_hal_rtc_ex.c ****   }
 424              		.loc 1 337 0
 425 0086 2878     		ldrb	r0, [r5]	@ zero_extendqisi2
 426 0088 FFF7FEFF 		bl	RTC_Bcd2ToByte
 427              	.LVL43:
 428 008c 2870     		strb	r0, [r5]
 429 008e DEE7     		b	.L15
 430              		.cfi_endproc
 431              	.LFE133:
 433              		.section	.text.HAL_RTCEx_SetTamper,"ax",%progbits
 434              		.align	1
 435              		.global	HAL_RTCEx_SetTamper
 436              		.syntax unified
 437              		.thumb
 438              		.thumb_func
 439              		.fpu fpv4-sp-d16
 441              	HAL_RTCEx_SetTamper:
 442              	.LFB134:
 345:/home/phong/Documents/thesis/stm32f4/stm-idf/components/stm32f4xx_hal_driver/stm32f4xx_hal_rtc_ex.c **** 
 346:/home/phong/Documents/thesis/stm32f4/stm-idf/components/stm32f4xx_hal_driver/stm32f4xx_hal_rtc_ex.c **** /**
 347:/home/phong/Documents/thesis/stm32f4/stm-idf/components/stm32f4xx_hal_driver/stm32f4xx_hal_rtc_ex.c ****   * @brief  Sets Tamper
 348:/home/phong/Documents/thesis/stm32f4/stm-idf/components/stm32f4xx_hal_driver/stm32f4xx_hal_rtc_ex.c ****   * @note   By calling this API we disable the tamper interrupt for all tampers.
 349:/home/phong/Documents/thesis/stm32f4/stm-idf/components/stm32f4xx_hal_driver/stm32f4xx_hal_rtc_ex.c ****   * @param  hrtc pointer to a RTC_HandleTypeDef structure that contains
 350:/home/phong/Documents/thesis/stm32f4/stm-idf/components/stm32f4xx_hal_driver/stm32f4xx_hal_rtc_ex.c ****   *                the configuration information for RTC.
 351:/home/phong/Documents/thesis/stm32f4/stm-idf/components/stm32f4xx_hal_driver/stm32f4xx_hal_rtc_ex.c ****   * @param  sTamper Pointer to Tamper Structure.
 352:/home/phong/Documents/thesis/stm32f4/stm-idf/components/stm32f4xx_hal_driver/stm32f4xx_hal_rtc_ex.c ****   * @retval HAL status
 353:/home/phong/Documents/thesis/stm32f4/stm-idf/components/stm32f4xx_hal_driver/stm32f4xx_hal_rtc_ex.c ****   */
 354:/home/phong/Documents/thesis/stm32f4/stm-idf/components/stm32f4xx_hal_driver/stm32f4xx_hal_rtc_ex.c **** HAL_StatusTypeDef HAL_RTCEx_SetTamper(RTC_HandleTypeDef *hrtc, RTC_TamperTypeDef* sTamper)
 355:/home/phong/Documents/thesis/stm32f4/stm-idf/components/stm32f4xx_hal_driver/stm32f4xx_hal_rtc_ex.c **** {
 443              		.loc 1 355 0
ARM GAS  /tmp/cc17vVDA.s 			page 15


 444              		.cfi_startproc
 445              		@ args = 0, pretend = 0, frame = 0
 446              		@ frame_needed = 0, uses_anonymous_args = 0
 447              		@ link register save eliminated.
 448              	.LVL44:
 356:/home/phong/Documents/thesis/stm32f4/stm-idf/components/stm32f4xx_hal_driver/stm32f4xx_hal_rtc_ex.c ****   uint32_t tmpreg = 0U;
 357:/home/phong/Documents/thesis/stm32f4/stm-idf/components/stm32f4xx_hal_driver/stm32f4xx_hal_rtc_ex.c **** 
 358:/home/phong/Documents/thesis/stm32f4/stm-idf/components/stm32f4xx_hal_driver/stm32f4xx_hal_rtc_ex.c ****   /* Check the parameters */
 359:/home/phong/Documents/thesis/stm32f4/stm-idf/components/stm32f4xx_hal_driver/stm32f4xx_hal_rtc_ex.c ****   assert_param(IS_RTC_TAMPER(sTamper->Tamper));
 360:/home/phong/Documents/thesis/stm32f4/stm-idf/components/stm32f4xx_hal_driver/stm32f4xx_hal_rtc_ex.c ****   assert_param(IS_RTC_TAMPER_PIN(sTamper->PinSelection));
 361:/home/phong/Documents/thesis/stm32f4/stm-idf/components/stm32f4xx_hal_driver/stm32f4xx_hal_rtc_ex.c ****   assert_param(IS_RTC_TAMPER_TRIGGER(sTamper->Trigger));
 362:/home/phong/Documents/thesis/stm32f4/stm-idf/components/stm32f4xx_hal_driver/stm32f4xx_hal_rtc_ex.c ****   assert_param(IS_RTC_TAMPER_FILTER(sTamper->Filter));
 363:/home/phong/Documents/thesis/stm32f4/stm-idf/components/stm32f4xx_hal_driver/stm32f4xx_hal_rtc_ex.c ****   assert_param(IS_RTC_TAMPER_SAMPLING_FREQ(sTamper->SamplingFrequency));
 364:/home/phong/Documents/thesis/stm32f4/stm-idf/components/stm32f4xx_hal_driver/stm32f4xx_hal_rtc_ex.c ****   assert_param(IS_RTC_TAMPER_PRECHARGE_DURATION(sTamper->PrechargeDuration));
 365:/home/phong/Documents/thesis/stm32f4/stm-idf/components/stm32f4xx_hal_driver/stm32f4xx_hal_rtc_ex.c ****   assert_param(IS_RTC_TAMPER_PULLUP_STATE(sTamper->TamperPullUp));
 366:/home/phong/Documents/thesis/stm32f4/stm-idf/components/stm32f4xx_hal_driver/stm32f4xx_hal_rtc_ex.c ****   assert_param(IS_RTC_TAMPER_TIMESTAMPONTAMPER_DETECTION(sTamper->TimeStampOnTamperDetection));
 367:/home/phong/Documents/thesis/stm32f4/stm-idf/components/stm32f4xx_hal_driver/stm32f4xx_hal_rtc_ex.c **** 
 368:/home/phong/Documents/thesis/stm32f4/stm-idf/components/stm32f4xx_hal_driver/stm32f4xx_hal_rtc_ex.c ****   /* Process Locked */
 369:/home/phong/Documents/thesis/stm32f4/stm-idf/components/stm32f4xx_hal_driver/stm32f4xx_hal_rtc_ex.c ****   __HAL_LOCK(hrtc);
 449              		.loc 1 369 0
 450 0000 037F     		ldrb	r3, [r0, #28]	@ zero_extendqisi2
 451 0002 012B     		cmp	r3, #1
 452 0004 2FD0     		beq	.L21
 355:/home/phong/Documents/thesis/stm32f4/stm-idf/components/stm32f4xx_hal_driver/stm32f4xx_hal_rtc_ex.c ****   uint32_t tmpreg = 0U;
 453              		.loc 1 355 0 discriminator 2
 454 0006 10B4     		push	{r4}
 455              	.LCFI7:
 456              		.cfi_def_cfa_offset 4
 457              		.cfi_offset 4, -4
 458              		.loc 1 369 0 discriminator 2
 459 0008 0123     		movs	r3, #1
 460 000a 0377     		strb	r3, [r0, #28]
 370:/home/phong/Documents/thesis/stm32f4/stm-idf/components/stm32f4xx_hal_driver/stm32f4xx_hal_rtc_ex.c **** 
 371:/home/phong/Documents/thesis/stm32f4/stm-idf/components/stm32f4xx_hal_driver/stm32f4xx_hal_rtc_ex.c ****   hrtc->State = HAL_RTC_STATE_BUSY;
 461              		.loc 1 371 0 discriminator 2
 462 000c 0223     		movs	r3, #2
 463 000e 4377     		strb	r3, [r0, #29]
 372:/home/phong/Documents/thesis/stm32f4/stm-idf/components/stm32f4xx_hal_driver/stm32f4xx_hal_rtc_ex.c **** 
 373:/home/phong/Documents/thesis/stm32f4/stm-idf/components/stm32f4xx_hal_driver/stm32f4xx_hal_rtc_ex.c ****   if(sTamper->Trigger != RTC_TAMPERTRIGGER_RISINGEDGE)
 464              		.loc 1 373 0 discriminator 2
 465 0010 8B68     		ldr	r3, [r1, #8]
 466 0012 13B1     		cbz	r3, .L20
 374:/home/phong/Documents/thesis/stm32f4/stm-idf/components/stm32f4xx_hal_driver/stm32f4xx_hal_rtc_ex.c ****   {
 375:/home/phong/Documents/thesis/stm32f4/stm-idf/components/stm32f4xx_hal_driver/stm32f4xx_hal_rtc_ex.c ****     sTamper->Trigger = (uint32_t)(sTamper->Tamper << 1U);
 467              		.loc 1 375 0
 468 0014 0B68     		ldr	r3, [r1]
 469 0016 5B00     		lsls	r3, r3, #1
 470 0018 8B60     		str	r3, [r1, #8]
 471              	.L20:
 376:/home/phong/Documents/thesis/stm32f4/stm-idf/components/stm32f4xx_hal_driver/stm32f4xx_hal_rtc_ex.c ****   }
 377:/home/phong/Documents/thesis/stm32f4/stm-idf/components/stm32f4xx_hal_driver/stm32f4xx_hal_rtc_ex.c **** 
 378:/home/phong/Documents/thesis/stm32f4/stm-idf/components/stm32f4xx_hal_driver/stm32f4xx_hal_rtc_ex.c ****   tmpreg = ((uint32_t)sTamper->Tamper | (uint32_t)sTamper->PinSelection | (uint32_t)sTamper->Trigge
 472              		.loc 1 378 0
 473 001a 0A68     		ldr	r2, [r1]
 474 001c 4B68     		ldr	r3, [r1, #4]
 475 001e 1343     		orrs	r3, r3, r2
 476 0020 8C68     		ldr	r4, [r1, #8]
ARM GAS  /tmp/cc17vVDA.s 			page 16


 477 0022 2343     		orrs	r3, r3, r4
 379:/home/phong/Documents/thesis/stm32f4/stm-idf/components/stm32f4xx_hal_driver/stm32f4xx_hal_rtc_ex.c ****             (uint32_t)sTamper->Filter | (uint32_t)sTamper->SamplingFrequency | (uint32_t)sTamper->P
 478              		.loc 1 379 0
 479 0024 CC68     		ldr	r4, [r1, #12]
 378:/home/phong/Documents/thesis/stm32f4/stm-idf/components/stm32f4xx_hal_driver/stm32f4xx_hal_rtc_ex.c ****             (uint32_t)sTamper->Filter | (uint32_t)sTamper->SamplingFrequency | (uint32_t)sTamper->P
 480              		.loc 1 378 0
 481 0026 2343     		orrs	r3, r3, r4
 482              		.loc 1 379 0
 483 0028 0C69     		ldr	r4, [r1, #16]
 484 002a 2343     		orrs	r3, r3, r4
 485 002c 4C69     		ldr	r4, [r1, #20]
 486 002e 2343     		orrs	r3, r3, r4
 380:/home/phong/Documents/thesis/stm32f4/stm-idf/components/stm32f4xx_hal_driver/stm32f4xx_hal_rtc_ex.c ****             (uint32_t)sTamper->TamperPullUp | sTamper->TimeStampOnTamperDetection);
 487              		.loc 1 380 0
 488 0030 8C69     		ldr	r4, [r1, #24]
 379:/home/phong/Documents/thesis/stm32f4/stm-idf/components/stm32f4xx_hal_driver/stm32f4xx_hal_rtc_ex.c ****             (uint32_t)sTamper->Filter | (uint32_t)sTamper->SamplingFrequency | (uint32_t)sTamper->P
 489              		.loc 1 379 0
 490 0032 2343     		orrs	r3, r3, r4
 491              		.loc 1 380 0
 492 0034 C969     		ldr	r1, [r1, #28]
 493              	.LVL45:
 378:/home/phong/Documents/thesis/stm32f4/stm-idf/components/stm32f4xx_hal_driver/stm32f4xx_hal_rtc_ex.c ****             (uint32_t)sTamper->Filter | (uint32_t)sTamper->SamplingFrequency | (uint32_t)sTamper->P
 494              		.loc 1 378 0
 495 0036 0B43     		orrs	r3, r3, r1
 496              	.LVL46:
 381:/home/phong/Documents/thesis/stm32f4/stm-idf/components/stm32f4xx_hal_driver/stm32f4xx_hal_rtc_ex.c **** 
 382:/home/phong/Documents/thesis/stm32f4/stm-idf/components/stm32f4xx_hal_driver/stm32f4xx_hal_rtc_ex.c ****   hrtc->Instance->TAFCR &= (uint32_t)~((uint32_t)sTamper->Tamper | (uint32_t)(sTamper->Tamper << 1U
 497              		.loc 1 382 0
 498 0038 0468     		ldr	r4, [r0]
 499 003a 216C     		ldr	r1, [r4, #64]
 500 003c 42EA4202 		orr	r2, r2, r2, lsl #1
 383:/home/phong/Documents/thesis/stm32f4/stm-idf/components/stm32f4xx_hal_driver/stm32f4xx_hal_rtc_ex.c ****                                        (uint32_t)RTC_TAFCR_TAMPFREQ | (uint32_t)RTC_TAFCR_TAMPFLT |
 384:/home/phong/Documents/thesis/stm32f4/stm-idf/components/stm32f4xx_hal_driver/stm32f4xx_hal_rtc_ex.c ****                                        (uint32_t)RTC_TAFCR_TAMPPUDIS | (uint32_t)RTC_TAFCR_TAMPINSE
 501              		.loc 1 384 0
 502 0040 42F4FF32 		orr	r2, r2, #130560
 503 0044 42F4C272 		orr	r2, r2, #388
 382:/home/phong/Documents/thesis/stm32f4/stm-idf/components/stm32f4xx_hal_driver/stm32f4xx_hal_rtc_ex.c ****                                        (uint32_t)RTC_TAFCR_TAMPFREQ | (uint32_t)RTC_TAFCR_TAMPFLT |
 504              		.loc 1 382 0
 505 0048 21EA0202 		bic	r2, r1, r2
 506 004c 2264     		str	r2, [r4, #64]
 385:/home/phong/Documents/thesis/stm32f4/stm-idf/components/stm32f4xx_hal_driver/stm32f4xx_hal_rtc_ex.c **** 
 386:/home/phong/Documents/thesis/stm32f4/stm-idf/components/stm32f4xx_hal_driver/stm32f4xx_hal_rtc_ex.c ****   hrtc->Instance->TAFCR |= tmpreg;
 507              		.loc 1 386 0
 508 004e 0268     		ldr	r2, [r0]
 509 0050 116C     		ldr	r1, [r2, #64]
 510 0052 0B43     		orrs	r3, r3, r1
 511              	.LVL47:
 512 0054 1364     		str	r3, [r2, #64]
 387:/home/phong/Documents/thesis/stm32f4/stm-idf/components/stm32f4xx_hal_driver/stm32f4xx_hal_rtc_ex.c **** 
 388:/home/phong/Documents/thesis/stm32f4/stm-idf/components/stm32f4xx_hal_driver/stm32f4xx_hal_rtc_ex.c ****   hrtc->State = HAL_RTC_STATE_READY;
 513              		.loc 1 388 0
 514 0056 0123     		movs	r3, #1
 515 0058 4377     		strb	r3, [r0, #29]
 389:/home/phong/Documents/thesis/stm32f4/stm-idf/components/stm32f4xx_hal_driver/stm32f4xx_hal_rtc_ex.c **** 
 390:/home/phong/Documents/thesis/stm32f4/stm-idf/components/stm32f4xx_hal_driver/stm32f4xx_hal_rtc_ex.c ****   /* Process Unlocked */
 391:/home/phong/Documents/thesis/stm32f4/stm-idf/components/stm32f4xx_hal_driver/stm32f4xx_hal_rtc_ex.c ****   __HAL_UNLOCK(hrtc);
 516              		.loc 1 391 0
ARM GAS  /tmp/cc17vVDA.s 			page 17


 517 005a 0023     		movs	r3, #0
 518 005c 0377     		strb	r3, [r0, #28]
 392:/home/phong/Documents/thesis/stm32f4/stm-idf/components/stm32f4xx_hal_driver/stm32f4xx_hal_rtc_ex.c **** 
 393:/home/phong/Documents/thesis/stm32f4/stm-idf/components/stm32f4xx_hal_driver/stm32f4xx_hal_rtc_ex.c ****   return HAL_OK;
 519              		.loc 1 393 0
 520 005e 1846     		mov	r0, r3
 521              	.LVL48:
 394:/home/phong/Documents/thesis/stm32f4/stm-idf/components/stm32f4xx_hal_driver/stm32f4xx_hal_rtc_ex.c **** }
 522              		.loc 1 394 0
 523 0060 5DF8044B 		ldr	r4, [sp], #4
 524              	.LCFI8:
 525              		.cfi_restore 4
 526              		.cfi_def_cfa_offset 0
 527 0064 7047     		bx	lr
 528              	.LVL49:
 529              	.L21:
 369:/home/phong/Documents/thesis/stm32f4/stm-idf/components/stm32f4xx_hal_driver/stm32f4xx_hal_rtc_ex.c **** 
 530              		.loc 1 369 0
 531 0066 0220     		movs	r0, #2
 532              	.LVL50:
 533 0068 7047     		bx	lr
 534              		.cfi_endproc
 535              	.LFE134:
 537              		.section	.text.HAL_RTCEx_SetTamper_IT,"ax",%progbits
 538              		.align	1
 539              		.global	HAL_RTCEx_SetTamper_IT
 540              		.syntax unified
 541              		.thumb
 542              		.thumb_func
 543              		.fpu fpv4-sp-d16
 545              	HAL_RTCEx_SetTamper_IT:
 546              	.LFB135:
 395:/home/phong/Documents/thesis/stm32f4/stm-idf/components/stm32f4xx_hal_driver/stm32f4xx_hal_rtc_ex.c **** 
 396:/home/phong/Documents/thesis/stm32f4/stm-idf/components/stm32f4xx_hal_driver/stm32f4xx_hal_rtc_ex.c **** /**
 397:/home/phong/Documents/thesis/stm32f4/stm-idf/components/stm32f4xx_hal_driver/stm32f4xx_hal_rtc_ex.c ****   * @brief  Sets Tamper with interrupt.
 398:/home/phong/Documents/thesis/stm32f4/stm-idf/components/stm32f4xx_hal_driver/stm32f4xx_hal_rtc_ex.c ****   * @note   By calling this API we force the tamper interrupt for all tampers.
 399:/home/phong/Documents/thesis/stm32f4/stm-idf/components/stm32f4xx_hal_driver/stm32f4xx_hal_rtc_ex.c ****   * @param  hrtc pointer to a RTC_HandleTypeDef structure that contains
 400:/home/phong/Documents/thesis/stm32f4/stm-idf/components/stm32f4xx_hal_driver/stm32f4xx_hal_rtc_ex.c ****   *                the configuration information for RTC.
 401:/home/phong/Documents/thesis/stm32f4/stm-idf/components/stm32f4xx_hal_driver/stm32f4xx_hal_rtc_ex.c ****   * @param  sTamper Pointer to RTC Tamper.
 402:/home/phong/Documents/thesis/stm32f4/stm-idf/components/stm32f4xx_hal_driver/stm32f4xx_hal_rtc_ex.c ****   * @retval HAL status
 403:/home/phong/Documents/thesis/stm32f4/stm-idf/components/stm32f4xx_hal_driver/stm32f4xx_hal_rtc_ex.c ****   */
 404:/home/phong/Documents/thesis/stm32f4/stm-idf/components/stm32f4xx_hal_driver/stm32f4xx_hal_rtc_ex.c **** HAL_StatusTypeDef HAL_RTCEx_SetTamper_IT(RTC_HandleTypeDef *hrtc, RTC_TamperTypeDef* sTamper)
 405:/home/phong/Documents/thesis/stm32f4/stm-idf/components/stm32f4xx_hal_driver/stm32f4xx_hal_rtc_ex.c **** {
 547              		.loc 1 405 0
 548              		.cfi_startproc
 549              		@ args = 0, pretend = 0, frame = 0
 550              		@ frame_needed = 0, uses_anonymous_args = 0
 551              		@ link register save eliminated.
 552              	.LVL51:
 406:/home/phong/Documents/thesis/stm32f4/stm-idf/components/stm32f4xx_hal_driver/stm32f4xx_hal_rtc_ex.c ****   uint32_t tmpreg = 0U;
 407:/home/phong/Documents/thesis/stm32f4/stm-idf/components/stm32f4xx_hal_driver/stm32f4xx_hal_rtc_ex.c **** 
 408:/home/phong/Documents/thesis/stm32f4/stm-idf/components/stm32f4xx_hal_driver/stm32f4xx_hal_rtc_ex.c ****   /* Check the parameters */
 409:/home/phong/Documents/thesis/stm32f4/stm-idf/components/stm32f4xx_hal_driver/stm32f4xx_hal_rtc_ex.c ****   assert_param(IS_RTC_TAMPER(sTamper->Tamper));
 410:/home/phong/Documents/thesis/stm32f4/stm-idf/components/stm32f4xx_hal_driver/stm32f4xx_hal_rtc_ex.c ****   assert_param(IS_RTC_TAMPER_PIN(sTamper->PinSelection));
 411:/home/phong/Documents/thesis/stm32f4/stm-idf/components/stm32f4xx_hal_driver/stm32f4xx_hal_rtc_ex.c ****   assert_param(IS_RTC_TAMPER_TRIGGER(sTamper->Trigger));
 412:/home/phong/Documents/thesis/stm32f4/stm-idf/components/stm32f4xx_hal_driver/stm32f4xx_hal_rtc_ex.c ****   assert_param(IS_RTC_TAMPER_FILTER(sTamper->Filter));
 413:/home/phong/Documents/thesis/stm32f4/stm-idf/components/stm32f4xx_hal_driver/stm32f4xx_hal_rtc_ex.c ****   assert_param(IS_RTC_TAMPER_SAMPLING_FREQ(sTamper->SamplingFrequency));
ARM GAS  /tmp/cc17vVDA.s 			page 18


 414:/home/phong/Documents/thesis/stm32f4/stm-idf/components/stm32f4xx_hal_driver/stm32f4xx_hal_rtc_ex.c ****   assert_param(IS_RTC_TAMPER_PRECHARGE_DURATION(sTamper->PrechargeDuration));
 415:/home/phong/Documents/thesis/stm32f4/stm-idf/components/stm32f4xx_hal_driver/stm32f4xx_hal_rtc_ex.c ****   assert_param(IS_RTC_TAMPER_PULLUP_STATE(sTamper->TamperPullUp));
 416:/home/phong/Documents/thesis/stm32f4/stm-idf/components/stm32f4xx_hal_driver/stm32f4xx_hal_rtc_ex.c ****   assert_param(IS_RTC_TAMPER_TIMESTAMPONTAMPER_DETECTION(sTamper->TimeStampOnTamperDetection));
 417:/home/phong/Documents/thesis/stm32f4/stm-idf/components/stm32f4xx_hal_driver/stm32f4xx_hal_rtc_ex.c **** 
 418:/home/phong/Documents/thesis/stm32f4/stm-idf/components/stm32f4xx_hal_driver/stm32f4xx_hal_rtc_ex.c ****   /* Process Locked */
 419:/home/phong/Documents/thesis/stm32f4/stm-idf/components/stm32f4xx_hal_driver/stm32f4xx_hal_rtc_ex.c ****   __HAL_LOCK(hrtc);
 553              		.loc 1 419 0
 554 0000 037F     		ldrb	r3, [r0, #28]	@ zero_extendqisi2
 555 0002 012B     		cmp	r3, #1
 556 0004 4CD0     		beq	.L31
 405:/home/phong/Documents/thesis/stm32f4/stm-idf/components/stm32f4xx_hal_driver/stm32f4xx_hal_rtc_ex.c ****   uint32_t tmpreg = 0U;
 557              		.loc 1 405 0 discriminator 2
 558 0006 30B4     		push	{r4, r5}
 559              	.LCFI9:
 560              		.cfi_def_cfa_offset 8
 561              		.cfi_offset 4, -8
 562              		.cfi_offset 5, -4
 563              		.loc 1 419 0 discriminator 2
 564 0008 0123     		movs	r3, #1
 565 000a 0377     		strb	r3, [r0, #28]
 420:/home/phong/Documents/thesis/stm32f4/stm-idf/components/stm32f4xx_hal_driver/stm32f4xx_hal_rtc_ex.c **** 
 421:/home/phong/Documents/thesis/stm32f4/stm-idf/components/stm32f4xx_hal_driver/stm32f4xx_hal_rtc_ex.c ****   hrtc->State = HAL_RTC_STATE_BUSY;
 566              		.loc 1 421 0 discriminator 2
 567 000c 0223     		movs	r3, #2
 568 000e 4377     		strb	r3, [r0, #29]
 422:/home/phong/Documents/thesis/stm32f4/stm-idf/components/stm32f4xx_hal_driver/stm32f4xx_hal_rtc_ex.c **** 
 423:/home/phong/Documents/thesis/stm32f4/stm-idf/components/stm32f4xx_hal_driver/stm32f4xx_hal_rtc_ex.c ****   /* Configure the tamper trigger */
 424:/home/phong/Documents/thesis/stm32f4/stm-idf/components/stm32f4xx_hal_driver/stm32f4xx_hal_rtc_ex.c ****   if(sTamper->Trigger != RTC_TAMPERTRIGGER_RISINGEDGE)
 569              		.loc 1 424 0 discriminator 2
 570 0010 8B68     		ldr	r3, [r1, #8]
 571 0012 13B1     		cbz	r3, .L28
 425:/home/phong/Documents/thesis/stm32f4/stm-idf/components/stm32f4xx_hal_driver/stm32f4xx_hal_rtc_ex.c ****   {
 426:/home/phong/Documents/thesis/stm32f4/stm-idf/components/stm32f4xx_hal_driver/stm32f4xx_hal_rtc_ex.c ****     sTamper->Trigger = (uint32_t)(sTamper->Tamper << 1U);
 572              		.loc 1 426 0
 573 0014 0B68     		ldr	r3, [r1]
 574 0016 5B00     		lsls	r3, r3, #1
 575 0018 8B60     		str	r3, [r1, #8]
 576              	.L28:
 427:/home/phong/Documents/thesis/stm32f4/stm-idf/components/stm32f4xx_hal_driver/stm32f4xx_hal_rtc_ex.c ****   }
 428:/home/phong/Documents/thesis/stm32f4/stm-idf/components/stm32f4xx_hal_driver/stm32f4xx_hal_rtc_ex.c **** 
 429:/home/phong/Documents/thesis/stm32f4/stm-idf/components/stm32f4xx_hal_driver/stm32f4xx_hal_rtc_ex.c ****   tmpreg = ((uint32_t)sTamper->Tamper | (uint32_t)sTamper->PinSelection | (uint32_t)sTamper->Trigge
 577              		.loc 1 429 0
 578 001a 0A68     		ldr	r2, [r1]
 579 001c 4B68     		ldr	r3, [r1, #4]
 580 001e 1343     		orrs	r3, r3, r2
 581 0020 8C68     		ldr	r4, [r1, #8]
 582 0022 2343     		orrs	r3, r3, r4
 430:/home/phong/Documents/thesis/stm32f4/stm-idf/components/stm32f4xx_hal_driver/stm32f4xx_hal_rtc_ex.c ****             (uint32_t)sTamper->Filter | (uint32_t)sTamper->SamplingFrequency | (uint32_t)sTamper->P
 583              		.loc 1 430 0
 584 0024 CC68     		ldr	r4, [r1, #12]
 429:/home/phong/Documents/thesis/stm32f4/stm-idf/components/stm32f4xx_hal_driver/stm32f4xx_hal_rtc_ex.c ****             (uint32_t)sTamper->Filter | (uint32_t)sTamper->SamplingFrequency | (uint32_t)sTamper->P
 585              		.loc 1 429 0
 586 0026 2343     		orrs	r3, r3, r4
 587              		.loc 1 430 0
 588 0028 0C69     		ldr	r4, [r1, #16]
 589 002a 2343     		orrs	r3, r3, r4
 590 002c 4C69     		ldr	r4, [r1, #20]
ARM GAS  /tmp/cc17vVDA.s 			page 19


 591 002e 2343     		orrs	r3, r3, r4
 431:/home/phong/Documents/thesis/stm32f4/stm-idf/components/stm32f4xx_hal_driver/stm32f4xx_hal_rtc_ex.c ****             (uint32_t)sTamper->TamperPullUp | sTamper->TimeStampOnTamperDetection);
 592              		.loc 1 431 0
 593 0030 8C69     		ldr	r4, [r1, #24]
 430:/home/phong/Documents/thesis/stm32f4/stm-idf/components/stm32f4xx_hal_driver/stm32f4xx_hal_rtc_ex.c ****             (uint32_t)sTamper->Filter | (uint32_t)sTamper->SamplingFrequency | (uint32_t)sTamper->P
 594              		.loc 1 430 0
 595 0032 2343     		orrs	r3, r3, r4
 596              		.loc 1 431 0
 597 0034 CC69     		ldr	r4, [r1, #28]
 429:/home/phong/Documents/thesis/stm32f4/stm-idf/components/stm32f4xx_hal_driver/stm32f4xx_hal_rtc_ex.c ****             (uint32_t)sTamper->Filter | (uint32_t)sTamper->SamplingFrequency | (uint32_t)sTamper->P
 598              		.loc 1 429 0
 599 0036 2343     		orrs	r3, r3, r4
 600              	.LVL52:
 432:/home/phong/Documents/thesis/stm32f4/stm-idf/components/stm32f4xx_hal_driver/stm32f4xx_hal_rtc_ex.c **** 
 433:/home/phong/Documents/thesis/stm32f4/stm-idf/components/stm32f4xx_hal_driver/stm32f4xx_hal_rtc_ex.c ****   hrtc->Instance->TAFCR &= (uint32_t)~((uint32_t)sTamper->Tamper | (uint32_t)(sTamper->Tamper << 1U
 601              		.loc 1 433 0
 602 0038 0568     		ldr	r5, [r0]
 603 003a 2C6C     		ldr	r4, [r5, #64]
 604 003c 42EA4202 		orr	r2, r2, r2, lsl #1
 434:/home/phong/Documents/thesis/stm32f4/stm-idf/components/stm32f4xx_hal_driver/stm32f4xx_hal_rtc_ex.c ****                                        (uint32_t)RTC_TAFCR_TAMPFREQ | (uint32_t)RTC_TAFCR_TAMPFLT |
 435:/home/phong/Documents/thesis/stm32f4/stm-idf/components/stm32f4xx_hal_driver/stm32f4xx_hal_rtc_ex.c ****                                        (uint32_t)RTC_TAFCR_TAMPPUDIS | (uint32_t)RTC_TAFCR_TAMPINSE
 605              		.loc 1 435 0
 606 0040 42F4FF32 		orr	r2, r2, #130560
 607 0044 42F4C072 		orr	r2, r2, #384
 433:/home/phong/Documents/thesis/stm32f4/stm-idf/components/stm32f4xx_hal_driver/stm32f4xx_hal_rtc_ex.c ****                                        (uint32_t)RTC_TAFCR_TAMPFREQ | (uint32_t)RTC_TAFCR_TAMPFLT |
 608              		.loc 1 433 0
 609 0048 24EA0202 		bic	r2, r4, r2
 610 004c 2A64     		str	r2, [r5, #64]
 436:/home/phong/Documents/thesis/stm32f4/stm-idf/components/stm32f4xx_hal_driver/stm32f4xx_hal_rtc_ex.c **** 
 437:/home/phong/Documents/thesis/stm32f4/stm-idf/components/stm32f4xx_hal_driver/stm32f4xx_hal_rtc_ex.c ****   hrtc->Instance->TAFCR |= tmpreg;
 611              		.loc 1 437 0
 612 004e 0268     		ldr	r2, [r0]
 613 0050 146C     		ldr	r4, [r2, #64]
 614 0052 2343     		orrs	r3, r3, r4
 615              	.LVL53:
 616 0054 1364     		str	r3, [r2, #64]
 438:/home/phong/Documents/thesis/stm32f4/stm-idf/components/stm32f4xx_hal_driver/stm32f4xx_hal_rtc_ex.c **** 
 439:/home/phong/Documents/thesis/stm32f4/stm-idf/components/stm32f4xx_hal_driver/stm32f4xx_hal_rtc_ex.c ****   /* Configure the Tamper Interrupt in the RTC_TAFCR */
 440:/home/phong/Documents/thesis/stm32f4/stm-idf/components/stm32f4xx_hal_driver/stm32f4xx_hal_rtc_ex.c ****   hrtc->Instance->TAFCR |= (uint32_t)RTC_TAFCR_TAMPIE;
 617              		.loc 1 440 0
 618 0056 0268     		ldr	r2, [r0]
 619 0058 136C     		ldr	r3, [r2, #64]
 620 005a 43F00403 		orr	r3, r3, #4
 621 005e 1364     		str	r3, [r2, #64]
 441:/home/phong/Documents/thesis/stm32f4/stm-idf/components/stm32f4xx_hal_driver/stm32f4xx_hal_rtc_ex.c **** 
 442:/home/phong/Documents/thesis/stm32f4/stm-idf/components/stm32f4xx_hal_driver/stm32f4xx_hal_rtc_ex.c ****   if(sTamper->Tamper == RTC_TAMPER_1)
 622              		.loc 1 442 0
 623 0060 0B68     		ldr	r3, [r1]
 624 0062 012B     		cmp	r3, #1
 625 0064 15D0     		beq	.L36
 443:/home/phong/Documents/thesis/stm32f4/stm-idf/components/stm32f4xx_hal_driver/stm32f4xx_hal_rtc_ex.c ****   {
 444:/home/phong/Documents/thesis/stm32f4/stm-idf/components/stm32f4xx_hal_driver/stm32f4xx_hal_rtc_ex.c ****     /* Clear RTC Tamper 1 flag */
 445:/home/phong/Documents/thesis/stm32f4/stm-idf/components/stm32f4xx_hal_driver/stm32f4xx_hal_rtc_ex.c ****     __HAL_RTC_TAMPER_CLEAR_FLAG(hrtc, RTC_FLAG_TAMP1F);
 446:/home/phong/Documents/thesis/stm32f4/stm-idf/components/stm32f4xx_hal_driver/stm32f4xx_hal_rtc_ex.c ****   }
 447:/home/phong/Documents/thesis/stm32f4/stm-idf/components/stm32f4xx_hal_driver/stm32f4xx_hal_rtc_ex.c ****   else
 448:/home/phong/Documents/thesis/stm32f4/stm-idf/components/stm32f4xx_hal_driver/stm32f4xx_hal_rtc_ex.c ****   {
 449:/home/phong/Documents/thesis/stm32f4/stm-idf/components/stm32f4xx_hal_driver/stm32f4xx_hal_rtc_ex.c ****     /* Clear RTC Tamper 2 flag */
ARM GAS  /tmp/cc17vVDA.s 			page 20


 450:/home/phong/Documents/thesis/stm32f4/stm-idf/components/stm32f4xx_hal_driver/stm32f4xx_hal_rtc_ex.c ****     __HAL_RTC_TAMPER_CLEAR_FLAG(hrtc, RTC_FLAG_TAMP2F);
 626              		.loc 1 450 0
 627 0066 0268     		ldr	r2, [r0]
 628 0068 D368     		ldr	r3, [r2, #12]
 629 006a DBB2     		uxtb	r3, r3
 630 006c 63F48143 		orn	r3, r3, #16512
 631 0070 D360     		str	r3, [r2, #12]
 632              	.L30:
 451:/home/phong/Documents/thesis/stm32f4/stm-idf/components/stm32f4xx_hal_driver/stm32f4xx_hal_rtc_ex.c ****   }
 452:/home/phong/Documents/thesis/stm32f4/stm-idf/components/stm32f4xx_hal_driver/stm32f4xx_hal_rtc_ex.c **** 
 453:/home/phong/Documents/thesis/stm32f4/stm-idf/components/stm32f4xx_hal_driver/stm32f4xx_hal_rtc_ex.c ****   /* RTC Tamper Interrupt Configuration: EXTI configuration */
 454:/home/phong/Documents/thesis/stm32f4/stm-idf/components/stm32f4xx_hal_driver/stm32f4xx_hal_rtc_ex.c ****   __HAL_RTC_TAMPER_TIMESTAMP_EXTI_ENABLE_IT();
 633              		.loc 1 454 0
 634 0072 0C4B     		ldr	r3, .L37
 635 0074 1A68     		ldr	r2, [r3]
 636 0076 42F40012 		orr	r2, r2, #2097152
 637 007a 1A60     		str	r2, [r3]
 455:/home/phong/Documents/thesis/stm32f4/stm-idf/components/stm32f4xx_hal_driver/stm32f4xx_hal_rtc_ex.c **** 
 456:/home/phong/Documents/thesis/stm32f4/stm-idf/components/stm32f4xx_hal_driver/stm32f4xx_hal_rtc_ex.c ****   EXTI->RTSR |= RTC_EXTI_LINE_TAMPER_TIMESTAMP_EVENT;
 638              		.loc 1 456 0
 639 007c 9A68     		ldr	r2, [r3, #8]
 640 007e 42F40012 		orr	r2, r2, #2097152
 641 0082 9A60     		str	r2, [r3, #8]
 457:/home/phong/Documents/thesis/stm32f4/stm-idf/components/stm32f4xx_hal_driver/stm32f4xx_hal_rtc_ex.c **** 
 458:/home/phong/Documents/thesis/stm32f4/stm-idf/components/stm32f4xx_hal_driver/stm32f4xx_hal_rtc_ex.c ****   hrtc->State = HAL_RTC_STATE_READY;
 642              		.loc 1 458 0
 643 0084 0123     		movs	r3, #1
 644 0086 4377     		strb	r3, [r0, #29]
 459:/home/phong/Documents/thesis/stm32f4/stm-idf/components/stm32f4xx_hal_driver/stm32f4xx_hal_rtc_ex.c **** 
 460:/home/phong/Documents/thesis/stm32f4/stm-idf/components/stm32f4xx_hal_driver/stm32f4xx_hal_rtc_ex.c ****   /* Process Unlocked */
 461:/home/phong/Documents/thesis/stm32f4/stm-idf/components/stm32f4xx_hal_driver/stm32f4xx_hal_rtc_ex.c ****   __HAL_UNLOCK(hrtc);
 645              		.loc 1 461 0
 646 0088 0023     		movs	r3, #0
 647 008a 0377     		strb	r3, [r0, #28]
 462:/home/phong/Documents/thesis/stm32f4/stm-idf/components/stm32f4xx_hal_driver/stm32f4xx_hal_rtc_ex.c **** 
 463:/home/phong/Documents/thesis/stm32f4/stm-idf/components/stm32f4xx_hal_driver/stm32f4xx_hal_rtc_ex.c ****   return HAL_OK;
 648              		.loc 1 463 0
 649 008c 1846     		mov	r0, r3
 650              	.LVL54:
 464:/home/phong/Documents/thesis/stm32f4/stm-idf/components/stm32f4xx_hal_driver/stm32f4xx_hal_rtc_ex.c **** }
 651              		.loc 1 464 0
 652 008e 30BC     		pop	{r4, r5}
 653              	.LCFI10:
 654              		.cfi_remember_state
 655              		.cfi_restore 5
 656              		.cfi_restore 4
 657              		.cfi_def_cfa_offset 0
 658 0090 7047     		bx	lr
 659              	.LVL55:
 660              	.L36:
 661              	.LCFI11:
 662              		.cfi_restore_state
 445:/home/phong/Documents/thesis/stm32f4/stm-idf/components/stm32f4xx_hal_driver/stm32f4xx_hal_rtc_ex.c ****   }
 663              		.loc 1 445 0
 664 0092 0268     		ldr	r2, [r0]
 665 0094 D368     		ldr	r3, [r2, #12]
 666 0096 DBB2     		uxtb	r3, r3
ARM GAS  /tmp/cc17vVDA.s 			page 21


 667 0098 63F40253 		orn	r3, r3, #8320
 668 009c D360     		str	r3, [r2, #12]
 669 009e E8E7     		b	.L30
 670              	.LVL56:
 671              	.L31:
 672              	.LCFI12:
 673              		.cfi_def_cfa_offset 0
 674              		.cfi_restore 4
 675              		.cfi_restore 5
 419:/home/phong/Documents/thesis/stm32f4/stm-idf/components/stm32f4xx_hal_driver/stm32f4xx_hal_rtc_ex.c **** 
 676              		.loc 1 419 0
 677 00a0 0220     		movs	r0, #2
 678              	.LVL57:
 679 00a2 7047     		bx	lr
 680              	.L38:
 681              		.align	2
 682              	.L37:
 683 00a4 003C0140 		.word	1073822720
 684              		.cfi_endproc
 685              	.LFE135:
 687              		.section	.text.HAL_RTCEx_DeactivateTamper,"ax",%progbits
 688              		.align	1
 689              		.global	HAL_RTCEx_DeactivateTamper
 690              		.syntax unified
 691              		.thumb
 692              		.thumb_func
 693              		.fpu fpv4-sp-d16
 695              	HAL_RTCEx_DeactivateTamper:
 696              	.LFB136:
 465:/home/phong/Documents/thesis/stm32f4/stm-idf/components/stm32f4xx_hal_driver/stm32f4xx_hal_rtc_ex.c **** 
 466:/home/phong/Documents/thesis/stm32f4/stm-idf/components/stm32f4xx_hal_driver/stm32f4xx_hal_rtc_ex.c **** /**
 467:/home/phong/Documents/thesis/stm32f4/stm-idf/components/stm32f4xx_hal_driver/stm32f4xx_hal_rtc_ex.c ****   * @brief  Deactivates Tamper.
 468:/home/phong/Documents/thesis/stm32f4/stm-idf/components/stm32f4xx_hal_driver/stm32f4xx_hal_rtc_ex.c ****   * @param  hrtc pointer to a RTC_HandleTypeDef structure that contains
 469:/home/phong/Documents/thesis/stm32f4/stm-idf/components/stm32f4xx_hal_driver/stm32f4xx_hal_rtc_ex.c ****   *                the configuration information for RTC.
 470:/home/phong/Documents/thesis/stm32f4/stm-idf/components/stm32f4xx_hal_driver/stm32f4xx_hal_rtc_ex.c ****   * @param  Tamper Selected tamper pin.
 471:/home/phong/Documents/thesis/stm32f4/stm-idf/components/stm32f4xx_hal_driver/stm32f4xx_hal_rtc_ex.c ****   *          This parameter can be RTC_Tamper_1 and/or RTC_TAMPER_2.
 472:/home/phong/Documents/thesis/stm32f4/stm-idf/components/stm32f4xx_hal_driver/stm32f4xx_hal_rtc_ex.c ****   * @retval HAL status
 473:/home/phong/Documents/thesis/stm32f4/stm-idf/components/stm32f4xx_hal_driver/stm32f4xx_hal_rtc_ex.c ****   */
 474:/home/phong/Documents/thesis/stm32f4/stm-idf/components/stm32f4xx_hal_driver/stm32f4xx_hal_rtc_ex.c **** HAL_StatusTypeDef HAL_RTCEx_DeactivateTamper(RTC_HandleTypeDef *hrtc, uint32_t Tamper)
 475:/home/phong/Documents/thesis/stm32f4/stm-idf/components/stm32f4xx_hal_driver/stm32f4xx_hal_rtc_ex.c **** {
 697              		.loc 1 475 0
 698              		.cfi_startproc
 699              		@ args = 0, pretend = 0, frame = 0
 700              		@ frame_needed = 0, uses_anonymous_args = 0
 701              		@ link register save eliminated.
 702              	.LVL58:
 476:/home/phong/Documents/thesis/stm32f4/stm-idf/components/stm32f4xx_hal_driver/stm32f4xx_hal_rtc_ex.c ****   assert_param(IS_RTC_TAMPER(Tamper));
 477:/home/phong/Documents/thesis/stm32f4/stm-idf/components/stm32f4xx_hal_driver/stm32f4xx_hal_rtc_ex.c **** 
 478:/home/phong/Documents/thesis/stm32f4/stm-idf/components/stm32f4xx_hal_driver/stm32f4xx_hal_rtc_ex.c ****   /* Process Locked */
 479:/home/phong/Documents/thesis/stm32f4/stm-idf/components/stm32f4xx_hal_driver/stm32f4xx_hal_rtc_ex.c ****   __HAL_LOCK(hrtc);
 703              		.loc 1 479 0
 704 0000 037F     		ldrb	r3, [r0, #28]	@ zero_extendqisi2
 705 0002 012B     		cmp	r3, #1
 706 0004 10D0     		beq	.L41
 475:/home/phong/Documents/thesis/stm32f4/stm-idf/components/stm32f4xx_hal_driver/stm32f4xx_hal_rtc_ex.c ****   assert_param(IS_RTC_TAMPER(Tamper));
 707              		.loc 1 475 0 discriminator 2
 708 0006 10B4     		push	{r4}
ARM GAS  /tmp/cc17vVDA.s 			page 22


 709              	.LCFI13:
 710              		.cfi_def_cfa_offset 4
 711              		.cfi_offset 4, -4
 712              		.loc 1 479 0 discriminator 2
 713 0008 0122     		movs	r2, #1
 714 000a 0277     		strb	r2, [r0, #28]
 480:/home/phong/Documents/thesis/stm32f4/stm-idf/components/stm32f4xx_hal_driver/stm32f4xx_hal_rtc_ex.c **** 
 481:/home/phong/Documents/thesis/stm32f4/stm-idf/components/stm32f4xx_hal_driver/stm32f4xx_hal_rtc_ex.c ****   hrtc->State = HAL_RTC_STATE_BUSY;
 715              		.loc 1 481 0 discriminator 2
 716 000c 0223     		movs	r3, #2
 717 000e 4377     		strb	r3, [r0, #29]
 482:/home/phong/Documents/thesis/stm32f4/stm-idf/components/stm32f4xx_hal_driver/stm32f4xx_hal_rtc_ex.c **** 
 483:/home/phong/Documents/thesis/stm32f4/stm-idf/components/stm32f4xx_hal_driver/stm32f4xx_hal_rtc_ex.c ****   /* Disable the selected Tamper pin */
 484:/home/phong/Documents/thesis/stm32f4/stm-idf/components/stm32f4xx_hal_driver/stm32f4xx_hal_rtc_ex.c ****   hrtc->Instance->TAFCR &= (uint32_t)~Tamper;
 718              		.loc 1 484 0 discriminator 2
 719 0010 0468     		ldr	r4, [r0]
 720 0012 236C     		ldr	r3, [r4, #64]
 721 0014 23EA0101 		bic	r1, r3, r1
 722              	.LVL59:
 723 0018 2164     		str	r1, [r4, #64]
 485:/home/phong/Documents/thesis/stm32f4/stm-idf/components/stm32f4xx_hal_driver/stm32f4xx_hal_rtc_ex.c **** 
 486:/home/phong/Documents/thesis/stm32f4/stm-idf/components/stm32f4xx_hal_driver/stm32f4xx_hal_rtc_ex.c ****   hrtc->State = HAL_RTC_STATE_READY;
 724              		.loc 1 486 0 discriminator 2
 725 001a 4277     		strb	r2, [r0, #29]
 487:/home/phong/Documents/thesis/stm32f4/stm-idf/components/stm32f4xx_hal_driver/stm32f4xx_hal_rtc_ex.c **** 
 488:/home/phong/Documents/thesis/stm32f4/stm-idf/components/stm32f4xx_hal_driver/stm32f4xx_hal_rtc_ex.c ****   /* Process Unlocked */
 489:/home/phong/Documents/thesis/stm32f4/stm-idf/components/stm32f4xx_hal_driver/stm32f4xx_hal_rtc_ex.c ****   __HAL_UNLOCK(hrtc);
 726              		.loc 1 489 0 discriminator 2
 727 001c 0023     		movs	r3, #0
 728 001e 0377     		strb	r3, [r0, #28]
 490:/home/phong/Documents/thesis/stm32f4/stm-idf/components/stm32f4xx_hal_driver/stm32f4xx_hal_rtc_ex.c **** 
 491:/home/phong/Documents/thesis/stm32f4/stm-idf/components/stm32f4xx_hal_driver/stm32f4xx_hal_rtc_ex.c ****   return HAL_OK;
 729              		.loc 1 491 0 discriminator 2
 730 0020 1846     		mov	r0, r3
 731              	.LVL60:
 492:/home/phong/Documents/thesis/stm32f4/stm-idf/components/stm32f4xx_hal_driver/stm32f4xx_hal_rtc_ex.c **** }
 732              		.loc 1 492 0 discriminator 2
 733 0022 5DF8044B 		ldr	r4, [sp], #4
 734              	.LCFI14:
 735              		.cfi_restore 4
 736              		.cfi_def_cfa_offset 0
 737 0026 7047     		bx	lr
 738              	.LVL61:
 739              	.L41:
 479:/home/phong/Documents/thesis/stm32f4/stm-idf/components/stm32f4xx_hal_driver/stm32f4xx_hal_rtc_ex.c **** 
 740              		.loc 1 479 0
 741 0028 0220     		movs	r0, #2
 742              	.LVL62:
 743 002a 7047     		bx	lr
 744              		.cfi_endproc
 745              	.LFE136:
 747              		.section	.text.HAL_RTCEx_TimeStampEventCallback,"ax",%progbits
 748              		.align	1
 749              		.weak	HAL_RTCEx_TimeStampEventCallback
 750              		.syntax unified
 751              		.thumb
 752              		.thumb_func
ARM GAS  /tmp/cc17vVDA.s 			page 23


 753              		.fpu fpv4-sp-d16
 755              	HAL_RTCEx_TimeStampEventCallback:
 756              	.LFB138:
 493:/home/phong/Documents/thesis/stm32f4/stm-idf/components/stm32f4xx_hal_driver/stm32f4xx_hal_rtc_ex.c **** 
 494:/home/phong/Documents/thesis/stm32f4/stm-idf/components/stm32f4xx_hal_driver/stm32f4xx_hal_rtc_ex.c **** /**
 495:/home/phong/Documents/thesis/stm32f4/stm-idf/components/stm32f4xx_hal_driver/stm32f4xx_hal_rtc_ex.c ****   * @brief  This function handles TimeStamp interrupt request.
 496:/home/phong/Documents/thesis/stm32f4/stm-idf/components/stm32f4xx_hal_driver/stm32f4xx_hal_rtc_ex.c ****   * @param  hrtc pointer to a RTC_HandleTypeDef structure that contains
 497:/home/phong/Documents/thesis/stm32f4/stm-idf/components/stm32f4xx_hal_driver/stm32f4xx_hal_rtc_ex.c ****   *                the configuration information for RTC.
 498:/home/phong/Documents/thesis/stm32f4/stm-idf/components/stm32f4xx_hal_driver/stm32f4xx_hal_rtc_ex.c ****   * @retval None
 499:/home/phong/Documents/thesis/stm32f4/stm-idf/components/stm32f4xx_hal_driver/stm32f4xx_hal_rtc_ex.c ****   */
 500:/home/phong/Documents/thesis/stm32f4/stm-idf/components/stm32f4xx_hal_driver/stm32f4xx_hal_rtc_ex.c **** void HAL_RTCEx_TamperTimeStampIRQHandler(RTC_HandleTypeDef *hrtc)
 501:/home/phong/Documents/thesis/stm32f4/stm-idf/components/stm32f4xx_hal_driver/stm32f4xx_hal_rtc_ex.c **** {
 502:/home/phong/Documents/thesis/stm32f4/stm-idf/components/stm32f4xx_hal_driver/stm32f4xx_hal_rtc_ex.c ****   /* Get the TimeStamp interrupt source enable status */
 503:/home/phong/Documents/thesis/stm32f4/stm-idf/components/stm32f4xx_hal_driver/stm32f4xx_hal_rtc_ex.c ****   if(__HAL_RTC_TIMESTAMP_GET_IT_SOURCE(hrtc, RTC_IT_TS) != (uint32_t)RESET)
 504:/home/phong/Documents/thesis/stm32f4/stm-idf/components/stm32f4xx_hal_driver/stm32f4xx_hal_rtc_ex.c ****   {
 505:/home/phong/Documents/thesis/stm32f4/stm-idf/components/stm32f4xx_hal_driver/stm32f4xx_hal_rtc_ex.c ****     /* Get the pending status of the TIMESTAMP Interrupt */
 506:/home/phong/Documents/thesis/stm32f4/stm-idf/components/stm32f4xx_hal_driver/stm32f4xx_hal_rtc_ex.c ****     if(__HAL_RTC_TIMESTAMP_GET_FLAG(hrtc, RTC_FLAG_TSF) != (uint32_t)RESET)
 507:/home/phong/Documents/thesis/stm32f4/stm-idf/components/stm32f4xx_hal_driver/stm32f4xx_hal_rtc_ex.c ****     {
 508:/home/phong/Documents/thesis/stm32f4/stm-idf/components/stm32f4xx_hal_driver/stm32f4xx_hal_rtc_ex.c ****       /* TIMESTAMP callback */
 509:/home/phong/Documents/thesis/stm32f4/stm-idf/components/stm32f4xx_hal_driver/stm32f4xx_hal_rtc_ex.c **** #if (USE_HAL_RTC_REGISTER_CALLBACKS == 1)
 510:/home/phong/Documents/thesis/stm32f4/stm-idf/components/stm32f4xx_hal_driver/stm32f4xx_hal_rtc_ex.c ****       hrtc->TimeStampEventCallback(hrtc);
 511:/home/phong/Documents/thesis/stm32f4/stm-idf/components/stm32f4xx_hal_driver/stm32f4xx_hal_rtc_ex.c **** #else
 512:/home/phong/Documents/thesis/stm32f4/stm-idf/components/stm32f4xx_hal_driver/stm32f4xx_hal_rtc_ex.c ****       HAL_RTCEx_TimeStampEventCallback(hrtc);
 513:/home/phong/Documents/thesis/stm32f4/stm-idf/components/stm32f4xx_hal_driver/stm32f4xx_hal_rtc_ex.c **** #endif /* USE_HAL_RTC_REGISTER_CALLBACKS */
 514:/home/phong/Documents/thesis/stm32f4/stm-idf/components/stm32f4xx_hal_driver/stm32f4xx_hal_rtc_ex.c **** 
 515:/home/phong/Documents/thesis/stm32f4/stm-idf/components/stm32f4xx_hal_driver/stm32f4xx_hal_rtc_ex.c ****       /* Clear the TIMESTAMP interrupt pending bit */
 516:/home/phong/Documents/thesis/stm32f4/stm-idf/components/stm32f4xx_hal_driver/stm32f4xx_hal_rtc_ex.c ****       __HAL_RTC_TIMESTAMP_CLEAR_FLAG(hrtc,RTC_FLAG_TSF);
 517:/home/phong/Documents/thesis/stm32f4/stm-idf/components/stm32f4xx_hal_driver/stm32f4xx_hal_rtc_ex.c ****     }
 518:/home/phong/Documents/thesis/stm32f4/stm-idf/components/stm32f4xx_hal_driver/stm32f4xx_hal_rtc_ex.c ****   }
 519:/home/phong/Documents/thesis/stm32f4/stm-idf/components/stm32f4xx_hal_driver/stm32f4xx_hal_rtc_ex.c **** 
 520:/home/phong/Documents/thesis/stm32f4/stm-idf/components/stm32f4xx_hal_driver/stm32f4xx_hal_rtc_ex.c ****   /* Get the Tamper1 interrupt source enable status */
 521:/home/phong/Documents/thesis/stm32f4/stm-idf/components/stm32f4xx_hal_driver/stm32f4xx_hal_rtc_ex.c ****   if(__HAL_RTC_TAMPER_GET_IT_SOURCE(hrtc, RTC_IT_TAMP) != (uint32_t)RESET)
 522:/home/phong/Documents/thesis/stm32f4/stm-idf/components/stm32f4xx_hal_driver/stm32f4xx_hal_rtc_ex.c ****   {
 523:/home/phong/Documents/thesis/stm32f4/stm-idf/components/stm32f4xx_hal_driver/stm32f4xx_hal_rtc_ex.c ****     /* Get the pending status of the Tamper1 Interrupt */
 524:/home/phong/Documents/thesis/stm32f4/stm-idf/components/stm32f4xx_hal_driver/stm32f4xx_hal_rtc_ex.c ****     if(__HAL_RTC_TAMPER_GET_FLAG(hrtc, RTC_FLAG_TAMP1F) != (uint32_t)RESET)
 525:/home/phong/Documents/thesis/stm32f4/stm-idf/components/stm32f4xx_hal_driver/stm32f4xx_hal_rtc_ex.c ****     {
 526:/home/phong/Documents/thesis/stm32f4/stm-idf/components/stm32f4xx_hal_driver/stm32f4xx_hal_rtc_ex.c ****       /* Tamper callback */
 527:/home/phong/Documents/thesis/stm32f4/stm-idf/components/stm32f4xx_hal_driver/stm32f4xx_hal_rtc_ex.c **** #if (USE_HAL_RTC_REGISTER_CALLBACKS == 1)
 528:/home/phong/Documents/thesis/stm32f4/stm-idf/components/stm32f4xx_hal_driver/stm32f4xx_hal_rtc_ex.c ****       hrtc->Tamper1EventCallback(hrtc);
 529:/home/phong/Documents/thesis/stm32f4/stm-idf/components/stm32f4xx_hal_driver/stm32f4xx_hal_rtc_ex.c **** #else
 530:/home/phong/Documents/thesis/stm32f4/stm-idf/components/stm32f4xx_hal_driver/stm32f4xx_hal_rtc_ex.c ****       HAL_RTCEx_Tamper1EventCallback(hrtc);
 531:/home/phong/Documents/thesis/stm32f4/stm-idf/components/stm32f4xx_hal_driver/stm32f4xx_hal_rtc_ex.c **** #endif /* USE_HAL_RTC_REGISTER_CALLBACKS */
 532:/home/phong/Documents/thesis/stm32f4/stm-idf/components/stm32f4xx_hal_driver/stm32f4xx_hal_rtc_ex.c **** 
 533:/home/phong/Documents/thesis/stm32f4/stm-idf/components/stm32f4xx_hal_driver/stm32f4xx_hal_rtc_ex.c ****       /* Clear the Tamper interrupt pending bit */
 534:/home/phong/Documents/thesis/stm32f4/stm-idf/components/stm32f4xx_hal_driver/stm32f4xx_hal_rtc_ex.c ****       __HAL_RTC_TAMPER_CLEAR_FLAG(hrtc,RTC_FLAG_TAMP1F);
 535:/home/phong/Documents/thesis/stm32f4/stm-idf/components/stm32f4xx_hal_driver/stm32f4xx_hal_rtc_ex.c ****     }
 536:/home/phong/Documents/thesis/stm32f4/stm-idf/components/stm32f4xx_hal_driver/stm32f4xx_hal_rtc_ex.c ****   }
 537:/home/phong/Documents/thesis/stm32f4/stm-idf/components/stm32f4xx_hal_driver/stm32f4xx_hal_rtc_ex.c **** 
 538:/home/phong/Documents/thesis/stm32f4/stm-idf/components/stm32f4xx_hal_driver/stm32f4xx_hal_rtc_ex.c ****   /* Get the Tamper2 interrupt source enable status */
 539:/home/phong/Documents/thesis/stm32f4/stm-idf/components/stm32f4xx_hal_driver/stm32f4xx_hal_rtc_ex.c ****   if(__HAL_RTC_TAMPER_GET_IT_SOURCE(hrtc, RTC_IT_TAMP) != (uint32_t)RESET)
 540:/home/phong/Documents/thesis/stm32f4/stm-idf/components/stm32f4xx_hal_driver/stm32f4xx_hal_rtc_ex.c ****   {
 541:/home/phong/Documents/thesis/stm32f4/stm-idf/components/stm32f4xx_hal_driver/stm32f4xx_hal_rtc_ex.c ****     /* Get the pending status of the Tamper2 Interrupt */
 542:/home/phong/Documents/thesis/stm32f4/stm-idf/components/stm32f4xx_hal_driver/stm32f4xx_hal_rtc_ex.c ****     if(__HAL_RTC_TAMPER_GET_FLAG(hrtc, RTC_FLAG_TAMP2F) != (uint32_t)RESET)
 543:/home/phong/Documents/thesis/stm32f4/stm-idf/components/stm32f4xx_hal_driver/stm32f4xx_hal_rtc_ex.c ****     {
 544:/home/phong/Documents/thesis/stm32f4/stm-idf/components/stm32f4xx_hal_driver/stm32f4xx_hal_rtc_ex.c ****       /* Tamper callback */
 545:/home/phong/Documents/thesis/stm32f4/stm-idf/components/stm32f4xx_hal_driver/stm32f4xx_hal_rtc_ex.c **** #if (USE_HAL_RTC_REGISTER_CALLBACKS == 1)
 546:/home/phong/Documents/thesis/stm32f4/stm-idf/components/stm32f4xx_hal_driver/stm32f4xx_hal_rtc_ex.c ****       hrtc->Tamper2EventCallback(hrtc);
ARM GAS  /tmp/cc17vVDA.s 			page 24


 547:/home/phong/Documents/thesis/stm32f4/stm-idf/components/stm32f4xx_hal_driver/stm32f4xx_hal_rtc_ex.c **** #else
 548:/home/phong/Documents/thesis/stm32f4/stm-idf/components/stm32f4xx_hal_driver/stm32f4xx_hal_rtc_ex.c ****       HAL_RTCEx_Tamper2EventCallback(hrtc);
 549:/home/phong/Documents/thesis/stm32f4/stm-idf/components/stm32f4xx_hal_driver/stm32f4xx_hal_rtc_ex.c **** #endif /* USE_HAL_RTC_REGISTER_CALLBACKS */
 550:/home/phong/Documents/thesis/stm32f4/stm-idf/components/stm32f4xx_hal_driver/stm32f4xx_hal_rtc_ex.c **** 
 551:/home/phong/Documents/thesis/stm32f4/stm-idf/components/stm32f4xx_hal_driver/stm32f4xx_hal_rtc_ex.c ****       /* Clear the Tamper interrupt pending bit */
 552:/home/phong/Documents/thesis/stm32f4/stm-idf/components/stm32f4xx_hal_driver/stm32f4xx_hal_rtc_ex.c ****       __HAL_RTC_TAMPER_CLEAR_FLAG(hrtc, RTC_FLAG_TAMP2F);
 553:/home/phong/Documents/thesis/stm32f4/stm-idf/components/stm32f4xx_hal_driver/stm32f4xx_hal_rtc_ex.c ****     }
 554:/home/phong/Documents/thesis/stm32f4/stm-idf/components/stm32f4xx_hal_driver/stm32f4xx_hal_rtc_ex.c ****   }
 555:/home/phong/Documents/thesis/stm32f4/stm-idf/components/stm32f4xx_hal_driver/stm32f4xx_hal_rtc_ex.c **** 
 556:/home/phong/Documents/thesis/stm32f4/stm-idf/components/stm32f4xx_hal_driver/stm32f4xx_hal_rtc_ex.c ****   /* Clear the EXTI's Flag for RTC TimeStamp and Tamper */
 557:/home/phong/Documents/thesis/stm32f4/stm-idf/components/stm32f4xx_hal_driver/stm32f4xx_hal_rtc_ex.c ****   __HAL_RTC_TAMPER_TIMESTAMP_EXTI_CLEAR_FLAG();
 558:/home/phong/Documents/thesis/stm32f4/stm-idf/components/stm32f4xx_hal_driver/stm32f4xx_hal_rtc_ex.c **** 
 559:/home/phong/Documents/thesis/stm32f4/stm-idf/components/stm32f4xx_hal_driver/stm32f4xx_hal_rtc_ex.c ****   /* Change RTC state */
 560:/home/phong/Documents/thesis/stm32f4/stm-idf/components/stm32f4xx_hal_driver/stm32f4xx_hal_rtc_ex.c ****   hrtc->State = HAL_RTC_STATE_READY;
 561:/home/phong/Documents/thesis/stm32f4/stm-idf/components/stm32f4xx_hal_driver/stm32f4xx_hal_rtc_ex.c **** }
 562:/home/phong/Documents/thesis/stm32f4/stm-idf/components/stm32f4xx_hal_driver/stm32f4xx_hal_rtc_ex.c **** 
 563:/home/phong/Documents/thesis/stm32f4/stm-idf/components/stm32f4xx_hal_driver/stm32f4xx_hal_rtc_ex.c **** /**
 564:/home/phong/Documents/thesis/stm32f4/stm-idf/components/stm32f4xx_hal_driver/stm32f4xx_hal_rtc_ex.c ****   * @brief  TimeStamp callback.
 565:/home/phong/Documents/thesis/stm32f4/stm-idf/components/stm32f4xx_hal_driver/stm32f4xx_hal_rtc_ex.c ****   * @param  hrtc pointer to a RTC_HandleTypeDef structure that contains
 566:/home/phong/Documents/thesis/stm32f4/stm-idf/components/stm32f4xx_hal_driver/stm32f4xx_hal_rtc_ex.c ****   *                the configuration information for RTC.
 567:/home/phong/Documents/thesis/stm32f4/stm-idf/components/stm32f4xx_hal_driver/stm32f4xx_hal_rtc_ex.c ****   * @retval None
 568:/home/phong/Documents/thesis/stm32f4/stm-idf/components/stm32f4xx_hal_driver/stm32f4xx_hal_rtc_ex.c ****   */
 569:/home/phong/Documents/thesis/stm32f4/stm-idf/components/stm32f4xx_hal_driver/stm32f4xx_hal_rtc_ex.c **** __weak void HAL_RTCEx_TimeStampEventCallback(RTC_HandleTypeDef *hrtc)
 570:/home/phong/Documents/thesis/stm32f4/stm-idf/components/stm32f4xx_hal_driver/stm32f4xx_hal_rtc_ex.c **** {
 757              		.loc 1 570 0
 758              		.cfi_startproc
 759              		@ args = 0, pretend = 0, frame = 0
 760              		@ frame_needed = 0, uses_anonymous_args = 0
 761              		@ link register save eliminated.
 762              	.LVL63:
 763 0000 7047     		bx	lr
 764              		.cfi_endproc
 765              	.LFE138:
 767              		.section	.text.HAL_RTCEx_Tamper1EventCallback,"ax",%progbits
 768              		.align	1
 769              		.weak	HAL_RTCEx_Tamper1EventCallback
 770              		.syntax unified
 771              		.thumb
 772              		.thumb_func
 773              		.fpu fpv4-sp-d16
 775              	HAL_RTCEx_Tamper1EventCallback:
 776              	.LFB139:
 571:/home/phong/Documents/thesis/stm32f4/stm-idf/components/stm32f4xx_hal_driver/stm32f4xx_hal_rtc_ex.c ****   /* Prevent unused argument(s) compilation warning */
 572:/home/phong/Documents/thesis/stm32f4/stm-idf/components/stm32f4xx_hal_driver/stm32f4xx_hal_rtc_ex.c ****   UNUSED(hrtc);
 573:/home/phong/Documents/thesis/stm32f4/stm-idf/components/stm32f4xx_hal_driver/stm32f4xx_hal_rtc_ex.c ****   /* NOTE : This function Should not be modified, when the callback is needed,
 574:/home/phong/Documents/thesis/stm32f4/stm-idf/components/stm32f4xx_hal_driver/stm32f4xx_hal_rtc_ex.c ****             the HAL_RTC_TimeStampEventCallback could be implemented in the user file
 575:/home/phong/Documents/thesis/stm32f4/stm-idf/components/stm32f4xx_hal_driver/stm32f4xx_hal_rtc_ex.c ****   */
 576:/home/phong/Documents/thesis/stm32f4/stm-idf/components/stm32f4xx_hal_driver/stm32f4xx_hal_rtc_ex.c **** }
 577:/home/phong/Documents/thesis/stm32f4/stm-idf/components/stm32f4xx_hal_driver/stm32f4xx_hal_rtc_ex.c **** 
 578:/home/phong/Documents/thesis/stm32f4/stm-idf/components/stm32f4xx_hal_driver/stm32f4xx_hal_rtc_ex.c **** /**
 579:/home/phong/Documents/thesis/stm32f4/stm-idf/components/stm32f4xx_hal_driver/stm32f4xx_hal_rtc_ex.c ****   * @brief  Tamper 1 callback.
 580:/home/phong/Documents/thesis/stm32f4/stm-idf/components/stm32f4xx_hal_driver/stm32f4xx_hal_rtc_ex.c ****   * @param  hrtc pointer to a RTC_HandleTypeDef structure that contains
 581:/home/phong/Documents/thesis/stm32f4/stm-idf/components/stm32f4xx_hal_driver/stm32f4xx_hal_rtc_ex.c ****   *                the configuration information for RTC.
 582:/home/phong/Documents/thesis/stm32f4/stm-idf/components/stm32f4xx_hal_driver/stm32f4xx_hal_rtc_ex.c ****   * @retval None
 583:/home/phong/Documents/thesis/stm32f4/stm-idf/components/stm32f4xx_hal_driver/stm32f4xx_hal_rtc_ex.c ****   */
 584:/home/phong/Documents/thesis/stm32f4/stm-idf/components/stm32f4xx_hal_driver/stm32f4xx_hal_rtc_ex.c **** __weak void HAL_RTCEx_Tamper1EventCallback(RTC_HandleTypeDef *hrtc)
 585:/home/phong/Documents/thesis/stm32f4/stm-idf/components/stm32f4xx_hal_driver/stm32f4xx_hal_rtc_ex.c **** {
ARM GAS  /tmp/cc17vVDA.s 			page 25


 777              		.loc 1 585 0
 778              		.cfi_startproc
 779              		@ args = 0, pretend = 0, frame = 0
 780              		@ frame_needed = 0, uses_anonymous_args = 0
 781              		@ link register save eliminated.
 782              	.LVL64:
 783 0000 7047     		bx	lr
 784              		.cfi_endproc
 785              	.LFE139:
 787              		.section	.text.HAL_RTCEx_Tamper2EventCallback,"ax",%progbits
 788              		.align	1
 789              		.weak	HAL_RTCEx_Tamper2EventCallback
 790              		.syntax unified
 791              		.thumb
 792              		.thumb_func
 793              		.fpu fpv4-sp-d16
 795              	HAL_RTCEx_Tamper2EventCallback:
 796              	.LFB140:
 586:/home/phong/Documents/thesis/stm32f4/stm-idf/components/stm32f4xx_hal_driver/stm32f4xx_hal_rtc_ex.c ****   /* Prevent unused argument(s) compilation warning */
 587:/home/phong/Documents/thesis/stm32f4/stm-idf/components/stm32f4xx_hal_driver/stm32f4xx_hal_rtc_ex.c ****   UNUSED(hrtc);
 588:/home/phong/Documents/thesis/stm32f4/stm-idf/components/stm32f4xx_hal_driver/stm32f4xx_hal_rtc_ex.c ****   /* NOTE : This function Should not be modified, when the callback is needed,
 589:/home/phong/Documents/thesis/stm32f4/stm-idf/components/stm32f4xx_hal_driver/stm32f4xx_hal_rtc_ex.c ****             the HAL_RTC_Tamper1EventCallback could be implemented in the user file
 590:/home/phong/Documents/thesis/stm32f4/stm-idf/components/stm32f4xx_hal_driver/stm32f4xx_hal_rtc_ex.c ****    */
 591:/home/phong/Documents/thesis/stm32f4/stm-idf/components/stm32f4xx_hal_driver/stm32f4xx_hal_rtc_ex.c **** }
 592:/home/phong/Documents/thesis/stm32f4/stm-idf/components/stm32f4xx_hal_driver/stm32f4xx_hal_rtc_ex.c **** 
 593:/home/phong/Documents/thesis/stm32f4/stm-idf/components/stm32f4xx_hal_driver/stm32f4xx_hal_rtc_ex.c **** /**
 594:/home/phong/Documents/thesis/stm32f4/stm-idf/components/stm32f4xx_hal_driver/stm32f4xx_hal_rtc_ex.c ****   * @brief  Tamper 2 callback.
 595:/home/phong/Documents/thesis/stm32f4/stm-idf/components/stm32f4xx_hal_driver/stm32f4xx_hal_rtc_ex.c ****   * @param  hrtc pointer to a RTC_HandleTypeDef structure that contains
 596:/home/phong/Documents/thesis/stm32f4/stm-idf/components/stm32f4xx_hal_driver/stm32f4xx_hal_rtc_ex.c ****   *                the configuration information for RTC.
 597:/home/phong/Documents/thesis/stm32f4/stm-idf/components/stm32f4xx_hal_driver/stm32f4xx_hal_rtc_ex.c ****   * @retval None
 598:/home/phong/Documents/thesis/stm32f4/stm-idf/components/stm32f4xx_hal_driver/stm32f4xx_hal_rtc_ex.c ****   */
 599:/home/phong/Documents/thesis/stm32f4/stm-idf/components/stm32f4xx_hal_driver/stm32f4xx_hal_rtc_ex.c **** __weak void HAL_RTCEx_Tamper2EventCallback(RTC_HandleTypeDef *hrtc)
 600:/home/phong/Documents/thesis/stm32f4/stm-idf/components/stm32f4xx_hal_driver/stm32f4xx_hal_rtc_ex.c **** {
 797              		.loc 1 600 0
 798              		.cfi_startproc
 799              		@ args = 0, pretend = 0, frame = 0
 800              		@ frame_needed = 0, uses_anonymous_args = 0
 801              		@ link register save eliminated.
 802              	.LVL65:
 803 0000 7047     		bx	lr
 804              		.cfi_endproc
 805              	.LFE140:
 807              		.section	.text.HAL_RTCEx_TamperTimeStampIRQHandler,"ax",%progbits
 808              		.align	1
 809              		.global	HAL_RTCEx_TamperTimeStampIRQHandler
 810              		.syntax unified
 811              		.thumb
 812              		.thumb_func
 813              		.fpu fpv4-sp-d16
 815              	HAL_RTCEx_TamperTimeStampIRQHandler:
 816              	.LFB137:
 501:/home/phong/Documents/thesis/stm32f4/stm-idf/components/stm32f4xx_hal_driver/stm32f4xx_hal_rtc_ex.c ****   /* Get the TimeStamp interrupt source enable status */
 817              		.loc 1 501 0
 818              		.cfi_startproc
 819              		@ args = 0, pretend = 0, frame = 0
 820              		@ frame_needed = 0, uses_anonymous_args = 0
 821              	.LVL66:
ARM GAS  /tmp/cc17vVDA.s 			page 26


 501:/home/phong/Documents/thesis/stm32f4/stm-idf/components/stm32f4xx_hal_driver/stm32f4xx_hal_rtc_ex.c ****   /* Get the TimeStamp interrupt source enable status */
 822              		.loc 1 501 0
 823 0000 10B5     		push	{r4, lr}
 824              	.LCFI15:
 825              		.cfi_def_cfa_offset 8
 826              		.cfi_offset 4, -8
 827              		.cfi_offset 14, -4
 828 0002 0446     		mov	r4, r0
 503:/home/phong/Documents/thesis/stm32f4/stm-idf/components/stm32f4xx_hal_driver/stm32f4xx_hal_rtc_ex.c ****   {
 829              		.loc 1 503 0
 830 0004 0368     		ldr	r3, [r0]
 831 0006 9A68     		ldr	r2, [r3, #8]
 832 0008 12F4004F 		tst	r2, #32768
 833 000c 03D0     		beq	.L50
 506:/home/phong/Documents/thesis/stm32f4/stm-idf/components/stm32f4xx_hal_driver/stm32f4xx_hal_rtc_ex.c ****     {
 834              		.loc 1 506 0
 835 000e DB68     		ldr	r3, [r3, #12]
 836 0010 13F4006F 		tst	r3, #2048
 837 0014 18D1     		bne	.L54
 838              	.LVL67:
 839              	.L50:
 521:/home/phong/Documents/thesis/stm32f4/stm-idf/components/stm32f4xx_hal_driver/stm32f4xx_hal_rtc_ex.c ****   {
 840              		.loc 1 521 0
 841 0016 2368     		ldr	r3, [r4]
 842 0018 1A6C     		ldr	r2, [r3, #64]
 843 001a 12F0040F 		tst	r2, #4
 844 001e 03D0     		beq	.L51
 524:/home/phong/Documents/thesis/stm32f4/stm-idf/components/stm32f4xx_hal_driver/stm32f4xx_hal_rtc_ex.c ****     {
 845              		.loc 1 524 0
 846 0020 DB68     		ldr	r3, [r3, #12]
 847 0022 13F4005F 		tst	r3, #8192
 848 0026 18D1     		bne	.L55
 849              	.L51:
 539:/home/phong/Documents/thesis/stm32f4/stm-idf/components/stm32f4xx_hal_driver/stm32f4xx_hal_rtc_ex.c ****   {
 850              		.loc 1 539 0
 851 0028 2368     		ldr	r3, [r4]
 852 002a 1A6C     		ldr	r2, [r3, #64]
 853 002c 12F0040F 		tst	r2, #4
 854 0030 03D0     		beq	.L52
 542:/home/phong/Documents/thesis/stm32f4/stm-idf/components/stm32f4xx_hal_driver/stm32f4xx_hal_rtc_ex.c ****     {
 855              		.loc 1 542 0
 856 0032 DB68     		ldr	r3, [r3, #12]
 857 0034 13F4804F 		tst	r3, #16384
 858 0038 19D1     		bne	.L56
 859              	.L52:
 557:/home/phong/Documents/thesis/stm32f4/stm-idf/components/stm32f4xx_hal_driver/stm32f4xx_hal_rtc_ex.c **** 
 860              		.loc 1 557 0
 861 003a 4FF40012 		mov	r2, #2097152
 862 003e 114B     		ldr	r3, .L57
 863 0040 5A61     		str	r2, [r3, #20]
 560:/home/phong/Documents/thesis/stm32f4/stm-idf/components/stm32f4xx_hal_driver/stm32f4xx_hal_rtc_ex.c **** }
 864              		.loc 1 560 0
 865 0042 0123     		movs	r3, #1
 866 0044 6377     		strb	r3, [r4, #29]
 867 0046 10BD     		pop	{r4, pc}
 868              	.LVL68:
 869              	.L54:
ARM GAS  /tmp/cc17vVDA.s 			page 27


 512:/home/phong/Documents/thesis/stm32f4/stm-idf/components/stm32f4xx_hal_driver/stm32f4xx_hal_rtc_ex.c **** #endif /* USE_HAL_RTC_REGISTER_CALLBACKS */
 870              		.loc 1 512 0
 871 0048 FFF7FEFF 		bl	HAL_RTCEx_TimeStampEventCallback
 872              	.LVL69:
 516:/home/phong/Documents/thesis/stm32f4/stm-idf/components/stm32f4xx_hal_driver/stm32f4xx_hal_rtc_ex.c ****     }
 873              		.loc 1 516 0
 874 004c 2268     		ldr	r2, [r4]
 875 004e D368     		ldr	r3, [r2, #12]
 876 0050 DBB2     		uxtb	r3, r3
 877 0052 63F40863 		orn	r3, r3, #2176
 878 0056 D360     		str	r3, [r2, #12]
 879 0058 DDE7     		b	.L50
 880              	.L55:
 530:/home/phong/Documents/thesis/stm32f4/stm-idf/components/stm32f4xx_hal_driver/stm32f4xx_hal_rtc_ex.c **** #endif /* USE_HAL_RTC_REGISTER_CALLBACKS */
 881              		.loc 1 530 0
 882 005a 2046     		mov	r0, r4
 883 005c FFF7FEFF 		bl	HAL_RTCEx_Tamper1EventCallback
 884              	.LVL70:
 534:/home/phong/Documents/thesis/stm32f4/stm-idf/components/stm32f4xx_hal_driver/stm32f4xx_hal_rtc_ex.c ****     }
 885              		.loc 1 534 0
 886 0060 2268     		ldr	r2, [r4]
 887 0062 D368     		ldr	r3, [r2, #12]
 888 0064 DBB2     		uxtb	r3, r3
 889 0066 63F40253 		orn	r3, r3, #8320
 890 006a D360     		str	r3, [r2, #12]
 891 006c DCE7     		b	.L51
 892              	.L56:
 548:/home/phong/Documents/thesis/stm32f4/stm-idf/components/stm32f4xx_hal_driver/stm32f4xx_hal_rtc_ex.c **** #endif /* USE_HAL_RTC_REGISTER_CALLBACKS */
 893              		.loc 1 548 0
 894 006e 2046     		mov	r0, r4
 895 0070 FFF7FEFF 		bl	HAL_RTCEx_Tamper2EventCallback
 896              	.LVL71:
 552:/home/phong/Documents/thesis/stm32f4/stm-idf/components/stm32f4xx_hal_driver/stm32f4xx_hal_rtc_ex.c ****     }
 897              		.loc 1 552 0
 898 0074 2268     		ldr	r2, [r4]
 899 0076 D368     		ldr	r3, [r2, #12]
 900 0078 DBB2     		uxtb	r3, r3
 901 007a 63F48143 		orn	r3, r3, #16512
 902 007e D360     		str	r3, [r2, #12]
 903 0080 DBE7     		b	.L52
 904              	.L58:
 905 0082 00BF     		.align	2
 906              	.L57:
 907 0084 003C0140 		.word	1073822720
 908              		.cfi_endproc
 909              	.LFE137:
 911              		.section	.text.HAL_RTCEx_PollForTimeStampEvent,"ax",%progbits
 912              		.align	1
 913              		.global	HAL_RTCEx_PollForTimeStampEvent
 914              		.syntax unified
 915              		.thumb
 916              		.thumb_func
 917              		.fpu fpv4-sp-d16
 919              	HAL_RTCEx_PollForTimeStampEvent:
 920              	.LFB141:
 601:/home/phong/Documents/thesis/stm32f4/stm-idf/components/stm32f4xx_hal_driver/stm32f4xx_hal_rtc_ex.c ****   /* Prevent unused argument(s) compilation warning */
 602:/home/phong/Documents/thesis/stm32f4/stm-idf/components/stm32f4xx_hal_driver/stm32f4xx_hal_rtc_ex.c ****   UNUSED(hrtc);
ARM GAS  /tmp/cc17vVDA.s 			page 28


 603:/home/phong/Documents/thesis/stm32f4/stm-idf/components/stm32f4xx_hal_driver/stm32f4xx_hal_rtc_ex.c ****   /* NOTE : This function Should not be modified, when the callback is needed,
 604:/home/phong/Documents/thesis/stm32f4/stm-idf/components/stm32f4xx_hal_driver/stm32f4xx_hal_rtc_ex.c ****             the HAL_RTC_Tamper2EventCallback could be implemented in the user file
 605:/home/phong/Documents/thesis/stm32f4/stm-idf/components/stm32f4xx_hal_driver/stm32f4xx_hal_rtc_ex.c ****    */
 606:/home/phong/Documents/thesis/stm32f4/stm-idf/components/stm32f4xx_hal_driver/stm32f4xx_hal_rtc_ex.c **** }
 607:/home/phong/Documents/thesis/stm32f4/stm-idf/components/stm32f4xx_hal_driver/stm32f4xx_hal_rtc_ex.c **** 
 608:/home/phong/Documents/thesis/stm32f4/stm-idf/components/stm32f4xx_hal_driver/stm32f4xx_hal_rtc_ex.c **** /**
 609:/home/phong/Documents/thesis/stm32f4/stm-idf/components/stm32f4xx_hal_driver/stm32f4xx_hal_rtc_ex.c ****   * @brief  This function handles TimeStamp polling request.
 610:/home/phong/Documents/thesis/stm32f4/stm-idf/components/stm32f4xx_hal_driver/stm32f4xx_hal_rtc_ex.c ****   * @param  hrtc pointer to a RTC_HandleTypeDef structure that contains
 611:/home/phong/Documents/thesis/stm32f4/stm-idf/components/stm32f4xx_hal_driver/stm32f4xx_hal_rtc_ex.c ****   *                the configuration information for RTC.
 612:/home/phong/Documents/thesis/stm32f4/stm-idf/components/stm32f4xx_hal_driver/stm32f4xx_hal_rtc_ex.c ****   * @param  Timeout Timeout duration
 613:/home/phong/Documents/thesis/stm32f4/stm-idf/components/stm32f4xx_hal_driver/stm32f4xx_hal_rtc_ex.c ****   * @retval HAL status
 614:/home/phong/Documents/thesis/stm32f4/stm-idf/components/stm32f4xx_hal_driver/stm32f4xx_hal_rtc_ex.c ****   */
 615:/home/phong/Documents/thesis/stm32f4/stm-idf/components/stm32f4xx_hal_driver/stm32f4xx_hal_rtc_ex.c **** HAL_StatusTypeDef HAL_RTCEx_PollForTimeStampEvent(RTC_HandleTypeDef *hrtc, uint32_t Timeout)
 616:/home/phong/Documents/thesis/stm32f4/stm-idf/components/stm32f4xx_hal_driver/stm32f4xx_hal_rtc_ex.c **** {
 921              		.loc 1 616 0
 922              		.cfi_startproc
 923              		@ args = 0, pretend = 0, frame = 0
 924              		@ frame_needed = 0, uses_anonymous_args = 0
 925              	.LVL72:
 926 0000 70B5     		push	{r4, r5, r6, lr}
 927              	.LCFI16:
 928              		.cfi_def_cfa_offset 16
 929              		.cfi_offset 4, -16
 930              		.cfi_offset 5, -12
 931              		.cfi_offset 6, -8
 932              		.cfi_offset 14, -4
 933 0002 0446     		mov	r4, r0
 934 0004 0D46     		mov	r5, r1
 935              	.LVL73:
 617:/home/phong/Documents/thesis/stm32f4/stm-idf/components/stm32f4xx_hal_driver/stm32f4xx_hal_rtc_ex.c ****   uint32_t tickstart = 0U;
 618:/home/phong/Documents/thesis/stm32f4/stm-idf/components/stm32f4xx_hal_driver/stm32f4xx_hal_rtc_ex.c **** 
 619:/home/phong/Documents/thesis/stm32f4/stm-idf/components/stm32f4xx_hal_driver/stm32f4xx_hal_rtc_ex.c ****   /* Get tick */
 620:/home/phong/Documents/thesis/stm32f4/stm-idf/components/stm32f4xx_hal_driver/stm32f4xx_hal_rtc_ex.c ****   tickstart = HAL_GetTick();
 936              		.loc 1 620 0
 937 0006 FFF7FEFF 		bl	HAL_GetTick
 938              	.LVL74:
 939 000a 0646     		mov	r6, r0
 940              	.LVL75:
 941              	.L63:
 621:/home/phong/Documents/thesis/stm32f4/stm-idf/components/stm32f4xx_hal_driver/stm32f4xx_hal_rtc_ex.c **** 
 622:/home/phong/Documents/thesis/stm32f4/stm-idf/components/stm32f4xx_hal_driver/stm32f4xx_hal_rtc_ex.c ****   while(__HAL_RTC_TIMESTAMP_GET_FLAG(hrtc, RTC_FLAG_TSF) == RESET)
 942              		.loc 1 622 0
 943 000c 2368     		ldr	r3, [r4]
 944 000e DA68     		ldr	r2, [r3, #12]
 945 0010 12F4006F 		tst	r2, #2048
 946 0014 18D1     		bne	.L67
 623:/home/phong/Documents/thesis/stm32f4/stm-idf/components/stm32f4xx_hal_driver/stm32f4xx_hal_rtc_ex.c ****   {
 624:/home/phong/Documents/thesis/stm32f4/stm-idf/components/stm32f4xx_hal_driver/stm32f4xx_hal_rtc_ex.c ****     if(__HAL_RTC_TIMESTAMP_GET_FLAG(hrtc, RTC_FLAG_TSOVF) != RESET)
 947              		.loc 1 624 0
 948 0016 DA68     		ldr	r2, [r3, #12]
 949 0018 12F4805F 		tst	r2, #4096
 950 001c 0BD1     		bne	.L68
 625:/home/phong/Documents/thesis/stm32f4/stm-idf/components/stm32f4xx_hal_driver/stm32f4xx_hal_rtc_ex.c ****     {
 626:/home/phong/Documents/thesis/stm32f4/stm-idf/components/stm32f4xx_hal_driver/stm32f4xx_hal_rtc_ex.c ****       /* Clear the TIMESTAMP Overrun Flag */
 627:/home/phong/Documents/thesis/stm32f4/stm-idf/components/stm32f4xx_hal_driver/stm32f4xx_hal_rtc_ex.c ****       __HAL_RTC_TIMESTAMP_CLEAR_FLAG(hrtc, RTC_FLAG_TSOVF);
 628:/home/phong/Documents/thesis/stm32f4/stm-idf/components/stm32f4xx_hal_driver/stm32f4xx_hal_rtc_ex.c **** 
 629:/home/phong/Documents/thesis/stm32f4/stm-idf/components/stm32f4xx_hal_driver/stm32f4xx_hal_rtc_ex.c ****       /* Change TIMESTAMP state */
ARM GAS  /tmp/cc17vVDA.s 			page 29


 630:/home/phong/Documents/thesis/stm32f4/stm-idf/components/stm32f4xx_hal_driver/stm32f4xx_hal_rtc_ex.c ****       hrtc->State = HAL_RTC_STATE_ERROR;
 631:/home/phong/Documents/thesis/stm32f4/stm-idf/components/stm32f4xx_hal_driver/stm32f4xx_hal_rtc_ex.c **** 
 632:/home/phong/Documents/thesis/stm32f4/stm-idf/components/stm32f4xx_hal_driver/stm32f4xx_hal_rtc_ex.c ****       return HAL_ERROR;
 633:/home/phong/Documents/thesis/stm32f4/stm-idf/components/stm32f4xx_hal_driver/stm32f4xx_hal_rtc_ex.c ****     }
 634:/home/phong/Documents/thesis/stm32f4/stm-idf/components/stm32f4xx_hal_driver/stm32f4xx_hal_rtc_ex.c **** 
 635:/home/phong/Documents/thesis/stm32f4/stm-idf/components/stm32f4xx_hal_driver/stm32f4xx_hal_rtc_ex.c ****     if(Timeout != HAL_MAX_DELAY)
 951              		.loc 1 635 0
 952 001e B5F1FF3F 		cmp	r5, #-1
 953 0022 F3D0     		beq	.L63
 636:/home/phong/Documents/thesis/stm32f4/stm-idf/components/stm32f4xx_hal_driver/stm32f4xx_hal_rtc_ex.c ****     {
 637:/home/phong/Documents/thesis/stm32f4/stm-idf/components/stm32f4xx_hal_driver/stm32f4xx_hal_rtc_ex.c ****       if((Timeout == 0U)||((HAL_GetTick() - tickstart ) > Timeout))
 954              		.loc 1 637 0
 955 0024 25B1     		cbz	r5, .L64
 956              		.loc 1 637 0 is_stmt 0 discriminator 1
 957 0026 FFF7FEFF 		bl	HAL_GetTick
 958              	.LVL76:
 959 002a 801B     		subs	r0, r0, r6
 960 002c 8542     		cmp	r5, r0
 961 002e EDD2     		bcs	.L63
 962              	.L64:
 638:/home/phong/Documents/thesis/stm32f4/stm-idf/components/stm32f4xx_hal_driver/stm32f4xx_hal_rtc_ex.c ****       {
 639:/home/phong/Documents/thesis/stm32f4/stm-idf/components/stm32f4xx_hal_driver/stm32f4xx_hal_rtc_ex.c ****         hrtc->State = HAL_RTC_STATE_TIMEOUT;
 963              		.loc 1 639 0 is_stmt 1
 964 0030 0320     		movs	r0, #3
 965 0032 6077     		strb	r0, [r4, #29]
 640:/home/phong/Documents/thesis/stm32f4/stm-idf/components/stm32f4xx_hal_driver/stm32f4xx_hal_rtc_ex.c ****         return HAL_TIMEOUT;
 966              		.loc 1 640 0
 967 0034 70BD     		pop	{r4, r5, r6, pc}
 968              	.LVL77:
 969              	.L68:
 627:/home/phong/Documents/thesis/stm32f4/stm-idf/components/stm32f4xx_hal_driver/stm32f4xx_hal_rtc_ex.c **** 
 970              		.loc 1 627 0
 971 0036 DA68     		ldr	r2, [r3, #12]
 972 0038 D2B2     		uxtb	r2, r2
 973 003a 62F48452 		orn	r2, r2, #4224
 974 003e DA60     		str	r2, [r3, #12]
 630:/home/phong/Documents/thesis/stm32f4/stm-idf/components/stm32f4xx_hal_driver/stm32f4xx_hal_rtc_ex.c **** 
 975              		.loc 1 630 0
 976 0040 0423     		movs	r3, #4
 977 0042 6377     		strb	r3, [r4, #29]
 632:/home/phong/Documents/thesis/stm32f4/stm-idf/components/stm32f4xx_hal_driver/stm32f4xx_hal_rtc_ex.c ****     }
 978              		.loc 1 632 0
 979 0044 0120     		movs	r0, #1
 980 0046 70BD     		pop	{r4, r5, r6, pc}
 981              	.LVL78:
 982              	.L67:
 641:/home/phong/Documents/thesis/stm32f4/stm-idf/components/stm32f4xx_hal_driver/stm32f4xx_hal_rtc_ex.c ****       }
 642:/home/phong/Documents/thesis/stm32f4/stm-idf/components/stm32f4xx_hal_driver/stm32f4xx_hal_rtc_ex.c ****     }
 643:/home/phong/Documents/thesis/stm32f4/stm-idf/components/stm32f4xx_hal_driver/stm32f4xx_hal_rtc_ex.c ****   }
 644:/home/phong/Documents/thesis/stm32f4/stm-idf/components/stm32f4xx_hal_driver/stm32f4xx_hal_rtc_ex.c **** 
 645:/home/phong/Documents/thesis/stm32f4/stm-idf/components/stm32f4xx_hal_driver/stm32f4xx_hal_rtc_ex.c ****   /* Change RTC state */
 646:/home/phong/Documents/thesis/stm32f4/stm-idf/components/stm32f4xx_hal_driver/stm32f4xx_hal_rtc_ex.c ****   hrtc->State = HAL_RTC_STATE_READY;
 983              		.loc 1 646 0
 984 0048 0123     		movs	r3, #1
 985 004a 6377     		strb	r3, [r4, #29]
 647:/home/phong/Documents/thesis/stm32f4/stm-idf/components/stm32f4xx_hal_driver/stm32f4xx_hal_rtc_ex.c **** 
 648:/home/phong/Documents/thesis/stm32f4/stm-idf/components/stm32f4xx_hal_driver/stm32f4xx_hal_rtc_ex.c ****   return HAL_OK;
ARM GAS  /tmp/cc17vVDA.s 			page 30


 986              		.loc 1 648 0
 987 004c 0020     		movs	r0, #0
 649:/home/phong/Documents/thesis/stm32f4/stm-idf/components/stm32f4xx_hal_driver/stm32f4xx_hal_rtc_ex.c **** }
 988              		.loc 1 649 0
 989 004e 70BD     		pop	{r4, r5, r6, pc}
 990              		.cfi_endproc
 991              	.LFE141:
 993              		.section	.text.HAL_RTCEx_PollForTamper1Event,"ax",%progbits
 994              		.align	1
 995              		.global	HAL_RTCEx_PollForTamper1Event
 996              		.syntax unified
 997              		.thumb
 998              		.thumb_func
 999              		.fpu fpv4-sp-d16
 1001              	HAL_RTCEx_PollForTamper1Event:
 1002              	.LFB142:
 650:/home/phong/Documents/thesis/stm32f4/stm-idf/components/stm32f4xx_hal_driver/stm32f4xx_hal_rtc_ex.c **** 
 651:/home/phong/Documents/thesis/stm32f4/stm-idf/components/stm32f4xx_hal_driver/stm32f4xx_hal_rtc_ex.c **** /**
 652:/home/phong/Documents/thesis/stm32f4/stm-idf/components/stm32f4xx_hal_driver/stm32f4xx_hal_rtc_ex.c ****   * @brief  This function handles Tamper1 Polling.
 653:/home/phong/Documents/thesis/stm32f4/stm-idf/components/stm32f4xx_hal_driver/stm32f4xx_hal_rtc_ex.c ****   * @param  hrtc pointer to a RTC_HandleTypeDef structure that contains
 654:/home/phong/Documents/thesis/stm32f4/stm-idf/components/stm32f4xx_hal_driver/stm32f4xx_hal_rtc_ex.c ****   *                the configuration information for RTC.
 655:/home/phong/Documents/thesis/stm32f4/stm-idf/components/stm32f4xx_hal_driver/stm32f4xx_hal_rtc_ex.c ****   * @param  Timeout Timeout duration
 656:/home/phong/Documents/thesis/stm32f4/stm-idf/components/stm32f4xx_hal_driver/stm32f4xx_hal_rtc_ex.c ****   * @retval HAL status
 657:/home/phong/Documents/thesis/stm32f4/stm-idf/components/stm32f4xx_hal_driver/stm32f4xx_hal_rtc_ex.c ****   */
 658:/home/phong/Documents/thesis/stm32f4/stm-idf/components/stm32f4xx_hal_driver/stm32f4xx_hal_rtc_ex.c **** HAL_StatusTypeDef HAL_RTCEx_PollForTamper1Event(RTC_HandleTypeDef *hrtc, uint32_t Timeout)
 659:/home/phong/Documents/thesis/stm32f4/stm-idf/components/stm32f4xx_hal_driver/stm32f4xx_hal_rtc_ex.c **** {
 1003              		.loc 1 659 0
 1004              		.cfi_startproc
 1005              		@ args = 0, pretend = 0, frame = 0
 1006              		@ frame_needed = 0, uses_anonymous_args = 0
 1007              	.LVL79:
 1008 0000 70B5     		push	{r4, r5, r6, lr}
 1009              	.LCFI17:
 1010              		.cfi_def_cfa_offset 16
 1011              		.cfi_offset 4, -16
 1012              		.cfi_offset 5, -12
 1013              		.cfi_offset 6, -8
 1014              		.cfi_offset 14, -4
 1015 0002 0446     		mov	r4, r0
 1016 0004 0D46     		mov	r5, r1
 1017              	.LVL80:
 660:/home/phong/Documents/thesis/stm32f4/stm-idf/components/stm32f4xx_hal_driver/stm32f4xx_hal_rtc_ex.c ****   uint32_t tickstart = 0U;
 661:/home/phong/Documents/thesis/stm32f4/stm-idf/components/stm32f4xx_hal_driver/stm32f4xx_hal_rtc_ex.c **** 
 662:/home/phong/Documents/thesis/stm32f4/stm-idf/components/stm32f4xx_hal_driver/stm32f4xx_hal_rtc_ex.c ****   /* Get tick */
 663:/home/phong/Documents/thesis/stm32f4/stm-idf/components/stm32f4xx_hal_driver/stm32f4xx_hal_rtc_ex.c ****   tickstart = HAL_GetTick();
 1018              		.loc 1 663 0
 1019 0006 FFF7FEFF 		bl	HAL_GetTick
 1020              	.LVL81:
 1021 000a 0646     		mov	r6, r0
 1022              	.LVL82:
 1023              	.L71:
 664:/home/phong/Documents/thesis/stm32f4/stm-idf/components/stm32f4xx_hal_driver/stm32f4xx_hal_rtc_ex.c **** 
 665:/home/phong/Documents/thesis/stm32f4/stm-idf/components/stm32f4xx_hal_driver/stm32f4xx_hal_rtc_ex.c ****   /* Get the status of the Interrupt */
 666:/home/phong/Documents/thesis/stm32f4/stm-idf/components/stm32f4xx_hal_driver/stm32f4xx_hal_rtc_ex.c ****   while(__HAL_RTC_TAMPER_GET_FLAG(hrtc, RTC_FLAG_TAMP1F)== RESET)
 1024              		.loc 1 666 0
 1025 000c 2368     		ldr	r3, [r4]
 1026 000e DA68     		ldr	r2, [r3, #12]
ARM GAS  /tmp/cc17vVDA.s 			page 31


 1027 0010 12F4005F 		tst	r2, #8192
 1028 0014 0BD1     		bne	.L76
 667:/home/phong/Documents/thesis/stm32f4/stm-idf/components/stm32f4xx_hal_driver/stm32f4xx_hal_rtc_ex.c ****   {
 668:/home/phong/Documents/thesis/stm32f4/stm-idf/components/stm32f4xx_hal_driver/stm32f4xx_hal_rtc_ex.c ****     if(Timeout != HAL_MAX_DELAY)
 1029              		.loc 1 668 0
 1030 0016 B5F1FF3F 		cmp	r5, #-1
 1031 001a F7D0     		beq	.L71
 669:/home/phong/Documents/thesis/stm32f4/stm-idf/components/stm32f4xx_hal_driver/stm32f4xx_hal_rtc_ex.c ****     {
 670:/home/phong/Documents/thesis/stm32f4/stm-idf/components/stm32f4xx_hal_driver/stm32f4xx_hal_rtc_ex.c ****       if((Timeout == 0U)||((HAL_GetTick() - tickstart ) > Timeout))
 1032              		.loc 1 670 0
 1033 001c 25B1     		cbz	r5, .L72
 1034              		.loc 1 670 0 is_stmt 0 discriminator 1
 1035 001e FFF7FEFF 		bl	HAL_GetTick
 1036              	.LVL83:
 1037 0022 801B     		subs	r0, r0, r6
 1038 0024 8542     		cmp	r5, r0
 1039 0026 F1D2     		bcs	.L71
 1040              	.L72:
 671:/home/phong/Documents/thesis/stm32f4/stm-idf/components/stm32f4xx_hal_driver/stm32f4xx_hal_rtc_ex.c ****       {
 672:/home/phong/Documents/thesis/stm32f4/stm-idf/components/stm32f4xx_hal_driver/stm32f4xx_hal_rtc_ex.c ****         hrtc->State = HAL_RTC_STATE_TIMEOUT;
 1041              		.loc 1 672 0 is_stmt 1
 1042 0028 0320     		movs	r0, #3
 1043 002a 6077     		strb	r0, [r4, #29]
 673:/home/phong/Documents/thesis/stm32f4/stm-idf/components/stm32f4xx_hal_driver/stm32f4xx_hal_rtc_ex.c ****         return HAL_TIMEOUT;
 1044              		.loc 1 673 0
 1045 002c 70BD     		pop	{r4, r5, r6, pc}
 1046              	.LVL84:
 1047              	.L76:
 674:/home/phong/Documents/thesis/stm32f4/stm-idf/components/stm32f4xx_hal_driver/stm32f4xx_hal_rtc_ex.c ****       }
 675:/home/phong/Documents/thesis/stm32f4/stm-idf/components/stm32f4xx_hal_driver/stm32f4xx_hal_rtc_ex.c ****     }
 676:/home/phong/Documents/thesis/stm32f4/stm-idf/components/stm32f4xx_hal_driver/stm32f4xx_hal_rtc_ex.c ****   }
 677:/home/phong/Documents/thesis/stm32f4/stm-idf/components/stm32f4xx_hal_driver/stm32f4xx_hal_rtc_ex.c **** 
 678:/home/phong/Documents/thesis/stm32f4/stm-idf/components/stm32f4xx_hal_driver/stm32f4xx_hal_rtc_ex.c ****   /* Clear the Tamper Flag */
 679:/home/phong/Documents/thesis/stm32f4/stm-idf/components/stm32f4xx_hal_driver/stm32f4xx_hal_rtc_ex.c ****   __HAL_RTC_TAMPER_CLEAR_FLAG(hrtc,RTC_FLAG_TAMP1F);
 1048              		.loc 1 679 0
 1049 002e DA68     		ldr	r2, [r3, #12]
 1050 0030 D2B2     		uxtb	r2, r2
 1051 0032 62F40252 		orn	r2, r2, #8320
 1052 0036 DA60     		str	r2, [r3, #12]
 680:/home/phong/Documents/thesis/stm32f4/stm-idf/components/stm32f4xx_hal_driver/stm32f4xx_hal_rtc_ex.c **** 
 681:/home/phong/Documents/thesis/stm32f4/stm-idf/components/stm32f4xx_hal_driver/stm32f4xx_hal_rtc_ex.c ****   /* Change RTC state */
 682:/home/phong/Documents/thesis/stm32f4/stm-idf/components/stm32f4xx_hal_driver/stm32f4xx_hal_rtc_ex.c ****   hrtc->State = HAL_RTC_STATE_READY;
 1053              		.loc 1 682 0
 1054 0038 0123     		movs	r3, #1
 1055 003a 6377     		strb	r3, [r4, #29]
 683:/home/phong/Documents/thesis/stm32f4/stm-idf/components/stm32f4xx_hal_driver/stm32f4xx_hal_rtc_ex.c **** 
 684:/home/phong/Documents/thesis/stm32f4/stm-idf/components/stm32f4xx_hal_driver/stm32f4xx_hal_rtc_ex.c ****   return HAL_OK;
 1056              		.loc 1 684 0
 1057 003c 0020     		movs	r0, #0
 685:/home/phong/Documents/thesis/stm32f4/stm-idf/components/stm32f4xx_hal_driver/stm32f4xx_hal_rtc_ex.c **** }
 1058              		.loc 1 685 0
 1059 003e 70BD     		pop	{r4, r5, r6, pc}
 1060              		.cfi_endproc
 1061              	.LFE142:
 1063              		.section	.text.HAL_RTCEx_PollForTamper2Event,"ax",%progbits
 1064              		.align	1
 1065              		.global	HAL_RTCEx_PollForTamper2Event
ARM GAS  /tmp/cc17vVDA.s 			page 32


 1066              		.syntax unified
 1067              		.thumb
 1068              		.thumb_func
 1069              		.fpu fpv4-sp-d16
 1071              	HAL_RTCEx_PollForTamper2Event:
 1072              	.LFB143:
 686:/home/phong/Documents/thesis/stm32f4/stm-idf/components/stm32f4xx_hal_driver/stm32f4xx_hal_rtc_ex.c **** 
 687:/home/phong/Documents/thesis/stm32f4/stm-idf/components/stm32f4xx_hal_driver/stm32f4xx_hal_rtc_ex.c **** /**
 688:/home/phong/Documents/thesis/stm32f4/stm-idf/components/stm32f4xx_hal_driver/stm32f4xx_hal_rtc_ex.c ****   * @brief  This function handles Tamper2 Polling.
 689:/home/phong/Documents/thesis/stm32f4/stm-idf/components/stm32f4xx_hal_driver/stm32f4xx_hal_rtc_ex.c ****   * @param  hrtc pointer to a RTC_HandleTypeDef structure that contains
 690:/home/phong/Documents/thesis/stm32f4/stm-idf/components/stm32f4xx_hal_driver/stm32f4xx_hal_rtc_ex.c ****   *                the configuration information for RTC.
 691:/home/phong/Documents/thesis/stm32f4/stm-idf/components/stm32f4xx_hal_driver/stm32f4xx_hal_rtc_ex.c ****   * @param  Timeout Timeout duration
 692:/home/phong/Documents/thesis/stm32f4/stm-idf/components/stm32f4xx_hal_driver/stm32f4xx_hal_rtc_ex.c ****   * @retval HAL status
 693:/home/phong/Documents/thesis/stm32f4/stm-idf/components/stm32f4xx_hal_driver/stm32f4xx_hal_rtc_ex.c ****   */
 694:/home/phong/Documents/thesis/stm32f4/stm-idf/components/stm32f4xx_hal_driver/stm32f4xx_hal_rtc_ex.c **** HAL_StatusTypeDef HAL_RTCEx_PollForTamper2Event(RTC_HandleTypeDef *hrtc, uint32_t Timeout)
 695:/home/phong/Documents/thesis/stm32f4/stm-idf/components/stm32f4xx_hal_driver/stm32f4xx_hal_rtc_ex.c **** {
 1073              		.loc 1 695 0
 1074              		.cfi_startproc
 1075              		@ args = 0, pretend = 0, frame = 0
 1076              		@ frame_needed = 0, uses_anonymous_args = 0
 1077              	.LVL85:
 1078 0000 70B5     		push	{r4, r5, r6, lr}
 1079              	.LCFI18:
 1080              		.cfi_def_cfa_offset 16
 1081              		.cfi_offset 4, -16
 1082              		.cfi_offset 5, -12
 1083              		.cfi_offset 6, -8
 1084              		.cfi_offset 14, -4
 1085 0002 0446     		mov	r4, r0
 1086 0004 0D46     		mov	r5, r1
 1087              	.LVL86:
 696:/home/phong/Documents/thesis/stm32f4/stm-idf/components/stm32f4xx_hal_driver/stm32f4xx_hal_rtc_ex.c ****   uint32_t tickstart = 0U;
 697:/home/phong/Documents/thesis/stm32f4/stm-idf/components/stm32f4xx_hal_driver/stm32f4xx_hal_rtc_ex.c **** 
 698:/home/phong/Documents/thesis/stm32f4/stm-idf/components/stm32f4xx_hal_driver/stm32f4xx_hal_rtc_ex.c ****   /* Get tick */
 699:/home/phong/Documents/thesis/stm32f4/stm-idf/components/stm32f4xx_hal_driver/stm32f4xx_hal_rtc_ex.c ****   tickstart = HAL_GetTick();
 1088              		.loc 1 699 0
 1089 0006 FFF7FEFF 		bl	HAL_GetTick
 1090              	.LVL87:
 1091 000a 0646     		mov	r6, r0
 1092              	.LVL88:
 1093              	.L79:
 700:/home/phong/Documents/thesis/stm32f4/stm-idf/components/stm32f4xx_hal_driver/stm32f4xx_hal_rtc_ex.c **** 
 701:/home/phong/Documents/thesis/stm32f4/stm-idf/components/stm32f4xx_hal_driver/stm32f4xx_hal_rtc_ex.c ****   /* Get the status of the Interrupt */
 702:/home/phong/Documents/thesis/stm32f4/stm-idf/components/stm32f4xx_hal_driver/stm32f4xx_hal_rtc_ex.c ****   while(__HAL_RTC_TAMPER_GET_FLAG(hrtc, RTC_FLAG_TAMP2F) == RESET)
 1094              		.loc 1 702 0
 1095 000c 2368     		ldr	r3, [r4]
 1096 000e DA68     		ldr	r2, [r3, #12]
 1097 0010 12F4804F 		tst	r2, #16384
 1098 0014 0BD1     		bne	.L84
 703:/home/phong/Documents/thesis/stm32f4/stm-idf/components/stm32f4xx_hal_driver/stm32f4xx_hal_rtc_ex.c ****   {
 704:/home/phong/Documents/thesis/stm32f4/stm-idf/components/stm32f4xx_hal_driver/stm32f4xx_hal_rtc_ex.c ****     if(Timeout != HAL_MAX_DELAY)
 1099              		.loc 1 704 0
 1100 0016 B5F1FF3F 		cmp	r5, #-1
 1101 001a F7D0     		beq	.L79
 705:/home/phong/Documents/thesis/stm32f4/stm-idf/components/stm32f4xx_hal_driver/stm32f4xx_hal_rtc_ex.c ****     {
 706:/home/phong/Documents/thesis/stm32f4/stm-idf/components/stm32f4xx_hal_driver/stm32f4xx_hal_rtc_ex.c ****       if((Timeout == 0U)||((HAL_GetTick() - tickstart ) > Timeout))
 1102              		.loc 1 706 0
ARM GAS  /tmp/cc17vVDA.s 			page 33


 1103 001c 25B1     		cbz	r5, .L80
 1104              		.loc 1 706 0 is_stmt 0 discriminator 1
 1105 001e FFF7FEFF 		bl	HAL_GetTick
 1106              	.LVL89:
 1107 0022 801B     		subs	r0, r0, r6
 1108 0024 8542     		cmp	r5, r0
 1109 0026 F1D2     		bcs	.L79
 1110              	.L80:
 707:/home/phong/Documents/thesis/stm32f4/stm-idf/components/stm32f4xx_hal_driver/stm32f4xx_hal_rtc_ex.c ****       {
 708:/home/phong/Documents/thesis/stm32f4/stm-idf/components/stm32f4xx_hal_driver/stm32f4xx_hal_rtc_ex.c ****         hrtc->State = HAL_RTC_STATE_TIMEOUT;
 1111              		.loc 1 708 0 is_stmt 1
 1112 0028 0320     		movs	r0, #3
 1113 002a 6077     		strb	r0, [r4, #29]
 709:/home/phong/Documents/thesis/stm32f4/stm-idf/components/stm32f4xx_hal_driver/stm32f4xx_hal_rtc_ex.c ****         return HAL_TIMEOUT;
 1114              		.loc 1 709 0
 1115 002c 70BD     		pop	{r4, r5, r6, pc}
 1116              	.LVL90:
 1117              	.L84:
 710:/home/phong/Documents/thesis/stm32f4/stm-idf/components/stm32f4xx_hal_driver/stm32f4xx_hal_rtc_ex.c ****       }
 711:/home/phong/Documents/thesis/stm32f4/stm-idf/components/stm32f4xx_hal_driver/stm32f4xx_hal_rtc_ex.c ****     }
 712:/home/phong/Documents/thesis/stm32f4/stm-idf/components/stm32f4xx_hal_driver/stm32f4xx_hal_rtc_ex.c ****   }
 713:/home/phong/Documents/thesis/stm32f4/stm-idf/components/stm32f4xx_hal_driver/stm32f4xx_hal_rtc_ex.c **** 
 714:/home/phong/Documents/thesis/stm32f4/stm-idf/components/stm32f4xx_hal_driver/stm32f4xx_hal_rtc_ex.c ****   /* Clear the Tamper Flag */
 715:/home/phong/Documents/thesis/stm32f4/stm-idf/components/stm32f4xx_hal_driver/stm32f4xx_hal_rtc_ex.c ****   __HAL_RTC_TAMPER_CLEAR_FLAG(hrtc,RTC_FLAG_TAMP2F);
 1118              		.loc 1 715 0
 1119 002e DA68     		ldr	r2, [r3, #12]
 1120 0030 D2B2     		uxtb	r2, r2
 1121 0032 62F48142 		orn	r2, r2, #16512
 1122 0036 DA60     		str	r2, [r3, #12]
 716:/home/phong/Documents/thesis/stm32f4/stm-idf/components/stm32f4xx_hal_driver/stm32f4xx_hal_rtc_ex.c **** 
 717:/home/phong/Documents/thesis/stm32f4/stm-idf/components/stm32f4xx_hal_driver/stm32f4xx_hal_rtc_ex.c ****   /* Change RTC state */
 718:/home/phong/Documents/thesis/stm32f4/stm-idf/components/stm32f4xx_hal_driver/stm32f4xx_hal_rtc_ex.c ****   hrtc->State = HAL_RTC_STATE_READY;
 1123              		.loc 1 718 0
 1124 0038 0123     		movs	r3, #1
 1125 003a 6377     		strb	r3, [r4, #29]
 719:/home/phong/Documents/thesis/stm32f4/stm-idf/components/stm32f4xx_hal_driver/stm32f4xx_hal_rtc_ex.c **** 
 720:/home/phong/Documents/thesis/stm32f4/stm-idf/components/stm32f4xx_hal_driver/stm32f4xx_hal_rtc_ex.c ****   return HAL_OK;
 1126              		.loc 1 720 0
 1127 003c 0020     		movs	r0, #0
 721:/home/phong/Documents/thesis/stm32f4/stm-idf/components/stm32f4xx_hal_driver/stm32f4xx_hal_rtc_ex.c **** }
 1128              		.loc 1 721 0
 1129 003e 70BD     		pop	{r4, r5, r6, pc}
 1130              		.cfi_endproc
 1131              	.LFE143:
 1133              		.section	.text.HAL_RTCEx_SetWakeUpTimer,"ax",%progbits
 1134              		.align	1
 1135              		.global	HAL_RTCEx_SetWakeUpTimer
 1136              		.syntax unified
 1137              		.thumb
 1138              		.thumb_func
 1139              		.fpu fpv4-sp-d16
 1141              	HAL_RTCEx_SetWakeUpTimer:
 1142              	.LFB144:
 722:/home/phong/Documents/thesis/stm32f4/stm-idf/components/stm32f4xx_hal_driver/stm32f4xx_hal_rtc_ex.c **** 
 723:/home/phong/Documents/thesis/stm32f4/stm-idf/components/stm32f4xx_hal_driver/stm32f4xx_hal_rtc_ex.c **** /**
 724:/home/phong/Documents/thesis/stm32f4/stm-idf/components/stm32f4xx_hal_driver/stm32f4xx_hal_rtc_ex.c ****   * @}
 725:/home/phong/Documents/thesis/stm32f4/stm-idf/components/stm32f4xx_hal_driver/stm32f4xx_hal_rtc_ex.c ****   */
ARM GAS  /tmp/cc17vVDA.s 			page 34


 726:/home/phong/Documents/thesis/stm32f4/stm-idf/components/stm32f4xx_hal_driver/stm32f4xx_hal_rtc_ex.c **** 
 727:/home/phong/Documents/thesis/stm32f4/stm-idf/components/stm32f4xx_hal_driver/stm32f4xx_hal_rtc_ex.c **** /** @defgroup RTCEx_Exported_Functions_Group2 RTC Wake-up functions
 728:/home/phong/Documents/thesis/stm32f4/stm-idf/components/stm32f4xx_hal_driver/stm32f4xx_hal_rtc_ex.c ****  *  @brief   RTC Wake-up functions
 729:/home/phong/Documents/thesis/stm32f4/stm-idf/components/stm32f4xx_hal_driver/stm32f4xx_hal_rtc_ex.c ****  *
 730:/home/phong/Documents/thesis/stm32f4/stm-idf/components/stm32f4xx_hal_driver/stm32f4xx_hal_rtc_ex.c **** @verbatim
 731:/home/phong/Documents/thesis/stm32f4/stm-idf/components/stm32f4xx_hal_driver/stm32f4xx_hal_rtc_ex.c ****  ===============================================================================
 732:/home/phong/Documents/thesis/stm32f4/stm-idf/components/stm32f4xx_hal_driver/stm32f4xx_hal_rtc_ex.c ****                         ##### RTC Wake-up functions #####
 733:/home/phong/Documents/thesis/stm32f4/stm-idf/components/stm32f4xx_hal_driver/stm32f4xx_hal_rtc_ex.c ****  ===============================================================================
 734:/home/phong/Documents/thesis/stm32f4/stm-idf/components/stm32f4xx_hal_driver/stm32f4xx_hal_rtc_ex.c **** 
 735:/home/phong/Documents/thesis/stm32f4/stm-idf/components/stm32f4xx_hal_driver/stm32f4xx_hal_rtc_ex.c ****  [..] This section provides functions allowing to configure Wake-up feature
 736:/home/phong/Documents/thesis/stm32f4/stm-idf/components/stm32f4xx_hal_driver/stm32f4xx_hal_rtc_ex.c **** 
 737:/home/phong/Documents/thesis/stm32f4/stm-idf/components/stm32f4xx_hal_driver/stm32f4xx_hal_rtc_ex.c **** @endverbatim
 738:/home/phong/Documents/thesis/stm32f4/stm-idf/components/stm32f4xx_hal_driver/stm32f4xx_hal_rtc_ex.c ****   * @{
 739:/home/phong/Documents/thesis/stm32f4/stm-idf/components/stm32f4xx_hal_driver/stm32f4xx_hal_rtc_ex.c ****   */
 740:/home/phong/Documents/thesis/stm32f4/stm-idf/components/stm32f4xx_hal_driver/stm32f4xx_hal_rtc_ex.c **** 
 741:/home/phong/Documents/thesis/stm32f4/stm-idf/components/stm32f4xx_hal_driver/stm32f4xx_hal_rtc_ex.c **** /**
 742:/home/phong/Documents/thesis/stm32f4/stm-idf/components/stm32f4xx_hal_driver/stm32f4xx_hal_rtc_ex.c ****   * @brief  Sets wake up timer.
 743:/home/phong/Documents/thesis/stm32f4/stm-idf/components/stm32f4xx_hal_driver/stm32f4xx_hal_rtc_ex.c ****   * @param  hrtc pointer to a RTC_HandleTypeDef structure that contains
 744:/home/phong/Documents/thesis/stm32f4/stm-idf/components/stm32f4xx_hal_driver/stm32f4xx_hal_rtc_ex.c ****   *                the configuration information for RTC.
 745:/home/phong/Documents/thesis/stm32f4/stm-idf/components/stm32f4xx_hal_driver/stm32f4xx_hal_rtc_ex.c ****   * @param  WakeUpCounter Wake up counter
 746:/home/phong/Documents/thesis/stm32f4/stm-idf/components/stm32f4xx_hal_driver/stm32f4xx_hal_rtc_ex.c ****   * @param  WakeUpClock Wake up clock
 747:/home/phong/Documents/thesis/stm32f4/stm-idf/components/stm32f4xx_hal_driver/stm32f4xx_hal_rtc_ex.c ****   * @retval HAL status
 748:/home/phong/Documents/thesis/stm32f4/stm-idf/components/stm32f4xx_hal_driver/stm32f4xx_hal_rtc_ex.c ****   */
 749:/home/phong/Documents/thesis/stm32f4/stm-idf/components/stm32f4xx_hal_driver/stm32f4xx_hal_rtc_ex.c **** HAL_StatusTypeDef HAL_RTCEx_SetWakeUpTimer(RTC_HandleTypeDef *hrtc, uint32_t WakeUpCounter, uint32_
 750:/home/phong/Documents/thesis/stm32f4/stm-idf/components/stm32f4xx_hal_driver/stm32f4xx_hal_rtc_ex.c **** {
 1143              		.loc 1 750 0
 1144              		.cfi_startproc
 1145              		@ args = 0, pretend = 0, frame = 0
 1146              		@ frame_needed = 0, uses_anonymous_args = 0
 1147              	.LVL91:
 1148 0000 F8B5     		push	{r3, r4, r5, r6, r7, lr}
 1149              	.LCFI19:
 1150              		.cfi_def_cfa_offset 24
 1151              		.cfi_offset 3, -24
 1152              		.cfi_offset 4, -20
 1153              		.cfi_offset 5, -16
 1154              		.cfi_offset 6, -12
 1155              		.cfi_offset 7, -8
 1156              		.cfi_offset 14, -4
 1157              	.LVL92:
 751:/home/phong/Documents/thesis/stm32f4/stm-idf/components/stm32f4xx_hal_driver/stm32f4xx_hal_rtc_ex.c ****   uint32_t tickstart = 0U;
 752:/home/phong/Documents/thesis/stm32f4/stm-idf/components/stm32f4xx_hal_driver/stm32f4xx_hal_rtc_ex.c **** 
 753:/home/phong/Documents/thesis/stm32f4/stm-idf/components/stm32f4xx_hal_driver/stm32f4xx_hal_rtc_ex.c ****   /* Check the parameters */
 754:/home/phong/Documents/thesis/stm32f4/stm-idf/components/stm32f4xx_hal_driver/stm32f4xx_hal_rtc_ex.c ****   assert_param(IS_RTC_WAKEUP_CLOCK(WakeUpClock));
 755:/home/phong/Documents/thesis/stm32f4/stm-idf/components/stm32f4xx_hal_driver/stm32f4xx_hal_rtc_ex.c ****   assert_param(IS_RTC_WAKEUP_COUNTER(WakeUpCounter));
 756:/home/phong/Documents/thesis/stm32f4/stm-idf/components/stm32f4xx_hal_driver/stm32f4xx_hal_rtc_ex.c **** 
 757:/home/phong/Documents/thesis/stm32f4/stm-idf/components/stm32f4xx_hal_driver/stm32f4xx_hal_rtc_ex.c ****   /* Process Locked */
 758:/home/phong/Documents/thesis/stm32f4/stm-idf/components/stm32f4xx_hal_driver/stm32f4xx_hal_rtc_ex.c ****   __HAL_LOCK(hrtc);
 1158              		.loc 1 758 0
 1159 0002 037F     		ldrb	r3, [r0, #28]	@ zero_extendqisi2
 1160 0004 012B     		cmp	r3, #1
 1161 0006 59D0     		beq	.L92
 1162 0008 1646     		mov	r6, r2
 1163 000a 0D46     		mov	r5, r1
 1164 000c 0446     		mov	r4, r0
 1165              		.loc 1 758 0 is_stmt 0 discriminator 2
 1166 000e 0123     		movs	r3, #1
ARM GAS  /tmp/cc17vVDA.s 			page 35


 1167 0010 0377     		strb	r3, [r0, #28]
 759:/home/phong/Documents/thesis/stm32f4/stm-idf/components/stm32f4xx_hal_driver/stm32f4xx_hal_rtc_ex.c **** 
 760:/home/phong/Documents/thesis/stm32f4/stm-idf/components/stm32f4xx_hal_driver/stm32f4xx_hal_rtc_ex.c ****   hrtc->State = HAL_RTC_STATE_BUSY;
 1168              		.loc 1 760 0 is_stmt 1 discriminator 2
 1169 0012 0223     		movs	r3, #2
 1170 0014 4377     		strb	r3, [r0, #29]
 761:/home/phong/Documents/thesis/stm32f4/stm-idf/components/stm32f4xx_hal_driver/stm32f4xx_hal_rtc_ex.c **** 
 762:/home/phong/Documents/thesis/stm32f4/stm-idf/components/stm32f4xx_hal_driver/stm32f4xx_hal_rtc_ex.c ****   /* Disable the write protection for RTC registers */
 763:/home/phong/Documents/thesis/stm32f4/stm-idf/components/stm32f4xx_hal_driver/stm32f4xx_hal_rtc_ex.c ****   __HAL_RTC_WRITEPROTECTION_DISABLE(hrtc);
 1171              		.loc 1 763 0 discriminator 2
 1172 0016 0368     		ldr	r3, [r0]
 1173 0018 CA22     		movs	r2, #202
 1174              	.LVL93:
 1175 001a 5A62     		str	r2, [r3, #36]
 1176 001c 0368     		ldr	r3, [r0]
 1177 001e 5322     		movs	r2, #83
 1178 0020 5A62     		str	r2, [r3, #36]
 764:/home/phong/Documents/thesis/stm32f4/stm-idf/components/stm32f4xx_hal_driver/stm32f4xx_hal_rtc_ex.c **** 
 765:/home/phong/Documents/thesis/stm32f4/stm-idf/components/stm32f4xx_hal_driver/stm32f4xx_hal_rtc_ex.c ****   /*Check RTC WUTWF flag is reset only when wake up timer enabled*/
 766:/home/phong/Documents/thesis/stm32f4/stm-idf/components/stm32f4xx_hal_driver/stm32f4xx_hal_rtc_ex.c ****   if((hrtc->Instance->CR & RTC_CR_WUTE) != RESET)
 1179              		.loc 1 766 0 discriminator 2
 1180 0022 0368     		ldr	r3, [r0]
 1181 0024 9B68     		ldr	r3, [r3, #8]
 1182 0026 13F4806F 		tst	r3, #1024
 1183 002a 15D0     		beq	.L87
 767:/home/phong/Documents/thesis/stm32f4/stm-idf/components/stm32f4xx_hal_driver/stm32f4xx_hal_rtc_ex.c ****   {
 768:/home/phong/Documents/thesis/stm32f4/stm-idf/components/stm32f4xx_hal_driver/stm32f4xx_hal_rtc_ex.c ****     tickstart = HAL_GetTick();
 1184              		.loc 1 768 0
 1185 002c FFF7FEFF 		bl	HAL_GetTick
 1186              	.LVL94:
 1187 0030 0746     		mov	r7, r0
 1188              	.LVL95:
 1189              	.L88:
 769:/home/phong/Documents/thesis/stm32f4/stm-idf/components/stm32f4xx_hal_driver/stm32f4xx_hal_rtc_ex.c **** 
 770:/home/phong/Documents/thesis/stm32f4/stm-idf/components/stm32f4xx_hal_driver/stm32f4xx_hal_rtc_ex.c ****     /* Wait till RTC WUTWF flag is reset and if Time out is reached exit */
 771:/home/phong/Documents/thesis/stm32f4/stm-idf/components/stm32f4xx_hal_driver/stm32f4xx_hal_rtc_ex.c ****     while(__HAL_RTC_WAKEUPTIMER_GET_FLAG(hrtc, RTC_FLAG_WUTWF) == SET)
 1190              		.loc 1 771 0
 1191 0032 2368     		ldr	r3, [r4]
 1192 0034 DB68     		ldr	r3, [r3, #12]
 1193 0036 13F0040F 		tst	r3, #4
 1194 003a 0DD0     		beq	.L87
 772:/home/phong/Documents/thesis/stm32f4/stm-idf/components/stm32f4xx_hal_driver/stm32f4xx_hal_rtc_ex.c ****     {
 773:/home/phong/Documents/thesis/stm32f4/stm-idf/components/stm32f4xx_hal_driver/stm32f4xx_hal_rtc_ex.c ****       if((HAL_GetTick() - tickstart ) > RTC_TIMEOUT_VALUE)
 1195              		.loc 1 773 0
 1196 003c FFF7FEFF 		bl	HAL_GetTick
 1197              	.LVL96:
 1198 0040 C01B     		subs	r0, r0, r7
 1199 0042 B0F57A7F 		cmp	r0, #1000
 1200 0046 F4D9     		bls	.L88
 774:/home/phong/Documents/thesis/stm32f4/stm-idf/components/stm32f4xx_hal_driver/stm32f4xx_hal_rtc_ex.c ****       {
 775:/home/phong/Documents/thesis/stm32f4/stm-idf/components/stm32f4xx_hal_driver/stm32f4xx_hal_rtc_ex.c ****         /* Enable the write protection for RTC registers */
 776:/home/phong/Documents/thesis/stm32f4/stm-idf/components/stm32f4xx_hal_driver/stm32f4xx_hal_rtc_ex.c ****         __HAL_RTC_WRITEPROTECTION_ENABLE(hrtc);
 1201              		.loc 1 776 0
 1202 0048 2368     		ldr	r3, [r4]
 1203 004a FF22     		movs	r2, #255
 1204 004c 5A62     		str	r2, [r3, #36]
 777:/home/phong/Documents/thesis/stm32f4/stm-idf/components/stm32f4xx_hal_driver/stm32f4xx_hal_rtc_ex.c **** 
ARM GAS  /tmp/cc17vVDA.s 			page 36


 778:/home/phong/Documents/thesis/stm32f4/stm-idf/components/stm32f4xx_hal_driver/stm32f4xx_hal_rtc_ex.c ****         hrtc->State = HAL_RTC_STATE_TIMEOUT;
 1205              		.loc 1 778 0
 1206 004e 0320     		movs	r0, #3
 1207 0050 6077     		strb	r0, [r4, #29]
 779:/home/phong/Documents/thesis/stm32f4/stm-idf/components/stm32f4xx_hal_driver/stm32f4xx_hal_rtc_ex.c **** 
 780:/home/phong/Documents/thesis/stm32f4/stm-idf/components/stm32f4xx_hal_driver/stm32f4xx_hal_rtc_ex.c ****         /* Process Unlocked */
 781:/home/phong/Documents/thesis/stm32f4/stm-idf/components/stm32f4xx_hal_driver/stm32f4xx_hal_rtc_ex.c ****         __HAL_UNLOCK(hrtc);
 1208              		.loc 1 781 0
 1209 0052 0023     		movs	r3, #0
 1210 0054 2377     		strb	r3, [r4, #28]
 782:/home/phong/Documents/thesis/stm32f4/stm-idf/components/stm32f4xx_hal_driver/stm32f4xx_hal_rtc_ex.c **** 
 783:/home/phong/Documents/thesis/stm32f4/stm-idf/components/stm32f4xx_hal_driver/stm32f4xx_hal_rtc_ex.c ****         return HAL_TIMEOUT;
 1211              		.loc 1 783 0
 1212 0056 F8BD     		pop	{r3, r4, r5, r6, r7, pc}
 1213              	.LVL97:
 1214              	.L87:
 784:/home/phong/Documents/thesis/stm32f4/stm-idf/components/stm32f4xx_hal_driver/stm32f4xx_hal_rtc_ex.c ****       }
 785:/home/phong/Documents/thesis/stm32f4/stm-idf/components/stm32f4xx_hal_driver/stm32f4xx_hal_rtc_ex.c ****     }
 786:/home/phong/Documents/thesis/stm32f4/stm-idf/components/stm32f4xx_hal_driver/stm32f4xx_hal_rtc_ex.c ****   }
 787:/home/phong/Documents/thesis/stm32f4/stm-idf/components/stm32f4xx_hal_driver/stm32f4xx_hal_rtc_ex.c **** 
 788:/home/phong/Documents/thesis/stm32f4/stm-idf/components/stm32f4xx_hal_driver/stm32f4xx_hal_rtc_ex.c ****   __HAL_RTC_WAKEUPTIMER_DISABLE(hrtc);
 1215              		.loc 1 788 0
 1216 0058 2268     		ldr	r2, [r4]
 1217 005a 9368     		ldr	r3, [r2, #8]
 1218 005c 23F48063 		bic	r3, r3, #1024
 1219 0060 9360     		str	r3, [r2, #8]
 789:/home/phong/Documents/thesis/stm32f4/stm-idf/components/stm32f4xx_hal_driver/stm32f4xx_hal_rtc_ex.c **** 
 790:/home/phong/Documents/thesis/stm32f4/stm-idf/components/stm32f4xx_hal_driver/stm32f4xx_hal_rtc_ex.c ****   tickstart = HAL_GetTick();
 1220              		.loc 1 790 0
 1221 0062 FFF7FEFF 		bl	HAL_GetTick
 1222              	.LVL98:
 1223 0066 0746     		mov	r7, r0
 1224              	.LVL99:
 1225              	.L90:
 791:/home/phong/Documents/thesis/stm32f4/stm-idf/components/stm32f4xx_hal_driver/stm32f4xx_hal_rtc_ex.c **** 
 792:/home/phong/Documents/thesis/stm32f4/stm-idf/components/stm32f4xx_hal_driver/stm32f4xx_hal_rtc_ex.c ****   /* Wait till RTC WUTWF flag is set and if Time out is reached exit */
 793:/home/phong/Documents/thesis/stm32f4/stm-idf/components/stm32f4xx_hal_driver/stm32f4xx_hal_rtc_ex.c ****   while(__HAL_RTC_WAKEUPTIMER_GET_FLAG(hrtc, RTC_FLAG_WUTWF) == RESET)
 1226              		.loc 1 793 0
 1227 0068 2368     		ldr	r3, [r4]
 1228 006a D868     		ldr	r0, [r3, #12]
 1229 006c 10F0040F 		tst	r0, #4
 1230 0070 0DD1     		bne	.L94
 794:/home/phong/Documents/thesis/stm32f4/stm-idf/components/stm32f4xx_hal_driver/stm32f4xx_hal_rtc_ex.c ****   {
 795:/home/phong/Documents/thesis/stm32f4/stm-idf/components/stm32f4xx_hal_driver/stm32f4xx_hal_rtc_ex.c ****     if((HAL_GetTick() - tickstart ) > RTC_TIMEOUT_VALUE)
 1231              		.loc 1 795 0
 1232 0072 FFF7FEFF 		bl	HAL_GetTick
 1233              	.LVL100:
 1234 0076 C01B     		subs	r0, r0, r7
 1235 0078 B0F57A7F 		cmp	r0, #1000
 1236 007c F4D9     		bls	.L90
 796:/home/phong/Documents/thesis/stm32f4/stm-idf/components/stm32f4xx_hal_driver/stm32f4xx_hal_rtc_ex.c ****     {
 797:/home/phong/Documents/thesis/stm32f4/stm-idf/components/stm32f4xx_hal_driver/stm32f4xx_hal_rtc_ex.c ****       /* Enable the write protection for RTC registers */
 798:/home/phong/Documents/thesis/stm32f4/stm-idf/components/stm32f4xx_hal_driver/stm32f4xx_hal_rtc_ex.c ****       __HAL_RTC_WRITEPROTECTION_ENABLE(hrtc);
 1237              		.loc 1 798 0
 1238 007e 2368     		ldr	r3, [r4]
 1239 0080 FF22     		movs	r2, #255
 1240 0082 5A62     		str	r2, [r3, #36]
ARM GAS  /tmp/cc17vVDA.s 			page 37


 799:/home/phong/Documents/thesis/stm32f4/stm-idf/components/stm32f4xx_hal_driver/stm32f4xx_hal_rtc_ex.c **** 
 800:/home/phong/Documents/thesis/stm32f4/stm-idf/components/stm32f4xx_hal_driver/stm32f4xx_hal_rtc_ex.c ****       hrtc->State = HAL_RTC_STATE_TIMEOUT;
 1241              		.loc 1 800 0
 1242 0084 0320     		movs	r0, #3
 1243 0086 6077     		strb	r0, [r4, #29]
 801:/home/phong/Documents/thesis/stm32f4/stm-idf/components/stm32f4xx_hal_driver/stm32f4xx_hal_rtc_ex.c **** 
 802:/home/phong/Documents/thesis/stm32f4/stm-idf/components/stm32f4xx_hal_driver/stm32f4xx_hal_rtc_ex.c ****       /* Process Unlocked */
 803:/home/phong/Documents/thesis/stm32f4/stm-idf/components/stm32f4xx_hal_driver/stm32f4xx_hal_rtc_ex.c ****       __HAL_UNLOCK(hrtc);
 1244              		.loc 1 803 0
 1245 0088 0023     		movs	r3, #0
 1246 008a 2377     		strb	r3, [r4, #28]
 804:/home/phong/Documents/thesis/stm32f4/stm-idf/components/stm32f4xx_hal_driver/stm32f4xx_hal_rtc_ex.c **** 
 805:/home/phong/Documents/thesis/stm32f4/stm-idf/components/stm32f4xx_hal_driver/stm32f4xx_hal_rtc_ex.c ****       return HAL_TIMEOUT;
 1247              		.loc 1 805 0
 1248 008c F8BD     		pop	{r3, r4, r5, r6, r7, pc}
 1249              	.LVL101:
 1250              	.L94:
 806:/home/phong/Documents/thesis/stm32f4/stm-idf/components/stm32f4xx_hal_driver/stm32f4xx_hal_rtc_ex.c ****     }
 807:/home/phong/Documents/thesis/stm32f4/stm-idf/components/stm32f4xx_hal_driver/stm32f4xx_hal_rtc_ex.c ****   }
 808:/home/phong/Documents/thesis/stm32f4/stm-idf/components/stm32f4xx_hal_driver/stm32f4xx_hal_rtc_ex.c **** 
 809:/home/phong/Documents/thesis/stm32f4/stm-idf/components/stm32f4xx_hal_driver/stm32f4xx_hal_rtc_ex.c ****   /* Clear the Wake-up Timer clock source bits in CR register */
 810:/home/phong/Documents/thesis/stm32f4/stm-idf/components/stm32f4xx_hal_driver/stm32f4xx_hal_rtc_ex.c ****   hrtc->Instance->CR &= (uint32_t)~RTC_CR_WUCKSEL;
 1251              		.loc 1 810 0
 1252 008e 9A68     		ldr	r2, [r3, #8]
 1253 0090 22F00702 		bic	r2, r2, #7
 1254 0094 9A60     		str	r2, [r3, #8]
 811:/home/phong/Documents/thesis/stm32f4/stm-idf/components/stm32f4xx_hal_driver/stm32f4xx_hal_rtc_ex.c **** 
 812:/home/phong/Documents/thesis/stm32f4/stm-idf/components/stm32f4xx_hal_driver/stm32f4xx_hal_rtc_ex.c ****   /* Configure the clock source */
 813:/home/phong/Documents/thesis/stm32f4/stm-idf/components/stm32f4xx_hal_driver/stm32f4xx_hal_rtc_ex.c ****   hrtc->Instance->CR |= (uint32_t)WakeUpClock;
 1255              		.loc 1 813 0
 1256 0096 2268     		ldr	r2, [r4]
 1257 0098 9368     		ldr	r3, [r2, #8]
 1258 009a 1E43     		orrs	r6, r6, r3
 1259              	.LVL102:
 1260 009c 9660     		str	r6, [r2, #8]
 814:/home/phong/Documents/thesis/stm32f4/stm-idf/components/stm32f4xx_hal_driver/stm32f4xx_hal_rtc_ex.c **** 
 815:/home/phong/Documents/thesis/stm32f4/stm-idf/components/stm32f4xx_hal_driver/stm32f4xx_hal_rtc_ex.c ****   /* Configure the Wake-up Timer counter */
 816:/home/phong/Documents/thesis/stm32f4/stm-idf/components/stm32f4xx_hal_driver/stm32f4xx_hal_rtc_ex.c ****   hrtc->Instance->WUTR = (uint32_t)WakeUpCounter;
 1261              		.loc 1 816 0
 1262 009e 2368     		ldr	r3, [r4]
 1263 00a0 5D61     		str	r5, [r3, #20]
 817:/home/phong/Documents/thesis/stm32f4/stm-idf/components/stm32f4xx_hal_driver/stm32f4xx_hal_rtc_ex.c **** 
 818:/home/phong/Documents/thesis/stm32f4/stm-idf/components/stm32f4xx_hal_driver/stm32f4xx_hal_rtc_ex.c ****    /* Enable the Wake-up Timer */
 819:/home/phong/Documents/thesis/stm32f4/stm-idf/components/stm32f4xx_hal_driver/stm32f4xx_hal_rtc_ex.c ****   __HAL_RTC_WAKEUPTIMER_ENABLE(hrtc);
 1264              		.loc 1 819 0
 1265 00a2 2268     		ldr	r2, [r4]
 1266 00a4 9368     		ldr	r3, [r2, #8]
 1267 00a6 43F48063 		orr	r3, r3, #1024
 1268 00aa 9360     		str	r3, [r2, #8]
 820:/home/phong/Documents/thesis/stm32f4/stm-idf/components/stm32f4xx_hal_driver/stm32f4xx_hal_rtc_ex.c **** 
 821:/home/phong/Documents/thesis/stm32f4/stm-idf/components/stm32f4xx_hal_driver/stm32f4xx_hal_rtc_ex.c ****   /* Enable the write protection for RTC registers */
 822:/home/phong/Documents/thesis/stm32f4/stm-idf/components/stm32f4xx_hal_driver/stm32f4xx_hal_rtc_ex.c ****   __HAL_RTC_WRITEPROTECTION_ENABLE(hrtc);
 1269              		.loc 1 822 0
 1270 00ac 2368     		ldr	r3, [r4]
 1271 00ae FF22     		movs	r2, #255
 1272 00b0 5A62     		str	r2, [r3, #36]
 823:/home/phong/Documents/thesis/stm32f4/stm-idf/components/stm32f4xx_hal_driver/stm32f4xx_hal_rtc_ex.c **** 
ARM GAS  /tmp/cc17vVDA.s 			page 38


 824:/home/phong/Documents/thesis/stm32f4/stm-idf/components/stm32f4xx_hal_driver/stm32f4xx_hal_rtc_ex.c ****   hrtc->State = HAL_RTC_STATE_READY;
 1273              		.loc 1 824 0
 1274 00b2 0123     		movs	r3, #1
 1275 00b4 6377     		strb	r3, [r4, #29]
 825:/home/phong/Documents/thesis/stm32f4/stm-idf/components/stm32f4xx_hal_driver/stm32f4xx_hal_rtc_ex.c **** 
 826:/home/phong/Documents/thesis/stm32f4/stm-idf/components/stm32f4xx_hal_driver/stm32f4xx_hal_rtc_ex.c ****   /* Process Unlocked */
 827:/home/phong/Documents/thesis/stm32f4/stm-idf/components/stm32f4xx_hal_driver/stm32f4xx_hal_rtc_ex.c ****   __HAL_UNLOCK(hrtc);
 1276              		.loc 1 827 0
 1277 00b6 0020     		movs	r0, #0
 1278 00b8 2077     		strb	r0, [r4, #28]
 828:/home/phong/Documents/thesis/stm32f4/stm-idf/components/stm32f4xx_hal_driver/stm32f4xx_hal_rtc_ex.c **** 
 829:/home/phong/Documents/thesis/stm32f4/stm-idf/components/stm32f4xx_hal_driver/stm32f4xx_hal_rtc_ex.c ****   return HAL_OK;
 1279              		.loc 1 829 0
 1280 00ba F8BD     		pop	{r3, r4, r5, r6, r7, pc}
 1281              	.LVL103:
 1282              	.L92:
 758:/home/phong/Documents/thesis/stm32f4/stm-idf/components/stm32f4xx_hal_driver/stm32f4xx_hal_rtc_ex.c **** 
 1283              		.loc 1 758 0
 1284 00bc 0220     		movs	r0, #2
 1285              	.LVL104:
 830:/home/phong/Documents/thesis/stm32f4/stm-idf/components/stm32f4xx_hal_driver/stm32f4xx_hal_rtc_ex.c **** }
 1286              		.loc 1 830 0
 1287 00be F8BD     		pop	{r3, r4, r5, r6, r7, pc}
 1288              		.cfi_endproc
 1289              	.LFE144:
 1291              		.section	.text.HAL_RTCEx_SetWakeUpTimer_IT,"ax",%progbits
 1292              		.align	1
 1293              		.global	HAL_RTCEx_SetWakeUpTimer_IT
 1294              		.syntax unified
 1295              		.thumb
 1296              		.thumb_func
 1297              		.fpu fpv4-sp-d16
 1299              	HAL_RTCEx_SetWakeUpTimer_IT:
 1300              	.LFB145:
 831:/home/phong/Documents/thesis/stm32f4/stm-idf/components/stm32f4xx_hal_driver/stm32f4xx_hal_rtc_ex.c **** 
 832:/home/phong/Documents/thesis/stm32f4/stm-idf/components/stm32f4xx_hal_driver/stm32f4xx_hal_rtc_ex.c **** /**
 833:/home/phong/Documents/thesis/stm32f4/stm-idf/components/stm32f4xx_hal_driver/stm32f4xx_hal_rtc_ex.c ****   * @brief  Sets wake up timer with interrupt
 834:/home/phong/Documents/thesis/stm32f4/stm-idf/components/stm32f4xx_hal_driver/stm32f4xx_hal_rtc_ex.c ****   * @param  hrtc pointer to a RTC_HandleTypeDef structure that contains
 835:/home/phong/Documents/thesis/stm32f4/stm-idf/components/stm32f4xx_hal_driver/stm32f4xx_hal_rtc_ex.c ****   *                the configuration information for RTC.
 836:/home/phong/Documents/thesis/stm32f4/stm-idf/components/stm32f4xx_hal_driver/stm32f4xx_hal_rtc_ex.c ****   * @param  WakeUpCounter Wake up counter
 837:/home/phong/Documents/thesis/stm32f4/stm-idf/components/stm32f4xx_hal_driver/stm32f4xx_hal_rtc_ex.c ****   * @param  WakeUpClock Wake up clock
 838:/home/phong/Documents/thesis/stm32f4/stm-idf/components/stm32f4xx_hal_driver/stm32f4xx_hal_rtc_ex.c ****   * @retval HAL status
 839:/home/phong/Documents/thesis/stm32f4/stm-idf/components/stm32f4xx_hal_driver/stm32f4xx_hal_rtc_ex.c ****   */
 840:/home/phong/Documents/thesis/stm32f4/stm-idf/components/stm32f4xx_hal_driver/stm32f4xx_hal_rtc_ex.c **** HAL_StatusTypeDef HAL_RTCEx_SetWakeUpTimer_IT(RTC_HandleTypeDef *hrtc, uint32_t WakeUpCounter, uint
 841:/home/phong/Documents/thesis/stm32f4/stm-idf/components/stm32f4xx_hal_driver/stm32f4xx_hal_rtc_ex.c **** {
 1301              		.loc 1 841 0
 1302              		.cfi_startproc
 1303              		@ args = 0, pretend = 0, frame = 8
 1304              		@ frame_needed = 0, uses_anonymous_args = 0
 1305              		@ link register save eliminated.
 1306              	.LVL105:
 842:/home/phong/Documents/thesis/stm32f4/stm-idf/components/stm32f4xx_hal_driver/stm32f4xx_hal_rtc_ex.c ****   __IO uint32_t count;
 843:/home/phong/Documents/thesis/stm32f4/stm-idf/components/stm32f4xx_hal_driver/stm32f4xx_hal_rtc_ex.c **** 
 844:/home/phong/Documents/thesis/stm32f4/stm-idf/components/stm32f4xx_hal_driver/stm32f4xx_hal_rtc_ex.c ****   /* Check the parameters */
 845:/home/phong/Documents/thesis/stm32f4/stm-idf/components/stm32f4xx_hal_driver/stm32f4xx_hal_rtc_ex.c ****   assert_param(IS_RTC_WAKEUP_CLOCK(WakeUpClock));
 846:/home/phong/Documents/thesis/stm32f4/stm-idf/components/stm32f4xx_hal_driver/stm32f4xx_hal_rtc_ex.c ****   assert_param(IS_RTC_WAKEUP_COUNTER(WakeUpCounter));
 847:/home/phong/Documents/thesis/stm32f4/stm-idf/components/stm32f4xx_hal_driver/stm32f4xx_hal_rtc_ex.c **** 
ARM GAS  /tmp/cc17vVDA.s 			page 39


 848:/home/phong/Documents/thesis/stm32f4/stm-idf/components/stm32f4xx_hal_driver/stm32f4xx_hal_rtc_ex.c ****   /* Process Locked */
 849:/home/phong/Documents/thesis/stm32f4/stm-idf/components/stm32f4xx_hal_driver/stm32f4xx_hal_rtc_ex.c ****   __HAL_LOCK(hrtc);
 1307              		.loc 1 849 0
 1308 0000 037F     		ldrb	r3, [r0, #28]	@ zero_extendqisi2
 1309 0002 012B     		cmp	r3, #1
 1310 0004 7CD0     		beq	.L102
 841:/home/phong/Documents/thesis/stm32f4/stm-idf/components/stm32f4xx_hal_driver/stm32f4xx_hal_rtc_ex.c ****   __IO uint32_t count;
 1311              		.loc 1 841 0 discriminator 2
 1312 0006 30B4     		push	{r4, r5}
 1313              	.LCFI20:
 1314              		.cfi_def_cfa_offset 8
 1315              		.cfi_offset 4, -8
 1316              		.cfi_offset 5, -4
 1317 0008 82B0     		sub	sp, sp, #8
 1318              	.LCFI21:
 1319              		.cfi_def_cfa_offset 16
 1320              		.loc 1 849 0 discriminator 2
 1321 000a 0123     		movs	r3, #1
 1322 000c 0377     		strb	r3, [r0, #28]
 850:/home/phong/Documents/thesis/stm32f4/stm-idf/components/stm32f4xx_hal_driver/stm32f4xx_hal_rtc_ex.c **** 
 851:/home/phong/Documents/thesis/stm32f4/stm-idf/components/stm32f4xx_hal_driver/stm32f4xx_hal_rtc_ex.c ****   hrtc->State = HAL_RTC_STATE_BUSY;
 1323              		.loc 1 851 0 discriminator 2
 1324 000e 0223     		movs	r3, #2
 1325 0010 4377     		strb	r3, [r0, #29]
 852:/home/phong/Documents/thesis/stm32f4/stm-idf/components/stm32f4xx_hal_driver/stm32f4xx_hal_rtc_ex.c **** 
 853:/home/phong/Documents/thesis/stm32f4/stm-idf/components/stm32f4xx_hal_driver/stm32f4xx_hal_rtc_ex.c ****   /* Disable the write protection for RTC registers */
 854:/home/phong/Documents/thesis/stm32f4/stm-idf/components/stm32f4xx_hal_driver/stm32f4xx_hal_rtc_ex.c ****   __HAL_RTC_WRITEPROTECTION_DISABLE(hrtc);
 1326              		.loc 1 854 0 discriminator 2
 1327 0012 0368     		ldr	r3, [r0]
 1328 0014 CA24     		movs	r4, #202
 1329 0016 5C62     		str	r4, [r3, #36]
 1330 0018 0368     		ldr	r3, [r0]
 1331 001a 5324     		movs	r4, #83
 1332 001c 5C62     		str	r4, [r3, #36]
 855:/home/phong/Documents/thesis/stm32f4/stm-idf/components/stm32f4xx_hal_driver/stm32f4xx_hal_rtc_ex.c **** 
 856:/home/phong/Documents/thesis/stm32f4/stm-idf/components/stm32f4xx_hal_driver/stm32f4xx_hal_rtc_ex.c ****   /* Check RTC WUTWF flag is reset only when wake up timer enabled */
 857:/home/phong/Documents/thesis/stm32f4/stm-idf/components/stm32f4xx_hal_driver/stm32f4xx_hal_rtc_ex.c ****   if((hrtc->Instance->CR & RTC_CR_WUTE) != RESET)
 1333              		.loc 1 857 0 discriminator 2
 1334 001e 0568     		ldr	r5, [r0]
 1335 0020 AB68     		ldr	r3, [r5, #8]
 1336 0022 13F4806F 		tst	r3, #1024
 1337 0026 13D0     		beq	.L97
 858:/home/phong/Documents/thesis/stm32f4/stm-idf/components/stm32f4xx_hal_driver/stm32f4xx_hal_rtc_ex.c ****   {
 859:/home/phong/Documents/thesis/stm32f4/stm-idf/components/stm32f4xx_hal_driver/stm32f4xx_hal_rtc_ex.c ****     /* Wait till RTC WUTWF flag is reset and if Time out is reached exit */
 860:/home/phong/Documents/thesis/stm32f4/stm-idf/components/stm32f4xx_hal_driver/stm32f4xx_hal_rtc_ex.c ****     count = RTC_TIMEOUT_VALUE  * (SystemCoreClock / 32U / 1000U);
 1338              		.loc 1 860 0
 1339 0028 364B     		ldr	r3, .L109
 1340 002a 1B68     		ldr	r3, [r3]
 1341 002c 364C     		ldr	r4, .L109+4
 1342 002e A4FB0343 		umull	r4, r3, r4, r3
 1343 0032 DB0A     		lsrs	r3, r3, #11
 1344 0034 4FF47A74 		mov	r4, #1000
 1345 0038 04FB03F3 		mul	r3, r4, r3
 1346 003c 0193     		str	r3, [sp, #4]
 1347              	.L99:
 861:/home/phong/Documents/thesis/stm32f4/stm-idf/components/stm32f4xx_hal_driver/stm32f4xx_hal_rtc_ex.c ****     do
 862:/home/phong/Documents/thesis/stm32f4/stm-idf/components/stm32f4xx_hal_driver/stm32f4xx_hal_rtc_ex.c ****     {
ARM GAS  /tmp/cc17vVDA.s 			page 40


 863:/home/phong/Documents/thesis/stm32f4/stm-idf/components/stm32f4xx_hal_driver/stm32f4xx_hal_rtc_ex.c ****       if(count-- == 0U)
 1348              		.loc 1 863 0
 1349 003e 019B     		ldr	r3, [sp, #4]
 1350 0040 5C1E     		subs	r4, r3, #1
 1351 0042 0194     		str	r4, [sp, #4]
 1352 0044 002B     		cmp	r3, #0
 1353 0046 48D0     		beq	.L107
 864:/home/phong/Documents/thesis/stm32f4/stm-idf/components/stm32f4xx_hal_driver/stm32f4xx_hal_rtc_ex.c ****       {
 865:/home/phong/Documents/thesis/stm32f4/stm-idf/components/stm32f4xx_hal_driver/stm32f4xx_hal_rtc_ex.c ****         /* Enable the write protection for RTC registers */
 866:/home/phong/Documents/thesis/stm32f4/stm-idf/components/stm32f4xx_hal_driver/stm32f4xx_hal_rtc_ex.c ****         __HAL_RTC_WRITEPROTECTION_ENABLE(hrtc);
 867:/home/phong/Documents/thesis/stm32f4/stm-idf/components/stm32f4xx_hal_driver/stm32f4xx_hal_rtc_ex.c **** 
 868:/home/phong/Documents/thesis/stm32f4/stm-idf/components/stm32f4xx_hal_driver/stm32f4xx_hal_rtc_ex.c ****         hrtc->State = HAL_RTC_STATE_TIMEOUT;
 869:/home/phong/Documents/thesis/stm32f4/stm-idf/components/stm32f4xx_hal_driver/stm32f4xx_hal_rtc_ex.c **** 
 870:/home/phong/Documents/thesis/stm32f4/stm-idf/components/stm32f4xx_hal_driver/stm32f4xx_hal_rtc_ex.c ****         /* Process Unlocked */
 871:/home/phong/Documents/thesis/stm32f4/stm-idf/components/stm32f4xx_hal_driver/stm32f4xx_hal_rtc_ex.c ****         __HAL_UNLOCK(hrtc);
 872:/home/phong/Documents/thesis/stm32f4/stm-idf/components/stm32f4xx_hal_driver/stm32f4xx_hal_rtc_ex.c **** 
 873:/home/phong/Documents/thesis/stm32f4/stm-idf/components/stm32f4xx_hal_driver/stm32f4xx_hal_rtc_ex.c ****         return HAL_TIMEOUT;
 874:/home/phong/Documents/thesis/stm32f4/stm-idf/components/stm32f4xx_hal_driver/stm32f4xx_hal_rtc_ex.c ****       }
 875:/home/phong/Documents/thesis/stm32f4/stm-idf/components/stm32f4xx_hal_driver/stm32f4xx_hal_rtc_ex.c ****     }
 876:/home/phong/Documents/thesis/stm32f4/stm-idf/components/stm32f4xx_hal_driver/stm32f4xx_hal_rtc_ex.c ****     while(__HAL_RTC_WAKEUPTIMER_GET_FLAG(hrtc, RTC_FLAG_WUTWF) == SET);
 1354              		.loc 1 876 0
 1355 0048 EB68     		ldr	r3, [r5, #12]
 1356 004a 13F0040F 		tst	r3, #4
 1357 004e F6D1     		bne	.L99
 1358              	.L97:
 877:/home/phong/Documents/thesis/stm32f4/stm-idf/components/stm32f4xx_hal_driver/stm32f4xx_hal_rtc_ex.c ****   }
 878:/home/phong/Documents/thesis/stm32f4/stm-idf/components/stm32f4xx_hal_driver/stm32f4xx_hal_rtc_ex.c **** 
 879:/home/phong/Documents/thesis/stm32f4/stm-idf/components/stm32f4xx_hal_driver/stm32f4xx_hal_rtc_ex.c ****   __HAL_RTC_WAKEUPTIMER_DISABLE(hrtc);
 1359              		.loc 1 879 0
 1360 0050 AB68     		ldr	r3, [r5, #8]
 1361 0052 23F48063 		bic	r3, r3, #1024
 1362 0056 AB60     		str	r3, [r5, #8]
 880:/home/phong/Documents/thesis/stm32f4/stm-idf/components/stm32f4xx_hal_driver/stm32f4xx_hal_rtc_ex.c **** 
 881:/home/phong/Documents/thesis/stm32f4/stm-idf/components/stm32f4xx_hal_driver/stm32f4xx_hal_rtc_ex.c ****   /* Wait till RTC WUTWF flag is set and if Time out is reached exit */
 882:/home/phong/Documents/thesis/stm32f4/stm-idf/components/stm32f4xx_hal_driver/stm32f4xx_hal_rtc_ex.c ****   count = RTC_TIMEOUT_VALUE  * (SystemCoreClock / 32U / 1000U);
 1363              		.loc 1 882 0
 1364 0058 2A4B     		ldr	r3, .L109
 1365 005a 1B68     		ldr	r3, [r3]
 1366 005c 2A4C     		ldr	r4, .L109+4
 1367 005e A4FB0343 		umull	r4, r3, r4, r3
 1368 0062 DB0A     		lsrs	r3, r3, #11
 1369 0064 4FF47A74 		mov	r4, #1000
 1370 0068 04FB03F3 		mul	r3, r4, r3
 1371 006c 0193     		str	r3, [sp, #4]
 1372              	.L101:
 883:/home/phong/Documents/thesis/stm32f4/stm-idf/components/stm32f4xx_hal_driver/stm32f4xx_hal_rtc_ex.c ****   do
 884:/home/phong/Documents/thesis/stm32f4/stm-idf/components/stm32f4xx_hal_driver/stm32f4xx_hal_rtc_ex.c ****   {
 885:/home/phong/Documents/thesis/stm32f4/stm-idf/components/stm32f4xx_hal_driver/stm32f4xx_hal_rtc_ex.c ****     if(count-- == 0U)
 1373              		.loc 1 885 0
 1374 006e 019B     		ldr	r3, [sp, #4]
 1375 0070 5C1E     		subs	r4, r3, #1
 1376 0072 0194     		str	r4, [sp, #4]
 1377 0074 002B     		cmp	r3, #0
 1378 0076 38D0     		beq	.L108
 886:/home/phong/Documents/thesis/stm32f4/stm-idf/components/stm32f4xx_hal_driver/stm32f4xx_hal_rtc_ex.c ****     {
 887:/home/phong/Documents/thesis/stm32f4/stm-idf/components/stm32f4xx_hal_driver/stm32f4xx_hal_rtc_ex.c ****       /* Enable the write protection for RTC registers */
 888:/home/phong/Documents/thesis/stm32f4/stm-idf/components/stm32f4xx_hal_driver/stm32f4xx_hal_rtc_ex.c ****       __HAL_RTC_WRITEPROTECTION_ENABLE(hrtc);
ARM GAS  /tmp/cc17vVDA.s 			page 41


 889:/home/phong/Documents/thesis/stm32f4/stm-idf/components/stm32f4xx_hal_driver/stm32f4xx_hal_rtc_ex.c **** 
 890:/home/phong/Documents/thesis/stm32f4/stm-idf/components/stm32f4xx_hal_driver/stm32f4xx_hal_rtc_ex.c ****       hrtc->State = HAL_RTC_STATE_TIMEOUT;
 891:/home/phong/Documents/thesis/stm32f4/stm-idf/components/stm32f4xx_hal_driver/stm32f4xx_hal_rtc_ex.c **** 
 892:/home/phong/Documents/thesis/stm32f4/stm-idf/components/stm32f4xx_hal_driver/stm32f4xx_hal_rtc_ex.c ****       /* Process Unlocked */
 893:/home/phong/Documents/thesis/stm32f4/stm-idf/components/stm32f4xx_hal_driver/stm32f4xx_hal_rtc_ex.c ****       __HAL_UNLOCK(hrtc);
 894:/home/phong/Documents/thesis/stm32f4/stm-idf/components/stm32f4xx_hal_driver/stm32f4xx_hal_rtc_ex.c **** 
 895:/home/phong/Documents/thesis/stm32f4/stm-idf/components/stm32f4xx_hal_driver/stm32f4xx_hal_rtc_ex.c ****       return HAL_TIMEOUT;
 896:/home/phong/Documents/thesis/stm32f4/stm-idf/components/stm32f4xx_hal_driver/stm32f4xx_hal_rtc_ex.c ****     }
 897:/home/phong/Documents/thesis/stm32f4/stm-idf/components/stm32f4xx_hal_driver/stm32f4xx_hal_rtc_ex.c ****   }
 898:/home/phong/Documents/thesis/stm32f4/stm-idf/components/stm32f4xx_hal_driver/stm32f4xx_hal_rtc_ex.c ****   while(__HAL_RTC_WAKEUPTIMER_GET_FLAG(hrtc, RTC_FLAG_WUTWF) == RESET);
 1379              		.loc 1 898 0
 1380 0078 0368     		ldr	r3, [r0]
 1381 007a DC68     		ldr	r4, [r3, #12]
 1382 007c 14F0040F 		tst	r4, #4
 1383 0080 F5D0     		beq	.L101
 899:/home/phong/Documents/thesis/stm32f4/stm-idf/components/stm32f4xx_hal_driver/stm32f4xx_hal_rtc_ex.c **** 
 900:/home/phong/Documents/thesis/stm32f4/stm-idf/components/stm32f4xx_hal_driver/stm32f4xx_hal_rtc_ex.c ****   /* Configure the Wake-up Timer counter */
 901:/home/phong/Documents/thesis/stm32f4/stm-idf/components/stm32f4xx_hal_driver/stm32f4xx_hal_rtc_ex.c ****   hrtc->Instance->WUTR = (uint32_t)WakeUpCounter;
 1384              		.loc 1 901 0
 1385 0082 5961     		str	r1, [r3, #20]
 902:/home/phong/Documents/thesis/stm32f4/stm-idf/components/stm32f4xx_hal_driver/stm32f4xx_hal_rtc_ex.c **** 
 903:/home/phong/Documents/thesis/stm32f4/stm-idf/components/stm32f4xx_hal_driver/stm32f4xx_hal_rtc_ex.c ****   /* Clear the Wake-up Timer clock source bits in CR register */
 904:/home/phong/Documents/thesis/stm32f4/stm-idf/components/stm32f4xx_hal_driver/stm32f4xx_hal_rtc_ex.c ****   hrtc->Instance->CR &= (uint32_t)~RTC_CR_WUCKSEL;
 1386              		.loc 1 904 0
 1387 0084 0168     		ldr	r1, [r0]
 1388              	.LVL106:
 1389 0086 8B68     		ldr	r3, [r1, #8]
 1390              	.LVL107:
 1391 0088 23F00703 		bic	r3, r3, #7
 1392 008c 8B60     		str	r3, [r1, #8]
 905:/home/phong/Documents/thesis/stm32f4/stm-idf/components/stm32f4xx_hal_driver/stm32f4xx_hal_rtc_ex.c **** 
 906:/home/phong/Documents/thesis/stm32f4/stm-idf/components/stm32f4xx_hal_driver/stm32f4xx_hal_rtc_ex.c ****   /* Configure the clock source */
 907:/home/phong/Documents/thesis/stm32f4/stm-idf/components/stm32f4xx_hal_driver/stm32f4xx_hal_rtc_ex.c ****   hrtc->Instance->CR |= (uint32_t)WakeUpClock;
 1393              		.loc 1 907 0
 1394 008e 0168     		ldr	r1, [r0]
 1395 0090 8B68     		ldr	r3, [r1, #8]
 1396 0092 1A43     		orrs	r2, r2, r3
 1397              	.LVL108:
 1398 0094 8A60     		str	r2, [r1, #8]
 908:/home/phong/Documents/thesis/stm32f4/stm-idf/components/stm32f4xx_hal_driver/stm32f4xx_hal_rtc_ex.c **** 
 909:/home/phong/Documents/thesis/stm32f4/stm-idf/components/stm32f4xx_hal_driver/stm32f4xx_hal_rtc_ex.c ****   /* RTC WakeUpTimer Interrupt Configuration: EXTI configuration */
 910:/home/phong/Documents/thesis/stm32f4/stm-idf/components/stm32f4xx_hal_driver/stm32f4xx_hal_rtc_ex.c ****   __HAL_RTC_WAKEUPTIMER_EXTI_ENABLE_IT();
 1399              		.loc 1 910 0
 1400 0096 1D4B     		ldr	r3, .L109+8
 1401 0098 1A68     		ldr	r2, [r3]
 1402 009a 42F48002 		orr	r2, r2, #4194304
 1403 009e 1A60     		str	r2, [r3]
 911:/home/phong/Documents/thesis/stm32f4/stm-idf/components/stm32f4xx_hal_driver/stm32f4xx_hal_rtc_ex.c **** 
 912:/home/phong/Documents/thesis/stm32f4/stm-idf/components/stm32f4xx_hal_driver/stm32f4xx_hal_rtc_ex.c ****   EXTI->RTSR |= RTC_EXTI_LINE_WAKEUPTIMER_EVENT;
 1404              		.loc 1 912 0
 1405 00a0 9A68     		ldr	r2, [r3, #8]
 1406 00a2 42F48002 		orr	r2, r2, #4194304
 1407 00a6 9A60     		str	r2, [r3, #8]
 913:/home/phong/Documents/thesis/stm32f4/stm-idf/components/stm32f4xx_hal_driver/stm32f4xx_hal_rtc_ex.c **** 
 914:/home/phong/Documents/thesis/stm32f4/stm-idf/components/stm32f4xx_hal_driver/stm32f4xx_hal_rtc_ex.c ****   /* Clear RTC Wake Up timer Flag */
 915:/home/phong/Documents/thesis/stm32f4/stm-idf/components/stm32f4xx_hal_driver/stm32f4xx_hal_rtc_ex.c ****   __HAL_RTC_WAKEUPTIMER_CLEAR_FLAG(hrtc, RTC_FLAG_WUTF);
 1408              		.loc 1 915 0
ARM GAS  /tmp/cc17vVDA.s 			page 42


 1409 00a8 0268     		ldr	r2, [r0]
 1410 00aa D368     		ldr	r3, [r2, #12]
 1411 00ac DBB2     		uxtb	r3, r3
 1412 00ae 63F49063 		orn	r3, r3, #1152
 1413 00b2 D360     		str	r3, [r2, #12]
 916:/home/phong/Documents/thesis/stm32f4/stm-idf/components/stm32f4xx_hal_driver/stm32f4xx_hal_rtc_ex.c **** 
 917:/home/phong/Documents/thesis/stm32f4/stm-idf/components/stm32f4xx_hal_driver/stm32f4xx_hal_rtc_ex.c ****   /* Configure the Interrupt in the RTC_CR register */
 918:/home/phong/Documents/thesis/stm32f4/stm-idf/components/stm32f4xx_hal_driver/stm32f4xx_hal_rtc_ex.c ****   __HAL_RTC_WAKEUPTIMER_ENABLE_IT(hrtc,RTC_IT_WUT);
 1414              		.loc 1 918 0
 1415 00b4 0268     		ldr	r2, [r0]
 1416 00b6 9368     		ldr	r3, [r2, #8]
 1417 00b8 43F48043 		orr	r3, r3, #16384
 1418 00bc 9360     		str	r3, [r2, #8]
 919:/home/phong/Documents/thesis/stm32f4/stm-idf/components/stm32f4xx_hal_driver/stm32f4xx_hal_rtc_ex.c **** 
 920:/home/phong/Documents/thesis/stm32f4/stm-idf/components/stm32f4xx_hal_driver/stm32f4xx_hal_rtc_ex.c ****   /* Enable the Wake-up Timer */
 921:/home/phong/Documents/thesis/stm32f4/stm-idf/components/stm32f4xx_hal_driver/stm32f4xx_hal_rtc_ex.c ****   __HAL_RTC_WAKEUPTIMER_ENABLE(hrtc);
 1419              		.loc 1 921 0
 1420 00be 0268     		ldr	r2, [r0]
 1421 00c0 9368     		ldr	r3, [r2, #8]
 1422 00c2 43F48063 		orr	r3, r3, #1024
 1423 00c6 9360     		str	r3, [r2, #8]
 922:/home/phong/Documents/thesis/stm32f4/stm-idf/components/stm32f4xx_hal_driver/stm32f4xx_hal_rtc_ex.c **** 
 923:/home/phong/Documents/thesis/stm32f4/stm-idf/components/stm32f4xx_hal_driver/stm32f4xx_hal_rtc_ex.c ****   /* Enable the write protection for RTC registers */
 924:/home/phong/Documents/thesis/stm32f4/stm-idf/components/stm32f4xx_hal_driver/stm32f4xx_hal_rtc_ex.c ****   __HAL_RTC_WRITEPROTECTION_ENABLE(hrtc);
 1424              		.loc 1 924 0
 1425 00c8 0368     		ldr	r3, [r0]
 1426 00ca FF22     		movs	r2, #255
 1427 00cc 5A62     		str	r2, [r3, #36]
 925:/home/phong/Documents/thesis/stm32f4/stm-idf/components/stm32f4xx_hal_driver/stm32f4xx_hal_rtc_ex.c **** 
 926:/home/phong/Documents/thesis/stm32f4/stm-idf/components/stm32f4xx_hal_driver/stm32f4xx_hal_rtc_ex.c ****   hrtc->State = HAL_RTC_STATE_READY;
 1428              		.loc 1 926 0
 1429 00ce 0123     		movs	r3, #1
 1430 00d0 4377     		strb	r3, [r0, #29]
 927:/home/phong/Documents/thesis/stm32f4/stm-idf/components/stm32f4xx_hal_driver/stm32f4xx_hal_rtc_ex.c **** 
 928:/home/phong/Documents/thesis/stm32f4/stm-idf/components/stm32f4xx_hal_driver/stm32f4xx_hal_rtc_ex.c ****   /* Process Unlocked */
 929:/home/phong/Documents/thesis/stm32f4/stm-idf/components/stm32f4xx_hal_driver/stm32f4xx_hal_rtc_ex.c ****   __HAL_UNLOCK(hrtc);
 1431              		.loc 1 929 0
 1432 00d2 0023     		movs	r3, #0
 1433 00d4 0377     		strb	r3, [r0, #28]
 930:/home/phong/Documents/thesis/stm32f4/stm-idf/components/stm32f4xx_hal_driver/stm32f4xx_hal_rtc_ex.c **** 
 931:/home/phong/Documents/thesis/stm32f4/stm-idf/components/stm32f4xx_hal_driver/stm32f4xx_hal_rtc_ex.c ****   return HAL_OK;
 1434              		.loc 1 931 0
 1435 00d6 1846     		mov	r0, r3
 1436              	.LVL109:
 1437 00d8 0FE0     		b	.L96
 1438              	.LVL110:
 1439              	.L107:
 866:/home/phong/Documents/thesis/stm32f4/stm-idf/components/stm32f4xx_hal_driver/stm32f4xx_hal_rtc_ex.c **** 
 1440              		.loc 1 866 0
 1441 00da FF23     		movs	r3, #255
 1442 00dc 6B62     		str	r3, [r5, #36]
 868:/home/phong/Documents/thesis/stm32f4/stm-idf/components/stm32f4xx_hal_driver/stm32f4xx_hal_rtc_ex.c **** 
 1443              		.loc 1 868 0
 1444 00de 0323     		movs	r3, #3
 1445 00e0 4377     		strb	r3, [r0, #29]
 871:/home/phong/Documents/thesis/stm32f4/stm-idf/components/stm32f4xx_hal_driver/stm32f4xx_hal_rtc_ex.c **** 
 1446              		.loc 1 871 0
ARM GAS  /tmp/cc17vVDA.s 			page 43


 1447 00e2 0022     		movs	r2, #0
 1448              	.LVL111:
 1449 00e4 0277     		strb	r2, [r0, #28]
 873:/home/phong/Documents/thesis/stm32f4/stm-idf/components/stm32f4xx_hal_driver/stm32f4xx_hal_rtc_ex.c ****       }
 1450              		.loc 1 873 0
 1451 00e6 1846     		mov	r0, r3
 1452              	.LVL112:
 1453 00e8 07E0     		b	.L96
 1454              	.LVL113:
 1455              	.L108:
 888:/home/phong/Documents/thesis/stm32f4/stm-idf/components/stm32f4xx_hal_driver/stm32f4xx_hal_rtc_ex.c **** 
 1456              		.loc 1 888 0
 1457 00ea 0368     		ldr	r3, [r0]
 1458 00ec FF22     		movs	r2, #255
 1459              	.LVL114:
 1460 00ee 5A62     		str	r2, [r3, #36]
 890:/home/phong/Documents/thesis/stm32f4/stm-idf/components/stm32f4xx_hal_driver/stm32f4xx_hal_rtc_ex.c **** 
 1461              		.loc 1 890 0
 1462 00f0 0323     		movs	r3, #3
 1463 00f2 4377     		strb	r3, [r0, #29]
 893:/home/phong/Documents/thesis/stm32f4/stm-idf/components/stm32f4xx_hal_driver/stm32f4xx_hal_rtc_ex.c **** 
 1464              		.loc 1 893 0
 1465 00f4 0022     		movs	r2, #0
 1466 00f6 0277     		strb	r2, [r0, #28]
 895:/home/phong/Documents/thesis/stm32f4/stm-idf/components/stm32f4xx_hal_driver/stm32f4xx_hal_rtc_ex.c ****     }
 1467              		.loc 1 895 0
 1468 00f8 1846     		mov	r0, r3
 1469              	.LVL115:
 1470              	.L96:
 932:/home/phong/Documents/thesis/stm32f4/stm-idf/components/stm32f4xx_hal_driver/stm32f4xx_hal_rtc_ex.c **** }
 1471              		.loc 1 932 0
 1472 00fa 02B0     		add	sp, sp, #8
 1473              	.LCFI22:
 1474              		.cfi_def_cfa_offset 8
 1475              		@ sp needed
 1476 00fc 30BC     		pop	{r4, r5}
 1477              	.LCFI23:
 1478              		.cfi_restore 5
 1479              		.cfi_restore 4
 1480              		.cfi_def_cfa_offset 0
 1481 00fe 7047     		bx	lr
 1482              	.LVL116:
 1483              	.L102:
 849:/home/phong/Documents/thesis/stm32f4/stm-idf/components/stm32f4xx_hal_driver/stm32f4xx_hal_rtc_ex.c **** 
 1484              		.loc 1 849 0
 1485 0100 0220     		movs	r0, #2
 1486              	.LVL117:
 1487 0102 7047     		bx	lr
 1488              	.L110:
 1489              		.align	2
 1490              	.L109:
 1491 0104 00000000 		.word	SystemCoreClock
 1492 0108 D34D6210 		.word	274877907
 1493 010c 003C0140 		.word	1073822720
 1494              		.cfi_endproc
 1495              	.LFE145:
 1497              		.section	.text.HAL_RTCEx_DeactivateWakeUpTimer,"ax",%progbits
ARM GAS  /tmp/cc17vVDA.s 			page 44


 1498              		.align	1
 1499              		.global	HAL_RTCEx_DeactivateWakeUpTimer
 1500              		.syntax unified
 1501              		.thumb
 1502              		.thumb_func
 1503              		.fpu fpv4-sp-d16
 1505              	HAL_RTCEx_DeactivateWakeUpTimer:
 1506              	.LFB146:
 933:/home/phong/Documents/thesis/stm32f4/stm-idf/components/stm32f4xx_hal_driver/stm32f4xx_hal_rtc_ex.c **** 
 934:/home/phong/Documents/thesis/stm32f4/stm-idf/components/stm32f4xx_hal_driver/stm32f4xx_hal_rtc_ex.c **** /**
 935:/home/phong/Documents/thesis/stm32f4/stm-idf/components/stm32f4xx_hal_driver/stm32f4xx_hal_rtc_ex.c ****   * @brief  Deactivates wake up timer counter.
 936:/home/phong/Documents/thesis/stm32f4/stm-idf/components/stm32f4xx_hal_driver/stm32f4xx_hal_rtc_ex.c ****   * @param  hrtc pointer to a RTC_HandleTypeDef structure that contains
 937:/home/phong/Documents/thesis/stm32f4/stm-idf/components/stm32f4xx_hal_driver/stm32f4xx_hal_rtc_ex.c ****   *                the configuration information for RTC.
 938:/home/phong/Documents/thesis/stm32f4/stm-idf/components/stm32f4xx_hal_driver/stm32f4xx_hal_rtc_ex.c ****   * @retval HAL status
 939:/home/phong/Documents/thesis/stm32f4/stm-idf/components/stm32f4xx_hal_driver/stm32f4xx_hal_rtc_ex.c ****   */
 940:/home/phong/Documents/thesis/stm32f4/stm-idf/components/stm32f4xx_hal_driver/stm32f4xx_hal_rtc_ex.c **** uint32_t HAL_RTCEx_DeactivateWakeUpTimer(RTC_HandleTypeDef *hrtc)
 941:/home/phong/Documents/thesis/stm32f4/stm-idf/components/stm32f4xx_hal_driver/stm32f4xx_hal_rtc_ex.c **** {
 1507              		.loc 1 941 0
 1508              		.cfi_startproc
 1509              		@ args = 0, pretend = 0, frame = 0
 1510              		@ frame_needed = 0, uses_anonymous_args = 0
 1511              	.LVL118:
 1512 0000 38B5     		push	{r3, r4, r5, lr}
 1513              	.LCFI24:
 1514              		.cfi_def_cfa_offset 16
 1515              		.cfi_offset 3, -16
 1516              		.cfi_offset 4, -12
 1517              		.cfi_offset 5, -8
 1518              		.cfi_offset 14, -4
 1519              	.LVL119:
 942:/home/phong/Documents/thesis/stm32f4/stm-idf/components/stm32f4xx_hal_driver/stm32f4xx_hal_rtc_ex.c ****   uint32_t tickstart = 0U;
 943:/home/phong/Documents/thesis/stm32f4/stm-idf/components/stm32f4xx_hal_driver/stm32f4xx_hal_rtc_ex.c **** 
 944:/home/phong/Documents/thesis/stm32f4/stm-idf/components/stm32f4xx_hal_driver/stm32f4xx_hal_rtc_ex.c ****   /* Process Locked */
 945:/home/phong/Documents/thesis/stm32f4/stm-idf/components/stm32f4xx_hal_driver/stm32f4xx_hal_rtc_ex.c ****   __HAL_LOCK(hrtc);
 1520              		.loc 1 945 0
 1521 0002 037F     		ldrb	r3, [r0, #28]	@ zero_extendqisi2
 1522 0004 012B     		cmp	r3, #1
 1523 0006 01D1     		bne	.L117
 1524 0008 0220     		movs	r0, #2
 1525              	.LVL120:
 946:/home/phong/Documents/thesis/stm32f4/stm-idf/components/stm32f4xx_hal_driver/stm32f4xx_hal_rtc_ex.c **** 
 947:/home/phong/Documents/thesis/stm32f4/stm-idf/components/stm32f4xx_hal_driver/stm32f4xx_hal_rtc_ex.c ****   hrtc->State = HAL_RTC_STATE_BUSY;
 948:/home/phong/Documents/thesis/stm32f4/stm-idf/components/stm32f4xx_hal_driver/stm32f4xx_hal_rtc_ex.c **** 
 949:/home/phong/Documents/thesis/stm32f4/stm-idf/components/stm32f4xx_hal_driver/stm32f4xx_hal_rtc_ex.c ****   /* Disable the write protection for RTC registers */
 950:/home/phong/Documents/thesis/stm32f4/stm-idf/components/stm32f4xx_hal_driver/stm32f4xx_hal_rtc_ex.c ****   __HAL_RTC_WRITEPROTECTION_DISABLE(hrtc);
 951:/home/phong/Documents/thesis/stm32f4/stm-idf/components/stm32f4xx_hal_driver/stm32f4xx_hal_rtc_ex.c **** 
 952:/home/phong/Documents/thesis/stm32f4/stm-idf/components/stm32f4xx_hal_driver/stm32f4xx_hal_rtc_ex.c ****   /* Disable the Wake-up Timer */
 953:/home/phong/Documents/thesis/stm32f4/stm-idf/components/stm32f4xx_hal_driver/stm32f4xx_hal_rtc_ex.c ****   __HAL_RTC_WAKEUPTIMER_DISABLE(hrtc);
 954:/home/phong/Documents/thesis/stm32f4/stm-idf/components/stm32f4xx_hal_driver/stm32f4xx_hal_rtc_ex.c **** 
 955:/home/phong/Documents/thesis/stm32f4/stm-idf/components/stm32f4xx_hal_driver/stm32f4xx_hal_rtc_ex.c ****   /* In case of interrupt mode is used, the interrupt source must disabled */
 956:/home/phong/Documents/thesis/stm32f4/stm-idf/components/stm32f4xx_hal_driver/stm32f4xx_hal_rtc_ex.c ****   __HAL_RTC_WAKEUPTIMER_DISABLE_IT(hrtc,RTC_IT_WUT);
 957:/home/phong/Documents/thesis/stm32f4/stm-idf/components/stm32f4xx_hal_driver/stm32f4xx_hal_rtc_ex.c **** 
 958:/home/phong/Documents/thesis/stm32f4/stm-idf/components/stm32f4xx_hal_driver/stm32f4xx_hal_rtc_ex.c ****   /* Get tick */
 959:/home/phong/Documents/thesis/stm32f4/stm-idf/components/stm32f4xx_hal_driver/stm32f4xx_hal_rtc_ex.c ****   tickstart = HAL_GetTick();
 960:/home/phong/Documents/thesis/stm32f4/stm-idf/components/stm32f4xx_hal_driver/stm32f4xx_hal_rtc_ex.c **** 
 961:/home/phong/Documents/thesis/stm32f4/stm-idf/components/stm32f4xx_hal_driver/stm32f4xx_hal_rtc_ex.c ****   /* Wait till RTC WUTWF flag is set and if Time out is reached exit */
 962:/home/phong/Documents/thesis/stm32f4/stm-idf/components/stm32f4xx_hal_driver/stm32f4xx_hal_rtc_ex.c ****   while(__HAL_RTC_WAKEUPTIMER_GET_FLAG(hrtc, RTC_FLAG_WUTWF) == RESET)
ARM GAS  /tmp/cc17vVDA.s 			page 45


 963:/home/phong/Documents/thesis/stm32f4/stm-idf/components/stm32f4xx_hal_driver/stm32f4xx_hal_rtc_ex.c ****   {
 964:/home/phong/Documents/thesis/stm32f4/stm-idf/components/stm32f4xx_hal_driver/stm32f4xx_hal_rtc_ex.c ****     if((HAL_GetTick() - tickstart ) > RTC_TIMEOUT_VALUE)
 965:/home/phong/Documents/thesis/stm32f4/stm-idf/components/stm32f4xx_hal_driver/stm32f4xx_hal_rtc_ex.c ****     {
 966:/home/phong/Documents/thesis/stm32f4/stm-idf/components/stm32f4xx_hal_driver/stm32f4xx_hal_rtc_ex.c ****       /* Enable the write protection for RTC registers */
 967:/home/phong/Documents/thesis/stm32f4/stm-idf/components/stm32f4xx_hal_driver/stm32f4xx_hal_rtc_ex.c ****       __HAL_RTC_WRITEPROTECTION_ENABLE(hrtc);
 968:/home/phong/Documents/thesis/stm32f4/stm-idf/components/stm32f4xx_hal_driver/stm32f4xx_hal_rtc_ex.c **** 
 969:/home/phong/Documents/thesis/stm32f4/stm-idf/components/stm32f4xx_hal_driver/stm32f4xx_hal_rtc_ex.c ****       hrtc->State = HAL_RTC_STATE_TIMEOUT;
 970:/home/phong/Documents/thesis/stm32f4/stm-idf/components/stm32f4xx_hal_driver/stm32f4xx_hal_rtc_ex.c **** 
 971:/home/phong/Documents/thesis/stm32f4/stm-idf/components/stm32f4xx_hal_driver/stm32f4xx_hal_rtc_ex.c ****       /* Process Unlocked */
 972:/home/phong/Documents/thesis/stm32f4/stm-idf/components/stm32f4xx_hal_driver/stm32f4xx_hal_rtc_ex.c ****       __HAL_UNLOCK(hrtc);
 973:/home/phong/Documents/thesis/stm32f4/stm-idf/components/stm32f4xx_hal_driver/stm32f4xx_hal_rtc_ex.c **** 
 974:/home/phong/Documents/thesis/stm32f4/stm-idf/components/stm32f4xx_hal_driver/stm32f4xx_hal_rtc_ex.c ****       return HAL_TIMEOUT;
 975:/home/phong/Documents/thesis/stm32f4/stm-idf/components/stm32f4xx_hal_driver/stm32f4xx_hal_rtc_ex.c ****     }
 976:/home/phong/Documents/thesis/stm32f4/stm-idf/components/stm32f4xx_hal_driver/stm32f4xx_hal_rtc_ex.c ****   }
 977:/home/phong/Documents/thesis/stm32f4/stm-idf/components/stm32f4xx_hal_driver/stm32f4xx_hal_rtc_ex.c **** 
 978:/home/phong/Documents/thesis/stm32f4/stm-idf/components/stm32f4xx_hal_driver/stm32f4xx_hal_rtc_ex.c ****   /* Enable the write protection for RTC registers */
 979:/home/phong/Documents/thesis/stm32f4/stm-idf/components/stm32f4xx_hal_driver/stm32f4xx_hal_rtc_ex.c ****   __HAL_RTC_WRITEPROTECTION_ENABLE(hrtc);
 980:/home/phong/Documents/thesis/stm32f4/stm-idf/components/stm32f4xx_hal_driver/stm32f4xx_hal_rtc_ex.c **** 
 981:/home/phong/Documents/thesis/stm32f4/stm-idf/components/stm32f4xx_hal_driver/stm32f4xx_hal_rtc_ex.c ****   hrtc->State = HAL_RTC_STATE_READY;
 982:/home/phong/Documents/thesis/stm32f4/stm-idf/components/stm32f4xx_hal_driver/stm32f4xx_hal_rtc_ex.c **** 
 983:/home/phong/Documents/thesis/stm32f4/stm-idf/components/stm32f4xx_hal_driver/stm32f4xx_hal_rtc_ex.c ****   /* Process Unlocked */
 984:/home/phong/Documents/thesis/stm32f4/stm-idf/components/stm32f4xx_hal_driver/stm32f4xx_hal_rtc_ex.c ****   __HAL_UNLOCK(hrtc);
 985:/home/phong/Documents/thesis/stm32f4/stm-idf/components/stm32f4xx_hal_driver/stm32f4xx_hal_rtc_ex.c **** 
 986:/home/phong/Documents/thesis/stm32f4/stm-idf/components/stm32f4xx_hal_driver/stm32f4xx_hal_rtc_ex.c ****   return HAL_OK;
 987:/home/phong/Documents/thesis/stm32f4/stm-idf/components/stm32f4xx_hal_driver/stm32f4xx_hal_rtc_ex.c **** }
 1526              		.loc 1 987 0
 1527 000a 38BD     		pop	{r3, r4, r5, pc}
 1528              	.LVL121:
 1529              	.L117:
 1530 000c 0446     		mov	r4, r0
 945:/home/phong/Documents/thesis/stm32f4/stm-idf/components/stm32f4xx_hal_driver/stm32f4xx_hal_rtc_ex.c **** 
 1531              		.loc 1 945 0 discriminator 2
 1532 000e 0123     		movs	r3, #1
 1533 0010 0377     		strb	r3, [r0, #28]
 947:/home/phong/Documents/thesis/stm32f4/stm-idf/components/stm32f4xx_hal_driver/stm32f4xx_hal_rtc_ex.c **** 
 1534              		.loc 1 947 0 discriminator 2
 1535 0012 0223     		movs	r3, #2
 1536 0014 4377     		strb	r3, [r0, #29]
 950:/home/phong/Documents/thesis/stm32f4/stm-idf/components/stm32f4xx_hal_driver/stm32f4xx_hal_rtc_ex.c **** 
 1537              		.loc 1 950 0 discriminator 2
 1538 0016 0368     		ldr	r3, [r0]
 1539 0018 CA22     		movs	r2, #202
 1540 001a 5A62     		str	r2, [r3, #36]
 1541 001c 0368     		ldr	r3, [r0]
 1542 001e 5322     		movs	r2, #83
 1543 0020 5A62     		str	r2, [r3, #36]
 953:/home/phong/Documents/thesis/stm32f4/stm-idf/components/stm32f4xx_hal_driver/stm32f4xx_hal_rtc_ex.c **** 
 1544              		.loc 1 953 0 discriminator 2
 1545 0022 0268     		ldr	r2, [r0]
 1546 0024 9368     		ldr	r3, [r2, #8]
 1547 0026 23F48063 		bic	r3, r3, #1024
 1548 002a 9360     		str	r3, [r2, #8]
 956:/home/phong/Documents/thesis/stm32f4/stm-idf/components/stm32f4xx_hal_driver/stm32f4xx_hal_rtc_ex.c **** 
 1549              		.loc 1 956 0 discriminator 2
 1550 002c 0268     		ldr	r2, [r0]
 1551 002e 9368     		ldr	r3, [r2, #8]
 1552 0030 23F48043 		bic	r3, r3, #16384
ARM GAS  /tmp/cc17vVDA.s 			page 46


 1553 0034 9360     		str	r3, [r2, #8]
 959:/home/phong/Documents/thesis/stm32f4/stm-idf/components/stm32f4xx_hal_driver/stm32f4xx_hal_rtc_ex.c **** 
 1554              		.loc 1 959 0 discriminator 2
 1555 0036 FFF7FEFF 		bl	HAL_GetTick
 1556              	.LVL122:
 1557 003a 0546     		mov	r5, r0
 1558              	.LVL123:
 1559              	.L113:
 962:/home/phong/Documents/thesis/stm32f4/stm-idf/components/stm32f4xx_hal_driver/stm32f4xx_hal_rtc_ex.c ****   {
 1560              		.loc 1 962 0
 1561 003c 2368     		ldr	r3, [r4]
 1562 003e DA68     		ldr	r2, [r3, #12]
 1563 0040 12F0040F 		tst	r2, #4
 1564 0044 0DD1     		bne	.L118
 964:/home/phong/Documents/thesis/stm32f4/stm-idf/components/stm32f4xx_hal_driver/stm32f4xx_hal_rtc_ex.c ****     {
 1565              		.loc 1 964 0
 1566 0046 FFF7FEFF 		bl	HAL_GetTick
 1567              	.LVL124:
 1568 004a 401B     		subs	r0, r0, r5
 1569 004c B0F57A7F 		cmp	r0, #1000
 1570 0050 F4D9     		bls	.L113
 967:/home/phong/Documents/thesis/stm32f4/stm-idf/components/stm32f4xx_hal_driver/stm32f4xx_hal_rtc_ex.c **** 
 1571              		.loc 1 967 0
 1572 0052 2368     		ldr	r3, [r4]
 1573 0054 FF22     		movs	r2, #255
 1574 0056 5A62     		str	r2, [r3, #36]
 969:/home/phong/Documents/thesis/stm32f4/stm-idf/components/stm32f4xx_hal_driver/stm32f4xx_hal_rtc_ex.c **** 
 1575              		.loc 1 969 0
 1576 0058 0320     		movs	r0, #3
 1577 005a 6077     		strb	r0, [r4, #29]
 972:/home/phong/Documents/thesis/stm32f4/stm-idf/components/stm32f4xx_hal_driver/stm32f4xx_hal_rtc_ex.c **** 
 1578              		.loc 1 972 0
 1579 005c 0023     		movs	r3, #0
 1580 005e 2377     		strb	r3, [r4, #28]
 974:/home/phong/Documents/thesis/stm32f4/stm-idf/components/stm32f4xx_hal_driver/stm32f4xx_hal_rtc_ex.c ****     }
 1581              		.loc 1 974 0
 1582 0060 38BD     		pop	{r3, r4, r5, pc}
 1583              	.LVL125:
 1584              	.L118:
 979:/home/phong/Documents/thesis/stm32f4/stm-idf/components/stm32f4xx_hal_driver/stm32f4xx_hal_rtc_ex.c **** 
 1585              		.loc 1 979 0
 1586 0062 FF22     		movs	r2, #255
 1587 0064 5A62     		str	r2, [r3, #36]
 981:/home/phong/Documents/thesis/stm32f4/stm-idf/components/stm32f4xx_hal_driver/stm32f4xx_hal_rtc_ex.c **** 
 1588              		.loc 1 981 0
 1589 0066 0123     		movs	r3, #1
 1590 0068 6377     		strb	r3, [r4, #29]
 984:/home/phong/Documents/thesis/stm32f4/stm-idf/components/stm32f4xx_hal_driver/stm32f4xx_hal_rtc_ex.c **** 
 1591              		.loc 1 984 0
 1592 006a 0020     		movs	r0, #0
 1593 006c 2077     		strb	r0, [r4, #28]
 986:/home/phong/Documents/thesis/stm32f4/stm-idf/components/stm32f4xx_hal_driver/stm32f4xx_hal_rtc_ex.c **** }
 1594              		.loc 1 986 0
 1595 006e 38BD     		pop	{r3, r4, r5, pc}
 1596              		.cfi_endproc
 1597              	.LFE146:
 1599              		.section	.text.HAL_RTCEx_GetWakeUpTimer,"ax",%progbits
ARM GAS  /tmp/cc17vVDA.s 			page 47


 1600              		.align	1
 1601              		.global	HAL_RTCEx_GetWakeUpTimer
 1602              		.syntax unified
 1603              		.thumb
 1604              		.thumb_func
 1605              		.fpu fpv4-sp-d16
 1607              	HAL_RTCEx_GetWakeUpTimer:
 1608              	.LFB147:
 988:/home/phong/Documents/thesis/stm32f4/stm-idf/components/stm32f4xx_hal_driver/stm32f4xx_hal_rtc_ex.c **** 
 989:/home/phong/Documents/thesis/stm32f4/stm-idf/components/stm32f4xx_hal_driver/stm32f4xx_hal_rtc_ex.c **** /**
 990:/home/phong/Documents/thesis/stm32f4/stm-idf/components/stm32f4xx_hal_driver/stm32f4xx_hal_rtc_ex.c ****   * @brief  Gets wake up timer counter.
 991:/home/phong/Documents/thesis/stm32f4/stm-idf/components/stm32f4xx_hal_driver/stm32f4xx_hal_rtc_ex.c ****   * @param  hrtc pointer to a RTC_HandleTypeDef structure that contains
 992:/home/phong/Documents/thesis/stm32f4/stm-idf/components/stm32f4xx_hal_driver/stm32f4xx_hal_rtc_ex.c ****   *                the configuration information for RTC.
 993:/home/phong/Documents/thesis/stm32f4/stm-idf/components/stm32f4xx_hal_driver/stm32f4xx_hal_rtc_ex.c ****   * @retval Counter value
 994:/home/phong/Documents/thesis/stm32f4/stm-idf/components/stm32f4xx_hal_driver/stm32f4xx_hal_rtc_ex.c ****   */
 995:/home/phong/Documents/thesis/stm32f4/stm-idf/components/stm32f4xx_hal_driver/stm32f4xx_hal_rtc_ex.c **** uint32_t HAL_RTCEx_GetWakeUpTimer(RTC_HandleTypeDef *hrtc)
 996:/home/phong/Documents/thesis/stm32f4/stm-idf/components/stm32f4xx_hal_driver/stm32f4xx_hal_rtc_ex.c **** {
 1609              		.loc 1 996 0
 1610              		.cfi_startproc
 1611              		@ args = 0, pretend = 0, frame = 0
 1612              		@ frame_needed = 0, uses_anonymous_args = 0
 1613              		@ link register save eliminated.
 1614              	.LVL126:
 997:/home/phong/Documents/thesis/stm32f4/stm-idf/components/stm32f4xx_hal_driver/stm32f4xx_hal_rtc_ex.c ****   /* Get the counter value */
 998:/home/phong/Documents/thesis/stm32f4/stm-idf/components/stm32f4xx_hal_driver/stm32f4xx_hal_rtc_ex.c ****   return ((uint32_t)(hrtc->Instance->WUTR & RTC_WUTR_WUT));
 1615              		.loc 1 998 0
 1616 0000 0368     		ldr	r3, [r0]
 1617 0002 5869     		ldr	r0, [r3, #20]
 1618              	.LVL127:
 999:/home/phong/Documents/thesis/stm32f4/stm-idf/components/stm32f4xx_hal_driver/stm32f4xx_hal_rtc_ex.c **** }
 1619              		.loc 1 999 0
 1620 0004 80B2     		uxth	r0, r0
 1621 0006 7047     		bx	lr
 1622              		.cfi_endproc
 1623              	.LFE147:
 1625              		.section	.text.HAL_RTCEx_WakeUpTimerEventCallback,"ax",%progbits
 1626              		.align	1
 1627              		.weak	HAL_RTCEx_WakeUpTimerEventCallback
 1628              		.syntax unified
 1629              		.thumb
 1630              		.thumb_func
 1631              		.fpu fpv4-sp-d16
 1633              	HAL_RTCEx_WakeUpTimerEventCallback:
 1634              	.LFB149:
1000:/home/phong/Documents/thesis/stm32f4/stm-idf/components/stm32f4xx_hal_driver/stm32f4xx_hal_rtc_ex.c **** 
1001:/home/phong/Documents/thesis/stm32f4/stm-idf/components/stm32f4xx_hal_driver/stm32f4xx_hal_rtc_ex.c **** /**
1002:/home/phong/Documents/thesis/stm32f4/stm-idf/components/stm32f4xx_hal_driver/stm32f4xx_hal_rtc_ex.c ****   * @brief  This function handles Wake Up Timer interrupt request.
1003:/home/phong/Documents/thesis/stm32f4/stm-idf/components/stm32f4xx_hal_driver/stm32f4xx_hal_rtc_ex.c ****   * @note   Unlike alarm interrupt line (shared by AlarmA and AlarmB) and tamper
1004:/home/phong/Documents/thesis/stm32f4/stm-idf/components/stm32f4xx_hal_driver/stm32f4xx_hal_rtc_ex.c ****   *         interrupt line (shared by timestamp and tampers) wakeup timer
1005:/home/phong/Documents/thesis/stm32f4/stm-idf/components/stm32f4xx_hal_driver/stm32f4xx_hal_rtc_ex.c ****   *         interrupt line is exclusive to the wakeup timer.
1006:/home/phong/Documents/thesis/stm32f4/stm-idf/components/stm32f4xx_hal_driver/stm32f4xx_hal_rtc_ex.c ****   *         There is no need in this case to check on the interrupt enable
1007:/home/phong/Documents/thesis/stm32f4/stm-idf/components/stm32f4xx_hal_driver/stm32f4xx_hal_rtc_ex.c ****   *         status via __HAL_RTC_WAKEUPTIMER_GET_IT_SOURCE().
1008:/home/phong/Documents/thesis/stm32f4/stm-idf/components/stm32f4xx_hal_driver/stm32f4xx_hal_rtc_ex.c ****   * @param  hrtc pointer to a RTC_HandleTypeDef structure that contains
1009:/home/phong/Documents/thesis/stm32f4/stm-idf/components/stm32f4xx_hal_driver/stm32f4xx_hal_rtc_ex.c ****   *                the configuration information for RTC.
1010:/home/phong/Documents/thesis/stm32f4/stm-idf/components/stm32f4xx_hal_driver/stm32f4xx_hal_rtc_ex.c ****   * @retval None
1011:/home/phong/Documents/thesis/stm32f4/stm-idf/components/stm32f4xx_hal_driver/stm32f4xx_hal_rtc_ex.c ****   */
1012:/home/phong/Documents/thesis/stm32f4/stm-idf/components/stm32f4xx_hal_driver/stm32f4xx_hal_rtc_ex.c **** void HAL_RTCEx_WakeUpTimerIRQHandler(RTC_HandleTypeDef *hrtc)
ARM GAS  /tmp/cc17vVDA.s 			page 48


1013:/home/phong/Documents/thesis/stm32f4/stm-idf/components/stm32f4xx_hal_driver/stm32f4xx_hal_rtc_ex.c **** {
1014:/home/phong/Documents/thesis/stm32f4/stm-idf/components/stm32f4xx_hal_driver/stm32f4xx_hal_rtc_ex.c ****   /* Get the pending status of the WAKEUPTIMER Interrupt */
1015:/home/phong/Documents/thesis/stm32f4/stm-idf/components/stm32f4xx_hal_driver/stm32f4xx_hal_rtc_ex.c ****   if(__HAL_RTC_WAKEUPTIMER_GET_FLAG(hrtc, RTC_FLAG_WUTF) != (uint32_t)RESET)
1016:/home/phong/Documents/thesis/stm32f4/stm-idf/components/stm32f4xx_hal_driver/stm32f4xx_hal_rtc_ex.c ****   {
1017:/home/phong/Documents/thesis/stm32f4/stm-idf/components/stm32f4xx_hal_driver/stm32f4xx_hal_rtc_ex.c ****     /* WAKEUPTIMER callback */
1018:/home/phong/Documents/thesis/stm32f4/stm-idf/components/stm32f4xx_hal_driver/stm32f4xx_hal_rtc_ex.c **** #if (USE_HAL_RTC_REGISTER_CALLBACKS == 1)
1019:/home/phong/Documents/thesis/stm32f4/stm-idf/components/stm32f4xx_hal_driver/stm32f4xx_hal_rtc_ex.c ****     hrtc->WakeUpTimerEventCallback(hrtc);
1020:/home/phong/Documents/thesis/stm32f4/stm-idf/components/stm32f4xx_hal_driver/stm32f4xx_hal_rtc_ex.c **** #else
1021:/home/phong/Documents/thesis/stm32f4/stm-idf/components/stm32f4xx_hal_driver/stm32f4xx_hal_rtc_ex.c ****     HAL_RTCEx_WakeUpTimerEventCallback(hrtc);
1022:/home/phong/Documents/thesis/stm32f4/stm-idf/components/stm32f4xx_hal_driver/stm32f4xx_hal_rtc_ex.c **** #endif /* USE_HAL_RTC_REGISTER_CALLBACKS */
1023:/home/phong/Documents/thesis/stm32f4/stm-idf/components/stm32f4xx_hal_driver/stm32f4xx_hal_rtc_ex.c **** 
1024:/home/phong/Documents/thesis/stm32f4/stm-idf/components/stm32f4xx_hal_driver/stm32f4xx_hal_rtc_ex.c ****     /* Clear the WAKEUPTIMER interrupt pending bit */
1025:/home/phong/Documents/thesis/stm32f4/stm-idf/components/stm32f4xx_hal_driver/stm32f4xx_hal_rtc_ex.c ****     __HAL_RTC_WAKEUPTIMER_CLEAR_FLAG(hrtc, RTC_FLAG_WUTF);
1026:/home/phong/Documents/thesis/stm32f4/stm-idf/components/stm32f4xx_hal_driver/stm32f4xx_hal_rtc_ex.c ****   }
1027:/home/phong/Documents/thesis/stm32f4/stm-idf/components/stm32f4xx_hal_driver/stm32f4xx_hal_rtc_ex.c **** 
1028:/home/phong/Documents/thesis/stm32f4/stm-idf/components/stm32f4xx_hal_driver/stm32f4xx_hal_rtc_ex.c ****   /* Clear the EXTI's line Flag for RTC WakeUpTimer */
1029:/home/phong/Documents/thesis/stm32f4/stm-idf/components/stm32f4xx_hal_driver/stm32f4xx_hal_rtc_ex.c ****   __HAL_RTC_WAKEUPTIMER_EXTI_CLEAR_FLAG();
1030:/home/phong/Documents/thesis/stm32f4/stm-idf/components/stm32f4xx_hal_driver/stm32f4xx_hal_rtc_ex.c **** 
1031:/home/phong/Documents/thesis/stm32f4/stm-idf/components/stm32f4xx_hal_driver/stm32f4xx_hal_rtc_ex.c ****   /* Change RTC state */
1032:/home/phong/Documents/thesis/stm32f4/stm-idf/components/stm32f4xx_hal_driver/stm32f4xx_hal_rtc_ex.c ****   hrtc->State = HAL_RTC_STATE_READY;
1033:/home/phong/Documents/thesis/stm32f4/stm-idf/components/stm32f4xx_hal_driver/stm32f4xx_hal_rtc_ex.c **** }
1034:/home/phong/Documents/thesis/stm32f4/stm-idf/components/stm32f4xx_hal_driver/stm32f4xx_hal_rtc_ex.c **** 
1035:/home/phong/Documents/thesis/stm32f4/stm-idf/components/stm32f4xx_hal_driver/stm32f4xx_hal_rtc_ex.c **** /**
1036:/home/phong/Documents/thesis/stm32f4/stm-idf/components/stm32f4xx_hal_driver/stm32f4xx_hal_rtc_ex.c ****   * @brief  Wake Up Timer callback.
1037:/home/phong/Documents/thesis/stm32f4/stm-idf/components/stm32f4xx_hal_driver/stm32f4xx_hal_rtc_ex.c ****   * @param  hrtc pointer to a RTC_HandleTypeDef structure that contains
1038:/home/phong/Documents/thesis/stm32f4/stm-idf/components/stm32f4xx_hal_driver/stm32f4xx_hal_rtc_ex.c ****   *                the configuration information for RTC.
1039:/home/phong/Documents/thesis/stm32f4/stm-idf/components/stm32f4xx_hal_driver/stm32f4xx_hal_rtc_ex.c ****   * @retval None
1040:/home/phong/Documents/thesis/stm32f4/stm-idf/components/stm32f4xx_hal_driver/stm32f4xx_hal_rtc_ex.c ****   */
1041:/home/phong/Documents/thesis/stm32f4/stm-idf/components/stm32f4xx_hal_driver/stm32f4xx_hal_rtc_ex.c **** __weak void HAL_RTCEx_WakeUpTimerEventCallback(RTC_HandleTypeDef *hrtc)
1042:/home/phong/Documents/thesis/stm32f4/stm-idf/components/stm32f4xx_hal_driver/stm32f4xx_hal_rtc_ex.c **** {
 1635              		.loc 1 1042 0
 1636              		.cfi_startproc
 1637              		@ args = 0, pretend = 0, frame = 0
 1638              		@ frame_needed = 0, uses_anonymous_args = 0
 1639              		@ link register save eliminated.
 1640              	.LVL128:
 1641 0000 7047     		bx	lr
 1642              		.cfi_endproc
 1643              	.LFE149:
 1645              		.section	.text.HAL_RTCEx_WakeUpTimerIRQHandler,"ax",%progbits
 1646              		.align	1
 1647              		.global	HAL_RTCEx_WakeUpTimerIRQHandler
 1648              		.syntax unified
 1649              		.thumb
 1650              		.thumb_func
 1651              		.fpu fpv4-sp-d16
 1653              	HAL_RTCEx_WakeUpTimerIRQHandler:
 1654              	.LFB148:
1013:/home/phong/Documents/thesis/stm32f4/stm-idf/components/stm32f4xx_hal_driver/stm32f4xx_hal_rtc_ex.c ****   /* Get the pending status of the WAKEUPTIMER Interrupt */
 1655              		.loc 1 1013 0
 1656              		.cfi_startproc
 1657              		@ args = 0, pretend = 0, frame = 0
 1658              		@ frame_needed = 0, uses_anonymous_args = 0
 1659              	.LVL129:
1013:/home/phong/Documents/thesis/stm32f4/stm-idf/components/stm32f4xx_hal_driver/stm32f4xx_hal_rtc_ex.c ****   /* Get the pending status of the WAKEUPTIMER Interrupt */
 1660              		.loc 1 1013 0
 1661 0000 10B5     		push	{r4, lr}
ARM GAS  /tmp/cc17vVDA.s 			page 49


 1662              	.LCFI25:
 1663              		.cfi_def_cfa_offset 8
 1664              		.cfi_offset 4, -8
 1665              		.cfi_offset 14, -4
 1666 0002 0446     		mov	r4, r0
1015:/home/phong/Documents/thesis/stm32f4/stm-idf/components/stm32f4xx_hal_driver/stm32f4xx_hal_rtc_ex.c ****   {
 1667              		.loc 1 1015 0
 1668 0004 0368     		ldr	r3, [r0]
 1669 0006 DB68     		ldr	r3, [r3, #12]
 1670 0008 13F4806F 		tst	r3, #1024
 1671 000c 06D1     		bne	.L124
 1672              	.LVL130:
 1673              	.L122:
1029:/home/phong/Documents/thesis/stm32f4/stm-idf/components/stm32f4xx_hal_driver/stm32f4xx_hal_rtc_ex.c **** 
 1674              		.loc 1 1029 0
 1675 000e 4FF48002 		mov	r2, #4194304
 1676 0012 074B     		ldr	r3, .L125
 1677 0014 5A61     		str	r2, [r3, #20]
1032:/home/phong/Documents/thesis/stm32f4/stm-idf/components/stm32f4xx_hal_driver/stm32f4xx_hal_rtc_ex.c **** }
 1678              		.loc 1 1032 0
 1679 0016 0123     		movs	r3, #1
 1680 0018 6377     		strb	r3, [r4, #29]
 1681 001a 10BD     		pop	{r4, pc}
 1682              	.LVL131:
 1683              	.L124:
1021:/home/phong/Documents/thesis/stm32f4/stm-idf/components/stm32f4xx_hal_driver/stm32f4xx_hal_rtc_ex.c **** #endif /* USE_HAL_RTC_REGISTER_CALLBACKS */
 1684              		.loc 1 1021 0
 1685 001c FFF7FEFF 		bl	HAL_RTCEx_WakeUpTimerEventCallback
 1686              	.LVL132:
1025:/home/phong/Documents/thesis/stm32f4/stm-idf/components/stm32f4xx_hal_driver/stm32f4xx_hal_rtc_ex.c ****   }
 1687              		.loc 1 1025 0
 1688 0020 2268     		ldr	r2, [r4]
 1689 0022 D368     		ldr	r3, [r2, #12]
 1690 0024 DBB2     		uxtb	r3, r3
 1691 0026 63F49063 		orn	r3, r3, #1152
 1692 002a D360     		str	r3, [r2, #12]
 1693 002c EFE7     		b	.L122
 1694              	.L126:
 1695 002e 00BF     		.align	2
 1696              	.L125:
 1697 0030 003C0140 		.word	1073822720
 1698              		.cfi_endproc
 1699              	.LFE148:
 1701              		.section	.text.HAL_RTCEx_PollForWakeUpTimerEvent,"ax",%progbits
 1702              		.align	1
 1703              		.global	HAL_RTCEx_PollForWakeUpTimerEvent
 1704              		.syntax unified
 1705              		.thumb
 1706              		.thumb_func
 1707              		.fpu fpv4-sp-d16
 1709              	HAL_RTCEx_PollForWakeUpTimerEvent:
 1710              	.LFB150:
1043:/home/phong/Documents/thesis/stm32f4/stm-idf/components/stm32f4xx_hal_driver/stm32f4xx_hal_rtc_ex.c ****   /* Prevent unused argument(s) compilation warning */
1044:/home/phong/Documents/thesis/stm32f4/stm-idf/components/stm32f4xx_hal_driver/stm32f4xx_hal_rtc_ex.c ****   UNUSED(hrtc);
1045:/home/phong/Documents/thesis/stm32f4/stm-idf/components/stm32f4xx_hal_driver/stm32f4xx_hal_rtc_ex.c ****   /* NOTE : This function Should not be modified, when the callback is needed,
1046:/home/phong/Documents/thesis/stm32f4/stm-idf/components/stm32f4xx_hal_driver/stm32f4xx_hal_rtc_ex.c ****             the HAL_RTC_WakeUpTimerEventCallback could be implemented in the user file
1047:/home/phong/Documents/thesis/stm32f4/stm-idf/components/stm32f4xx_hal_driver/stm32f4xx_hal_rtc_ex.c ****    */
ARM GAS  /tmp/cc17vVDA.s 			page 50


1048:/home/phong/Documents/thesis/stm32f4/stm-idf/components/stm32f4xx_hal_driver/stm32f4xx_hal_rtc_ex.c **** }
1049:/home/phong/Documents/thesis/stm32f4/stm-idf/components/stm32f4xx_hal_driver/stm32f4xx_hal_rtc_ex.c **** 
1050:/home/phong/Documents/thesis/stm32f4/stm-idf/components/stm32f4xx_hal_driver/stm32f4xx_hal_rtc_ex.c **** /**
1051:/home/phong/Documents/thesis/stm32f4/stm-idf/components/stm32f4xx_hal_driver/stm32f4xx_hal_rtc_ex.c ****   * @brief  This function handles Wake Up Timer Polling.
1052:/home/phong/Documents/thesis/stm32f4/stm-idf/components/stm32f4xx_hal_driver/stm32f4xx_hal_rtc_ex.c ****   * @param  hrtc pointer to a RTC_HandleTypeDef structure that contains
1053:/home/phong/Documents/thesis/stm32f4/stm-idf/components/stm32f4xx_hal_driver/stm32f4xx_hal_rtc_ex.c ****   *                the configuration information for RTC.
1054:/home/phong/Documents/thesis/stm32f4/stm-idf/components/stm32f4xx_hal_driver/stm32f4xx_hal_rtc_ex.c ****   * @param  Timeout Timeout duration
1055:/home/phong/Documents/thesis/stm32f4/stm-idf/components/stm32f4xx_hal_driver/stm32f4xx_hal_rtc_ex.c ****   * @retval HAL status
1056:/home/phong/Documents/thesis/stm32f4/stm-idf/components/stm32f4xx_hal_driver/stm32f4xx_hal_rtc_ex.c ****   */
1057:/home/phong/Documents/thesis/stm32f4/stm-idf/components/stm32f4xx_hal_driver/stm32f4xx_hal_rtc_ex.c **** HAL_StatusTypeDef HAL_RTCEx_PollForWakeUpTimerEvent(RTC_HandleTypeDef *hrtc, uint32_t Timeout)
1058:/home/phong/Documents/thesis/stm32f4/stm-idf/components/stm32f4xx_hal_driver/stm32f4xx_hal_rtc_ex.c **** {
 1711              		.loc 1 1058 0
 1712              		.cfi_startproc
 1713              		@ args = 0, pretend = 0, frame = 0
 1714              		@ frame_needed = 0, uses_anonymous_args = 0
 1715              	.LVL133:
 1716 0000 70B5     		push	{r4, r5, r6, lr}
 1717              	.LCFI26:
 1718              		.cfi_def_cfa_offset 16
 1719              		.cfi_offset 4, -16
 1720              		.cfi_offset 5, -12
 1721              		.cfi_offset 6, -8
 1722              		.cfi_offset 14, -4
 1723 0002 0446     		mov	r4, r0
 1724 0004 0D46     		mov	r5, r1
 1725              	.LVL134:
1059:/home/phong/Documents/thesis/stm32f4/stm-idf/components/stm32f4xx_hal_driver/stm32f4xx_hal_rtc_ex.c ****   uint32_t tickstart = 0U;
1060:/home/phong/Documents/thesis/stm32f4/stm-idf/components/stm32f4xx_hal_driver/stm32f4xx_hal_rtc_ex.c **** 
1061:/home/phong/Documents/thesis/stm32f4/stm-idf/components/stm32f4xx_hal_driver/stm32f4xx_hal_rtc_ex.c ****   /* Get tick */
1062:/home/phong/Documents/thesis/stm32f4/stm-idf/components/stm32f4xx_hal_driver/stm32f4xx_hal_rtc_ex.c ****   tickstart = HAL_GetTick();
 1726              		.loc 1 1062 0
 1727 0006 FFF7FEFF 		bl	HAL_GetTick
 1728              	.LVL135:
 1729 000a 0646     		mov	r6, r0
 1730              	.LVL136:
 1731              	.L129:
1063:/home/phong/Documents/thesis/stm32f4/stm-idf/components/stm32f4xx_hal_driver/stm32f4xx_hal_rtc_ex.c **** 
1064:/home/phong/Documents/thesis/stm32f4/stm-idf/components/stm32f4xx_hal_driver/stm32f4xx_hal_rtc_ex.c ****   while(__HAL_RTC_WAKEUPTIMER_GET_FLAG(hrtc, RTC_FLAG_WUTF) == RESET)
 1732              		.loc 1 1064 0
 1733 000c 2368     		ldr	r3, [r4]
 1734 000e DA68     		ldr	r2, [r3, #12]
 1735 0010 12F4806F 		tst	r2, #1024
 1736 0014 0BD1     		bne	.L134
1065:/home/phong/Documents/thesis/stm32f4/stm-idf/components/stm32f4xx_hal_driver/stm32f4xx_hal_rtc_ex.c ****   {
1066:/home/phong/Documents/thesis/stm32f4/stm-idf/components/stm32f4xx_hal_driver/stm32f4xx_hal_rtc_ex.c ****     if(Timeout != HAL_MAX_DELAY)
 1737              		.loc 1 1066 0
 1738 0016 B5F1FF3F 		cmp	r5, #-1
 1739 001a F7D0     		beq	.L129
1067:/home/phong/Documents/thesis/stm32f4/stm-idf/components/stm32f4xx_hal_driver/stm32f4xx_hal_rtc_ex.c ****     {
1068:/home/phong/Documents/thesis/stm32f4/stm-idf/components/stm32f4xx_hal_driver/stm32f4xx_hal_rtc_ex.c ****       if((Timeout == 0U)||((HAL_GetTick() - tickstart ) > Timeout))
 1740              		.loc 1 1068 0
 1741 001c 25B1     		cbz	r5, .L130
 1742              		.loc 1 1068 0 is_stmt 0 discriminator 1
 1743 001e FFF7FEFF 		bl	HAL_GetTick
 1744              	.LVL137:
 1745 0022 801B     		subs	r0, r0, r6
 1746 0024 8542     		cmp	r5, r0
ARM GAS  /tmp/cc17vVDA.s 			page 51


 1747 0026 F1D2     		bcs	.L129
 1748              	.L130:
1069:/home/phong/Documents/thesis/stm32f4/stm-idf/components/stm32f4xx_hal_driver/stm32f4xx_hal_rtc_ex.c ****       {
1070:/home/phong/Documents/thesis/stm32f4/stm-idf/components/stm32f4xx_hal_driver/stm32f4xx_hal_rtc_ex.c ****         hrtc->State = HAL_RTC_STATE_TIMEOUT;
 1749              		.loc 1 1070 0 is_stmt 1
 1750 0028 0320     		movs	r0, #3
 1751 002a 6077     		strb	r0, [r4, #29]
1071:/home/phong/Documents/thesis/stm32f4/stm-idf/components/stm32f4xx_hal_driver/stm32f4xx_hal_rtc_ex.c **** 
1072:/home/phong/Documents/thesis/stm32f4/stm-idf/components/stm32f4xx_hal_driver/stm32f4xx_hal_rtc_ex.c ****         return HAL_TIMEOUT;
 1752              		.loc 1 1072 0
 1753 002c 70BD     		pop	{r4, r5, r6, pc}
 1754              	.LVL138:
 1755              	.L134:
1073:/home/phong/Documents/thesis/stm32f4/stm-idf/components/stm32f4xx_hal_driver/stm32f4xx_hal_rtc_ex.c ****       }
1074:/home/phong/Documents/thesis/stm32f4/stm-idf/components/stm32f4xx_hal_driver/stm32f4xx_hal_rtc_ex.c ****     }
1075:/home/phong/Documents/thesis/stm32f4/stm-idf/components/stm32f4xx_hal_driver/stm32f4xx_hal_rtc_ex.c ****   }
1076:/home/phong/Documents/thesis/stm32f4/stm-idf/components/stm32f4xx_hal_driver/stm32f4xx_hal_rtc_ex.c **** 
1077:/home/phong/Documents/thesis/stm32f4/stm-idf/components/stm32f4xx_hal_driver/stm32f4xx_hal_rtc_ex.c ****   /* Clear the WAKEUPTIMER Flag */
1078:/home/phong/Documents/thesis/stm32f4/stm-idf/components/stm32f4xx_hal_driver/stm32f4xx_hal_rtc_ex.c ****   __HAL_RTC_WAKEUPTIMER_CLEAR_FLAG(hrtc, RTC_FLAG_WUTF);
 1756              		.loc 1 1078 0
 1757 002e DA68     		ldr	r2, [r3, #12]
 1758 0030 D2B2     		uxtb	r2, r2
 1759 0032 62F49062 		orn	r2, r2, #1152
 1760 0036 DA60     		str	r2, [r3, #12]
1079:/home/phong/Documents/thesis/stm32f4/stm-idf/components/stm32f4xx_hal_driver/stm32f4xx_hal_rtc_ex.c **** 
1080:/home/phong/Documents/thesis/stm32f4/stm-idf/components/stm32f4xx_hal_driver/stm32f4xx_hal_rtc_ex.c ****   /* Change RTC state */
1081:/home/phong/Documents/thesis/stm32f4/stm-idf/components/stm32f4xx_hal_driver/stm32f4xx_hal_rtc_ex.c ****   hrtc->State = HAL_RTC_STATE_READY;
 1761              		.loc 1 1081 0
 1762 0038 0123     		movs	r3, #1
 1763 003a 6377     		strb	r3, [r4, #29]
1082:/home/phong/Documents/thesis/stm32f4/stm-idf/components/stm32f4xx_hal_driver/stm32f4xx_hal_rtc_ex.c **** 
1083:/home/phong/Documents/thesis/stm32f4/stm-idf/components/stm32f4xx_hal_driver/stm32f4xx_hal_rtc_ex.c ****   return HAL_OK;
 1764              		.loc 1 1083 0
 1765 003c 0020     		movs	r0, #0
1084:/home/phong/Documents/thesis/stm32f4/stm-idf/components/stm32f4xx_hal_driver/stm32f4xx_hal_rtc_ex.c **** }
 1766              		.loc 1 1084 0
 1767 003e 70BD     		pop	{r4, r5, r6, pc}
 1768              		.cfi_endproc
 1769              	.LFE150:
 1771              		.section	.text.HAL_RTCEx_BKUPWrite,"ax",%progbits
 1772              		.align	1
 1773              		.global	HAL_RTCEx_BKUPWrite
 1774              		.syntax unified
 1775              		.thumb
 1776              		.thumb_func
 1777              		.fpu fpv4-sp-d16
 1779              	HAL_RTCEx_BKUPWrite:
 1780              	.LFB151:
1085:/home/phong/Documents/thesis/stm32f4/stm-idf/components/stm32f4xx_hal_driver/stm32f4xx_hal_rtc_ex.c **** 
1086:/home/phong/Documents/thesis/stm32f4/stm-idf/components/stm32f4xx_hal_driver/stm32f4xx_hal_rtc_ex.c **** /**
1087:/home/phong/Documents/thesis/stm32f4/stm-idf/components/stm32f4xx_hal_driver/stm32f4xx_hal_rtc_ex.c ****   * @}
1088:/home/phong/Documents/thesis/stm32f4/stm-idf/components/stm32f4xx_hal_driver/stm32f4xx_hal_rtc_ex.c ****   */
1089:/home/phong/Documents/thesis/stm32f4/stm-idf/components/stm32f4xx_hal_driver/stm32f4xx_hal_rtc_ex.c **** 
1090:/home/phong/Documents/thesis/stm32f4/stm-idf/components/stm32f4xx_hal_driver/stm32f4xx_hal_rtc_ex.c **** 
1091:/home/phong/Documents/thesis/stm32f4/stm-idf/components/stm32f4xx_hal_driver/stm32f4xx_hal_rtc_ex.c **** /** @defgroup RTCEx_Exported_Functions_Group3 Extension Peripheral Control functions
1092:/home/phong/Documents/thesis/stm32f4/stm-idf/components/stm32f4xx_hal_driver/stm32f4xx_hal_rtc_ex.c ****  *  @brief   Extension Peripheral Control functions
1093:/home/phong/Documents/thesis/stm32f4/stm-idf/components/stm32f4xx_hal_driver/stm32f4xx_hal_rtc_ex.c ****  *
ARM GAS  /tmp/cc17vVDA.s 			page 52


1094:/home/phong/Documents/thesis/stm32f4/stm-idf/components/stm32f4xx_hal_driver/stm32f4xx_hal_rtc_ex.c **** @verbatim
1095:/home/phong/Documents/thesis/stm32f4/stm-idf/components/stm32f4xx_hal_driver/stm32f4xx_hal_rtc_ex.c ****  ===============================================================================
1096:/home/phong/Documents/thesis/stm32f4/stm-idf/components/stm32f4xx_hal_driver/stm32f4xx_hal_rtc_ex.c ****               ##### Extension Peripheral Control functions #####
1097:/home/phong/Documents/thesis/stm32f4/stm-idf/components/stm32f4xx_hal_driver/stm32f4xx_hal_rtc_ex.c ****  ===============================================================================
1098:/home/phong/Documents/thesis/stm32f4/stm-idf/components/stm32f4xx_hal_driver/stm32f4xx_hal_rtc_ex.c ****     [..]
1099:/home/phong/Documents/thesis/stm32f4/stm-idf/components/stm32f4xx_hal_driver/stm32f4xx_hal_rtc_ex.c ****     This subsection provides functions allowing to
1100:/home/phong/Documents/thesis/stm32f4/stm-idf/components/stm32f4xx_hal_driver/stm32f4xx_hal_rtc_ex.c ****       (+) Write a data in a specified RTC Backup data register
1101:/home/phong/Documents/thesis/stm32f4/stm-idf/components/stm32f4xx_hal_driver/stm32f4xx_hal_rtc_ex.c ****       (+) Read a data in a specified RTC Backup data register
1102:/home/phong/Documents/thesis/stm32f4/stm-idf/components/stm32f4xx_hal_driver/stm32f4xx_hal_rtc_ex.c ****       (+) Set the Coarse calibration parameters.
1103:/home/phong/Documents/thesis/stm32f4/stm-idf/components/stm32f4xx_hal_driver/stm32f4xx_hal_rtc_ex.c ****       (+) Deactivate the Coarse calibration parameters
1104:/home/phong/Documents/thesis/stm32f4/stm-idf/components/stm32f4xx_hal_driver/stm32f4xx_hal_rtc_ex.c ****       (+) Set the Smooth calibration parameters.
1105:/home/phong/Documents/thesis/stm32f4/stm-idf/components/stm32f4xx_hal_driver/stm32f4xx_hal_rtc_ex.c ****       (+) Configure the Synchronization Shift Control Settings.
1106:/home/phong/Documents/thesis/stm32f4/stm-idf/components/stm32f4xx_hal_driver/stm32f4xx_hal_rtc_ex.c ****       (+) Configure the Calibration Pinout (RTC_CALIB) Selection (1Hz or 512Hz).
1107:/home/phong/Documents/thesis/stm32f4/stm-idf/components/stm32f4xx_hal_driver/stm32f4xx_hal_rtc_ex.c ****       (+) Deactivate the Calibration Pinout (RTC_CALIB) Selection (1Hz or 512Hz).
1108:/home/phong/Documents/thesis/stm32f4/stm-idf/components/stm32f4xx_hal_driver/stm32f4xx_hal_rtc_ex.c ****       (+) Enable the RTC reference clock detection.
1109:/home/phong/Documents/thesis/stm32f4/stm-idf/components/stm32f4xx_hal_driver/stm32f4xx_hal_rtc_ex.c ****       (+) Disable the RTC reference clock detection.
1110:/home/phong/Documents/thesis/stm32f4/stm-idf/components/stm32f4xx_hal_driver/stm32f4xx_hal_rtc_ex.c ****       (+) Enable the Bypass Shadow feature.
1111:/home/phong/Documents/thesis/stm32f4/stm-idf/components/stm32f4xx_hal_driver/stm32f4xx_hal_rtc_ex.c ****       (+) Disable the Bypass Shadow feature.
1112:/home/phong/Documents/thesis/stm32f4/stm-idf/components/stm32f4xx_hal_driver/stm32f4xx_hal_rtc_ex.c **** 
1113:/home/phong/Documents/thesis/stm32f4/stm-idf/components/stm32f4xx_hal_driver/stm32f4xx_hal_rtc_ex.c **** @endverbatim
1114:/home/phong/Documents/thesis/stm32f4/stm-idf/components/stm32f4xx_hal_driver/stm32f4xx_hal_rtc_ex.c ****   * @{
1115:/home/phong/Documents/thesis/stm32f4/stm-idf/components/stm32f4xx_hal_driver/stm32f4xx_hal_rtc_ex.c ****   */
1116:/home/phong/Documents/thesis/stm32f4/stm-idf/components/stm32f4xx_hal_driver/stm32f4xx_hal_rtc_ex.c **** 
1117:/home/phong/Documents/thesis/stm32f4/stm-idf/components/stm32f4xx_hal_driver/stm32f4xx_hal_rtc_ex.c **** /**
1118:/home/phong/Documents/thesis/stm32f4/stm-idf/components/stm32f4xx_hal_driver/stm32f4xx_hal_rtc_ex.c ****   * @brief  Writes a data in a specified RTC Backup data register.
1119:/home/phong/Documents/thesis/stm32f4/stm-idf/components/stm32f4xx_hal_driver/stm32f4xx_hal_rtc_ex.c ****   * @param  hrtc pointer to a RTC_HandleTypeDef structure that contains
1120:/home/phong/Documents/thesis/stm32f4/stm-idf/components/stm32f4xx_hal_driver/stm32f4xx_hal_rtc_ex.c ****   *                the configuration information for RTC.
1121:/home/phong/Documents/thesis/stm32f4/stm-idf/components/stm32f4xx_hal_driver/stm32f4xx_hal_rtc_ex.c ****   * @param  BackupRegister RTC Backup data Register number.
1122:/home/phong/Documents/thesis/stm32f4/stm-idf/components/stm32f4xx_hal_driver/stm32f4xx_hal_rtc_ex.c ****   *          This parameter can be: RTC_BKP_DRx where x can be from 0 to 19 to
1123:/home/phong/Documents/thesis/stm32f4/stm-idf/components/stm32f4xx_hal_driver/stm32f4xx_hal_rtc_ex.c ****   *                                 specify the register.
1124:/home/phong/Documents/thesis/stm32f4/stm-idf/components/stm32f4xx_hal_driver/stm32f4xx_hal_rtc_ex.c ****   * @param  Data Data to be written in the specified RTC Backup data register.
1125:/home/phong/Documents/thesis/stm32f4/stm-idf/components/stm32f4xx_hal_driver/stm32f4xx_hal_rtc_ex.c ****   * @retval None
1126:/home/phong/Documents/thesis/stm32f4/stm-idf/components/stm32f4xx_hal_driver/stm32f4xx_hal_rtc_ex.c ****   */
1127:/home/phong/Documents/thesis/stm32f4/stm-idf/components/stm32f4xx_hal_driver/stm32f4xx_hal_rtc_ex.c **** void HAL_RTCEx_BKUPWrite(RTC_HandleTypeDef *hrtc, uint32_t BackupRegister, uint32_t Data)
1128:/home/phong/Documents/thesis/stm32f4/stm-idf/components/stm32f4xx_hal_driver/stm32f4xx_hal_rtc_ex.c **** {
 1781              		.loc 1 1128 0
 1782              		.cfi_startproc
 1783              		@ args = 0, pretend = 0, frame = 0
 1784              		@ frame_needed = 0, uses_anonymous_args = 0
 1785              		@ link register save eliminated.
 1786              	.LVL139:
1129:/home/phong/Documents/thesis/stm32f4/stm-idf/components/stm32f4xx_hal_driver/stm32f4xx_hal_rtc_ex.c ****   uint32_t tmp = 0U;
1130:/home/phong/Documents/thesis/stm32f4/stm-idf/components/stm32f4xx_hal_driver/stm32f4xx_hal_rtc_ex.c **** 
1131:/home/phong/Documents/thesis/stm32f4/stm-idf/components/stm32f4xx_hal_driver/stm32f4xx_hal_rtc_ex.c ****   /* Check the parameters */
1132:/home/phong/Documents/thesis/stm32f4/stm-idf/components/stm32f4xx_hal_driver/stm32f4xx_hal_rtc_ex.c ****   assert_param(IS_RTC_BKP(BackupRegister));
1133:/home/phong/Documents/thesis/stm32f4/stm-idf/components/stm32f4xx_hal_driver/stm32f4xx_hal_rtc_ex.c **** 
1134:/home/phong/Documents/thesis/stm32f4/stm-idf/components/stm32f4xx_hal_driver/stm32f4xx_hal_rtc_ex.c ****   tmp = (uint32_t)&(hrtc->Instance->BKP0R);
 1787              		.loc 1 1134 0
 1788 0000 0368     		ldr	r3, [r0]
 1789 0002 5033     		adds	r3, r3, #80
 1790              	.LVL140:
1135:/home/phong/Documents/thesis/stm32f4/stm-idf/components/stm32f4xx_hal_driver/stm32f4xx_hal_rtc_ex.c ****   tmp += (BackupRegister * 4U);
1136:/home/phong/Documents/thesis/stm32f4/stm-idf/components/stm32f4xx_hal_driver/stm32f4xx_hal_rtc_ex.c **** 
1137:/home/phong/Documents/thesis/stm32f4/stm-idf/components/stm32f4xx_hal_driver/stm32f4xx_hal_rtc_ex.c ****   /* Write the specified register */
1138:/home/phong/Documents/thesis/stm32f4/stm-idf/components/stm32f4xx_hal_driver/stm32f4xx_hal_rtc_ex.c ****   *(__IO uint32_t *)tmp = (uint32_t)Data;
 1791              		.loc 1 1138 0
 1792 0004 43F82120 		str	r2, [r3, r1, lsl #2]
ARM GAS  /tmp/cc17vVDA.s 			page 53


 1793 0008 7047     		bx	lr
 1794              		.cfi_endproc
 1795              	.LFE151:
 1797              		.section	.text.HAL_RTCEx_BKUPRead,"ax",%progbits
 1798              		.align	1
 1799              		.global	HAL_RTCEx_BKUPRead
 1800              		.syntax unified
 1801              		.thumb
 1802              		.thumb_func
 1803              		.fpu fpv4-sp-d16
 1805              	HAL_RTCEx_BKUPRead:
 1806              	.LFB152:
1139:/home/phong/Documents/thesis/stm32f4/stm-idf/components/stm32f4xx_hal_driver/stm32f4xx_hal_rtc_ex.c **** }
1140:/home/phong/Documents/thesis/stm32f4/stm-idf/components/stm32f4xx_hal_driver/stm32f4xx_hal_rtc_ex.c **** 
1141:/home/phong/Documents/thesis/stm32f4/stm-idf/components/stm32f4xx_hal_driver/stm32f4xx_hal_rtc_ex.c **** /**
1142:/home/phong/Documents/thesis/stm32f4/stm-idf/components/stm32f4xx_hal_driver/stm32f4xx_hal_rtc_ex.c ****   * @brief  Reads data from the specified RTC Backup data Register.
1143:/home/phong/Documents/thesis/stm32f4/stm-idf/components/stm32f4xx_hal_driver/stm32f4xx_hal_rtc_ex.c ****   * @param  hrtc pointer to a RTC_HandleTypeDef structure that contains
1144:/home/phong/Documents/thesis/stm32f4/stm-idf/components/stm32f4xx_hal_driver/stm32f4xx_hal_rtc_ex.c ****   *                the configuration information for RTC.
1145:/home/phong/Documents/thesis/stm32f4/stm-idf/components/stm32f4xx_hal_driver/stm32f4xx_hal_rtc_ex.c ****   * @param  BackupRegister RTC Backup data Register number.
1146:/home/phong/Documents/thesis/stm32f4/stm-idf/components/stm32f4xx_hal_driver/stm32f4xx_hal_rtc_ex.c ****   *          This parameter can be: RTC_BKP_DRx where x can be from 0 to 19 to
1147:/home/phong/Documents/thesis/stm32f4/stm-idf/components/stm32f4xx_hal_driver/stm32f4xx_hal_rtc_ex.c ****   *                                 specify the register.
1148:/home/phong/Documents/thesis/stm32f4/stm-idf/components/stm32f4xx_hal_driver/stm32f4xx_hal_rtc_ex.c ****   * @retval Read value
1149:/home/phong/Documents/thesis/stm32f4/stm-idf/components/stm32f4xx_hal_driver/stm32f4xx_hal_rtc_ex.c ****   */
1150:/home/phong/Documents/thesis/stm32f4/stm-idf/components/stm32f4xx_hal_driver/stm32f4xx_hal_rtc_ex.c **** uint32_t HAL_RTCEx_BKUPRead(RTC_HandleTypeDef *hrtc, uint32_t BackupRegister)
1151:/home/phong/Documents/thesis/stm32f4/stm-idf/components/stm32f4xx_hal_driver/stm32f4xx_hal_rtc_ex.c **** {
 1807              		.loc 1 1151 0
 1808              		.cfi_startproc
 1809              		@ args = 0, pretend = 0, frame = 0
 1810              		@ frame_needed = 0, uses_anonymous_args = 0
 1811              		@ link register save eliminated.
 1812              	.LVL141:
1152:/home/phong/Documents/thesis/stm32f4/stm-idf/components/stm32f4xx_hal_driver/stm32f4xx_hal_rtc_ex.c ****   uint32_t tmp = 0U;
1153:/home/phong/Documents/thesis/stm32f4/stm-idf/components/stm32f4xx_hal_driver/stm32f4xx_hal_rtc_ex.c **** 
1154:/home/phong/Documents/thesis/stm32f4/stm-idf/components/stm32f4xx_hal_driver/stm32f4xx_hal_rtc_ex.c ****   /* Check the parameters */
1155:/home/phong/Documents/thesis/stm32f4/stm-idf/components/stm32f4xx_hal_driver/stm32f4xx_hal_rtc_ex.c ****   assert_param(IS_RTC_BKP(BackupRegister));
1156:/home/phong/Documents/thesis/stm32f4/stm-idf/components/stm32f4xx_hal_driver/stm32f4xx_hal_rtc_ex.c **** 
1157:/home/phong/Documents/thesis/stm32f4/stm-idf/components/stm32f4xx_hal_driver/stm32f4xx_hal_rtc_ex.c ****   tmp = (uint32_t)&(hrtc->Instance->BKP0R);
 1813              		.loc 1 1157 0
 1814 0000 0368     		ldr	r3, [r0]
 1815 0002 5033     		adds	r3, r3, #80
 1816              	.LVL142:
1158:/home/phong/Documents/thesis/stm32f4/stm-idf/components/stm32f4xx_hal_driver/stm32f4xx_hal_rtc_ex.c ****   tmp += (BackupRegister * 4U);
1159:/home/phong/Documents/thesis/stm32f4/stm-idf/components/stm32f4xx_hal_driver/stm32f4xx_hal_rtc_ex.c **** 
1160:/home/phong/Documents/thesis/stm32f4/stm-idf/components/stm32f4xx_hal_driver/stm32f4xx_hal_rtc_ex.c ****   /* Read the specified register */
1161:/home/phong/Documents/thesis/stm32f4/stm-idf/components/stm32f4xx_hal_driver/stm32f4xx_hal_rtc_ex.c ****   return (*(__IO uint32_t *)tmp);
 1817              		.loc 1 1161 0
 1818 0004 53F82100 		ldr	r0, [r3, r1, lsl #2]
 1819              	.LVL143:
1162:/home/phong/Documents/thesis/stm32f4/stm-idf/components/stm32f4xx_hal_driver/stm32f4xx_hal_rtc_ex.c **** }
 1820              		.loc 1 1162 0
 1821 0008 7047     		bx	lr
 1822              		.cfi_endproc
 1823              	.LFE152:
 1825              		.section	.text.HAL_RTCEx_SetCoarseCalib,"ax",%progbits
 1826              		.align	1
 1827              		.global	HAL_RTCEx_SetCoarseCalib
 1828              		.syntax unified
ARM GAS  /tmp/cc17vVDA.s 			page 54


 1829              		.thumb
 1830              		.thumb_func
 1831              		.fpu fpv4-sp-d16
 1833              	HAL_RTCEx_SetCoarseCalib:
 1834              	.LFB153:
1163:/home/phong/Documents/thesis/stm32f4/stm-idf/components/stm32f4xx_hal_driver/stm32f4xx_hal_rtc_ex.c **** 
1164:/home/phong/Documents/thesis/stm32f4/stm-idf/components/stm32f4xx_hal_driver/stm32f4xx_hal_rtc_ex.c **** /**
1165:/home/phong/Documents/thesis/stm32f4/stm-idf/components/stm32f4xx_hal_driver/stm32f4xx_hal_rtc_ex.c ****   * @brief  Sets the Coarse calibration parameters.
1166:/home/phong/Documents/thesis/stm32f4/stm-idf/components/stm32f4xx_hal_driver/stm32f4xx_hal_rtc_ex.c ****   * @param  hrtc pointer to a RTC_HandleTypeDef structure that contains
1167:/home/phong/Documents/thesis/stm32f4/stm-idf/components/stm32f4xx_hal_driver/stm32f4xx_hal_rtc_ex.c ****   *                the configuration information for RTC.
1168:/home/phong/Documents/thesis/stm32f4/stm-idf/components/stm32f4xx_hal_driver/stm32f4xx_hal_rtc_ex.c ****   * @param  CalibSign Specifies the sign of the coarse calibration value.
1169:/home/phong/Documents/thesis/stm32f4/stm-idf/components/stm32f4xx_hal_driver/stm32f4xx_hal_rtc_ex.c ****   *          This parameter can be  one of the following values :
1170:/home/phong/Documents/thesis/stm32f4/stm-idf/components/stm32f4xx_hal_driver/stm32f4xx_hal_rtc_ex.c ****   *             @arg RTC_CALIBSIGN_POSITIVE: The value sign is positive
1171:/home/phong/Documents/thesis/stm32f4/stm-idf/components/stm32f4xx_hal_driver/stm32f4xx_hal_rtc_ex.c ****   *             @arg RTC_CALIBSIGN_NEGATIVE: The value sign is negative
1172:/home/phong/Documents/thesis/stm32f4/stm-idf/components/stm32f4xx_hal_driver/stm32f4xx_hal_rtc_ex.c ****   * @param  Value value of coarse calibration expressed in ppm (coded on 5 bits).
1173:/home/phong/Documents/thesis/stm32f4/stm-idf/components/stm32f4xx_hal_driver/stm32f4xx_hal_rtc_ex.c ****   *
1174:/home/phong/Documents/thesis/stm32f4/stm-idf/components/stm32f4xx_hal_driver/stm32f4xx_hal_rtc_ex.c ****   * @note   This Calibration value should be between 0 and 63 when using negative
1175:/home/phong/Documents/thesis/stm32f4/stm-idf/components/stm32f4xx_hal_driver/stm32f4xx_hal_rtc_ex.c ****   *         sign with a 2-ppm step.
1176:/home/phong/Documents/thesis/stm32f4/stm-idf/components/stm32f4xx_hal_driver/stm32f4xx_hal_rtc_ex.c ****   *
1177:/home/phong/Documents/thesis/stm32f4/stm-idf/components/stm32f4xx_hal_driver/stm32f4xx_hal_rtc_ex.c ****   * @note   This Calibration value should be between 0 and 126 when using positive
1178:/home/phong/Documents/thesis/stm32f4/stm-idf/components/stm32f4xx_hal_driver/stm32f4xx_hal_rtc_ex.c ****   *         sign with a 4-ppm step.
1179:/home/phong/Documents/thesis/stm32f4/stm-idf/components/stm32f4xx_hal_driver/stm32f4xx_hal_rtc_ex.c ****   * @retval HAL status
1180:/home/phong/Documents/thesis/stm32f4/stm-idf/components/stm32f4xx_hal_driver/stm32f4xx_hal_rtc_ex.c ****   */
1181:/home/phong/Documents/thesis/stm32f4/stm-idf/components/stm32f4xx_hal_driver/stm32f4xx_hal_rtc_ex.c **** HAL_StatusTypeDef HAL_RTCEx_SetCoarseCalib(RTC_HandleTypeDef* hrtc, uint32_t CalibSign, uint32_t Va
1182:/home/phong/Documents/thesis/stm32f4/stm-idf/components/stm32f4xx_hal_driver/stm32f4xx_hal_rtc_ex.c **** {
 1835              		.loc 1 1182 0
 1836              		.cfi_startproc
 1837              		@ args = 0, pretend = 0, frame = 0
 1838              		@ frame_needed = 0, uses_anonymous_args = 0
 1839              	.LVL144:
1183:/home/phong/Documents/thesis/stm32f4/stm-idf/components/stm32f4xx_hal_driver/stm32f4xx_hal_rtc_ex.c ****   /* Check the parameters */
1184:/home/phong/Documents/thesis/stm32f4/stm-idf/components/stm32f4xx_hal_driver/stm32f4xx_hal_rtc_ex.c ****   assert_param(IS_RTC_CALIB_SIGN(CalibSign));
1185:/home/phong/Documents/thesis/stm32f4/stm-idf/components/stm32f4xx_hal_driver/stm32f4xx_hal_rtc_ex.c ****   assert_param(IS_RTC_CALIB_VALUE(Value));
1186:/home/phong/Documents/thesis/stm32f4/stm-idf/components/stm32f4xx_hal_driver/stm32f4xx_hal_rtc_ex.c **** 
1187:/home/phong/Documents/thesis/stm32f4/stm-idf/components/stm32f4xx_hal_driver/stm32f4xx_hal_rtc_ex.c ****   /* Process Locked */
1188:/home/phong/Documents/thesis/stm32f4/stm-idf/components/stm32f4xx_hal_driver/stm32f4xx_hal_rtc_ex.c ****   __HAL_LOCK(hrtc);
 1840              		.loc 1 1188 0
 1841 0000 037F     		ldrb	r3, [r0, #28]	@ zero_extendqisi2
 1842 0002 012B     		cmp	r3, #1
 1843 0004 02D1     		bne	.L145
 1844 0006 0223     		movs	r3, #2
1189:/home/phong/Documents/thesis/stm32f4/stm-idf/components/stm32f4xx_hal_driver/stm32f4xx_hal_rtc_ex.c **** 
1190:/home/phong/Documents/thesis/stm32f4/stm-idf/components/stm32f4xx_hal_driver/stm32f4xx_hal_rtc_ex.c ****   hrtc->State = HAL_RTC_STATE_BUSY;
1191:/home/phong/Documents/thesis/stm32f4/stm-idf/components/stm32f4xx_hal_driver/stm32f4xx_hal_rtc_ex.c **** 
1192:/home/phong/Documents/thesis/stm32f4/stm-idf/components/stm32f4xx_hal_driver/stm32f4xx_hal_rtc_ex.c ****   /* Disable the write protection for RTC registers */
1193:/home/phong/Documents/thesis/stm32f4/stm-idf/components/stm32f4xx_hal_driver/stm32f4xx_hal_rtc_ex.c ****   __HAL_RTC_WRITEPROTECTION_DISABLE(hrtc);
1194:/home/phong/Documents/thesis/stm32f4/stm-idf/components/stm32f4xx_hal_driver/stm32f4xx_hal_rtc_ex.c **** 
1195:/home/phong/Documents/thesis/stm32f4/stm-idf/components/stm32f4xx_hal_driver/stm32f4xx_hal_rtc_ex.c ****   /* Set Initialization mode */
1196:/home/phong/Documents/thesis/stm32f4/stm-idf/components/stm32f4xx_hal_driver/stm32f4xx_hal_rtc_ex.c ****   if(RTC_EnterInitMode(hrtc) != HAL_OK)
1197:/home/phong/Documents/thesis/stm32f4/stm-idf/components/stm32f4xx_hal_driver/stm32f4xx_hal_rtc_ex.c ****   {
1198:/home/phong/Documents/thesis/stm32f4/stm-idf/components/stm32f4xx_hal_driver/stm32f4xx_hal_rtc_ex.c ****     /* Enable the write protection for RTC registers */
1199:/home/phong/Documents/thesis/stm32f4/stm-idf/components/stm32f4xx_hal_driver/stm32f4xx_hal_rtc_ex.c ****     __HAL_RTC_WRITEPROTECTION_ENABLE(hrtc);
1200:/home/phong/Documents/thesis/stm32f4/stm-idf/components/stm32f4xx_hal_driver/stm32f4xx_hal_rtc_ex.c **** 
1201:/home/phong/Documents/thesis/stm32f4/stm-idf/components/stm32f4xx_hal_driver/stm32f4xx_hal_rtc_ex.c ****     /* Set RTC state*/
1202:/home/phong/Documents/thesis/stm32f4/stm-idf/components/stm32f4xx_hal_driver/stm32f4xx_hal_rtc_ex.c ****     hrtc->State = HAL_RTC_STATE_ERROR;
1203:/home/phong/Documents/thesis/stm32f4/stm-idf/components/stm32f4xx_hal_driver/stm32f4xx_hal_rtc_ex.c **** 
1204:/home/phong/Documents/thesis/stm32f4/stm-idf/components/stm32f4xx_hal_driver/stm32f4xx_hal_rtc_ex.c ****     /* Process Unlocked */
ARM GAS  /tmp/cc17vVDA.s 			page 55


1205:/home/phong/Documents/thesis/stm32f4/stm-idf/components/stm32f4xx_hal_driver/stm32f4xx_hal_rtc_ex.c ****     __HAL_UNLOCK(hrtc);
1206:/home/phong/Documents/thesis/stm32f4/stm-idf/components/stm32f4xx_hal_driver/stm32f4xx_hal_rtc_ex.c **** 
1207:/home/phong/Documents/thesis/stm32f4/stm-idf/components/stm32f4xx_hal_driver/stm32f4xx_hal_rtc_ex.c ****     return HAL_ERROR;
1208:/home/phong/Documents/thesis/stm32f4/stm-idf/components/stm32f4xx_hal_driver/stm32f4xx_hal_rtc_ex.c ****   }
1209:/home/phong/Documents/thesis/stm32f4/stm-idf/components/stm32f4xx_hal_driver/stm32f4xx_hal_rtc_ex.c ****   else
1210:/home/phong/Documents/thesis/stm32f4/stm-idf/components/stm32f4xx_hal_driver/stm32f4xx_hal_rtc_ex.c ****   {
1211:/home/phong/Documents/thesis/stm32f4/stm-idf/components/stm32f4xx_hal_driver/stm32f4xx_hal_rtc_ex.c ****     /* Enable the Coarse Calibration */
1212:/home/phong/Documents/thesis/stm32f4/stm-idf/components/stm32f4xx_hal_driver/stm32f4xx_hal_rtc_ex.c ****     __HAL_RTC_COARSE_CALIB_ENABLE(hrtc);
1213:/home/phong/Documents/thesis/stm32f4/stm-idf/components/stm32f4xx_hal_driver/stm32f4xx_hal_rtc_ex.c **** 
1214:/home/phong/Documents/thesis/stm32f4/stm-idf/components/stm32f4xx_hal_driver/stm32f4xx_hal_rtc_ex.c ****     /* Set the coarse calibration value */
1215:/home/phong/Documents/thesis/stm32f4/stm-idf/components/stm32f4xx_hal_driver/stm32f4xx_hal_rtc_ex.c ****     hrtc->Instance->CALIBR = (uint32_t)(CalibSign|Value);
1216:/home/phong/Documents/thesis/stm32f4/stm-idf/components/stm32f4xx_hal_driver/stm32f4xx_hal_rtc_ex.c **** 
1217:/home/phong/Documents/thesis/stm32f4/stm-idf/components/stm32f4xx_hal_driver/stm32f4xx_hal_rtc_ex.c ****     /* Exit Initialization mode */
1218:/home/phong/Documents/thesis/stm32f4/stm-idf/components/stm32f4xx_hal_driver/stm32f4xx_hal_rtc_ex.c ****     hrtc->Instance->ISR &= (uint32_t)~RTC_ISR_INIT;
1219:/home/phong/Documents/thesis/stm32f4/stm-idf/components/stm32f4xx_hal_driver/stm32f4xx_hal_rtc_ex.c ****   }
1220:/home/phong/Documents/thesis/stm32f4/stm-idf/components/stm32f4xx_hal_driver/stm32f4xx_hal_rtc_ex.c **** 
1221:/home/phong/Documents/thesis/stm32f4/stm-idf/components/stm32f4xx_hal_driver/stm32f4xx_hal_rtc_ex.c ****   /* Enable the write protection for RTC registers */
1222:/home/phong/Documents/thesis/stm32f4/stm-idf/components/stm32f4xx_hal_driver/stm32f4xx_hal_rtc_ex.c ****   __HAL_RTC_WRITEPROTECTION_ENABLE(hrtc);
1223:/home/phong/Documents/thesis/stm32f4/stm-idf/components/stm32f4xx_hal_driver/stm32f4xx_hal_rtc_ex.c **** 
1224:/home/phong/Documents/thesis/stm32f4/stm-idf/components/stm32f4xx_hal_driver/stm32f4xx_hal_rtc_ex.c ****   /* Change state */
1225:/home/phong/Documents/thesis/stm32f4/stm-idf/components/stm32f4xx_hal_driver/stm32f4xx_hal_rtc_ex.c ****   hrtc->State = HAL_RTC_STATE_READY;
1226:/home/phong/Documents/thesis/stm32f4/stm-idf/components/stm32f4xx_hal_driver/stm32f4xx_hal_rtc_ex.c **** 
1227:/home/phong/Documents/thesis/stm32f4/stm-idf/components/stm32f4xx_hal_driver/stm32f4xx_hal_rtc_ex.c ****   /* Process Unlocked */
1228:/home/phong/Documents/thesis/stm32f4/stm-idf/components/stm32f4xx_hal_driver/stm32f4xx_hal_rtc_ex.c ****   __HAL_UNLOCK(hrtc);
1229:/home/phong/Documents/thesis/stm32f4/stm-idf/components/stm32f4xx_hal_driver/stm32f4xx_hal_rtc_ex.c **** 
1230:/home/phong/Documents/thesis/stm32f4/stm-idf/components/stm32f4xx_hal_driver/stm32f4xx_hal_rtc_ex.c ****   return HAL_OK;
1231:/home/phong/Documents/thesis/stm32f4/stm-idf/components/stm32f4xx_hal_driver/stm32f4xx_hal_rtc_ex.c **** }
 1845              		.loc 1 1231 0
 1846 0008 1846     		mov	r0, r3
 1847              	.LVL145:
 1848 000a 7047     		bx	lr
 1849              	.LVL146:
 1850              	.L145:
1182:/home/phong/Documents/thesis/stm32f4/stm-idf/components/stm32f4xx_hal_driver/stm32f4xx_hal_rtc_ex.c ****   /* Check the parameters */
 1851              		.loc 1 1182 0 discriminator 2
 1852 000c 70B5     		push	{r4, r5, r6, lr}
 1853              	.LCFI27:
 1854              		.cfi_def_cfa_offset 16
 1855              		.cfi_offset 4, -16
 1856              		.cfi_offset 5, -12
 1857              		.cfi_offset 6, -8
 1858              		.cfi_offset 14, -4
 1859 000e 1646     		mov	r6, r2
 1860 0010 0D46     		mov	r5, r1
 1861 0012 0446     		mov	r4, r0
1188:/home/phong/Documents/thesis/stm32f4/stm-idf/components/stm32f4xx_hal_driver/stm32f4xx_hal_rtc_ex.c **** 
 1862              		.loc 1 1188 0 discriminator 2
 1863 0014 0123     		movs	r3, #1
 1864 0016 0377     		strb	r3, [r0, #28]
1190:/home/phong/Documents/thesis/stm32f4/stm-idf/components/stm32f4xx_hal_driver/stm32f4xx_hal_rtc_ex.c **** 
 1865              		.loc 1 1190 0 discriminator 2
 1866 0018 0223     		movs	r3, #2
 1867 001a 4377     		strb	r3, [r0, #29]
1193:/home/phong/Documents/thesis/stm32f4/stm-idf/components/stm32f4xx_hal_driver/stm32f4xx_hal_rtc_ex.c **** 
 1868              		.loc 1 1193 0 discriminator 2
 1869 001c 0368     		ldr	r3, [r0]
 1870 001e CA22     		movs	r2, #202
ARM GAS  /tmp/cc17vVDA.s 			page 56


 1871              	.LVL147:
 1872 0020 5A62     		str	r2, [r3, #36]
 1873 0022 0368     		ldr	r3, [r0]
 1874 0024 5322     		movs	r2, #83
 1875 0026 5A62     		str	r2, [r3, #36]
1196:/home/phong/Documents/thesis/stm32f4/stm-idf/components/stm32f4xx_hal_driver/stm32f4xx_hal_rtc_ex.c ****   {
 1876              		.loc 1 1196 0 discriminator 2
 1877 0028 FFF7FEFF 		bl	RTC_EnterInitMode
 1878              	.LVL148:
 1879 002c 0346     		mov	r3, r0
 1880 002e A8B9     		cbnz	r0, .L146
1212:/home/phong/Documents/thesis/stm32f4/stm-idf/components/stm32f4xx_hal_driver/stm32f4xx_hal_rtc_ex.c **** 
 1881              		.loc 1 1212 0
 1882 0030 2168     		ldr	r1, [r4]
 1883 0032 8A68     		ldr	r2, [r1, #8]
 1884 0034 42F08002 		orr	r2, r2, #128
 1885 0038 8A60     		str	r2, [r1, #8]
1215:/home/phong/Documents/thesis/stm32f4/stm-idf/components/stm32f4xx_hal_driver/stm32f4xx_hal_rtc_ex.c **** 
 1886              		.loc 1 1215 0
 1887 003a 2268     		ldr	r2, [r4]
 1888 003c 3543     		orrs	r5, r5, r6
 1889              	.LVL149:
 1890 003e 9561     		str	r5, [r2, #24]
1218:/home/phong/Documents/thesis/stm32f4/stm-idf/components/stm32f4xx_hal_driver/stm32f4xx_hal_rtc_ex.c ****   }
 1891              		.loc 1 1218 0
 1892 0040 2168     		ldr	r1, [r4]
 1893 0042 CA68     		ldr	r2, [r1, #12]
 1894 0044 22F08002 		bic	r2, r2, #128
 1895 0048 CA60     		str	r2, [r1, #12]
1222:/home/phong/Documents/thesis/stm32f4/stm-idf/components/stm32f4xx_hal_driver/stm32f4xx_hal_rtc_ex.c **** 
 1896              		.loc 1 1222 0
 1897 004a 2268     		ldr	r2, [r4]
 1898 004c FF21     		movs	r1, #255
 1899 004e 5162     		str	r1, [r2, #36]
1225:/home/phong/Documents/thesis/stm32f4/stm-idf/components/stm32f4xx_hal_driver/stm32f4xx_hal_rtc_ex.c **** 
 1900              		.loc 1 1225 0
 1901 0050 0122     		movs	r2, #1
 1902 0052 6277     		strb	r2, [r4, #29]
1228:/home/phong/Documents/thesis/stm32f4/stm-idf/components/stm32f4xx_hal_driver/stm32f4xx_hal_rtc_ex.c **** 
 1903              		.loc 1 1228 0
 1904 0054 0022     		movs	r2, #0
 1905 0056 2277     		strb	r2, [r4, #28]
 1906              	.L138:
 1907              		.loc 1 1231 0
 1908 0058 1846     		mov	r0, r3
 1909 005a 70BD     		pop	{r4, r5, r6, pc}
 1910              	.LVL150:
 1911              	.L146:
1199:/home/phong/Documents/thesis/stm32f4/stm-idf/components/stm32f4xx_hal_driver/stm32f4xx_hal_rtc_ex.c **** 
 1912              		.loc 1 1199 0
 1913 005c 2368     		ldr	r3, [r4]
 1914 005e FF22     		movs	r2, #255
 1915 0060 5A62     		str	r2, [r3, #36]
1202:/home/phong/Documents/thesis/stm32f4/stm-idf/components/stm32f4xx_hal_driver/stm32f4xx_hal_rtc_ex.c **** 
 1916              		.loc 1 1202 0
 1917 0062 0423     		movs	r3, #4
 1918 0064 6377     		strb	r3, [r4, #29]
ARM GAS  /tmp/cc17vVDA.s 			page 57


1205:/home/phong/Documents/thesis/stm32f4/stm-idf/components/stm32f4xx_hal_driver/stm32f4xx_hal_rtc_ex.c **** 
 1919              		.loc 1 1205 0
 1920 0066 0023     		movs	r3, #0
 1921 0068 2377     		strb	r3, [r4, #28]
1207:/home/phong/Documents/thesis/stm32f4/stm-idf/components/stm32f4xx_hal_driver/stm32f4xx_hal_rtc_ex.c ****   }
 1922              		.loc 1 1207 0
 1923 006a 0123     		movs	r3, #1
 1924 006c F4E7     		b	.L138
 1925              		.cfi_endproc
 1926              	.LFE153:
 1928              		.section	.text.HAL_RTCEx_DeactivateCoarseCalib,"ax",%progbits
 1929              		.align	1
 1930              		.global	HAL_RTCEx_DeactivateCoarseCalib
 1931              		.syntax unified
 1932              		.thumb
 1933              		.thumb_func
 1934              		.fpu fpv4-sp-d16
 1936              	HAL_RTCEx_DeactivateCoarseCalib:
 1937              	.LFB154:
1232:/home/phong/Documents/thesis/stm32f4/stm-idf/components/stm32f4xx_hal_driver/stm32f4xx_hal_rtc_ex.c **** 
1233:/home/phong/Documents/thesis/stm32f4/stm-idf/components/stm32f4xx_hal_driver/stm32f4xx_hal_rtc_ex.c **** /**
1234:/home/phong/Documents/thesis/stm32f4/stm-idf/components/stm32f4xx_hal_driver/stm32f4xx_hal_rtc_ex.c ****   * @brief  Deactivates the Coarse calibration parameters.
1235:/home/phong/Documents/thesis/stm32f4/stm-idf/components/stm32f4xx_hal_driver/stm32f4xx_hal_rtc_ex.c ****   * @param  hrtc pointer to a RTC_HandleTypeDef structure that contains
1236:/home/phong/Documents/thesis/stm32f4/stm-idf/components/stm32f4xx_hal_driver/stm32f4xx_hal_rtc_ex.c ****   *                the configuration information for RTC.
1237:/home/phong/Documents/thesis/stm32f4/stm-idf/components/stm32f4xx_hal_driver/stm32f4xx_hal_rtc_ex.c ****   * @retval HAL status
1238:/home/phong/Documents/thesis/stm32f4/stm-idf/components/stm32f4xx_hal_driver/stm32f4xx_hal_rtc_ex.c ****   */
1239:/home/phong/Documents/thesis/stm32f4/stm-idf/components/stm32f4xx_hal_driver/stm32f4xx_hal_rtc_ex.c **** HAL_StatusTypeDef HAL_RTCEx_DeactivateCoarseCalib(RTC_HandleTypeDef* hrtc)
1240:/home/phong/Documents/thesis/stm32f4/stm-idf/components/stm32f4xx_hal_driver/stm32f4xx_hal_rtc_ex.c **** {
 1938              		.loc 1 1240 0
 1939              		.cfi_startproc
 1940              		@ args = 0, pretend = 0, frame = 0
 1941              		@ frame_needed = 0, uses_anonymous_args = 0
 1942              	.LVL151:
1241:/home/phong/Documents/thesis/stm32f4/stm-idf/components/stm32f4xx_hal_driver/stm32f4xx_hal_rtc_ex.c ****   /* Process Locked */
1242:/home/phong/Documents/thesis/stm32f4/stm-idf/components/stm32f4xx_hal_driver/stm32f4xx_hal_rtc_ex.c ****   __HAL_LOCK(hrtc);
 1943              		.loc 1 1242 0
 1944 0000 037F     		ldrb	r3, [r0, #28]	@ zero_extendqisi2
 1945 0002 012B     		cmp	r3, #1
 1946 0004 02D1     		bne	.L155
 1947 0006 0223     		movs	r3, #2
1243:/home/phong/Documents/thesis/stm32f4/stm-idf/components/stm32f4xx_hal_driver/stm32f4xx_hal_rtc_ex.c **** 
1244:/home/phong/Documents/thesis/stm32f4/stm-idf/components/stm32f4xx_hal_driver/stm32f4xx_hal_rtc_ex.c ****   hrtc->State = HAL_RTC_STATE_BUSY;
1245:/home/phong/Documents/thesis/stm32f4/stm-idf/components/stm32f4xx_hal_driver/stm32f4xx_hal_rtc_ex.c **** 
1246:/home/phong/Documents/thesis/stm32f4/stm-idf/components/stm32f4xx_hal_driver/stm32f4xx_hal_rtc_ex.c ****   /* Disable the write protection for RTC registers */
1247:/home/phong/Documents/thesis/stm32f4/stm-idf/components/stm32f4xx_hal_driver/stm32f4xx_hal_rtc_ex.c ****   __HAL_RTC_WRITEPROTECTION_DISABLE(hrtc);
1248:/home/phong/Documents/thesis/stm32f4/stm-idf/components/stm32f4xx_hal_driver/stm32f4xx_hal_rtc_ex.c **** 
1249:/home/phong/Documents/thesis/stm32f4/stm-idf/components/stm32f4xx_hal_driver/stm32f4xx_hal_rtc_ex.c ****   /* Set Initialization mode */
1250:/home/phong/Documents/thesis/stm32f4/stm-idf/components/stm32f4xx_hal_driver/stm32f4xx_hal_rtc_ex.c ****   if(RTC_EnterInitMode(hrtc) != HAL_OK)
1251:/home/phong/Documents/thesis/stm32f4/stm-idf/components/stm32f4xx_hal_driver/stm32f4xx_hal_rtc_ex.c ****   {
1252:/home/phong/Documents/thesis/stm32f4/stm-idf/components/stm32f4xx_hal_driver/stm32f4xx_hal_rtc_ex.c ****     /* Enable the write protection for RTC registers */
1253:/home/phong/Documents/thesis/stm32f4/stm-idf/components/stm32f4xx_hal_driver/stm32f4xx_hal_rtc_ex.c ****     __HAL_RTC_WRITEPROTECTION_ENABLE(hrtc);
1254:/home/phong/Documents/thesis/stm32f4/stm-idf/components/stm32f4xx_hal_driver/stm32f4xx_hal_rtc_ex.c **** 
1255:/home/phong/Documents/thesis/stm32f4/stm-idf/components/stm32f4xx_hal_driver/stm32f4xx_hal_rtc_ex.c ****     /* Set RTC state*/
1256:/home/phong/Documents/thesis/stm32f4/stm-idf/components/stm32f4xx_hal_driver/stm32f4xx_hal_rtc_ex.c ****     hrtc->State = HAL_RTC_STATE_ERROR;
1257:/home/phong/Documents/thesis/stm32f4/stm-idf/components/stm32f4xx_hal_driver/stm32f4xx_hal_rtc_ex.c **** 
1258:/home/phong/Documents/thesis/stm32f4/stm-idf/components/stm32f4xx_hal_driver/stm32f4xx_hal_rtc_ex.c ****     /* Process Unlocked */
1259:/home/phong/Documents/thesis/stm32f4/stm-idf/components/stm32f4xx_hal_driver/stm32f4xx_hal_rtc_ex.c ****     __HAL_UNLOCK(hrtc);
ARM GAS  /tmp/cc17vVDA.s 			page 58


1260:/home/phong/Documents/thesis/stm32f4/stm-idf/components/stm32f4xx_hal_driver/stm32f4xx_hal_rtc_ex.c **** 
1261:/home/phong/Documents/thesis/stm32f4/stm-idf/components/stm32f4xx_hal_driver/stm32f4xx_hal_rtc_ex.c ****     return HAL_ERROR;
1262:/home/phong/Documents/thesis/stm32f4/stm-idf/components/stm32f4xx_hal_driver/stm32f4xx_hal_rtc_ex.c ****   }
1263:/home/phong/Documents/thesis/stm32f4/stm-idf/components/stm32f4xx_hal_driver/stm32f4xx_hal_rtc_ex.c ****   else
1264:/home/phong/Documents/thesis/stm32f4/stm-idf/components/stm32f4xx_hal_driver/stm32f4xx_hal_rtc_ex.c ****   {
1265:/home/phong/Documents/thesis/stm32f4/stm-idf/components/stm32f4xx_hal_driver/stm32f4xx_hal_rtc_ex.c ****     /* Enable the Coarse Calibration */
1266:/home/phong/Documents/thesis/stm32f4/stm-idf/components/stm32f4xx_hal_driver/stm32f4xx_hal_rtc_ex.c ****     __HAL_RTC_COARSE_CALIB_DISABLE(hrtc);
1267:/home/phong/Documents/thesis/stm32f4/stm-idf/components/stm32f4xx_hal_driver/stm32f4xx_hal_rtc_ex.c **** 
1268:/home/phong/Documents/thesis/stm32f4/stm-idf/components/stm32f4xx_hal_driver/stm32f4xx_hal_rtc_ex.c ****     /* Exit Initialization mode */
1269:/home/phong/Documents/thesis/stm32f4/stm-idf/components/stm32f4xx_hal_driver/stm32f4xx_hal_rtc_ex.c ****     hrtc->Instance->ISR &= (uint32_t)~RTC_ISR_INIT;
1270:/home/phong/Documents/thesis/stm32f4/stm-idf/components/stm32f4xx_hal_driver/stm32f4xx_hal_rtc_ex.c ****   }
1271:/home/phong/Documents/thesis/stm32f4/stm-idf/components/stm32f4xx_hal_driver/stm32f4xx_hal_rtc_ex.c **** 
1272:/home/phong/Documents/thesis/stm32f4/stm-idf/components/stm32f4xx_hal_driver/stm32f4xx_hal_rtc_ex.c ****   /* Enable the write protection for RTC registers */
1273:/home/phong/Documents/thesis/stm32f4/stm-idf/components/stm32f4xx_hal_driver/stm32f4xx_hal_rtc_ex.c ****   __HAL_RTC_WRITEPROTECTION_ENABLE(hrtc);
1274:/home/phong/Documents/thesis/stm32f4/stm-idf/components/stm32f4xx_hal_driver/stm32f4xx_hal_rtc_ex.c **** 
1275:/home/phong/Documents/thesis/stm32f4/stm-idf/components/stm32f4xx_hal_driver/stm32f4xx_hal_rtc_ex.c ****   /* Change state */
1276:/home/phong/Documents/thesis/stm32f4/stm-idf/components/stm32f4xx_hal_driver/stm32f4xx_hal_rtc_ex.c ****   hrtc->State = HAL_RTC_STATE_READY;
1277:/home/phong/Documents/thesis/stm32f4/stm-idf/components/stm32f4xx_hal_driver/stm32f4xx_hal_rtc_ex.c **** 
1278:/home/phong/Documents/thesis/stm32f4/stm-idf/components/stm32f4xx_hal_driver/stm32f4xx_hal_rtc_ex.c ****   /* Process Unlocked */
1279:/home/phong/Documents/thesis/stm32f4/stm-idf/components/stm32f4xx_hal_driver/stm32f4xx_hal_rtc_ex.c ****   __HAL_UNLOCK(hrtc);
1280:/home/phong/Documents/thesis/stm32f4/stm-idf/components/stm32f4xx_hal_driver/stm32f4xx_hal_rtc_ex.c **** 
1281:/home/phong/Documents/thesis/stm32f4/stm-idf/components/stm32f4xx_hal_driver/stm32f4xx_hal_rtc_ex.c ****   return HAL_OK;
1282:/home/phong/Documents/thesis/stm32f4/stm-idf/components/stm32f4xx_hal_driver/stm32f4xx_hal_rtc_ex.c **** }
 1948              		.loc 1 1282 0
 1949 0008 1846     		mov	r0, r3
 1950              	.LVL152:
 1951 000a 7047     		bx	lr
 1952              	.LVL153:
 1953              	.L155:
1240:/home/phong/Documents/thesis/stm32f4/stm-idf/components/stm32f4xx_hal_driver/stm32f4xx_hal_rtc_ex.c ****   /* Process Locked */
 1954              		.loc 1 1240 0 discriminator 2
 1955 000c 10B5     		push	{r4, lr}
 1956              	.LCFI28:
 1957              		.cfi_def_cfa_offset 8
 1958              		.cfi_offset 4, -8
 1959              		.cfi_offset 14, -4
 1960 000e 0446     		mov	r4, r0
1242:/home/phong/Documents/thesis/stm32f4/stm-idf/components/stm32f4xx_hal_driver/stm32f4xx_hal_rtc_ex.c **** 
 1961              		.loc 1 1242 0 discriminator 2
 1962 0010 0123     		movs	r3, #1
 1963 0012 0377     		strb	r3, [r0, #28]
1244:/home/phong/Documents/thesis/stm32f4/stm-idf/components/stm32f4xx_hal_driver/stm32f4xx_hal_rtc_ex.c **** 
 1964              		.loc 1 1244 0 discriminator 2
 1965 0014 0223     		movs	r3, #2
 1966 0016 4377     		strb	r3, [r0, #29]
1247:/home/phong/Documents/thesis/stm32f4/stm-idf/components/stm32f4xx_hal_driver/stm32f4xx_hal_rtc_ex.c **** 
 1967              		.loc 1 1247 0 discriminator 2
 1968 0018 0368     		ldr	r3, [r0]
 1969 001a CA22     		movs	r2, #202
 1970 001c 5A62     		str	r2, [r3, #36]
 1971 001e 0368     		ldr	r3, [r0]
 1972 0020 5322     		movs	r2, #83
 1973 0022 5A62     		str	r2, [r3, #36]
1250:/home/phong/Documents/thesis/stm32f4/stm-idf/components/stm32f4xx_hal_driver/stm32f4xx_hal_rtc_ex.c ****   {
 1974              		.loc 1 1250 0 discriminator 2
 1975 0024 FFF7FEFF 		bl	RTC_EnterInitMode
 1976              	.LVL154:
ARM GAS  /tmp/cc17vVDA.s 			page 59


 1977 0028 0346     		mov	r3, r0
 1978 002a 90B9     		cbnz	r0, .L156
1266:/home/phong/Documents/thesis/stm32f4/stm-idf/components/stm32f4xx_hal_driver/stm32f4xx_hal_rtc_ex.c **** 
 1979              		.loc 1 1266 0
 1980 002c 2168     		ldr	r1, [r4]
 1981 002e 8A68     		ldr	r2, [r1, #8]
 1982 0030 22F08002 		bic	r2, r2, #128
 1983 0034 8A60     		str	r2, [r1, #8]
1269:/home/phong/Documents/thesis/stm32f4/stm-idf/components/stm32f4xx_hal_driver/stm32f4xx_hal_rtc_ex.c ****   }
 1984              		.loc 1 1269 0
 1985 0036 2168     		ldr	r1, [r4]
 1986 0038 CA68     		ldr	r2, [r1, #12]
 1987 003a 22F08002 		bic	r2, r2, #128
 1988 003e CA60     		str	r2, [r1, #12]
1273:/home/phong/Documents/thesis/stm32f4/stm-idf/components/stm32f4xx_hal_driver/stm32f4xx_hal_rtc_ex.c **** 
 1989              		.loc 1 1273 0
 1990 0040 2268     		ldr	r2, [r4]
 1991 0042 FF21     		movs	r1, #255
 1992 0044 5162     		str	r1, [r2, #36]
1276:/home/phong/Documents/thesis/stm32f4/stm-idf/components/stm32f4xx_hal_driver/stm32f4xx_hal_rtc_ex.c **** 
 1993              		.loc 1 1276 0
 1994 0046 0122     		movs	r2, #1
 1995 0048 6277     		strb	r2, [r4, #29]
1279:/home/phong/Documents/thesis/stm32f4/stm-idf/components/stm32f4xx_hal_driver/stm32f4xx_hal_rtc_ex.c **** 
 1996              		.loc 1 1279 0
 1997 004a 0022     		movs	r2, #0
 1998 004c 2277     		strb	r2, [r4, #28]
 1999              	.L148:
 2000              		.loc 1 1282 0
 2001 004e 1846     		mov	r0, r3
 2002 0050 10BD     		pop	{r4, pc}
 2003              	.LVL155:
 2004              	.L156:
1253:/home/phong/Documents/thesis/stm32f4/stm-idf/components/stm32f4xx_hal_driver/stm32f4xx_hal_rtc_ex.c **** 
 2005              		.loc 1 1253 0
 2006 0052 2368     		ldr	r3, [r4]
 2007 0054 FF22     		movs	r2, #255
 2008 0056 5A62     		str	r2, [r3, #36]
1256:/home/phong/Documents/thesis/stm32f4/stm-idf/components/stm32f4xx_hal_driver/stm32f4xx_hal_rtc_ex.c **** 
 2009              		.loc 1 1256 0
 2010 0058 0423     		movs	r3, #4
 2011 005a 6377     		strb	r3, [r4, #29]
1259:/home/phong/Documents/thesis/stm32f4/stm-idf/components/stm32f4xx_hal_driver/stm32f4xx_hal_rtc_ex.c **** 
 2012              		.loc 1 1259 0
 2013 005c 0023     		movs	r3, #0
 2014 005e 2377     		strb	r3, [r4, #28]
1261:/home/phong/Documents/thesis/stm32f4/stm-idf/components/stm32f4xx_hal_driver/stm32f4xx_hal_rtc_ex.c ****   }
 2015              		.loc 1 1261 0
 2016 0060 0123     		movs	r3, #1
 2017 0062 F4E7     		b	.L148
 2018              		.cfi_endproc
 2019              	.LFE154:
 2021              		.section	.text.HAL_RTCEx_SetSmoothCalib,"ax",%progbits
 2022              		.align	1
 2023              		.global	HAL_RTCEx_SetSmoothCalib
 2024              		.syntax unified
 2025              		.thumb
ARM GAS  /tmp/cc17vVDA.s 			page 60


 2026              		.thumb_func
 2027              		.fpu fpv4-sp-d16
 2029              	HAL_RTCEx_SetSmoothCalib:
 2030              	.LFB155:
1283:/home/phong/Documents/thesis/stm32f4/stm-idf/components/stm32f4xx_hal_driver/stm32f4xx_hal_rtc_ex.c **** 
1284:/home/phong/Documents/thesis/stm32f4/stm-idf/components/stm32f4xx_hal_driver/stm32f4xx_hal_rtc_ex.c **** /**
1285:/home/phong/Documents/thesis/stm32f4/stm-idf/components/stm32f4xx_hal_driver/stm32f4xx_hal_rtc_ex.c ****   * @brief  Sets the Smooth calibration parameters.
1286:/home/phong/Documents/thesis/stm32f4/stm-idf/components/stm32f4xx_hal_driver/stm32f4xx_hal_rtc_ex.c ****   * @param  hrtc pointer to a RTC_HandleTypeDef structure that contains
1287:/home/phong/Documents/thesis/stm32f4/stm-idf/components/stm32f4xx_hal_driver/stm32f4xx_hal_rtc_ex.c ****   *                the configuration information for RTC.
1288:/home/phong/Documents/thesis/stm32f4/stm-idf/components/stm32f4xx_hal_driver/stm32f4xx_hal_rtc_ex.c ****   * @param  SmoothCalibPeriod Select the Smooth Calibration Period.
1289:/home/phong/Documents/thesis/stm32f4/stm-idf/components/stm32f4xx_hal_driver/stm32f4xx_hal_rtc_ex.c ****   *          This parameter can be can be one of the following values :
1290:/home/phong/Documents/thesis/stm32f4/stm-idf/components/stm32f4xx_hal_driver/stm32f4xx_hal_rtc_ex.c ****   *             @arg RTC_SMOOTHCALIB_PERIOD_32SEC: The smooth calibration period is 32s.
1291:/home/phong/Documents/thesis/stm32f4/stm-idf/components/stm32f4xx_hal_driver/stm32f4xx_hal_rtc_ex.c ****   *             @arg RTC_SMOOTHCALIB_PERIOD_16SEC: The smooth calibration period is 16s.
1292:/home/phong/Documents/thesis/stm32f4/stm-idf/components/stm32f4xx_hal_driver/stm32f4xx_hal_rtc_ex.c ****   *             @arg RTC_SMOOTHCALIB_PERIOD_8SEC: The smooth calibration period is 8s.
1293:/home/phong/Documents/thesis/stm32f4/stm-idf/components/stm32f4xx_hal_driver/stm32f4xx_hal_rtc_ex.c ****   * @param  SmoothCalibPlusPulses Select to Set or reset the CALP bit.
1294:/home/phong/Documents/thesis/stm32f4/stm-idf/components/stm32f4xx_hal_driver/stm32f4xx_hal_rtc_ex.c ****   *          This parameter can be one of the following values:
1295:/home/phong/Documents/thesis/stm32f4/stm-idf/components/stm32f4xx_hal_driver/stm32f4xx_hal_rtc_ex.c ****   *             @arg RTC_SMOOTHCALIB_PLUSPULSES_SET: Add one RTCCLK pulse every 2*11 pulses.
1296:/home/phong/Documents/thesis/stm32f4/stm-idf/components/stm32f4xx_hal_driver/stm32f4xx_hal_rtc_ex.c ****   *             @arg RTC_SMOOTHCALIB_PLUSPULSES_RESET: No RTCCLK pulses are added.
1297:/home/phong/Documents/thesis/stm32f4/stm-idf/components/stm32f4xx_hal_driver/stm32f4xx_hal_rtc_ex.c ****   * @param  SmouthCalibMinusPulsesValue Select the value of CALM[80] bits.
1298:/home/phong/Documents/thesis/stm32f4/stm-idf/components/stm32f4xx_hal_driver/stm32f4xx_hal_rtc_ex.c ****   *          This parameter can be one any value from 0 to 0x000001FF.
1299:/home/phong/Documents/thesis/stm32f4/stm-idf/components/stm32f4xx_hal_driver/stm32f4xx_hal_rtc_ex.c ****   * @note   To deactivate the smooth calibration, the field SmoothCalibPlusPulses
1300:/home/phong/Documents/thesis/stm32f4/stm-idf/components/stm32f4xx_hal_driver/stm32f4xx_hal_rtc_ex.c ****   *         must be equal to SMOOTHCALIB_PLUSPULSES_RESET and the field
1301:/home/phong/Documents/thesis/stm32f4/stm-idf/components/stm32f4xx_hal_driver/stm32f4xx_hal_rtc_ex.c ****   *         SmouthCalibMinusPulsesValue must be equal to 0.
1302:/home/phong/Documents/thesis/stm32f4/stm-idf/components/stm32f4xx_hal_driver/stm32f4xx_hal_rtc_ex.c ****   * @retval HAL status
1303:/home/phong/Documents/thesis/stm32f4/stm-idf/components/stm32f4xx_hal_driver/stm32f4xx_hal_rtc_ex.c ****   */
1304:/home/phong/Documents/thesis/stm32f4/stm-idf/components/stm32f4xx_hal_driver/stm32f4xx_hal_rtc_ex.c **** HAL_StatusTypeDef HAL_RTCEx_SetSmoothCalib(RTC_HandleTypeDef* hrtc, uint32_t SmoothCalibPeriod, uin
1305:/home/phong/Documents/thesis/stm32f4/stm-idf/components/stm32f4xx_hal_driver/stm32f4xx_hal_rtc_ex.c **** {
 2031              		.loc 1 1305 0
 2032              		.cfi_startproc
 2033              		@ args = 0, pretend = 0, frame = 0
 2034              		@ frame_needed = 0, uses_anonymous_args = 0
 2035              	.LVL156:
 2036 0000 2DE9F041 		push	{r4, r5, r6, r7, r8, lr}
 2037              	.LCFI29:
 2038              		.cfi_def_cfa_offset 24
 2039              		.cfi_offset 4, -24
 2040              		.cfi_offset 5, -20
 2041              		.cfi_offset 6, -16
 2042              		.cfi_offset 7, -12
 2043              		.cfi_offset 8, -8
 2044              		.cfi_offset 14, -4
 2045              	.LVL157:
1306:/home/phong/Documents/thesis/stm32f4/stm-idf/components/stm32f4xx_hal_driver/stm32f4xx_hal_rtc_ex.c ****   uint32_t tickstart = 0U;
1307:/home/phong/Documents/thesis/stm32f4/stm-idf/components/stm32f4xx_hal_driver/stm32f4xx_hal_rtc_ex.c **** 
1308:/home/phong/Documents/thesis/stm32f4/stm-idf/components/stm32f4xx_hal_driver/stm32f4xx_hal_rtc_ex.c ****   /* Check the parameters */
1309:/home/phong/Documents/thesis/stm32f4/stm-idf/components/stm32f4xx_hal_driver/stm32f4xx_hal_rtc_ex.c ****   assert_param(IS_RTC_SMOOTH_CALIB_PERIOD(SmoothCalibPeriod));
1310:/home/phong/Documents/thesis/stm32f4/stm-idf/components/stm32f4xx_hal_driver/stm32f4xx_hal_rtc_ex.c ****   assert_param(IS_RTC_SMOOTH_CALIB_PLUS(SmoothCalibPlusPulses));
1311:/home/phong/Documents/thesis/stm32f4/stm-idf/components/stm32f4xx_hal_driver/stm32f4xx_hal_rtc_ex.c ****   assert_param(IS_RTC_SMOOTH_CALIB_MINUS(SmouthCalibMinusPulsesValue));
1312:/home/phong/Documents/thesis/stm32f4/stm-idf/components/stm32f4xx_hal_driver/stm32f4xx_hal_rtc_ex.c **** 
1313:/home/phong/Documents/thesis/stm32f4/stm-idf/components/stm32f4xx_hal_driver/stm32f4xx_hal_rtc_ex.c ****   /* Process Locked */
1314:/home/phong/Documents/thesis/stm32f4/stm-idf/components/stm32f4xx_hal_driver/stm32f4xx_hal_rtc_ex.c ****   __HAL_LOCK(hrtc);
 2046              		.loc 1 1314 0
 2047 0004 047F     		ldrb	r4, [r0, #28]	@ zero_extendqisi2
 2048 0006 012C     		cmp	r4, #1
 2049 0008 37D0     		beq	.L162
 2050 000a 1E46     		mov	r6, r3
 2051 000c 1746     		mov	r7, r2
ARM GAS  /tmp/cc17vVDA.s 			page 61


 2052 000e 0D46     		mov	r5, r1
 2053 0010 0446     		mov	r4, r0
 2054              		.loc 1 1314 0 is_stmt 0 discriminator 2
 2055 0012 0123     		movs	r3, #1
 2056              	.LVL158:
 2057 0014 0377     		strb	r3, [r0, #28]
1315:/home/phong/Documents/thesis/stm32f4/stm-idf/components/stm32f4xx_hal_driver/stm32f4xx_hal_rtc_ex.c **** 
1316:/home/phong/Documents/thesis/stm32f4/stm-idf/components/stm32f4xx_hal_driver/stm32f4xx_hal_rtc_ex.c ****   hrtc->State = HAL_RTC_STATE_BUSY;
 2058              		.loc 1 1316 0 is_stmt 1 discriminator 2
 2059 0016 0223     		movs	r3, #2
 2060 0018 4377     		strb	r3, [r0, #29]
1317:/home/phong/Documents/thesis/stm32f4/stm-idf/components/stm32f4xx_hal_driver/stm32f4xx_hal_rtc_ex.c **** 
1318:/home/phong/Documents/thesis/stm32f4/stm-idf/components/stm32f4xx_hal_driver/stm32f4xx_hal_rtc_ex.c ****   /* Disable the write protection for RTC registers */
1319:/home/phong/Documents/thesis/stm32f4/stm-idf/components/stm32f4xx_hal_driver/stm32f4xx_hal_rtc_ex.c ****   __HAL_RTC_WRITEPROTECTION_DISABLE(hrtc);
 2061              		.loc 1 1319 0 discriminator 2
 2062 001a 0368     		ldr	r3, [r0]
 2063 001c CA22     		movs	r2, #202
 2064              	.LVL159:
 2065 001e 5A62     		str	r2, [r3, #36]
 2066 0020 0368     		ldr	r3, [r0]
 2067 0022 5322     		movs	r2, #83
 2068 0024 5A62     		str	r2, [r3, #36]
1320:/home/phong/Documents/thesis/stm32f4/stm-idf/components/stm32f4xx_hal_driver/stm32f4xx_hal_rtc_ex.c **** 
1321:/home/phong/Documents/thesis/stm32f4/stm-idf/components/stm32f4xx_hal_driver/stm32f4xx_hal_rtc_ex.c ****   /* check if a calibration is pending*/
1322:/home/phong/Documents/thesis/stm32f4/stm-idf/components/stm32f4xx_hal_driver/stm32f4xx_hal_rtc_ex.c ****   if((hrtc->Instance->ISR & RTC_ISR_RECALPF) != RESET)
 2069              		.loc 1 1322 0 discriminator 2
 2070 0026 0368     		ldr	r3, [r0]
 2071 0028 DB68     		ldr	r3, [r3, #12]
 2072 002a 13F4803F 		tst	r3, #65536
 2073 002e 0CD1     		bne	.L164
 2074              	.LVL160:
 2075              	.L159:
1323:/home/phong/Documents/thesis/stm32f4/stm-idf/components/stm32f4xx_hal_driver/stm32f4xx_hal_rtc_ex.c ****   {
1324:/home/phong/Documents/thesis/stm32f4/stm-idf/components/stm32f4xx_hal_driver/stm32f4xx_hal_rtc_ex.c ****   /* Get tick */
1325:/home/phong/Documents/thesis/stm32f4/stm-idf/components/stm32f4xx_hal_driver/stm32f4xx_hal_rtc_ex.c ****   tickstart = HAL_GetTick();
1326:/home/phong/Documents/thesis/stm32f4/stm-idf/components/stm32f4xx_hal_driver/stm32f4xx_hal_rtc_ex.c **** 
1327:/home/phong/Documents/thesis/stm32f4/stm-idf/components/stm32f4xx_hal_driver/stm32f4xx_hal_rtc_ex.c ****     /* check if a calibration is pending*/
1328:/home/phong/Documents/thesis/stm32f4/stm-idf/components/stm32f4xx_hal_driver/stm32f4xx_hal_rtc_ex.c ****     while((hrtc->Instance->ISR & RTC_ISR_RECALPF) != RESET)
1329:/home/phong/Documents/thesis/stm32f4/stm-idf/components/stm32f4xx_hal_driver/stm32f4xx_hal_rtc_ex.c ****     {
1330:/home/phong/Documents/thesis/stm32f4/stm-idf/components/stm32f4xx_hal_driver/stm32f4xx_hal_rtc_ex.c ****       if((HAL_GetTick() - tickstart ) > RTC_TIMEOUT_VALUE)
1331:/home/phong/Documents/thesis/stm32f4/stm-idf/components/stm32f4xx_hal_driver/stm32f4xx_hal_rtc_ex.c ****       {
1332:/home/phong/Documents/thesis/stm32f4/stm-idf/components/stm32f4xx_hal_driver/stm32f4xx_hal_rtc_ex.c ****         /* Enable the write protection for RTC registers */
1333:/home/phong/Documents/thesis/stm32f4/stm-idf/components/stm32f4xx_hal_driver/stm32f4xx_hal_rtc_ex.c ****         __HAL_RTC_WRITEPROTECTION_ENABLE(hrtc);
1334:/home/phong/Documents/thesis/stm32f4/stm-idf/components/stm32f4xx_hal_driver/stm32f4xx_hal_rtc_ex.c **** 
1335:/home/phong/Documents/thesis/stm32f4/stm-idf/components/stm32f4xx_hal_driver/stm32f4xx_hal_rtc_ex.c ****         /* Change RTC state */
1336:/home/phong/Documents/thesis/stm32f4/stm-idf/components/stm32f4xx_hal_driver/stm32f4xx_hal_rtc_ex.c ****         hrtc->State = HAL_RTC_STATE_TIMEOUT;
1337:/home/phong/Documents/thesis/stm32f4/stm-idf/components/stm32f4xx_hal_driver/stm32f4xx_hal_rtc_ex.c **** 
1338:/home/phong/Documents/thesis/stm32f4/stm-idf/components/stm32f4xx_hal_driver/stm32f4xx_hal_rtc_ex.c ****         /* Process Unlocked */
1339:/home/phong/Documents/thesis/stm32f4/stm-idf/components/stm32f4xx_hal_driver/stm32f4xx_hal_rtc_ex.c ****         __HAL_UNLOCK(hrtc);
1340:/home/phong/Documents/thesis/stm32f4/stm-idf/components/stm32f4xx_hal_driver/stm32f4xx_hal_rtc_ex.c **** 
1341:/home/phong/Documents/thesis/stm32f4/stm-idf/components/stm32f4xx_hal_driver/stm32f4xx_hal_rtc_ex.c ****         return HAL_TIMEOUT;
1342:/home/phong/Documents/thesis/stm32f4/stm-idf/components/stm32f4xx_hal_driver/stm32f4xx_hal_rtc_ex.c ****       }
1343:/home/phong/Documents/thesis/stm32f4/stm-idf/components/stm32f4xx_hal_driver/stm32f4xx_hal_rtc_ex.c ****     }
1344:/home/phong/Documents/thesis/stm32f4/stm-idf/components/stm32f4xx_hal_driver/stm32f4xx_hal_rtc_ex.c ****   }
1345:/home/phong/Documents/thesis/stm32f4/stm-idf/components/stm32f4xx_hal_driver/stm32f4xx_hal_rtc_ex.c **** 
1346:/home/phong/Documents/thesis/stm32f4/stm-idf/components/stm32f4xx_hal_driver/stm32f4xx_hal_rtc_ex.c ****   /* Configure the Smooth calibration settings */
1347:/home/phong/Documents/thesis/stm32f4/stm-idf/components/stm32f4xx_hal_driver/stm32f4xx_hal_rtc_ex.c ****   hrtc->Instance->CALR = (uint32_t)((uint32_t)SmoothCalibPeriod | (uint32_t)SmoothCalibPlusPulses |
ARM GAS  /tmp/cc17vVDA.s 			page 62


 2076              		.loc 1 1347 0
 2077 0030 2368     		ldr	r3, [r4]
 2078 0032 3D43     		orrs	r5, r5, r7
 2079              	.LVL161:
 2080 0034 3543     		orrs	r5, r5, r6
 2081 0036 DD63     		str	r5, [r3, #60]
1348:/home/phong/Documents/thesis/stm32f4/stm-idf/components/stm32f4xx_hal_driver/stm32f4xx_hal_rtc_ex.c **** 
1349:/home/phong/Documents/thesis/stm32f4/stm-idf/components/stm32f4xx_hal_driver/stm32f4xx_hal_rtc_ex.c ****   /* Enable the write protection for RTC registers */
1350:/home/phong/Documents/thesis/stm32f4/stm-idf/components/stm32f4xx_hal_driver/stm32f4xx_hal_rtc_ex.c ****   __HAL_RTC_WRITEPROTECTION_ENABLE(hrtc);
 2082              		.loc 1 1350 0
 2083 0038 2368     		ldr	r3, [r4]
 2084 003a FF22     		movs	r2, #255
 2085 003c 5A62     		str	r2, [r3, #36]
1351:/home/phong/Documents/thesis/stm32f4/stm-idf/components/stm32f4xx_hal_driver/stm32f4xx_hal_rtc_ex.c **** 
1352:/home/phong/Documents/thesis/stm32f4/stm-idf/components/stm32f4xx_hal_driver/stm32f4xx_hal_rtc_ex.c ****   /* Change RTC state */
1353:/home/phong/Documents/thesis/stm32f4/stm-idf/components/stm32f4xx_hal_driver/stm32f4xx_hal_rtc_ex.c ****   hrtc->State = HAL_RTC_STATE_READY;
 2086              		.loc 1 1353 0
 2087 003e 0123     		movs	r3, #1
 2088 0040 6377     		strb	r3, [r4, #29]
1354:/home/phong/Documents/thesis/stm32f4/stm-idf/components/stm32f4xx_hal_driver/stm32f4xx_hal_rtc_ex.c **** 
1355:/home/phong/Documents/thesis/stm32f4/stm-idf/components/stm32f4xx_hal_driver/stm32f4xx_hal_rtc_ex.c ****   /* Process Unlocked */
1356:/home/phong/Documents/thesis/stm32f4/stm-idf/components/stm32f4xx_hal_driver/stm32f4xx_hal_rtc_ex.c ****   __HAL_UNLOCK(hrtc);
 2089              		.loc 1 1356 0
 2090 0042 0020     		movs	r0, #0
 2091 0044 2077     		strb	r0, [r4, #28]
1357:/home/phong/Documents/thesis/stm32f4/stm-idf/components/stm32f4xx_hal_driver/stm32f4xx_hal_rtc_ex.c **** 
1358:/home/phong/Documents/thesis/stm32f4/stm-idf/components/stm32f4xx_hal_driver/stm32f4xx_hal_rtc_ex.c ****   return HAL_OK;
 2092              		.loc 1 1358 0
 2093 0046 BDE8F081 		pop	{r4, r5, r6, r7, r8, pc}
 2094              	.LVL162:
 2095              	.L164:
1325:/home/phong/Documents/thesis/stm32f4/stm-idf/components/stm32f4xx_hal_driver/stm32f4xx_hal_rtc_ex.c **** 
 2096              		.loc 1 1325 0
 2097 004a FFF7FEFF 		bl	HAL_GetTick
 2098              	.LVL163:
 2099 004e 8046     		mov	r8, r0
 2100              	.LVL164:
 2101              	.L160:
1328:/home/phong/Documents/thesis/stm32f4/stm-idf/components/stm32f4xx_hal_driver/stm32f4xx_hal_rtc_ex.c ****     {
 2102              		.loc 1 1328 0
 2103 0050 2168     		ldr	r1, [r4]
 2104 0052 C968     		ldr	r1, [r1, #12]
 2105 0054 11F4803F 		tst	r1, #65536
 2106 0058 EAD0     		beq	.L159
1330:/home/phong/Documents/thesis/stm32f4/stm-idf/components/stm32f4xx_hal_driver/stm32f4xx_hal_rtc_ex.c ****       {
 2107              		.loc 1 1330 0
 2108 005a FFF7FEFF 		bl	HAL_GetTick
 2109              	.LVL165:
 2110 005e A0EB0800 		sub	r0, r0, r8
 2111 0062 B0F57A7F 		cmp	r0, #1000
 2112 0066 F3D9     		bls	.L160
1333:/home/phong/Documents/thesis/stm32f4/stm-idf/components/stm32f4xx_hal_driver/stm32f4xx_hal_rtc_ex.c **** 
 2113              		.loc 1 1333 0
 2114 0068 2368     		ldr	r3, [r4]
 2115 006a FF22     		movs	r2, #255
 2116 006c 5A62     		str	r2, [r3, #36]
1336:/home/phong/Documents/thesis/stm32f4/stm-idf/components/stm32f4xx_hal_driver/stm32f4xx_hal_rtc_ex.c **** 
ARM GAS  /tmp/cc17vVDA.s 			page 63


 2117              		.loc 1 1336 0
 2118 006e 0320     		movs	r0, #3
 2119 0070 6077     		strb	r0, [r4, #29]
1339:/home/phong/Documents/thesis/stm32f4/stm-idf/components/stm32f4xx_hal_driver/stm32f4xx_hal_rtc_ex.c **** 
 2120              		.loc 1 1339 0
 2121 0072 0023     		movs	r3, #0
 2122 0074 2377     		strb	r3, [r4, #28]
1341:/home/phong/Documents/thesis/stm32f4/stm-idf/components/stm32f4xx_hal_driver/stm32f4xx_hal_rtc_ex.c ****       }
 2123              		.loc 1 1341 0
 2124 0076 BDE8F081 		pop	{r4, r5, r6, r7, r8, pc}
 2125              	.LVL166:
 2126              	.L162:
1314:/home/phong/Documents/thesis/stm32f4/stm-idf/components/stm32f4xx_hal_driver/stm32f4xx_hal_rtc_ex.c **** 
 2127              		.loc 1 1314 0
 2128 007a 0220     		movs	r0, #2
 2129              	.LVL167:
1359:/home/phong/Documents/thesis/stm32f4/stm-idf/components/stm32f4xx_hal_driver/stm32f4xx_hal_rtc_ex.c **** }
 2130              		.loc 1 1359 0
 2131 007c BDE8F081 		pop	{r4, r5, r6, r7, r8, pc}
 2132              		.cfi_endproc
 2133              	.LFE155:
 2135              		.section	.text.HAL_RTCEx_SetSynchroShift,"ax",%progbits
 2136              		.align	1
 2137              		.global	HAL_RTCEx_SetSynchroShift
 2138              		.syntax unified
 2139              		.thumb
 2140              		.thumb_func
 2141              		.fpu fpv4-sp-d16
 2143              	HAL_RTCEx_SetSynchroShift:
 2144              	.LFB156:
1360:/home/phong/Documents/thesis/stm32f4/stm-idf/components/stm32f4xx_hal_driver/stm32f4xx_hal_rtc_ex.c **** 
1361:/home/phong/Documents/thesis/stm32f4/stm-idf/components/stm32f4xx_hal_driver/stm32f4xx_hal_rtc_ex.c **** /**
1362:/home/phong/Documents/thesis/stm32f4/stm-idf/components/stm32f4xx_hal_driver/stm32f4xx_hal_rtc_ex.c ****   * @brief  Configures the Synchronization Shift Control Settings.
1363:/home/phong/Documents/thesis/stm32f4/stm-idf/components/stm32f4xx_hal_driver/stm32f4xx_hal_rtc_ex.c ****   * @note   When REFCKON is set, firmware must not write to Shift control register.
1364:/home/phong/Documents/thesis/stm32f4/stm-idf/components/stm32f4xx_hal_driver/stm32f4xx_hal_rtc_ex.c ****   * @param  hrtc pointer to a RTC_HandleTypeDef structure that contains
1365:/home/phong/Documents/thesis/stm32f4/stm-idf/components/stm32f4xx_hal_driver/stm32f4xx_hal_rtc_ex.c ****   *                the configuration information for RTC.
1366:/home/phong/Documents/thesis/stm32f4/stm-idf/components/stm32f4xx_hal_driver/stm32f4xx_hal_rtc_ex.c ****   * @param  ShiftAdd1S Select to add or not 1 second to the time calendar.
1367:/home/phong/Documents/thesis/stm32f4/stm-idf/components/stm32f4xx_hal_driver/stm32f4xx_hal_rtc_ex.c ****   *          This parameter can be one of the following values :
1368:/home/phong/Documents/thesis/stm32f4/stm-idf/components/stm32f4xx_hal_driver/stm32f4xx_hal_rtc_ex.c ****   *             @arg RTC_SHIFTADD1S_SET: Add one second to the clock calendar.
1369:/home/phong/Documents/thesis/stm32f4/stm-idf/components/stm32f4xx_hal_driver/stm32f4xx_hal_rtc_ex.c ****   *             @arg RTC_SHIFTADD1S_RESET: No effect.
1370:/home/phong/Documents/thesis/stm32f4/stm-idf/components/stm32f4xx_hal_driver/stm32f4xx_hal_rtc_ex.c ****   * @param  ShiftSubFS Select the number of Second Fractions to substitute.
1371:/home/phong/Documents/thesis/stm32f4/stm-idf/components/stm32f4xx_hal_driver/stm32f4xx_hal_rtc_ex.c ****   *          This parameter can be one any value from 0 to 0x7FFF.
1372:/home/phong/Documents/thesis/stm32f4/stm-idf/components/stm32f4xx_hal_driver/stm32f4xx_hal_rtc_ex.c ****   * @retval HAL status
1373:/home/phong/Documents/thesis/stm32f4/stm-idf/components/stm32f4xx_hal_driver/stm32f4xx_hal_rtc_ex.c ****   */
1374:/home/phong/Documents/thesis/stm32f4/stm-idf/components/stm32f4xx_hal_driver/stm32f4xx_hal_rtc_ex.c **** HAL_StatusTypeDef HAL_RTCEx_SetSynchroShift(RTC_HandleTypeDef* hrtc, uint32_t ShiftAdd1S, uint32_t 
1375:/home/phong/Documents/thesis/stm32f4/stm-idf/components/stm32f4xx_hal_driver/stm32f4xx_hal_rtc_ex.c **** {
 2145              		.loc 1 1375 0
 2146              		.cfi_startproc
 2147              		@ args = 0, pretend = 0, frame = 0
 2148              		@ frame_needed = 0, uses_anonymous_args = 0
 2149              	.LVL168:
 2150 0000 F8B5     		push	{r3, r4, r5, r6, r7, lr}
 2151              	.LCFI30:
 2152              		.cfi_def_cfa_offset 24
 2153              		.cfi_offset 3, -24
 2154              		.cfi_offset 4, -20
 2155              		.cfi_offset 5, -16
ARM GAS  /tmp/cc17vVDA.s 			page 64


 2156              		.cfi_offset 6, -12
 2157              		.cfi_offset 7, -8
 2158              		.cfi_offset 14, -4
 2159              	.LVL169:
1376:/home/phong/Documents/thesis/stm32f4/stm-idf/components/stm32f4xx_hal_driver/stm32f4xx_hal_rtc_ex.c ****   uint32_t tickstart = 0U;
1377:/home/phong/Documents/thesis/stm32f4/stm-idf/components/stm32f4xx_hal_driver/stm32f4xx_hal_rtc_ex.c **** 
1378:/home/phong/Documents/thesis/stm32f4/stm-idf/components/stm32f4xx_hal_driver/stm32f4xx_hal_rtc_ex.c ****   /* Check the parameters */
1379:/home/phong/Documents/thesis/stm32f4/stm-idf/components/stm32f4xx_hal_driver/stm32f4xx_hal_rtc_ex.c ****   assert_param(IS_RTC_SHIFT_ADD1S(ShiftAdd1S));
1380:/home/phong/Documents/thesis/stm32f4/stm-idf/components/stm32f4xx_hal_driver/stm32f4xx_hal_rtc_ex.c ****   assert_param(IS_RTC_SHIFT_SUBFS(ShiftSubFS));
1381:/home/phong/Documents/thesis/stm32f4/stm-idf/components/stm32f4xx_hal_driver/stm32f4xx_hal_rtc_ex.c **** 
1382:/home/phong/Documents/thesis/stm32f4/stm-idf/components/stm32f4xx_hal_driver/stm32f4xx_hal_rtc_ex.c ****   /* Process Locked */
1383:/home/phong/Documents/thesis/stm32f4/stm-idf/components/stm32f4xx_hal_driver/stm32f4xx_hal_rtc_ex.c ****   __HAL_LOCK(hrtc);
 2160              		.loc 1 1383 0
 2161 0002 037F     		ldrb	r3, [r0, #28]	@ zero_extendqisi2
 2162 0004 012B     		cmp	r3, #1
 2163 0006 01D1     		bne	.L173
 2164 0008 0220     		movs	r0, #2
 2165              	.LVL170:
1384:/home/phong/Documents/thesis/stm32f4/stm-idf/components/stm32f4xx_hal_driver/stm32f4xx_hal_rtc_ex.c **** 
1385:/home/phong/Documents/thesis/stm32f4/stm-idf/components/stm32f4xx_hal_driver/stm32f4xx_hal_rtc_ex.c ****   hrtc->State = HAL_RTC_STATE_BUSY;
1386:/home/phong/Documents/thesis/stm32f4/stm-idf/components/stm32f4xx_hal_driver/stm32f4xx_hal_rtc_ex.c **** 
1387:/home/phong/Documents/thesis/stm32f4/stm-idf/components/stm32f4xx_hal_driver/stm32f4xx_hal_rtc_ex.c ****   /* Disable the write protection for RTC registers */
1388:/home/phong/Documents/thesis/stm32f4/stm-idf/components/stm32f4xx_hal_driver/stm32f4xx_hal_rtc_ex.c ****   __HAL_RTC_WRITEPROTECTION_DISABLE(hrtc);
1389:/home/phong/Documents/thesis/stm32f4/stm-idf/components/stm32f4xx_hal_driver/stm32f4xx_hal_rtc_ex.c **** 
1390:/home/phong/Documents/thesis/stm32f4/stm-idf/components/stm32f4xx_hal_driver/stm32f4xx_hal_rtc_ex.c ****   /* Get tick */
1391:/home/phong/Documents/thesis/stm32f4/stm-idf/components/stm32f4xx_hal_driver/stm32f4xx_hal_rtc_ex.c ****   tickstart = HAL_GetTick();
1392:/home/phong/Documents/thesis/stm32f4/stm-idf/components/stm32f4xx_hal_driver/stm32f4xx_hal_rtc_ex.c **** 
1393:/home/phong/Documents/thesis/stm32f4/stm-idf/components/stm32f4xx_hal_driver/stm32f4xx_hal_rtc_ex.c ****     /* Wait until the shift is completed*/
1394:/home/phong/Documents/thesis/stm32f4/stm-idf/components/stm32f4xx_hal_driver/stm32f4xx_hal_rtc_ex.c ****     while((hrtc->Instance->ISR & RTC_ISR_SHPF) != RESET)
1395:/home/phong/Documents/thesis/stm32f4/stm-idf/components/stm32f4xx_hal_driver/stm32f4xx_hal_rtc_ex.c ****     {
1396:/home/phong/Documents/thesis/stm32f4/stm-idf/components/stm32f4xx_hal_driver/stm32f4xx_hal_rtc_ex.c ****       if((HAL_GetTick() - tickstart ) > RTC_TIMEOUT_VALUE)
1397:/home/phong/Documents/thesis/stm32f4/stm-idf/components/stm32f4xx_hal_driver/stm32f4xx_hal_rtc_ex.c ****       {
1398:/home/phong/Documents/thesis/stm32f4/stm-idf/components/stm32f4xx_hal_driver/stm32f4xx_hal_rtc_ex.c ****         /* Enable the write protection for RTC registers */
1399:/home/phong/Documents/thesis/stm32f4/stm-idf/components/stm32f4xx_hal_driver/stm32f4xx_hal_rtc_ex.c ****         __HAL_RTC_WRITEPROTECTION_ENABLE(hrtc);
1400:/home/phong/Documents/thesis/stm32f4/stm-idf/components/stm32f4xx_hal_driver/stm32f4xx_hal_rtc_ex.c **** 
1401:/home/phong/Documents/thesis/stm32f4/stm-idf/components/stm32f4xx_hal_driver/stm32f4xx_hal_rtc_ex.c ****         hrtc->State = HAL_RTC_STATE_TIMEOUT;
1402:/home/phong/Documents/thesis/stm32f4/stm-idf/components/stm32f4xx_hal_driver/stm32f4xx_hal_rtc_ex.c **** 
1403:/home/phong/Documents/thesis/stm32f4/stm-idf/components/stm32f4xx_hal_driver/stm32f4xx_hal_rtc_ex.c ****         /* Process Unlocked */
1404:/home/phong/Documents/thesis/stm32f4/stm-idf/components/stm32f4xx_hal_driver/stm32f4xx_hal_rtc_ex.c ****         __HAL_UNLOCK(hrtc);
1405:/home/phong/Documents/thesis/stm32f4/stm-idf/components/stm32f4xx_hal_driver/stm32f4xx_hal_rtc_ex.c **** 
1406:/home/phong/Documents/thesis/stm32f4/stm-idf/components/stm32f4xx_hal_driver/stm32f4xx_hal_rtc_ex.c ****         return HAL_TIMEOUT;
1407:/home/phong/Documents/thesis/stm32f4/stm-idf/components/stm32f4xx_hal_driver/stm32f4xx_hal_rtc_ex.c ****       }
1408:/home/phong/Documents/thesis/stm32f4/stm-idf/components/stm32f4xx_hal_driver/stm32f4xx_hal_rtc_ex.c ****     }
1409:/home/phong/Documents/thesis/stm32f4/stm-idf/components/stm32f4xx_hal_driver/stm32f4xx_hal_rtc_ex.c **** 
1410:/home/phong/Documents/thesis/stm32f4/stm-idf/components/stm32f4xx_hal_driver/stm32f4xx_hal_rtc_ex.c ****     /* Check if the reference clock detection is disabled */
1411:/home/phong/Documents/thesis/stm32f4/stm-idf/components/stm32f4xx_hal_driver/stm32f4xx_hal_rtc_ex.c ****     if((hrtc->Instance->CR & RTC_CR_REFCKON) == RESET)
1412:/home/phong/Documents/thesis/stm32f4/stm-idf/components/stm32f4xx_hal_driver/stm32f4xx_hal_rtc_ex.c ****     {
1413:/home/phong/Documents/thesis/stm32f4/stm-idf/components/stm32f4xx_hal_driver/stm32f4xx_hal_rtc_ex.c ****       /* Configure the Shift settings */
1414:/home/phong/Documents/thesis/stm32f4/stm-idf/components/stm32f4xx_hal_driver/stm32f4xx_hal_rtc_ex.c ****       hrtc->Instance->SHIFTR = (uint32_t)(uint32_t)(ShiftSubFS) | (uint32_t)(ShiftAdd1S);
1415:/home/phong/Documents/thesis/stm32f4/stm-idf/components/stm32f4xx_hal_driver/stm32f4xx_hal_rtc_ex.c **** 
1416:/home/phong/Documents/thesis/stm32f4/stm-idf/components/stm32f4xx_hal_driver/stm32f4xx_hal_rtc_ex.c ****       /* If  RTC_CR_BYPSHAD bit = 0, wait for synchro else this check is not needed */
1417:/home/phong/Documents/thesis/stm32f4/stm-idf/components/stm32f4xx_hal_driver/stm32f4xx_hal_rtc_ex.c ****       if((hrtc->Instance->CR & RTC_CR_BYPSHAD) == RESET)
1418:/home/phong/Documents/thesis/stm32f4/stm-idf/components/stm32f4xx_hal_driver/stm32f4xx_hal_rtc_ex.c ****       {
1419:/home/phong/Documents/thesis/stm32f4/stm-idf/components/stm32f4xx_hal_driver/stm32f4xx_hal_rtc_ex.c ****         if(HAL_RTC_WaitForSynchro(hrtc) != HAL_OK)
1420:/home/phong/Documents/thesis/stm32f4/stm-idf/components/stm32f4xx_hal_driver/stm32f4xx_hal_rtc_ex.c ****         {
1421:/home/phong/Documents/thesis/stm32f4/stm-idf/components/stm32f4xx_hal_driver/stm32f4xx_hal_rtc_ex.c ****           /* Enable the write protection for RTC registers */
1422:/home/phong/Documents/thesis/stm32f4/stm-idf/components/stm32f4xx_hal_driver/stm32f4xx_hal_rtc_ex.c ****           __HAL_RTC_WRITEPROTECTION_ENABLE(hrtc);
ARM GAS  /tmp/cc17vVDA.s 			page 65


1423:/home/phong/Documents/thesis/stm32f4/stm-idf/components/stm32f4xx_hal_driver/stm32f4xx_hal_rtc_ex.c **** 
1424:/home/phong/Documents/thesis/stm32f4/stm-idf/components/stm32f4xx_hal_driver/stm32f4xx_hal_rtc_ex.c ****           hrtc->State = HAL_RTC_STATE_ERROR;
1425:/home/phong/Documents/thesis/stm32f4/stm-idf/components/stm32f4xx_hal_driver/stm32f4xx_hal_rtc_ex.c **** 
1426:/home/phong/Documents/thesis/stm32f4/stm-idf/components/stm32f4xx_hal_driver/stm32f4xx_hal_rtc_ex.c ****           /* Process Unlocked */
1427:/home/phong/Documents/thesis/stm32f4/stm-idf/components/stm32f4xx_hal_driver/stm32f4xx_hal_rtc_ex.c ****           __HAL_UNLOCK(hrtc);
1428:/home/phong/Documents/thesis/stm32f4/stm-idf/components/stm32f4xx_hal_driver/stm32f4xx_hal_rtc_ex.c **** 
1429:/home/phong/Documents/thesis/stm32f4/stm-idf/components/stm32f4xx_hal_driver/stm32f4xx_hal_rtc_ex.c ****           return HAL_ERROR;
1430:/home/phong/Documents/thesis/stm32f4/stm-idf/components/stm32f4xx_hal_driver/stm32f4xx_hal_rtc_ex.c ****         }
1431:/home/phong/Documents/thesis/stm32f4/stm-idf/components/stm32f4xx_hal_driver/stm32f4xx_hal_rtc_ex.c ****       }
1432:/home/phong/Documents/thesis/stm32f4/stm-idf/components/stm32f4xx_hal_driver/stm32f4xx_hal_rtc_ex.c ****     }
1433:/home/phong/Documents/thesis/stm32f4/stm-idf/components/stm32f4xx_hal_driver/stm32f4xx_hal_rtc_ex.c ****     else
1434:/home/phong/Documents/thesis/stm32f4/stm-idf/components/stm32f4xx_hal_driver/stm32f4xx_hal_rtc_ex.c ****     {
1435:/home/phong/Documents/thesis/stm32f4/stm-idf/components/stm32f4xx_hal_driver/stm32f4xx_hal_rtc_ex.c ****       /* Enable the write protection for RTC registers */
1436:/home/phong/Documents/thesis/stm32f4/stm-idf/components/stm32f4xx_hal_driver/stm32f4xx_hal_rtc_ex.c ****       __HAL_RTC_WRITEPROTECTION_ENABLE(hrtc);
1437:/home/phong/Documents/thesis/stm32f4/stm-idf/components/stm32f4xx_hal_driver/stm32f4xx_hal_rtc_ex.c **** 
1438:/home/phong/Documents/thesis/stm32f4/stm-idf/components/stm32f4xx_hal_driver/stm32f4xx_hal_rtc_ex.c ****       /* Change RTC state */
1439:/home/phong/Documents/thesis/stm32f4/stm-idf/components/stm32f4xx_hal_driver/stm32f4xx_hal_rtc_ex.c ****       hrtc->State = HAL_RTC_STATE_ERROR;
1440:/home/phong/Documents/thesis/stm32f4/stm-idf/components/stm32f4xx_hal_driver/stm32f4xx_hal_rtc_ex.c **** 
1441:/home/phong/Documents/thesis/stm32f4/stm-idf/components/stm32f4xx_hal_driver/stm32f4xx_hal_rtc_ex.c ****       /* Process Unlocked */
1442:/home/phong/Documents/thesis/stm32f4/stm-idf/components/stm32f4xx_hal_driver/stm32f4xx_hal_rtc_ex.c ****       __HAL_UNLOCK(hrtc);
1443:/home/phong/Documents/thesis/stm32f4/stm-idf/components/stm32f4xx_hal_driver/stm32f4xx_hal_rtc_ex.c **** 
1444:/home/phong/Documents/thesis/stm32f4/stm-idf/components/stm32f4xx_hal_driver/stm32f4xx_hal_rtc_ex.c ****       return HAL_ERROR;
1445:/home/phong/Documents/thesis/stm32f4/stm-idf/components/stm32f4xx_hal_driver/stm32f4xx_hal_rtc_ex.c ****     }
1446:/home/phong/Documents/thesis/stm32f4/stm-idf/components/stm32f4xx_hal_driver/stm32f4xx_hal_rtc_ex.c **** 
1447:/home/phong/Documents/thesis/stm32f4/stm-idf/components/stm32f4xx_hal_driver/stm32f4xx_hal_rtc_ex.c ****   /* Enable the write protection for RTC registers */
1448:/home/phong/Documents/thesis/stm32f4/stm-idf/components/stm32f4xx_hal_driver/stm32f4xx_hal_rtc_ex.c ****   __HAL_RTC_WRITEPROTECTION_ENABLE(hrtc);
1449:/home/phong/Documents/thesis/stm32f4/stm-idf/components/stm32f4xx_hal_driver/stm32f4xx_hal_rtc_ex.c **** 
1450:/home/phong/Documents/thesis/stm32f4/stm-idf/components/stm32f4xx_hal_driver/stm32f4xx_hal_rtc_ex.c ****   /* Change RTC state */
1451:/home/phong/Documents/thesis/stm32f4/stm-idf/components/stm32f4xx_hal_driver/stm32f4xx_hal_rtc_ex.c ****   hrtc->State = HAL_RTC_STATE_READY;
1452:/home/phong/Documents/thesis/stm32f4/stm-idf/components/stm32f4xx_hal_driver/stm32f4xx_hal_rtc_ex.c **** 
1453:/home/phong/Documents/thesis/stm32f4/stm-idf/components/stm32f4xx_hal_driver/stm32f4xx_hal_rtc_ex.c ****   /* Process Unlocked */
1454:/home/phong/Documents/thesis/stm32f4/stm-idf/components/stm32f4xx_hal_driver/stm32f4xx_hal_rtc_ex.c ****   __HAL_UNLOCK(hrtc);
1455:/home/phong/Documents/thesis/stm32f4/stm-idf/components/stm32f4xx_hal_driver/stm32f4xx_hal_rtc_ex.c **** 
1456:/home/phong/Documents/thesis/stm32f4/stm-idf/components/stm32f4xx_hal_driver/stm32f4xx_hal_rtc_ex.c ****   return HAL_OK;
1457:/home/phong/Documents/thesis/stm32f4/stm-idf/components/stm32f4xx_hal_driver/stm32f4xx_hal_rtc_ex.c **** }
 2166              		.loc 1 1457 0
 2167 000a F8BD     		pop	{r3, r4, r5, r6, r7, pc}
 2168              	.LVL171:
 2169              	.L173:
 2170 000c 1646     		mov	r6, r2
 2171 000e 0F46     		mov	r7, r1
 2172 0010 0446     		mov	r4, r0
1383:/home/phong/Documents/thesis/stm32f4/stm-idf/components/stm32f4xx_hal_driver/stm32f4xx_hal_rtc_ex.c **** 
 2173              		.loc 1 1383 0 discriminator 2
 2174 0012 0123     		movs	r3, #1
 2175 0014 0377     		strb	r3, [r0, #28]
1385:/home/phong/Documents/thesis/stm32f4/stm-idf/components/stm32f4xx_hal_driver/stm32f4xx_hal_rtc_ex.c **** 
 2176              		.loc 1 1385 0 discriminator 2
 2177 0016 0223     		movs	r3, #2
 2178 0018 4377     		strb	r3, [r0, #29]
1388:/home/phong/Documents/thesis/stm32f4/stm-idf/components/stm32f4xx_hal_driver/stm32f4xx_hal_rtc_ex.c **** 
 2179              		.loc 1 1388 0 discriminator 2
 2180 001a 0368     		ldr	r3, [r0]
 2181 001c CA22     		movs	r2, #202
 2182              	.LVL172:
 2183 001e 5A62     		str	r2, [r3, #36]
 2184 0020 0368     		ldr	r3, [r0]
ARM GAS  /tmp/cc17vVDA.s 			page 66


 2185 0022 5322     		movs	r2, #83
 2186 0024 5A62     		str	r2, [r3, #36]
1391:/home/phong/Documents/thesis/stm32f4/stm-idf/components/stm32f4xx_hal_driver/stm32f4xx_hal_rtc_ex.c **** 
 2187              		.loc 1 1391 0 discriminator 2
 2188 0026 FFF7FEFF 		bl	HAL_GetTick
 2189              	.LVL173:
 2190 002a 0546     		mov	r5, r0
 2191              	.LVL174:
 2192              	.L167:
1394:/home/phong/Documents/thesis/stm32f4/stm-idf/components/stm32f4xx_hal_driver/stm32f4xx_hal_rtc_ex.c ****     {
 2193              		.loc 1 1394 0
 2194 002c 2368     		ldr	r3, [r4]
 2195 002e D868     		ldr	r0, [r3, #12]
 2196 0030 10F0080F 		tst	r0, #8
 2197 0034 0DD0     		beq	.L174
1396:/home/phong/Documents/thesis/stm32f4/stm-idf/components/stm32f4xx_hal_driver/stm32f4xx_hal_rtc_ex.c ****       {
 2198              		.loc 1 1396 0
 2199 0036 FFF7FEFF 		bl	HAL_GetTick
 2200              	.LVL175:
 2201 003a 401B     		subs	r0, r0, r5
 2202 003c B0F57A7F 		cmp	r0, #1000
 2203 0040 F4D9     		bls	.L167
1399:/home/phong/Documents/thesis/stm32f4/stm-idf/components/stm32f4xx_hal_driver/stm32f4xx_hal_rtc_ex.c **** 
 2204              		.loc 1 1399 0
 2205 0042 2368     		ldr	r3, [r4]
 2206 0044 FF22     		movs	r2, #255
 2207 0046 5A62     		str	r2, [r3, #36]
1401:/home/phong/Documents/thesis/stm32f4/stm-idf/components/stm32f4xx_hal_driver/stm32f4xx_hal_rtc_ex.c **** 
 2208              		.loc 1 1401 0
 2209 0048 0320     		movs	r0, #3
 2210 004a 6077     		strb	r0, [r4, #29]
1404:/home/phong/Documents/thesis/stm32f4/stm-idf/components/stm32f4xx_hal_driver/stm32f4xx_hal_rtc_ex.c **** 
 2211              		.loc 1 1404 0
 2212 004c 0023     		movs	r3, #0
 2213 004e 2377     		strb	r3, [r4, #28]
1406:/home/phong/Documents/thesis/stm32f4/stm-idf/components/stm32f4xx_hal_driver/stm32f4xx_hal_rtc_ex.c ****       }
 2214              		.loc 1 1406 0
 2215 0050 F8BD     		pop	{r3, r4, r5, r6, r7, pc}
 2216              	.LVL176:
 2217              	.L174:
1411:/home/phong/Documents/thesis/stm32f4/stm-idf/components/stm32f4xx_hal_driver/stm32f4xx_hal_rtc_ex.c ****     {
 2218              		.loc 1 1411 0
 2219 0052 9A68     		ldr	r2, [r3, #8]
 2220 0054 12F0100F 		tst	r2, #16
 2221 0058 1CD1     		bne	.L169
1414:/home/phong/Documents/thesis/stm32f4/stm-idf/components/stm32f4xx_hal_driver/stm32f4xx_hal_rtc_ex.c **** 
 2222              		.loc 1 1414 0
 2223 005a 3E43     		orrs	r6, r6, r7
 2224              	.LVL177:
 2225 005c DE62     		str	r6, [r3, #44]
1417:/home/phong/Documents/thesis/stm32f4/stm-idf/components/stm32f4xx_hal_driver/stm32f4xx_hal_rtc_ex.c ****       {
 2226              		.loc 1 1417 0
 2227 005e 2368     		ldr	r3, [r4]
 2228 0060 9B68     		ldr	r3, [r3, #8]
 2229 0062 13F0200F 		tst	r3, #32
 2230 0066 07D0     		beq	.L175
 2231              	.L170:
ARM GAS  /tmp/cc17vVDA.s 			page 67


1448:/home/phong/Documents/thesis/stm32f4/stm-idf/components/stm32f4xx_hal_driver/stm32f4xx_hal_rtc_ex.c **** 
 2232              		.loc 1 1448 0
 2233 0068 2368     		ldr	r3, [r4]
 2234 006a FF22     		movs	r2, #255
 2235 006c 5A62     		str	r2, [r3, #36]
1451:/home/phong/Documents/thesis/stm32f4/stm-idf/components/stm32f4xx_hal_driver/stm32f4xx_hal_rtc_ex.c **** 
 2236              		.loc 1 1451 0
 2237 006e 0123     		movs	r3, #1
 2238 0070 6377     		strb	r3, [r4, #29]
1454:/home/phong/Documents/thesis/stm32f4/stm-idf/components/stm32f4xx_hal_driver/stm32f4xx_hal_rtc_ex.c **** 
 2239              		.loc 1 1454 0
 2240 0072 0020     		movs	r0, #0
 2241 0074 2077     		strb	r0, [r4, #28]
1456:/home/phong/Documents/thesis/stm32f4/stm-idf/components/stm32f4xx_hal_driver/stm32f4xx_hal_rtc_ex.c **** }
 2242              		.loc 1 1456 0
 2243 0076 F8BD     		pop	{r3, r4, r5, r6, r7, pc}
 2244              	.LVL178:
 2245              	.L175:
1419:/home/phong/Documents/thesis/stm32f4/stm-idf/components/stm32f4xx_hal_driver/stm32f4xx_hal_rtc_ex.c ****         {
 2246              		.loc 1 1419 0
 2247 0078 2046     		mov	r0, r4
 2248 007a FFF7FEFF 		bl	HAL_RTC_WaitForSynchro
 2249              	.LVL179:
 2250 007e 0028     		cmp	r0, #0
 2251 0080 F2D0     		beq	.L170
1422:/home/phong/Documents/thesis/stm32f4/stm-idf/components/stm32f4xx_hal_driver/stm32f4xx_hal_rtc_ex.c **** 
 2252              		.loc 1 1422 0
 2253 0082 2368     		ldr	r3, [r4]
 2254 0084 FF22     		movs	r2, #255
 2255 0086 5A62     		str	r2, [r3, #36]
1424:/home/phong/Documents/thesis/stm32f4/stm-idf/components/stm32f4xx_hal_driver/stm32f4xx_hal_rtc_ex.c **** 
 2256              		.loc 1 1424 0
 2257 0088 0423     		movs	r3, #4
 2258 008a 6377     		strb	r3, [r4, #29]
1427:/home/phong/Documents/thesis/stm32f4/stm-idf/components/stm32f4xx_hal_driver/stm32f4xx_hal_rtc_ex.c **** 
 2259              		.loc 1 1427 0
 2260 008c 0023     		movs	r3, #0
 2261 008e 2377     		strb	r3, [r4, #28]
1429:/home/phong/Documents/thesis/stm32f4/stm-idf/components/stm32f4xx_hal_driver/stm32f4xx_hal_rtc_ex.c ****         }
 2262              		.loc 1 1429 0
 2263 0090 0120     		movs	r0, #1
 2264 0092 F8BD     		pop	{r3, r4, r5, r6, r7, pc}
 2265              	.LVL180:
 2266              	.L169:
1436:/home/phong/Documents/thesis/stm32f4/stm-idf/components/stm32f4xx_hal_driver/stm32f4xx_hal_rtc_ex.c **** 
 2267              		.loc 1 1436 0
 2268 0094 FF22     		movs	r2, #255
 2269 0096 5A62     		str	r2, [r3, #36]
1439:/home/phong/Documents/thesis/stm32f4/stm-idf/components/stm32f4xx_hal_driver/stm32f4xx_hal_rtc_ex.c **** 
 2270              		.loc 1 1439 0
 2271 0098 0423     		movs	r3, #4
 2272 009a 6377     		strb	r3, [r4, #29]
1442:/home/phong/Documents/thesis/stm32f4/stm-idf/components/stm32f4xx_hal_driver/stm32f4xx_hal_rtc_ex.c **** 
 2273              		.loc 1 1442 0
 2274 009c 0023     		movs	r3, #0
 2275 009e 2377     		strb	r3, [r4, #28]
1444:/home/phong/Documents/thesis/stm32f4/stm-idf/components/stm32f4xx_hal_driver/stm32f4xx_hal_rtc_ex.c ****     }
ARM GAS  /tmp/cc17vVDA.s 			page 68


 2276              		.loc 1 1444 0
 2277 00a0 0120     		movs	r0, #1
 2278 00a2 F8BD     		pop	{r3, r4, r5, r6, r7, pc}
 2279              		.cfi_endproc
 2280              	.LFE156:
 2282              		.section	.text.HAL_RTCEx_SetCalibrationOutPut,"ax",%progbits
 2283              		.align	1
 2284              		.global	HAL_RTCEx_SetCalibrationOutPut
 2285              		.syntax unified
 2286              		.thumb
 2287              		.thumb_func
 2288              		.fpu fpv4-sp-d16
 2290              	HAL_RTCEx_SetCalibrationOutPut:
 2291              	.LFB157:
1458:/home/phong/Documents/thesis/stm32f4/stm-idf/components/stm32f4xx_hal_driver/stm32f4xx_hal_rtc_ex.c **** 
1459:/home/phong/Documents/thesis/stm32f4/stm-idf/components/stm32f4xx_hal_driver/stm32f4xx_hal_rtc_ex.c **** /**
1460:/home/phong/Documents/thesis/stm32f4/stm-idf/components/stm32f4xx_hal_driver/stm32f4xx_hal_rtc_ex.c ****   * @brief  Configures the Calibration Pinout (RTC_CALIB) Selection (1Hz or 512Hz).
1461:/home/phong/Documents/thesis/stm32f4/stm-idf/components/stm32f4xx_hal_driver/stm32f4xx_hal_rtc_ex.c ****   * @param  hrtc pointer to a RTC_HandleTypeDef structure that contains
1462:/home/phong/Documents/thesis/stm32f4/stm-idf/components/stm32f4xx_hal_driver/stm32f4xx_hal_rtc_ex.c ****   *                the configuration information for RTC.
1463:/home/phong/Documents/thesis/stm32f4/stm-idf/components/stm32f4xx_hal_driver/stm32f4xx_hal_rtc_ex.c ****   * @param  CalibOutput Select the Calibration output Selection .
1464:/home/phong/Documents/thesis/stm32f4/stm-idf/components/stm32f4xx_hal_driver/stm32f4xx_hal_rtc_ex.c ****   *          This parameter can be one of the following values:
1465:/home/phong/Documents/thesis/stm32f4/stm-idf/components/stm32f4xx_hal_driver/stm32f4xx_hal_rtc_ex.c ****   *             @arg RTC_CALIBOUTPUT_512HZ: A signal has a regular waveform at 512Hz.
1466:/home/phong/Documents/thesis/stm32f4/stm-idf/components/stm32f4xx_hal_driver/stm32f4xx_hal_rtc_ex.c ****   *             @arg RTC_CALIBOUTPUT_1HZ: A signal has a regular waveform at 1Hz.
1467:/home/phong/Documents/thesis/stm32f4/stm-idf/components/stm32f4xx_hal_driver/stm32f4xx_hal_rtc_ex.c ****   * @retval HAL status
1468:/home/phong/Documents/thesis/stm32f4/stm-idf/components/stm32f4xx_hal_driver/stm32f4xx_hal_rtc_ex.c ****   */
1469:/home/phong/Documents/thesis/stm32f4/stm-idf/components/stm32f4xx_hal_driver/stm32f4xx_hal_rtc_ex.c **** HAL_StatusTypeDef HAL_RTCEx_SetCalibrationOutPut(RTC_HandleTypeDef* hrtc, uint32_t CalibOutput)
1470:/home/phong/Documents/thesis/stm32f4/stm-idf/components/stm32f4xx_hal_driver/stm32f4xx_hal_rtc_ex.c **** {
 2292              		.loc 1 1470 0
 2293              		.cfi_startproc
 2294              		@ args = 0, pretend = 0, frame = 0
 2295              		@ frame_needed = 0, uses_anonymous_args = 0
 2296              		@ link register save eliminated.
 2297              	.LVL181:
1471:/home/phong/Documents/thesis/stm32f4/stm-idf/components/stm32f4xx_hal_driver/stm32f4xx_hal_rtc_ex.c ****   /* Check the parameters */
1472:/home/phong/Documents/thesis/stm32f4/stm-idf/components/stm32f4xx_hal_driver/stm32f4xx_hal_rtc_ex.c ****   assert_param(IS_RTC_CALIB_OUTPUT(CalibOutput));
1473:/home/phong/Documents/thesis/stm32f4/stm-idf/components/stm32f4xx_hal_driver/stm32f4xx_hal_rtc_ex.c **** 
1474:/home/phong/Documents/thesis/stm32f4/stm-idf/components/stm32f4xx_hal_driver/stm32f4xx_hal_rtc_ex.c ****   /* Process Locked */
1475:/home/phong/Documents/thesis/stm32f4/stm-idf/components/stm32f4xx_hal_driver/stm32f4xx_hal_rtc_ex.c ****   __HAL_LOCK(hrtc);
 2298              		.loc 1 1475 0
 2299 0000 037F     		ldrb	r3, [r0, #28]	@ zero_extendqisi2
 2300 0002 012B     		cmp	r3, #1
 2301 0004 22D0     		beq	.L178
1470:/home/phong/Documents/thesis/stm32f4/stm-idf/components/stm32f4xx_hal_driver/stm32f4xx_hal_rtc_ex.c ****   /* Check the parameters */
 2302              		.loc 1 1470 0 discriminator 2
 2303 0006 10B4     		push	{r4}
 2304              	.LCFI31:
 2305              		.cfi_def_cfa_offset 4
 2306              		.cfi_offset 4, -4
 2307              		.loc 1 1475 0 discriminator 2
 2308 0008 0122     		movs	r2, #1
 2309 000a 0277     		strb	r2, [r0, #28]
1476:/home/phong/Documents/thesis/stm32f4/stm-idf/components/stm32f4xx_hal_driver/stm32f4xx_hal_rtc_ex.c **** 
1477:/home/phong/Documents/thesis/stm32f4/stm-idf/components/stm32f4xx_hal_driver/stm32f4xx_hal_rtc_ex.c ****   hrtc->State = HAL_RTC_STATE_BUSY;
 2310              		.loc 1 1477 0 discriminator 2
 2311 000c 0223     		movs	r3, #2
 2312 000e 4377     		strb	r3, [r0, #29]
1478:/home/phong/Documents/thesis/stm32f4/stm-idf/components/stm32f4xx_hal_driver/stm32f4xx_hal_rtc_ex.c **** 
ARM GAS  /tmp/cc17vVDA.s 			page 69


1479:/home/phong/Documents/thesis/stm32f4/stm-idf/components/stm32f4xx_hal_driver/stm32f4xx_hal_rtc_ex.c ****   /* Disable the write protection for RTC registers */
1480:/home/phong/Documents/thesis/stm32f4/stm-idf/components/stm32f4xx_hal_driver/stm32f4xx_hal_rtc_ex.c ****   __HAL_RTC_WRITEPROTECTION_DISABLE(hrtc);
 2313              		.loc 1 1480 0 discriminator 2
 2314 0010 0368     		ldr	r3, [r0]
 2315 0012 CA24     		movs	r4, #202
 2316 0014 5C62     		str	r4, [r3, #36]
 2317 0016 0368     		ldr	r3, [r0]
 2318 0018 5324     		movs	r4, #83
 2319 001a 5C62     		str	r4, [r3, #36]
1481:/home/phong/Documents/thesis/stm32f4/stm-idf/components/stm32f4xx_hal_driver/stm32f4xx_hal_rtc_ex.c **** 
1482:/home/phong/Documents/thesis/stm32f4/stm-idf/components/stm32f4xx_hal_driver/stm32f4xx_hal_rtc_ex.c ****   /* Clear flags before config */
1483:/home/phong/Documents/thesis/stm32f4/stm-idf/components/stm32f4xx_hal_driver/stm32f4xx_hal_rtc_ex.c ****   hrtc->Instance->CR &= (uint32_t)~RTC_CR_COSEL;
 2320              		.loc 1 1483 0 discriminator 2
 2321 001c 0468     		ldr	r4, [r0]
 2322 001e A368     		ldr	r3, [r4, #8]
 2323 0020 23F40023 		bic	r3, r3, #524288
 2324 0024 A360     		str	r3, [r4, #8]
1484:/home/phong/Documents/thesis/stm32f4/stm-idf/components/stm32f4xx_hal_driver/stm32f4xx_hal_rtc_ex.c **** 
1485:/home/phong/Documents/thesis/stm32f4/stm-idf/components/stm32f4xx_hal_driver/stm32f4xx_hal_rtc_ex.c ****   /* Configure the RTC_CR register */
1486:/home/phong/Documents/thesis/stm32f4/stm-idf/components/stm32f4xx_hal_driver/stm32f4xx_hal_rtc_ex.c ****   hrtc->Instance->CR |= (uint32_t)CalibOutput;
 2325              		.loc 1 1486 0 discriminator 2
 2326 0026 0468     		ldr	r4, [r0]
 2327 0028 A368     		ldr	r3, [r4, #8]
 2328 002a 1943     		orrs	r1, r1, r3
 2329              	.LVL182:
 2330 002c A160     		str	r1, [r4, #8]
1487:/home/phong/Documents/thesis/stm32f4/stm-idf/components/stm32f4xx_hal_driver/stm32f4xx_hal_rtc_ex.c **** 
1488:/home/phong/Documents/thesis/stm32f4/stm-idf/components/stm32f4xx_hal_driver/stm32f4xx_hal_rtc_ex.c ****   __HAL_RTC_CALIBRATION_OUTPUT_ENABLE(hrtc);
 2331              		.loc 1 1488 0 discriminator 2
 2332 002e 0168     		ldr	r1, [r0]
 2333 0030 8B68     		ldr	r3, [r1, #8]
 2334 0032 43F40003 		orr	r3, r3, #8388608
 2335 0036 8B60     		str	r3, [r1, #8]
1489:/home/phong/Documents/thesis/stm32f4/stm-idf/components/stm32f4xx_hal_driver/stm32f4xx_hal_rtc_ex.c **** 
1490:/home/phong/Documents/thesis/stm32f4/stm-idf/components/stm32f4xx_hal_driver/stm32f4xx_hal_rtc_ex.c ****   /* Enable the write protection for RTC registers */
1491:/home/phong/Documents/thesis/stm32f4/stm-idf/components/stm32f4xx_hal_driver/stm32f4xx_hal_rtc_ex.c ****   __HAL_RTC_WRITEPROTECTION_ENABLE(hrtc);
 2336              		.loc 1 1491 0 discriminator 2
 2337 0038 0368     		ldr	r3, [r0]
 2338 003a FF21     		movs	r1, #255
 2339 003c 5962     		str	r1, [r3, #36]
1492:/home/phong/Documents/thesis/stm32f4/stm-idf/components/stm32f4xx_hal_driver/stm32f4xx_hal_rtc_ex.c **** 
1493:/home/phong/Documents/thesis/stm32f4/stm-idf/components/stm32f4xx_hal_driver/stm32f4xx_hal_rtc_ex.c ****   /* Change RTC state */
1494:/home/phong/Documents/thesis/stm32f4/stm-idf/components/stm32f4xx_hal_driver/stm32f4xx_hal_rtc_ex.c ****   hrtc->State = HAL_RTC_STATE_READY;
 2340              		.loc 1 1494 0 discriminator 2
 2341 003e 4277     		strb	r2, [r0, #29]
1495:/home/phong/Documents/thesis/stm32f4/stm-idf/components/stm32f4xx_hal_driver/stm32f4xx_hal_rtc_ex.c **** 
1496:/home/phong/Documents/thesis/stm32f4/stm-idf/components/stm32f4xx_hal_driver/stm32f4xx_hal_rtc_ex.c ****   /* Process Unlocked */
1497:/home/phong/Documents/thesis/stm32f4/stm-idf/components/stm32f4xx_hal_driver/stm32f4xx_hal_rtc_ex.c ****   __HAL_UNLOCK(hrtc);
 2342              		.loc 1 1497 0 discriminator 2
 2343 0040 0023     		movs	r3, #0
 2344 0042 0377     		strb	r3, [r0, #28]
1498:/home/phong/Documents/thesis/stm32f4/stm-idf/components/stm32f4xx_hal_driver/stm32f4xx_hal_rtc_ex.c **** 
1499:/home/phong/Documents/thesis/stm32f4/stm-idf/components/stm32f4xx_hal_driver/stm32f4xx_hal_rtc_ex.c ****   return HAL_OK;
 2345              		.loc 1 1499 0 discriminator 2
 2346 0044 1846     		mov	r0, r3
 2347              	.LVL183:
1500:/home/phong/Documents/thesis/stm32f4/stm-idf/components/stm32f4xx_hal_driver/stm32f4xx_hal_rtc_ex.c **** }
ARM GAS  /tmp/cc17vVDA.s 			page 70


 2348              		.loc 1 1500 0 discriminator 2
 2349 0046 5DF8044B 		ldr	r4, [sp], #4
 2350              	.LCFI32:
 2351              		.cfi_restore 4
 2352              		.cfi_def_cfa_offset 0
 2353 004a 7047     		bx	lr
 2354              	.LVL184:
 2355              	.L178:
1475:/home/phong/Documents/thesis/stm32f4/stm-idf/components/stm32f4xx_hal_driver/stm32f4xx_hal_rtc_ex.c **** 
 2356              		.loc 1 1475 0
 2357 004c 0220     		movs	r0, #2
 2358              	.LVL185:
 2359 004e 7047     		bx	lr
 2360              		.cfi_endproc
 2361              	.LFE157:
 2363              		.section	.text.HAL_RTCEx_DeactivateCalibrationOutPut,"ax",%progbits
 2364              		.align	1
 2365              		.global	HAL_RTCEx_DeactivateCalibrationOutPut
 2366              		.syntax unified
 2367              		.thumb
 2368              		.thumb_func
 2369              		.fpu fpv4-sp-d16
 2371              	HAL_RTCEx_DeactivateCalibrationOutPut:
 2372              	.LFB158:
1501:/home/phong/Documents/thesis/stm32f4/stm-idf/components/stm32f4xx_hal_driver/stm32f4xx_hal_rtc_ex.c **** 
1502:/home/phong/Documents/thesis/stm32f4/stm-idf/components/stm32f4xx_hal_driver/stm32f4xx_hal_rtc_ex.c **** /**
1503:/home/phong/Documents/thesis/stm32f4/stm-idf/components/stm32f4xx_hal_driver/stm32f4xx_hal_rtc_ex.c ****   * @brief  Deactivates the Calibration Pinout (RTC_CALIB) Selection (1Hz or 512Hz).
1504:/home/phong/Documents/thesis/stm32f4/stm-idf/components/stm32f4xx_hal_driver/stm32f4xx_hal_rtc_ex.c ****   * @param  hrtc pointer to a RTC_HandleTypeDef structure that contains
1505:/home/phong/Documents/thesis/stm32f4/stm-idf/components/stm32f4xx_hal_driver/stm32f4xx_hal_rtc_ex.c ****   *                the configuration information for RTC.
1506:/home/phong/Documents/thesis/stm32f4/stm-idf/components/stm32f4xx_hal_driver/stm32f4xx_hal_rtc_ex.c ****   * @retval HAL status
1507:/home/phong/Documents/thesis/stm32f4/stm-idf/components/stm32f4xx_hal_driver/stm32f4xx_hal_rtc_ex.c ****   */
1508:/home/phong/Documents/thesis/stm32f4/stm-idf/components/stm32f4xx_hal_driver/stm32f4xx_hal_rtc_ex.c **** HAL_StatusTypeDef HAL_RTCEx_DeactivateCalibrationOutPut(RTC_HandleTypeDef* hrtc)
1509:/home/phong/Documents/thesis/stm32f4/stm-idf/components/stm32f4xx_hal_driver/stm32f4xx_hal_rtc_ex.c **** {
 2373              		.loc 1 1509 0
 2374              		.cfi_startproc
 2375              		@ args = 0, pretend = 0, frame = 0
 2376              		@ frame_needed = 0, uses_anonymous_args = 0
 2377              		@ link register save eliminated.
 2378              	.LVL186:
1510:/home/phong/Documents/thesis/stm32f4/stm-idf/components/stm32f4xx_hal_driver/stm32f4xx_hal_rtc_ex.c ****   /* Process Locked */
1511:/home/phong/Documents/thesis/stm32f4/stm-idf/components/stm32f4xx_hal_driver/stm32f4xx_hal_rtc_ex.c ****   __HAL_LOCK(hrtc);
 2379              		.loc 1 1511 0
 2380 0000 037F     		ldrb	r3, [r0, #28]	@ zero_extendqisi2
 2381 0002 012B     		cmp	r3, #1
 2382 0004 16D0     		beq	.L185
 2383              		.loc 1 1511 0 is_stmt 0 discriminator 2
 2384 0006 0122     		movs	r2, #1
 2385 0008 0277     		strb	r2, [r0, #28]
1512:/home/phong/Documents/thesis/stm32f4/stm-idf/components/stm32f4xx_hal_driver/stm32f4xx_hal_rtc_ex.c **** 
1513:/home/phong/Documents/thesis/stm32f4/stm-idf/components/stm32f4xx_hal_driver/stm32f4xx_hal_rtc_ex.c ****   hrtc->State = HAL_RTC_STATE_BUSY;
 2386              		.loc 1 1513 0 is_stmt 1 discriminator 2
 2387 000a 0223     		movs	r3, #2
 2388 000c 4377     		strb	r3, [r0, #29]
1514:/home/phong/Documents/thesis/stm32f4/stm-idf/components/stm32f4xx_hal_driver/stm32f4xx_hal_rtc_ex.c **** 
1515:/home/phong/Documents/thesis/stm32f4/stm-idf/components/stm32f4xx_hal_driver/stm32f4xx_hal_rtc_ex.c ****   /* Disable the write protection for RTC registers */
1516:/home/phong/Documents/thesis/stm32f4/stm-idf/components/stm32f4xx_hal_driver/stm32f4xx_hal_rtc_ex.c ****   __HAL_RTC_WRITEPROTECTION_DISABLE(hrtc);
 2389              		.loc 1 1516 0 discriminator 2
ARM GAS  /tmp/cc17vVDA.s 			page 71


 2390 000e 0368     		ldr	r3, [r0]
 2391 0010 CA21     		movs	r1, #202
 2392 0012 5962     		str	r1, [r3, #36]
 2393 0014 0368     		ldr	r3, [r0]
 2394 0016 5321     		movs	r1, #83
 2395 0018 5962     		str	r1, [r3, #36]
1517:/home/phong/Documents/thesis/stm32f4/stm-idf/components/stm32f4xx_hal_driver/stm32f4xx_hal_rtc_ex.c **** 
1518:/home/phong/Documents/thesis/stm32f4/stm-idf/components/stm32f4xx_hal_driver/stm32f4xx_hal_rtc_ex.c ****   __HAL_RTC_CALIBRATION_OUTPUT_DISABLE(hrtc);
 2396              		.loc 1 1518 0 discriminator 2
 2397 001a 0168     		ldr	r1, [r0]
 2398 001c 8B68     		ldr	r3, [r1, #8]
 2399 001e 23F40003 		bic	r3, r3, #8388608
 2400 0022 8B60     		str	r3, [r1, #8]
1519:/home/phong/Documents/thesis/stm32f4/stm-idf/components/stm32f4xx_hal_driver/stm32f4xx_hal_rtc_ex.c **** 
1520:/home/phong/Documents/thesis/stm32f4/stm-idf/components/stm32f4xx_hal_driver/stm32f4xx_hal_rtc_ex.c ****   /* Enable the write protection for RTC registers */
1521:/home/phong/Documents/thesis/stm32f4/stm-idf/components/stm32f4xx_hal_driver/stm32f4xx_hal_rtc_ex.c ****   __HAL_RTC_WRITEPROTECTION_ENABLE(hrtc);
 2401              		.loc 1 1521 0 discriminator 2
 2402 0024 0368     		ldr	r3, [r0]
 2403 0026 FF21     		movs	r1, #255
 2404 0028 5962     		str	r1, [r3, #36]
1522:/home/phong/Documents/thesis/stm32f4/stm-idf/components/stm32f4xx_hal_driver/stm32f4xx_hal_rtc_ex.c **** 
1523:/home/phong/Documents/thesis/stm32f4/stm-idf/components/stm32f4xx_hal_driver/stm32f4xx_hal_rtc_ex.c ****   /* Change RTC state */
1524:/home/phong/Documents/thesis/stm32f4/stm-idf/components/stm32f4xx_hal_driver/stm32f4xx_hal_rtc_ex.c ****   hrtc->State = HAL_RTC_STATE_READY;
 2405              		.loc 1 1524 0 discriminator 2
 2406 002a 4277     		strb	r2, [r0, #29]
1525:/home/phong/Documents/thesis/stm32f4/stm-idf/components/stm32f4xx_hal_driver/stm32f4xx_hal_rtc_ex.c **** 
1526:/home/phong/Documents/thesis/stm32f4/stm-idf/components/stm32f4xx_hal_driver/stm32f4xx_hal_rtc_ex.c ****   /* Process Unlocked */
1527:/home/phong/Documents/thesis/stm32f4/stm-idf/components/stm32f4xx_hal_driver/stm32f4xx_hal_rtc_ex.c ****   __HAL_UNLOCK(hrtc);
 2407              		.loc 1 1527 0 discriminator 2
 2408 002c 0023     		movs	r3, #0
 2409 002e 0377     		strb	r3, [r0, #28]
1528:/home/phong/Documents/thesis/stm32f4/stm-idf/components/stm32f4xx_hal_driver/stm32f4xx_hal_rtc_ex.c **** 
1529:/home/phong/Documents/thesis/stm32f4/stm-idf/components/stm32f4xx_hal_driver/stm32f4xx_hal_rtc_ex.c ****   return HAL_OK;
 2410              		.loc 1 1529 0 discriminator 2
 2411 0030 1846     		mov	r0, r3
 2412              	.LVL187:
 2413 0032 7047     		bx	lr
 2414              	.LVL188:
 2415              	.L185:
1511:/home/phong/Documents/thesis/stm32f4/stm-idf/components/stm32f4xx_hal_driver/stm32f4xx_hal_rtc_ex.c **** 
 2416              		.loc 1 1511 0
 2417 0034 0220     		movs	r0, #2
 2418              	.LVL189:
1530:/home/phong/Documents/thesis/stm32f4/stm-idf/components/stm32f4xx_hal_driver/stm32f4xx_hal_rtc_ex.c **** }
 2419              		.loc 1 1530 0
 2420 0036 7047     		bx	lr
 2421              		.cfi_endproc
 2422              	.LFE158:
 2424              		.section	.text.HAL_RTCEx_SetRefClock,"ax",%progbits
 2425              		.align	1
 2426              		.global	HAL_RTCEx_SetRefClock
 2427              		.syntax unified
 2428              		.thumb
 2429              		.thumb_func
 2430              		.fpu fpv4-sp-d16
 2432              	HAL_RTCEx_SetRefClock:
 2433              	.LFB159:
ARM GAS  /tmp/cc17vVDA.s 			page 72


1531:/home/phong/Documents/thesis/stm32f4/stm-idf/components/stm32f4xx_hal_driver/stm32f4xx_hal_rtc_ex.c **** 
1532:/home/phong/Documents/thesis/stm32f4/stm-idf/components/stm32f4xx_hal_driver/stm32f4xx_hal_rtc_ex.c **** /**
1533:/home/phong/Documents/thesis/stm32f4/stm-idf/components/stm32f4xx_hal_driver/stm32f4xx_hal_rtc_ex.c ****   * @brief  Enables the RTC reference clock detection.
1534:/home/phong/Documents/thesis/stm32f4/stm-idf/components/stm32f4xx_hal_driver/stm32f4xx_hal_rtc_ex.c ****   * @param  hrtc pointer to a RTC_HandleTypeDef structure that contains
1535:/home/phong/Documents/thesis/stm32f4/stm-idf/components/stm32f4xx_hal_driver/stm32f4xx_hal_rtc_ex.c ****   *                the configuration information for RTC.
1536:/home/phong/Documents/thesis/stm32f4/stm-idf/components/stm32f4xx_hal_driver/stm32f4xx_hal_rtc_ex.c ****   * @retval HAL status
1537:/home/phong/Documents/thesis/stm32f4/stm-idf/components/stm32f4xx_hal_driver/stm32f4xx_hal_rtc_ex.c ****   */
1538:/home/phong/Documents/thesis/stm32f4/stm-idf/components/stm32f4xx_hal_driver/stm32f4xx_hal_rtc_ex.c **** HAL_StatusTypeDef HAL_RTCEx_SetRefClock(RTC_HandleTypeDef* hrtc)
1539:/home/phong/Documents/thesis/stm32f4/stm-idf/components/stm32f4xx_hal_driver/stm32f4xx_hal_rtc_ex.c **** {
 2434              		.loc 1 1539 0
 2435              		.cfi_startproc
 2436              		@ args = 0, pretend = 0, frame = 0
 2437              		@ frame_needed = 0, uses_anonymous_args = 0
 2438              	.LVL190:
1540:/home/phong/Documents/thesis/stm32f4/stm-idf/components/stm32f4xx_hal_driver/stm32f4xx_hal_rtc_ex.c ****   /* Process Locked */
1541:/home/phong/Documents/thesis/stm32f4/stm-idf/components/stm32f4xx_hal_driver/stm32f4xx_hal_rtc_ex.c ****   __HAL_LOCK(hrtc);
 2439              		.loc 1 1541 0
 2440 0000 037F     		ldrb	r3, [r0, #28]	@ zero_extendqisi2
 2441 0002 012B     		cmp	r3, #1
 2442 0004 02D1     		bne	.L194
 2443 0006 0223     		movs	r3, #2
1542:/home/phong/Documents/thesis/stm32f4/stm-idf/components/stm32f4xx_hal_driver/stm32f4xx_hal_rtc_ex.c **** 
1543:/home/phong/Documents/thesis/stm32f4/stm-idf/components/stm32f4xx_hal_driver/stm32f4xx_hal_rtc_ex.c ****   hrtc->State = HAL_RTC_STATE_BUSY;
1544:/home/phong/Documents/thesis/stm32f4/stm-idf/components/stm32f4xx_hal_driver/stm32f4xx_hal_rtc_ex.c **** 
1545:/home/phong/Documents/thesis/stm32f4/stm-idf/components/stm32f4xx_hal_driver/stm32f4xx_hal_rtc_ex.c ****   /* Disable the write protection for RTC registers */
1546:/home/phong/Documents/thesis/stm32f4/stm-idf/components/stm32f4xx_hal_driver/stm32f4xx_hal_rtc_ex.c ****   __HAL_RTC_WRITEPROTECTION_DISABLE(hrtc);
1547:/home/phong/Documents/thesis/stm32f4/stm-idf/components/stm32f4xx_hal_driver/stm32f4xx_hal_rtc_ex.c **** 
1548:/home/phong/Documents/thesis/stm32f4/stm-idf/components/stm32f4xx_hal_driver/stm32f4xx_hal_rtc_ex.c ****   /* Set Initialization mode */
1549:/home/phong/Documents/thesis/stm32f4/stm-idf/components/stm32f4xx_hal_driver/stm32f4xx_hal_rtc_ex.c ****   if(RTC_EnterInitMode(hrtc) != HAL_OK)
1550:/home/phong/Documents/thesis/stm32f4/stm-idf/components/stm32f4xx_hal_driver/stm32f4xx_hal_rtc_ex.c ****   {
1551:/home/phong/Documents/thesis/stm32f4/stm-idf/components/stm32f4xx_hal_driver/stm32f4xx_hal_rtc_ex.c ****     /* Enable the write protection for RTC registers */
1552:/home/phong/Documents/thesis/stm32f4/stm-idf/components/stm32f4xx_hal_driver/stm32f4xx_hal_rtc_ex.c ****     __HAL_RTC_WRITEPROTECTION_ENABLE(hrtc);
1553:/home/phong/Documents/thesis/stm32f4/stm-idf/components/stm32f4xx_hal_driver/stm32f4xx_hal_rtc_ex.c **** 
1554:/home/phong/Documents/thesis/stm32f4/stm-idf/components/stm32f4xx_hal_driver/stm32f4xx_hal_rtc_ex.c ****     /* Set RTC state*/
1555:/home/phong/Documents/thesis/stm32f4/stm-idf/components/stm32f4xx_hal_driver/stm32f4xx_hal_rtc_ex.c ****     hrtc->State = HAL_RTC_STATE_ERROR;
1556:/home/phong/Documents/thesis/stm32f4/stm-idf/components/stm32f4xx_hal_driver/stm32f4xx_hal_rtc_ex.c **** 
1557:/home/phong/Documents/thesis/stm32f4/stm-idf/components/stm32f4xx_hal_driver/stm32f4xx_hal_rtc_ex.c ****     /* Process Unlocked */
1558:/home/phong/Documents/thesis/stm32f4/stm-idf/components/stm32f4xx_hal_driver/stm32f4xx_hal_rtc_ex.c ****     __HAL_UNLOCK(hrtc);
1559:/home/phong/Documents/thesis/stm32f4/stm-idf/components/stm32f4xx_hal_driver/stm32f4xx_hal_rtc_ex.c **** 
1560:/home/phong/Documents/thesis/stm32f4/stm-idf/components/stm32f4xx_hal_driver/stm32f4xx_hal_rtc_ex.c ****     return HAL_ERROR;
1561:/home/phong/Documents/thesis/stm32f4/stm-idf/components/stm32f4xx_hal_driver/stm32f4xx_hal_rtc_ex.c ****   }
1562:/home/phong/Documents/thesis/stm32f4/stm-idf/components/stm32f4xx_hal_driver/stm32f4xx_hal_rtc_ex.c ****   else
1563:/home/phong/Documents/thesis/stm32f4/stm-idf/components/stm32f4xx_hal_driver/stm32f4xx_hal_rtc_ex.c ****   {
1564:/home/phong/Documents/thesis/stm32f4/stm-idf/components/stm32f4xx_hal_driver/stm32f4xx_hal_rtc_ex.c ****     __HAL_RTC_CLOCKREF_DETECTION_ENABLE(hrtc);
1565:/home/phong/Documents/thesis/stm32f4/stm-idf/components/stm32f4xx_hal_driver/stm32f4xx_hal_rtc_ex.c **** 
1566:/home/phong/Documents/thesis/stm32f4/stm-idf/components/stm32f4xx_hal_driver/stm32f4xx_hal_rtc_ex.c ****     /* Exit Initialization mode */
1567:/home/phong/Documents/thesis/stm32f4/stm-idf/components/stm32f4xx_hal_driver/stm32f4xx_hal_rtc_ex.c ****     hrtc->Instance->ISR &= (uint32_t)~RTC_ISR_INIT;
1568:/home/phong/Documents/thesis/stm32f4/stm-idf/components/stm32f4xx_hal_driver/stm32f4xx_hal_rtc_ex.c ****   }
1569:/home/phong/Documents/thesis/stm32f4/stm-idf/components/stm32f4xx_hal_driver/stm32f4xx_hal_rtc_ex.c **** 
1570:/home/phong/Documents/thesis/stm32f4/stm-idf/components/stm32f4xx_hal_driver/stm32f4xx_hal_rtc_ex.c ****   /* Enable the write protection for RTC registers */
1571:/home/phong/Documents/thesis/stm32f4/stm-idf/components/stm32f4xx_hal_driver/stm32f4xx_hal_rtc_ex.c ****   __HAL_RTC_WRITEPROTECTION_ENABLE(hrtc);
1572:/home/phong/Documents/thesis/stm32f4/stm-idf/components/stm32f4xx_hal_driver/stm32f4xx_hal_rtc_ex.c **** 
1573:/home/phong/Documents/thesis/stm32f4/stm-idf/components/stm32f4xx_hal_driver/stm32f4xx_hal_rtc_ex.c ****    /* Change RTC state */
1574:/home/phong/Documents/thesis/stm32f4/stm-idf/components/stm32f4xx_hal_driver/stm32f4xx_hal_rtc_ex.c ****   hrtc->State = HAL_RTC_STATE_READY;
1575:/home/phong/Documents/thesis/stm32f4/stm-idf/components/stm32f4xx_hal_driver/stm32f4xx_hal_rtc_ex.c **** 
1576:/home/phong/Documents/thesis/stm32f4/stm-idf/components/stm32f4xx_hal_driver/stm32f4xx_hal_rtc_ex.c ****   /* Process Unlocked */
1577:/home/phong/Documents/thesis/stm32f4/stm-idf/components/stm32f4xx_hal_driver/stm32f4xx_hal_rtc_ex.c ****   __HAL_UNLOCK(hrtc);
ARM GAS  /tmp/cc17vVDA.s 			page 73


1578:/home/phong/Documents/thesis/stm32f4/stm-idf/components/stm32f4xx_hal_driver/stm32f4xx_hal_rtc_ex.c **** 
1579:/home/phong/Documents/thesis/stm32f4/stm-idf/components/stm32f4xx_hal_driver/stm32f4xx_hal_rtc_ex.c ****   return HAL_OK;
1580:/home/phong/Documents/thesis/stm32f4/stm-idf/components/stm32f4xx_hal_driver/stm32f4xx_hal_rtc_ex.c **** }
 2444              		.loc 1 1580 0
 2445 0008 1846     		mov	r0, r3
 2446              	.LVL191:
 2447 000a 7047     		bx	lr
 2448              	.LVL192:
 2449              	.L194:
1539:/home/phong/Documents/thesis/stm32f4/stm-idf/components/stm32f4xx_hal_driver/stm32f4xx_hal_rtc_ex.c ****   /* Process Locked */
 2450              		.loc 1 1539 0 discriminator 2
 2451 000c 10B5     		push	{r4, lr}
 2452              	.LCFI33:
 2453              		.cfi_def_cfa_offset 8
 2454              		.cfi_offset 4, -8
 2455              		.cfi_offset 14, -4
 2456 000e 0446     		mov	r4, r0
1541:/home/phong/Documents/thesis/stm32f4/stm-idf/components/stm32f4xx_hal_driver/stm32f4xx_hal_rtc_ex.c **** 
 2457              		.loc 1 1541 0 discriminator 2
 2458 0010 0123     		movs	r3, #1
 2459 0012 0377     		strb	r3, [r0, #28]
1543:/home/phong/Documents/thesis/stm32f4/stm-idf/components/stm32f4xx_hal_driver/stm32f4xx_hal_rtc_ex.c **** 
 2460              		.loc 1 1543 0 discriminator 2
 2461 0014 0223     		movs	r3, #2
 2462 0016 4377     		strb	r3, [r0, #29]
1546:/home/phong/Documents/thesis/stm32f4/stm-idf/components/stm32f4xx_hal_driver/stm32f4xx_hal_rtc_ex.c **** 
 2463              		.loc 1 1546 0 discriminator 2
 2464 0018 0368     		ldr	r3, [r0]
 2465 001a CA22     		movs	r2, #202
 2466 001c 5A62     		str	r2, [r3, #36]
 2467 001e 0368     		ldr	r3, [r0]
 2468 0020 5322     		movs	r2, #83
 2469 0022 5A62     		str	r2, [r3, #36]
1549:/home/phong/Documents/thesis/stm32f4/stm-idf/components/stm32f4xx_hal_driver/stm32f4xx_hal_rtc_ex.c ****   {
 2470              		.loc 1 1549 0 discriminator 2
 2471 0024 FFF7FEFF 		bl	RTC_EnterInitMode
 2472              	.LVL193:
 2473 0028 0346     		mov	r3, r0
 2474 002a 90B9     		cbnz	r0, .L195
1564:/home/phong/Documents/thesis/stm32f4/stm-idf/components/stm32f4xx_hal_driver/stm32f4xx_hal_rtc_ex.c **** 
 2475              		.loc 1 1564 0
 2476 002c 2168     		ldr	r1, [r4]
 2477 002e 8A68     		ldr	r2, [r1, #8]
 2478 0030 42F01002 		orr	r2, r2, #16
 2479 0034 8A60     		str	r2, [r1, #8]
1567:/home/phong/Documents/thesis/stm32f4/stm-idf/components/stm32f4xx_hal_driver/stm32f4xx_hal_rtc_ex.c ****   }
 2480              		.loc 1 1567 0
 2481 0036 2168     		ldr	r1, [r4]
 2482 0038 CA68     		ldr	r2, [r1, #12]
 2483 003a 22F08002 		bic	r2, r2, #128
 2484 003e CA60     		str	r2, [r1, #12]
1571:/home/phong/Documents/thesis/stm32f4/stm-idf/components/stm32f4xx_hal_driver/stm32f4xx_hal_rtc_ex.c **** 
 2485              		.loc 1 1571 0
 2486 0040 2268     		ldr	r2, [r4]
 2487 0042 FF21     		movs	r1, #255
 2488 0044 5162     		str	r1, [r2, #36]
1574:/home/phong/Documents/thesis/stm32f4/stm-idf/components/stm32f4xx_hal_driver/stm32f4xx_hal_rtc_ex.c **** 
ARM GAS  /tmp/cc17vVDA.s 			page 74


 2489              		.loc 1 1574 0
 2490 0046 0122     		movs	r2, #1
 2491 0048 6277     		strb	r2, [r4, #29]
1577:/home/phong/Documents/thesis/stm32f4/stm-idf/components/stm32f4xx_hal_driver/stm32f4xx_hal_rtc_ex.c **** 
 2492              		.loc 1 1577 0
 2493 004a 0022     		movs	r2, #0
 2494 004c 2277     		strb	r2, [r4, #28]
 2495              	.L187:
 2496              		.loc 1 1580 0
 2497 004e 1846     		mov	r0, r3
 2498 0050 10BD     		pop	{r4, pc}
 2499              	.LVL194:
 2500              	.L195:
1552:/home/phong/Documents/thesis/stm32f4/stm-idf/components/stm32f4xx_hal_driver/stm32f4xx_hal_rtc_ex.c **** 
 2501              		.loc 1 1552 0
 2502 0052 2368     		ldr	r3, [r4]
 2503 0054 FF22     		movs	r2, #255
 2504 0056 5A62     		str	r2, [r3, #36]
1555:/home/phong/Documents/thesis/stm32f4/stm-idf/components/stm32f4xx_hal_driver/stm32f4xx_hal_rtc_ex.c **** 
 2505              		.loc 1 1555 0
 2506 0058 0423     		movs	r3, #4
 2507 005a 6377     		strb	r3, [r4, #29]
1558:/home/phong/Documents/thesis/stm32f4/stm-idf/components/stm32f4xx_hal_driver/stm32f4xx_hal_rtc_ex.c **** 
 2508              		.loc 1 1558 0
 2509 005c 0023     		movs	r3, #0
 2510 005e 2377     		strb	r3, [r4, #28]
1560:/home/phong/Documents/thesis/stm32f4/stm-idf/components/stm32f4xx_hal_driver/stm32f4xx_hal_rtc_ex.c ****   }
 2511              		.loc 1 1560 0
 2512 0060 0123     		movs	r3, #1
 2513 0062 F4E7     		b	.L187
 2514              		.cfi_endproc
 2515              	.LFE159:
 2517              		.section	.text.HAL_RTCEx_DeactivateRefClock,"ax",%progbits
 2518              		.align	1
 2519              		.global	HAL_RTCEx_DeactivateRefClock
 2520              		.syntax unified
 2521              		.thumb
 2522              		.thumb_func
 2523              		.fpu fpv4-sp-d16
 2525              	HAL_RTCEx_DeactivateRefClock:
 2526              	.LFB160:
1581:/home/phong/Documents/thesis/stm32f4/stm-idf/components/stm32f4xx_hal_driver/stm32f4xx_hal_rtc_ex.c **** 
1582:/home/phong/Documents/thesis/stm32f4/stm-idf/components/stm32f4xx_hal_driver/stm32f4xx_hal_rtc_ex.c **** /**
1583:/home/phong/Documents/thesis/stm32f4/stm-idf/components/stm32f4xx_hal_driver/stm32f4xx_hal_rtc_ex.c ****   * @brief  Disable the RTC reference clock detection.
1584:/home/phong/Documents/thesis/stm32f4/stm-idf/components/stm32f4xx_hal_driver/stm32f4xx_hal_rtc_ex.c ****   * @param  hrtc pointer to a RTC_HandleTypeDef structure that contains
1585:/home/phong/Documents/thesis/stm32f4/stm-idf/components/stm32f4xx_hal_driver/stm32f4xx_hal_rtc_ex.c ****   *                the configuration information for RTC.
1586:/home/phong/Documents/thesis/stm32f4/stm-idf/components/stm32f4xx_hal_driver/stm32f4xx_hal_rtc_ex.c ****   * @retval HAL status
1587:/home/phong/Documents/thesis/stm32f4/stm-idf/components/stm32f4xx_hal_driver/stm32f4xx_hal_rtc_ex.c ****   */
1588:/home/phong/Documents/thesis/stm32f4/stm-idf/components/stm32f4xx_hal_driver/stm32f4xx_hal_rtc_ex.c **** HAL_StatusTypeDef HAL_RTCEx_DeactivateRefClock(RTC_HandleTypeDef* hrtc)
1589:/home/phong/Documents/thesis/stm32f4/stm-idf/components/stm32f4xx_hal_driver/stm32f4xx_hal_rtc_ex.c **** {
 2527              		.loc 1 1589 0
 2528              		.cfi_startproc
 2529              		@ args = 0, pretend = 0, frame = 0
 2530              		@ frame_needed = 0, uses_anonymous_args = 0
 2531              	.LVL195:
1590:/home/phong/Documents/thesis/stm32f4/stm-idf/components/stm32f4xx_hal_driver/stm32f4xx_hal_rtc_ex.c ****   /* Process Locked */
1591:/home/phong/Documents/thesis/stm32f4/stm-idf/components/stm32f4xx_hal_driver/stm32f4xx_hal_rtc_ex.c ****   __HAL_LOCK(hrtc);
ARM GAS  /tmp/cc17vVDA.s 			page 75


 2532              		.loc 1 1591 0
 2533 0000 037F     		ldrb	r3, [r0, #28]	@ zero_extendqisi2
 2534 0002 012B     		cmp	r3, #1
 2535 0004 02D1     		bne	.L204
 2536 0006 0223     		movs	r3, #2
1592:/home/phong/Documents/thesis/stm32f4/stm-idf/components/stm32f4xx_hal_driver/stm32f4xx_hal_rtc_ex.c **** 
1593:/home/phong/Documents/thesis/stm32f4/stm-idf/components/stm32f4xx_hal_driver/stm32f4xx_hal_rtc_ex.c ****   hrtc->State = HAL_RTC_STATE_BUSY;
1594:/home/phong/Documents/thesis/stm32f4/stm-idf/components/stm32f4xx_hal_driver/stm32f4xx_hal_rtc_ex.c **** 
1595:/home/phong/Documents/thesis/stm32f4/stm-idf/components/stm32f4xx_hal_driver/stm32f4xx_hal_rtc_ex.c ****   /* Disable the write protection for RTC registers */
1596:/home/phong/Documents/thesis/stm32f4/stm-idf/components/stm32f4xx_hal_driver/stm32f4xx_hal_rtc_ex.c ****   __HAL_RTC_WRITEPROTECTION_DISABLE(hrtc);
1597:/home/phong/Documents/thesis/stm32f4/stm-idf/components/stm32f4xx_hal_driver/stm32f4xx_hal_rtc_ex.c **** 
1598:/home/phong/Documents/thesis/stm32f4/stm-idf/components/stm32f4xx_hal_driver/stm32f4xx_hal_rtc_ex.c ****   /* Set Initialization mode */
1599:/home/phong/Documents/thesis/stm32f4/stm-idf/components/stm32f4xx_hal_driver/stm32f4xx_hal_rtc_ex.c ****   if(RTC_EnterInitMode(hrtc) != HAL_OK)
1600:/home/phong/Documents/thesis/stm32f4/stm-idf/components/stm32f4xx_hal_driver/stm32f4xx_hal_rtc_ex.c ****   {
1601:/home/phong/Documents/thesis/stm32f4/stm-idf/components/stm32f4xx_hal_driver/stm32f4xx_hal_rtc_ex.c ****     /* Enable the write protection for RTC registers */
1602:/home/phong/Documents/thesis/stm32f4/stm-idf/components/stm32f4xx_hal_driver/stm32f4xx_hal_rtc_ex.c ****     __HAL_RTC_WRITEPROTECTION_ENABLE(hrtc);
1603:/home/phong/Documents/thesis/stm32f4/stm-idf/components/stm32f4xx_hal_driver/stm32f4xx_hal_rtc_ex.c **** 
1604:/home/phong/Documents/thesis/stm32f4/stm-idf/components/stm32f4xx_hal_driver/stm32f4xx_hal_rtc_ex.c ****     /* Set RTC state*/
1605:/home/phong/Documents/thesis/stm32f4/stm-idf/components/stm32f4xx_hal_driver/stm32f4xx_hal_rtc_ex.c ****     hrtc->State = HAL_RTC_STATE_ERROR;
1606:/home/phong/Documents/thesis/stm32f4/stm-idf/components/stm32f4xx_hal_driver/stm32f4xx_hal_rtc_ex.c **** 
1607:/home/phong/Documents/thesis/stm32f4/stm-idf/components/stm32f4xx_hal_driver/stm32f4xx_hal_rtc_ex.c ****     /* Process Unlocked */
1608:/home/phong/Documents/thesis/stm32f4/stm-idf/components/stm32f4xx_hal_driver/stm32f4xx_hal_rtc_ex.c ****     __HAL_UNLOCK(hrtc);
1609:/home/phong/Documents/thesis/stm32f4/stm-idf/components/stm32f4xx_hal_driver/stm32f4xx_hal_rtc_ex.c **** 
1610:/home/phong/Documents/thesis/stm32f4/stm-idf/components/stm32f4xx_hal_driver/stm32f4xx_hal_rtc_ex.c ****     return HAL_ERROR;
1611:/home/phong/Documents/thesis/stm32f4/stm-idf/components/stm32f4xx_hal_driver/stm32f4xx_hal_rtc_ex.c ****   }
1612:/home/phong/Documents/thesis/stm32f4/stm-idf/components/stm32f4xx_hal_driver/stm32f4xx_hal_rtc_ex.c ****   else
1613:/home/phong/Documents/thesis/stm32f4/stm-idf/components/stm32f4xx_hal_driver/stm32f4xx_hal_rtc_ex.c ****   {
1614:/home/phong/Documents/thesis/stm32f4/stm-idf/components/stm32f4xx_hal_driver/stm32f4xx_hal_rtc_ex.c ****     __HAL_RTC_CLOCKREF_DETECTION_DISABLE(hrtc);
1615:/home/phong/Documents/thesis/stm32f4/stm-idf/components/stm32f4xx_hal_driver/stm32f4xx_hal_rtc_ex.c **** 
1616:/home/phong/Documents/thesis/stm32f4/stm-idf/components/stm32f4xx_hal_driver/stm32f4xx_hal_rtc_ex.c ****     /* Exit Initialization mode */
1617:/home/phong/Documents/thesis/stm32f4/stm-idf/components/stm32f4xx_hal_driver/stm32f4xx_hal_rtc_ex.c ****     hrtc->Instance->ISR &= (uint32_t)~RTC_ISR_INIT;
1618:/home/phong/Documents/thesis/stm32f4/stm-idf/components/stm32f4xx_hal_driver/stm32f4xx_hal_rtc_ex.c ****   }
1619:/home/phong/Documents/thesis/stm32f4/stm-idf/components/stm32f4xx_hal_driver/stm32f4xx_hal_rtc_ex.c **** 
1620:/home/phong/Documents/thesis/stm32f4/stm-idf/components/stm32f4xx_hal_driver/stm32f4xx_hal_rtc_ex.c ****   /* Enable the write protection for RTC registers */
1621:/home/phong/Documents/thesis/stm32f4/stm-idf/components/stm32f4xx_hal_driver/stm32f4xx_hal_rtc_ex.c ****   __HAL_RTC_WRITEPROTECTION_ENABLE(hrtc);
1622:/home/phong/Documents/thesis/stm32f4/stm-idf/components/stm32f4xx_hal_driver/stm32f4xx_hal_rtc_ex.c **** 
1623:/home/phong/Documents/thesis/stm32f4/stm-idf/components/stm32f4xx_hal_driver/stm32f4xx_hal_rtc_ex.c ****   /* Change RTC state */
1624:/home/phong/Documents/thesis/stm32f4/stm-idf/components/stm32f4xx_hal_driver/stm32f4xx_hal_rtc_ex.c ****   hrtc->State = HAL_RTC_STATE_READY;
1625:/home/phong/Documents/thesis/stm32f4/stm-idf/components/stm32f4xx_hal_driver/stm32f4xx_hal_rtc_ex.c **** 
1626:/home/phong/Documents/thesis/stm32f4/stm-idf/components/stm32f4xx_hal_driver/stm32f4xx_hal_rtc_ex.c ****   /* Process Unlocked */
1627:/home/phong/Documents/thesis/stm32f4/stm-idf/components/stm32f4xx_hal_driver/stm32f4xx_hal_rtc_ex.c ****   __HAL_UNLOCK(hrtc);
1628:/home/phong/Documents/thesis/stm32f4/stm-idf/components/stm32f4xx_hal_driver/stm32f4xx_hal_rtc_ex.c **** 
1629:/home/phong/Documents/thesis/stm32f4/stm-idf/components/stm32f4xx_hal_driver/stm32f4xx_hal_rtc_ex.c ****   return HAL_OK;
1630:/home/phong/Documents/thesis/stm32f4/stm-idf/components/stm32f4xx_hal_driver/stm32f4xx_hal_rtc_ex.c **** }
 2537              		.loc 1 1630 0
 2538 0008 1846     		mov	r0, r3
 2539              	.LVL196:
 2540 000a 7047     		bx	lr
 2541              	.LVL197:
 2542              	.L204:
1589:/home/phong/Documents/thesis/stm32f4/stm-idf/components/stm32f4xx_hal_driver/stm32f4xx_hal_rtc_ex.c ****   /* Process Locked */
 2543              		.loc 1 1589 0 discriminator 2
 2544 000c 10B5     		push	{r4, lr}
 2545              	.LCFI34:
 2546              		.cfi_def_cfa_offset 8
 2547              		.cfi_offset 4, -8
 2548              		.cfi_offset 14, -4
ARM GAS  /tmp/cc17vVDA.s 			page 76


 2549 000e 0446     		mov	r4, r0
1591:/home/phong/Documents/thesis/stm32f4/stm-idf/components/stm32f4xx_hal_driver/stm32f4xx_hal_rtc_ex.c **** 
 2550              		.loc 1 1591 0 discriminator 2
 2551 0010 0123     		movs	r3, #1
 2552 0012 0377     		strb	r3, [r0, #28]
1593:/home/phong/Documents/thesis/stm32f4/stm-idf/components/stm32f4xx_hal_driver/stm32f4xx_hal_rtc_ex.c **** 
 2553              		.loc 1 1593 0 discriminator 2
 2554 0014 0223     		movs	r3, #2
 2555 0016 4377     		strb	r3, [r0, #29]
1596:/home/phong/Documents/thesis/stm32f4/stm-idf/components/stm32f4xx_hal_driver/stm32f4xx_hal_rtc_ex.c **** 
 2556              		.loc 1 1596 0 discriminator 2
 2557 0018 0368     		ldr	r3, [r0]
 2558 001a CA22     		movs	r2, #202
 2559 001c 5A62     		str	r2, [r3, #36]
 2560 001e 0368     		ldr	r3, [r0]
 2561 0020 5322     		movs	r2, #83
 2562 0022 5A62     		str	r2, [r3, #36]
1599:/home/phong/Documents/thesis/stm32f4/stm-idf/components/stm32f4xx_hal_driver/stm32f4xx_hal_rtc_ex.c ****   {
 2563              		.loc 1 1599 0 discriminator 2
 2564 0024 FFF7FEFF 		bl	RTC_EnterInitMode
 2565              	.LVL198:
 2566 0028 0346     		mov	r3, r0
 2567 002a 90B9     		cbnz	r0, .L205
1614:/home/phong/Documents/thesis/stm32f4/stm-idf/components/stm32f4xx_hal_driver/stm32f4xx_hal_rtc_ex.c **** 
 2568              		.loc 1 1614 0
 2569 002c 2168     		ldr	r1, [r4]
 2570 002e 8A68     		ldr	r2, [r1, #8]
 2571 0030 22F01002 		bic	r2, r2, #16
 2572 0034 8A60     		str	r2, [r1, #8]
1617:/home/phong/Documents/thesis/stm32f4/stm-idf/components/stm32f4xx_hal_driver/stm32f4xx_hal_rtc_ex.c ****   }
 2573              		.loc 1 1617 0
 2574 0036 2168     		ldr	r1, [r4]
 2575 0038 CA68     		ldr	r2, [r1, #12]
 2576 003a 22F08002 		bic	r2, r2, #128
 2577 003e CA60     		str	r2, [r1, #12]
1621:/home/phong/Documents/thesis/stm32f4/stm-idf/components/stm32f4xx_hal_driver/stm32f4xx_hal_rtc_ex.c **** 
 2578              		.loc 1 1621 0
 2579 0040 2268     		ldr	r2, [r4]
 2580 0042 FF21     		movs	r1, #255
 2581 0044 5162     		str	r1, [r2, #36]
1624:/home/phong/Documents/thesis/stm32f4/stm-idf/components/stm32f4xx_hal_driver/stm32f4xx_hal_rtc_ex.c **** 
 2582              		.loc 1 1624 0
 2583 0046 0122     		movs	r2, #1
 2584 0048 6277     		strb	r2, [r4, #29]
1627:/home/phong/Documents/thesis/stm32f4/stm-idf/components/stm32f4xx_hal_driver/stm32f4xx_hal_rtc_ex.c **** 
 2585              		.loc 1 1627 0
 2586 004a 0022     		movs	r2, #0
 2587 004c 2277     		strb	r2, [r4, #28]
 2588              	.L197:
 2589              		.loc 1 1630 0
 2590 004e 1846     		mov	r0, r3
 2591 0050 10BD     		pop	{r4, pc}
 2592              	.LVL199:
 2593              	.L205:
1602:/home/phong/Documents/thesis/stm32f4/stm-idf/components/stm32f4xx_hal_driver/stm32f4xx_hal_rtc_ex.c **** 
 2594              		.loc 1 1602 0
 2595 0052 2368     		ldr	r3, [r4]
ARM GAS  /tmp/cc17vVDA.s 			page 77


 2596 0054 FF22     		movs	r2, #255
 2597 0056 5A62     		str	r2, [r3, #36]
1605:/home/phong/Documents/thesis/stm32f4/stm-idf/components/stm32f4xx_hal_driver/stm32f4xx_hal_rtc_ex.c **** 
 2598              		.loc 1 1605 0
 2599 0058 0423     		movs	r3, #4
 2600 005a 6377     		strb	r3, [r4, #29]
1608:/home/phong/Documents/thesis/stm32f4/stm-idf/components/stm32f4xx_hal_driver/stm32f4xx_hal_rtc_ex.c **** 
 2601              		.loc 1 1608 0
 2602 005c 0023     		movs	r3, #0
 2603 005e 2377     		strb	r3, [r4, #28]
1610:/home/phong/Documents/thesis/stm32f4/stm-idf/components/stm32f4xx_hal_driver/stm32f4xx_hal_rtc_ex.c ****   }
 2604              		.loc 1 1610 0
 2605 0060 0123     		movs	r3, #1
 2606 0062 F4E7     		b	.L197
 2607              		.cfi_endproc
 2608              	.LFE160:
 2610              		.section	.text.HAL_RTCEx_EnableBypassShadow,"ax",%progbits
 2611              		.align	1
 2612              		.global	HAL_RTCEx_EnableBypassShadow
 2613              		.syntax unified
 2614              		.thumb
 2615              		.thumb_func
 2616              		.fpu fpv4-sp-d16
 2618              	HAL_RTCEx_EnableBypassShadow:
 2619              	.LFB161:
1631:/home/phong/Documents/thesis/stm32f4/stm-idf/components/stm32f4xx_hal_driver/stm32f4xx_hal_rtc_ex.c **** 
1632:/home/phong/Documents/thesis/stm32f4/stm-idf/components/stm32f4xx_hal_driver/stm32f4xx_hal_rtc_ex.c **** /**
1633:/home/phong/Documents/thesis/stm32f4/stm-idf/components/stm32f4xx_hal_driver/stm32f4xx_hal_rtc_ex.c ****   * @brief  Enables the Bypass Shadow feature.
1634:/home/phong/Documents/thesis/stm32f4/stm-idf/components/stm32f4xx_hal_driver/stm32f4xx_hal_rtc_ex.c ****   * @param  hrtc pointer to a RTC_HandleTypeDef structure that contains
1635:/home/phong/Documents/thesis/stm32f4/stm-idf/components/stm32f4xx_hal_driver/stm32f4xx_hal_rtc_ex.c ****   *                the configuration information for RTC.
1636:/home/phong/Documents/thesis/stm32f4/stm-idf/components/stm32f4xx_hal_driver/stm32f4xx_hal_rtc_ex.c ****   * @note   When the Bypass Shadow is enabled the calendar value are taken
1637:/home/phong/Documents/thesis/stm32f4/stm-idf/components/stm32f4xx_hal_driver/stm32f4xx_hal_rtc_ex.c ****   *         directly from the Calendar counter.
1638:/home/phong/Documents/thesis/stm32f4/stm-idf/components/stm32f4xx_hal_driver/stm32f4xx_hal_rtc_ex.c ****   * @retval HAL status
1639:/home/phong/Documents/thesis/stm32f4/stm-idf/components/stm32f4xx_hal_driver/stm32f4xx_hal_rtc_ex.c ****   */
1640:/home/phong/Documents/thesis/stm32f4/stm-idf/components/stm32f4xx_hal_driver/stm32f4xx_hal_rtc_ex.c **** HAL_StatusTypeDef HAL_RTCEx_EnableBypassShadow(RTC_HandleTypeDef* hrtc)
1641:/home/phong/Documents/thesis/stm32f4/stm-idf/components/stm32f4xx_hal_driver/stm32f4xx_hal_rtc_ex.c **** {
 2620              		.loc 1 1641 0
 2621              		.cfi_startproc
 2622              		@ args = 0, pretend = 0, frame = 0
 2623              		@ frame_needed = 0, uses_anonymous_args = 0
 2624              		@ link register save eliminated.
 2625              	.LVL200:
1642:/home/phong/Documents/thesis/stm32f4/stm-idf/components/stm32f4xx_hal_driver/stm32f4xx_hal_rtc_ex.c ****   /* Process Locked */
1643:/home/phong/Documents/thesis/stm32f4/stm-idf/components/stm32f4xx_hal_driver/stm32f4xx_hal_rtc_ex.c ****   __HAL_LOCK(hrtc);
 2626              		.loc 1 1643 0
 2627 0000 037F     		ldrb	r3, [r0, #28]	@ zero_extendqisi2
 2628 0002 012B     		cmp	r3, #1
 2629 0004 16D0     		beq	.L208
 2630              		.loc 1 1643 0 is_stmt 0 discriminator 2
 2631 0006 0122     		movs	r2, #1
 2632 0008 0277     		strb	r2, [r0, #28]
1644:/home/phong/Documents/thesis/stm32f4/stm-idf/components/stm32f4xx_hal_driver/stm32f4xx_hal_rtc_ex.c **** 
1645:/home/phong/Documents/thesis/stm32f4/stm-idf/components/stm32f4xx_hal_driver/stm32f4xx_hal_rtc_ex.c ****   hrtc->State = HAL_RTC_STATE_BUSY;
 2633              		.loc 1 1645 0 is_stmt 1 discriminator 2
 2634 000a 0223     		movs	r3, #2
 2635 000c 4377     		strb	r3, [r0, #29]
1646:/home/phong/Documents/thesis/stm32f4/stm-idf/components/stm32f4xx_hal_driver/stm32f4xx_hal_rtc_ex.c **** 
ARM GAS  /tmp/cc17vVDA.s 			page 78


1647:/home/phong/Documents/thesis/stm32f4/stm-idf/components/stm32f4xx_hal_driver/stm32f4xx_hal_rtc_ex.c ****   /* Disable the write protection for RTC registers */
1648:/home/phong/Documents/thesis/stm32f4/stm-idf/components/stm32f4xx_hal_driver/stm32f4xx_hal_rtc_ex.c ****   __HAL_RTC_WRITEPROTECTION_DISABLE(hrtc);
 2636              		.loc 1 1648 0 discriminator 2
 2637 000e 0368     		ldr	r3, [r0]
 2638 0010 CA21     		movs	r1, #202
 2639 0012 5962     		str	r1, [r3, #36]
 2640 0014 0368     		ldr	r3, [r0]
 2641 0016 5321     		movs	r1, #83
 2642 0018 5962     		str	r1, [r3, #36]
1649:/home/phong/Documents/thesis/stm32f4/stm-idf/components/stm32f4xx_hal_driver/stm32f4xx_hal_rtc_ex.c **** 
1650:/home/phong/Documents/thesis/stm32f4/stm-idf/components/stm32f4xx_hal_driver/stm32f4xx_hal_rtc_ex.c ****   /* Set the BYPSHAD bit */
1651:/home/phong/Documents/thesis/stm32f4/stm-idf/components/stm32f4xx_hal_driver/stm32f4xx_hal_rtc_ex.c ****   hrtc->Instance->CR |= (uint8_t)RTC_CR_BYPSHAD;
 2643              		.loc 1 1651 0 discriminator 2
 2644 001a 0168     		ldr	r1, [r0]
 2645 001c 8B68     		ldr	r3, [r1, #8]
 2646 001e 43F02003 		orr	r3, r3, #32
 2647 0022 8B60     		str	r3, [r1, #8]
1652:/home/phong/Documents/thesis/stm32f4/stm-idf/components/stm32f4xx_hal_driver/stm32f4xx_hal_rtc_ex.c **** 
1653:/home/phong/Documents/thesis/stm32f4/stm-idf/components/stm32f4xx_hal_driver/stm32f4xx_hal_rtc_ex.c ****   /* Enable the write protection for RTC registers */
1654:/home/phong/Documents/thesis/stm32f4/stm-idf/components/stm32f4xx_hal_driver/stm32f4xx_hal_rtc_ex.c ****   __HAL_RTC_WRITEPROTECTION_ENABLE(hrtc);
 2648              		.loc 1 1654 0 discriminator 2
 2649 0024 0368     		ldr	r3, [r0]
 2650 0026 FF21     		movs	r1, #255
 2651 0028 5962     		str	r1, [r3, #36]
1655:/home/phong/Documents/thesis/stm32f4/stm-idf/components/stm32f4xx_hal_driver/stm32f4xx_hal_rtc_ex.c **** 
1656:/home/phong/Documents/thesis/stm32f4/stm-idf/components/stm32f4xx_hal_driver/stm32f4xx_hal_rtc_ex.c ****   /* Change RTC state */
1657:/home/phong/Documents/thesis/stm32f4/stm-idf/components/stm32f4xx_hal_driver/stm32f4xx_hal_rtc_ex.c ****   hrtc->State = HAL_RTC_STATE_READY;
 2652              		.loc 1 1657 0 discriminator 2
 2653 002a 4277     		strb	r2, [r0, #29]
1658:/home/phong/Documents/thesis/stm32f4/stm-idf/components/stm32f4xx_hal_driver/stm32f4xx_hal_rtc_ex.c **** 
1659:/home/phong/Documents/thesis/stm32f4/stm-idf/components/stm32f4xx_hal_driver/stm32f4xx_hal_rtc_ex.c ****   /* Process Unlocked */
1660:/home/phong/Documents/thesis/stm32f4/stm-idf/components/stm32f4xx_hal_driver/stm32f4xx_hal_rtc_ex.c ****   __HAL_UNLOCK(hrtc);
 2654              		.loc 1 1660 0 discriminator 2
 2655 002c 0023     		movs	r3, #0
 2656 002e 0377     		strb	r3, [r0, #28]
1661:/home/phong/Documents/thesis/stm32f4/stm-idf/components/stm32f4xx_hal_driver/stm32f4xx_hal_rtc_ex.c **** 
1662:/home/phong/Documents/thesis/stm32f4/stm-idf/components/stm32f4xx_hal_driver/stm32f4xx_hal_rtc_ex.c ****   return HAL_OK;
 2657              		.loc 1 1662 0 discriminator 2
 2658 0030 1846     		mov	r0, r3
 2659              	.LVL201:
 2660 0032 7047     		bx	lr
 2661              	.LVL202:
 2662              	.L208:
1643:/home/phong/Documents/thesis/stm32f4/stm-idf/components/stm32f4xx_hal_driver/stm32f4xx_hal_rtc_ex.c **** 
 2663              		.loc 1 1643 0
 2664 0034 0220     		movs	r0, #2
 2665              	.LVL203:
1663:/home/phong/Documents/thesis/stm32f4/stm-idf/components/stm32f4xx_hal_driver/stm32f4xx_hal_rtc_ex.c **** }
 2666              		.loc 1 1663 0
 2667 0036 7047     		bx	lr
 2668              		.cfi_endproc
 2669              	.LFE161:
 2671              		.section	.text.HAL_RTCEx_DisableBypassShadow,"ax",%progbits
 2672              		.align	1
 2673              		.global	HAL_RTCEx_DisableBypassShadow
 2674              		.syntax unified
 2675              		.thumb
ARM GAS  /tmp/cc17vVDA.s 			page 79


 2676              		.thumb_func
 2677              		.fpu fpv4-sp-d16
 2679              	HAL_RTCEx_DisableBypassShadow:
 2680              	.LFB162:
1664:/home/phong/Documents/thesis/stm32f4/stm-idf/components/stm32f4xx_hal_driver/stm32f4xx_hal_rtc_ex.c **** 
1665:/home/phong/Documents/thesis/stm32f4/stm-idf/components/stm32f4xx_hal_driver/stm32f4xx_hal_rtc_ex.c **** /**
1666:/home/phong/Documents/thesis/stm32f4/stm-idf/components/stm32f4xx_hal_driver/stm32f4xx_hal_rtc_ex.c ****   * @brief  Disables the Bypass Shadow feature.
1667:/home/phong/Documents/thesis/stm32f4/stm-idf/components/stm32f4xx_hal_driver/stm32f4xx_hal_rtc_ex.c ****   * @param  hrtc pointer to a RTC_HandleTypeDef structure that contains
1668:/home/phong/Documents/thesis/stm32f4/stm-idf/components/stm32f4xx_hal_driver/stm32f4xx_hal_rtc_ex.c ****   *                the configuration information for RTC.
1669:/home/phong/Documents/thesis/stm32f4/stm-idf/components/stm32f4xx_hal_driver/stm32f4xx_hal_rtc_ex.c ****   * @note   When the Bypass Shadow is enabled the calendar value are taken
1670:/home/phong/Documents/thesis/stm32f4/stm-idf/components/stm32f4xx_hal_driver/stm32f4xx_hal_rtc_ex.c ****   *         directly from the Calendar counter.
1671:/home/phong/Documents/thesis/stm32f4/stm-idf/components/stm32f4xx_hal_driver/stm32f4xx_hal_rtc_ex.c ****   * @retval HAL status
1672:/home/phong/Documents/thesis/stm32f4/stm-idf/components/stm32f4xx_hal_driver/stm32f4xx_hal_rtc_ex.c ****   */
1673:/home/phong/Documents/thesis/stm32f4/stm-idf/components/stm32f4xx_hal_driver/stm32f4xx_hal_rtc_ex.c **** HAL_StatusTypeDef HAL_RTCEx_DisableBypassShadow(RTC_HandleTypeDef* hrtc)
1674:/home/phong/Documents/thesis/stm32f4/stm-idf/components/stm32f4xx_hal_driver/stm32f4xx_hal_rtc_ex.c **** {
 2681              		.loc 1 1674 0
 2682              		.cfi_startproc
 2683              		@ args = 0, pretend = 0, frame = 0
 2684              		@ frame_needed = 0, uses_anonymous_args = 0
 2685              		@ link register save eliminated.
 2686              	.LVL204:
1675:/home/phong/Documents/thesis/stm32f4/stm-idf/components/stm32f4xx_hal_driver/stm32f4xx_hal_rtc_ex.c ****   /* Process Locked */
1676:/home/phong/Documents/thesis/stm32f4/stm-idf/components/stm32f4xx_hal_driver/stm32f4xx_hal_rtc_ex.c ****   __HAL_LOCK(hrtc);
 2687              		.loc 1 1676 0
 2688 0000 037F     		ldrb	r3, [r0, #28]	@ zero_extendqisi2
 2689 0002 012B     		cmp	r3, #1
 2690 0004 16D0     		beq	.L211
 2691              		.loc 1 1676 0 is_stmt 0 discriminator 2
 2692 0006 0122     		movs	r2, #1
 2693 0008 0277     		strb	r2, [r0, #28]
1677:/home/phong/Documents/thesis/stm32f4/stm-idf/components/stm32f4xx_hal_driver/stm32f4xx_hal_rtc_ex.c **** 
1678:/home/phong/Documents/thesis/stm32f4/stm-idf/components/stm32f4xx_hal_driver/stm32f4xx_hal_rtc_ex.c ****   hrtc->State = HAL_RTC_STATE_BUSY;
 2694              		.loc 1 1678 0 is_stmt 1 discriminator 2
 2695 000a 0223     		movs	r3, #2
 2696 000c 4377     		strb	r3, [r0, #29]
1679:/home/phong/Documents/thesis/stm32f4/stm-idf/components/stm32f4xx_hal_driver/stm32f4xx_hal_rtc_ex.c **** 
1680:/home/phong/Documents/thesis/stm32f4/stm-idf/components/stm32f4xx_hal_driver/stm32f4xx_hal_rtc_ex.c ****   /* Disable the write protection for RTC registers */
1681:/home/phong/Documents/thesis/stm32f4/stm-idf/components/stm32f4xx_hal_driver/stm32f4xx_hal_rtc_ex.c ****   __HAL_RTC_WRITEPROTECTION_DISABLE(hrtc);
 2697              		.loc 1 1681 0 discriminator 2
 2698 000e 0368     		ldr	r3, [r0]
 2699 0010 CA21     		movs	r1, #202
 2700 0012 5962     		str	r1, [r3, #36]
 2701 0014 0368     		ldr	r3, [r0]
 2702 0016 5321     		movs	r1, #83
 2703 0018 5962     		str	r1, [r3, #36]
1682:/home/phong/Documents/thesis/stm32f4/stm-idf/components/stm32f4xx_hal_driver/stm32f4xx_hal_rtc_ex.c **** 
1683:/home/phong/Documents/thesis/stm32f4/stm-idf/components/stm32f4xx_hal_driver/stm32f4xx_hal_rtc_ex.c ****   /* Reset the BYPSHAD bit */
1684:/home/phong/Documents/thesis/stm32f4/stm-idf/components/stm32f4xx_hal_driver/stm32f4xx_hal_rtc_ex.c ****   hrtc->Instance->CR &= (uint8_t)~RTC_CR_BYPSHAD;
 2704              		.loc 1 1684 0 discriminator 2
 2705 001a 0168     		ldr	r1, [r0]
 2706 001c 8B68     		ldr	r3, [r1, #8]
 2707 001e 03F0DF03 		and	r3, r3, #223
 2708 0022 8B60     		str	r3, [r1, #8]
1685:/home/phong/Documents/thesis/stm32f4/stm-idf/components/stm32f4xx_hal_driver/stm32f4xx_hal_rtc_ex.c **** 
1686:/home/phong/Documents/thesis/stm32f4/stm-idf/components/stm32f4xx_hal_driver/stm32f4xx_hal_rtc_ex.c ****   /* Enable the write protection for RTC registers */
1687:/home/phong/Documents/thesis/stm32f4/stm-idf/components/stm32f4xx_hal_driver/stm32f4xx_hal_rtc_ex.c ****   __HAL_RTC_WRITEPROTECTION_ENABLE(hrtc);
 2709              		.loc 1 1687 0 discriminator 2
ARM GAS  /tmp/cc17vVDA.s 			page 80


 2710 0024 0368     		ldr	r3, [r0]
 2711 0026 FF21     		movs	r1, #255
 2712 0028 5962     		str	r1, [r3, #36]
1688:/home/phong/Documents/thesis/stm32f4/stm-idf/components/stm32f4xx_hal_driver/stm32f4xx_hal_rtc_ex.c **** 
1689:/home/phong/Documents/thesis/stm32f4/stm-idf/components/stm32f4xx_hal_driver/stm32f4xx_hal_rtc_ex.c ****   /* Change RTC state */
1690:/home/phong/Documents/thesis/stm32f4/stm-idf/components/stm32f4xx_hal_driver/stm32f4xx_hal_rtc_ex.c ****   hrtc->State = HAL_RTC_STATE_READY;
 2713              		.loc 1 1690 0 discriminator 2
 2714 002a 4277     		strb	r2, [r0, #29]
1691:/home/phong/Documents/thesis/stm32f4/stm-idf/components/stm32f4xx_hal_driver/stm32f4xx_hal_rtc_ex.c **** 
1692:/home/phong/Documents/thesis/stm32f4/stm-idf/components/stm32f4xx_hal_driver/stm32f4xx_hal_rtc_ex.c ****   /* Process Unlocked */
1693:/home/phong/Documents/thesis/stm32f4/stm-idf/components/stm32f4xx_hal_driver/stm32f4xx_hal_rtc_ex.c ****   __HAL_UNLOCK(hrtc);
 2715              		.loc 1 1693 0 discriminator 2
 2716 002c 0023     		movs	r3, #0
 2717 002e 0377     		strb	r3, [r0, #28]
1694:/home/phong/Documents/thesis/stm32f4/stm-idf/components/stm32f4xx_hal_driver/stm32f4xx_hal_rtc_ex.c **** 
1695:/home/phong/Documents/thesis/stm32f4/stm-idf/components/stm32f4xx_hal_driver/stm32f4xx_hal_rtc_ex.c ****   return HAL_OK;
 2718              		.loc 1 1695 0 discriminator 2
 2719 0030 1846     		mov	r0, r3
 2720              	.LVL205:
 2721 0032 7047     		bx	lr
 2722              	.LVL206:
 2723              	.L211:
1676:/home/phong/Documents/thesis/stm32f4/stm-idf/components/stm32f4xx_hal_driver/stm32f4xx_hal_rtc_ex.c **** 
 2724              		.loc 1 1676 0
 2725 0034 0220     		movs	r0, #2
 2726              	.LVL207:
1696:/home/phong/Documents/thesis/stm32f4/stm-idf/components/stm32f4xx_hal_driver/stm32f4xx_hal_rtc_ex.c **** }
 2727              		.loc 1 1696 0
 2728 0036 7047     		bx	lr
 2729              		.cfi_endproc
 2730              	.LFE162:
 2732              		.section	.text.HAL_RTCEx_AlarmBEventCallback,"ax",%progbits
 2733              		.align	1
 2734              		.weak	HAL_RTCEx_AlarmBEventCallback
 2735              		.syntax unified
 2736              		.thumb
 2737              		.thumb_func
 2738              		.fpu fpv4-sp-d16
 2740              	HAL_RTCEx_AlarmBEventCallback:
 2741              	.LFB163:
1697:/home/phong/Documents/thesis/stm32f4/stm-idf/components/stm32f4xx_hal_driver/stm32f4xx_hal_rtc_ex.c **** 
1698:/home/phong/Documents/thesis/stm32f4/stm-idf/components/stm32f4xx_hal_driver/stm32f4xx_hal_rtc_ex.c **** /**
1699:/home/phong/Documents/thesis/stm32f4/stm-idf/components/stm32f4xx_hal_driver/stm32f4xx_hal_rtc_ex.c ****   * @}
1700:/home/phong/Documents/thesis/stm32f4/stm-idf/components/stm32f4xx_hal_driver/stm32f4xx_hal_rtc_ex.c ****   */
1701:/home/phong/Documents/thesis/stm32f4/stm-idf/components/stm32f4xx_hal_driver/stm32f4xx_hal_rtc_ex.c **** 
1702:/home/phong/Documents/thesis/stm32f4/stm-idf/components/stm32f4xx_hal_driver/stm32f4xx_hal_rtc_ex.c ****   /** @defgroup RTCEx_Exported_Functions_Group4 Extended features functions
1703:/home/phong/Documents/thesis/stm32f4/stm-idf/components/stm32f4xx_hal_driver/stm32f4xx_hal_rtc_ex.c ****  *  @brief    Extended features functions
1704:/home/phong/Documents/thesis/stm32f4/stm-idf/components/stm32f4xx_hal_driver/stm32f4xx_hal_rtc_ex.c ****  *
1705:/home/phong/Documents/thesis/stm32f4/stm-idf/components/stm32f4xx_hal_driver/stm32f4xx_hal_rtc_ex.c **** @verbatim
1706:/home/phong/Documents/thesis/stm32f4/stm-idf/components/stm32f4xx_hal_driver/stm32f4xx_hal_rtc_ex.c ****  ===============================================================================
1707:/home/phong/Documents/thesis/stm32f4/stm-idf/components/stm32f4xx_hal_driver/stm32f4xx_hal_rtc_ex.c ****                  ##### Extended features functions #####
1708:/home/phong/Documents/thesis/stm32f4/stm-idf/components/stm32f4xx_hal_driver/stm32f4xx_hal_rtc_ex.c ****  ===============================================================================
1709:/home/phong/Documents/thesis/stm32f4/stm-idf/components/stm32f4xx_hal_driver/stm32f4xx_hal_rtc_ex.c ****     [..]  This section provides functions allowing to:
1710:/home/phong/Documents/thesis/stm32f4/stm-idf/components/stm32f4xx_hal_driver/stm32f4xx_hal_rtc_ex.c ****       (+) RTC Alarm B callback
1711:/home/phong/Documents/thesis/stm32f4/stm-idf/components/stm32f4xx_hal_driver/stm32f4xx_hal_rtc_ex.c ****       (+) RTC Poll for Alarm B request
1712:/home/phong/Documents/thesis/stm32f4/stm-idf/components/stm32f4xx_hal_driver/stm32f4xx_hal_rtc_ex.c **** 
1713:/home/phong/Documents/thesis/stm32f4/stm-idf/components/stm32f4xx_hal_driver/stm32f4xx_hal_rtc_ex.c **** @endverbatim
ARM GAS  /tmp/cc17vVDA.s 			page 81


1714:/home/phong/Documents/thesis/stm32f4/stm-idf/components/stm32f4xx_hal_driver/stm32f4xx_hal_rtc_ex.c ****   * @{
1715:/home/phong/Documents/thesis/stm32f4/stm-idf/components/stm32f4xx_hal_driver/stm32f4xx_hal_rtc_ex.c ****   */
1716:/home/phong/Documents/thesis/stm32f4/stm-idf/components/stm32f4xx_hal_driver/stm32f4xx_hal_rtc_ex.c **** 
1717:/home/phong/Documents/thesis/stm32f4/stm-idf/components/stm32f4xx_hal_driver/stm32f4xx_hal_rtc_ex.c **** /**
1718:/home/phong/Documents/thesis/stm32f4/stm-idf/components/stm32f4xx_hal_driver/stm32f4xx_hal_rtc_ex.c ****   * @brief  Alarm B callback.
1719:/home/phong/Documents/thesis/stm32f4/stm-idf/components/stm32f4xx_hal_driver/stm32f4xx_hal_rtc_ex.c ****   * @param  hrtc pointer to a RTC_HandleTypeDef structure that contains
1720:/home/phong/Documents/thesis/stm32f4/stm-idf/components/stm32f4xx_hal_driver/stm32f4xx_hal_rtc_ex.c ****   *                the configuration information for RTC.
1721:/home/phong/Documents/thesis/stm32f4/stm-idf/components/stm32f4xx_hal_driver/stm32f4xx_hal_rtc_ex.c ****   * @retval None
1722:/home/phong/Documents/thesis/stm32f4/stm-idf/components/stm32f4xx_hal_driver/stm32f4xx_hal_rtc_ex.c ****   */
1723:/home/phong/Documents/thesis/stm32f4/stm-idf/components/stm32f4xx_hal_driver/stm32f4xx_hal_rtc_ex.c **** __weak void HAL_RTCEx_AlarmBEventCallback(RTC_HandleTypeDef *hrtc)
1724:/home/phong/Documents/thesis/stm32f4/stm-idf/components/stm32f4xx_hal_driver/stm32f4xx_hal_rtc_ex.c **** {
 2742              		.loc 1 1724 0
 2743              		.cfi_startproc
 2744              		@ args = 0, pretend = 0, frame = 0
 2745              		@ frame_needed = 0, uses_anonymous_args = 0
 2746              		@ link register save eliminated.
 2747              	.LVL208:
 2748 0000 7047     		bx	lr
 2749              		.cfi_endproc
 2750              	.LFE163:
 2752              		.section	.text.HAL_RTCEx_PollForAlarmBEvent,"ax",%progbits
 2753              		.align	1
 2754              		.global	HAL_RTCEx_PollForAlarmBEvent
 2755              		.syntax unified
 2756              		.thumb
 2757              		.thumb_func
 2758              		.fpu fpv4-sp-d16
 2760              	HAL_RTCEx_PollForAlarmBEvent:
 2761              	.LFB164:
1725:/home/phong/Documents/thesis/stm32f4/stm-idf/components/stm32f4xx_hal_driver/stm32f4xx_hal_rtc_ex.c ****   /* Prevent unused argument(s) compilation warning */
1726:/home/phong/Documents/thesis/stm32f4/stm-idf/components/stm32f4xx_hal_driver/stm32f4xx_hal_rtc_ex.c ****   UNUSED(hrtc);
1727:/home/phong/Documents/thesis/stm32f4/stm-idf/components/stm32f4xx_hal_driver/stm32f4xx_hal_rtc_ex.c ****   /* NOTE : This function Should not be modified, when the callback is needed,
1728:/home/phong/Documents/thesis/stm32f4/stm-idf/components/stm32f4xx_hal_driver/stm32f4xx_hal_rtc_ex.c ****             the HAL_RTC_AlarmBEventCallback could be implemented in the user file
1729:/home/phong/Documents/thesis/stm32f4/stm-idf/components/stm32f4xx_hal_driver/stm32f4xx_hal_rtc_ex.c ****    */
1730:/home/phong/Documents/thesis/stm32f4/stm-idf/components/stm32f4xx_hal_driver/stm32f4xx_hal_rtc_ex.c **** }
1731:/home/phong/Documents/thesis/stm32f4/stm-idf/components/stm32f4xx_hal_driver/stm32f4xx_hal_rtc_ex.c **** 
1732:/home/phong/Documents/thesis/stm32f4/stm-idf/components/stm32f4xx_hal_driver/stm32f4xx_hal_rtc_ex.c **** /**
1733:/home/phong/Documents/thesis/stm32f4/stm-idf/components/stm32f4xx_hal_driver/stm32f4xx_hal_rtc_ex.c ****   * @brief  This function handles AlarmB Polling request.
1734:/home/phong/Documents/thesis/stm32f4/stm-idf/components/stm32f4xx_hal_driver/stm32f4xx_hal_rtc_ex.c ****   * @param  hrtc pointer to a RTC_HandleTypeDef structure that contains
1735:/home/phong/Documents/thesis/stm32f4/stm-idf/components/stm32f4xx_hal_driver/stm32f4xx_hal_rtc_ex.c ****   *                the configuration information for RTC.
1736:/home/phong/Documents/thesis/stm32f4/stm-idf/components/stm32f4xx_hal_driver/stm32f4xx_hal_rtc_ex.c ****   * @param  Timeout Timeout duration
1737:/home/phong/Documents/thesis/stm32f4/stm-idf/components/stm32f4xx_hal_driver/stm32f4xx_hal_rtc_ex.c ****   * @retval HAL status
1738:/home/phong/Documents/thesis/stm32f4/stm-idf/components/stm32f4xx_hal_driver/stm32f4xx_hal_rtc_ex.c ****   */
1739:/home/phong/Documents/thesis/stm32f4/stm-idf/components/stm32f4xx_hal_driver/stm32f4xx_hal_rtc_ex.c **** HAL_StatusTypeDef HAL_RTCEx_PollForAlarmBEvent(RTC_HandleTypeDef *hrtc, uint32_t Timeout)
1740:/home/phong/Documents/thesis/stm32f4/stm-idf/components/stm32f4xx_hal_driver/stm32f4xx_hal_rtc_ex.c **** {
 2762              		.loc 1 1740 0
 2763              		.cfi_startproc
 2764              		@ args = 0, pretend = 0, frame = 0
 2765              		@ frame_needed = 0, uses_anonymous_args = 0
 2766              	.LVL209:
 2767              		.loc 1 1740 0
 2768 0000 70B5     		push	{r4, r5, r6, lr}
 2769              	.LCFI35:
 2770              		.cfi_def_cfa_offset 16
 2771              		.cfi_offset 4, -16
 2772              		.cfi_offset 5, -12
 2773              		.cfi_offset 6, -8
ARM GAS  /tmp/cc17vVDA.s 			page 82


 2774              		.cfi_offset 14, -4
 2775 0002 0446     		mov	r4, r0
 2776 0004 0D46     		mov	r5, r1
 2777              	.LVL210:
1741:/home/phong/Documents/thesis/stm32f4/stm-idf/components/stm32f4xx_hal_driver/stm32f4xx_hal_rtc_ex.c ****   uint32_t tickstart = 0U;
1742:/home/phong/Documents/thesis/stm32f4/stm-idf/components/stm32f4xx_hal_driver/stm32f4xx_hal_rtc_ex.c **** 
1743:/home/phong/Documents/thesis/stm32f4/stm-idf/components/stm32f4xx_hal_driver/stm32f4xx_hal_rtc_ex.c ****   /* Get tick */
1744:/home/phong/Documents/thesis/stm32f4/stm-idf/components/stm32f4xx_hal_driver/stm32f4xx_hal_rtc_ex.c ****   tickstart = HAL_GetTick();
 2778              		.loc 1 1744 0
 2779 0006 FFF7FEFF 		bl	HAL_GetTick
 2780              	.LVL211:
 2781 000a 0646     		mov	r6, r0
 2782              	.LVL212:
 2783              	.L215:
1745:/home/phong/Documents/thesis/stm32f4/stm-idf/components/stm32f4xx_hal_driver/stm32f4xx_hal_rtc_ex.c **** 
1746:/home/phong/Documents/thesis/stm32f4/stm-idf/components/stm32f4xx_hal_driver/stm32f4xx_hal_rtc_ex.c ****   while(__HAL_RTC_ALARM_GET_FLAG(hrtc, RTC_FLAG_ALRBF) == RESET)
 2784              		.loc 1 1746 0
 2785 000c 2368     		ldr	r3, [r4]
 2786 000e DA68     		ldr	r2, [r3, #12]
 2787 0010 12F4007F 		tst	r2, #512
 2788 0014 0BD1     		bne	.L220
1747:/home/phong/Documents/thesis/stm32f4/stm-idf/components/stm32f4xx_hal_driver/stm32f4xx_hal_rtc_ex.c ****   {
1748:/home/phong/Documents/thesis/stm32f4/stm-idf/components/stm32f4xx_hal_driver/stm32f4xx_hal_rtc_ex.c ****     if(Timeout != HAL_MAX_DELAY)
 2789              		.loc 1 1748 0
 2790 0016 B5F1FF3F 		cmp	r5, #-1
 2791 001a F7D0     		beq	.L215
1749:/home/phong/Documents/thesis/stm32f4/stm-idf/components/stm32f4xx_hal_driver/stm32f4xx_hal_rtc_ex.c ****     {
1750:/home/phong/Documents/thesis/stm32f4/stm-idf/components/stm32f4xx_hal_driver/stm32f4xx_hal_rtc_ex.c ****       if((Timeout == 0U)||((HAL_GetTick() - tickstart ) > Timeout))
 2792              		.loc 1 1750 0
 2793 001c 25B1     		cbz	r5, .L216
 2794              		.loc 1 1750 0 is_stmt 0 discriminator 1
 2795 001e FFF7FEFF 		bl	HAL_GetTick
 2796              	.LVL213:
 2797 0022 801B     		subs	r0, r0, r6
 2798 0024 8542     		cmp	r5, r0
 2799 0026 F1D2     		bcs	.L215
 2800              	.L216:
1751:/home/phong/Documents/thesis/stm32f4/stm-idf/components/stm32f4xx_hal_driver/stm32f4xx_hal_rtc_ex.c ****       {
1752:/home/phong/Documents/thesis/stm32f4/stm-idf/components/stm32f4xx_hal_driver/stm32f4xx_hal_rtc_ex.c ****         hrtc->State = HAL_RTC_STATE_TIMEOUT;
 2801              		.loc 1 1752 0 is_stmt 1
 2802 0028 0320     		movs	r0, #3
 2803 002a 6077     		strb	r0, [r4, #29]
1753:/home/phong/Documents/thesis/stm32f4/stm-idf/components/stm32f4xx_hal_driver/stm32f4xx_hal_rtc_ex.c ****         return HAL_TIMEOUT;
 2804              		.loc 1 1753 0
 2805 002c 70BD     		pop	{r4, r5, r6, pc}
 2806              	.LVL214:
 2807              	.L220:
1754:/home/phong/Documents/thesis/stm32f4/stm-idf/components/stm32f4xx_hal_driver/stm32f4xx_hal_rtc_ex.c ****       }
1755:/home/phong/Documents/thesis/stm32f4/stm-idf/components/stm32f4xx_hal_driver/stm32f4xx_hal_rtc_ex.c ****     }
1756:/home/phong/Documents/thesis/stm32f4/stm-idf/components/stm32f4xx_hal_driver/stm32f4xx_hal_rtc_ex.c ****   }
1757:/home/phong/Documents/thesis/stm32f4/stm-idf/components/stm32f4xx_hal_driver/stm32f4xx_hal_rtc_ex.c **** 
1758:/home/phong/Documents/thesis/stm32f4/stm-idf/components/stm32f4xx_hal_driver/stm32f4xx_hal_rtc_ex.c ****   /* Clear the Alarm Flag */
1759:/home/phong/Documents/thesis/stm32f4/stm-idf/components/stm32f4xx_hal_driver/stm32f4xx_hal_rtc_ex.c ****   __HAL_RTC_ALARM_CLEAR_FLAG(hrtc, RTC_FLAG_ALRBF);
 2808              		.loc 1 1759 0
 2809 002e DA68     		ldr	r2, [r3, #12]
 2810 0030 D2B2     		uxtb	r2, r2
 2811 0032 62F42072 		orn	r2, r2, #640
ARM GAS  /tmp/cc17vVDA.s 			page 83


 2812 0036 DA60     		str	r2, [r3, #12]
1760:/home/phong/Documents/thesis/stm32f4/stm-idf/components/stm32f4xx_hal_driver/stm32f4xx_hal_rtc_ex.c **** 
1761:/home/phong/Documents/thesis/stm32f4/stm-idf/components/stm32f4xx_hal_driver/stm32f4xx_hal_rtc_ex.c ****   /* Change RTC state */
1762:/home/phong/Documents/thesis/stm32f4/stm-idf/components/stm32f4xx_hal_driver/stm32f4xx_hal_rtc_ex.c ****   hrtc->State = HAL_RTC_STATE_READY;
 2813              		.loc 1 1762 0
 2814 0038 0123     		movs	r3, #1
 2815 003a 6377     		strb	r3, [r4, #29]
1763:/home/phong/Documents/thesis/stm32f4/stm-idf/components/stm32f4xx_hal_driver/stm32f4xx_hal_rtc_ex.c **** 
1764:/home/phong/Documents/thesis/stm32f4/stm-idf/components/stm32f4xx_hal_driver/stm32f4xx_hal_rtc_ex.c ****   return HAL_OK;
 2816              		.loc 1 1764 0
 2817 003c 0020     		movs	r0, #0
1765:/home/phong/Documents/thesis/stm32f4/stm-idf/components/stm32f4xx_hal_driver/stm32f4xx_hal_rtc_ex.c **** }
 2818              		.loc 1 1765 0
 2819 003e 70BD     		pop	{r4, r5, r6, pc}
 2820              		.cfi_endproc
 2821              	.LFE164:
 2823              		.text
 2824              	.Letext0:
 2825              		.file 2 "/home/phong/Documents/thesis/stm32f4/stm-idf/components/newlib/include/machine/_default_t
 2826              		.file 3 "/home/phong/Documents/thesis/stm32f4/stm-idf/components/newlib/include/sys/_stdint.h"
 2827              		.file 4 "/home/phong/Documents/thesis/stm32f4/stm-idf/components/cmsis/include/core_cm4.h"
 2828              		.file 5 "/home/phong/Documents/thesis/stm32f4/stm-idf/components/cmsis/device/stm32/stm32f4xx/incl
 2829              		.file 6 "/home/phong/Documents/thesis/stm32f4/stm-idf/components/cmsis/device/stm32/stm32f4xx/incl
 2830              		.file 7 "/home/phong/Documents/thesis/stm32f4/stm-idf/components/cmsis/device/stm32/stm32f4xx/incl
 2831              		.file 8 "/home/phong/Documents/thesis/stm32f4/stm-idf/components/stm32f4xx_hal_driver/include/stm3
 2832              		.file 9 "/home/phong/Documents/thesis/stm32f4/stm-idf/components/stm32f4xx_hal_driver/include/stm3
 2833              		.file 10 "/home/phong/Documents/thesis/stm32f4/stm-idf/components/stm32f4xx_hal_driver/include/stm
 2834              		.file 11 "/home/phong/Documents/thesis/stm32f4/stm-idf/components/stm32f4xx_hal_driver/include/stm
ARM GAS  /tmp/cc17vVDA.s 			page 84


DEFINED SYMBOLS
                            *ABS*:0000000000000000 stm32f4xx_hal_rtc_ex.c
     /tmp/cc17vVDA.s:18     .text.HAL_RTCEx_SetTimeStamp:0000000000000000 $t
     /tmp/cc17vVDA.s:25     .text.HAL_RTCEx_SetTimeStamp:0000000000000000 HAL_RTCEx_SetTimeStamp
     /tmp/cc17vVDA.s:119    .text.HAL_RTCEx_SetTimeStamp_IT:0000000000000000 $t
     /tmp/cc17vVDA.s:126    .text.HAL_RTCEx_SetTimeStamp_IT:0000000000000000 HAL_RTCEx_SetTimeStamp_IT
     /tmp/cc17vVDA.s:238    .text.HAL_RTCEx_SetTimeStamp_IT:0000000000000088 $d
     /tmp/cc17vVDA.s:243    .text.HAL_RTCEx_DeactivateTimeStamp:0000000000000000 $t
     /tmp/cc17vVDA.s:250    .text.HAL_RTCEx_DeactivateTimeStamp:0000000000000000 HAL_RTCEx_DeactivateTimeStamp
     /tmp/cc17vVDA.s:314    .text.HAL_RTCEx_GetTimeStamp:0000000000000000 $t
     /tmp/cc17vVDA.s:321    .text.HAL_RTCEx_GetTimeStamp:0000000000000000 HAL_RTCEx_GetTimeStamp
     /tmp/cc17vVDA.s:434    .text.HAL_RTCEx_SetTamper:0000000000000000 $t
     /tmp/cc17vVDA.s:441    .text.HAL_RTCEx_SetTamper:0000000000000000 HAL_RTCEx_SetTamper
     /tmp/cc17vVDA.s:538    .text.HAL_RTCEx_SetTamper_IT:0000000000000000 $t
     /tmp/cc17vVDA.s:545    .text.HAL_RTCEx_SetTamper_IT:0000000000000000 HAL_RTCEx_SetTamper_IT
     /tmp/cc17vVDA.s:683    .text.HAL_RTCEx_SetTamper_IT:00000000000000a4 $d
     /tmp/cc17vVDA.s:688    .text.HAL_RTCEx_DeactivateTamper:0000000000000000 $t
     /tmp/cc17vVDA.s:695    .text.HAL_RTCEx_DeactivateTamper:0000000000000000 HAL_RTCEx_DeactivateTamper
     /tmp/cc17vVDA.s:748    .text.HAL_RTCEx_TimeStampEventCallback:0000000000000000 $t
     /tmp/cc17vVDA.s:755    .text.HAL_RTCEx_TimeStampEventCallback:0000000000000000 HAL_RTCEx_TimeStampEventCallback
     /tmp/cc17vVDA.s:768    .text.HAL_RTCEx_Tamper1EventCallback:0000000000000000 $t
     /tmp/cc17vVDA.s:775    .text.HAL_RTCEx_Tamper1EventCallback:0000000000000000 HAL_RTCEx_Tamper1EventCallback
     /tmp/cc17vVDA.s:788    .text.HAL_RTCEx_Tamper2EventCallback:0000000000000000 $t
     /tmp/cc17vVDA.s:795    .text.HAL_RTCEx_Tamper2EventCallback:0000000000000000 HAL_RTCEx_Tamper2EventCallback
     /tmp/cc17vVDA.s:808    .text.HAL_RTCEx_TamperTimeStampIRQHandler:0000000000000000 $t
     /tmp/cc17vVDA.s:815    .text.HAL_RTCEx_TamperTimeStampIRQHandler:0000000000000000 HAL_RTCEx_TamperTimeStampIRQHandler
     /tmp/cc17vVDA.s:907    .text.HAL_RTCEx_TamperTimeStampIRQHandler:0000000000000084 $d
     /tmp/cc17vVDA.s:912    .text.HAL_RTCEx_PollForTimeStampEvent:0000000000000000 $t
     /tmp/cc17vVDA.s:919    .text.HAL_RTCEx_PollForTimeStampEvent:0000000000000000 HAL_RTCEx_PollForTimeStampEvent
     /tmp/cc17vVDA.s:994    .text.HAL_RTCEx_PollForTamper1Event:0000000000000000 $t
     /tmp/cc17vVDA.s:1001   .text.HAL_RTCEx_PollForTamper1Event:0000000000000000 HAL_RTCEx_PollForTamper1Event
     /tmp/cc17vVDA.s:1064   .text.HAL_RTCEx_PollForTamper2Event:0000000000000000 $t
     /tmp/cc17vVDA.s:1071   .text.HAL_RTCEx_PollForTamper2Event:0000000000000000 HAL_RTCEx_PollForTamper2Event
     /tmp/cc17vVDA.s:1134   .text.HAL_RTCEx_SetWakeUpTimer:0000000000000000 $t
     /tmp/cc17vVDA.s:1141   .text.HAL_RTCEx_SetWakeUpTimer:0000000000000000 HAL_RTCEx_SetWakeUpTimer
     /tmp/cc17vVDA.s:1292   .text.HAL_RTCEx_SetWakeUpTimer_IT:0000000000000000 $t
     /tmp/cc17vVDA.s:1299   .text.HAL_RTCEx_SetWakeUpTimer_IT:0000000000000000 HAL_RTCEx_SetWakeUpTimer_IT
     /tmp/cc17vVDA.s:1491   .text.HAL_RTCEx_SetWakeUpTimer_IT:0000000000000104 $d
     /tmp/cc17vVDA.s:1498   .text.HAL_RTCEx_DeactivateWakeUpTimer:0000000000000000 $t
     /tmp/cc17vVDA.s:1505   .text.HAL_RTCEx_DeactivateWakeUpTimer:0000000000000000 HAL_RTCEx_DeactivateWakeUpTimer
     /tmp/cc17vVDA.s:1600   .text.HAL_RTCEx_GetWakeUpTimer:0000000000000000 $t
     /tmp/cc17vVDA.s:1607   .text.HAL_RTCEx_GetWakeUpTimer:0000000000000000 HAL_RTCEx_GetWakeUpTimer
     /tmp/cc17vVDA.s:1626   .text.HAL_RTCEx_WakeUpTimerEventCallback:0000000000000000 $t
     /tmp/cc17vVDA.s:1633   .text.HAL_RTCEx_WakeUpTimerEventCallback:0000000000000000 HAL_RTCEx_WakeUpTimerEventCallback
     /tmp/cc17vVDA.s:1646   .text.HAL_RTCEx_WakeUpTimerIRQHandler:0000000000000000 $t
     /tmp/cc17vVDA.s:1653   .text.HAL_RTCEx_WakeUpTimerIRQHandler:0000000000000000 HAL_RTCEx_WakeUpTimerIRQHandler
     /tmp/cc17vVDA.s:1697   .text.HAL_RTCEx_WakeUpTimerIRQHandler:0000000000000030 $d
     /tmp/cc17vVDA.s:1702   .text.HAL_RTCEx_PollForWakeUpTimerEvent:0000000000000000 $t
     /tmp/cc17vVDA.s:1709   .text.HAL_RTCEx_PollForWakeUpTimerEvent:0000000000000000 HAL_RTCEx_PollForWakeUpTimerEvent
     /tmp/cc17vVDA.s:1772   .text.HAL_RTCEx_BKUPWrite:0000000000000000 $t
     /tmp/cc17vVDA.s:1779   .text.HAL_RTCEx_BKUPWrite:0000000000000000 HAL_RTCEx_BKUPWrite
     /tmp/cc17vVDA.s:1798   .text.HAL_RTCEx_BKUPRead:0000000000000000 $t
     /tmp/cc17vVDA.s:1805   .text.HAL_RTCEx_BKUPRead:0000000000000000 HAL_RTCEx_BKUPRead
     /tmp/cc17vVDA.s:1826   .text.HAL_RTCEx_SetCoarseCalib:0000000000000000 $t
     /tmp/cc17vVDA.s:1833   .text.HAL_RTCEx_SetCoarseCalib:0000000000000000 HAL_RTCEx_SetCoarseCalib
     /tmp/cc17vVDA.s:1929   .text.HAL_RTCEx_DeactivateCoarseCalib:0000000000000000 $t
     /tmp/cc17vVDA.s:1936   .text.HAL_RTCEx_DeactivateCoarseCalib:0000000000000000 HAL_RTCEx_DeactivateCoarseCalib
ARM GAS  /tmp/cc17vVDA.s 			page 85


     /tmp/cc17vVDA.s:2022   .text.HAL_RTCEx_SetSmoothCalib:0000000000000000 $t
     /tmp/cc17vVDA.s:2029   .text.HAL_RTCEx_SetSmoothCalib:0000000000000000 HAL_RTCEx_SetSmoothCalib
     /tmp/cc17vVDA.s:2136   .text.HAL_RTCEx_SetSynchroShift:0000000000000000 $t
     /tmp/cc17vVDA.s:2143   .text.HAL_RTCEx_SetSynchroShift:0000000000000000 HAL_RTCEx_SetSynchroShift
     /tmp/cc17vVDA.s:2283   .text.HAL_RTCEx_SetCalibrationOutPut:0000000000000000 $t
     /tmp/cc17vVDA.s:2290   .text.HAL_RTCEx_SetCalibrationOutPut:0000000000000000 HAL_RTCEx_SetCalibrationOutPut
     /tmp/cc17vVDA.s:2364   .text.HAL_RTCEx_DeactivateCalibrationOutPut:0000000000000000 $t
     /tmp/cc17vVDA.s:2371   .text.HAL_RTCEx_DeactivateCalibrationOutPut:0000000000000000 HAL_RTCEx_DeactivateCalibrationOutPut
     /tmp/cc17vVDA.s:2425   .text.HAL_RTCEx_SetRefClock:0000000000000000 $t
     /tmp/cc17vVDA.s:2432   .text.HAL_RTCEx_SetRefClock:0000000000000000 HAL_RTCEx_SetRefClock
     /tmp/cc17vVDA.s:2518   .text.HAL_RTCEx_DeactivateRefClock:0000000000000000 $t
     /tmp/cc17vVDA.s:2525   .text.HAL_RTCEx_DeactivateRefClock:0000000000000000 HAL_RTCEx_DeactivateRefClock
     /tmp/cc17vVDA.s:2611   .text.HAL_RTCEx_EnableBypassShadow:0000000000000000 $t
     /tmp/cc17vVDA.s:2618   .text.HAL_RTCEx_EnableBypassShadow:0000000000000000 HAL_RTCEx_EnableBypassShadow
     /tmp/cc17vVDA.s:2672   .text.HAL_RTCEx_DisableBypassShadow:0000000000000000 $t
     /tmp/cc17vVDA.s:2679   .text.HAL_RTCEx_DisableBypassShadow:0000000000000000 HAL_RTCEx_DisableBypassShadow
     /tmp/cc17vVDA.s:2733   .text.HAL_RTCEx_AlarmBEventCallback:0000000000000000 $t
     /tmp/cc17vVDA.s:2740   .text.HAL_RTCEx_AlarmBEventCallback:0000000000000000 HAL_RTCEx_AlarmBEventCallback
     /tmp/cc17vVDA.s:2753   .text.HAL_RTCEx_PollForAlarmBEvent:0000000000000000 $t
     /tmp/cc17vVDA.s:2760   .text.HAL_RTCEx_PollForAlarmBEvent:0000000000000000 HAL_RTCEx_PollForAlarmBEvent
                     .debug_frame:0000000000000010 $d

UNDEFINED SYMBOLS
RTC_Bcd2ToByte
HAL_GetTick
SystemCoreClock
RTC_EnterInitMode
HAL_RTC_WaitForSynchro
