ARM GAS  /tmp/cc6S1L6Q.s 			page 1


   1              		.cpu cortex-m4
   2              		.eabi_attribute 27, 1
   3              		.eabi_attribute 28, 1
   4              		.eabi_attribute 20, 1
   5              		.eabi_attribute 21, 1
   6              		.eabi_attribute 23, 3
   7              		.eabi_attribute 24, 1
   8              		.eabi_attribute 25, 1
   9              		.eabi_attribute 26, 1
  10              		.eabi_attribute 30, 1
  11              		.eabi_attribute 34, 1
  12              		.eabi_attribute 18, 4
  13              		.file	"stm32f4xx_hal_dac.c"
  14              		.text
  15              	.Ltext0:
  16              		.cfi_sections	.debug_frame
  17              		.section	.text.HAL_DAC_MspInit,"ax",%progbits
  18              		.align	1
  19              		.weak	HAL_DAC_MspInit
  20              		.syntax unified
  21              		.thumb
  22              		.thumb_func
  23              		.fpu fpv4-sp-d16
  25              	HAL_DAC_MspInit:
  26              	.LFB132:
  27              		.file 1 "/home/phong/Documents/thesis/stm32f4/stm-idf/components/stm32f4xx_hal_driver/stm32f4xx_ha
   1:/home/phong/Documents/thesis/stm32f4/stm-idf/components/stm32f4xx_hal_driver/stm32f4xx_hal_dac.c **** /**
   2:/home/phong/Documents/thesis/stm32f4/stm-idf/components/stm32f4xx_hal_driver/stm32f4xx_hal_dac.c ****   ******************************************************************************
   3:/home/phong/Documents/thesis/stm32f4/stm-idf/components/stm32f4xx_hal_driver/stm32f4xx_hal_dac.c ****   * @file    stm32f4xx_hal_dac.c
   4:/home/phong/Documents/thesis/stm32f4/stm-idf/components/stm32f4xx_hal_driver/stm32f4xx_hal_dac.c ****   * @author  MCD Application Team
   5:/home/phong/Documents/thesis/stm32f4/stm-idf/components/stm32f4xx_hal_driver/stm32f4xx_hal_dac.c ****   * @brief   DAC HAL module driver.
   6:/home/phong/Documents/thesis/stm32f4/stm-idf/components/stm32f4xx_hal_driver/stm32f4xx_hal_dac.c ****   *         This file provides firmware functions to manage the following 
   7:/home/phong/Documents/thesis/stm32f4/stm-idf/components/stm32f4xx_hal_driver/stm32f4xx_hal_dac.c ****   *         functionalities of the Digital to Analog Converter (DAC) peripheral:
   8:/home/phong/Documents/thesis/stm32f4/stm-idf/components/stm32f4xx_hal_driver/stm32f4xx_hal_dac.c ****   *           + Initialization and de-initialization functions
   9:/home/phong/Documents/thesis/stm32f4/stm-idf/components/stm32f4xx_hal_driver/stm32f4xx_hal_dac.c ****   *           + IO operation functions
  10:/home/phong/Documents/thesis/stm32f4/stm-idf/components/stm32f4xx_hal_driver/stm32f4xx_hal_dac.c ****   *           + Peripheral Control functions
  11:/home/phong/Documents/thesis/stm32f4/stm-idf/components/stm32f4xx_hal_driver/stm32f4xx_hal_dac.c ****   *           + Peripheral State and Errors functions      
  12:/home/phong/Documents/thesis/stm32f4/stm-idf/components/stm32f4xx_hal_driver/stm32f4xx_hal_dac.c ****   *     
  13:/home/phong/Documents/thesis/stm32f4/stm-idf/components/stm32f4xx_hal_driver/stm32f4xx_hal_dac.c ****   *
  14:/home/phong/Documents/thesis/stm32f4/stm-idf/components/stm32f4xx_hal_driver/stm32f4xx_hal_dac.c ****   @verbatim      
  15:/home/phong/Documents/thesis/stm32f4/stm-idf/components/stm32f4xx_hal_driver/stm32f4xx_hal_dac.c ****   ==============================================================================
  16:/home/phong/Documents/thesis/stm32f4/stm-idf/components/stm32f4xx_hal_driver/stm32f4xx_hal_dac.c ****                       ##### DAC Peripheral features #####
  17:/home/phong/Documents/thesis/stm32f4/stm-idf/components/stm32f4xx_hal_driver/stm32f4xx_hal_dac.c ****   ==============================================================================
  18:/home/phong/Documents/thesis/stm32f4/stm-idf/components/stm32f4xx_hal_driver/stm32f4xx_hal_dac.c ****     [..]        
  19:/home/phong/Documents/thesis/stm32f4/stm-idf/components/stm32f4xx_hal_driver/stm32f4xx_hal_dac.c ****       *** DAC Channels ***
  20:/home/phong/Documents/thesis/stm32f4/stm-idf/components/stm32f4xx_hal_driver/stm32f4xx_hal_dac.c ****       ====================  
  21:/home/phong/Documents/thesis/stm32f4/stm-idf/components/stm32f4xx_hal_driver/stm32f4xx_hal_dac.c ****     [..]
  22:/home/phong/Documents/thesis/stm32f4/stm-idf/components/stm32f4xx_hal_driver/stm32f4xx_hal_dac.c ****     The device integrates two 12-bit Digital Analog Converters that can 
  23:/home/phong/Documents/thesis/stm32f4/stm-idf/components/stm32f4xx_hal_driver/stm32f4xx_hal_dac.c ****     be used independently or simultaneously (dual mode):
  24:/home/phong/Documents/thesis/stm32f4/stm-idf/components/stm32f4xx_hal_driver/stm32f4xx_hal_dac.c ****       (#) DAC channel1 with DAC_OUT1 (PA4) as output
  25:/home/phong/Documents/thesis/stm32f4/stm-idf/components/stm32f4xx_hal_driver/stm32f4xx_hal_dac.c ****       (#) DAC channel2 with DAC_OUT2 (PA5) as output
  26:/home/phong/Documents/thesis/stm32f4/stm-idf/components/stm32f4xx_hal_driver/stm32f4xx_hal_dac.c ****       
  27:/home/phong/Documents/thesis/stm32f4/stm-idf/components/stm32f4xx_hal_driver/stm32f4xx_hal_dac.c ****       *** DAC Triggers ***
  28:/home/phong/Documents/thesis/stm32f4/stm-idf/components/stm32f4xx_hal_driver/stm32f4xx_hal_dac.c ****       ====================
  29:/home/phong/Documents/thesis/stm32f4/stm-idf/components/stm32f4xx_hal_driver/stm32f4xx_hal_dac.c ****     [..]
  30:/home/phong/Documents/thesis/stm32f4/stm-idf/components/stm32f4xx_hal_driver/stm32f4xx_hal_dac.c ****     Digital to Analog conversion can be non-triggered using DAC_TRIGGER_NONE
  31:/home/phong/Documents/thesis/stm32f4/stm-idf/components/stm32f4xx_hal_driver/stm32f4xx_hal_dac.c ****     and DAC_OUT1/DAC_OUT2 is available once writing to DHRx register. 
ARM GAS  /tmp/cc6S1L6Q.s 			page 2


  32:/home/phong/Documents/thesis/stm32f4/stm-idf/components/stm32f4xx_hal_driver/stm32f4xx_hal_dac.c ****     [..] 
  33:/home/phong/Documents/thesis/stm32f4/stm-idf/components/stm32f4xx_hal_driver/stm32f4xx_hal_dac.c ****     Digital to Analog conversion can be triggered by:
  34:/home/phong/Documents/thesis/stm32f4/stm-idf/components/stm32f4xx_hal_driver/stm32f4xx_hal_dac.c ****       (#) External event: EXTI Line 9 (any GPIOx_Pin9) using DAC_TRIGGER_EXT_IT9.
  35:/home/phong/Documents/thesis/stm32f4/stm-idf/components/stm32f4xx_hal_driver/stm32f4xx_hal_dac.c ****           The used pin (GPIOx_Pin9) must be configured in input mode.
  36:/home/phong/Documents/thesis/stm32f4/stm-idf/components/stm32f4xx_hal_driver/stm32f4xx_hal_dac.c ****   
  37:/home/phong/Documents/thesis/stm32f4/stm-idf/components/stm32f4xx_hal_driver/stm32f4xx_hal_dac.c ****       (#) Timers TRGO: TIM2, TIM4, TIM5, TIM6, TIM7 and TIM8 
  38:/home/phong/Documents/thesis/stm32f4/stm-idf/components/stm32f4xx_hal_driver/stm32f4xx_hal_dac.c ****           (DAC_TRIGGER_T2_TRGO, DAC_TRIGGER_T4_TRGO...)
  39:/home/phong/Documents/thesis/stm32f4/stm-idf/components/stm32f4xx_hal_driver/stm32f4xx_hal_dac.c ****   
  40:/home/phong/Documents/thesis/stm32f4/stm-idf/components/stm32f4xx_hal_driver/stm32f4xx_hal_dac.c ****       (#) Software using DAC_TRIGGER_SOFTWARE
  41:/home/phong/Documents/thesis/stm32f4/stm-idf/components/stm32f4xx_hal_driver/stm32f4xx_hal_dac.c ****   
  42:/home/phong/Documents/thesis/stm32f4/stm-idf/components/stm32f4xx_hal_driver/stm32f4xx_hal_dac.c ****       *** DAC Buffer mode feature ***
  43:/home/phong/Documents/thesis/stm32f4/stm-idf/components/stm32f4xx_hal_driver/stm32f4xx_hal_dac.c ****       =============================== 
  44:/home/phong/Documents/thesis/stm32f4/stm-idf/components/stm32f4xx_hal_driver/stm32f4xx_hal_dac.c ****       [..] 
  45:/home/phong/Documents/thesis/stm32f4/stm-idf/components/stm32f4xx_hal_driver/stm32f4xx_hal_dac.c ****       Each DAC channel integrates an output buffer that can be used to 
  46:/home/phong/Documents/thesis/stm32f4/stm-idf/components/stm32f4xx_hal_driver/stm32f4xx_hal_dac.c ****       reduce the output impedance, and to drive external loads directly
  47:/home/phong/Documents/thesis/stm32f4/stm-idf/components/stm32f4xx_hal_driver/stm32f4xx_hal_dac.c ****       without having to add an external operational amplifier.
  48:/home/phong/Documents/thesis/stm32f4/stm-idf/components/stm32f4xx_hal_driver/stm32f4xx_hal_dac.c ****       To enable, the output buffer use  
  49:/home/phong/Documents/thesis/stm32f4/stm-idf/components/stm32f4xx_hal_driver/stm32f4xx_hal_dac.c ****       sConfig.DAC_OutputBuffer = DAC_OUTPUTBUFFER_ENABLE;
  50:/home/phong/Documents/thesis/stm32f4/stm-idf/components/stm32f4xx_hal_driver/stm32f4xx_hal_dac.c ****       [..]           
  51:/home/phong/Documents/thesis/stm32f4/stm-idf/components/stm32f4xx_hal_driver/stm32f4xx_hal_dac.c ****       (@) Refer to the device datasheet for more details about output 
  52:/home/phong/Documents/thesis/stm32f4/stm-idf/components/stm32f4xx_hal_driver/stm32f4xx_hal_dac.c ****           impedance value with and without output buffer.
  53:/home/phong/Documents/thesis/stm32f4/stm-idf/components/stm32f4xx_hal_driver/stm32f4xx_hal_dac.c ****             
  54:/home/phong/Documents/thesis/stm32f4/stm-idf/components/stm32f4xx_hal_driver/stm32f4xx_hal_dac.c ****        *** DAC wave generation feature ***
  55:/home/phong/Documents/thesis/stm32f4/stm-idf/components/stm32f4xx_hal_driver/stm32f4xx_hal_dac.c ****        =================================== 
  56:/home/phong/Documents/thesis/stm32f4/stm-idf/components/stm32f4xx_hal_driver/stm32f4xx_hal_dac.c ****        [..]     
  57:/home/phong/Documents/thesis/stm32f4/stm-idf/components/stm32f4xx_hal_driver/stm32f4xx_hal_dac.c ****        Both DAC channels can be used to generate
  58:/home/phong/Documents/thesis/stm32f4/stm-idf/components/stm32f4xx_hal_driver/stm32f4xx_hal_dac.c ****          (#) Noise wave 
  59:/home/phong/Documents/thesis/stm32f4/stm-idf/components/stm32f4xx_hal_driver/stm32f4xx_hal_dac.c ****          (#) Triangle wave
  60:/home/phong/Documents/thesis/stm32f4/stm-idf/components/stm32f4xx_hal_driver/stm32f4xx_hal_dac.c ****             
  61:/home/phong/Documents/thesis/stm32f4/stm-idf/components/stm32f4xx_hal_driver/stm32f4xx_hal_dac.c ****        *** DAC data format ***
  62:/home/phong/Documents/thesis/stm32f4/stm-idf/components/stm32f4xx_hal_driver/stm32f4xx_hal_dac.c ****        =======================
  63:/home/phong/Documents/thesis/stm32f4/stm-idf/components/stm32f4xx_hal_driver/stm32f4xx_hal_dac.c ****        [..]   
  64:/home/phong/Documents/thesis/stm32f4/stm-idf/components/stm32f4xx_hal_driver/stm32f4xx_hal_dac.c ****        The DAC data format can be:
  65:/home/phong/Documents/thesis/stm32f4/stm-idf/components/stm32f4xx_hal_driver/stm32f4xx_hal_dac.c ****          (#) 8-bit right alignment using DAC_ALIGN_8B_R
  66:/home/phong/Documents/thesis/stm32f4/stm-idf/components/stm32f4xx_hal_driver/stm32f4xx_hal_dac.c ****          (#) 12-bit left alignment using DAC_ALIGN_12B_L
  67:/home/phong/Documents/thesis/stm32f4/stm-idf/components/stm32f4xx_hal_driver/stm32f4xx_hal_dac.c ****          (#) 12-bit right alignment using DAC_ALIGN_12B_R
  68:/home/phong/Documents/thesis/stm32f4/stm-idf/components/stm32f4xx_hal_driver/stm32f4xx_hal_dac.c ****   
  69:/home/phong/Documents/thesis/stm32f4/stm-idf/components/stm32f4xx_hal_driver/stm32f4xx_hal_dac.c ****        *** DAC data value to voltage correspondence ***  
  70:/home/phong/Documents/thesis/stm32f4/stm-idf/components/stm32f4xx_hal_driver/stm32f4xx_hal_dac.c ****        ================================================ 
  71:/home/phong/Documents/thesis/stm32f4/stm-idf/components/stm32f4xx_hal_driver/stm32f4xx_hal_dac.c ****        [..] 
  72:/home/phong/Documents/thesis/stm32f4/stm-idf/components/stm32f4xx_hal_driver/stm32f4xx_hal_dac.c ****        The analog output voltage on each DAC channel pin is determined
  73:/home/phong/Documents/thesis/stm32f4/stm-idf/components/stm32f4xx_hal_driver/stm32f4xx_hal_dac.c ****        by the following equation: 
  74:/home/phong/Documents/thesis/stm32f4/stm-idf/components/stm32f4xx_hal_driver/stm32f4xx_hal_dac.c ****        DAC_OUTx = VREF+ * DOR / 4095
  75:/home/phong/Documents/thesis/stm32f4/stm-idf/components/stm32f4xx_hal_driver/stm32f4xx_hal_dac.c ****        with  DOR is the Data Output Register
  76:/home/phong/Documents/thesis/stm32f4/stm-idf/components/stm32f4xx_hal_driver/stm32f4xx_hal_dac.c ****           VEF+ is the input voltage reference (refer to the device datasheet)
  77:/home/phong/Documents/thesis/stm32f4/stm-idf/components/stm32f4xx_hal_driver/stm32f4xx_hal_dac.c ****         e.g. To set DAC_OUT1 to 0.7V, use
  78:/home/phong/Documents/thesis/stm32f4/stm-idf/components/stm32f4xx_hal_driver/stm32f4xx_hal_dac.c ****           Assuming that VREF+ = 3.3V, DAC_OUT1 = (3.3 * 868) / 4095 = 0.7V
  79:/home/phong/Documents/thesis/stm32f4/stm-idf/components/stm32f4xx_hal_driver/stm32f4xx_hal_dac.c ****   
  80:/home/phong/Documents/thesis/stm32f4/stm-idf/components/stm32f4xx_hal_driver/stm32f4xx_hal_dac.c ****        *** DMA requests  ***
  81:/home/phong/Documents/thesis/stm32f4/stm-idf/components/stm32f4xx_hal_driver/stm32f4xx_hal_dac.c ****        =====================
  82:/home/phong/Documents/thesis/stm32f4/stm-idf/components/stm32f4xx_hal_driver/stm32f4xx_hal_dac.c ****        [..]    
  83:/home/phong/Documents/thesis/stm32f4/stm-idf/components/stm32f4xx_hal_driver/stm32f4xx_hal_dac.c ****        A DMA1 request can be generated when an external trigger (but not
  84:/home/phong/Documents/thesis/stm32f4/stm-idf/components/stm32f4xx_hal_driver/stm32f4xx_hal_dac.c ****        a software trigger) occurs if DMA1 requests are enabled using
  85:/home/phong/Documents/thesis/stm32f4/stm-idf/components/stm32f4xx_hal_driver/stm32f4xx_hal_dac.c ****        HAL_DAC_Start_DMA()
  86:/home/phong/Documents/thesis/stm32f4/stm-idf/components/stm32f4xx_hal_driver/stm32f4xx_hal_dac.c ****        [..]
  87:/home/phong/Documents/thesis/stm32f4/stm-idf/components/stm32f4xx_hal_driver/stm32f4xx_hal_dac.c ****        DMA1 requests are mapped as following:
  88:/home/phong/Documents/thesis/stm32f4/stm-idf/components/stm32f4xx_hal_driver/stm32f4xx_hal_dac.c ****          (#) DAC channel1 : mapped on DMA1 Stream5 channel7 which must be 
ARM GAS  /tmp/cc6S1L6Q.s 			page 3


  89:/home/phong/Documents/thesis/stm32f4/stm-idf/components/stm32f4xx_hal_driver/stm32f4xx_hal_dac.c ****              already configured
  90:/home/phong/Documents/thesis/stm32f4/stm-idf/components/stm32f4xx_hal_driver/stm32f4xx_hal_dac.c ****          (#) DAC channel2 : mapped on DMA1 Stream6 channel7 which must be 
  91:/home/phong/Documents/thesis/stm32f4/stm-idf/components/stm32f4xx_hal_driver/stm32f4xx_hal_dac.c ****              already configured
  92:/home/phong/Documents/thesis/stm32f4/stm-idf/components/stm32f4xx_hal_driver/stm32f4xx_hal_dac.c ****        
  93:/home/phong/Documents/thesis/stm32f4/stm-idf/components/stm32f4xx_hal_driver/stm32f4xx_hal_dac.c ****     -@- For Dual mode and specific signal (Triangle and noise) generation please 
  94:/home/phong/Documents/thesis/stm32f4/stm-idf/components/stm32f4xx_hal_driver/stm32f4xx_hal_dac.c ****         refer to Extension Features Driver description        
  95:/home/phong/Documents/thesis/stm32f4/stm-idf/components/stm32f4xx_hal_driver/stm32f4xx_hal_dac.c ****   
  96:/home/phong/Documents/thesis/stm32f4/stm-idf/components/stm32f4xx_hal_driver/stm32f4xx_hal_dac.c ****       
  97:/home/phong/Documents/thesis/stm32f4/stm-idf/components/stm32f4xx_hal_driver/stm32f4xx_hal_dac.c ****                       ##### How to use this driver #####
  98:/home/phong/Documents/thesis/stm32f4/stm-idf/components/stm32f4xx_hal_driver/stm32f4xx_hal_dac.c ****   ==============================================================================
  99:/home/phong/Documents/thesis/stm32f4/stm-idf/components/stm32f4xx_hal_driver/stm32f4xx_hal_dac.c ****     [..]          
 100:/home/phong/Documents/thesis/stm32f4/stm-idf/components/stm32f4xx_hal_driver/stm32f4xx_hal_dac.c ****       (+) DAC APB clock must be enabled to get write access to DAC
 101:/home/phong/Documents/thesis/stm32f4/stm-idf/components/stm32f4xx_hal_driver/stm32f4xx_hal_dac.c ****           registers using HAL_DAC_Init()
 102:/home/phong/Documents/thesis/stm32f4/stm-idf/components/stm32f4xx_hal_driver/stm32f4xx_hal_dac.c ****       (+) Configure DAC_OUTx (DAC_OUT1: PA4, DAC_OUT2: PA5) in analog mode.
 103:/home/phong/Documents/thesis/stm32f4/stm-idf/components/stm32f4xx_hal_driver/stm32f4xx_hal_dac.c ****       (+) Configure the DAC channel using HAL_DAC_ConfigChannel() function.
 104:/home/phong/Documents/thesis/stm32f4/stm-idf/components/stm32f4xx_hal_driver/stm32f4xx_hal_dac.c ****       (+) Enable the DAC channel using HAL_DAC_Start() or HAL_DAC_Start_DMA functions
 105:/home/phong/Documents/thesis/stm32f4/stm-idf/components/stm32f4xx_hal_driver/stm32f4xx_hal_dac.c **** 
 106:/home/phong/Documents/thesis/stm32f4/stm-idf/components/stm32f4xx_hal_driver/stm32f4xx_hal_dac.c ****      *** Polling mode IO operation ***
 107:/home/phong/Documents/thesis/stm32f4/stm-idf/components/stm32f4xx_hal_driver/stm32f4xx_hal_dac.c ****      =================================
 108:/home/phong/Documents/thesis/stm32f4/stm-idf/components/stm32f4xx_hal_driver/stm32f4xx_hal_dac.c ****      [..]    
 109:/home/phong/Documents/thesis/stm32f4/stm-idf/components/stm32f4xx_hal_driver/stm32f4xx_hal_dac.c ****        (+) Start the DAC peripheral using HAL_DAC_Start() 
 110:/home/phong/Documents/thesis/stm32f4/stm-idf/components/stm32f4xx_hal_driver/stm32f4xx_hal_dac.c ****        (+) To read the DAC last data output value, use the HAL_DAC_GetValue() function.
 111:/home/phong/Documents/thesis/stm32f4/stm-idf/components/stm32f4xx_hal_driver/stm32f4xx_hal_dac.c ****        (+) Stop the DAC peripheral using HAL_DAC_Stop()
 112:/home/phong/Documents/thesis/stm32f4/stm-idf/components/stm32f4xx_hal_driver/stm32f4xx_hal_dac.c ****        
 113:/home/phong/Documents/thesis/stm32f4/stm-idf/components/stm32f4xx_hal_driver/stm32f4xx_hal_dac.c ****      *** DMA mode IO operation ***    
 114:/home/phong/Documents/thesis/stm32f4/stm-idf/components/stm32f4xx_hal_driver/stm32f4xx_hal_dac.c ****      ==============================
 115:/home/phong/Documents/thesis/stm32f4/stm-idf/components/stm32f4xx_hal_driver/stm32f4xx_hal_dac.c ****      [..]    
 116:/home/phong/Documents/thesis/stm32f4/stm-idf/components/stm32f4xx_hal_driver/stm32f4xx_hal_dac.c ****        (+) Start the DAC peripheral using HAL_DAC_Start_DMA(), at this stage the user specify the l
 117:/home/phong/Documents/thesis/stm32f4/stm-idf/components/stm32f4xx_hal_driver/stm32f4xx_hal_dac.c ****            of data to be transferred at each end of conversion 
 118:/home/phong/Documents/thesis/stm32f4/stm-idf/components/stm32f4xx_hal_driver/stm32f4xx_hal_dac.c ****        (+) At The end of data transfer HAL_DAC_ConvCpltCallbackCh1()or HAL_DAC_ConvCpltCallbackCh2(
 119:/home/phong/Documents/thesis/stm32f4/stm-idf/components/stm32f4xx_hal_driver/stm32f4xx_hal_dac.c ****            function is executed and user can add his own code by customization of function pointer 
 120:/home/phong/Documents/thesis/stm32f4/stm-idf/components/stm32f4xx_hal_driver/stm32f4xx_hal_dac.c ****            HAL_DAC_ConvCpltCallbackCh1 or HAL_DAC_ConvCpltCallbackCh2
 121:/home/phong/Documents/thesis/stm32f4/stm-idf/components/stm32f4xx_hal_driver/stm32f4xx_hal_dac.c ****        (+) In case of transfer Error, HAL_DAC_ErrorCallbackCh1() function is executed and user can 
 122:/home/phong/Documents/thesis/stm32f4/stm-idf/components/stm32f4xx_hal_driver/stm32f4xx_hal_dac.c ****             add his own code by customization of function pointer HAL_DAC_ErrorCallbackCh1
 123:/home/phong/Documents/thesis/stm32f4/stm-idf/components/stm32f4xx_hal_driver/stm32f4xx_hal_dac.c ****        (+) Stop the DAC peripheral using HAL_DAC_Stop_DMA()
 124:/home/phong/Documents/thesis/stm32f4/stm-idf/components/stm32f4xx_hal_driver/stm32f4xx_hal_dac.c ****                     
 125:/home/phong/Documents/thesis/stm32f4/stm-idf/components/stm32f4xx_hal_driver/stm32f4xx_hal_dac.c ****     *** Callback registration ***
 126:/home/phong/Documents/thesis/stm32f4/stm-idf/components/stm32f4xx_hal_driver/stm32f4xx_hal_dac.c ****     =============================================
 127:/home/phong/Documents/thesis/stm32f4/stm-idf/components/stm32f4xx_hal_driver/stm32f4xx_hal_dac.c ****     [..]
 128:/home/phong/Documents/thesis/stm32f4/stm-idf/components/stm32f4xx_hal_driver/stm32f4xx_hal_dac.c ****       The compilation define  USE_HAL_DAC_REGISTER_CALLBACKS when set to 1
 129:/home/phong/Documents/thesis/stm32f4/stm-idf/components/stm32f4xx_hal_driver/stm32f4xx_hal_dac.c ****       allows the user to configure dynamically the driver callbacks.
 130:/home/phong/Documents/thesis/stm32f4/stm-idf/components/stm32f4xx_hal_driver/stm32f4xx_hal_dac.c **** 
 131:/home/phong/Documents/thesis/stm32f4/stm-idf/components/stm32f4xx_hal_driver/stm32f4xx_hal_dac.c ****     Use Functions @ref HAL_DAC_RegisterCallback() to register a user callback,
 132:/home/phong/Documents/thesis/stm32f4/stm-idf/components/stm32f4xx_hal_driver/stm32f4xx_hal_dac.c ****       it allows to register following callbacks:
 133:/home/phong/Documents/thesis/stm32f4/stm-idf/components/stm32f4xx_hal_driver/stm32f4xx_hal_dac.c ****       (+) ConvCpltCallbackCh1     : callback when a half transfer is completed on Ch1.
 134:/home/phong/Documents/thesis/stm32f4/stm-idf/components/stm32f4xx_hal_driver/stm32f4xx_hal_dac.c ****       (+) ConvHalfCpltCallbackCh1 : callback when a transfer is completed on Ch1.
 135:/home/phong/Documents/thesis/stm32f4/stm-idf/components/stm32f4xx_hal_driver/stm32f4xx_hal_dac.c ****       (+) ErrorCallbackCh1        : callback when an error occurs on Ch1.
 136:/home/phong/Documents/thesis/stm32f4/stm-idf/components/stm32f4xx_hal_driver/stm32f4xx_hal_dac.c ****       (+) DMAUnderrunCallbackCh1  : callback when an underrun error occurs on Ch1.
 137:/home/phong/Documents/thesis/stm32f4/stm-idf/components/stm32f4xx_hal_driver/stm32f4xx_hal_dac.c ****       (+) ConvCpltCallbackCh2     : callback when a half transfer is completed on Ch2.
 138:/home/phong/Documents/thesis/stm32f4/stm-idf/components/stm32f4xx_hal_driver/stm32f4xx_hal_dac.c ****       (+) ConvHalfCpltCallbackCh2 : callback when a transfer is completed on Ch2.
 139:/home/phong/Documents/thesis/stm32f4/stm-idf/components/stm32f4xx_hal_driver/stm32f4xx_hal_dac.c ****       (+) ErrorCallbackCh2        : callback when an error occurs on Ch2.
 140:/home/phong/Documents/thesis/stm32f4/stm-idf/components/stm32f4xx_hal_driver/stm32f4xx_hal_dac.c ****       (+) DMAUnderrunCallbackCh2  : callback when an underrun error occurs on Ch2.
 141:/home/phong/Documents/thesis/stm32f4/stm-idf/components/stm32f4xx_hal_driver/stm32f4xx_hal_dac.c ****       (+) MspInitCallback         : DAC MspInit.
 142:/home/phong/Documents/thesis/stm32f4/stm-idf/components/stm32f4xx_hal_driver/stm32f4xx_hal_dac.c ****       (+) MspDeInitCallback       : DAC MspdeInit.
 143:/home/phong/Documents/thesis/stm32f4/stm-idf/components/stm32f4xx_hal_driver/stm32f4xx_hal_dac.c ****       This function takes as parameters the HAL peripheral handle, the Callback ID
 144:/home/phong/Documents/thesis/stm32f4/stm-idf/components/stm32f4xx_hal_driver/stm32f4xx_hal_dac.c ****       and a pointer to the user callback function.
 145:/home/phong/Documents/thesis/stm32f4/stm-idf/components/stm32f4xx_hal_driver/stm32f4xx_hal_dac.c **** 
ARM GAS  /tmp/cc6S1L6Q.s 			page 4


 146:/home/phong/Documents/thesis/stm32f4/stm-idf/components/stm32f4xx_hal_driver/stm32f4xx_hal_dac.c ****     Use function @ref HAL_DAC_UnRegisterCallback() to reset a callback to the default
 147:/home/phong/Documents/thesis/stm32f4/stm-idf/components/stm32f4xx_hal_driver/stm32f4xx_hal_dac.c ****       weak (surcharged) function. It allows to reset following callbacks:
 148:/home/phong/Documents/thesis/stm32f4/stm-idf/components/stm32f4xx_hal_driver/stm32f4xx_hal_dac.c ****       (+) ConvCpltCallbackCh1     : callback when a half transfer is completed on Ch1.
 149:/home/phong/Documents/thesis/stm32f4/stm-idf/components/stm32f4xx_hal_driver/stm32f4xx_hal_dac.c ****       (+) ConvHalfCpltCallbackCh1 : callback when a transfer is completed on Ch1.
 150:/home/phong/Documents/thesis/stm32f4/stm-idf/components/stm32f4xx_hal_driver/stm32f4xx_hal_dac.c ****       (+) ErrorCallbackCh1        : callback when an error occurs on Ch1.
 151:/home/phong/Documents/thesis/stm32f4/stm-idf/components/stm32f4xx_hal_driver/stm32f4xx_hal_dac.c ****       (+) DMAUnderrunCallbackCh1  : callback when an underrun error occurs on Ch1.
 152:/home/phong/Documents/thesis/stm32f4/stm-idf/components/stm32f4xx_hal_driver/stm32f4xx_hal_dac.c ****       (+) ConvCpltCallbackCh2     : callback when a half transfer is completed on Ch2.
 153:/home/phong/Documents/thesis/stm32f4/stm-idf/components/stm32f4xx_hal_driver/stm32f4xx_hal_dac.c ****       (+) ConvHalfCpltCallbackCh2 : callback when a transfer is completed on Ch2.
 154:/home/phong/Documents/thesis/stm32f4/stm-idf/components/stm32f4xx_hal_driver/stm32f4xx_hal_dac.c ****       (+) ErrorCallbackCh2        : callback when an error occurs on Ch2.
 155:/home/phong/Documents/thesis/stm32f4/stm-idf/components/stm32f4xx_hal_driver/stm32f4xx_hal_dac.c ****       (+) DMAUnderrunCallbackCh2  : callback when an underrun error occurs on Ch2.
 156:/home/phong/Documents/thesis/stm32f4/stm-idf/components/stm32f4xx_hal_driver/stm32f4xx_hal_dac.c ****       (+) MspInitCallback         : DAC MspInit.
 157:/home/phong/Documents/thesis/stm32f4/stm-idf/components/stm32f4xx_hal_driver/stm32f4xx_hal_dac.c ****       (+) MspDeInitCallback       : DAC MspdeInit.
 158:/home/phong/Documents/thesis/stm32f4/stm-idf/components/stm32f4xx_hal_driver/stm32f4xx_hal_dac.c ****       (+) All Callbacks
 159:/home/phong/Documents/thesis/stm32f4/stm-idf/components/stm32f4xx_hal_driver/stm32f4xx_hal_dac.c ****       This function) takes as parameters the HAL peripheral handle and the Callback ID.
 160:/home/phong/Documents/thesis/stm32f4/stm-idf/components/stm32f4xx_hal_driver/stm32f4xx_hal_dac.c **** 
 161:/home/phong/Documents/thesis/stm32f4/stm-idf/components/stm32f4xx_hal_driver/stm32f4xx_hal_dac.c ****       By default, after the @ref HAL_DAC_Init and if the state is HAL_DAC_STATE_RESET
 162:/home/phong/Documents/thesis/stm32f4/stm-idf/components/stm32f4xx_hal_driver/stm32f4xx_hal_dac.c ****       all callbacks are reset to the corresponding legacy weak (surcharged) functions.
 163:/home/phong/Documents/thesis/stm32f4/stm-idf/components/stm32f4xx_hal_driver/stm32f4xx_hal_dac.c ****       Exception done for MspInit and MspDeInit callbacks that are respectively
 164:/home/phong/Documents/thesis/stm32f4/stm-idf/components/stm32f4xx_hal_driver/stm32f4xx_hal_dac.c ****       reset to the legacy weak (surcharged) functions in the @ref HAL_DAC_Init
 165:/home/phong/Documents/thesis/stm32f4/stm-idf/components/stm32f4xx_hal_driver/stm32f4xx_hal_dac.c ****       and @ref  HAL_DAC_DeInit only when these callbacks are null (not registered beforehand).
 166:/home/phong/Documents/thesis/stm32f4/stm-idf/components/stm32f4xx_hal_driver/stm32f4xx_hal_dac.c ****       If not, MspInit or MspDeInit are not null, the @ref HAL_DAC_Init and @ref HAL_DAC_DeInit
 167:/home/phong/Documents/thesis/stm32f4/stm-idf/components/stm32f4xx_hal_driver/stm32f4xx_hal_dac.c ****       keep and use the user MspInit/MspDeInit callbacks (registered beforehand)
 168:/home/phong/Documents/thesis/stm32f4/stm-idf/components/stm32f4xx_hal_driver/stm32f4xx_hal_dac.c **** 
 169:/home/phong/Documents/thesis/stm32f4/stm-idf/components/stm32f4xx_hal_driver/stm32f4xx_hal_dac.c ****       Callbacks can be registered/unregistered in READY state only.
 170:/home/phong/Documents/thesis/stm32f4/stm-idf/components/stm32f4xx_hal_driver/stm32f4xx_hal_dac.c ****       Exception done for MspInit/MspDeInit callbacks that can be registered/unregistered
 171:/home/phong/Documents/thesis/stm32f4/stm-idf/components/stm32f4xx_hal_driver/stm32f4xx_hal_dac.c ****       in READY or RESET state, thus registered (user) MspInit/DeInit callbacks can be used
 172:/home/phong/Documents/thesis/stm32f4/stm-idf/components/stm32f4xx_hal_driver/stm32f4xx_hal_dac.c ****       during the Init/DeInit.
 173:/home/phong/Documents/thesis/stm32f4/stm-idf/components/stm32f4xx_hal_driver/stm32f4xx_hal_dac.c ****       In that case first register the MspInit/MspDeInit user callbacks
 174:/home/phong/Documents/thesis/stm32f4/stm-idf/components/stm32f4xx_hal_driver/stm32f4xx_hal_dac.c ****       using @ref HAL_DAC_RegisterCallback before calling @ref HAL_DAC_DeInit
 175:/home/phong/Documents/thesis/stm32f4/stm-idf/components/stm32f4xx_hal_driver/stm32f4xx_hal_dac.c ****       or @ref HAL_DAC_Init function.
 176:/home/phong/Documents/thesis/stm32f4/stm-idf/components/stm32f4xx_hal_driver/stm32f4xx_hal_dac.c **** 
 177:/home/phong/Documents/thesis/stm32f4/stm-idf/components/stm32f4xx_hal_driver/stm32f4xx_hal_dac.c ****       When The compilation define USE_HAL_DAC_REGISTER_CALLBACKS is set to 0 or
 178:/home/phong/Documents/thesis/stm32f4/stm-idf/components/stm32f4xx_hal_driver/stm32f4xx_hal_dac.c ****       not defined, the callback registering feature is not available
 179:/home/phong/Documents/thesis/stm32f4/stm-idf/components/stm32f4xx_hal_driver/stm32f4xx_hal_dac.c ****       and weak (surcharged) callbacks are used.
 180:/home/phong/Documents/thesis/stm32f4/stm-idf/components/stm32f4xx_hal_driver/stm32f4xx_hal_dac.c ****      *** DAC HAL driver macros list ***
 181:/home/phong/Documents/thesis/stm32f4/stm-idf/components/stm32f4xx_hal_driver/stm32f4xx_hal_dac.c ****      ============================================= 
 182:/home/phong/Documents/thesis/stm32f4/stm-idf/components/stm32f4xx_hal_driver/stm32f4xx_hal_dac.c ****      [..]
 183:/home/phong/Documents/thesis/stm32f4/stm-idf/components/stm32f4xx_hal_driver/stm32f4xx_hal_dac.c ****        Below the list of most used macros in DAC HAL driver.
 184:/home/phong/Documents/thesis/stm32f4/stm-idf/components/stm32f4xx_hal_driver/stm32f4xx_hal_dac.c ****        
 185:/home/phong/Documents/thesis/stm32f4/stm-idf/components/stm32f4xx_hal_driver/stm32f4xx_hal_dac.c ****       (+) __HAL_DAC_ENABLE : Enable the DAC peripheral
 186:/home/phong/Documents/thesis/stm32f4/stm-idf/components/stm32f4xx_hal_driver/stm32f4xx_hal_dac.c ****       (+) __HAL_DAC_DISABLE : Disable the DAC peripheral
 187:/home/phong/Documents/thesis/stm32f4/stm-idf/components/stm32f4xx_hal_driver/stm32f4xx_hal_dac.c ****       (+) __HAL_DAC_CLEAR_FLAG: Clear the DAC's pending flags
 188:/home/phong/Documents/thesis/stm32f4/stm-idf/components/stm32f4xx_hal_driver/stm32f4xx_hal_dac.c ****       (+) __HAL_DAC_GET_FLAG: Get the selected DAC's flag status
 189:/home/phong/Documents/thesis/stm32f4/stm-idf/components/stm32f4xx_hal_driver/stm32f4xx_hal_dac.c ****       
 190:/home/phong/Documents/thesis/stm32f4/stm-idf/components/stm32f4xx_hal_driver/stm32f4xx_hal_dac.c ****      [..]
 191:/home/phong/Documents/thesis/stm32f4/stm-idf/components/stm32f4xx_hal_driver/stm32f4xx_hal_dac.c ****       (@) You can refer to the DAC HAL driver header file for more useful macros  
 192:/home/phong/Documents/thesis/stm32f4/stm-idf/components/stm32f4xx_hal_driver/stm32f4xx_hal_dac.c ****    
 193:/home/phong/Documents/thesis/stm32f4/stm-idf/components/stm32f4xx_hal_driver/stm32f4xx_hal_dac.c ****  @endverbatim    
 194:/home/phong/Documents/thesis/stm32f4/stm-idf/components/stm32f4xx_hal_driver/stm32f4xx_hal_dac.c ****   ******************************************************************************
 195:/home/phong/Documents/thesis/stm32f4/stm-idf/components/stm32f4xx_hal_driver/stm32f4xx_hal_dac.c ****   * @attention
 196:/home/phong/Documents/thesis/stm32f4/stm-idf/components/stm32f4xx_hal_driver/stm32f4xx_hal_dac.c ****   *
 197:/home/phong/Documents/thesis/stm32f4/stm-idf/components/stm32f4xx_hal_driver/stm32f4xx_hal_dac.c ****   * <h2><center>&copy; Copyright (c) 2017 STMicroelectronics.
 198:/home/phong/Documents/thesis/stm32f4/stm-idf/components/stm32f4xx_hal_driver/stm32f4xx_hal_dac.c ****   * All rights reserved.</center></h2>
 199:/home/phong/Documents/thesis/stm32f4/stm-idf/components/stm32f4xx_hal_driver/stm32f4xx_hal_dac.c ****   *
 200:/home/phong/Documents/thesis/stm32f4/stm-idf/components/stm32f4xx_hal_driver/stm32f4xx_hal_dac.c ****   * This software component is licensed by ST under BSD 3-Clause license,
 201:/home/phong/Documents/thesis/stm32f4/stm-idf/components/stm32f4xx_hal_driver/stm32f4xx_hal_dac.c ****   * the "License"; You may not use this file except in compliance with the
 202:/home/phong/Documents/thesis/stm32f4/stm-idf/components/stm32f4xx_hal_driver/stm32f4xx_hal_dac.c ****   * License. You may obtain a copy of the License at:
ARM GAS  /tmp/cc6S1L6Q.s 			page 5


 203:/home/phong/Documents/thesis/stm32f4/stm-idf/components/stm32f4xx_hal_driver/stm32f4xx_hal_dac.c ****   *                        opensource.org/licenses/BSD-3-Clause
 204:/home/phong/Documents/thesis/stm32f4/stm-idf/components/stm32f4xx_hal_driver/stm32f4xx_hal_dac.c ****   *
 205:/home/phong/Documents/thesis/stm32f4/stm-idf/components/stm32f4xx_hal_driver/stm32f4xx_hal_dac.c ****   ******************************************************************************
 206:/home/phong/Documents/thesis/stm32f4/stm-idf/components/stm32f4xx_hal_driver/stm32f4xx_hal_dac.c ****   */ 
 207:/home/phong/Documents/thesis/stm32f4/stm-idf/components/stm32f4xx_hal_driver/stm32f4xx_hal_dac.c **** 
 208:/home/phong/Documents/thesis/stm32f4/stm-idf/components/stm32f4xx_hal_driver/stm32f4xx_hal_dac.c **** 
 209:/home/phong/Documents/thesis/stm32f4/stm-idf/components/stm32f4xx_hal_driver/stm32f4xx_hal_dac.c **** /* Includes ------------------------------------------------------------------*/
 210:/home/phong/Documents/thesis/stm32f4/stm-idf/components/stm32f4xx_hal_driver/stm32f4xx_hal_dac.c **** #include "stm32f4xx_hal.h"
 211:/home/phong/Documents/thesis/stm32f4/stm-idf/components/stm32f4xx_hal_driver/stm32f4xx_hal_dac.c **** 
 212:/home/phong/Documents/thesis/stm32f4/stm-idf/components/stm32f4xx_hal_driver/stm32f4xx_hal_dac.c **** /** @addtogroup STM32F4xx_HAL_Driver
 213:/home/phong/Documents/thesis/stm32f4/stm-idf/components/stm32f4xx_hal_driver/stm32f4xx_hal_dac.c ****   * @{
 214:/home/phong/Documents/thesis/stm32f4/stm-idf/components/stm32f4xx_hal_driver/stm32f4xx_hal_dac.c ****   */
 215:/home/phong/Documents/thesis/stm32f4/stm-idf/components/stm32f4xx_hal_driver/stm32f4xx_hal_dac.c **** 
 216:/home/phong/Documents/thesis/stm32f4/stm-idf/components/stm32f4xx_hal_driver/stm32f4xx_hal_dac.c **** /** @defgroup DAC DAC
 217:/home/phong/Documents/thesis/stm32f4/stm-idf/components/stm32f4xx_hal_driver/stm32f4xx_hal_dac.c ****   * @brief DAC driver modules
 218:/home/phong/Documents/thesis/stm32f4/stm-idf/components/stm32f4xx_hal_driver/stm32f4xx_hal_dac.c ****   * @{
 219:/home/phong/Documents/thesis/stm32f4/stm-idf/components/stm32f4xx_hal_driver/stm32f4xx_hal_dac.c ****   */ 
 220:/home/phong/Documents/thesis/stm32f4/stm-idf/components/stm32f4xx_hal_driver/stm32f4xx_hal_dac.c **** 
 221:/home/phong/Documents/thesis/stm32f4/stm-idf/components/stm32f4xx_hal_driver/stm32f4xx_hal_dac.c **** #ifdef HAL_DAC_MODULE_ENABLED
 222:/home/phong/Documents/thesis/stm32f4/stm-idf/components/stm32f4xx_hal_driver/stm32f4xx_hal_dac.c **** 
 223:/home/phong/Documents/thesis/stm32f4/stm-idf/components/stm32f4xx_hal_driver/stm32f4xx_hal_dac.c **** #if defined(STM32F405xx) || defined(STM32F415xx) || defined(STM32F407xx) || defined(STM32F417xx) ||
 224:/home/phong/Documents/thesis/stm32f4/stm-idf/components/stm32f4xx_hal_driver/stm32f4xx_hal_dac.c ****     defined(STM32F427xx) || defined(STM32F437xx) || defined(STM32F429xx) || defined(STM32F439xx) ||
 225:/home/phong/Documents/thesis/stm32f4/stm-idf/components/stm32f4xx_hal_driver/stm32f4xx_hal_dac.c ****     defined(STM32F410Tx) || defined(STM32F410Cx) || defined(STM32F410Rx) || defined(STM32F446xx) ||
 226:/home/phong/Documents/thesis/stm32f4/stm-idf/components/stm32f4xx_hal_driver/stm32f4xx_hal_dac.c ****     defined(STM32F469xx) || defined(STM32F479xx) || defined(STM32F413xx) || defined(STM32F423xx)
 227:/home/phong/Documents/thesis/stm32f4/stm-idf/components/stm32f4xx_hal_driver/stm32f4xx_hal_dac.c **** /* Private typedef -----------------------------------------------------------*/
 228:/home/phong/Documents/thesis/stm32f4/stm-idf/components/stm32f4xx_hal_driver/stm32f4xx_hal_dac.c **** /* Private define ------------------------------------------------------------*/
 229:/home/phong/Documents/thesis/stm32f4/stm-idf/components/stm32f4xx_hal_driver/stm32f4xx_hal_dac.c **** /* Private macro -------------------------------------------------------------*/
 230:/home/phong/Documents/thesis/stm32f4/stm-idf/components/stm32f4xx_hal_driver/stm32f4xx_hal_dac.c **** /* Private variables ---------------------------------------------------------*/
 231:/home/phong/Documents/thesis/stm32f4/stm-idf/components/stm32f4xx_hal_driver/stm32f4xx_hal_dac.c **** /** @addtogroup DAC_Private_Functions
 232:/home/phong/Documents/thesis/stm32f4/stm-idf/components/stm32f4xx_hal_driver/stm32f4xx_hal_dac.c ****   * @{
 233:/home/phong/Documents/thesis/stm32f4/stm-idf/components/stm32f4xx_hal_driver/stm32f4xx_hal_dac.c ****   */
 234:/home/phong/Documents/thesis/stm32f4/stm-idf/components/stm32f4xx_hal_driver/stm32f4xx_hal_dac.c **** /* Private function prototypes -----------------------------------------------*/
 235:/home/phong/Documents/thesis/stm32f4/stm-idf/components/stm32f4xx_hal_driver/stm32f4xx_hal_dac.c **** static void DAC_DMAConvCpltCh1(DMA_HandleTypeDef *hdma);
 236:/home/phong/Documents/thesis/stm32f4/stm-idf/components/stm32f4xx_hal_driver/stm32f4xx_hal_dac.c **** static void DAC_DMAErrorCh1(DMA_HandleTypeDef *hdma);
 237:/home/phong/Documents/thesis/stm32f4/stm-idf/components/stm32f4xx_hal_driver/stm32f4xx_hal_dac.c **** static void DAC_DMAHalfConvCpltCh1(DMA_HandleTypeDef *hdma); 
 238:/home/phong/Documents/thesis/stm32f4/stm-idf/components/stm32f4xx_hal_driver/stm32f4xx_hal_dac.c **** /**
 239:/home/phong/Documents/thesis/stm32f4/stm-idf/components/stm32f4xx_hal_driver/stm32f4xx_hal_dac.c ****   * @}
 240:/home/phong/Documents/thesis/stm32f4/stm-idf/components/stm32f4xx_hal_driver/stm32f4xx_hal_dac.c ****   */
 241:/home/phong/Documents/thesis/stm32f4/stm-idf/components/stm32f4xx_hal_driver/stm32f4xx_hal_dac.c **** 
 242:/home/phong/Documents/thesis/stm32f4/stm-idf/components/stm32f4xx_hal_driver/stm32f4xx_hal_dac.c **** /* Exported functions --------------------------------------------------------*/
 243:/home/phong/Documents/thesis/stm32f4/stm-idf/components/stm32f4xx_hal_driver/stm32f4xx_hal_dac.c **** /** @defgroup DAC_Exported_Functions DAC Exported Functions
 244:/home/phong/Documents/thesis/stm32f4/stm-idf/components/stm32f4xx_hal_driver/stm32f4xx_hal_dac.c ****   * @{
 245:/home/phong/Documents/thesis/stm32f4/stm-idf/components/stm32f4xx_hal_driver/stm32f4xx_hal_dac.c ****   */
 246:/home/phong/Documents/thesis/stm32f4/stm-idf/components/stm32f4xx_hal_driver/stm32f4xx_hal_dac.c **** 
 247:/home/phong/Documents/thesis/stm32f4/stm-idf/components/stm32f4xx_hal_driver/stm32f4xx_hal_dac.c **** /** @defgroup DAC_Exported_Functions_Group1 Initialization and de-initialization functions 
 248:/home/phong/Documents/thesis/stm32f4/stm-idf/components/stm32f4xx_hal_driver/stm32f4xx_hal_dac.c ****  *  @brief    Initialization and Configuration functions 
 249:/home/phong/Documents/thesis/stm32f4/stm-idf/components/stm32f4xx_hal_driver/stm32f4xx_hal_dac.c ****  *
 250:/home/phong/Documents/thesis/stm32f4/stm-idf/components/stm32f4xx_hal_driver/stm32f4xx_hal_dac.c **** @verbatim    
 251:/home/phong/Documents/thesis/stm32f4/stm-idf/components/stm32f4xx_hal_driver/stm32f4xx_hal_dac.c ****   ==============================================================================
 252:/home/phong/Documents/thesis/stm32f4/stm-idf/components/stm32f4xx_hal_driver/stm32f4xx_hal_dac.c ****               ##### Initialization and de-initialization functions #####
 253:/home/phong/Documents/thesis/stm32f4/stm-idf/components/stm32f4xx_hal_driver/stm32f4xx_hal_dac.c ****   ==============================================================================
 254:/home/phong/Documents/thesis/stm32f4/stm-idf/components/stm32f4xx_hal_driver/stm32f4xx_hal_dac.c ****     [..]  This section provides functions allowing to:
 255:/home/phong/Documents/thesis/stm32f4/stm-idf/components/stm32f4xx_hal_driver/stm32f4xx_hal_dac.c ****       (+) Initialize and configure the DAC. 
 256:/home/phong/Documents/thesis/stm32f4/stm-idf/components/stm32f4xx_hal_driver/stm32f4xx_hal_dac.c ****       (+) De-initialize the DAC. 
 257:/home/phong/Documents/thesis/stm32f4/stm-idf/components/stm32f4xx_hal_driver/stm32f4xx_hal_dac.c ****          
 258:/home/phong/Documents/thesis/stm32f4/stm-idf/components/stm32f4xx_hal_driver/stm32f4xx_hal_dac.c **** @endverbatim
 259:/home/phong/Documents/thesis/stm32f4/stm-idf/components/stm32f4xx_hal_driver/stm32f4xx_hal_dac.c ****   * @{
ARM GAS  /tmp/cc6S1L6Q.s 			page 6


 260:/home/phong/Documents/thesis/stm32f4/stm-idf/components/stm32f4xx_hal_driver/stm32f4xx_hal_dac.c ****   */
 261:/home/phong/Documents/thesis/stm32f4/stm-idf/components/stm32f4xx_hal_driver/stm32f4xx_hal_dac.c **** 
 262:/home/phong/Documents/thesis/stm32f4/stm-idf/components/stm32f4xx_hal_driver/stm32f4xx_hal_dac.c **** /**
 263:/home/phong/Documents/thesis/stm32f4/stm-idf/components/stm32f4xx_hal_driver/stm32f4xx_hal_dac.c ****   * @brief  Initializes the DAC peripheral according to the specified parameters
 264:/home/phong/Documents/thesis/stm32f4/stm-idf/components/stm32f4xx_hal_driver/stm32f4xx_hal_dac.c ****   *         in the DAC_InitStruct.
 265:/home/phong/Documents/thesis/stm32f4/stm-idf/components/stm32f4xx_hal_driver/stm32f4xx_hal_dac.c ****   * @param  hdac pointer to a DAC_HandleTypeDef structure that contains
 266:/home/phong/Documents/thesis/stm32f4/stm-idf/components/stm32f4xx_hal_driver/stm32f4xx_hal_dac.c ****   *         the configuration information for the specified DAC.
 267:/home/phong/Documents/thesis/stm32f4/stm-idf/components/stm32f4xx_hal_driver/stm32f4xx_hal_dac.c ****   * @retval HAL status
 268:/home/phong/Documents/thesis/stm32f4/stm-idf/components/stm32f4xx_hal_driver/stm32f4xx_hal_dac.c ****   */
 269:/home/phong/Documents/thesis/stm32f4/stm-idf/components/stm32f4xx_hal_driver/stm32f4xx_hal_dac.c **** HAL_StatusTypeDef HAL_DAC_Init(DAC_HandleTypeDef* hdac)
 270:/home/phong/Documents/thesis/stm32f4/stm-idf/components/stm32f4xx_hal_driver/stm32f4xx_hal_dac.c **** { 
 271:/home/phong/Documents/thesis/stm32f4/stm-idf/components/stm32f4xx_hal_driver/stm32f4xx_hal_dac.c ****   /* Check DAC handle */
 272:/home/phong/Documents/thesis/stm32f4/stm-idf/components/stm32f4xx_hal_driver/stm32f4xx_hal_dac.c ****   if(hdac == NULL)
 273:/home/phong/Documents/thesis/stm32f4/stm-idf/components/stm32f4xx_hal_driver/stm32f4xx_hal_dac.c ****   {
 274:/home/phong/Documents/thesis/stm32f4/stm-idf/components/stm32f4xx_hal_driver/stm32f4xx_hal_dac.c ****      return HAL_ERROR;
 275:/home/phong/Documents/thesis/stm32f4/stm-idf/components/stm32f4xx_hal_driver/stm32f4xx_hal_dac.c ****   }
 276:/home/phong/Documents/thesis/stm32f4/stm-idf/components/stm32f4xx_hal_driver/stm32f4xx_hal_dac.c ****   /* Check the parameters */
 277:/home/phong/Documents/thesis/stm32f4/stm-idf/components/stm32f4xx_hal_driver/stm32f4xx_hal_dac.c ****   assert_param(IS_DAC_ALL_INSTANCE(hdac->Instance));
 278:/home/phong/Documents/thesis/stm32f4/stm-idf/components/stm32f4xx_hal_driver/stm32f4xx_hal_dac.c ****   
 279:/home/phong/Documents/thesis/stm32f4/stm-idf/components/stm32f4xx_hal_driver/stm32f4xx_hal_dac.c ****   if(hdac->State == HAL_DAC_STATE_RESET)
 280:/home/phong/Documents/thesis/stm32f4/stm-idf/components/stm32f4xx_hal_driver/stm32f4xx_hal_dac.c ****   {  
 281:/home/phong/Documents/thesis/stm32f4/stm-idf/components/stm32f4xx_hal_driver/stm32f4xx_hal_dac.c **** #if (USE_HAL_DAC_REGISTER_CALLBACKS == 1)
 282:/home/phong/Documents/thesis/stm32f4/stm-idf/components/stm32f4xx_hal_driver/stm32f4xx_hal_dac.c ****     /* Init the DAC Callback settings */
 283:/home/phong/Documents/thesis/stm32f4/stm-idf/components/stm32f4xx_hal_driver/stm32f4xx_hal_dac.c ****     hdac->ConvCpltCallbackCh1           = HAL_DAC_ConvCpltCallbackCh1;
 284:/home/phong/Documents/thesis/stm32f4/stm-idf/components/stm32f4xx_hal_driver/stm32f4xx_hal_dac.c ****     hdac->ConvHalfCpltCallbackCh1       = HAL_DAC_ConvHalfCpltCallbackCh1;
 285:/home/phong/Documents/thesis/stm32f4/stm-idf/components/stm32f4xx_hal_driver/stm32f4xx_hal_dac.c ****     hdac->ErrorCallbackCh1              = HAL_DAC_ErrorCallbackCh1;
 286:/home/phong/Documents/thesis/stm32f4/stm-idf/components/stm32f4xx_hal_driver/stm32f4xx_hal_dac.c ****     hdac->DMAUnderrunCallbackCh1        = HAL_DAC_DMAUnderrunCallbackCh1;
 287:/home/phong/Documents/thesis/stm32f4/stm-idf/components/stm32f4xx_hal_driver/stm32f4xx_hal_dac.c **** 
 288:/home/phong/Documents/thesis/stm32f4/stm-idf/components/stm32f4xx_hal_driver/stm32f4xx_hal_dac.c ****     hdac->ConvCpltCallbackCh2           = HAL_DACEx_ConvCpltCallbackCh2;
 289:/home/phong/Documents/thesis/stm32f4/stm-idf/components/stm32f4xx_hal_driver/stm32f4xx_hal_dac.c ****     hdac->ConvHalfCpltCallbackCh2       = HAL_DACEx_ConvHalfCpltCallbackCh2;
 290:/home/phong/Documents/thesis/stm32f4/stm-idf/components/stm32f4xx_hal_driver/stm32f4xx_hal_dac.c ****     hdac->ErrorCallbackCh2              = HAL_DACEx_ErrorCallbackCh2;
 291:/home/phong/Documents/thesis/stm32f4/stm-idf/components/stm32f4xx_hal_driver/stm32f4xx_hal_dac.c ****     hdac->DMAUnderrunCallbackCh2        = HAL_DACEx_DMAUnderrunCallbackCh2;
 292:/home/phong/Documents/thesis/stm32f4/stm-idf/components/stm32f4xx_hal_driver/stm32f4xx_hal_dac.c **** 
 293:/home/phong/Documents/thesis/stm32f4/stm-idf/components/stm32f4xx_hal_driver/stm32f4xx_hal_dac.c ****     if(hdac->MspInitCallback == NULL)
 294:/home/phong/Documents/thesis/stm32f4/stm-idf/components/stm32f4xx_hal_driver/stm32f4xx_hal_dac.c ****     {
 295:/home/phong/Documents/thesis/stm32f4/stm-idf/components/stm32f4xx_hal_driver/stm32f4xx_hal_dac.c ****       hdac->MspInitCallback               = HAL_DAC_MspInit;
 296:/home/phong/Documents/thesis/stm32f4/stm-idf/components/stm32f4xx_hal_driver/stm32f4xx_hal_dac.c ****     }
 297:/home/phong/Documents/thesis/stm32f4/stm-idf/components/stm32f4xx_hal_driver/stm32f4xx_hal_dac.c **** #endif /* USE_HAL_DAC_REGISTER_CALLBACKS */
 298:/home/phong/Documents/thesis/stm32f4/stm-idf/components/stm32f4xx_hal_driver/stm32f4xx_hal_dac.c ****     /* Allocate lock resource and initialize it */
 299:/home/phong/Documents/thesis/stm32f4/stm-idf/components/stm32f4xx_hal_driver/stm32f4xx_hal_dac.c ****     hdac->Lock = HAL_UNLOCKED;
 300:/home/phong/Documents/thesis/stm32f4/stm-idf/components/stm32f4xx_hal_driver/stm32f4xx_hal_dac.c **** #if (USE_HAL_DAC_REGISTER_CALLBACKS == 1)
 301:/home/phong/Documents/thesis/stm32f4/stm-idf/components/stm32f4xx_hal_driver/stm32f4xx_hal_dac.c ****     /* Init the low level hardware */
 302:/home/phong/Documents/thesis/stm32f4/stm-idf/components/stm32f4xx_hal_driver/stm32f4xx_hal_dac.c ****     hdac->MspInitCallback(hdac);
 303:/home/phong/Documents/thesis/stm32f4/stm-idf/components/stm32f4xx_hal_driver/stm32f4xx_hal_dac.c **** #else
 304:/home/phong/Documents/thesis/stm32f4/stm-idf/components/stm32f4xx_hal_driver/stm32f4xx_hal_dac.c ****     /* Init the low level hardware */
 305:/home/phong/Documents/thesis/stm32f4/stm-idf/components/stm32f4xx_hal_driver/stm32f4xx_hal_dac.c ****     HAL_DAC_MspInit(hdac);
 306:/home/phong/Documents/thesis/stm32f4/stm-idf/components/stm32f4xx_hal_driver/stm32f4xx_hal_dac.c **** #endif /* USE_HAL_DAC_REGISTER_CALLBACKS */
 307:/home/phong/Documents/thesis/stm32f4/stm-idf/components/stm32f4xx_hal_driver/stm32f4xx_hal_dac.c ****   }
 308:/home/phong/Documents/thesis/stm32f4/stm-idf/components/stm32f4xx_hal_driver/stm32f4xx_hal_dac.c ****   
 309:/home/phong/Documents/thesis/stm32f4/stm-idf/components/stm32f4xx_hal_driver/stm32f4xx_hal_dac.c ****   /* Initialize the DAC state*/
 310:/home/phong/Documents/thesis/stm32f4/stm-idf/components/stm32f4xx_hal_driver/stm32f4xx_hal_dac.c ****   hdac->State = HAL_DAC_STATE_BUSY;
 311:/home/phong/Documents/thesis/stm32f4/stm-idf/components/stm32f4xx_hal_driver/stm32f4xx_hal_dac.c ****   
 312:/home/phong/Documents/thesis/stm32f4/stm-idf/components/stm32f4xx_hal_driver/stm32f4xx_hal_dac.c ****   /* Set DAC error code to none */
 313:/home/phong/Documents/thesis/stm32f4/stm-idf/components/stm32f4xx_hal_driver/stm32f4xx_hal_dac.c ****   hdac->ErrorCode = HAL_DAC_ERROR_NONE;
 314:/home/phong/Documents/thesis/stm32f4/stm-idf/components/stm32f4xx_hal_driver/stm32f4xx_hal_dac.c ****   
 315:/home/phong/Documents/thesis/stm32f4/stm-idf/components/stm32f4xx_hal_driver/stm32f4xx_hal_dac.c ****   /* Initialize the DAC state*/
 316:/home/phong/Documents/thesis/stm32f4/stm-idf/components/stm32f4xx_hal_driver/stm32f4xx_hal_dac.c ****   hdac->State = HAL_DAC_STATE_READY;
ARM GAS  /tmp/cc6S1L6Q.s 			page 7


 317:/home/phong/Documents/thesis/stm32f4/stm-idf/components/stm32f4xx_hal_driver/stm32f4xx_hal_dac.c ****   
 318:/home/phong/Documents/thesis/stm32f4/stm-idf/components/stm32f4xx_hal_driver/stm32f4xx_hal_dac.c ****   /* Return function status */
 319:/home/phong/Documents/thesis/stm32f4/stm-idf/components/stm32f4xx_hal_driver/stm32f4xx_hal_dac.c ****   return HAL_OK;
 320:/home/phong/Documents/thesis/stm32f4/stm-idf/components/stm32f4xx_hal_driver/stm32f4xx_hal_dac.c **** }
 321:/home/phong/Documents/thesis/stm32f4/stm-idf/components/stm32f4xx_hal_driver/stm32f4xx_hal_dac.c **** 
 322:/home/phong/Documents/thesis/stm32f4/stm-idf/components/stm32f4xx_hal_driver/stm32f4xx_hal_dac.c **** /**
 323:/home/phong/Documents/thesis/stm32f4/stm-idf/components/stm32f4xx_hal_driver/stm32f4xx_hal_dac.c ****   * @brief  Deinitializes the DAC peripheral registers to their default reset values.
 324:/home/phong/Documents/thesis/stm32f4/stm-idf/components/stm32f4xx_hal_driver/stm32f4xx_hal_dac.c ****   * @param  hdac pointer to a DAC_HandleTypeDef structure that contains
 325:/home/phong/Documents/thesis/stm32f4/stm-idf/components/stm32f4xx_hal_driver/stm32f4xx_hal_dac.c ****   *         the configuration information for the specified DAC.
 326:/home/phong/Documents/thesis/stm32f4/stm-idf/components/stm32f4xx_hal_driver/stm32f4xx_hal_dac.c ****   * @retval HAL status
 327:/home/phong/Documents/thesis/stm32f4/stm-idf/components/stm32f4xx_hal_driver/stm32f4xx_hal_dac.c ****   */
 328:/home/phong/Documents/thesis/stm32f4/stm-idf/components/stm32f4xx_hal_driver/stm32f4xx_hal_dac.c **** HAL_StatusTypeDef HAL_DAC_DeInit(DAC_HandleTypeDef* hdac)
 329:/home/phong/Documents/thesis/stm32f4/stm-idf/components/stm32f4xx_hal_driver/stm32f4xx_hal_dac.c **** {
 330:/home/phong/Documents/thesis/stm32f4/stm-idf/components/stm32f4xx_hal_driver/stm32f4xx_hal_dac.c ****   /* Check DAC handle */
 331:/home/phong/Documents/thesis/stm32f4/stm-idf/components/stm32f4xx_hal_driver/stm32f4xx_hal_dac.c ****   if(hdac == NULL)
 332:/home/phong/Documents/thesis/stm32f4/stm-idf/components/stm32f4xx_hal_driver/stm32f4xx_hal_dac.c ****   {
 333:/home/phong/Documents/thesis/stm32f4/stm-idf/components/stm32f4xx_hal_driver/stm32f4xx_hal_dac.c ****      return HAL_ERROR;
 334:/home/phong/Documents/thesis/stm32f4/stm-idf/components/stm32f4xx_hal_driver/stm32f4xx_hal_dac.c ****   }
 335:/home/phong/Documents/thesis/stm32f4/stm-idf/components/stm32f4xx_hal_driver/stm32f4xx_hal_dac.c **** 
 336:/home/phong/Documents/thesis/stm32f4/stm-idf/components/stm32f4xx_hal_driver/stm32f4xx_hal_dac.c ****   /* Check the parameters */
 337:/home/phong/Documents/thesis/stm32f4/stm-idf/components/stm32f4xx_hal_driver/stm32f4xx_hal_dac.c ****   assert_param(IS_DAC_ALL_INSTANCE(hdac->Instance));
 338:/home/phong/Documents/thesis/stm32f4/stm-idf/components/stm32f4xx_hal_driver/stm32f4xx_hal_dac.c **** 
 339:/home/phong/Documents/thesis/stm32f4/stm-idf/components/stm32f4xx_hal_driver/stm32f4xx_hal_dac.c ****   /* Change DAC state */
 340:/home/phong/Documents/thesis/stm32f4/stm-idf/components/stm32f4xx_hal_driver/stm32f4xx_hal_dac.c ****   hdac->State = HAL_DAC_STATE_BUSY;
 341:/home/phong/Documents/thesis/stm32f4/stm-idf/components/stm32f4xx_hal_driver/stm32f4xx_hal_dac.c **** 
 342:/home/phong/Documents/thesis/stm32f4/stm-idf/components/stm32f4xx_hal_driver/stm32f4xx_hal_dac.c **** #if (USE_HAL_DAC_REGISTER_CALLBACKS == 1)
 343:/home/phong/Documents/thesis/stm32f4/stm-idf/components/stm32f4xx_hal_driver/stm32f4xx_hal_dac.c ****   if(hdac->MspDeInitCallback == NULL)
 344:/home/phong/Documents/thesis/stm32f4/stm-idf/components/stm32f4xx_hal_driver/stm32f4xx_hal_dac.c ****   {
 345:/home/phong/Documents/thesis/stm32f4/stm-idf/components/stm32f4xx_hal_driver/stm32f4xx_hal_dac.c ****     hdac->MspDeInitCallback = HAL_DAC_MspDeInit;
 346:/home/phong/Documents/thesis/stm32f4/stm-idf/components/stm32f4xx_hal_driver/stm32f4xx_hal_dac.c ****   }
 347:/home/phong/Documents/thesis/stm32f4/stm-idf/components/stm32f4xx_hal_driver/stm32f4xx_hal_dac.c ****   /* DeInit the low level hardware */
 348:/home/phong/Documents/thesis/stm32f4/stm-idf/components/stm32f4xx_hal_driver/stm32f4xx_hal_dac.c ****   hdac->MspDeInitCallback(hdac);
 349:/home/phong/Documents/thesis/stm32f4/stm-idf/components/stm32f4xx_hal_driver/stm32f4xx_hal_dac.c **** #else
 350:/home/phong/Documents/thesis/stm32f4/stm-idf/components/stm32f4xx_hal_driver/stm32f4xx_hal_dac.c ****   /* DeInit the low level hardware */
 351:/home/phong/Documents/thesis/stm32f4/stm-idf/components/stm32f4xx_hal_driver/stm32f4xx_hal_dac.c ****   HAL_DAC_MspDeInit(hdac);
 352:/home/phong/Documents/thesis/stm32f4/stm-idf/components/stm32f4xx_hal_driver/stm32f4xx_hal_dac.c **** #endif /* USE_HAL_DAC_REGISTER_CALLBACKS */
 353:/home/phong/Documents/thesis/stm32f4/stm-idf/components/stm32f4xx_hal_driver/stm32f4xx_hal_dac.c **** 
 354:/home/phong/Documents/thesis/stm32f4/stm-idf/components/stm32f4xx_hal_driver/stm32f4xx_hal_dac.c ****   /* Set DAC error code to none */
 355:/home/phong/Documents/thesis/stm32f4/stm-idf/components/stm32f4xx_hal_driver/stm32f4xx_hal_dac.c ****   hdac->ErrorCode = HAL_DAC_ERROR_NONE;
 356:/home/phong/Documents/thesis/stm32f4/stm-idf/components/stm32f4xx_hal_driver/stm32f4xx_hal_dac.c **** 
 357:/home/phong/Documents/thesis/stm32f4/stm-idf/components/stm32f4xx_hal_driver/stm32f4xx_hal_dac.c ****   /* Change DAC state */
 358:/home/phong/Documents/thesis/stm32f4/stm-idf/components/stm32f4xx_hal_driver/stm32f4xx_hal_dac.c ****   hdac->State = HAL_DAC_STATE_RESET;
 359:/home/phong/Documents/thesis/stm32f4/stm-idf/components/stm32f4xx_hal_driver/stm32f4xx_hal_dac.c **** 
 360:/home/phong/Documents/thesis/stm32f4/stm-idf/components/stm32f4xx_hal_driver/stm32f4xx_hal_dac.c ****   /* Release Lock */
 361:/home/phong/Documents/thesis/stm32f4/stm-idf/components/stm32f4xx_hal_driver/stm32f4xx_hal_dac.c ****   __HAL_UNLOCK(hdac);
 362:/home/phong/Documents/thesis/stm32f4/stm-idf/components/stm32f4xx_hal_driver/stm32f4xx_hal_dac.c **** 
 363:/home/phong/Documents/thesis/stm32f4/stm-idf/components/stm32f4xx_hal_driver/stm32f4xx_hal_dac.c ****   /* Return function status */
 364:/home/phong/Documents/thesis/stm32f4/stm-idf/components/stm32f4xx_hal_driver/stm32f4xx_hal_dac.c ****   return HAL_OK;
 365:/home/phong/Documents/thesis/stm32f4/stm-idf/components/stm32f4xx_hal_driver/stm32f4xx_hal_dac.c **** }
 366:/home/phong/Documents/thesis/stm32f4/stm-idf/components/stm32f4xx_hal_driver/stm32f4xx_hal_dac.c **** 
 367:/home/phong/Documents/thesis/stm32f4/stm-idf/components/stm32f4xx_hal_driver/stm32f4xx_hal_dac.c **** /**
 368:/home/phong/Documents/thesis/stm32f4/stm-idf/components/stm32f4xx_hal_driver/stm32f4xx_hal_dac.c ****   * @brief  Initializes the DAC MSP.
 369:/home/phong/Documents/thesis/stm32f4/stm-idf/components/stm32f4xx_hal_driver/stm32f4xx_hal_dac.c ****   * @param  hdac pointer to a DAC_HandleTypeDef structure that contains
 370:/home/phong/Documents/thesis/stm32f4/stm-idf/components/stm32f4xx_hal_driver/stm32f4xx_hal_dac.c ****   *         the configuration information for the specified DAC.
 371:/home/phong/Documents/thesis/stm32f4/stm-idf/components/stm32f4xx_hal_driver/stm32f4xx_hal_dac.c ****   * @retval None
 372:/home/phong/Documents/thesis/stm32f4/stm-idf/components/stm32f4xx_hal_driver/stm32f4xx_hal_dac.c ****   */
 373:/home/phong/Documents/thesis/stm32f4/stm-idf/components/stm32f4xx_hal_driver/stm32f4xx_hal_dac.c **** __weak void HAL_DAC_MspInit(DAC_HandleTypeDef* hdac)
ARM GAS  /tmp/cc6S1L6Q.s 			page 8


 374:/home/phong/Documents/thesis/stm32f4/stm-idf/components/stm32f4xx_hal_driver/stm32f4xx_hal_dac.c **** {
  28              		.loc 1 374 0
  29              		.cfi_startproc
  30              		@ args = 0, pretend = 0, frame = 0
  31              		@ frame_needed = 0, uses_anonymous_args = 0
  32              		@ link register save eliminated.
  33              	.LVL0:
  34 0000 7047     		bx	lr
  35              		.cfi_endproc
  36              	.LFE132:
  38              		.section	.text.HAL_DAC_Init,"ax",%progbits
  39              		.align	1
  40              		.global	HAL_DAC_Init
  41              		.syntax unified
  42              		.thumb
  43              		.thumb_func
  44              		.fpu fpv4-sp-d16
  46              	HAL_DAC_Init:
  47              	.LFB130:
 270:/home/phong/Documents/thesis/stm32f4/stm-idf/components/stm32f4xx_hal_driver/stm32f4xx_hal_dac.c ****   /* Check DAC handle */
  48              		.loc 1 270 0
  49              		.cfi_startproc
  50              		@ args = 0, pretend = 0, frame = 0
  51              		@ frame_needed = 0, uses_anonymous_args = 0
  52              	.LVL1:
 272:/home/phong/Documents/thesis/stm32f4/stm-idf/components/stm32f4xx_hal_driver/stm32f4xx_hal_dac.c ****   {
  53              		.loc 1 272 0
  54 0000 70B1     		cbz	r0, .L5
 270:/home/phong/Documents/thesis/stm32f4/stm-idf/components/stm32f4xx_hal_driver/stm32f4xx_hal_dac.c ****   /* Check DAC handle */
  55              		.loc 1 270 0
  56 0002 10B5     		push	{r4, lr}
  57              	.LCFI0:
  58              		.cfi_def_cfa_offset 8
  59              		.cfi_offset 4, -8
  60              		.cfi_offset 14, -4
  61 0004 0446     		mov	r4, r0
 279:/home/phong/Documents/thesis/stm32f4/stm-idf/components/stm32f4xx_hal_driver/stm32f4xx_hal_dac.c ****   {  
  62              		.loc 1 279 0
  63 0006 0379     		ldrb	r3, [r0, #4]	@ zero_extendqisi2
  64 0008 33B1     		cbz	r3, .L10
  65              	.LVL2:
  66              	.L4:
 310:/home/phong/Documents/thesis/stm32f4/stm-idf/components/stm32f4xx_hal_driver/stm32f4xx_hal_dac.c ****   
  67              		.loc 1 310 0
  68 000a 0223     		movs	r3, #2
  69 000c 2371     		strb	r3, [r4, #4]
 313:/home/phong/Documents/thesis/stm32f4/stm-idf/components/stm32f4xx_hal_driver/stm32f4xx_hal_dac.c ****   
  70              		.loc 1 313 0
  71 000e 0020     		movs	r0, #0
  72 0010 2061     		str	r0, [r4, #16]
 316:/home/phong/Documents/thesis/stm32f4/stm-idf/components/stm32f4xx_hal_driver/stm32f4xx_hal_dac.c ****   
  73              		.loc 1 316 0
  74 0012 0123     		movs	r3, #1
  75 0014 2371     		strb	r3, [r4, #4]
 319:/home/phong/Documents/thesis/stm32f4/stm-idf/components/stm32f4xx_hal_driver/stm32f4xx_hal_dac.c **** }
  76              		.loc 1 319 0
  77 0016 10BD     		pop	{r4, pc}
ARM GAS  /tmp/cc6S1L6Q.s 			page 9


  78              	.LVL3:
  79              	.L10:
 299:/home/phong/Documents/thesis/stm32f4/stm-idf/components/stm32f4xx_hal_driver/stm32f4xx_hal_dac.c **** #if (USE_HAL_DAC_REGISTER_CALLBACKS == 1)
  80              		.loc 1 299 0
  81 0018 4371     		strb	r3, [r0, #5]
 305:/home/phong/Documents/thesis/stm32f4/stm-idf/components/stm32f4xx_hal_driver/stm32f4xx_hal_dac.c **** #endif /* USE_HAL_DAC_REGISTER_CALLBACKS */
  82              		.loc 1 305 0
  83 001a FFF7FEFF 		bl	HAL_DAC_MspInit
  84              	.LVL4:
  85 001e F4E7     		b	.L4
  86              	.LVL5:
  87              	.L5:
  88              	.LCFI1:
  89              		.cfi_def_cfa_offset 0
  90              		.cfi_restore 4
  91              		.cfi_restore 14
 274:/home/phong/Documents/thesis/stm32f4/stm-idf/components/stm32f4xx_hal_driver/stm32f4xx_hal_dac.c ****   }
  92              		.loc 1 274 0
  93 0020 0120     		movs	r0, #1
  94              	.LVL6:
  95 0022 7047     		bx	lr
  96              		.cfi_endproc
  97              	.LFE130:
  99              		.section	.text.HAL_DAC_MspDeInit,"ax",%progbits
 100              		.align	1
 101              		.weak	HAL_DAC_MspDeInit
 102              		.syntax unified
 103              		.thumb
 104              		.thumb_func
 105              		.fpu fpv4-sp-d16
 107              	HAL_DAC_MspDeInit:
 108              	.LFB133:
 375:/home/phong/Documents/thesis/stm32f4/stm-idf/components/stm32f4xx_hal_driver/stm32f4xx_hal_dac.c ****   /* Prevent unused argument(s) compilation warning */
 376:/home/phong/Documents/thesis/stm32f4/stm-idf/components/stm32f4xx_hal_driver/stm32f4xx_hal_dac.c ****   UNUSED(hdac);
 377:/home/phong/Documents/thesis/stm32f4/stm-idf/components/stm32f4xx_hal_driver/stm32f4xx_hal_dac.c ****   /* NOTE : This function Should not be modified, when the callback is needed,
 378:/home/phong/Documents/thesis/stm32f4/stm-idf/components/stm32f4xx_hal_driver/stm32f4xx_hal_dac.c ****             the HAL_DAC_MspInit could be implemented in the user file
 379:/home/phong/Documents/thesis/stm32f4/stm-idf/components/stm32f4xx_hal_driver/stm32f4xx_hal_dac.c ****    */ 
 380:/home/phong/Documents/thesis/stm32f4/stm-idf/components/stm32f4xx_hal_driver/stm32f4xx_hal_dac.c **** }
 381:/home/phong/Documents/thesis/stm32f4/stm-idf/components/stm32f4xx_hal_driver/stm32f4xx_hal_dac.c **** 
 382:/home/phong/Documents/thesis/stm32f4/stm-idf/components/stm32f4xx_hal_driver/stm32f4xx_hal_dac.c **** /**
 383:/home/phong/Documents/thesis/stm32f4/stm-idf/components/stm32f4xx_hal_driver/stm32f4xx_hal_dac.c ****   * @brief  DeInitializes the DAC MSP.
 384:/home/phong/Documents/thesis/stm32f4/stm-idf/components/stm32f4xx_hal_driver/stm32f4xx_hal_dac.c ****   * @param  hdac pointer to a DAC_HandleTypeDef structure that contains
 385:/home/phong/Documents/thesis/stm32f4/stm-idf/components/stm32f4xx_hal_driver/stm32f4xx_hal_dac.c ****   *         the configuration information for the specified DAC.  
 386:/home/phong/Documents/thesis/stm32f4/stm-idf/components/stm32f4xx_hal_driver/stm32f4xx_hal_dac.c ****   * @retval None
 387:/home/phong/Documents/thesis/stm32f4/stm-idf/components/stm32f4xx_hal_driver/stm32f4xx_hal_dac.c ****   */
 388:/home/phong/Documents/thesis/stm32f4/stm-idf/components/stm32f4xx_hal_driver/stm32f4xx_hal_dac.c **** __weak void HAL_DAC_MspDeInit(DAC_HandleTypeDef* hdac)
 389:/home/phong/Documents/thesis/stm32f4/stm-idf/components/stm32f4xx_hal_driver/stm32f4xx_hal_dac.c **** {
 109              		.loc 1 389 0
 110              		.cfi_startproc
 111              		@ args = 0, pretend = 0, frame = 0
 112              		@ frame_needed = 0, uses_anonymous_args = 0
 113              		@ link register save eliminated.
 114              	.LVL7:
 115 0000 7047     		bx	lr
 116              		.cfi_endproc
 117              	.LFE133:
 119              		.section	.text.HAL_DAC_DeInit,"ax",%progbits
ARM GAS  /tmp/cc6S1L6Q.s 			page 10


 120              		.align	1
 121              		.global	HAL_DAC_DeInit
 122              		.syntax unified
 123              		.thumb
 124              		.thumb_func
 125              		.fpu fpv4-sp-d16
 127              	HAL_DAC_DeInit:
 128              	.LFB131:
 329:/home/phong/Documents/thesis/stm32f4/stm-idf/components/stm32f4xx_hal_driver/stm32f4xx_hal_dac.c ****   /* Check DAC handle */
 129              		.loc 1 329 0
 130              		.cfi_startproc
 131              		@ args = 0, pretend = 0, frame = 0
 132              		@ frame_needed = 0, uses_anonymous_args = 0
 133              	.LVL8:
 331:/home/phong/Documents/thesis/stm32f4/stm-idf/components/stm32f4xx_hal_driver/stm32f4xx_hal_dac.c ****   {
 134              		.loc 1 331 0
 135 0000 50B1     		cbz	r0, .L14
 329:/home/phong/Documents/thesis/stm32f4/stm-idf/components/stm32f4xx_hal_driver/stm32f4xx_hal_dac.c ****   /* Check DAC handle */
 136              		.loc 1 329 0
 137 0002 10B5     		push	{r4, lr}
 138              	.LCFI2:
 139              		.cfi_def_cfa_offset 8
 140              		.cfi_offset 4, -8
 141              		.cfi_offset 14, -4
 142 0004 0446     		mov	r4, r0
 340:/home/phong/Documents/thesis/stm32f4/stm-idf/components/stm32f4xx_hal_driver/stm32f4xx_hal_dac.c **** 
 143              		.loc 1 340 0
 144 0006 0223     		movs	r3, #2
 145 0008 0371     		strb	r3, [r0, #4]
 351:/home/phong/Documents/thesis/stm32f4/stm-idf/components/stm32f4xx_hal_driver/stm32f4xx_hal_dac.c **** #endif /* USE_HAL_DAC_REGISTER_CALLBACKS */
 146              		.loc 1 351 0
 147 000a FFF7FEFF 		bl	HAL_DAC_MspDeInit
 148              	.LVL9:
 355:/home/phong/Documents/thesis/stm32f4/stm-idf/components/stm32f4xx_hal_driver/stm32f4xx_hal_dac.c **** 
 149              		.loc 1 355 0
 150 000e 0020     		movs	r0, #0
 151 0010 2061     		str	r0, [r4, #16]
 358:/home/phong/Documents/thesis/stm32f4/stm-idf/components/stm32f4xx_hal_driver/stm32f4xx_hal_dac.c **** 
 152              		.loc 1 358 0
 153 0012 2071     		strb	r0, [r4, #4]
 361:/home/phong/Documents/thesis/stm32f4/stm-idf/components/stm32f4xx_hal_driver/stm32f4xx_hal_dac.c **** 
 154              		.loc 1 361 0
 155 0014 6071     		strb	r0, [r4, #5]
 364:/home/phong/Documents/thesis/stm32f4/stm-idf/components/stm32f4xx_hal_driver/stm32f4xx_hal_dac.c **** }
 156              		.loc 1 364 0
 157 0016 10BD     		pop	{r4, pc}
 158              	.LVL10:
 159              	.L14:
 160              	.LCFI3:
 161              		.cfi_def_cfa_offset 0
 162              		.cfi_restore 4
 163              		.cfi_restore 14
 333:/home/phong/Documents/thesis/stm32f4/stm-idf/components/stm32f4xx_hal_driver/stm32f4xx_hal_dac.c ****   }
 164              		.loc 1 333 0
 165 0018 0120     		movs	r0, #1
 166              	.LVL11:
 167 001a 7047     		bx	lr
ARM GAS  /tmp/cc6S1L6Q.s 			page 11


 168              		.cfi_endproc
 169              	.LFE131:
 171              		.section	.text.HAL_DAC_Start,"ax",%progbits
 172              		.align	1
 173              		.global	HAL_DAC_Start
 174              		.syntax unified
 175              		.thumb
 176              		.thumb_func
 177              		.fpu fpv4-sp-d16
 179              	HAL_DAC_Start:
 180              	.LFB134:
 390:/home/phong/Documents/thesis/stm32f4/stm-idf/components/stm32f4xx_hal_driver/stm32f4xx_hal_dac.c ****   /* Prevent unused argument(s) compilation warning */
 391:/home/phong/Documents/thesis/stm32f4/stm-idf/components/stm32f4xx_hal_driver/stm32f4xx_hal_dac.c ****   UNUSED(hdac);
 392:/home/phong/Documents/thesis/stm32f4/stm-idf/components/stm32f4xx_hal_driver/stm32f4xx_hal_dac.c ****   /* NOTE : This function Should not be modified, when the callback is needed,
 393:/home/phong/Documents/thesis/stm32f4/stm-idf/components/stm32f4xx_hal_driver/stm32f4xx_hal_dac.c ****             the HAL_DAC_MspDeInit could be implemented in the user file
 394:/home/phong/Documents/thesis/stm32f4/stm-idf/components/stm32f4xx_hal_driver/stm32f4xx_hal_dac.c ****    */ 
 395:/home/phong/Documents/thesis/stm32f4/stm-idf/components/stm32f4xx_hal_driver/stm32f4xx_hal_dac.c **** }
 396:/home/phong/Documents/thesis/stm32f4/stm-idf/components/stm32f4xx_hal_driver/stm32f4xx_hal_dac.c **** 
 397:/home/phong/Documents/thesis/stm32f4/stm-idf/components/stm32f4xx_hal_driver/stm32f4xx_hal_dac.c **** /**
 398:/home/phong/Documents/thesis/stm32f4/stm-idf/components/stm32f4xx_hal_driver/stm32f4xx_hal_dac.c ****   * @}
 399:/home/phong/Documents/thesis/stm32f4/stm-idf/components/stm32f4xx_hal_driver/stm32f4xx_hal_dac.c ****   */
 400:/home/phong/Documents/thesis/stm32f4/stm-idf/components/stm32f4xx_hal_driver/stm32f4xx_hal_dac.c **** 
 401:/home/phong/Documents/thesis/stm32f4/stm-idf/components/stm32f4xx_hal_driver/stm32f4xx_hal_dac.c **** /** @defgroup DAC_Exported_Functions_Group2 IO operation functions
 402:/home/phong/Documents/thesis/stm32f4/stm-idf/components/stm32f4xx_hal_driver/stm32f4xx_hal_dac.c ****  *  @brief    IO operation functions 
 403:/home/phong/Documents/thesis/stm32f4/stm-idf/components/stm32f4xx_hal_driver/stm32f4xx_hal_dac.c ****  *
 404:/home/phong/Documents/thesis/stm32f4/stm-idf/components/stm32f4xx_hal_driver/stm32f4xx_hal_dac.c **** @verbatim   
 405:/home/phong/Documents/thesis/stm32f4/stm-idf/components/stm32f4xx_hal_driver/stm32f4xx_hal_dac.c ****   ==============================================================================
 406:/home/phong/Documents/thesis/stm32f4/stm-idf/components/stm32f4xx_hal_driver/stm32f4xx_hal_dac.c ****              ##### IO operation functions #####
 407:/home/phong/Documents/thesis/stm32f4/stm-idf/components/stm32f4xx_hal_driver/stm32f4xx_hal_dac.c ****   ==============================================================================  
 408:/home/phong/Documents/thesis/stm32f4/stm-idf/components/stm32f4xx_hal_driver/stm32f4xx_hal_dac.c ****     [..]  This section provides functions allowing to:
 409:/home/phong/Documents/thesis/stm32f4/stm-idf/components/stm32f4xx_hal_driver/stm32f4xx_hal_dac.c ****       (+) Start conversion.
 410:/home/phong/Documents/thesis/stm32f4/stm-idf/components/stm32f4xx_hal_driver/stm32f4xx_hal_dac.c ****       (+) Stop conversion.
 411:/home/phong/Documents/thesis/stm32f4/stm-idf/components/stm32f4xx_hal_driver/stm32f4xx_hal_dac.c ****       (+) Start conversion and enable DMA transfer.
 412:/home/phong/Documents/thesis/stm32f4/stm-idf/components/stm32f4xx_hal_driver/stm32f4xx_hal_dac.c ****       (+) Stop conversion and disable DMA transfer.
 413:/home/phong/Documents/thesis/stm32f4/stm-idf/components/stm32f4xx_hal_driver/stm32f4xx_hal_dac.c ****       (+) Get result of conversion.
 414:/home/phong/Documents/thesis/stm32f4/stm-idf/components/stm32f4xx_hal_driver/stm32f4xx_hal_dac.c ****                      
 415:/home/phong/Documents/thesis/stm32f4/stm-idf/components/stm32f4xx_hal_driver/stm32f4xx_hal_dac.c **** @endverbatim
 416:/home/phong/Documents/thesis/stm32f4/stm-idf/components/stm32f4xx_hal_driver/stm32f4xx_hal_dac.c ****   * @{
 417:/home/phong/Documents/thesis/stm32f4/stm-idf/components/stm32f4xx_hal_driver/stm32f4xx_hal_dac.c ****   */
 418:/home/phong/Documents/thesis/stm32f4/stm-idf/components/stm32f4xx_hal_driver/stm32f4xx_hal_dac.c **** 
 419:/home/phong/Documents/thesis/stm32f4/stm-idf/components/stm32f4xx_hal_driver/stm32f4xx_hal_dac.c **** /**
 420:/home/phong/Documents/thesis/stm32f4/stm-idf/components/stm32f4xx_hal_driver/stm32f4xx_hal_dac.c ****   * @brief  Enables DAC and starts conversion of channel.
 421:/home/phong/Documents/thesis/stm32f4/stm-idf/components/stm32f4xx_hal_driver/stm32f4xx_hal_dac.c ****   * @param  hdac pointer to a DAC_HandleTypeDef structure that contains
 422:/home/phong/Documents/thesis/stm32f4/stm-idf/components/stm32f4xx_hal_driver/stm32f4xx_hal_dac.c ****   *         the configuration information for the specified DAC.
 423:/home/phong/Documents/thesis/stm32f4/stm-idf/components/stm32f4xx_hal_driver/stm32f4xx_hal_dac.c ****   * @param  Channel The selected DAC channel. 
 424:/home/phong/Documents/thesis/stm32f4/stm-idf/components/stm32f4xx_hal_driver/stm32f4xx_hal_dac.c ****   *          This parameter can be one of the following values:
 425:/home/phong/Documents/thesis/stm32f4/stm-idf/components/stm32f4xx_hal_driver/stm32f4xx_hal_dac.c ****   *            @arg DAC_CHANNEL_1: DAC Channel1 selected
 426:/home/phong/Documents/thesis/stm32f4/stm-idf/components/stm32f4xx_hal_driver/stm32f4xx_hal_dac.c ****   *            @arg DAC_CHANNEL_2: DAC Channel2 selected
 427:/home/phong/Documents/thesis/stm32f4/stm-idf/components/stm32f4xx_hal_driver/stm32f4xx_hal_dac.c ****   * @retval HAL status
 428:/home/phong/Documents/thesis/stm32f4/stm-idf/components/stm32f4xx_hal_driver/stm32f4xx_hal_dac.c ****   */
 429:/home/phong/Documents/thesis/stm32f4/stm-idf/components/stm32f4xx_hal_driver/stm32f4xx_hal_dac.c **** HAL_StatusTypeDef HAL_DAC_Start(DAC_HandleTypeDef* hdac, uint32_t Channel)
 430:/home/phong/Documents/thesis/stm32f4/stm-idf/components/stm32f4xx_hal_driver/stm32f4xx_hal_dac.c **** {
 181              		.loc 1 430 0
 182              		.cfi_startproc
 183              		@ args = 0, pretend = 0, frame = 0
 184              		@ frame_needed = 0, uses_anonymous_args = 0
 185              		@ link register save eliminated.
ARM GAS  /tmp/cc6S1L6Q.s 			page 12


 186              	.LVL12:
 431:/home/phong/Documents/thesis/stm32f4/stm-idf/components/stm32f4xx_hal_driver/stm32f4xx_hal_dac.c ****   uint32_t tmp1 = 0U, tmp2 = 0U;
 432:/home/phong/Documents/thesis/stm32f4/stm-idf/components/stm32f4xx_hal_driver/stm32f4xx_hal_dac.c ****   
 433:/home/phong/Documents/thesis/stm32f4/stm-idf/components/stm32f4xx_hal_driver/stm32f4xx_hal_dac.c ****   /* Check the parameters */
 434:/home/phong/Documents/thesis/stm32f4/stm-idf/components/stm32f4xx_hal_driver/stm32f4xx_hal_dac.c ****   assert_param(IS_DAC_CHANNEL(Channel));
 435:/home/phong/Documents/thesis/stm32f4/stm-idf/components/stm32f4xx_hal_driver/stm32f4xx_hal_dac.c ****   
 436:/home/phong/Documents/thesis/stm32f4/stm-idf/components/stm32f4xx_hal_driver/stm32f4xx_hal_dac.c ****   /* Process locked */
 437:/home/phong/Documents/thesis/stm32f4/stm-idf/components/stm32f4xx_hal_driver/stm32f4xx_hal_dac.c ****   __HAL_LOCK(hdac);
 187              		.loc 1 437 0
 188 0000 4379     		ldrb	r3, [r0, #5]	@ zero_extendqisi2
 189 0002 012B     		cmp	r3, #1
 190 0004 31D0     		beq	.L23
 430:/home/phong/Documents/thesis/stm32f4/stm-idf/components/stm32f4xx_hal_driver/stm32f4xx_hal_dac.c ****   uint32_t tmp1 = 0U, tmp2 = 0U;
 191              		.loc 1 430 0 discriminator 2
 192 0006 10B4     		push	{r4}
 193              	.LCFI4:
 194              		.cfi_def_cfa_offset 4
 195              		.cfi_offset 4, -4
 196              		.loc 1 437 0 discriminator 2
 197 0008 0123     		movs	r3, #1
 198 000a 4371     		strb	r3, [r0, #5]
 438:/home/phong/Documents/thesis/stm32f4/stm-idf/components/stm32f4xx_hal_driver/stm32f4xx_hal_dac.c ****   
 439:/home/phong/Documents/thesis/stm32f4/stm-idf/components/stm32f4xx_hal_driver/stm32f4xx_hal_dac.c ****   /* Change DAC state */
 440:/home/phong/Documents/thesis/stm32f4/stm-idf/components/stm32f4xx_hal_driver/stm32f4xx_hal_dac.c ****   hdac->State = HAL_DAC_STATE_BUSY;
 199              		.loc 1 440 0 discriminator 2
 200 000c 0222     		movs	r2, #2
 201 000e 0271     		strb	r2, [r0, #4]
 441:/home/phong/Documents/thesis/stm32f4/stm-idf/components/stm32f4xx_hal_driver/stm32f4xx_hal_dac.c ****   
 442:/home/phong/Documents/thesis/stm32f4/stm-idf/components/stm32f4xx_hal_driver/stm32f4xx_hal_dac.c ****   /* Enable the Peripheral */
 443:/home/phong/Documents/thesis/stm32f4/stm-idf/components/stm32f4xx_hal_driver/stm32f4xx_hal_dac.c ****   __HAL_DAC_ENABLE(hdac, Channel);
 202              		.loc 1 443 0 discriminator 2
 203 0010 0468     		ldr	r4, [r0]
 204 0012 2268     		ldr	r2, [r4]
 205 0014 8B40     		lsls	r3, r3, r1
 206 0016 1343     		orrs	r3, r3, r2
 207 0018 2360     		str	r3, [r4]
 444:/home/phong/Documents/thesis/stm32f4/stm-idf/components/stm32f4xx_hal_driver/stm32f4xx_hal_dac.c ****   
 445:/home/phong/Documents/thesis/stm32f4/stm-idf/components/stm32f4xx_hal_driver/stm32f4xx_hal_dac.c ****   if(Channel == DAC_CHANNEL_1)
 208              		.loc 1 445 0 discriminator 2
 209 001a B1B9     		cbnz	r1, .L21
 446:/home/phong/Documents/thesis/stm32f4/stm-idf/components/stm32f4xx_hal_driver/stm32f4xx_hal_dac.c ****   {
 447:/home/phong/Documents/thesis/stm32f4/stm-idf/components/stm32f4xx_hal_driver/stm32f4xx_hal_dac.c ****     tmp1 = hdac->Instance->CR & DAC_CR_TEN1;
 210              		.loc 1 447 0
 211 001c 0268     		ldr	r2, [r0]
 212 001e 1168     		ldr	r1, [r2]
 213              	.LVL13:
 448:/home/phong/Documents/thesis/stm32f4/stm-idf/components/stm32f4xx_hal_driver/stm32f4xx_hal_dac.c ****     tmp2 = hdac->Instance->CR & DAC_CR_TSEL1;
 214              		.loc 1 448 0
 215 0020 1368     		ldr	r3, [r2]
 216 0022 03F03803 		and	r3, r3, #56
 217              	.LVL14:
 449:/home/phong/Documents/thesis/stm32f4/stm-idf/components/stm32f4xx_hal_driver/stm32f4xx_hal_dac.c ****     /* Check if software trigger enabled */
 450:/home/phong/Documents/thesis/stm32f4/stm-idf/components/stm32f4xx_hal_driver/stm32f4xx_hal_dac.c ****     if((tmp1 ==  DAC_CR_TEN1) && (tmp2 ==  DAC_CR_TSEL1))
 218              		.loc 1 450 0
 219 0026 11F0040F 		tst	r1, #4
 220 002a 01D0     		beq	.L22
 221              		.loc 1 450 0 is_stmt 0 discriminator 1
ARM GAS  /tmp/cc6S1L6Q.s 			page 13


 222 002c 382B     		cmp	r3, #56
 223 002e 07D0     		beq	.L28
 224              	.LVL15:
 225              	.L22:
 451:/home/phong/Documents/thesis/stm32f4/stm-idf/components/stm32f4xx_hal_driver/stm32f4xx_hal_dac.c ****     {
 452:/home/phong/Documents/thesis/stm32f4/stm-idf/components/stm32f4xx_hal_driver/stm32f4xx_hal_dac.c ****       /* Enable the selected DAC software conversion */
 453:/home/phong/Documents/thesis/stm32f4/stm-idf/components/stm32f4xx_hal_driver/stm32f4xx_hal_dac.c ****       hdac->Instance->SWTRIGR |= (uint32_t)DAC_SWTRIGR_SWTRIG1;
 454:/home/phong/Documents/thesis/stm32f4/stm-idf/components/stm32f4xx_hal_driver/stm32f4xx_hal_dac.c ****     }
 455:/home/phong/Documents/thesis/stm32f4/stm-idf/components/stm32f4xx_hal_driver/stm32f4xx_hal_dac.c ****   }
 456:/home/phong/Documents/thesis/stm32f4/stm-idf/components/stm32f4xx_hal_driver/stm32f4xx_hal_dac.c ****   else
 457:/home/phong/Documents/thesis/stm32f4/stm-idf/components/stm32f4xx_hal_driver/stm32f4xx_hal_dac.c ****   {
 458:/home/phong/Documents/thesis/stm32f4/stm-idf/components/stm32f4xx_hal_driver/stm32f4xx_hal_dac.c ****     tmp1 = hdac->Instance->CR & DAC_CR_TEN2;
 459:/home/phong/Documents/thesis/stm32f4/stm-idf/components/stm32f4xx_hal_driver/stm32f4xx_hal_dac.c ****     tmp2 = hdac->Instance->CR & DAC_CR_TSEL2;    
 460:/home/phong/Documents/thesis/stm32f4/stm-idf/components/stm32f4xx_hal_driver/stm32f4xx_hal_dac.c ****     /* Check if software trigger enabled */
 461:/home/phong/Documents/thesis/stm32f4/stm-idf/components/stm32f4xx_hal_driver/stm32f4xx_hal_dac.c ****     if((tmp1 == DAC_CR_TEN2) && (tmp2 == DAC_CR_TSEL2))
 462:/home/phong/Documents/thesis/stm32f4/stm-idf/components/stm32f4xx_hal_driver/stm32f4xx_hal_dac.c ****     {
 463:/home/phong/Documents/thesis/stm32f4/stm-idf/components/stm32f4xx_hal_driver/stm32f4xx_hal_dac.c ****       /* Enable the selected DAC software conversion*/
 464:/home/phong/Documents/thesis/stm32f4/stm-idf/components/stm32f4xx_hal_driver/stm32f4xx_hal_dac.c ****       hdac->Instance->SWTRIGR |= (uint32_t)DAC_SWTRIGR_SWTRIG2;
 465:/home/phong/Documents/thesis/stm32f4/stm-idf/components/stm32f4xx_hal_driver/stm32f4xx_hal_dac.c ****     }
 466:/home/phong/Documents/thesis/stm32f4/stm-idf/components/stm32f4xx_hal_driver/stm32f4xx_hal_dac.c ****   }
 467:/home/phong/Documents/thesis/stm32f4/stm-idf/components/stm32f4xx_hal_driver/stm32f4xx_hal_dac.c ****   
 468:/home/phong/Documents/thesis/stm32f4/stm-idf/components/stm32f4xx_hal_driver/stm32f4xx_hal_dac.c ****   /* Change DAC state */
 469:/home/phong/Documents/thesis/stm32f4/stm-idf/components/stm32f4xx_hal_driver/stm32f4xx_hal_dac.c ****   hdac->State = HAL_DAC_STATE_READY;
 226              		.loc 1 469 0 is_stmt 1
 227 0030 0123     		movs	r3, #1
 228 0032 0371     		strb	r3, [r0, #4]
 470:/home/phong/Documents/thesis/stm32f4/stm-idf/components/stm32f4xx_hal_driver/stm32f4xx_hal_dac.c ****   
 471:/home/phong/Documents/thesis/stm32f4/stm-idf/components/stm32f4xx_hal_driver/stm32f4xx_hal_dac.c ****   /* Process unlocked */
 472:/home/phong/Documents/thesis/stm32f4/stm-idf/components/stm32f4xx_hal_driver/stm32f4xx_hal_dac.c ****   __HAL_UNLOCK(hdac);
 229              		.loc 1 472 0
 230 0034 0023     		movs	r3, #0
 231 0036 4371     		strb	r3, [r0, #5]
 473:/home/phong/Documents/thesis/stm32f4/stm-idf/components/stm32f4xx_hal_driver/stm32f4xx_hal_dac.c ****     
 474:/home/phong/Documents/thesis/stm32f4/stm-idf/components/stm32f4xx_hal_driver/stm32f4xx_hal_dac.c ****   /* Return function status */
 475:/home/phong/Documents/thesis/stm32f4/stm-idf/components/stm32f4xx_hal_driver/stm32f4xx_hal_dac.c ****   return HAL_OK;
 232              		.loc 1 475 0
 233 0038 1846     		mov	r0, r3
 234              	.LVL16:
 476:/home/phong/Documents/thesis/stm32f4/stm-idf/components/stm32f4xx_hal_driver/stm32f4xx_hal_dac.c **** }
 235              		.loc 1 476 0
 236 003a 5DF8044B 		ldr	r4, [sp], #4
 237              	.LCFI5:
 238              		.cfi_remember_state
 239              		.cfi_restore 4
 240              		.cfi_def_cfa_offset 0
 241 003e 7047     		bx	lr
 242              	.LVL17:
 243              	.L28:
 244              	.LCFI6:
 245              		.cfi_restore_state
 453:/home/phong/Documents/thesis/stm32f4/stm-idf/components/stm32f4xx_hal_driver/stm32f4xx_hal_dac.c ****     }
 246              		.loc 1 453 0
 247 0040 5368     		ldr	r3, [r2, #4]
 248              	.LVL18:
 249 0042 43F00103 		orr	r3, r3, #1
 250 0046 5360     		str	r3, [r2, #4]
 251 0048 F2E7     		b	.L22
ARM GAS  /tmp/cc6S1L6Q.s 			page 14


 252              	.LVL19:
 253              	.L21:
 458:/home/phong/Documents/thesis/stm32f4/stm-idf/components/stm32f4xx_hal_driver/stm32f4xx_hal_dac.c ****     tmp2 = hdac->Instance->CR & DAC_CR_TSEL2;    
 254              		.loc 1 458 0
 255 004a 0268     		ldr	r2, [r0]
 256 004c 1168     		ldr	r1, [r2]
 257              	.LVL20:
 459:/home/phong/Documents/thesis/stm32f4/stm-idf/components/stm32f4xx_hal_driver/stm32f4xx_hal_dac.c ****     /* Check if software trigger enabled */
 258              		.loc 1 459 0
 259 004e 1368     		ldr	r3, [r2]
 260 0050 03F46013 		and	r3, r3, #3670016
 261              	.LVL21:
 461:/home/phong/Documents/thesis/stm32f4/stm-idf/components/stm32f4xx_hal_driver/stm32f4xx_hal_dac.c ****     {
 262              		.loc 1 461 0
 263 0054 11F4802F 		tst	r1, #262144
 264 0058 EAD0     		beq	.L22
 461:/home/phong/Documents/thesis/stm32f4/stm-idf/components/stm32f4xx_hal_driver/stm32f4xx_hal_dac.c ****     {
 265              		.loc 1 461 0 is_stmt 0 discriminator 1
 266 005a B3F5601F 		cmp	r3, #3670016
 267 005e E7D1     		bne	.L22
 464:/home/phong/Documents/thesis/stm32f4/stm-idf/components/stm32f4xx_hal_driver/stm32f4xx_hal_dac.c ****     }
 268              		.loc 1 464 0 is_stmt 1
 269 0060 5368     		ldr	r3, [r2, #4]
 270              	.LVL22:
 271 0062 43F00203 		orr	r3, r3, #2
 272 0066 5360     		str	r3, [r2, #4]
 273 0068 E2E7     		b	.L22
 274              	.LVL23:
 275              	.L23:
 276              	.LCFI7:
 277              		.cfi_def_cfa_offset 0
 278              		.cfi_restore 4
 437:/home/phong/Documents/thesis/stm32f4/stm-idf/components/stm32f4xx_hal_driver/stm32f4xx_hal_dac.c ****   
 279              		.loc 1 437 0
 280 006a 0220     		movs	r0, #2
 281              	.LVL24:
 282 006c 7047     		bx	lr
 283              		.cfi_endproc
 284              	.LFE134:
 286              		.section	.text.HAL_DAC_Stop,"ax",%progbits
 287              		.align	1
 288              		.global	HAL_DAC_Stop
 289              		.syntax unified
 290              		.thumb
 291              		.thumb_func
 292              		.fpu fpv4-sp-d16
 294              	HAL_DAC_Stop:
 295              	.LFB135:
 477:/home/phong/Documents/thesis/stm32f4/stm-idf/components/stm32f4xx_hal_driver/stm32f4xx_hal_dac.c **** 
 478:/home/phong/Documents/thesis/stm32f4/stm-idf/components/stm32f4xx_hal_driver/stm32f4xx_hal_dac.c **** /**
 479:/home/phong/Documents/thesis/stm32f4/stm-idf/components/stm32f4xx_hal_driver/stm32f4xx_hal_dac.c ****   * @brief  Disables DAC and stop conversion of channel.
 480:/home/phong/Documents/thesis/stm32f4/stm-idf/components/stm32f4xx_hal_driver/stm32f4xx_hal_dac.c ****   * @param  hdac pointer to a DAC_HandleTypeDef structure that contains
 481:/home/phong/Documents/thesis/stm32f4/stm-idf/components/stm32f4xx_hal_driver/stm32f4xx_hal_dac.c ****   *         the configuration information for the specified DAC.
 482:/home/phong/Documents/thesis/stm32f4/stm-idf/components/stm32f4xx_hal_driver/stm32f4xx_hal_dac.c ****   * @param  Channel The selected DAC channel. 
 483:/home/phong/Documents/thesis/stm32f4/stm-idf/components/stm32f4xx_hal_driver/stm32f4xx_hal_dac.c ****   *          This parameter can be one of the following values:
 484:/home/phong/Documents/thesis/stm32f4/stm-idf/components/stm32f4xx_hal_driver/stm32f4xx_hal_dac.c ****   *            @arg DAC_CHANNEL_1: DAC Channel1 selected
 485:/home/phong/Documents/thesis/stm32f4/stm-idf/components/stm32f4xx_hal_driver/stm32f4xx_hal_dac.c ****   *            @arg DAC_CHANNEL_2: DAC Channel2 selected  
ARM GAS  /tmp/cc6S1L6Q.s 			page 15


 486:/home/phong/Documents/thesis/stm32f4/stm-idf/components/stm32f4xx_hal_driver/stm32f4xx_hal_dac.c ****   * @retval HAL status
 487:/home/phong/Documents/thesis/stm32f4/stm-idf/components/stm32f4xx_hal_driver/stm32f4xx_hal_dac.c ****   */
 488:/home/phong/Documents/thesis/stm32f4/stm-idf/components/stm32f4xx_hal_driver/stm32f4xx_hal_dac.c **** HAL_StatusTypeDef HAL_DAC_Stop(DAC_HandleTypeDef* hdac, uint32_t Channel)
 489:/home/phong/Documents/thesis/stm32f4/stm-idf/components/stm32f4xx_hal_driver/stm32f4xx_hal_dac.c **** {
 296              		.loc 1 489 0
 297              		.cfi_startproc
 298              		@ args = 0, pretend = 0, frame = 0
 299              		@ frame_needed = 0, uses_anonymous_args = 0
 300              		@ link register save eliminated.
 301              	.LVL25:
 302 0000 10B4     		push	{r4}
 303              	.LCFI8:
 304              		.cfi_def_cfa_offset 4
 305              		.cfi_offset 4, -4
 490:/home/phong/Documents/thesis/stm32f4/stm-idf/components/stm32f4xx_hal_driver/stm32f4xx_hal_dac.c ****   /* Check the parameters */
 491:/home/phong/Documents/thesis/stm32f4/stm-idf/components/stm32f4xx_hal_driver/stm32f4xx_hal_dac.c ****   assert_param(IS_DAC_CHANNEL(Channel));
 492:/home/phong/Documents/thesis/stm32f4/stm-idf/components/stm32f4xx_hal_driver/stm32f4xx_hal_dac.c ****   
 493:/home/phong/Documents/thesis/stm32f4/stm-idf/components/stm32f4xx_hal_driver/stm32f4xx_hal_dac.c ****   /* Disable the Peripheral */
 494:/home/phong/Documents/thesis/stm32f4/stm-idf/components/stm32f4xx_hal_driver/stm32f4xx_hal_dac.c ****   __HAL_DAC_DISABLE(hdac, Channel);
 306              		.loc 1 494 0
 307 0002 0468     		ldr	r4, [r0]
 308 0004 2368     		ldr	r3, [r4]
 309 0006 0122     		movs	r2, #1
 310 0008 02FA01F1 		lsl	r1, r2, r1
 311              	.LVL26:
 312 000c 23EA0103 		bic	r3, r3, r1
 313 0010 2360     		str	r3, [r4]
 495:/home/phong/Documents/thesis/stm32f4/stm-idf/components/stm32f4xx_hal_driver/stm32f4xx_hal_dac.c ****  
 496:/home/phong/Documents/thesis/stm32f4/stm-idf/components/stm32f4xx_hal_driver/stm32f4xx_hal_dac.c ****   /* Change DAC state */
 497:/home/phong/Documents/thesis/stm32f4/stm-idf/components/stm32f4xx_hal_driver/stm32f4xx_hal_dac.c ****   hdac->State = HAL_DAC_STATE_READY;
 314              		.loc 1 497 0
 315 0012 0271     		strb	r2, [r0, #4]
 498:/home/phong/Documents/thesis/stm32f4/stm-idf/components/stm32f4xx_hal_driver/stm32f4xx_hal_dac.c ****   
 499:/home/phong/Documents/thesis/stm32f4/stm-idf/components/stm32f4xx_hal_driver/stm32f4xx_hal_dac.c ****   /* Return function status */
 500:/home/phong/Documents/thesis/stm32f4/stm-idf/components/stm32f4xx_hal_driver/stm32f4xx_hal_dac.c ****   return HAL_OK;
 501:/home/phong/Documents/thesis/stm32f4/stm-idf/components/stm32f4xx_hal_driver/stm32f4xx_hal_dac.c **** }
 316              		.loc 1 501 0
 317 0014 0020     		movs	r0, #0
 318              	.LVL27:
 319 0016 5DF8044B 		ldr	r4, [sp], #4
 320              	.LCFI9:
 321              		.cfi_restore 4
 322              		.cfi_def_cfa_offset 0
 323 001a 7047     		bx	lr
 324              		.cfi_endproc
 325              	.LFE135:
 327              		.section	.text.HAL_DAC_Start_DMA,"ax",%progbits
 328              		.align	1
 329              		.global	HAL_DAC_Start_DMA
 330              		.syntax unified
 331              		.thumb
 332              		.thumb_func
 333              		.fpu fpv4-sp-d16
 335              	HAL_DAC_Start_DMA:
 336              	.LFB136:
 502:/home/phong/Documents/thesis/stm32f4/stm-idf/components/stm32f4xx_hal_driver/stm32f4xx_hal_dac.c **** 
 503:/home/phong/Documents/thesis/stm32f4/stm-idf/components/stm32f4xx_hal_driver/stm32f4xx_hal_dac.c **** /**
ARM GAS  /tmp/cc6S1L6Q.s 			page 16


 504:/home/phong/Documents/thesis/stm32f4/stm-idf/components/stm32f4xx_hal_driver/stm32f4xx_hal_dac.c ****   * @brief  Enables DAC and starts conversion of channel.
 505:/home/phong/Documents/thesis/stm32f4/stm-idf/components/stm32f4xx_hal_driver/stm32f4xx_hal_dac.c ****   * @param  hdac pointer to a DAC_HandleTypeDef structure that contains
 506:/home/phong/Documents/thesis/stm32f4/stm-idf/components/stm32f4xx_hal_driver/stm32f4xx_hal_dac.c ****   *         the configuration information for the specified DAC.
 507:/home/phong/Documents/thesis/stm32f4/stm-idf/components/stm32f4xx_hal_driver/stm32f4xx_hal_dac.c ****   * @param  Channel The selected DAC channel. 
 508:/home/phong/Documents/thesis/stm32f4/stm-idf/components/stm32f4xx_hal_driver/stm32f4xx_hal_dac.c ****   *          This parameter can be one of the following values:
 509:/home/phong/Documents/thesis/stm32f4/stm-idf/components/stm32f4xx_hal_driver/stm32f4xx_hal_dac.c ****   *            @arg DAC_CHANNEL_1: DAC Channel1 selected
 510:/home/phong/Documents/thesis/stm32f4/stm-idf/components/stm32f4xx_hal_driver/stm32f4xx_hal_dac.c ****   *            @arg DAC_CHANNEL_2: DAC Channel2 selected
 511:/home/phong/Documents/thesis/stm32f4/stm-idf/components/stm32f4xx_hal_driver/stm32f4xx_hal_dac.c ****   * @param  pData The destination peripheral Buffer address.
 512:/home/phong/Documents/thesis/stm32f4/stm-idf/components/stm32f4xx_hal_driver/stm32f4xx_hal_dac.c ****   * @param  Length The length of data to be transferred from memory to DAC peripheral
 513:/home/phong/Documents/thesis/stm32f4/stm-idf/components/stm32f4xx_hal_driver/stm32f4xx_hal_dac.c ****   * @param  Alignment Specifies the data alignment for DAC channel.
 514:/home/phong/Documents/thesis/stm32f4/stm-idf/components/stm32f4xx_hal_driver/stm32f4xx_hal_dac.c ****   *          This parameter can be one of the following values:
 515:/home/phong/Documents/thesis/stm32f4/stm-idf/components/stm32f4xx_hal_driver/stm32f4xx_hal_dac.c ****   *            @arg DAC_ALIGN_8B_R: 8bit right data alignment selected
 516:/home/phong/Documents/thesis/stm32f4/stm-idf/components/stm32f4xx_hal_driver/stm32f4xx_hal_dac.c ****   *            @arg DAC_ALIGN_12B_L: 12bit left data alignment selected
 517:/home/phong/Documents/thesis/stm32f4/stm-idf/components/stm32f4xx_hal_driver/stm32f4xx_hal_dac.c ****   *            @arg DAC_ALIGN_12B_R: 12bit right data alignment selected
 518:/home/phong/Documents/thesis/stm32f4/stm-idf/components/stm32f4xx_hal_driver/stm32f4xx_hal_dac.c ****   * @retval HAL status
 519:/home/phong/Documents/thesis/stm32f4/stm-idf/components/stm32f4xx_hal_driver/stm32f4xx_hal_dac.c ****   */
 520:/home/phong/Documents/thesis/stm32f4/stm-idf/components/stm32f4xx_hal_driver/stm32f4xx_hal_dac.c **** HAL_StatusTypeDef HAL_DAC_Start_DMA(DAC_HandleTypeDef* hdac, uint32_t Channel, uint32_t* pData, uin
 521:/home/phong/Documents/thesis/stm32f4/stm-idf/components/stm32f4xx_hal_driver/stm32f4xx_hal_dac.c **** {
 337              		.loc 1 521 0
 338              		.cfi_startproc
 339              		@ args = 4, pretend = 0, frame = 0
 340              		@ frame_needed = 0, uses_anonymous_args = 0
 341              	.LVL28:
 342 0000 F8B5     		push	{r3, r4, r5, r6, r7, lr}
 343              	.LCFI10:
 344              		.cfi_def_cfa_offset 24
 345              		.cfi_offset 3, -24
 346              		.cfi_offset 4, -20
 347              		.cfi_offset 5, -16
 348              		.cfi_offset 6, -12
 349              		.cfi_offset 7, -8
 350              		.cfi_offset 14, -4
 351 0002 069E     		ldr	r6, [sp, #24]
 352              	.LVL29:
 522:/home/phong/Documents/thesis/stm32f4/stm-idf/components/stm32f4xx_hal_driver/stm32f4xx_hal_dac.c ****   uint32_t tmpreg = 0U;
 523:/home/phong/Documents/thesis/stm32f4/stm-idf/components/stm32f4xx_hal_driver/stm32f4xx_hal_dac.c ****     
 524:/home/phong/Documents/thesis/stm32f4/stm-idf/components/stm32f4xx_hal_driver/stm32f4xx_hal_dac.c ****   /* Check the parameters */
 525:/home/phong/Documents/thesis/stm32f4/stm-idf/components/stm32f4xx_hal_driver/stm32f4xx_hal_dac.c ****   assert_param(IS_DAC_CHANNEL(Channel));
 526:/home/phong/Documents/thesis/stm32f4/stm-idf/components/stm32f4xx_hal_driver/stm32f4xx_hal_dac.c ****   assert_param(IS_DAC_ALIGN(Alignment));
 527:/home/phong/Documents/thesis/stm32f4/stm-idf/components/stm32f4xx_hal_driver/stm32f4xx_hal_dac.c ****   
 528:/home/phong/Documents/thesis/stm32f4/stm-idf/components/stm32f4xx_hal_driver/stm32f4xx_hal_dac.c ****   /* Process locked */
 529:/home/phong/Documents/thesis/stm32f4/stm-idf/components/stm32f4xx_hal_driver/stm32f4xx_hal_dac.c ****   __HAL_LOCK(hdac);
 353              		.loc 1 529 0
 354 0004 4479     		ldrb	r4, [r0, #5]	@ zero_extendqisi2
 355 0006 012C     		cmp	r4, #1
 356 0008 64D0     		beq	.L43
 357              		.loc 1 529 0 is_stmt 0 discriminator 2
 358 000a 0124     		movs	r4, #1
 359 000c 4471     		strb	r4, [r0, #5]
 530:/home/phong/Documents/thesis/stm32f4/stm-idf/components/stm32f4xx_hal_driver/stm32f4xx_hal_dac.c ****   
 531:/home/phong/Documents/thesis/stm32f4/stm-idf/components/stm32f4xx_hal_driver/stm32f4xx_hal_dac.c ****   /* Change DAC state */
 532:/home/phong/Documents/thesis/stm32f4/stm-idf/components/stm32f4xx_hal_driver/stm32f4xx_hal_dac.c ****   hdac->State = HAL_DAC_STATE_BUSY;
 360              		.loc 1 532 0 is_stmt 1 discriminator 2
 361 000e 0224     		movs	r4, #2
 362 0010 0471     		strb	r4, [r0, #4]
 533:/home/phong/Documents/thesis/stm32f4/stm-idf/components/stm32f4xx_hal_driver/stm32f4xx_hal_dac.c **** 
 534:/home/phong/Documents/thesis/stm32f4/stm-idf/components/stm32f4xx_hal_driver/stm32f4xx_hal_dac.c ****   if(Channel == DAC_CHANNEL_1)
ARM GAS  /tmp/cc6S1L6Q.s 			page 17


 363              		.loc 1 534 0 discriminator 2
 364 0012 0029     		cmp	r1, #0
 365 0014 35D1     		bne	.L33
 535:/home/phong/Documents/thesis/stm32f4/stm-idf/components/stm32f4xx_hal_driver/stm32f4xx_hal_dac.c ****   {
 536:/home/phong/Documents/thesis/stm32f4/stm-idf/components/stm32f4xx_hal_driver/stm32f4xx_hal_dac.c ****     /* Set the DMA transfer complete callback for channel1 */
 537:/home/phong/Documents/thesis/stm32f4/stm-idf/components/stm32f4xx_hal_driver/stm32f4xx_hal_dac.c ****     hdac->DMA_Handle1->XferCpltCallback = DAC_DMAConvCpltCh1;
 366              		.loc 1 537 0
 367 0016 8468     		ldr	r4, [r0, #8]
 368 0018 2F4D     		ldr	r5, .L51
 369 001a E563     		str	r5, [r4, #60]
 538:/home/phong/Documents/thesis/stm32f4/stm-idf/components/stm32f4xx_hal_driver/stm32f4xx_hal_dac.c **** 
 539:/home/phong/Documents/thesis/stm32f4/stm-idf/components/stm32f4xx_hal_driver/stm32f4xx_hal_dac.c ****     /* Set the DMA half transfer complete callback for channel1 */
 540:/home/phong/Documents/thesis/stm32f4/stm-idf/components/stm32f4xx_hal_driver/stm32f4xx_hal_dac.c ****     hdac->DMA_Handle1->XferHalfCpltCallback = DAC_DMAHalfConvCpltCh1;
 370              		.loc 1 540 0
 371 001c 8468     		ldr	r4, [r0, #8]
 372 001e 2F4D     		ldr	r5, .L51+4
 373 0020 2564     		str	r5, [r4, #64]
 541:/home/phong/Documents/thesis/stm32f4/stm-idf/components/stm32f4xx_hal_driver/stm32f4xx_hal_dac.c **** 
 542:/home/phong/Documents/thesis/stm32f4/stm-idf/components/stm32f4xx_hal_driver/stm32f4xx_hal_dac.c ****     /* Set the DMA error callback for channel1 */
 543:/home/phong/Documents/thesis/stm32f4/stm-idf/components/stm32f4xx_hal_driver/stm32f4xx_hal_dac.c ****     hdac->DMA_Handle1->XferErrorCallback = DAC_DMAErrorCh1;
 374              		.loc 1 543 0
 375 0022 8468     		ldr	r4, [r0, #8]
 376 0024 2E4D     		ldr	r5, .L51+8
 377 0026 E564     		str	r5, [r4, #76]
 544:/home/phong/Documents/thesis/stm32f4/stm-idf/components/stm32f4xx_hal_driver/stm32f4xx_hal_dac.c **** 
 545:/home/phong/Documents/thesis/stm32f4/stm-idf/components/stm32f4xx_hal_driver/stm32f4xx_hal_dac.c ****     /* Enable the selected DAC channel1 DMA request */
 546:/home/phong/Documents/thesis/stm32f4/stm-idf/components/stm32f4xx_hal_driver/stm32f4xx_hal_dac.c ****     hdac->Instance->CR |= DAC_CR_DMAEN1;
 378              		.loc 1 546 0
 379 0028 0568     		ldr	r5, [r0]
 380 002a 2C68     		ldr	r4, [r5]
 381 002c 44F48054 		orr	r4, r4, #4096
 382 0030 2C60     		str	r4, [r5]
 547:/home/phong/Documents/thesis/stm32f4/stm-idf/components/stm32f4xx_hal_driver/stm32f4xx_hal_dac.c ****     
 548:/home/phong/Documents/thesis/stm32f4/stm-idf/components/stm32f4xx_hal_driver/stm32f4xx_hal_dac.c ****     /* Case of use of channel 1 */
 549:/home/phong/Documents/thesis/stm32f4/stm-idf/components/stm32f4xx_hal_driver/stm32f4xx_hal_dac.c ****     switch(Alignment)
 383              		.loc 1 549 0
 384 0032 042E     		cmp	r6, #4
 385 0034 1FD0     		beq	.L35
 386 0036 082E     		cmp	r6, #8
 387 0038 20D0     		beq	.L36
 388 003a CEB1     		cbz	r6, .L49
 522:/home/phong/Documents/thesis/stm32f4/stm-idf/components/stm32f4xx_hal_driver/stm32f4xx_hal_dac.c ****     
 389              		.loc 1 522 0
 390 003c 0E46     		mov	r6, r1
 391              	.LVL30:
 392              	.L34:
 393 003e 1746     		mov	r7, r2
 394 0040 0D46     		mov	r5, r1
 395 0042 0446     		mov	r4, r0
 396              	.LVL31:
 550:/home/phong/Documents/thesis/stm32f4/stm-idf/components/stm32f4xx_hal_driver/stm32f4xx_hal_dac.c ****     {
 551:/home/phong/Documents/thesis/stm32f4/stm-idf/components/stm32f4xx_hal_driver/stm32f4xx_hal_dac.c ****       case DAC_ALIGN_12B_R:
 552:/home/phong/Documents/thesis/stm32f4/stm-idf/components/stm32f4xx_hal_driver/stm32f4xx_hal_dac.c ****         /* Get DHR12R1 address */
 553:/home/phong/Documents/thesis/stm32f4/stm-idf/components/stm32f4xx_hal_driver/stm32f4xx_hal_dac.c ****         tmpreg = (uint32_t)&hdac->Instance->DHR12R1;
 554:/home/phong/Documents/thesis/stm32f4/stm-idf/components/stm32f4xx_hal_driver/stm32f4xx_hal_dac.c ****         break;
 555:/home/phong/Documents/thesis/stm32f4/stm-idf/components/stm32f4xx_hal_driver/stm32f4xx_hal_dac.c ****       case DAC_ALIGN_12B_L:
 556:/home/phong/Documents/thesis/stm32f4/stm-idf/components/stm32f4xx_hal_driver/stm32f4xx_hal_dac.c ****         /* Get DHR12L1 address */
ARM GAS  /tmp/cc6S1L6Q.s 			page 18


 557:/home/phong/Documents/thesis/stm32f4/stm-idf/components/stm32f4xx_hal_driver/stm32f4xx_hal_dac.c ****         tmpreg = (uint32_t)&hdac->Instance->DHR12L1;
 558:/home/phong/Documents/thesis/stm32f4/stm-idf/components/stm32f4xx_hal_driver/stm32f4xx_hal_dac.c ****         break;
 559:/home/phong/Documents/thesis/stm32f4/stm-idf/components/stm32f4xx_hal_driver/stm32f4xx_hal_dac.c ****       case DAC_ALIGN_8B_R:
 560:/home/phong/Documents/thesis/stm32f4/stm-idf/components/stm32f4xx_hal_driver/stm32f4xx_hal_dac.c ****         /* Get DHR8R1 address */
 561:/home/phong/Documents/thesis/stm32f4/stm-idf/components/stm32f4xx_hal_driver/stm32f4xx_hal_dac.c ****         tmpreg = (uint32_t)&hdac->Instance->DHR8R1;
 562:/home/phong/Documents/thesis/stm32f4/stm-idf/components/stm32f4xx_hal_driver/stm32f4xx_hal_dac.c ****         break;
 563:/home/phong/Documents/thesis/stm32f4/stm-idf/components/stm32f4xx_hal_driver/stm32f4xx_hal_dac.c ****       default:
 564:/home/phong/Documents/thesis/stm32f4/stm-idf/components/stm32f4xx_hal_driver/stm32f4xx_hal_dac.c ****         break;
 565:/home/phong/Documents/thesis/stm32f4/stm-idf/components/stm32f4xx_hal_driver/stm32f4xx_hal_dac.c ****     }
 566:/home/phong/Documents/thesis/stm32f4/stm-idf/components/stm32f4xx_hal_driver/stm32f4xx_hal_dac.c ****   }
 567:/home/phong/Documents/thesis/stm32f4/stm-idf/components/stm32f4xx_hal_driver/stm32f4xx_hal_dac.c ****   else
 568:/home/phong/Documents/thesis/stm32f4/stm-idf/components/stm32f4xx_hal_driver/stm32f4xx_hal_dac.c ****   {
 569:/home/phong/Documents/thesis/stm32f4/stm-idf/components/stm32f4xx_hal_driver/stm32f4xx_hal_dac.c ****     /* Set the DMA transfer complete callback for channel2 */
 570:/home/phong/Documents/thesis/stm32f4/stm-idf/components/stm32f4xx_hal_driver/stm32f4xx_hal_dac.c ****     hdac->DMA_Handle2->XferCpltCallback = DAC_DMAConvCpltCh2;
 571:/home/phong/Documents/thesis/stm32f4/stm-idf/components/stm32f4xx_hal_driver/stm32f4xx_hal_dac.c **** 
 572:/home/phong/Documents/thesis/stm32f4/stm-idf/components/stm32f4xx_hal_driver/stm32f4xx_hal_dac.c ****     /* Set the DMA half transfer complete callback for channel2 */
 573:/home/phong/Documents/thesis/stm32f4/stm-idf/components/stm32f4xx_hal_driver/stm32f4xx_hal_dac.c ****     hdac->DMA_Handle2->XferHalfCpltCallback = DAC_DMAHalfConvCpltCh2;
 574:/home/phong/Documents/thesis/stm32f4/stm-idf/components/stm32f4xx_hal_driver/stm32f4xx_hal_dac.c **** 
 575:/home/phong/Documents/thesis/stm32f4/stm-idf/components/stm32f4xx_hal_driver/stm32f4xx_hal_dac.c ****     /* Set the DMA error callback for channel2 */
 576:/home/phong/Documents/thesis/stm32f4/stm-idf/components/stm32f4xx_hal_driver/stm32f4xx_hal_dac.c ****     hdac->DMA_Handle2->XferErrorCallback = DAC_DMAErrorCh2;
 577:/home/phong/Documents/thesis/stm32f4/stm-idf/components/stm32f4xx_hal_driver/stm32f4xx_hal_dac.c **** 
 578:/home/phong/Documents/thesis/stm32f4/stm-idf/components/stm32f4xx_hal_driver/stm32f4xx_hal_dac.c ****     /* Enable the selected DAC channel2 DMA request */
 579:/home/phong/Documents/thesis/stm32f4/stm-idf/components/stm32f4xx_hal_driver/stm32f4xx_hal_dac.c ****     hdac->Instance->CR |= DAC_CR_DMAEN2;
 580:/home/phong/Documents/thesis/stm32f4/stm-idf/components/stm32f4xx_hal_driver/stm32f4xx_hal_dac.c **** 
 581:/home/phong/Documents/thesis/stm32f4/stm-idf/components/stm32f4xx_hal_driver/stm32f4xx_hal_dac.c ****     /* Case of use of channel 2 */
 582:/home/phong/Documents/thesis/stm32f4/stm-idf/components/stm32f4xx_hal_driver/stm32f4xx_hal_dac.c ****     switch(Alignment)
 583:/home/phong/Documents/thesis/stm32f4/stm-idf/components/stm32f4xx_hal_driver/stm32f4xx_hal_dac.c ****     {
 584:/home/phong/Documents/thesis/stm32f4/stm-idf/components/stm32f4xx_hal_driver/stm32f4xx_hal_dac.c ****       case DAC_ALIGN_12B_R:
 585:/home/phong/Documents/thesis/stm32f4/stm-idf/components/stm32f4xx_hal_driver/stm32f4xx_hal_dac.c ****         /* Get DHR12R2 address */
 586:/home/phong/Documents/thesis/stm32f4/stm-idf/components/stm32f4xx_hal_driver/stm32f4xx_hal_dac.c ****         tmpreg = (uint32_t)&hdac->Instance->DHR12R2;
 587:/home/phong/Documents/thesis/stm32f4/stm-idf/components/stm32f4xx_hal_driver/stm32f4xx_hal_dac.c ****         break;
 588:/home/phong/Documents/thesis/stm32f4/stm-idf/components/stm32f4xx_hal_driver/stm32f4xx_hal_dac.c ****       case DAC_ALIGN_12B_L:
 589:/home/phong/Documents/thesis/stm32f4/stm-idf/components/stm32f4xx_hal_driver/stm32f4xx_hal_dac.c ****         /* Get DHR12L2 address */
 590:/home/phong/Documents/thesis/stm32f4/stm-idf/components/stm32f4xx_hal_driver/stm32f4xx_hal_dac.c ****         tmpreg = (uint32_t)&hdac->Instance->DHR12L2;
 591:/home/phong/Documents/thesis/stm32f4/stm-idf/components/stm32f4xx_hal_driver/stm32f4xx_hal_dac.c ****         break;
 592:/home/phong/Documents/thesis/stm32f4/stm-idf/components/stm32f4xx_hal_driver/stm32f4xx_hal_dac.c ****       case DAC_ALIGN_8B_R:
 593:/home/phong/Documents/thesis/stm32f4/stm-idf/components/stm32f4xx_hal_driver/stm32f4xx_hal_dac.c ****         /* Get DHR8R2 address */
 594:/home/phong/Documents/thesis/stm32f4/stm-idf/components/stm32f4xx_hal_driver/stm32f4xx_hal_dac.c ****         tmpreg = (uint32_t)&hdac->Instance->DHR8R2;
 595:/home/phong/Documents/thesis/stm32f4/stm-idf/components/stm32f4xx_hal_driver/stm32f4xx_hal_dac.c ****         break;
 596:/home/phong/Documents/thesis/stm32f4/stm-idf/components/stm32f4xx_hal_driver/stm32f4xx_hal_dac.c ****       default:
 597:/home/phong/Documents/thesis/stm32f4/stm-idf/components/stm32f4xx_hal_driver/stm32f4xx_hal_dac.c ****         break;
 598:/home/phong/Documents/thesis/stm32f4/stm-idf/components/stm32f4xx_hal_driver/stm32f4xx_hal_dac.c ****     }
 599:/home/phong/Documents/thesis/stm32f4/stm-idf/components/stm32f4xx_hal_driver/stm32f4xx_hal_dac.c ****   }
 600:/home/phong/Documents/thesis/stm32f4/stm-idf/components/stm32f4xx_hal_driver/stm32f4xx_hal_dac.c ****   
 601:/home/phong/Documents/thesis/stm32f4/stm-idf/components/stm32f4xx_hal_driver/stm32f4xx_hal_dac.c ****   /* Enable the DMA Stream */
 602:/home/phong/Documents/thesis/stm32f4/stm-idf/components/stm32f4xx_hal_driver/stm32f4xx_hal_dac.c ****   if(Channel == DAC_CHANNEL_1)
 397              		.loc 1 602 0
 398 0044 0029     		cmp	r1, #0
 399 0046 3AD1     		bne	.L41
 603:/home/phong/Documents/thesis/stm32f4/stm-idf/components/stm32f4xx_hal_driver/stm32f4xx_hal_dac.c ****   {
 604:/home/phong/Documents/thesis/stm32f4/stm-idf/components/stm32f4xx_hal_driver/stm32f4xx_hal_dac.c ****     /* Enable the DAC DMA underrun interrupt */
 605:/home/phong/Documents/thesis/stm32f4/stm-idf/components/stm32f4xx_hal_driver/stm32f4xx_hal_dac.c ****     __HAL_DAC_ENABLE_IT(hdac, DAC_IT_DMAUDR1);
 400              		.loc 1 605 0
 401 0048 0168     		ldr	r1, [r0]
 402              	.LVL32:
 403 004a 0A68     		ldr	r2, [r1]
 404              	.LVL33:
ARM GAS  /tmp/cc6S1L6Q.s 			page 19


 405 004c 42F40052 		orr	r2, r2, #8192
 406 0050 0A60     		str	r2, [r1]
 606:/home/phong/Documents/thesis/stm32f4/stm-idf/components/stm32f4xx_hal_driver/stm32f4xx_hal_dac.c ****     
 607:/home/phong/Documents/thesis/stm32f4/stm-idf/components/stm32f4xx_hal_driver/stm32f4xx_hal_dac.c ****     /* Enable the DMA Stream */
 608:/home/phong/Documents/thesis/stm32f4/stm-idf/components/stm32f4xx_hal_driver/stm32f4xx_hal_dac.c ****     HAL_DMA_Start_IT(hdac->DMA_Handle1, (uint32_t)pData, tmpreg, Length);
 407              		.loc 1 608 0
 408 0052 3246     		mov	r2, r6
 409 0054 3946     		mov	r1, r7
 410 0056 8068     		ldr	r0, [r0, #8]
 411              	.LVL34:
 412 0058 FFF7FEFF 		bl	HAL_DMA_Start_IT
 413              	.LVL35:
 414              	.L42:
 609:/home/phong/Documents/thesis/stm32f4/stm-idf/components/stm32f4xx_hal_driver/stm32f4xx_hal_dac.c ****   } 
 610:/home/phong/Documents/thesis/stm32f4/stm-idf/components/stm32f4xx_hal_driver/stm32f4xx_hal_dac.c ****   else
 611:/home/phong/Documents/thesis/stm32f4/stm-idf/components/stm32f4xx_hal_driver/stm32f4xx_hal_dac.c ****   {
 612:/home/phong/Documents/thesis/stm32f4/stm-idf/components/stm32f4xx_hal_driver/stm32f4xx_hal_dac.c ****     /* Enable the DAC DMA underrun interrupt */
 613:/home/phong/Documents/thesis/stm32f4/stm-idf/components/stm32f4xx_hal_driver/stm32f4xx_hal_dac.c ****     __HAL_DAC_ENABLE_IT(hdac, DAC_IT_DMAUDR2);
 614:/home/phong/Documents/thesis/stm32f4/stm-idf/components/stm32f4xx_hal_driver/stm32f4xx_hal_dac.c ****     
 615:/home/phong/Documents/thesis/stm32f4/stm-idf/components/stm32f4xx_hal_driver/stm32f4xx_hal_dac.c ****     /* Enable the DMA Stream */
 616:/home/phong/Documents/thesis/stm32f4/stm-idf/components/stm32f4xx_hal_driver/stm32f4xx_hal_dac.c ****     HAL_DMA_Start_IT(hdac->DMA_Handle2, (uint32_t)pData, tmpreg, Length);
 617:/home/phong/Documents/thesis/stm32f4/stm-idf/components/stm32f4xx_hal_driver/stm32f4xx_hal_dac.c ****   }
 618:/home/phong/Documents/thesis/stm32f4/stm-idf/components/stm32f4xx_hal_driver/stm32f4xx_hal_dac.c ****   
 619:/home/phong/Documents/thesis/stm32f4/stm-idf/components/stm32f4xx_hal_driver/stm32f4xx_hal_dac.c ****   /* Enable the Peripheral */
 620:/home/phong/Documents/thesis/stm32f4/stm-idf/components/stm32f4xx_hal_driver/stm32f4xx_hal_dac.c ****   __HAL_DAC_ENABLE(hdac, Channel);
 415              		.loc 1 620 0
 416 005c 2268     		ldr	r2, [r4]
 417 005e 1368     		ldr	r3, [r2]
 418 0060 0121     		movs	r1, #1
 419 0062 01FA05F5 		lsl	r5, r1, r5
 420              	.LVL36:
 421 0066 1D43     		orrs	r5, r5, r3
 422 0068 1560     		str	r5, [r2]
 621:/home/phong/Documents/thesis/stm32f4/stm-idf/components/stm32f4xx_hal_driver/stm32f4xx_hal_dac.c ****   
 622:/home/phong/Documents/thesis/stm32f4/stm-idf/components/stm32f4xx_hal_driver/stm32f4xx_hal_dac.c ****   /* Process Unlocked */
 623:/home/phong/Documents/thesis/stm32f4/stm-idf/components/stm32f4xx_hal_driver/stm32f4xx_hal_dac.c ****   __HAL_UNLOCK(hdac);
 423              		.loc 1 623 0
 424 006a 0020     		movs	r0, #0
 425 006c 6071     		strb	r0, [r4, #5]
 624:/home/phong/Documents/thesis/stm32f4/stm-idf/components/stm32f4xx_hal_driver/stm32f4xx_hal_dac.c ****   
 625:/home/phong/Documents/thesis/stm32f4/stm-idf/components/stm32f4xx_hal_driver/stm32f4xx_hal_dac.c ****   /* Return function status */
 626:/home/phong/Documents/thesis/stm32f4/stm-idf/components/stm32f4xx_hal_driver/stm32f4xx_hal_dac.c ****   return HAL_OK;
 426              		.loc 1 626 0
 427 006e F8BD     		pop	{r3, r4, r5, r6, r7, pc}
 428              	.LVL37:
 429              	.L49:
 553:/home/phong/Documents/thesis/stm32f4/stm-idf/components/stm32f4xx_hal_driver/stm32f4xx_hal_dac.c ****         break;
 430              		.loc 1 553 0
 431 0070 0668     		ldr	r6, [r0]
 432 0072 0836     		adds	r6, r6, #8
 433              	.LVL38:
 554:/home/phong/Documents/thesis/stm32f4/stm-idf/components/stm32f4xx_hal_driver/stm32f4xx_hal_dac.c ****       case DAC_ALIGN_12B_L:
 434              		.loc 1 554 0
 435 0074 E3E7     		b	.L34
 436              	.LVL39:
 437              	.L35:
 557:/home/phong/Documents/thesis/stm32f4/stm-idf/components/stm32f4xx_hal_driver/stm32f4xx_hal_dac.c ****         break;
ARM GAS  /tmp/cc6S1L6Q.s 			page 20


 438              		.loc 1 557 0
 439 0076 0668     		ldr	r6, [r0]
 440 0078 0C36     		adds	r6, r6, #12
 441              	.LVL40:
 558:/home/phong/Documents/thesis/stm32f4/stm-idf/components/stm32f4xx_hal_driver/stm32f4xx_hal_dac.c ****       case DAC_ALIGN_8B_R:
 442              		.loc 1 558 0
 443 007a E0E7     		b	.L34
 444              	.LVL41:
 445              	.L36:
 561:/home/phong/Documents/thesis/stm32f4/stm-idf/components/stm32f4xx_hal_driver/stm32f4xx_hal_dac.c ****         break;
 446              		.loc 1 561 0
 447 007c 0668     		ldr	r6, [r0]
 448 007e 1036     		adds	r6, r6, #16
 449              	.LVL42:
 562:/home/phong/Documents/thesis/stm32f4/stm-idf/components/stm32f4xx_hal_driver/stm32f4xx_hal_dac.c ****       default:
 450              		.loc 1 562 0
 451 0080 DDE7     		b	.L34
 452              	.LVL43:
 453              	.L33:
 570:/home/phong/Documents/thesis/stm32f4/stm-idf/components/stm32f4xx_hal_driver/stm32f4xx_hal_dac.c **** 
 454              		.loc 1 570 0
 455 0082 C468     		ldr	r4, [r0, #12]
 456 0084 174D     		ldr	r5, .L51+12
 457 0086 E563     		str	r5, [r4, #60]
 573:/home/phong/Documents/thesis/stm32f4/stm-idf/components/stm32f4xx_hal_driver/stm32f4xx_hal_dac.c **** 
 458              		.loc 1 573 0
 459 0088 C468     		ldr	r4, [r0, #12]
 460 008a 174D     		ldr	r5, .L51+16
 461 008c 2564     		str	r5, [r4, #64]
 576:/home/phong/Documents/thesis/stm32f4/stm-idf/components/stm32f4xx_hal_driver/stm32f4xx_hal_dac.c **** 
 462              		.loc 1 576 0
 463 008e C468     		ldr	r4, [r0, #12]
 464 0090 164D     		ldr	r5, .L51+20
 465 0092 E564     		str	r5, [r4, #76]
 579:/home/phong/Documents/thesis/stm32f4/stm-idf/components/stm32f4xx_hal_driver/stm32f4xx_hal_dac.c **** 
 466              		.loc 1 579 0
 467 0094 0568     		ldr	r5, [r0]
 468 0096 2C68     		ldr	r4, [r5]
 469 0098 44F08054 		orr	r4, r4, #268435456
 470 009c 2C60     		str	r4, [r5]
 582:/home/phong/Documents/thesis/stm32f4/stm-idf/components/stm32f4xx_hal_driver/stm32f4xx_hal_dac.c ****     {
 471              		.loc 1 582 0
 472 009e 042E     		cmp	r6, #4
 473 00a0 07D0     		beq	.L38
 474 00a2 082E     		cmp	r6, #8
 475 00a4 08D0     		beq	.L39
 476 00a6 0EB1     		cbz	r6, .L50
 522:/home/phong/Documents/thesis/stm32f4/stm-idf/components/stm32f4xx_hal_driver/stm32f4xx_hal_dac.c ****     
 477              		.loc 1 522 0
 478 00a8 0026     		movs	r6, #0
 479 00aa C8E7     		b	.L34
 480              	.L50:
 586:/home/phong/Documents/thesis/stm32f4/stm-idf/components/stm32f4xx_hal_driver/stm32f4xx_hal_dac.c ****         break;
 481              		.loc 1 586 0
 482 00ac 0668     		ldr	r6, [r0]
 483 00ae 1436     		adds	r6, r6, #20
 484              	.LVL44:
ARM GAS  /tmp/cc6S1L6Q.s 			page 21


 587:/home/phong/Documents/thesis/stm32f4/stm-idf/components/stm32f4xx_hal_driver/stm32f4xx_hal_dac.c ****       case DAC_ALIGN_12B_L:
 485              		.loc 1 587 0
 486 00b0 C5E7     		b	.L34
 487              	.LVL45:
 488              	.L38:
 590:/home/phong/Documents/thesis/stm32f4/stm-idf/components/stm32f4xx_hal_driver/stm32f4xx_hal_dac.c ****         break;
 489              		.loc 1 590 0
 490 00b2 0668     		ldr	r6, [r0]
 491 00b4 1836     		adds	r6, r6, #24
 492              	.LVL46:
 591:/home/phong/Documents/thesis/stm32f4/stm-idf/components/stm32f4xx_hal_driver/stm32f4xx_hal_dac.c ****       case DAC_ALIGN_8B_R:
 493              		.loc 1 591 0
 494 00b6 C2E7     		b	.L34
 495              	.LVL47:
 496              	.L39:
 594:/home/phong/Documents/thesis/stm32f4/stm-idf/components/stm32f4xx_hal_driver/stm32f4xx_hal_dac.c ****         break;
 497              		.loc 1 594 0
 498 00b8 0668     		ldr	r6, [r0]
 499 00ba 1C36     		adds	r6, r6, #28
 500              	.LVL48:
 595:/home/phong/Documents/thesis/stm32f4/stm-idf/components/stm32f4xx_hal_driver/stm32f4xx_hal_dac.c ****       default:
 501              		.loc 1 595 0
 502 00bc BFE7     		b	.L34
 503              	.L41:
 613:/home/phong/Documents/thesis/stm32f4/stm-idf/components/stm32f4xx_hal_driver/stm32f4xx_hal_dac.c ****     
 504              		.loc 1 613 0
 505 00be 0168     		ldr	r1, [r0]
 506              	.LVL49:
 507 00c0 0A68     		ldr	r2, [r1]
 508              	.LVL50:
 509 00c2 42F00052 		orr	r2, r2, #536870912
 510 00c6 0A60     		str	r2, [r1]
 616:/home/phong/Documents/thesis/stm32f4/stm-idf/components/stm32f4xx_hal_driver/stm32f4xx_hal_dac.c ****   }
 511              		.loc 1 616 0
 512 00c8 3246     		mov	r2, r6
 513 00ca 3946     		mov	r1, r7
 514 00cc C068     		ldr	r0, [r0, #12]
 515              	.LVL51:
 516 00ce FFF7FEFF 		bl	HAL_DMA_Start_IT
 517              	.LVL52:
 518 00d2 C3E7     		b	.L42
 519              	.LVL53:
 520              	.L43:
 529:/home/phong/Documents/thesis/stm32f4/stm-idf/components/stm32f4xx_hal_driver/stm32f4xx_hal_dac.c ****   
 521              		.loc 1 529 0
 522 00d4 0220     		movs	r0, #2
 523              	.LVL54:
 627:/home/phong/Documents/thesis/stm32f4/stm-idf/components/stm32f4xx_hal_driver/stm32f4xx_hal_dac.c **** }
 524              		.loc 1 627 0
 525 00d6 F8BD     		pop	{r3, r4, r5, r6, r7, pc}
 526              	.LVL55:
 527              	.L52:
 528              		.align	2
 529              	.L51:
 530 00d8 00000000 		.word	DAC_DMAConvCpltCh1
 531 00dc 00000000 		.word	DAC_DMAHalfConvCpltCh1
 532 00e0 00000000 		.word	DAC_DMAErrorCh1
ARM GAS  /tmp/cc6S1L6Q.s 			page 22


 533 00e4 00000000 		.word	DAC_DMAConvCpltCh2
 534 00e8 00000000 		.word	DAC_DMAHalfConvCpltCh2
 535 00ec 00000000 		.word	DAC_DMAErrorCh2
 536              		.cfi_endproc
 537              	.LFE136:
 539              		.section	.text.HAL_DAC_Stop_DMA,"ax",%progbits
 540              		.align	1
 541              		.global	HAL_DAC_Stop_DMA
 542              		.syntax unified
 543              		.thumb
 544              		.thumb_func
 545              		.fpu fpv4-sp-d16
 547              	HAL_DAC_Stop_DMA:
 548              	.LFB137:
 628:/home/phong/Documents/thesis/stm32f4/stm-idf/components/stm32f4xx_hal_driver/stm32f4xx_hal_dac.c **** 
 629:/home/phong/Documents/thesis/stm32f4/stm-idf/components/stm32f4xx_hal_driver/stm32f4xx_hal_dac.c **** /**
 630:/home/phong/Documents/thesis/stm32f4/stm-idf/components/stm32f4xx_hal_driver/stm32f4xx_hal_dac.c ****   * @brief  Disables DAC and stop conversion of channel.
 631:/home/phong/Documents/thesis/stm32f4/stm-idf/components/stm32f4xx_hal_driver/stm32f4xx_hal_dac.c ****   * @param  hdac pointer to a DAC_HandleTypeDef structure that contains
 632:/home/phong/Documents/thesis/stm32f4/stm-idf/components/stm32f4xx_hal_driver/stm32f4xx_hal_dac.c ****   *         the configuration information for the specified DAC.
 633:/home/phong/Documents/thesis/stm32f4/stm-idf/components/stm32f4xx_hal_driver/stm32f4xx_hal_dac.c ****   * @param  Channel The selected DAC channel. 
 634:/home/phong/Documents/thesis/stm32f4/stm-idf/components/stm32f4xx_hal_driver/stm32f4xx_hal_dac.c ****   *          This parameter can be one of the following values:
 635:/home/phong/Documents/thesis/stm32f4/stm-idf/components/stm32f4xx_hal_driver/stm32f4xx_hal_dac.c ****   *            @arg DAC_CHANNEL_1: DAC Channel1 selected
 636:/home/phong/Documents/thesis/stm32f4/stm-idf/components/stm32f4xx_hal_driver/stm32f4xx_hal_dac.c ****   *            @arg DAC_CHANNEL_2: DAC Channel2 selected   
 637:/home/phong/Documents/thesis/stm32f4/stm-idf/components/stm32f4xx_hal_driver/stm32f4xx_hal_dac.c ****   * @retval HAL status
 638:/home/phong/Documents/thesis/stm32f4/stm-idf/components/stm32f4xx_hal_driver/stm32f4xx_hal_dac.c ****   */
 639:/home/phong/Documents/thesis/stm32f4/stm-idf/components/stm32f4xx_hal_driver/stm32f4xx_hal_dac.c **** HAL_StatusTypeDef HAL_DAC_Stop_DMA(DAC_HandleTypeDef* hdac, uint32_t Channel)
 640:/home/phong/Documents/thesis/stm32f4/stm-idf/components/stm32f4xx_hal_driver/stm32f4xx_hal_dac.c **** {
 549              		.loc 1 640 0
 550              		.cfi_startproc
 551              		@ args = 0, pretend = 0, frame = 0
 552              		@ frame_needed = 0, uses_anonymous_args = 0
 553              	.LVL56:
 554 0000 10B5     		push	{r4, lr}
 555              	.LCFI11:
 556              		.cfi_def_cfa_offset 8
 557              		.cfi_offset 4, -8
 558              		.cfi_offset 14, -4
 559 0002 0446     		mov	r4, r0
 560              	.LVL57:
 641:/home/phong/Documents/thesis/stm32f4/stm-idf/components/stm32f4xx_hal_driver/stm32f4xx_hal_dac.c ****   HAL_StatusTypeDef status = HAL_OK;
 642:/home/phong/Documents/thesis/stm32f4/stm-idf/components/stm32f4xx_hal_driver/stm32f4xx_hal_dac.c **** 
 643:/home/phong/Documents/thesis/stm32f4/stm-idf/components/stm32f4xx_hal_driver/stm32f4xx_hal_dac.c ****   /* Check the parameters */
 644:/home/phong/Documents/thesis/stm32f4/stm-idf/components/stm32f4xx_hal_driver/stm32f4xx_hal_dac.c ****   assert_param(IS_DAC_CHANNEL(Channel));
 645:/home/phong/Documents/thesis/stm32f4/stm-idf/components/stm32f4xx_hal_driver/stm32f4xx_hal_dac.c ****   
 646:/home/phong/Documents/thesis/stm32f4/stm-idf/components/stm32f4xx_hal_driver/stm32f4xx_hal_dac.c ****   /* Disable the selected DAC channel DMA request */
 647:/home/phong/Documents/thesis/stm32f4/stm-idf/components/stm32f4xx_hal_driver/stm32f4xx_hal_dac.c ****    hdac->Instance->CR &= ~(DAC_CR_DMAEN1 << Channel);
 561              		.loc 1 647 0
 562 0004 0068     		ldr	r0, [r0]
 563              	.LVL58:
 564 0006 0368     		ldr	r3, [r0]
 565 0008 4FF48052 		mov	r2, #4096
 566 000c 8A40     		lsls	r2, r2, r1
 567 000e 23EA0203 		bic	r3, r3, r2
 568 0012 0360     		str	r3, [r0]
 648:/home/phong/Documents/thesis/stm32f4/stm-idf/components/stm32f4xx_hal_driver/stm32f4xx_hal_dac.c ****     
 649:/home/phong/Documents/thesis/stm32f4/stm-idf/components/stm32f4xx_hal_driver/stm32f4xx_hal_dac.c ****   /* Disable the Peripheral */
 650:/home/phong/Documents/thesis/stm32f4/stm-idf/components/stm32f4xx_hal_driver/stm32f4xx_hal_dac.c ****   __HAL_DAC_DISABLE(hdac, Channel);
ARM GAS  /tmp/cc6S1L6Q.s 			page 23


 569              		.loc 1 650 0
 570 0014 2068     		ldr	r0, [r4]
 571 0016 0368     		ldr	r3, [r0]
 572 0018 0122     		movs	r2, #1
 573 001a 8A40     		lsls	r2, r2, r1
 574 001c 23EA0203 		bic	r3, r3, r2
 575 0020 0360     		str	r3, [r0]
 651:/home/phong/Documents/thesis/stm32f4/stm-idf/components/stm32f4xx_hal_driver/stm32f4xx_hal_dac.c ****   
 652:/home/phong/Documents/thesis/stm32f4/stm-idf/components/stm32f4xx_hal_driver/stm32f4xx_hal_dac.c ****   /* Disable the DMA Channel */
 653:/home/phong/Documents/thesis/stm32f4/stm-idf/components/stm32f4xx_hal_driver/stm32f4xx_hal_dac.c ****   /* Channel1 is used */
 654:/home/phong/Documents/thesis/stm32f4/stm-idf/components/stm32f4xx_hal_driver/stm32f4xx_hal_dac.c ****   if(Channel == DAC_CHANNEL_1)
 576              		.loc 1 654 0
 577 0022 31B9     		cbnz	r1, .L54
 655:/home/phong/Documents/thesis/stm32f4/stm-idf/components/stm32f4xx_hal_driver/stm32f4xx_hal_dac.c ****   { 
 656:/home/phong/Documents/thesis/stm32f4/stm-idf/components/stm32f4xx_hal_driver/stm32f4xx_hal_dac.c ****     status = HAL_DMA_Abort(hdac->DMA_Handle1);
 578              		.loc 1 656 0
 579 0024 A068     		ldr	r0, [r4, #8]
 580 0026 FFF7FEFF 		bl	HAL_DMA_Abort
 581              	.LVL59:
 582              	.L55:
 657:/home/phong/Documents/thesis/stm32f4/stm-idf/components/stm32f4xx_hal_driver/stm32f4xx_hal_dac.c ****   }
 658:/home/phong/Documents/thesis/stm32f4/stm-idf/components/stm32f4xx_hal_driver/stm32f4xx_hal_dac.c ****   else /* Channel2 is used for */
 659:/home/phong/Documents/thesis/stm32f4/stm-idf/components/stm32f4xx_hal_driver/stm32f4xx_hal_dac.c ****   { 
 660:/home/phong/Documents/thesis/stm32f4/stm-idf/components/stm32f4xx_hal_driver/stm32f4xx_hal_dac.c ****     status = HAL_DMA_Abort(hdac->DMA_Handle2); 
 661:/home/phong/Documents/thesis/stm32f4/stm-idf/components/stm32f4xx_hal_driver/stm32f4xx_hal_dac.c ****   }
 662:/home/phong/Documents/thesis/stm32f4/stm-idf/components/stm32f4xx_hal_driver/stm32f4xx_hal_dac.c **** 
 663:/home/phong/Documents/thesis/stm32f4/stm-idf/components/stm32f4xx_hal_driver/stm32f4xx_hal_dac.c ****   /* Check if DMA Channel effectively disabled */
 664:/home/phong/Documents/thesis/stm32f4/stm-idf/components/stm32f4xx_hal_driver/stm32f4xx_hal_dac.c ****   if(status != HAL_OK)
 583              		.loc 1 664 0
 584 002a 30B9     		cbnz	r0, .L59
 665:/home/phong/Documents/thesis/stm32f4/stm-idf/components/stm32f4xx_hal_driver/stm32f4xx_hal_dac.c ****   {
 666:/home/phong/Documents/thesis/stm32f4/stm-idf/components/stm32f4xx_hal_driver/stm32f4xx_hal_dac.c ****     /* Update DAC state machine to error */
 667:/home/phong/Documents/thesis/stm32f4/stm-idf/components/stm32f4xx_hal_driver/stm32f4xx_hal_dac.c ****     hdac->State = HAL_DAC_STATE_ERROR;      
 668:/home/phong/Documents/thesis/stm32f4/stm-idf/components/stm32f4xx_hal_driver/stm32f4xx_hal_dac.c ****   }
 669:/home/phong/Documents/thesis/stm32f4/stm-idf/components/stm32f4xx_hal_driver/stm32f4xx_hal_dac.c ****   else
 670:/home/phong/Documents/thesis/stm32f4/stm-idf/components/stm32f4xx_hal_driver/stm32f4xx_hal_dac.c ****   {
 671:/home/phong/Documents/thesis/stm32f4/stm-idf/components/stm32f4xx_hal_driver/stm32f4xx_hal_dac.c ****     /* Change DAC state */
 672:/home/phong/Documents/thesis/stm32f4/stm-idf/components/stm32f4xx_hal_driver/stm32f4xx_hal_dac.c ****     hdac->State = HAL_DAC_STATE_READY;
 585              		.loc 1 672 0
 586 002c 0123     		movs	r3, #1
 587 002e 2371     		strb	r3, [r4, #4]
 673:/home/phong/Documents/thesis/stm32f4/stm-idf/components/stm32f4xx_hal_driver/stm32f4xx_hal_dac.c ****   }
 674:/home/phong/Documents/thesis/stm32f4/stm-idf/components/stm32f4xx_hal_driver/stm32f4xx_hal_dac.c **** 
 675:/home/phong/Documents/thesis/stm32f4/stm-idf/components/stm32f4xx_hal_driver/stm32f4xx_hal_dac.c ****   /* Return function status */
 676:/home/phong/Documents/thesis/stm32f4/stm-idf/components/stm32f4xx_hal_driver/stm32f4xx_hal_dac.c ****   return status;
 677:/home/phong/Documents/thesis/stm32f4/stm-idf/components/stm32f4xx_hal_driver/stm32f4xx_hal_dac.c **** }
 588              		.loc 1 677 0
 589 0030 10BD     		pop	{r4, pc}
 590              	.LVL60:
 591              	.L54:
 660:/home/phong/Documents/thesis/stm32f4/stm-idf/components/stm32f4xx_hal_driver/stm32f4xx_hal_dac.c ****   }
 592              		.loc 1 660 0
 593 0032 E068     		ldr	r0, [r4, #12]
 594 0034 FFF7FEFF 		bl	HAL_DMA_Abort
 595              	.LVL61:
 596 0038 F7E7     		b	.L55
 597              	.L59:
ARM GAS  /tmp/cc6S1L6Q.s 			page 24


 667:/home/phong/Documents/thesis/stm32f4/stm-idf/components/stm32f4xx_hal_driver/stm32f4xx_hal_dac.c ****   }
 598              		.loc 1 667 0
 599 003a 0423     		movs	r3, #4
 600 003c 2371     		strb	r3, [r4, #4]
 601 003e 10BD     		pop	{r4, pc}
 602              		.cfi_endproc
 603              	.LFE137:
 605              		.section	.text.HAL_DAC_GetValue,"ax",%progbits
 606              		.align	1
 607              		.global	HAL_DAC_GetValue
 608              		.syntax unified
 609              		.thumb
 610              		.thumb_func
 611              		.fpu fpv4-sp-d16
 613              	HAL_DAC_GetValue:
 614              	.LFB138:
 678:/home/phong/Documents/thesis/stm32f4/stm-idf/components/stm32f4xx_hal_driver/stm32f4xx_hal_dac.c **** 
 679:/home/phong/Documents/thesis/stm32f4/stm-idf/components/stm32f4xx_hal_driver/stm32f4xx_hal_dac.c **** /**
 680:/home/phong/Documents/thesis/stm32f4/stm-idf/components/stm32f4xx_hal_driver/stm32f4xx_hal_dac.c ****   * @brief  Returns the last data output value of the selected DAC channel.
 681:/home/phong/Documents/thesis/stm32f4/stm-idf/components/stm32f4xx_hal_driver/stm32f4xx_hal_dac.c ****   * @param  hdac pointer to a DAC_HandleTypeDef structure that contains
 682:/home/phong/Documents/thesis/stm32f4/stm-idf/components/stm32f4xx_hal_driver/stm32f4xx_hal_dac.c ****   *         the configuration information for the specified DAC.
 683:/home/phong/Documents/thesis/stm32f4/stm-idf/components/stm32f4xx_hal_driver/stm32f4xx_hal_dac.c ****   * @param  Channel The selected DAC channel. 
 684:/home/phong/Documents/thesis/stm32f4/stm-idf/components/stm32f4xx_hal_driver/stm32f4xx_hal_dac.c ****   *          This parameter can be one of the following values:
 685:/home/phong/Documents/thesis/stm32f4/stm-idf/components/stm32f4xx_hal_driver/stm32f4xx_hal_dac.c ****   *            @arg DAC_CHANNEL_1: DAC Channel1 selected
 686:/home/phong/Documents/thesis/stm32f4/stm-idf/components/stm32f4xx_hal_driver/stm32f4xx_hal_dac.c ****   *            @arg DAC_CHANNEL_2: DAC Channel2 selected
 687:/home/phong/Documents/thesis/stm32f4/stm-idf/components/stm32f4xx_hal_driver/stm32f4xx_hal_dac.c ****   * @retval The selected DAC channel data output value.
 688:/home/phong/Documents/thesis/stm32f4/stm-idf/components/stm32f4xx_hal_driver/stm32f4xx_hal_dac.c ****   */
 689:/home/phong/Documents/thesis/stm32f4/stm-idf/components/stm32f4xx_hal_driver/stm32f4xx_hal_dac.c **** uint32_t HAL_DAC_GetValue(DAC_HandleTypeDef* hdac, uint32_t Channel)
 690:/home/phong/Documents/thesis/stm32f4/stm-idf/components/stm32f4xx_hal_driver/stm32f4xx_hal_dac.c **** {
 615              		.loc 1 690 0
 616              		.cfi_startproc
 617              		@ args = 0, pretend = 0, frame = 0
 618              		@ frame_needed = 0, uses_anonymous_args = 0
 619              		@ link register save eliminated.
 620              	.LVL62:
 691:/home/phong/Documents/thesis/stm32f4/stm-idf/components/stm32f4xx_hal_driver/stm32f4xx_hal_dac.c ****   /* Check the parameters */
 692:/home/phong/Documents/thesis/stm32f4/stm-idf/components/stm32f4xx_hal_driver/stm32f4xx_hal_dac.c ****   assert_param(IS_DAC_CHANNEL(Channel));
 693:/home/phong/Documents/thesis/stm32f4/stm-idf/components/stm32f4xx_hal_driver/stm32f4xx_hal_dac.c ****   
 694:/home/phong/Documents/thesis/stm32f4/stm-idf/components/stm32f4xx_hal_driver/stm32f4xx_hal_dac.c ****   /* Returns the DAC channel data output register value */
 695:/home/phong/Documents/thesis/stm32f4/stm-idf/components/stm32f4xx_hal_driver/stm32f4xx_hal_dac.c ****   if(Channel == DAC_CHANNEL_1)
 621              		.loc 1 695 0
 622 0000 11B1     		cbz	r1, .L63
 696:/home/phong/Documents/thesis/stm32f4/stm-idf/components/stm32f4xx_hal_driver/stm32f4xx_hal_dac.c ****   {
 697:/home/phong/Documents/thesis/stm32f4/stm-idf/components/stm32f4xx_hal_driver/stm32f4xx_hal_dac.c ****     return hdac->Instance->DOR1;
 698:/home/phong/Documents/thesis/stm32f4/stm-idf/components/stm32f4xx_hal_driver/stm32f4xx_hal_dac.c ****   }
 699:/home/phong/Documents/thesis/stm32f4/stm-idf/components/stm32f4xx_hal_driver/stm32f4xx_hal_dac.c ****   else
 700:/home/phong/Documents/thesis/stm32f4/stm-idf/components/stm32f4xx_hal_driver/stm32f4xx_hal_dac.c ****   {
 701:/home/phong/Documents/thesis/stm32f4/stm-idf/components/stm32f4xx_hal_driver/stm32f4xx_hal_dac.c ****     return hdac->Instance->DOR2;
 623              		.loc 1 701 0
 624 0002 0368     		ldr	r3, [r0]
 625 0004 186B     		ldr	r0, [r3, #48]
 626              	.LVL63:
 702:/home/phong/Documents/thesis/stm32f4/stm-idf/components/stm32f4xx_hal_driver/stm32f4xx_hal_dac.c ****   }
 703:/home/phong/Documents/thesis/stm32f4/stm-idf/components/stm32f4xx_hal_driver/stm32f4xx_hal_dac.c **** }
 627              		.loc 1 703 0
 628 0006 7047     		bx	lr
 629              	.LVL64:
ARM GAS  /tmp/cc6S1L6Q.s 			page 25


 630              	.L63:
 697:/home/phong/Documents/thesis/stm32f4/stm-idf/components/stm32f4xx_hal_driver/stm32f4xx_hal_dac.c ****   }
 631              		.loc 1 697 0
 632 0008 0368     		ldr	r3, [r0]
 633 000a D86A     		ldr	r0, [r3, #44]
 634              	.LVL65:
 635 000c 7047     		bx	lr
 636              		.cfi_endproc
 637              	.LFE138:
 639              		.section	.text.HAL_DAC_ConvCpltCallbackCh1,"ax",%progbits
 640              		.align	1
 641              		.weak	HAL_DAC_ConvCpltCallbackCh1
 642              		.syntax unified
 643              		.thumb
 644              		.thumb_func
 645              		.fpu fpv4-sp-d16
 647              	HAL_DAC_ConvCpltCallbackCh1:
 648              	.LFB140:
 704:/home/phong/Documents/thesis/stm32f4/stm-idf/components/stm32f4xx_hal_driver/stm32f4xx_hal_dac.c **** 
 705:/home/phong/Documents/thesis/stm32f4/stm-idf/components/stm32f4xx_hal_driver/stm32f4xx_hal_dac.c **** /**
 706:/home/phong/Documents/thesis/stm32f4/stm-idf/components/stm32f4xx_hal_driver/stm32f4xx_hal_dac.c ****   * @brief  Handles DAC interrupt request  
 707:/home/phong/Documents/thesis/stm32f4/stm-idf/components/stm32f4xx_hal_driver/stm32f4xx_hal_dac.c ****   * @param  hdac pointer to a DAC_HandleTypeDef structure that contains
 708:/home/phong/Documents/thesis/stm32f4/stm-idf/components/stm32f4xx_hal_driver/stm32f4xx_hal_dac.c ****   *         the configuration information for the specified DAC.
 709:/home/phong/Documents/thesis/stm32f4/stm-idf/components/stm32f4xx_hal_driver/stm32f4xx_hal_dac.c ****   * @retval None
 710:/home/phong/Documents/thesis/stm32f4/stm-idf/components/stm32f4xx_hal_driver/stm32f4xx_hal_dac.c ****   */
 711:/home/phong/Documents/thesis/stm32f4/stm-idf/components/stm32f4xx_hal_driver/stm32f4xx_hal_dac.c **** void HAL_DAC_IRQHandler(DAC_HandleTypeDef* hdac)
 712:/home/phong/Documents/thesis/stm32f4/stm-idf/components/stm32f4xx_hal_driver/stm32f4xx_hal_dac.c **** {
 713:/home/phong/Documents/thesis/stm32f4/stm-idf/components/stm32f4xx_hal_driver/stm32f4xx_hal_dac.c ****   /* Check underrun channel 1 flag */
 714:/home/phong/Documents/thesis/stm32f4/stm-idf/components/stm32f4xx_hal_driver/stm32f4xx_hal_dac.c ****   if(__HAL_DAC_GET_FLAG(hdac, DAC_FLAG_DMAUDR1))
 715:/home/phong/Documents/thesis/stm32f4/stm-idf/components/stm32f4xx_hal_driver/stm32f4xx_hal_dac.c ****   {
 716:/home/phong/Documents/thesis/stm32f4/stm-idf/components/stm32f4xx_hal_driver/stm32f4xx_hal_dac.c ****     /* Change DAC state to error state */
 717:/home/phong/Documents/thesis/stm32f4/stm-idf/components/stm32f4xx_hal_driver/stm32f4xx_hal_dac.c ****     hdac->State = HAL_DAC_STATE_ERROR;
 718:/home/phong/Documents/thesis/stm32f4/stm-idf/components/stm32f4xx_hal_driver/stm32f4xx_hal_dac.c ****     
 719:/home/phong/Documents/thesis/stm32f4/stm-idf/components/stm32f4xx_hal_driver/stm32f4xx_hal_dac.c ****     /* Set DAC error code to channel1 DMA underrun error */
 720:/home/phong/Documents/thesis/stm32f4/stm-idf/components/stm32f4xx_hal_driver/stm32f4xx_hal_dac.c ****     hdac->ErrorCode |= HAL_DAC_ERROR_DMAUNDERRUNCH1;
 721:/home/phong/Documents/thesis/stm32f4/stm-idf/components/stm32f4xx_hal_driver/stm32f4xx_hal_dac.c ****     
 722:/home/phong/Documents/thesis/stm32f4/stm-idf/components/stm32f4xx_hal_driver/stm32f4xx_hal_dac.c ****     /* Clear the underrun flag */
 723:/home/phong/Documents/thesis/stm32f4/stm-idf/components/stm32f4xx_hal_driver/stm32f4xx_hal_dac.c ****     __HAL_DAC_CLEAR_FLAG(hdac,DAC_FLAG_DMAUDR1);
 724:/home/phong/Documents/thesis/stm32f4/stm-idf/components/stm32f4xx_hal_driver/stm32f4xx_hal_dac.c ****     
 725:/home/phong/Documents/thesis/stm32f4/stm-idf/components/stm32f4xx_hal_driver/stm32f4xx_hal_dac.c ****     /* Disable the selected DAC channel1 DMA request */
 726:/home/phong/Documents/thesis/stm32f4/stm-idf/components/stm32f4xx_hal_driver/stm32f4xx_hal_dac.c ****     hdac->Instance->CR &= ~DAC_CR_DMAEN1;
 727:/home/phong/Documents/thesis/stm32f4/stm-idf/components/stm32f4xx_hal_driver/stm32f4xx_hal_dac.c ****     
 728:/home/phong/Documents/thesis/stm32f4/stm-idf/components/stm32f4xx_hal_driver/stm32f4xx_hal_dac.c ****     /* Error callback */ 
 729:/home/phong/Documents/thesis/stm32f4/stm-idf/components/stm32f4xx_hal_driver/stm32f4xx_hal_dac.c **** #if (USE_HAL_DAC_REGISTER_CALLBACKS == 1)
 730:/home/phong/Documents/thesis/stm32f4/stm-idf/components/stm32f4xx_hal_driver/stm32f4xx_hal_dac.c ****       hdac->DMAUnderrunCallbackCh1(hdac);
 731:/home/phong/Documents/thesis/stm32f4/stm-idf/components/stm32f4xx_hal_driver/stm32f4xx_hal_dac.c **** #else
 732:/home/phong/Documents/thesis/stm32f4/stm-idf/components/stm32f4xx_hal_driver/stm32f4xx_hal_dac.c ****     HAL_DAC_DMAUnderrunCallbackCh1(hdac);
 733:/home/phong/Documents/thesis/stm32f4/stm-idf/components/stm32f4xx_hal_driver/stm32f4xx_hal_dac.c **** #endif /* USE_HAL_DAC_REGISTER_CALLBACKS */
 734:/home/phong/Documents/thesis/stm32f4/stm-idf/components/stm32f4xx_hal_driver/stm32f4xx_hal_dac.c ****   }
 735:/home/phong/Documents/thesis/stm32f4/stm-idf/components/stm32f4xx_hal_driver/stm32f4xx_hal_dac.c ****   /* Check underrun channel 2 flag */
 736:/home/phong/Documents/thesis/stm32f4/stm-idf/components/stm32f4xx_hal_driver/stm32f4xx_hal_dac.c ****   if(__HAL_DAC_GET_FLAG(hdac, DAC_FLAG_DMAUDR2))
 737:/home/phong/Documents/thesis/stm32f4/stm-idf/components/stm32f4xx_hal_driver/stm32f4xx_hal_dac.c ****   {
 738:/home/phong/Documents/thesis/stm32f4/stm-idf/components/stm32f4xx_hal_driver/stm32f4xx_hal_dac.c ****     /* Change DAC state to error state */
 739:/home/phong/Documents/thesis/stm32f4/stm-idf/components/stm32f4xx_hal_driver/stm32f4xx_hal_dac.c ****     hdac->State = HAL_DAC_STATE_ERROR;
 740:/home/phong/Documents/thesis/stm32f4/stm-idf/components/stm32f4xx_hal_driver/stm32f4xx_hal_dac.c ****     
 741:/home/phong/Documents/thesis/stm32f4/stm-idf/components/stm32f4xx_hal_driver/stm32f4xx_hal_dac.c ****     /* Set DAC error code to channel2 DMA underrun error */
 742:/home/phong/Documents/thesis/stm32f4/stm-idf/components/stm32f4xx_hal_driver/stm32f4xx_hal_dac.c ****     hdac->ErrorCode |= HAL_DAC_ERROR_DMAUNDERRUNCH2;
ARM GAS  /tmp/cc6S1L6Q.s 			page 26


 743:/home/phong/Documents/thesis/stm32f4/stm-idf/components/stm32f4xx_hal_driver/stm32f4xx_hal_dac.c ****     
 744:/home/phong/Documents/thesis/stm32f4/stm-idf/components/stm32f4xx_hal_driver/stm32f4xx_hal_dac.c ****     /* Clear the underrun flag */
 745:/home/phong/Documents/thesis/stm32f4/stm-idf/components/stm32f4xx_hal_driver/stm32f4xx_hal_dac.c ****     __HAL_DAC_CLEAR_FLAG(hdac,DAC_FLAG_DMAUDR2);
 746:/home/phong/Documents/thesis/stm32f4/stm-idf/components/stm32f4xx_hal_driver/stm32f4xx_hal_dac.c ****     
 747:/home/phong/Documents/thesis/stm32f4/stm-idf/components/stm32f4xx_hal_driver/stm32f4xx_hal_dac.c ****     /* Disable the selected DAC channel1 DMA request */
 748:/home/phong/Documents/thesis/stm32f4/stm-idf/components/stm32f4xx_hal_driver/stm32f4xx_hal_dac.c ****     hdac->Instance->CR &= ~DAC_CR_DMAEN2;
 749:/home/phong/Documents/thesis/stm32f4/stm-idf/components/stm32f4xx_hal_driver/stm32f4xx_hal_dac.c ****     
 750:/home/phong/Documents/thesis/stm32f4/stm-idf/components/stm32f4xx_hal_driver/stm32f4xx_hal_dac.c ****     /* Error callback */ 
 751:/home/phong/Documents/thesis/stm32f4/stm-idf/components/stm32f4xx_hal_driver/stm32f4xx_hal_dac.c **** #if (USE_HAL_DAC_REGISTER_CALLBACKS == 1)
 752:/home/phong/Documents/thesis/stm32f4/stm-idf/components/stm32f4xx_hal_driver/stm32f4xx_hal_dac.c ****       hdac->DMAUnderrunCallbackCh2(hdac);
 753:/home/phong/Documents/thesis/stm32f4/stm-idf/components/stm32f4xx_hal_driver/stm32f4xx_hal_dac.c **** #else
 754:/home/phong/Documents/thesis/stm32f4/stm-idf/components/stm32f4xx_hal_driver/stm32f4xx_hal_dac.c ****     HAL_DACEx_DMAUnderrunCallbackCh2(hdac);
 755:/home/phong/Documents/thesis/stm32f4/stm-idf/components/stm32f4xx_hal_driver/stm32f4xx_hal_dac.c **** #endif /* USE_HAL_DAC_REGISTER_CALLBACKS */
 756:/home/phong/Documents/thesis/stm32f4/stm-idf/components/stm32f4xx_hal_driver/stm32f4xx_hal_dac.c ****   }
 757:/home/phong/Documents/thesis/stm32f4/stm-idf/components/stm32f4xx_hal_driver/stm32f4xx_hal_dac.c **** }
 758:/home/phong/Documents/thesis/stm32f4/stm-idf/components/stm32f4xx_hal_driver/stm32f4xx_hal_dac.c **** 
 759:/home/phong/Documents/thesis/stm32f4/stm-idf/components/stm32f4xx_hal_driver/stm32f4xx_hal_dac.c **** /**
 760:/home/phong/Documents/thesis/stm32f4/stm-idf/components/stm32f4xx_hal_driver/stm32f4xx_hal_dac.c ****   * @brief  Conversion complete callback in non blocking mode for Channel1 
 761:/home/phong/Documents/thesis/stm32f4/stm-idf/components/stm32f4xx_hal_driver/stm32f4xx_hal_dac.c ****   * @param  hdac pointer to a DAC_HandleTypeDef structure that contains
 762:/home/phong/Documents/thesis/stm32f4/stm-idf/components/stm32f4xx_hal_driver/stm32f4xx_hal_dac.c ****   *         the configuration information for the specified DAC.
 763:/home/phong/Documents/thesis/stm32f4/stm-idf/components/stm32f4xx_hal_driver/stm32f4xx_hal_dac.c ****   * @retval None
 764:/home/phong/Documents/thesis/stm32f4/stm-idf/components/stm32f4xx_hal_driver/stm32f4xx_hal_dac.c ****   */
 765:/home/phong/Documents/thesis/stm32f4/stm-idf/components/stm32f4xx_hal_driver/stm32f4xx_hal_dac.c **** __weak void HAL_DAC_ConvCpltCallbackCh1(DAC_HandleTypeDef* hdac)
 766:/home/phong/Documents/thesis/stm32f4/stm-idf/components/stm32f4xx_hal_driver/stm32f4xx_hal_dac.c **** {
 649              		.loc 1 766 0
 650              		.cfi_startproc
 651              		@ args = 0, pretend = 0, frame = 0
 652              		@ frame_needed = 0, uses_anonymous_args = 0
 653              		@ link register save eliminated.
 654              	.LVL66:
 655 0000 7047     		bx	lr
 656              		.cfi_endproc
 657              	.LFE140:
 659              		.section	.text.DAC_DMAConvCpltCh1,"ax",%progbits
 660              		.align	1
 661              		.syntax unified
 662              		.thumb
 663              		.thumb_func
 664              		.fpu fpv4-sp-d16
 666              	DAC_DMAConvCpltCh1:
 667              	.LFB148:
 767:/home/phong/Documents/thesis/stm32f4/stm-idf/components/stm32f4xx_hal_driver/stm32f4xx_hal_dac.c ****   /* Prevent unused argument(s) compilation warning */
 768:/home/phong/Documents/thesis/stm32f4/stm-idf/components/stm32f4xx_hal_driver/stm32f4xx_hal_dac.c ****   UNUSED(hdac);
 769:/home/phong/Documents/thesis/stm32f4/stm-idf/components/stm32f4xx_hal_driver/stm32f4xx_hal_dac.c ****   /* NOTE : This function Should not be modified, when the callback is needed,
 770:/home/phong/Documents/thesis/stm32f4/stm-idf/components/stm32f4xx_hal_driver/stm32f4xx_hal_dac.c ****             the HAL_DAC_ConvCpltCallback could be implemented in the user file
 771:/home/phong/Documents/thesis/stm32f4/stm-idf/components/stm32f4xx_hal_driver/stm32f4xx_hal_dac.c ****    */
 772:/home/phong/Documents/thesis/stm32f4/stm-idf/components/stm32f4xx_hal_driver/stm32f4xx_hal_dac.c **** }
 773:/home/phong/Documents/thesis/stm32f4/stm-idf/components/stm32f4xx_hal_driver/stm32f4xx_hal_dac.c **** 
 774:/home/phong/Documents/thesis/stm32f4/stm-idf/components/stm32f4xx_hal_driver/stm32f4xx_hal_dac.c **** /**
 775:/home/phong/Documents/thesis/stm32f4/stm-idf/components/stm32f4xx_hal_driver/stm32f4xx_hal_dac.c ****   * @brief  Conversion half DMA transfer callback in non blocking mode for Channel1 
 776:/home/phong/Documents/thesis/stm32f4/stm-idf/components/stm32f4xx_hal_driver/stm32f4xx_hal_dac.c ****   * @param  hdac pointer to a DAC_HandleTypeDef structure that contains
 777:/home/phong/Documents/thesis/stm32f4/stm-idf/components/stm32f4xx_hal_driver/stm32f4xx_hal_dac.c ****   *         the configuration information for the specified DAC.
 778:/home/phong/Documents/thesis/stm32f4/stm-idf/components/stm32f4xx_hal_driver/stm32f4xx_hal_dac.c ****   * @retval None
 779:/home/phong/Documents/thesis/stm32f4/stm-idf/components/stm32f4xx_hal_driver/stm32f4xx_hal_dac.c ****   */
 780:/home/phong/Documents/thesis/stm32f4/stm-idf/components/stm32f4xx_hal_driver/stm32f4xx_hal_dac.c **** __weak void HAL_DAC_ConvHalfCpltCallbackCh1(DAC_HandleTypeDef* hdac)
 781:/home/phong/Documents/thesis/stm32f4/stm-idf/components/stm32f4xx_hal_driver/stm32f4xx_hal_dac.c **** {
 782:/home/phong/Documents/thesis/stm32f4/stm-idf/components/stm32f4xx_hal_driver/stm32f4xx_hal_dac.c ****   /* Prevent unused argument(s) compilation warning */
ARM GAS  /tmp/cc6S1L6Q.s 			page 27


 783:/home/phong/Documents/thesis/stm32f4/stm-idf/components/stm32f4xx_hal_driver/stm32f4xx_hal_dac.c ****   UNUSED(hdac);
 784:/home/phong/Documents/thesis/stm32f4/stm-idf/components/stm32f4xx_hal_driver/stm32f4xx_hal_dac.c ****   /* NOTE : This function Should not be modified, when the callback is needed,
 785:/home/phong/Documents/thesis/stm32f4/stm-idf/components/stm32f4xx_hal_driver/stm32f4xx_hal_dac.c ****             the HAL_DAC_ConvHalfCpltCallbackCh1 could be implemented in the user file
 786:/home/phong/Documents/thesis/stm32f4/stm-idf/components/stm32f4xx_hal_driver/stm32f4xx_hal_dac.c ****    */
 787:/home/phong/Documents/thesis/stm32f4/stm-idf/components/stm32f4xx_hal_driver/stm32f4xx_hal_dac.c **** }
 788:/home/phong/Documents/thesis/stm32f4/stm-idf/components/stm32f4xx_hal_driver/stm32f4xx_hal_dac.c **** 
 789:/home/phong/Documents/thesis/stm32f4/stm-idf/components/stm32f4xx_hal_driver/stm32f4xx_hal_dac.c **** /**
 790:/home/phong/Documents/thesis/stm32f4/stm-idf/components/stm32f4xx_hal_driver/stm32f4xx_hal_dac.c ****   * @brief  Error DAC callback for Channel1.
 791:/home/phong/Documents/thesis/stm32f4/stm-idf/components/stm32f4xx_hal_driver/stm32f4xx_hal_dac.c ****   * @param  hdac pointer to a DAC_HandleTypeDef structure that contains
 792:/home/phong/Documents/thesis/stm32f4/stm-idf/components/stm32f4xx_hal_driver/stm32f4xx_hal_dac.c ****   *         the configuration information for the specified DAC.
 793:/home/phong/Documents/thesis/stm32f4/stm-idf/components/stm32f4xx_hal_driver/stm32f4xx_hal_dac.c ****   * @retval None
 794:/home/phong/Documents/thesis/stm32f4/stm-idf/components/stm32f4xx_hal_driver/stm32f4xx_hal_dac.c ****   */
 795:/home/phong/Documents/thesis/stm32f4/stm-idf/components/stm32f4xx_hal_driver/stm32f4xx_hal_dac.c **** __weak void HAL_DAC_ErrorCallbackCh1(DAC_HandleTypeDef *hdac)
 796:/home/phong/Documents/thesis/stm32f4/stm-idf/components/stm32f4xx_hal_driver/stm32f4xx_hal_dac.c **** {
 797:/home/phong/Documents/thesis/stm32f4/stm-idf/components/stm32f4xx_hal_driver/stm32f4xx_hal_dac.c ****   /* Prevent unused argument(s) compilation warning */
 798:/home/phong/Documents/thesis/stm32f4/stm-idf/components/stm32f4xx_hal_driver/stm32f4xx_hal_dac.c ****   UNUSED(hdac);
 799:/home/phong/Documents/thesis/stm32f4/stm-idf/components/stm32f4xx_hal_driver/stm32f4xx_hal_dac.c ****   /* NOTE : This function Should not be modified, when the callback is needed,
 800:/home/phong/Documents/thesis/stm32f4/stm-idf/components/stm32f4xx_hal_driver/stm32f4xx_hal_dac.c ****             the HAL_DAC_ErrorCallbackCh1 could be implemented in the user file
 801:/home/phong/Documents/thesis/stm32f4/stm-idf/components/stm32f4xx_hal_driver/stm32f4xx_hal_dac.c ****    */
 802:/home/phong/Documents/thesis/stm32f4/stm-idf/components/stm32f4xx_hal_driver/stm32f4xx_hal_dac.c **** }
 803:/home/phong/Documents/thesis/stm32f4/stm-idf/components/stm32f4xx_hal_driver/stm32f4xx_hal_dac.c **** 
 804:/home/phong/Documents/thesis/stm32f4/stm-idf/components/stm32f4xx_hal_driver/stm32f4xx_hal_dac.c **** /**
 805:/home/phong/Documents/thesis/stm32f4/stm-idf/components/stm32f4xx_hal_driver/stm32f4xx_hal_dac.c ****   * @brief  DMA underrun DAC callback for channel1.
 806:/home/phong/Documents/thesis/stm32f4/stm-idf/components/stm32f4xx_hal_driver/stm32f4xx_hal_dac.c ****   * @param  hdac pointer to a DAC_HandleTypeDef structure that contains
 807:/home/phong/Documents/thesis/stm32f4/stm-idf/components/stm32f4xx_hal_driver/stm32f4xx_hal_dac.c ****   *         the configuration information for the specified DAC.
 808:/home/phong/Documents/thesis/stm32f4/stm-idf/components/stm32f4xx_hal_driver/stm32f4xx_hal_dac.c ****   * @retval None
 809:/home/phong/Documents/thesis/stm32f4/stm-idf/components/stm32f4xx_hal_driver/stm32f4xx_hal_dac.c ****   */
 810:/home/phong/Documents/thesis/stm32f4/stm-idf/components/stm32f4xx_hal_driver/stm32f4xx_hal_dac.c **** __weak void HAL_DAC_DMAUnderrunCallbackCh1(DAC_HandleTypeDef *hdac)
 811:/home/phong/Documents/thesis/stm32f4/stm-idf/components/stm32f4xx_hal_driver/stm32f4xx_hal_dac.c **** {
 812:/home/phong/Documents/thesis/stm32f4/stm-idf/components/stm32f4xx_hal_driver/stm32f4xx_hal_dac.c ****   /* Prevent unused argument(s) compilation warning */
 813:/home/phong/Documents/thesis/stm32f4/stm-idf/components/stm32f4xx_hal_driver/stm32f4xx_hal_dac.c ****   UNUSED(hdac);
 814:/home/phong/Documents/thesis/stm32f4/stm-idf/components/stm32f4xx_hal_driver/stm32f4xx_hal_dac.c ****   /* NOTE : This function Should not be modified, when the callback is needed,
 815:/home/phong/Documents/thesis/stm32f4/stm-idf/components/stm32f4xx_hal_driver/stm32f4xx_hal_dac.c ****             the HAL_DAC_DMAUnderrunCallbackCh1 could be implemented in the user file
 816:/home/phong/Documents/thesis/stm32f4/stm-idf/components/stm32f4xx_hal_driver/stm32f4xx_hal_dac.c ****    */
 817:/home/phong/Documents/thesis/stm32f4/stm-idf/components/stm32f4xx_hal_driver/stm32f4xx_hal_dac.c **** }
 818:/home/phong/Documents/thesis/stm32f4/stm-idf/components/stm32f4xx_hal_driver/stm32f4xx_hal_dac.c **** 
 819:/home/phong/Documents/thesis/stm32f4/stm-idf/components/stm32f4xx_hal_driver/stm32f4xx_hal_dac.c **** /**
 820:/home/phong/Documents/thesis/stm32f4/stm-idf/components/stm32f4xx_hal_driver/stm32f4xx_hal_dac.c ****   * @}
 821:/home/phong/Documents/thesis/stm32f4/stm-idf/components/stm32f4xx_hal_driver/stm32f4xx_hal_dac.c ****   */
 822:/home/phong/Documents/thesis/stm32f4/stm-idf/components/stm32f4xx_hal_driver/stm32f4xx_hal_dac.c ****   
 823:/home/phong/Documents/thesis/stm32f4/stm-idf/components/stm32f4xx_hal_driver/stm32f4xx_hal_dac.c **** /** @defgroup DAC_Exported_Functions_Group3 Peripheral Control functions
 824:/home/phong/Documents/thesis/stm32f4/stm-idf/components/stm32f4xx_hal_driver/stm32f4xx_hal_dac.c ****  *  @brief   	Peripheral Control functions 
 825:/home/phong/Documents/thesis/stm32f4/stm-idf/components/stm32f4xx_hal_driver/stm32f4xx_hal_dac.c ****  *
 826:/home/phong/Documents/thesis/stm32f4/stm-idf/components/stm32f4xx_hal_driver/stm32f4xx_hal_dac.c **** @verbatim   
 827:/home/phong/Documents/thesis/stm32f4/stm-idf/components/stm32f4xx_hal_driver/stm32f4xx_hal_dac.c ****   ==============================================================================
 828:/home/phong/Documents/thesis/stm32f4/stm-idf/components/stm32f4xx_hal_driver/stm32f4xx_hal_dac.c ****              ##### Peripheral Control functions #####
 829:/home/phong/Documents/thesis/stm32f4/stm-idf/components/stm32f4xx_hal_driver/stm32f4xx_hal_dac.c ****   ==============================================================================  
 830:/home/phong/Documents/thesis/stm32f4/stm-idf/components/stm32f4xx_hal_driver/stm32f4xx_hal_dac.c ****     [..]  This section provides functions allowing to:
 831:/home/phong/Documents/thesis/stm32f4/stm-idf/components/stm32f4xx_hal_driver/stm32f4xx_hal_dac.c ****       (+) Configure channels. 
 832:/home/phong/Documents/thesis/stm32f4/stm-idf/components/stm32f4xx_hal_driver/stm32f4xx_hal_dac.c ****       (+) Set the specified data holding register value for DAC channel.
 833:/home/phong/Documents/thesis/stm32f4/stm-idf/components/stm32f4xx_hal_driver/stm32f4xx_hal_dac.c ****       
 834:/home/phong/Documents/thesis/stm32f4/stm-idf/components/stm32f4xx_hal_driver/stm32f4xx_hal_dac.c **** @endverbatim
 835:/home/phong/Documents/thesis/stm32f4/stm-idf/components/stm32f4xx_hal_driver/stm32f4xx_hal_dac.c ****   * @{
 836:/home/phong/Documents/thesis/stm32f4/stm-idf/components/stm32f4xx_hal_driver/stm32f4xx_hal_dac.c ****   */
 837:/home/phong/Documents/thesis/stm32f4/stm-idf/components/stm32f4xx_hal_driver/stm32f4xx_hal_dac.c **** 
 838:/home/phong/Documents/thesis/stm32f4/stm-idf/components/stm32f4xx_hal_driver/stm32f4xx_hal_dac.c **** /**
 839:/home/phong/Documents/thesis/stm32f4/stm-idf/components/stm32f4xx_hal_driver/stm32f4xx_hal_dac.c ****   * @brief  Configures the selected DAC channel.
ARM GAS  /tmp/cc6S1L6Q.s 			page 28


 840:/home/phong/Documents/thesis/stm32f4/stm-idf/components/stm32f4xx_hal_driver/stm32f4xx_hal_dac.c ****   * @param  hdac pointer to a DAC_HandleTypeDef structure that contains
 841:/home/phong/Documents/thesis/stm32f4/stm-idf/components/stm32f4xx_hal_driver/stm32f4xx_hal_dac.c ****   *         the configuration information for the specified DAC.
 842:/home/phong/Documents/thesis/stm32f4/stm-idf/components/stm32f4xx_hal_driver/stm32f4xx_hal_dac.c ****   * @param  sConfig DAC configuration structure.
 843:/home/phong/Documents/thesis/stm32f4/stm-idf/components/stm32f4xx_hal_driver/stm32f4xx_hal_dac.c ****   * @param  Channel The selected DAC channel. 
 844:/home/phong/Documents/thesis/stm32f4/stm-idf/components/stm32f4xx_hal_driver/stm32f4xx_hal_dac.c ****   *          This parameter can be one of the following values:
 845:/home/phong/Documents/thesis/stm32f4/stm-idf/components/stm32f4xx_hal_driver/stm32f4xx_hal_dac.c ****   *            @arg DAC_CHANNEL_1: DAC Channel1 selected
 846:/home/phong/Documents/thesis/stm32f4/stm-idf/components/stm32f4xx_hal_driver/stm32f4xx_hal_dac.c ****   *            @arg DAC_CHANNEL_2: DAC Channel2 selected
 847:/home/phong/Documents/thesis/stm32f4/stm-idf/components/stm32f4xx_hal_driver/stm32f4xx_hal_dac.c ****   * @retval HAL status
 848:/home/phong/Documents/thesis/stm32f4/stm-idf/components/stm32f4xx_hal_driver/stm32f4xx_hal_dac.c ****   */
 849:/home/phong/Documents/thesis/stm32f4/stm-idf/components/stm32f4xx_hal_driver/stm32f4xx_hal_dac.c **** HAL_StatusTypeDef HAL_DAC_ConfigChannel(DAC_HandleTypeDef* hdac, DAC_ChannelConfTypeDef* sConfig, u
 850:/home/phong/Documents/thesis/stm32f4/stm-idf/components/stm32f4xx_hal_driver/stm32f4xx_hal_dac.c **** {
 851:/home/phong/Documents/thesis/stm32f4/stm-idf/components/stm32f4xx_hal_driver/stm32f4xx_hal_dac.c ****   uint32_t tmpreg1 = 0U, tmpreg2 = 0U;
 852:/home/phong/Documents/thesis/stm32f4/stm-idf/components/stm32f4xx_hal_driver/stm32f4xx_hal_dac.c **** 
 853:/home/phong/Documents/thesis/stm32f4/stm-idf/components/stm32f4xx_hal_driver/stm32f4xx_hal_dac.c ****   /* Check the DAC parameters */
 854:/home/phong/Documents/thesis/stm32f4/stm-idf/components/stm32f4xx_hal_driver/stm32f4xx_hal_dac.c ****   assert_param(IS_DAC_TRIGGER(sConfig->DAC_Trigger));
 855:/home/phong/Documents/thesis/stm32f4/stm-idf/components/stm32f4xx_hal_driver/stm32f4xx_hal_dac.c ****   assert_param(IS_DAC_OUTPUT_BUFFER_STATE(sConfig->DAC_OutputBuffer));
 856:/home/phong/Documents/thesis/stm32f4/stm-idf/components/stm32f4xx_hal_driver/stm32f4xx_hal_dac.c ****   assert_param(IS_DAC_CHANNEL(Channel));
 857:/home/phong/Documents/thesis/stm32f4/stm-idf/components/stm32f4xx_hal_driver/stm32f4xx_hal_dac.c ****   
 858:/home/phong/Documents/thesis/stm32f4/stm-idf/components/stm32f4xx_hal_driver/stm32f4xx_hal_dac.c ****   /* Process locked */
 859:/home/phong/Documents/thesis/stm32f4/stm-idf/components/stm32f4xx_hal_driver/stm32f4xx_hal_dac.c ****   __HAL_LOCK(hdac);
 860:/home/phong/Documents/thesis/stm32f4/stm-idf/components/stm32f4xx_hal_driver/stm32f4xx_hal_dac.c ****   
 861:/home/phong/Documents/thesis/stm32f4/stm-idf/components/stm32f4xx_hal_driver/stm32f4xx_hal_dac.c ****   /* Change DAC state */
 862:/home/phong/Documents/thesis/stm32f4/stm-idf/components/stm32f4xx_hal_driver/stm32f4xx_hal_dac.c ****   hdac->State = HAL_DAC_STATE_BUSY;
 863:/home/phong/Documents/thesis/stm32f4/stm-idf/components/stm32f4xx_hal_driver/stm32f4xx_hal_dac.c ****   
 864:/home/phong/Documents/thesis/stm32f4/stm-idf/components/stm32f4xx_hal_driver/stm32f4xx_hal_dac.c ****   /* Get the DAC CR value */
 865:/home/phong/Documents/thesis/stm32f4/stm-idf/components/stm32f4xx_hal_driver/stm32f4xx_hal_dac.c ****   tmpreg1 = hdac->Instance->CR;
 866:/home/phong/Documents/thesis/stm32f4/stm-idf/components/stm32f4xx_hal_driver/stm32f4xx_hal_dac.c ****   /* Clear BOFFx, TENx, TSELx, WAVEx and MAMPx bits */
 867:/home/phong/Documents/thesis/stm32f4/stm-idf/components/stm32f4xx_hal_driver/stm32f4xx_hal_dac.c ****   tmpreg1 &= ~(((uint32_t)(DAC_CR_MAMP1 | DAC_CR_WAVE1 | DAC_CR_TSEL1 | DAC_CR_TEN1 | DAC_CR_BOFF1)
 868:/home/phong/Documents/thesis/stm32f4/stm-idf/components/stm32f4xx_hal_driver/stm32f4xx_hal_dac.c ****   /* Configure for the selected DAC channel: buffer output, trigger */
 869:/home/phong/Documents/thesis/stm32f4/stm-idf/components/stm32f4xx_hal_driver/stm32f4xx_hal_dac.c ****   /* Set TSELx and TENx bits according to DAC_Trigger value */
 870:/home/phong/Documents/thesis/stm32f4/stm-idf/components/stm32f4xx_hal_driver/stm32f4xx_hal_dac.c ****   /* Set BOFFx bit according to DAC_OutputBuffer value */   
 871:/home/phong/Documents/thesis/stm32f4/stm-idf/components/stm32f4xx_hal_driver/stm32f4xx_hal_dac.c ****   tmpreg2 = (sConfig->DAC_Trigger | sConfig->DAC_OutputBuffer);
 872:/home/phong/Documents/thesis/stm32f4/stm-idf/components/stm32f4xx_hal_driver/stm32f4xx_hal_dac.c ****   /* Calculate CR register value depending on DAC_Channel */
 873:/home/phong/Documents/thesis/stm32f4/stm-idf/components/stm32f4xx_hal_driver/stm32f4xx_hal_dac.c ****   tmpreg1 |= tmpreg2 << Channel;
 874:/home/phong/Documents/thesis/stm32f4/stm-idf/components/stm32f4xx_hal_driver/stm32f4xx_hal_dac.c ****   /* Write to DAC CR */
 875:/home/phong/Documents/thesis/stm32f4/stm-idf/components/stm32f4xx_hal_driver/stm32f4xx_hal_dac.c ****   hdac->Instance->CR = tmpreg1;
 876:/home/phong/Documents/thesis/stm32f4/stm-idf/components/stm32f4xx_hal_driver/stm32f4xx_hal_dac.c ****   /* Disable wave generation */
 877:/home/phong/Documents/thesis/stm32f4/stm-idf/components/stm32f4xx_hal_driver/stm32f4xx_hal_dac.c ****   hdac->Instance->CR &= ~(DAC_CR_WAVE1 << Channel);
 878:/home/phong/Documents/thesis/stm32f4/stm-idf/components/stm32f4xx_hal_driver/stm32f4xx_hal_dac.c ****   
 879:/home/phong/Documents/thesis/stm32f4/stm-idf/components/stm32f4xx_hal_driver/stm32f4xx_hal_dac.c ****   /* Change DAC state */
 880:/home/phong/Documents/thesis/stm32f4/stm-idf/components/stm32f4xx_hal_driver/stm32f4xx_hal_dac.c ****   hdac->State = HAL_DAC_STATE_READY;
 881:/home/phong/Documents/thesis/stm32f4/stm-idf/components/stm32f4xx_hal_driver/stm32f4xx_hal_dac.c ****   
 882:/home/phong/Documents/thesis/stm32f4/stm-idf/components/stm32f4xx_hal_driver/stm32f4xx_hal_dac.c ****   /* Process unlocked */
 883:/home/phong/Documents/thesis/stm32f4/stm-idf/components/stm32f4xx_hal_driver/stm32f4xx_hal_dac.c ****   __HAL_UNLOCK(hdac);
 884:/home/phong/Documents/thesis/stm32f4/stm-idf/components/stm32f4xx_hal_driver/stm32f4xx_hal_dac.c ****   
 885:/home/phong/Documents/thesis/stm32f4/stm-idf/components/stm32f4xx_hal_driver/stm32f4xx_hal_dac.c ****   /* Return function status */
 886:/home/phong/Documents/thesis/stm32f4/stm-idf/components/stm32f4xx_hal_driver/stm32f4xx_hal_dac.c ****   return HAL_OK;
 887:/home/phong/Documents/thesis/stm32f4/stm-idf/components/stm32f4xx_hal_driver/stm32f4xx_hal_dac.c **** }
 888:/home/phong/Documents/thesis/stm32f4/stm-idf/components/stm32f4xx_hal_driver/stm32f4xx_hal_dac.c **** 
 889:/home/phong/Documents/thesis/stm32f4/stm-idf/components/stm32f4xx_hal_driver/stm32f4xx_hal_dac.c **** /**
 890:/home/phong/Documents/thesis/stm32f4/stm-idf/components/stm32f4xx_hal_driver/stm32f4xx_hal_dac.c ****   * @brief  Set the specified data holding register value for DAC channel.
 891:/home/phong/Documents/thesis/stm32f4/stm-idf/components/stm32f4xx_hal_driver/stm32f4xx_hal_dac.c ****   * @param  hdac pointer to a DAC_HandleTypeDef structure that contains
 892:/home/phong/Documents/thesis/stm32f4/stm-idf/components/stm32f4xx_hal_driver/stm32f4xx_hal_dac.c ****   *         the configuration information for the specified DAC.
 893:/home/phong/Documents/thesis/stm32f4/stm-idf/components/stm32f4xx_hal_driver/stm32f4xx_hal_dac.c ****   * @param  Channel The selected DAC channel. 
 894:/home/phong/Documents/thesis/stm32f4/stm-idf/components/stm32f4xx_hal_driver/stm32f4xx_hal_dac.c ****   *          This parameter can be one of the following values:
 895:/home/phong/Documents/thesis/stm32f4/stm-idf/components/stm32f4xx_hal_driver/stm32f4xx_hal_dac.c ****   *            @arg DAC_CHANNEL_1: DAC Channel1 selected
 896:/home/phong/Documents/thesis/stm32f4/stm-idf/components/stm32f4xx_hal_driver/stm32f4xx_hal_dac.c ****   *            @arg DAC_CHANNEL_2: DAC Channel2 selected  
ARM GAS  /tmp/cc6S1L6Q.s 			page 29


 897:/home/phong/Documents/thesis/stm32f4/stm-idf/components/stm32f4xx_hal_driver/stm32f4xx_hal_dac.c ****   * @param  Alignment Specifies the data alignment.
 898:/home/phong/Documents/thesis/stm32f4/stm-idf/components/stm32f4xx_hal_driver/stm32f4xx_hal_dac.c ****   *          This parameter can be one of the following values:
 899:/home/phong/Documents/thesis/stm32f4/stm-idf/components/stm32f4xx_hal_driver/stm32f4xx_hal_dac.c ****   *            @arg DAC_ALIGN_8B_R: 8bit right data alignment selected
 900:/home/phong/Documents/thesis/stm32f4/stm-idf/components/stm32f4xx_hal_driver/stm32f4xx_hal_dac.c ****   *            @arg DAC_ALIGN_12B_L: 12bit left data alignment selected
 901:/home/phong/Documents/thesis/stm32f4/stm-idf/components/stm32f4xx_hal_driver/stm32f4xx_hal_dac.c ****   *            @arg DAC_ALIGN_12B_R: 12bit right data alignment selected
 902:/home/phong/Documents/thesis/stm32f4/stm-idf/components/stm32f4xx_hal_driver/stm32f4xx_hal_dac.c ****   * @param  Data Data to be loaded in the selected data holding register.
 903:/home/phong/Documents/thesis/stm32f4/stm-idf/components/stm32f4xx_hal_driver/stm32f4xx_hal_dac.c ****   * @retval HAL status
 904:/home/phong/Documents/thesis/stm32f4/stm-idf/components/stm32f4xx_hal_driver/stm32f4xx_hal_dac.c ****   */
 905:/home/phong/Documents/thesis/stm32f4/stm-idf/components/stm32f4xx_hal_driver/stm32f4xx_hal_dac.c **** HAL_StatusTypeDef HAL_DAC_SetValue(DAC_HandleTypeDef* hdac, uint32_t Channel, uint32_t Alignment, u
 906:/home/phong/Documents/thesis/stm32f4/stm-idf/components/stm32f4xx_hal_driver/stm32f4xx_hal_dac.c **** {  
 907:/home/phong/Documents/thesis/stm32f4/stm-idf/components/stm32f4xx_hal_driver/stm32f4xx_hal_dac.c ****   __IO uint32_t tmp = 0U;
 908:/home/phong/Documents/thesis/stm32f4/stm-idf/components/stm32f4xx_hal_driver/stm32f4xx_hal_dac.c ****   
 909:/home/phong/Documents/thesis/stm32f4/stm-idf/components/stm32f4xx_hal_driver/stm32f4xx_hal_dac.c ****   /* Check the parameters */
 910:/home/phong/Documents/thesis/stm32f4/stm-idf/components/stm32f4xx_hal_driver/stm32f4xx_hal_dac.c ****   assert_param(IS_DAC_CHANNEL(Channel));
 911:/home/phong/Documents/thesis/stm32f4/stm-idf/components/stm32f4xx_hal_driver/stm32f4xx_hal_dac.c ****   assert_param(IS_DAC_ALIGN(Alignment));
 912:/home/phong/Documents/thesis/stm32f4/stm-idf/components/stm32f4xx_hal_driver/stm32f4xx_hal_dac.c ****   assert_param(IS_DAC_DATA(Data));
 913:/home/phong/Documents/thesis/stm32f4/stm-idf/components/stm32f4xx_hal_driver/stm32f4xx_hal_dac.c ****   
 914:/home/phong/Documents/thesis/stm32f4/stm-idf/components/stm32f4xx_hal_driver/stm32f4xx_hal_dac.c ****   tmp = (uint32_t)hdac->Instance; 
 915:/home/phong/Documents/thesis/stm32f4/stm-idf/components/stm32f4xx_hal_driver/stm32f4xx_hal_dac.c ****   if(Channel == DAC_CHANNEL_1)
 916:/home/phong/Documents/thesis/stm32f4/stm-idf/components/stm32f4xx_hal_driver/stm32f4xx_hal_dac.c ****   {
 917:/home/phong/Documents/thesis/stm32f4/stm-idf/components/stm32f4xx_hal_driver/stm32f4xx_hal_dac.c ****     tmp += DAC_DHR12R1_ALIGNMENT(Alignment);
 918:/home/phong/Documents/thesis/stm32f4/stm-idf/components/stm32f4xx_hal_driver/stm32f4xx_hal_dac.c ****   }
 919:/home/phong/Documents/thesis/stm32f4/stm-idf/components/stm32f4xx_hal_driver/stm32f4xx_hal_dac.c ****   else
 920:/home/phong/Documents/thesis/stm32f4/stm-idf/components/stm32f4xx_hal_driver/stm32f4xx_hal_dac.c ****   {
 921:/home/phong/Documents/thesis/stm32f4/stm-idf/components/stm32f4xx_hal_driver/stm32f4xx_hal_dac.c ****     tmp += DAC_DHR12R2_ALIGNMENT(Alignment);
 922:/home/phong/Documents/thesis/stm32f4/stm-idf/components/stm32f4xx_hal_driver/stm32f4xx_hal_dac.c ****   }
 923:/home/phong/Documents/thesis/stm32f4/stm-idf/components/stm32f4xx_hal_driver/stm32f4xx_hal_dac.c **** 
 924:/home/phong/Documents/thesis/stm32f4/stm-idf/components/stm32f4xx_hal_driver/stm32f4xx_hal_dac.c ****   /* Set the DAC channel1 selected data holding register */
 925:/home/phong/Documents/thesis/stm32f4/stm-idf/components/stm32f4xx_hal_driver/stm32f4xx_hal_dac.c ****   *(__IO uint32_t *) tmp = Data;
 926:/home/phong/Documents/thesis/stm32f4/stm-idf/components/stm32f4xx_hal_driver/stm32f4xx_hal_dac.c ****   
 927:/home/phong/Documents/thesis/stm32f4/stm-idf/components/stm32f4xx_hal_driver/stm32f4xx_hal_dac.c ****   /* Return function status */
 928:/home/phong/Documents/thesis/stm32f4/stm-idf/components/stm32f4xx_hal_driver/stm32f4xx_hal_dac.c ****   return HAL_OK;
 929:/home/phong/Documents/thesis/stm32f4/stm-idf/components/stm32f4xx_hal_driver/stm32f4xx_hal_dac.c **** }
 930:/home/phong/Documents/thesis/stm32f4/stm-idf/components/stm32f4xx_hal_driver/stm32f4xx_hal_dac.c **** 
 931:/home/phong/Documents/thesis/stm32f4/stm-idf/components/stm32f4xx_hal_driver/stm32f4xx_hal_dac.c **** /**
 932:/home/phong/Documents/thesis/stm32f4/stm-idf/components/stm32f4xx_hal_driver/stm32f4xx_hal_dac.c ****   * @}
 933:/home/phong/Documents/thesis/stm32f4/stm-idf/components/stm32f4xx_hal_driver/stm32f4xx_hal_dac.c ****   */
 934:/home/phong/Documents/thesis/stm32f4/stm-idf/components/stm32f4xx_hal_driver/stm32f4xx_hal_dac.c **** 
 935:/home/phong/Documents/thesis/stm32f4/stm-idf/components/stm32f4xx_hal_driver/stm32f4xx_hal_dac.c **** /** @defgroup DAC_Exported_Functions_Group4 Peripheral State and Errors functions
 936:/home/phong/Documents/thesis/stm32f4/stm-idf/components/stm32f4xx_hal_driver/stm32f4xx_hal_dac.c ****  *  @brief   Peripheral State and Errors functions 
 937:/home/phong/Documents/thesis/stm32f4/stm-idf/components/stm32f4xx_hal_driver/stm32f4xx_hal_dac.c ****  *
 938:/home/phong/Documents/thesis/stm32f4/stm-idf/components/stm32f4xx_hal_driver/stm32f4xx_hal_dac.c **** @verbatim   
 939:/home/phong/Documents/thesis/stm32f4/stm-idf/components/stm32f4xx_hal_driver/stm32f4xx_hal_dac.c ****   ==============================================================================
 940:/home/phong/Documents/thesis/stm32f4/stm-idf/components/stm32f4xx_hal_driver/stm32f4xx_hal_dac.c ****             ##### Peripheral State and Errors functions #####
 941:/home/phong/Documents/thesis/stm32f4/stm-idf/components/stm32f4xx_hal_driver/stm32f4xx_hal_dac.c ****   ==============================================================================  
 942:/home/phong/Documents/thesis/stm32f4/stm-idf/components/stm32f4xx_hal_driver/stm32f4xx_hal_dac.c ****     [..]
 943:/home/phong/Documents/thesis/stm32f4/stm-idf/components/stm32f4xx_hal_driver/stm32f4xx_hal_dac.c ****     This subsection provides functions allowing to
 944:/home/phong/Documents/thesis/stm32f4/stm-idf/components/stm32f4xx_hal_driver/stm32f4xx_hal_dac.c ****       (+) Check the DAC state.
 945:/home/phong/Documents/thesis/stm32f4/stm-idf/components/stm32f4xx_hal_driver/stm32f4xx_hal_dac.c ****       (+) Check the DAC Errors.
 946:/home/phong/Documents/thesis/stm32f4/stm-idf/components/stm32f4xx_hal_driver/stm32f4xx_hal_dac.c ****         
 947:/home/phong/Documents/thesis/stm32f4/stm-idf/components/stm32f4xx_hal_driver/stm32f4xx_hal_dac.c **** @endverbatim
 948:/home/phong/Documents/thesis/stm32f4/stm-idf/components/stm32f4xx_hal_driver/stm32f4xx_hal_dac.c ****   * @{
 949:/home/phong/Documents/thesis/stm32f4/stm-idf/components/stm32f4xx_hal_driver/stm32f4xx_hal_dac.c ****   */
 950:/home/phong/Documents/thesis/stm32f4/stm-idf/components/stm32f4xx_hal_driver/stm32f4xx_hal_dac.c **** 
 951:/home/phong/Documents/thesis/stm32f4/stm-idf/components/stm32f4xx_hal_driver/stm32f4xx_hal_dac.c **** /**
 952:/home/phong/Documents/thesis/stm32f4/stm-idf/components/stm32f4xx_hal_driver/stm32f4xx_hal_dac.c ****   * @brief  return the DAC state
 953:/home/phong/Documents/thesis/stm32f4/stm-idf/components/stm32f4xx_hal_driver/stm32f4xx_hal_dac.c ****   * @param  hdac pointer to a DAC_HandleTypeDef structure that contains
ARM GAS  /tmp/cc6S1L6Q.s 			page 30


 954:/home/phong/Documents/thesis/stm32f4/stm-idf/components/stm32f4xx_hal_driver/stm32f4xx_hal_dac.c ****   *         the configuration information for the specified DAC.
 955:/home/phong/Documents/thesis/stm32f4/stm-idf/components/stm32f4xx_hal_driver/stm32f4xx_hal_dac.c ****   * @retval HAL state
 956:/home/phong/Documents/thesis/stm32f4/stm-idf/components/stm32f4xx_hal_driver/stm32f4xx_hal_dac.c ****   */
 957:/home/phong/Documents/thesis/stm32f4/stm-idf/components/stm32f4xx_hal_driver/stm32f4xx_hal_dac.c **** HAL_DAC_StateTypeDef HAL_DAC_GetState(DAC_HandleTypeDef* hdac)
 958:/home/phong/Documents/thesis/stm32f4/stm-idf/components/stm32f4xx_hal_driver/stm32f4xx_hal_dac.c **** {
 959:/home/phong/Documents/thesis/stm32f4/stm-idf/components/stm32f4xx_hal_driver/stm32f4xx_hal_dac.c ****   /* Return DAC state */
 960:/home/phong/Documents/thesis/stm32f4/stm-idf/components/stm32f4xx_hal_driver/stm32f4xx_hal_dac.c ****   return hdac->State;
 961:/home/phong/Documents/thesis/stm32f4/stm-idf/components/stm32f4xx_hal_driver/stm32f4xx_hal_dac.c **** }
 962:/home/phong/Documents/thesis/stm32f4/stm-idf/components/stm32f4xx_hal_driver/stm32f4xx_hal_dac.c **** 
 963:/home/phong/Documents/thesis/stm32f4/stm-idf/components/stm32f4xx_hal_driver/stm32f4xx_hal_dac.c **** 
 964:/home/phong/Documents/thesis/stm32f4/stm-idf/components/stm32f4xx_hal_driver/stm32f4xx_hal_dac.c **** /**
 965:/home/phong/Documents/thesis/stm32f4/stm-idf/components/stm32f4xx_hal_driver/stm32f4xx_hal_dac.c ****   * @brief  Return the DAC error code
 966:/home/phong/Documents/thesis/stm32f4/stm-idf/components/stm32f4xx_hal_driver/stm32f4xx_hal_dac.c ****   * @param  hdac pointer to a DAC_HandleTypeDef structure that contains
 967:/home/phong/Documents/thesis/stm32f4/stm-idf/components/stm32f4xx_hal_driver/stm32f4xx_hal_dac.c ****   *         the configuration information for the specified DAC.
 968:/home/phong/Documents/thesis/stm32f4/stm-idf/components/stm32f4xx_hal_driver/stm32f4xx_hal_dac.c ****   * @retval DAC Error Code
 969:/home/phong/Documents/thesis/stm32f4/stm-idf/components/stm32f4xx_hal_driver/stm32f4xx_hal_dac.c ****   */
 970:/home/phong/Documents/thesis/stm32f4/stm-idf/components/stm32f4xx_hal_driver/stm32f4xx_hal_dac.c **** uint32_t HAL_DAC_GetError(DAC_HandleTypeDef *hdac)
 971:/home/phong/Documents/thesis/stm32f4/stm-idf/components/stm32f4xx_hal_driver/stm32f4xx_hal_dac.c **** {
 972:/home/phong/Documents/thesis/stm32f4/stm-idf/components/stm32f4xx_hal_driver/stm32f4xx_hal_dac.c ****   return hdac->ErrorCode;
 973:/home/phong/Documents/thesis/stm32f4/stm-idf/components/stm32f4xx_hal_driver/stm32f4xx_hal_dac.c **** }
 974:/home/phong/Documents/thesis/stm32f4/stm-idf/components/stm32f4xx_hal_driver/stm32f4xx_hal_dac.c **** 
 975:/home/phong/Documents/thesis/stm32f4/stm-idf/components/stm32f4xx_hal_driver/stm32f4xx_hal_dac.c **** /**
 976:/home/phong/Documents/thesis/stm32f4/stm-idf/components/stm32f4xx_hal_driver/stm32f4xx_hal_dac.c ****   * @}
 977:/home/phong/Documents/thesis/stm32f4/stm-idf/components/stm32f4xx_hal_driver/stm32f4xx_hal_dac.c ****   */
 978:/home/phong/Documents/thesis/stm32f4/stm-idf/components/stm32f4xx_hal_driver/stm32f4xx_hal_dac.c **** 
 979:/home/phong/Documents/thesis/stm32f4/stm-idf/components/stm32f4xx_hal_driver/stm32f4xx_hal_dac.c **** /**
 980:/home/phong/Documents/thesis/stm32f4/stm-idf/components/stm32f4xx_hal_driver/stm32f4xx_hal_dac.c ****   * @}
 981:/home/phong/Documents/thesis/stm32f4/stm-idf/components/stm32f4xx_hal_driver/stm32f4xx_hal_dac.c ****   */
 982:/home/phong/Documents/thesis/stm32f4/stm-idf/components/stm32f4xx_hal_driver/stm32f4xx_hal_dac.c **** 
 983:/home/phong/Documents/thesis/stm32f4/stm-idf/components/stm32f4xx_hal_driver/stm32f4xx_hal_dac.c **** /** @addtogroup DAC_Exported_Functions
 984:/home/phong/Documents/thesis/stm32f4/stm-idf/components/stm32f4xx_hal_driver/stm32f4xx_hal_dac.c ****   * @{
 985:/home/phong/Documents/thesis/stm32f4/stm-idf/components/stm32f4xx_hal_driver/stm32f4xx_hal_dac.c ****   */
 986:/home/phong/Documents/thesis/stm32f4/stm-idf/components/stm32f4xx_hal_driver/stm32f4xx_hal_dac.c **** 
 987:/home/phong/Documents/thesis/stm32f4/stm-idf/components/stm32f4xx_hal_driver/stm32f4xx_hal_dac.c **** /** @addtogroup DAC_Exported_Functions_Group1
 988:/home/phong/Documents/thesis/stm32f4/stm-idf/components/stm32f4xx_hal_driver/stm32f4xx_hal_dac.c ****   * @{
 989:/home/phong/Documents/thesis/stm32f4/stm-idf/components/stm32f4xx_hal_driver/stm32f4xx_hal_dac.c ****   */
 990:/home/phong/Documents/thesis/stm32f4/stm-idf/components/stm32f4xx_hal_driver/stm32f4xx_hal_dac.c **** #if (USE_HAL_DAC_REGISTER_CALLBACKS == 1)
 991:/home/phong/Documents/thesis/stm32f4/stm-idf/components/stm32f4xx_hal_driver/stm32f4xx_hal_dac.c **** /**
 992:/home/phong/Documents/thesis/stm32f4/stm-idf/components/stm32f4xx_hal_driver/stm32f4xx_hal_dac.c ****   * @brief  Register a User DAC Callback
 993:/home/phong/Documents/thesis/stm32f4/stm-idf/components/stm32f4xx_hal_driver/stm32f4xx_hal_dac.c ****   *         To be used instead of the weak (surcharged) predefined callback
 994:/home/phong/Documents/thesis/stm32f4/stm-idf/components/stm32f4xx_hal_driver/stm32f4xx_hal_dac.c ****   * @param hdac DAC handle
 995:/home/phong/Documents/thesis/stm32f4/stm-idf/components/stm32f4xx_hal_driver/stm32f4xx_hal_dac.c ****   * @param  CallbackID ID of the callback to be registered
 996:/home/phong/Documents/thesis/stm32f4/stm-idf/components/stm32f4xx_hal_driver/stm32f4xx_hal_dac.c ****   *        This parameter can be one of the following values:
 997:/home/phong/Documents/thesis/stm32f4/stm-idf/components/stm32f4xx_hal_driver/stm32f4xx_hal_dac.c ****   *          @arg @ref HAL_DAC_ERROR_INVALID_CALLBACK   DAC Error Callback ID
 998:/home/phong/Documents/thesis/stm32f4/stm-idf/components/stm32f4xx_hal_driver/stm32f4xx_hal_dac.c ****   *          @arg @ref HAL_DAC_CH1_COMPLETE_CB_ID       DAC CH1 Complete Callback ID
 999:/home/phong/Documents/thesis/stm32f4/stm-idf/components/stm32f4xx_hal_driver/stm32f4xx_hal_dac.c ****   *          @arg @ref HAL_DAC_CH1_HALF_COMPLETE_CB_ID  DAC CH1 Half Complete Callback ID
1000:/home/phong/Documents/thesis/stm32f4/stm-idf/components/stm32f4xx_hal_driver/stm32f4xx_hal_dac.c ****   *          @arg @ref HAL_DAC_CH1_ERROR_ID             DAC CH1 Error Callback ID
1001:/home/phong/Documents/thesis/stm32f4/stm-idf/components/stm32f4xx_hal_driver/stm32f4xx_hal_dac.c ****   *          @arg @ref HAL_DAC_CH1_UNDERRUN_CB_ID       DAC CH1 UnderRun Callback ID
1002:/home/phong/Documents/thesis/stm32f4/stm-idf/components/stm32f4xx_hal_driver/stm32f4xx_hal_dac.c ****   *          @arg @ref HAL_DAC_CH2_COMPLETE_CB_ID       DAC CH2 Complete Callback ID
1003:/home/phong/Documents/thesis/stm32f4/stm-idf/components/stm32f4xx_hal_driver/stm32f4xx_hal_dac.c ****   *          @arg @ref HAL_DAC_CH2_HALF_COMPLETE_CB_ID  DAC CH2 Half Complete Callback ID
1004:/home/phong/Documents/thesis/stm32f4/stm-idf/components/stm32f4xx_hal_driver/stm32f4xx_hal_dac.c ****   *          @arg @ref HAL_DAC_CH2_ERROR_ID             DAC CH2 Error Callback ID
1005:/home/phong/Documents/thesis/stm32f4/stm-idf/components/stm32f4xx_hal_driver/stm32f4xx_hal_dac.c ****   *          @arg @ref HAL_DAC_CH2_UNDERRUN_CB_ID       DAC CH2 UnderRun Callback ID
1006:/home/phong/Documents/thesis/stm32f4/stm-idf/components/stm32f4xx_hal_driver/stm32f4xx_hal_dac.c ****   *          @arg @ref HAL_DAC_MSP_INIT_CB_ID           DAC MSP Init Callback ID
1007:/home/phong/Documents/thesis/stm32f4/stm-idf/components/stm32f4xx_hal_driver/stm32f4xx_hal_dac.c ****   *          @arg @ref HAL_DAC_MSP_DEINIT_CB_ID         DAC MSP DeInit Callback ID
1008:/home/phong/Documents/thesis/stm32f4/stm-idf/components/stm32f4xx_hal_driver/stm32f4xx_hal_dac.c ****   *
1009:/home/phong/Documents/thesis/stm32f4/stm-idf/components/stm32f4xx_hal_driver/stm32f4xx_hal_dac.c ****     * @param pCallback pointer to the Callback function
1010:/home/phong/Documents/thesis/stm32f4/stm-idf/components/stm32f4xx_hal_driver/stm32f4xx_hal_dac.c ****   * @retval status
ARM GAS  /tmp/cc6S1L6Q.s 			page 31


1011:/home/phong/Documents/thesis/stm32f4/stm-idf/components/stm32f4xx_hal_driver/stm32f4xx_hal_dac.c ****   */
1012:/home/phong/Documents/thesis/stm32f4/stm-idf/components/stm32f4xx_hal_driver/stm32f4xx_hal_dac.c **** HAL_StatusTypeDef HAL_DAC_RegisterCallback (DAC_HandleTypeDef *hdac, HAL_DAC_CallbackIDTypeDef Call
1013:/home/phong/Documents/thesis/stm32f4/stm-idf/components/stm32f4xx_hal_driver/stm32f4xx_hal_dac.c **** {
1014:/home/phong/Documents/thesis/stm32f4/stm-idf/components/stm32f4xx_hal_driver/stm32f4xx_hal_dac.c ****   HAL_StatusTypeDef status = HAL_OK;
1015:/home/phong/Documents/thesis/stm32f4/stm-idf/components/stm32f4xx_hal_driver/stm32f4xx_hal_dac.c **** 
1016:/home/phong/Documents/thesis/stm32f4/stm-idf/components/stm32f4xx_hal_driver/stm32f4xx_hal_dac.c ****   if(pCallback == NULL)
1017:/home/phong/Documents/thesis/stm32f4/stm-idf/components/stm32f4xx_hal_driver/stm32f4xx_hal_dac.c ****   {
1018:/home/phong/Documents/thesis/stm32f4/stm-idf/components/stm32f4xx_hal_driver/stm32f4xx_hal_dac.c ****     /* Update the error code */
1019:/home/phong/Documents/thesis/stm32f4/stm-idf/components/stm32f4xx_hal_driver/stm32f4xx_hal_dac.c ****     hdac->ErrorCode |= HAL_DAC_ERROR_INVALID_CALLBACK;
1020:/home/phong/Documents/thesis/stm32f4/stm-idf/components/stm32f4xx_hal_driver/stm32f4xx_hal_dac.c ****     return HAL_ERROR;
1021:/home/phong/Documents/thesis/stm32f4/stm-idf/components/stm32f4xx_hal_driver/stm32f4xx_hal_dac.c ****   }
1022:/home/phong/Documents/thesis/stm32f4/stm-idf/components/stm32f4xx_hal_driver/stm32f4xx_hal_dac.c **** 
1023:/home/phong/Documents/thesis/stm32f4/stm-idf/components/stm32f4xx_hal_driver/stm32f4xx_hal_dac.c ****   /* Process locked */
1024:/home/phong/Documents/thesis/stm32f4/stm-idf/components/stm32f4xx_hal_driver/stm32f4xx_hal_dac.c ****   __HAL_LOCK(hdac);
1025:/home/phong/Documents/thesis/stm32f4/stm-idf/components/stm32f4xx_hal_driver/stm32f4xx_hal_dac.c **** 
1026:/home/phong/Documents/thesis/stm32f4/stm-idf/components/stm32f4xx_hal_driver/stm32f4xx_hal_dac.c ****   if(hdac->State == HAL_DAC_STATE_READY)
1027:/home/phong/Documents/thesis/stm32f4/stm-idf/components/stm32f4xx_hal_driver/stm32f4xx_hal_dac.c ****   {
1028:/home/phong/Documents/thesis/stm32f4/stm-idf/components/stm32f4xx_hal_driver/stm32f4xx_hal_dac.c ****     switch (CallbackID)
1029:/home/phong/Documents/thesis/stm32f4/stm-idf/components/stm32f4xx_hal_driver/stm32f4xx_hal_dac.c ****     {
1030:/home/phong/Documents/thesis/stm32f4/stm-idf/components/stm32f4xx_hal_driver/stm32f4xx_hal_dac.c ****     case HAL_DAC_CH1_COMPLETE_CB_ID :
1031:/home/phong/Documents/thesis/stm32f4/stm-idf/components/stm32f4xx_hal_driver/stm32f4xx_hal_dac.c ****       hdac->ConvCpltCallbackCh1 = pCallback;
1032:/home/phong/Documents/thesis/stm32f4/stm-idf/components/stm32f4xx_hal_driver/stm32f4xx_hal_dac.c ****       break;
1033:/home/phong/Documents/thesis/stm32f4/stm-idf/components/stm32f4xx_hal_driver/stm32f4xx_hal_dac.c ****     case HAL_DAC_CH1_HALF_COMPLETE_CB_ID :
1034:/home/phong/Documents/thesis/stm32f4/stm-idf/components/stm32f4xx_hal_driver/stm32f4xx_hal_dac.c ****       hdac->ConvHalfCpltCallbackCh1 = pCallback;
1035:/home/phong/Documents/thesis/stm32f4/stm-idf/components/stm32f4xx_hal_driver/stm32f4xx_hal_dac.c ****       break;
1036:/home/phong/Documents/thesis/stm32f4/stm-idf/components/stm32f4xx_hal_driver/stm32f4xx_hal_dac.c ****     case HAL_DAC_CH1_ERROR_ID :
1037:/home/phong/Documents/thesis/stm32f4/stm-idf/components/stm32f4xx_hal_driver/stm32f4xx_hal_dac.c ****       hdac->ErrorCallbackCh1 = pCallback;
1038:/home/phong/Documents/thesis/stm32f4/stm-idf/components/stm32f4xx_hal_driver/stm32f4xx_hal_dac.c ****       break;
1039:/home/phong/Documents/thesis/stm32f4/stm-idf/components/stm32f4xx_hal_driver/stm32f4xx_hal_dac.c ****     case HAL_DAC_CH1_UNDERRUN_CB_ID :
1040:/home/phong/Documents/thesis/stm32f4/stm-idf/components/stm32f4xx_hal_driver/stm32f4xx_hal_dac.c ****       hdac->DMAUnderrunCallbackCh1 = pCallback;
1041:/home/phong/Documents/thesis/stm32f4/stm-idf/components/stm32f4xx_hal_driver/stm32f4xx_hal_dac.c ****       break;
1042:/home/phong/Documents/thesis/stm32f4/stm-idf/components/stm32f4xx_hal_driver/stm32f4xx_hal_dac.c ****     case HAL_DAC_CH2_COMPLETE_CB_ID :
1043:/home/phong/Documents/thesis/stm32f4/stm-idf/components/stm32f4xx_hal_driver/stm32f4xx_hal_dac.c ****       hdac->ConvCpltCallbackCh2 = pCallback;
1044:/home/phong/Documents/thesis/stm32f4/stm-idf/components/stm32f4xx_hal_driver/stm32f4xx_hal_dac.c ****       break;
1045:/home/phong/Documents/thesis/stm32f4/stm-idf/components/stm32f4xx_hal_driver/stm32f4xx_hal_dac.c ****     case HAL_DAC_CH2_HALF_COMPLETE_CB_ID :
1046:/home/phong/Documents/thesis/stm32f4/stm-idf/components/stm32f4xx_hal_driver/stm32f4xx_hal_dac.c ****       hdac->ConvHalfCpltCallbackCh2 = pCallback;
1047:/home/phong/Documents/thesis/stm32f4/stm-idf/components/stm32f4xx_hal_driver/stm32f4xx_hal_dac.c ****       break;
1048:/home/phong/Documents/thesis/stm32f4/stm-idf/components/stm32f4xx_hal_driver/stm32f4xx_hal_dac.c ****     case HAL_DAC_CH2_ERROR_ID :
1049:/home/phong/Documents/thesis/stm32f4/stm-idf/components/stm32f4xx_hal_driver/stm32f4xx_hal_dac.c ****       hdac->ErrorCallbackCh2 = pCallback;
1050:/home/phong/Documents/thesis/stm32f4/stm-idf/components/stm32f4xx_hal_driver/stm32f4xx_hal_dac.c ****       break;
1051:/home/phong/Documents/thesis/stm32f4/stm-idf/components/stm32f4xx_hal_driver/stm32f4xx_hal_dac.c ****     case HAL_DAC_CH2_UNDERRUN_CB_ID :
1052:/home/phong/Documents/thesis/stm32f4/stm-idf/components/stm32f4xx_hal_driver/stm32f4xx_hal_dac.c ****       hdac->DMAUnderrunCallbackCh2 = pCallback;
1053:/home/phong/Documents/thesis/stm32f4/stm-idf/components/stm32f4xx_hal_driver/stm32f4xx_hal_dac.c ****       break;
1054:/home/phong/Documents/thesis/stm32f4/stm-idf/components/stm32f4xx_hal_driver/stm32f4xx_hal_dac.c ****     case HAL_DAC_MSP_INIT_CB_ID :
1055:/home/phong/Documents/thesis/stm32f4/stm-idf/components/stm32f4xx_hal_driver/stm32f4xx_hal_dac.c ****       hdac->MspInitCallback = pCallback;
1056:/home/phong/Documents/thesis/stm32f4/stm-idf/components/stm32f4xx_hal_driver/stm32f4xx_hal_dac.c ****       break;
1057:/home/phong/Documents/thesis/stm32f4/stm-idf/components/stm32f4xx_hal_driver/stm32f4xx_hal_dac.c ****     case HAL_DAC_MSP_DEINIT_CB_ID :
1058:/home/phong/Documents/thesis/stm32f4/stm-idf/components/stm32f4xx_hal_driver/stm32f4xx_hal_dac.c ****       hdac->MspDeInitCallback = pCallback;
1059:/home/phong/Documents/thesis/stm32f4/stm-idf/components/stm32f4xx_hal_driver/stm32f4xx_hal_dac.c ****       break;
1060:/home/phong/Documents/thesis/stm32f4/stm-idf/components/stm32f4xx_hal_driver/stm32f4xx_hal_dac.c ****     default :
1061:/home/phong/Documents/thesis/stm32f4/stm-idf/components/stm32f4xx_hal_driver/stm32f4xx_hal_dac.c ****       /* Update the error code */
1062:/home/phong/Documents/thesis/stm32f4/stm-idf/components/stm32f4xx_hal_driver/stm32f4xx_hal_dac.c ****       hdac->ErrorCode |= HAL_DAC_ERROR_INVALID_CALLBACK;
1063:/home/phong/Documents/thesis/stm32f4/stm-idf/components/stm32f4xx_hal_driver/stm32f4xx_hal_dac.c ****       /* update return status */
1064:/home/phong/Documents/thesis/stm32f4/stm-idf/components/stm32f4xx_hal_driver/stm32f4xx_hal_dac.c ****       status =  HAL_ERROR;
1065:/home/phong/Documents/thesis/stm32f4/stm-idf/components/stm32f4xx_hal_driver/stm32f4xx_hal_dac.c ****       break;
1066:/home/phong/Documents/thesis/stm32f4/stm-idf/components/stm32f4xx_hal_driver/stm32f4xx_hal_dac.c ****     }
1067:/home/phong/Documents/thesis/stm32f4/stm-idf/components/stm32f4xx_hal_driver/stm32f4xx_hal_dac.c ****   }
ARM GAS  /tmp/cc6S1L6Q.s 			page 32


1068:/home/phong/Documents/thesis/stm32f4/stm-idf/components/stm32f4xx_hal_driver/stm32f4xx_hal_dac.c ****   else if (hdac->State == HAL_DAC_STATE_RESET)
1069:/home/phong/Documents/thesis/stm32f4/stm-idf/components/stm32f4xx_hal_driver/stm32f4xx_hal_dac.c ****   {
1070:/home/phong/Documents/thesis/stm32f4/stm-idf/components/stm32f4xx_hal_driver/stm32f4xx_hal_dac.c ****     switch (CallbackID)
1071:/home/phong/Documents/thesis/stm32f4/stm-idf/components/stm32f4xx_hal_driver/stm32f4xx_hal_dac.c ****     {
1072:/home/phong/Documents/thesis/stm32f4/stm-idf/components/stm32f4xx_hal_driver/stm32f4xx_hal_dac.c ****     case HAL_DAC_MSP_INIT_CB_ID :
1073:/home/phong/Documents/thesis/stm32f4/stm-idf/components/stm32f4xx_hal_driver/stm32f4xx_hal_dac.c ****       hdac->MspInitCallback = pCallback;
1074:/home/phong/Documents/thesis/stm32f4/stm-idf/components/stm32f4xx_hal_driver/stm32f4xx_hal_dac.c ****       break;
1075:/home/phong/Documents/thesis/stm32f4/stm-idf/components/stm32f4xx_hal_driver/stm32f4xx_hal_dac.c ****     case HAL_DAC_MSP_DEINIT_CB_ID :
1076:/home/phong/Documents/thesis/stm32f4/stm-idf/components/stm32f4xx_hal_driver/stm32f4xx_hal_dac.c ****       hdac->MspDeInitCallback = pCallback;
1077:/home/phong/Documents/thesis/stm32f4/stm-idf/components/stm32f4xx_hal_driver/stm32f4xx_hal_dac.c ****       break;
1078:/home/phong/Documents/thesis/stm32f4/stm-idf/components/stm32f4xx_hal_driver/stm32f4xx_hal_dac.c ****     default :
1079:/home/phong/Documents/thesis/stm32f4/stm-idf/components/stm32f4xx_hal_driver/stm32f4xx_hal_dac.c ****       /* Update the error code */
1080:/home/phong/Documents/thesis/stm32f4/stm-idf/components/stm32f4xx_hal_driver/stm32f4xx_hal_dac.c ****       hdac->ErrorCode |= HAL_DAC_ERROR_INVALID_CALLBACK;
1081:/home/phong/Documents/thesis/stm32f4/stm-idf/components/stm32f4xx_hal_driver/stm32f4xx_hal_dac.c ****       /* update return status */
1082:/home/phong/Documents/thesis/stm32f4/stm-idf/components/stm32f4xx_hal_driver/stm32f4xx_hal_dac.c ****       status =  HAL_ERROR;
1083:/home/phong/Documents/thesis/stm32f4/stm-idf/components/stm32f4xx_hal_driver/stm32f4xx_hal_dac.c ****       break;
1084:/home/phong/Documents/thesis/stm32f4/stm-idf/components/stm32f4xx_hal_driver/stm32f4xx_hal_dac.c ****     }
1085:/home/phong/Documents/thesis/stm32f4/stm-idf/components/stm32f4xx_hal_driver/stm32f4xx_hal_dac.c ****   }
1086:/home/phong/Documents/thesis/stm32f4/stm-idf/components/stm32f4xx_hal_driver/stm32f4xx_hal_dac.c ****   else
1087:/home/phong/Documents/thesis/stm32f4/stm-idf/components/stm32f4xx_hal_driver/stm32f4xx_hal_dac.c ****   {
1088:/home/phong/Documents/thesis/stm32f4/stm-idf/components/stm32f4xx_hal_driver/stm32f4xx_hal_dac.c ****     /* Update the error code */
1089:/home/phong/Documents/thesis/stm32f4/stm-idf/components/stm32f4xx_hal_driver/stm32f4xx_hal_dac.c ****     hdac->ErrorCode |= HAL_DAC_ERROR_INVALID_CALLBACK;
1090:/home/phong/Documents/thesis/stm32f4/stm-idf/components/stm32f4xx_hal_driver/stm32f4xx_hal_dac.c ****     /* update return status */
1091:/home/phong/Documents/thesis/stm32f4/stm-idf/components/stm32f4xx_hal_driver/stm32f4xx_hal_dac.c ****     status =  HAL_ERROR;
1092:/home/phong/Documents/thesis/stm32f4/stm-idf/components/stm32f4xx_hal_driver/stm32f4xx_hal_dac.c ****   }
1093:/home/phong/Documents/thesis/stm32f4/stm-idf/components/stm32f4xx_hal_driver/stm32f4xx_hal_dac.c **** 
1094:/home/phong/Documents/thesis/stm32f4/stm-idf/components/stm32f4xx_hal_driver/stm32f4xx_hal_dac.c ****   /* Release Lock */
1095:/home/phong/Documents/thesis/stm32f4/stm-idf/components/stm32f4xx_hal_driver/stm32f4xx_hal_dac.c ****   __HAL_UNLOCK(hdac);
1096:/home/phong/Documents/thesis/stm32f4/stm-idf/components/stm32f4xx_hal_driver/stm32f4xx_hal_dac.c ****   return status;
1097:/home/phong/Documents/thesis/stm32f4/stm-idf/components/stm32f4xx_hal_driver/stm32f4xx_hal_dac.c **** }
1098:/home/phong/Documents/thesis/stm32f4/stm-idf/components/stm32f4xx_hal_driver/stm32f4xx_hal_dac.c **** 
1099:/home/phong/Documents/thesis/stm32f4/stm-idf/components/stm32f4xx_hal_driver/stm32f4xx_hal_dac.c **** /**
1100:/home/phong/Documents/thesis/stm32f4/stm-idf/components/stm32f4xx_hal_driver/stm32f4xx_hal_dac.c ****   * @brief  Unregister a User DAC Callback
1101:/home/phong/Documents/thesis/stm32f4/stm-idf/components/stm32f4xx_hal_driver/stm32f4xx_hal_dac.c ****   *         DAC Callback is redirected to the weak (surcharged) predefined callback
1102:/home/phong/Documents/thesis/stm32f4/stm-idf/components/stm32f4xx_hal_driver/stm32f4xx_hal_dac.c ****   * @param hdac DAC handle
1103:/home/phong/Documents/thesis/stm32f4/stm-idf/components/stm32f4xx_hal_driver/stm32f4xx_hal_dac.c ****   * @param  CallbackID ID of the callback to be unregistered
1104:/home/phong/Documents/thesis/stm32f4/stm-idf/components/stm32f4xx_hal_driver/stm32f4xx_hal_dac.c ****   *        This parameter can be one of the following values:
1105:/home/phong/Documents/thesis/stm32f4/stm-idf/components/stm32f4xx_hal_driver/stm32f4xx_hal_dac.c ****   *          @arg @ref HAL_DAC_CH1_COMPLETE_CB_ID          DAC CH1 tranfer Complete Callback ID
1106:/home/phong/Documents/thesis/stm32f4/stm-idf/components/stm32f4xx_hal_driver/stm32f4xx_hal_dac.c ****   *          @arg @ref HAL_DAC_CH1_HALF_COMPLETE_CB_ID     DAC CH1 Half Complete Callback ID
1107:/home/phong/Documents/thesis/stm32f4/stm-idf/components/stm32f4xx_hal_driver/stm32f4xx_hal_dac.c ****   *          @arg @ref HAL_DAC_CH1_ERROR_ID                DAC CH1 Error Callback ID
1108:/home/phong/Documents/thesis/stm32f4/stm-idf/components/stm32f4xx_hal_driver/stm32f4xx_hal_dac.c ****   *          @arg @ref HAL_DAC_CH1_UNDERRUN_CB_ID          DAC CH1 UnderRun Callback ID
1109:/home/phong/Documents/thesis/stm32f4/stm-idf/components/stm32f4xx_hal_driver/stm32f4xx_hal_dac.c ****   *          @arg @ref HAL_DAC_CH2_COMPLETE_CB_ID          DAC CH2 Complete Callback ID
1110:/home/phong/Documents/thesis/stm32f4/stm-idf/components/stm32f4xx_hal_driver/stm32f4xx_hal_dac.c ****   *          @arg @ref HAL_DAC_CH2_HALF_COMPLETE_CB_ID     DAC CH2 Half Complete Callback ID
1111:/home/phong/Documents/thesis/stm32f4/stm-idf/components/stm32f4xx_hal_driver/stm32f4xx_hal_dac.c ****   *          @arg @ref HAL_DAC_CH2_ERROR_ID                DAC CH2 Error Callback ID
1112:/home/phong/Documents/thesis/stm32f4/stm-idf/components/stm32f4xx_hal_driver/stm32f4xx_hal_dac.c ****   *          @arg @ref HAL_DAC_CH2_UNDERRUN_CB_ID          DAC CH2 UnderRun Callback ID
1113:/home/phong/Documents/thesis/stm32f4/stm-idf/components/stm32f4xx_hal_driver/stm32f4xx_hal_dac.c ****   *          @arg @ref HAL_DAC_MSP_INIT_CB_ID              DAC MSP Init Callback ID
1114:/home/phong/Documents/thesis/stm32f4/stm-idf/components/stm32f4xx_hal_driver/stm32f4xx_hal_dac.c ****   *          @arg @ref HAL_DAC_MSP_DEINIT_CB_ID            DAC MSP DeInit Callback ID
1115:/home/phong/Documents/thesis/stm32f4/stm-idf/components/stm32f4xx_hal_driver/stm32f4xx_hal_dac.c ****   *          @arg @ref HAL_DAC_ALL_CB_ID                   DAC All callbacks
1116:/home/phong/Documents/thesis/stm32f4/stm-idf/components/stm32f4xx_hal_driver/stm32f4xx_hal_dac.c ****   * @retval status
1117:/home/phong/Documents/thesis/stm32f4/stm-idf/components/stm32f4xx_hal_driver/stm32f4xx_hal_dac.c ****   */
1118:/home/phong/Documents/thesis/stm32f4/stm-idf/components/stm32f4xx_hal_driver/stm32f4xx_hal_dac.c **** HAL_StatusTypeDef HAL_DAC_UnRegisterCallback (DAC_HandleTypeDef *hdac, HAL_DAC_CallbackIDTypeDef Ca
1119:/home/phong/Documents/thesis/stm32f4/stm-idf/components/stm32f4xx_hal_driver/stm32f4xx_hal_dac.c **** {
1120:/home/phong/Documents/thesis/stm32f4/stm-idf/components/stm32f4xx_hal_driver/stm32f4xx_hal_dac.c ****   HAL_StatusTypeDef status = HAL_OK;
1121:/home/phong/Documents/thesis/stm32f4/stm-idf/components/stm32f4xx_hal_driver/stm32f4xx_hal_dac.c **** 
1122:/home/phong/Documents/thesis/stm32f4/stm-idf/components/stm32f4xx_hal_driver/stm32f4xx_hal_dac.c ****   /* Process locked */
1123:/home/phong/Documents/thesis/stm32f4/stm-idf/components/stm32f4xx_hal_driver/stm32f4xx_hal_dac.c ****   __HAL_LOCK(hdac);
1124:/home/phong/Documents/thesis/stm32f4/stm-idf/components/stm32f4xx_hal_driver/stm32f4xx_hal_dac.c **** 
ARM GAS  /tmp/cc6S1L6Q.s 			page 33


1125:/home/phong/Documents/thesis/stm32f4/stm-idf/components/stm32f4xx_hal_driver/stm32f4xx_hal_dac.c ****   if(hdac->State == HAL_DAC_STATE_READY)
1126:/home/phong/Documents/thesis/stm32f4/stm-idf/components/stm32f4xx_hal_driver/stm32f4xx_hal_dac.c ****   {
1127:/home/phong/Documents/thesis/stm32f4/stm-idf/components/stm32f4xx_hal_driver/stm32f4xx_hal_dac.c ****     switch (CallbackID)
1128:/home/phong/Documents/thesis/stm32f4/stm-idf/components/stm32f4xx_hal_driver/stm32f4xx_hal_dac.c ****     {
1129:/home/phong/Documents/thesis/stm32f4/stm-idf/components/stm32f4xx_hal_driver/stm32f4xx_hal_dac.c ****     case HAL_DAC_CH1_COMPLETE_CB_ID :
1130:/home/phong/Documents/thesis/stm32f4/stm-idf/components/stm32f4xx_hal_driver/stm32f4xx_hal_dac.c ****       hdac->ConvCpltCallbackCh1 = HAL_DAC_ConvCpltCallbackCh1;
1131:/home/phong/Documents/thesis/stm32f4/stm-idf/components/stm32f4xx_hal_driver/stm32f4xx_hal_dac.c ****       break;
1132:/home/phong/Documents/thesis/stm32f4/stm-idf/components/stm32f4xx_hal_driver/stm32f4xx_hal_dac.c ****     case HAL_DAC_CH1_HALF_COMPLETE_CB_ID :
1133:/home/phong/Documents/thesis/stm32f4/stm-idf/components/stm32f4xx_hal_driver/stm32f4xx_hal_dac.c ****       hdac->ConvHalfCpltCallbackCh1 = HAL_DAC_ConvHalfCpltCallbackCh1;
1134:/home/phong/Documents/thesis/stm32f4/stm-idf/components/stm32f4xx_hal_driver/stm32f4xx_hal_dac.c ****       break;
1135:/home/phong/Documents/thesis/stm32f4/stm-idf/components/stm32f4xx_hal_driver/stm32f4xx_hal_dac.c ****     case HAL_DAC_CH1_ERROR_ID :
1136:/home/phong/Documents/thesis/stm32f4/stm-idf/components/stm32f4xx_hal_driver/stm32f4xx_hal_dac.c ****       hdac->ErrorCallbackCh1 = HAL_DAC_ErrorCallbackCh1;
1137:/home/phong/Documents/thesis/stm32f4/stm-idf/components/stm32f4xx_hal_driver/stm32f4xx_hal_dac.c ****       break;
1138:/home/phong/Documents/thesis/stm32f4/stm-idf/components/stm32f4xx_hal_driver/stm32f4xx_hal_dac.c ****     case HAL_DAC_CH1_UNDERRUN_CB_ID :
1139:/home/phong/Documents/thesis/stm32f4/stm-idf/components/stm32f4xx_hal_driver/stm32f4xx_hal_dac.c ****       hdac->DMAUnderrunCallbackCh1 = HAL_DAC_DMAUnderrunCallbackCh1;
1140:/home/phong/Documents/thesis/stm32f4/stm-idf/components/stm32f4xx_hal_driver/stm32f4xx_hal_dac.c ****       break;
1141:/home/phong/Documents/thesis/stm32f4/stm-idf/components/stm32f4xx_hal_driver/stm32f4xx_hal_dac.c ****     case HAL_DAC_CH2_COMPLETE_CB_ID :
1142:/home/phong/Documents/thesis/stm32f4/stm-idf/components/stm32f4xx_hal_driver/stm32f4xx_hal_dac.c ****       hdac->ConvCpltCallbackCh2 = HAL_DACEx_ConvCpltCallbackCh2;
1143:/home/phong/Documents/thesis/stm32f4/stm-idf/components/stm32f4xx_hal_driver/stm32f4xx_hal_dac.c ****       break;
1144:/home/phong/Documents/thesis/stm32f4/stm-idf/components/stm32f4xx_hal_driver/stm32f4xx_hal_dac.c ****     case HAL_DAC_CH2_HALF_COMPLETE_CB_ID :
1145:/home/phong/Documents/thesis/stm32f4/stm-idf/components/stm32f4xx_hal_driver/stm32f4xx_hal_dac.c ****       hdac->ConvHalfCpltCallbackCh2 = HAL_DACEx_ConvHalfCpltCallbackCh2;
1146:/home/phong/Documents/thesis/stm32f4/stm-idf/components/stm32f4xx_hal_driver/stm32f4xx_hal_dac.c ****       break;
1147:/home/phong/Documents/thesis/stm32f4/stm-idf/components/stm32f4xx_hal_driver/stm32f4xx_hal_dac.c ****     case HAL_DAC_CH2_ERROR_ID :
1148:/home/phong/Documents/thesis/stm32f4/stm-idf/components/stm32f4xx_hal_driver/stm32f4xx_hal_dac.c ****       hdac->ErrorCallbackCh2 = HAL_DACEx_ErrorCallbackCh2;
1149:/home/phong/Documents/thesis/stm32f4/stm-idf/components/stm32f4xx_hal_driver/stm32f4xx_hal_dac.c ****       break;
1150:/home/phong/Documents/thesis/stm32f4/stm-idf/components/stm32f4xx_hal_driver/stm32f4xx_hal_dac.c ****     case HAL_DAC_CH2_UNDERRUN_CB_ID :
1151:/home/phong/Documents/thesis/stm32f4/stm-idf/components/stm32f4xx_hal_driver/stm32f4xx_hal_dac.c ****       hdac->DMAUnderrunCallbackCh2 = HAL_DACEx_DMAUnderrunCallbackCh2;
1152:/home/phong/Documents/thesis/stm32f4/stm-idf/components/stm32f4xx_hal_driver/stm32f4xx_hal_dac.c ****       break;
1153:/home/phong/Documents/thesis/stm32f4/stm-idf/components/stm32f4xx_hal_driver/stm32f4xx_hal_dac.c ****     case HAL_DAC_MSP_INIT_CB_ID :
1154:/home/phong/Documents/thesis/stm32f4/stm-idf/components/stm32f4xx_hal_driver/stm32f4xx_hal_dac.c ****       hdac->MspInitCallback = HAL_DAC_MspInit;
1155:/home/phong/Documents/thesis/stm32f4/stm-idf/components/stm32f4xx_hal_driver/stm32f4xx_hal_dac.c ****       break;
1156:/home/phong/Documents/thesis/stm32f4/stm-idf/components/stm32f4xx_hal_driver/stm32f4xx_hal_dac.c ****     case HAL_DAC_MSP_DEINIT_CB_ID :
1157:/home/phong/Documents/thesis/stm32f4/stm-idf/components/stm32f4xx_hal_driver/stm32f4xx_hal_dac.c ****       hdac->MspDeInitCallback = HAL_DAC_MspDeInit;
1158:/home/phong/Documents/thesis/stm32f4/stm-idf/components/stm32f4xx_hal_driver/stm32f4xx_hal_dac.c ****       break;
1159:/home/phong/Documents/thesis/stm32f4/stm-idf/components/stm32f4xx_hal_driver/stm32f4xx_hal_dac.c ****     case HAL_DAC_ALL_CB_ID :
1160:/home/phong/Documents/thesis/stm32f4/stm-idf/components/stm32f4xx_hal_driver/stm32f4xx_hal_dac.c ****       hdac->ConvCpltCallbackCh1 = HAL_DAC_ConvCpltCallbackCh1;
1161:/home/phong/Documents/thesis/stm32f4/stm-idf/components/stm32f4xx_hal_driver/stm32f4xx_hal_dac.c ****       hdac->ConvHalfCpltCallbackCh1 = HAL_DAC_ConvHalfCpltCallbackCh1;
1162:/home/phong/Documents/thesis/stm32f4/stm-idf/components/stm32f4xx_hal_driver/stm32f4xx_hal_dac.c ****       hdac->ErrorCallbackCh1 = HAL_DAC_ErrorCallbackCh1;
1163:/home/phong/Documents/thesis/stm32f4/stm-idf/components/stm32f4xx_hal_driver/stm32f4xx_hal_dac.c ****       hdac->DMAUnderrunCallbackCh1 = HAL_DAC_DMAUnderrunCallbackCh1;
1164:/home/phong/Documents/thesis/stm32f4/stm-idf/components/stm32f4xx_hal_driver/stm32f4xx_hal_dac.c ****       hdac->ConvCpltCallbackCh2 = HAL_DACEx_ConvCpltCallbackCh2;
1165:/home/phong/Documents/thesis/stm32f4/stm-idf/components/stm32f4xx_hal_driver/stm32f4xx_hal_dac.c ****       hdac->ConvHalfCpltCallbackCh2 = HAL_DACEx_ConvHalfCpltCallbackCh2;
1166:/home/phong/Documents/thesis/stm32f4/stm-idf/components/stm32f4xx_hal_driver/stm32f4xx_hal_dac.c ****       hdac->ErrorCallbackCh2 = HAL_DACEx_ErrorCallbackCh2;
1167:/home/phong/Documents/thesis/stm32f4/stm-idf/components/stm32f4xx_hal_driver/stm32f4xx_hal_dac.c ****       hdac->DMAUnderrunCallbackCh2 = HAL_DACEx_DMAUnderrunCallbackCh2;
1168:/home/phong/Documents/thesis/stm32f4/stm-idf/components/stm32f4xx_hal_driver/stm32f4xx_hal_dac.c ****       hdac->MspInitCallback = HAL_DAC_MspInit;
1169:/home/phong/Documents/thesis/stm32f4/stm-idf/components/stm32f4xx_hal_driver/stm32f4xx_hal_dac.c ****       hdac->MspDeInitCallback = HAL_DAC_MspDeInit;
1170:/home/phong/Documents/thesis/stm32f4/stm-idf/components/stm32f4xx_hal_driver/stm32f4xx_hal_dac.c ****       break;
1171:/home/phong/Documents/thesis/stm32f4/stm-idf/components/stm32f4xx_hal_driver/stm32f4xx_hal_dac.c ****     default :
1172:/home/phong/Documents/thesis/stm32f4/stm-idf/components/stm32f4xx_hal_driver/stm32f4xx_hal_dac.c ****       /* Update the error code */
1173:/home/phong/Documents/thesis/stm32f4/stm-idf/components/stm32f4xx_hal_driver/stm32f4xx_hal_dac.c ****       hdac->ErrorCode |= HAL_DAC_ERROR_INVALID_CALLBACK;
1174:/home/phong/Documents/thesis/stm32f4/stm-idf/components/stm32f4xx_hal_driver/stm32f4xx_hal_dac.c ****       /* update return status */
1175:/home/phong/Documents/thesis/stm32f4/stm-idf/components/stm32f4xx_hal_driver/stm32f4xx_hal_dac.c ****       status =  HAL_ERROR;
1176:/home/phong/Documents/thesis/stm32f4/stm-idf/components/stm32f4xx_hal_driver/stm32f4xx_hal_dac.c ****       break;
1177:/home/phong/Documents/thesis/stm32f4/stm-idf/components/stm32f4xx_hal_driver/stm32f4xx_hal_dac.c ****     }
1178:/home/phong/Documents/thesis/stm32f4/stm-idf/components/stm32f4xx_hal_driver/stm32f4xx_hal_dac.c ****   }
1179:/home/phong/Documents/thesis/stm32f4/stm-idf/components/stm32f4xx_hal_driver/stm32f4xx_hal_dac.c ****   else if (hdac->State == HAL_DAC_STATE_RESET)
1180:/home/phong/Documents/thesis/stm32f4/stm-idf/components/stm32f4xx_hal_driver/stm32f4xx_hal_dac.c ****   {
1181:/home/phong/Documents/thesis/stm32f4/stm-idf/components/stm32f4xx_hal_driver/stm32f4xx_hal_dac.c ****     switch (CallbackID)
ARM GAS  /tmp/cc6S1L6Q.s 			page 34


1182:/home/phong/Documents/thesis/stm32f4/stm-idf/components/stm32f4xx_hal_driver/stm32f4xx_hal_dac.c ****     {
1183:/home/phong/Documents/thesis/stm32f4/stm-idf/components/stm32f4xx_hal_driver/stm32f4xx_hal_dac.c ****     case HAL_DAC_MSP_INIT_CB_ID :
1184:/home/phong/Documents/thesis/stm32f4/stm-idf/components/stm32f4xx_hal_driver/stm32f4xx_hal_dac.c ****       hdac->MspInitCallback = HAL_DAC_MspInit;
1185:/home/phong/Documents/thesis/stm32f4/stm-idf/components/stm32f4xx_hal_driver/stm32f4xx_hal_dac.c ****       break;
1186:/home/phong/Documents/thesis/stm32f4/stm-idf/components/stm32f4xx_hal_driver/stm32f4xx_hal_dac.c ****     case HAL_DAC_MSP_DEINIT_CB_ID :
1187:/home/phong/Documents/thesis/stm32f4/stm-idf/components/stm32f4xx_hal_driver/stm32f4xx_hal_dac.c ****       hdac->MspDeInitCallback = HAL_DAC_MspDeInit;
1188:/home/phong/Documents/thesis/stm32f4/stm-idf/components/stm32f4xx_hal_driver/stm32f4xx_hal_dac.c ****       break;
1189:/home/phong/Documents/thesis/stm32f4/stm-idf/components/stm32f4xx_hal_driver/stm32f4xx_hal_dac.c ****     default :
1190:/home/phong/Documents/thesis/stm32f4/stm-idf/components/stm32f4xx_hal_driver/stm32f4xx_hal_dac.c ****       /* Update the error code */
1191:/home/phong/Documents/thesis/stm32f4/stm-idf/components/stm32f4xx_hal_driver/stm32f4xx_hal_dac.c ****       hdac->ErrorCode |= HAL_DAC_ERROR_INVALID_CALLBACK;
1192:/home/phong/Documents/thesis/stm32f4/stm-idf/components/stm32f4xx_hal_driver/stm32f4xx_hal_dac.c ****       /* update return status */
1193:/home/phong/Documents/thesis/stm32f4/stm-idf/components/stm32f4xx_hal_driver/stm32f4xx_hal_dac.c ****       status =  HAL_ERROR;
1194:/home/phong/Documents/thesis/stm32f4/stm-idf/components/stm32f4xx_hal_driver/stm32f4xx_hal_dac.c ****       break;
1195:/home/phong/Documents/thesis/stm32f4/stm-idf/components/stm32f4xx_hal_driver/stm32f4xx_hal_dac.c ****     }
1196:/home/phong/Documents/thesis/stm32f4/stm-idf/components/stm32f4xx_hal_driver/stm32f4xx_hal_dac.c ****   }
1197:/home/phong/Documents/thesis/stm32f4/stm-idf/components/stm32f4xx_hal_driver/stm32f4xx_hal_dac.c ****   else
1198:/home/phong/Documents/thesis/stm32f4/stm-idf/components/stm32f4xx_hal_driver/stm32f4xx_hal_dac.c ****   {
1199:/home/phong/Documents/thesis/stm32f4/stm-idf/components/stm32f4xx_hal_driver/stm32f4xx_hal_dac.c ****     /* Update the error code */
1200:/home/phong/Documents/thesis/stm32f4/stm-idf/components/stm32f4xx_hal_driver/stm32f4xx_hal_dac.c ****     hdac->ErrorCode |= HAL_DAC_ERROR_INVALID_CALLBACK;
1201:/home/phong/Documents/thesis/stm32f4/stm-idf/components/stm32f4xx_hal_driver/stm32f4xx_hal_dac.c ****     /* update return status */
1202:/home/phong/Documents/thesis/stm32f4/stm-idf/components/stm32f4xx_hal_driver/stm32f4xx_hal_dac.c ****     status =  HAL_ERROR;
1203:/home/phong/Documents/thesis/stm32f4/stm-idf/components/stm32f4xx_hal_driver/stm32f4xx_hal_dac.c ****   }
1204:/home/phong/Documents/thesis/stm32f4/stm-idf/components/stm32f4xx_hal_driver/stm32f4xx_hal_dac.c **** 
1205:/home/phong/Documents/thesis/stm32f4/stm-idf/components/stm32f4xx_hal_driver/stm32f4xx_hal_dac.c ****   /* Release Lock */
1206:/home/phong/Documents/thesis/stm32f4/stm-idf/components/stm32f4xx_hal_driver/stm32f4xx_hal_dac.c ****   __HAL_UNLOCK(hdac);
1207:/home/phong/Documents/thesis/stm32f4/stm-idf/components/stm32f4xx_hal_driver/stm32f4xx_hal_dac.c ****   return status;
1208:/home/phong/Documents/thesis/stm32f4/stm-idf/components/stm32f4xx_hal_driver/stm32f4xx_hal_dac.c **** }
1209:/home/phong/Documents/thesis/stm32f4/stm-idf/components/stm32f4xx_hal_driver/stm32f4xx_hal_dac.c **** #endif /* USE_HAL_DAC_REGISTER_CALLBACKS */
1210:/home/phong/Documents/thesis/stm32f4/stm-idf/components/stm32f4xx_hal_driver/stm32f4xx_hal_dac.c **** 
1211:/home/phong/Documents/thesis/stm32f4/stm-idf/components/stm32f4xx_hal_driver/stm32f4xx_hal_dac.c **** /**
1212:/home/phong/Documents/thesis/stm32f4/stm-idf/components/stm32f4xx_hal_driver/stm32f4xx_hal_dac.c ****   * @}
1213:/home/phong/Documents/thesis/stm32f4/stm-idf/components/stm32f4xx_hal_driver/stm32f4xx_hal_dac.c ****   */
1214:/home/phong/Documents/thesis/stm32f4/stm-idf/components/stm32f4xx_hal_driver/stm32f4xx_hal_dac.c **** 
1215:/home/phong/Documents/thesis/stm32f4/stm-idf/components/stm32f4xx_hal_driver/stm32f4xx_hal_dac.c **** /**
1216:/home/phong/Documents/thesis/stm32f4/stm-idf/components/stm32f4xx_hal_driver/stm32f4xx_hal_dac.c ****   * @}
1217:/home/phong/Documents/thesis/stm32f4/stm-idf/components/stm32f4xx_hal_driver/stm32f4xx_hal_dac.c ****   */
1218:/home/phong/Documents/thesis/stm32f4/stm-idf/components/stm32f4xx_hal_driver/stm32f4xx_hal_dac.c **** 
1219:/home/phong/Documents/thesis/stm32f4/stm-idf/components/stm32f4xx_hal_driver/stm32f4xx_hal_dac.c **** /** @addtogroup DAC_Private_Functions
1220:/home/phong/Documents/thesis/stm32f4/stm-idf/components/stm32f4xx_hal_driver/stm32f4xx_hal_dac.c ****   * @{
1221:/home/phong/Documents/thesis/stm32f4/stm-idf/components/stm32f4xx_hal_driver/stm32f4xx_hal_dac.c ****   */
1222:/home/phong/Documents/thesis/stm32f4/stm-idf/components/stm32f4xx_hal_driver/stm32f4xx_hal_dac.c **** 
1223:/home/phong/Documents/thesis/stm32f4/stm-idf/components/stm32f4xx_hal_driver/stm32f4xx_hal_dac.c **** /**
1224:/home/phong/Documents/thesis/stm32f4/stm-idf/components/stm32f4xx_hal_driver/stm32f4xx_hal_dac.c ****   * @brief  DMA conversion complete callback. 
1225:/home/phong/Documents/thesis/stm32f4/stm-idf/components/stm32f4xx_hal_driver/stm32f4xx_hal_dac.c ****   * @param  hdma pointer to a DMA_HandleTypeDef structure that contains
1226:/home/phong/Documents/thesis/stm32f4/stm-idf/components/stm32f4xx_hal_driver/stm32f4xx_hal_dac.c ****   *                the configuration information for the specified DMA module.
1227:/home/phong/Documents/thesis/stm32f4/stm-idf/components/stm32f4xx_hal_driver/stm32f4xx_hal_dac.c ****   * @retval None
1228:/home/phong/Documents/thesis/stm32f4/stm-idf/components/stm32f4xx_hal_driver/stm32f4xx_hal_dac.c ****   */
1229:/home/phong/Documents/thesis/stm32f4/stm-idf/components/stm32f4xx_hal_driver/stm32f4xx_hal_dac.c **** static void DAC_DMAConvCpltCh1(DMA_HandleTypeDef *hdma)   
1230:/home/phong/Documents/thesis/stm32f4/stm-idf/components/stm32f4xx_hal_driver/stm32f4xx_hal_dac.c **** {
 668              		.loc 1 1230 0
 669              		.cfi_startproc
 670              		@ args = 0, pretend = 0, frame = 0
 671              		@ frame_needed = 0, uses_anonymous_args = 0
 672              	.LVL67:
 673              		.loc 1 1230 0
 674 0000 10B5     		push	{r4, lr}
 675              	.LCFI12:
ARM GAS  /tmp/cc6S1L6Q.s 			page 35


 676              		.cfi_def_cfa_offset 8
 677              		.cfi_offset 4, -8
 678              		.cfi_offset 14, -4
1231:/home/phong/Documents/thesis/stm32f4/stm-idf/components/stm32f4xx_hal_driver/stm32f4xx_hal_dac.c ****   DAC_HandleTypeDef* hdac = ( DAC_HandleTypeDef* )((DMA_HandleTypeDef* )hdma)->Parent;
 679              		.loc 1 1231 0
 680 0002 846B     		ldr	r4, [r0, #56]
 681              	.LVL68:
1232:/home/phong/Documents/thesis/stm32f4/stm-idf/components/stm32f4xx_hal_driver/stm32f4xx_hal_dac.c ****   
1233:/home/phong/Documents/thesis/stm32f4/stm-idf/components/stm32f4xx_hal_driver/stm32f4xx_hal_dac.c **** #if (USE_HAL_DAC_REGISTER_CALLBACKS == 1)
1234:/home/phong/Documents/thesis/stm32f4/stm-idf/components/stm32f4xx_hal_driver/stm32f4xx_hal_dac.c ****   hdac->ConvCpltCallbackCh1(hdac);
1235:/home/phong/Documents/thesis/stm32f4/stm-idf/components/stm32f4xx_hal_driver/stm32f4xx_hal_dac.c **** #else
1236:/home/phong/Documents/thesis/stm32f4/stm-idf/components/stm32f4xx_hal_driver/stm32f4xx_hal_dac.c ****   HAL_DAC_ConvCpltCallbackCh1(hdac); 
 682              		.loc 1 1236 0
 683 0004 2046     		mov	r0, r4
 684              	.LVL69:
 685 0006 FFF7FEFF 		bl	HAL_DAC_ConvCpltCallbackCh1
 686              	.LVL70:
1237:/home/phong/Documents/thesis/stm32f4/stm-idf/components/stm32f4xx_hal_driver/stm32f4xx_hal_dac.c **** #endif /* USE_HAL_DAC_REGISTER_CALLBACKS */
1238:/home/phong/Documents/thesis/stm32f4/stm-idf/components/stm32f4xx_hal_driver/stm32f4xx_hal_dac.c ****   
1239:/home/phong/Documents/thesis/stm32f4/stm-idf/components/stm32f4xx_hal_driver/stm32f4xx_hal_dac.c ****   hdac->State= HAL_DAC_STATE_READY;
 687              		.loc 1 1239 0
 688 000a 0123     		movs	r3, #1
 689 000c 2371     		strb	r3, [r4, #4]
 690 000e 10BD     		pop	{r4, pc}
 691              		.cfi_endproc
 692              	.LFE148:
 694              		.section	.text.HAL_DAC_ConvHalfCpltCallbackCh1,"ax",%progbits
 695              		.align	1
 696              		.weak	HAL_DAC_ConvHalfCpltCallbackCh1
 697              		.syntax unified
 698              		.thumb
 699              		.thumb_func
 700              		.fpu fpv4-sp-d16
 702              	HAL_DAC_ConvHalfCpltCallbackCh1:
 703              	.LFB141:
 781:/home/phong/Documents/thesis/stm32f4/stm-idf/components/stm32f4xx_hal_driver/stm32f4xx_hal_dac.c ****   /* Prevent unused argument(s) compilation warning */
 704              		.loc 1 781 0
 705              		.cfi_startproc
 706              		@ args = 0, pretend = 0, frame = 0
 707              		@ frame_needed = 0, uses_anonymous_args = 0
 708              		@ link register save eliminated.
 709              	.LVL71:
 710 0000 7047     		bx	lr
 711              		.cfi_endproc
 712              	.LFE141:
 714              		.section	.text.DAC_DMAHalfConvCpltCh1,"ax",%progbits
 715              		.align	1
 716              		.syntax unified
 717              		.thumb
 718              		.thumb_func
 719              		.fpu fpv4-sp-d16
 721              	DAC_DMAHalfConvCpltCh1:
 722              	.LFB149:
1240:/home/phong/Documents/thesis/stm32f4/stm-idf/components/stm32f4xx_hal_driver/stm32f4xx_hal_dac.c **** }
1241:/home/phong/Documents/thesis/stm32f4/stm-idf/components/stm32f4xx_hal_driver/stm32f4xx_hal_dac.c **** 
1242:/home/phong/Documents/thesis/stm32f4/stm-idf/components/stm32f4xx_hal_driver/stm32f4xx_hal_dac.c **** /**
1243:/home/phong/Documents/thesis/stm32f4/stm-idf/components/stm32f4xx_hal_driver/stm32f4xx_hal_dac.c ****   * @brief  DMA half transfer complete callback. 
ARM GAS  /tmp/cc6S1L6Q.s 			page 36


1244:/home/phong/Documents/thesis/stm32f4/stm-idf/components/stm32f4xx_hal_driver/stm32f4xx_hal_dac.c ****   * @param  hdma pointer to a DMA_HandleTypeDef structure that contains
1245:/home/phong/Documents/thesis/stm32f4/stm-idf/components/stm32f4xx_hal_driver/stm32f4xx_hal_dac.c ****   *                the configuration information for the specified DMA module.
1246:/home/phong/Documents/thesis/stm32f4/stm-idf/components/stm32f4xx_hal_driver/stm32f4xx_hal_dac.c ****   * @retval None
1247:/home/phong/Documents/thesis/stm32f4/stm-idf/components/stm32f4xx_hal_driver/stm32f4xx_hal_dac.c ****   */
1248:/home/phong/Documents/thesis/stm32f4/stm-idf/components/stm32f4xx_hal_driver/stm32f4xx_hal_dac.c **** static void DAC_DMAHalfConvCpltCh1(DMA_HandleTypeDef *hdma)   
1249:/home/phong/Documents/thesis/stm32f4/stm-idf/components/stm32f4xx_hal_driver/stm32f4xx_hal_dac.c **** {
 723              		.loc 1 1249 0
 724              		.cfi_startproc
 725              		@ args = 0, pretend = 0, frame = 0
 726              		@ frame_needed = 0, uses_anonymous_args = 0
 727              	.LVL72:
 728              		.loc 1 1249 0
 729 0000 08B5     		push	{r3, lr}
 730              	.LCFI13:
 731              		.cfi_def_cfa_offset 8
 732              		.cfi_offset 3, -8
 733              		.cfi_offset 14, -4
 734              	.LVL73:
1250:/home/phong/Documents/thesis/stm32f4/stm-idf/components/stm32f4xx_hal_driver/stm32f4xx_hal_dac.c ****     DAC_HandleTypeDef* hdac = ( DAC_HandleTypeDef* )((DMA_HandleTypeDef* )hdma)->Parent;
1251:/home/phong/Documents/thesis/stm32f4/stm-idf/components/stm32f4xx_hal_driver/stm32f4xx_hal_dac.c ****     /* Conversion complete callback */
1252:/home/phong/Documents/thesis/stm32f4/stm-idf/components/stm32f4xx_hal_driver/stm32f4xx_hal_dac.c **** #if (USE_HAL_DAC_REGISTER_CALLBACKS == 1)
1253:/home/phong/Documents/thesis/stm32f4/stm-idf/components/stm32f4xx_hal_driver/stm32f4xx_hal_dac.c ****   hdac->ConvHalfCpltCallbackCh1(hdac);
1254:/home/phong/Documents/thesis/stm32f4/stm-idf/components/stm32f4xx_hal_driver/stm32f4xx_hal_dac.c **** #else
1255:/home/phong/Documents/thesis/stm32f4/stm-idf/components/stm32f4xx_hal_driver/stm32f4xx_hal_dac.c ****     HAL_DAC_ConvHalfCpltCallbackCh1(hdac); 
 735              		.loc 1 1255 0
 736 0002 806B     		ldr	r0, [r0, #56]
 737              	.LVL74:
 738 0004 FFF7FEFF 		bl	HAL_DAC_ConvHalfCpltCallbackCh1
 739              	.LVL75:
 740 0008 08BD     		pop	{r3, pc}
 741              		.cfi_endproc
 742              	.LFE149:
 744              		.section	.text.HAL_DAC_ErrorCallbackCh1,"ax",%progbits
 745              		.align	1
 746              		.weak	HAL_DAC_ErrorCallbackCh1
 747              		.syntax unified
 748              		.thumb
 749              		.thumb_func
 750              		.fpu fpv4-sp-d16
 752              	HAL_DAC_ErrorCallbackCh1:
 753              	.LFB142:
 796:/home/phong/Documents/thesis/stm32f4/stm-idf/components/stm32f4xx_hal_driver/stm32f4xx_hal_dac.c ****   /* Prevent unused argument(s) compilation warning */
 754              		.loc 1 796 0
 755              		.cfi_startproc
 756              		@ args = 0, pretend = 0, frame = 0
 757              		@ frame_needed = 0, uses_anonymous_args = 0
 758              		@ link register save eliminated.
 759              	.LVL76:
 760 0000 7047     		bx	lr
 761              		.cfi_endproc
 762              	.LFE142:
 764              		.section	.text.DAC_DMAErrorCh1,"ax",%progbits
 765              		.align	1
 766              		.syntax unified
 767              		.thumb
 768              		.thumb_func
 769              		.fpu fpv4-sp-d16
ARM GAS  /tmp/cc6S1L6Q.s 			page 37


 771              	DAC_DMAErrorCh1:
 772              	.LFB150:
1256:/home/phong/Documents/thesis/stm32f4/stm-idf/components/stm32f4xx_hal_driver/stm32f4xx_hal_dac.c **** #endif  /* USE_HAL_DAC_REGISTER_CALLBACKS */
1257:/home/phong/Documents/thesis/stm32f4/stm-idf/components/stm32f4xx_hal_driver/stm32f4xx_hal_dac.c **** }
1258:/home/phong/Documents/thesis/stm32f4/stm-idf/components/stm32f4xx_hal_driver/stm32f4xx_hal_dac.c **** 
1259:/home/phong/Documents/thesis/stm32f4/stm-idf/components/stm32f4xx_hal_driver/stm32f4xx_hal_dac.c **** /**
1260:/home/phong/Documents/thesis/stm32f4/stm-idf/components/stm32f4xx_hal_driver/stm32f4xx_hal_dac.c ****   * @brief  DMA error callback 
1261:/home/phong/Documents/thesis/stm32f4/stm-idf/components/stm32f4xx_hal_driver/stm32f4xx_hal_dac.c ****   * @param  hdma pointer to a DMA_HandleTypeDef structure that contains
1262:/home/phong/Documents/thesis/stm32f4/stm-idf/components/stm32f4xx_hal_driver/stm32f4xx_hal_dac.c ****   *                the configuration information for the specified DMA module.
1263:/home/phong/Documents/thesis/stm32f4/stm-idf/components/stm32f4xx_hal_driver/stm32f4xx_hal_dac.c ****   * @retval None
1264:/home/phong/Documents/thesis/stm32f4/stm-idf/components/stm32f4xx_hal_driver/stm32f4xx_hal_dac.c ****   */
1265:/home/phong/Documents/thesis/stm32f4/stm-idf/components/stm32f4xx_hal_driver/stm32f4xx_hal_dac.c **** static void DAC_DMAErrorCh1(DMA_HandleTypeDef *hdma)   
1266:/home/phong/Documents/thesis/stm32f4/stm-idf/components/stm32f4xx_hal_driver/stm32f4xx_hal_dac.c **** {
 773              		.loc 1 1266 0
 774              		.cfi_startproc
 775              		@ args = 0, pretend = 0, frame = 0
 776              		@ frame_needed = 0, uses_anonymous_args = 0
 777              	.LVL77:
 778              		.loc 1 1266 0
 779 0000 10B5     		push	{r4, lr}
 780              	.LCFI14:
 781              		.cfi_def_cfa_offset 8
 782              		.cfi_offset 4, -8
 783              		.cfi_offset 14, -4
1267:/home/phong/Documents/thesis/stm32f4/stm-idf/components/stm32f4xx_hal_driver/stm32f4xx_hal_dac.c ****   DAC_HandleTypeDef* hdac = ( DAC_HandleTypeDef* )((DMA_HandleTypeDef* )hdma)->Parent;
 784              		.loc 1 1267 0
 785 0002 846B     		ldr	r4, [r0, #56]
 786              	.LVL78:
1268:/home/phong/Documents/thesis/stm32f4/stm-idf/components/stm32f4xx_hal_driver/stm32f4xx_hal_dac.c ****     
1269:/home/phong/Documents/thesis/stm32f4/stm-idf/components/stm32f4xx_hal_driver/stm32f4xx_hal_dac.c ****   /* Set DAC error code to DMA error */
1270:/home/phong/Documents/thesis/stm32f4/stm-idf/components/stm32f4xx_hal_driver/stm32f4xx_hal_dac.c ****   hdac->ErrorCode |= HAL_DAC_ERROR_DMA;
 787              		.loc 1 1270 0
 788 0004 2369     		ldr	r3, [r4, #16]
 789 0006 43F00403 		orr	r3, r3, #4
 790 000a 2361     		str	r3, [r4, #16]
1271:/home/phong/Documents/thesis/stm32f4/stm-idf/components/stm32f4xx_hal_driver/stm32f4xx_hal_dac.c ****     
1272:/home/phong/Documents/thesis/stm32f4/stm-idf/components/stm32f4xx_hal_driver/stm32f4xx_hal_dac.c **** #if (USE_HAL_DAC_REGISTER_CALLBACKS == 1)
1273:/home/phong/Documents/thesis/stm32f4/stm-idf/components/stm32f4xx_hal_driver/stm32f4xx_hal_dac.c ****   hdac->ErrorCallbackCh1(hdac);
1274:/home/phong/Documents/thesis/stm32f4/stm-idf/components/stm32f4xx_hal_driver/stm32f4xx_hal_dac.c **** #else
1275:/home/phong/Documents/thesis/stm32f4/stm-idf/components/stm32f4xx_hal_driver/stm32f4xx_hal_dac.c ****   HAL_DAC_ErrorCallbackCh1(hdac); 
 791              		.loc 1 1275 0
 792 000c 2046     		mov	r0, r4
 793              	.LVL79:
 794 000e FFF7FEFF 		bl	HAL_DAC_ErrorCallbackCh1
 795              	.LVL80:
1276:/home/phong/Documents/thesis/stm32f4/stm-idf/components/stm32f4xx_hal_driver/stm32f4xx_hal_dac.c **** #endif /* USE_HAL_DAC_REGISTER_CALLBACKS */
1277:/home/phong/Documents/thesis/stm32f4/stm-idf/components/stm32f4xx_hal_driver/stm32f4xx_hal_dac.c ****     
1278:/home/phong/Documents/thesis/stm32f4/stm-idf/components/stm32f4xx_hal_driver/stm32f4xx_hal_dac.c ****   hdac->State= HAL_DAC_STATE_READY;
 796              		.loc 1 1278 0
 797 0012 0123     		movs	r3, #1
 798 0014 2371     		strb	r3, [r4, #4]
 799 0016 10BD     		pop	{r4, pc}
 800              		.cfi_endproc
 801              	.LFE150:
 803              		.section	.text.HAL_DAC_DMAUnderrunCallbackCh1,"ax",%progbits
 804              		.align	1
 805              		.weak	HAL_DAC_DMAUnderrunCallbackCh1
ARM GAS  /tmp/cc6S1L6Q.s 			page 38


 806              		.syntax unified
 807              		.thumb
 808              		.thumb_func
 809              		.fpu fpv4-sp-d16
 811              	HAL_DAC_DMAUnderrunCallbackCh1:
 812              	.LFB143:
 811:/home/phong/Documents/thesis/stm32f4/stm-idf/components/stm32f4xx_hal_driver/stm32f4xx_hal_dac.c ****   /* Prevent unused argument(s) compilation warning */
 813              		.loc 1 811 0
 814              		.cfi_startproc
 815              		@ args = 0, pretend = 0, frame = 0
 816              		@ frame_needed = 0, uses_anonymous_args = 0
 817              		@ link register save eliminated.
 818              	.LVL81:
 819 0000 7047     		bx	lr
 820              		.cfi_endproc
 821              	.LFE143:
 823              		.section	.text.HAL_DAC_IRQHandler,"ax",%progbits
 824              		.align	1
 825              		.global	HAL_DAC_IRQHandler
 826              		.syntax unified
 827              		.thumb
 828              		.thumb_func
 829              		.fpu fpv4-sp-d16
 831              	HAL_DAC_IRQHandler:
 832              	.LFB139:
 712:/home/phong/Documents/thesis/stm32f4/stm-idf/components/stm32f4xx_hal_driver/stm32f4xx_hal_dac.c ****   /* Check underrun channel 1 flag */
 833              		.loc 1 712 0
 834              		.cfi_startproc
 835              		@ args = 0, pretend = 0, frame = 0
 836              		@ frame_needed = 0, uses_anonymous_args = 0
 837              	.LVL82:
 712:/home/phong/Documents/thesis/stm32f4/stm-idf/components/stm32f4xx_hal_driver/stm32f4xx_hal_dac.c ****   /* Check underrun channel 1 flag */
 838              		.loc 1 712 0
 839 0000 10B5     		push	{r4, lr}
 840              	.LCFI15:
 841              		.cfi_def_cfa_offset 8
 842              		.cfi_offset 4, -8
 843              		.cfi_offset 14, -4
 844 0002 0446     		mov	r4, r0
 714:/home/phong/Documents/thesis/stm32f4/stm-idf/components/stm32f4xx_hal_driver/stm32f4xx_hal_dac.c ****   {
 845              		.loc 1 714 0
 846 0004 0368     		ldr	r3, [r0]
 847 0006 5A6B     		ldr	r2, [r3, #52]
 848 0008 12F4005F 		tst	r2, #8192
 849 000c 05D1     		bne	.L78
 850              	.LVL83:
 851              	.L75:
 736:/home/phong/Documents/thesis/stm32f4/stm-idf/components/stm32f4xx_hal_driver/stm32f4xx_hal_dac.c ****   {
 852              		.loc 1 736 0
 853 000e 2368     		ldr	r3, [r4]
 854 0010 5A6B     		ldr	r2, [r3, #52]
 855 0012 12F0005F 		tst	r2, #536870912
 856 0016 11D1     		bne	.L79
 857              	.L74:
 858 0018 10BD     		pop	{r4, pc}
 859              	.LVL84:
 860              	.L78:
ARM GAS  /tmp/cc6S1L6Q.s 			page 39


 717:/home/phong/Documents/thesis/stm32f4/stm-idf/components/stm32f4xx_hal_driver/stm32f4xx_hal_dac.c ****     
 861              		.loc 1 717 0
 862 001a 0422     		movs	r2, #4
 863 001c 0271     		strb	r2, [r0, #4]
 720:/home/phong/Documents/thesis/stm32f4/stm-idf/components/stm32f4xx_hal_driver/stm32f4xx_hal_dac.c ****     
 864              		.loc 1 720 0
 865 001e 0269     		ldr	r2, [r0, #16]
 866 0020 42F00102 		orr	r2, r2, #1
 867 0024 0261     		str	r2, [r0, #16]
 723:/home/phong/Documents/thesis/stm32f4/stm-idf/components/stm32f4xx_hal_driver/stm32f4xx_hal_dac.c ****     
 868              		.loc 1 723 0
 869 0026 4FF40052 		mov	r2, #8192
 870 002a 5A63     		str	r2, [r3, #52]
 726:/home/phong/Documents/thesis/stm32f4/stm-idf/components/stm32f4xx_hal_driver/stm32f4xx_hal_dac.c ****     
 871              		.loc 1 726 0
 872 002c 0268     		ldr	r2, [r0]
 873 002e 1368     		ldr	r3, [r2]
 874 0030 23F48053 		bic	r3, r3, #4096
 875 0034 1360     		str	r3, [r2]
 732:/home/phong/Documents/thesis/stm32f4/stm-idf/components/stm32f4xx_hal_driver/stm32f4xx_hal_dac.c **** #endif /* USE_HAL_DAC_REGISTER_CALLBACKS */
 876              		.loc 1 732 0
 877 0036 FFF7FEFF 		bl	HAL_DAC_DMAUnderrunCallbackCh1
 878              	.LVL85:
 879 003a E8E7     		b	.L75
 880              	.L79:
 739:/home/phong/Documents/thesis/stm32f4/stm-idf/components/stm32f4xx_hal_driver/stm32f4xx_hal_dac.c ****     
 881              		.loc 1 739 0
 882 003c 0422     		movs	r2, #4
 883 003e 2271     		strb	r2, [r4, #4]
 742:/home/phong/Documents/thesis/stm32f4/stm-idf/components/stm32f4xx_hal_driver/stm32f4xx_hal_dac.c ****     
 884              		.loc 1 742 0
 885 0040 2269     		ldr	r2, [r4, #16]
 886 0042 42F00202 		orr	r2, r2, #2
 887 0046 2261     		str	r2, [r4, #16]
 745:/home/phong/Documents/thesis/stm32f4/stm-idf/components/stm32f4xx_hal_driver/stm32f4xx_hal_dac.c ****     
 888              		.loc 1 745 0
 889 0048 4FF00052 		mov	r2, #536870912
 890 004c 5A63     		str	r2, [r3, #52]
 748:/home/phong/Documents/thesis/stm32f4/stm-idf/components/stm32f4xx_hal_driver/stm32f4xx_hal_dac.c ****     
 891              		.loc 1 748 0
 892 004e 2268     		ldr	r2, [r4]
 893 0050 1368     		ldr	r3, [r2]
 894 0052 23F08053 		bic	r3, r3, #268435456
 895 0056 1360     		str	r3, [r2]
 754:/home/phong/Documents/thesis/stm32f4/stm-idf/components/stm32f4xx_hal_driver/stm32f4xx_hal_dac.c **** #endif /* USE_HAL_DAC_REGISTER_CALLBACKS */
 896              		.loc 1 754 0
 897 0058 2046     		mov	r0, r4
 898 005a FFF7FEFF 		bl	HAL_DACEx_DMAUnderrunCallbackCh2
 899              	.LVL86:
 757:/home/phong/Documents/thesis/stm32f4/stm-idf/components/stm32f4xx_hal_driver/stm32f4xx_hal_dac.c **** 
 900              		.loc 1 757 0
 901 005e DBE7     		b	.L74
 902              		.cfi_endproc
 903              	.LFE139:
 905              		.section	.text.HAL_DAC_ConfigChannel,"ax",%progbits
 906              		.align	1
 907              		.global	HAL_DAC_ConfigChannel
ARM GAS  /tmp/cc6S1L6Q.s 			page 40


 908              		.syntax unified
 909              		.thumb
 910              		.thumb_func
 911              		.fpu fpv4-sp-d16
 913              	HAL_DAC_ConfigChannel:
 914              	.LFB144:
 850:/home/phong/Documents/thesis/stm32f4/stm-idf/components/stm32f4xx_hal_driver/stm32f4xx_hal_dac.c ****   uint32_t tmpreg1 = 0U, tmpreg2 = 0U;
 915              		.loc 1 850 0
 916              		.cfi_startproc
 917              		@ args = 0, pretend = 0, frame = 0
 918              		@ frame_needed = 0, uses_anonymous_args = 0
 919              		@ link register save eliminated.
 920              	.LVL87:
 859:/home/phong/Documents/thesis/stm32f4/stm-idf/components/stm32f4xx_hal_driver/stm32f4xx_hal_dac.c ****   
 921              		.loc 1 859 0
 922 0000 4379     		ldrb	r3, [r0, #5]	@ zero_extendqisi2
 923 0002 012B     		cmp	r3, #1
 924 0004 1FD0     		beq	.L82
 850:/home/phong/Documents/thesis/stm32f4/stm-idf/components/stm32f4xx_hal_driver/stm32f4xx_hal_dac.c ****   uint32_t tmpreg1 = 0U, tmpreg2 = 0U;
 925              		.loc 1 850 0 discriminator 2
 926 0006 70B4     		push	{r4, r5, r6}
 927              	.LCFI16:
 928              		.cfi_def_cfa_offset 12
 929              		.cfi_offset 4, -12
 930              		.cfi_offset 5, -8
 931              		.cfi_offset 6, -4
 859:/home/phong/Documents/thesis/stm32f4/stm-idf/components/stm32f4xx_hal_driver/stm32f4xx_hal_dac.c ****   
 932              		.loc 1 859 0 discriminator 2
 933 0008 0125     		movs	r5, #1
 934 000a 4571     		strb	r5, [r0, #5]
 862:/home/phong/Documents/thesis/stm32f4/stm-idf/components/stm32f4xx_hal_driver/stm32f4xx_hal_dac.c ****   
 935              		.loc 1 862 0 discriminator 2
 936 000c 0223     		movs	r3, #2
 937 000e 0371     		strb	r3, [r0, #4]
 865:/home/phong/Documents/thesis/stm32f4/stm-idf/components/stm32f4xx_hal_driver/stm32f4xx_hal_dac.c ****   /* Clear BOFFx, TENx, TSELx, WAVEx and MAMPx bits */
 938              		.loc 1 865 0 discriminator 2
 939 0010 0668     		ldr	r6, [r0]
 940 0012 3368     		ldr	r3, [r6]
 941              	.LVL88:
 867:/home/phong/Documents/thesis/stm32f4/stm-idf/components/stm32f4xx_hal_driver/stm32f4xx_hal_dac.c ****   /* Configure for the selected DAC channel: buffer output, trigger */
 942              		.loc 1 867 0 discriminator 2
 943 0014 40F6FE74 		movw	r4, #4094
 944 0018 9440     		lsls	r4, r4, r2
 945 001a 23EA0403 		bic	r3, r3, r4
 946              	.LVL89:
 871:/home/phong/Documents/thesis/stm32f4/stm-idf/components/stm32f4xx_hal_driver/stm32f4xx_hal_dac.c ****   /* Calculate CR register value depending on DAC_Channel */
 947              		.loc 1 871 0 discriminator 2
 948 001e 0C68     		ldr	r4, [r1]
 949 0020 4968     		ldr	r1, [r1, #4]
 950              	.LVL90:
 951 0022 2143     		orrs	r1, r1, r4
 952              	.LVL91:
 873:/home/phong/Documents/thesis/stm32f4/stm-idf/components/stm32f4xx_hal_driver/stm32f4xx_hal_dac.c ****   /* Write to DAC CR */
 953              		.loc 1 873 0 discriminator 2
 954 0024 9140     		lsls	r1, r1, r2
 955              	.LVL92:
 956 0026 0B43     		orrs	r3, r3, r1
ARM GAS  /tmp/cc6S1L6Q.s 			page 41


 957              	.LVL93:
 875:/home/phong/Documents/thesis/stm32f4/stm-idf/components/stm32f4xx_hal_driver/stm32f4xx_hal_dac.c ****   /* Disable wave generation */
 958              		.loc 1 875 0 discriminator 2
 959 0028 3360     		str	r3, [r6]
 960              	.LVL94:
 877:/home/phong/Documents/thesis/stm32f4/stm-idf/components/stm32f4xx_hal_driver/stm32f4xx_hal_dac.c ****   
 961              		.loc 1 877 0 discriminator 2
 962 002a 0468     		ldr	r4, [r0]
 963 002c 2368     		ldr	r3, [r4]
 964              	.LVL95:
 965 002e C021     		movs	r1, #192
 966 0030 01FA02F2 		lsl	r2, r1, r2
 967              	.LVL96:
 968 0034 23EA0202 		bic	r2, r3, r2
 969 0038 2260     		str	r2, [r4]
 970              	.LVL97:
 880:/home/phong/Documents/thesis/stm32f4/stm-idf/components/stm32f4xx_hal_driver/stm32f4xx_hal_dac.c ****   
 971              		.loc 1 880 0 discriminator 2
 972 003a 0571     		strb	r5, [r0, #4]
 883:/home/phong/Documents/thesis/stm32f4/stm-idf/components/stm32f4xx_hal_driver/stm32f4xx_hal_dac.c ****   
 973              		.loc 1 883 0 discriminator 2
 974 003c 0023     		movs	r3, #0
 975 003e 4371     		strb	r3, [r0, #5]
 886:/home/phong/Documents/thesis/stm32f4/stm-idf/components/stm32f4xx_hal_driver/stm32f4xx_hal_dac.c **** }
 976              		.loc 1 886 0 discriminator 2
 977 0040 1846     		mov	r0, r3
 978              	.LVL98:
 887:/home/phong/Documents/thesis/stm32f4/stm-idf/components/stm32f4xx_hal_driver/stm32f4xx_hal_dac.c **** 
 979              		.loc 1 887 0 discriminator 2
 980 0042 70BC     		pop	{r4, r5, r6}
 981              	.LCFI17:
 982              		.cfi_restore 6
 983              		.cfi_restore 5
 984              		.cfi_restore 4
 985              		.cfi_def_cfa_offset 0
 986 0044 7047     		bx	lr
 987              	.LVL99:
 988              	.L82:
 859:/home/phong/Documents/thesis/stm32f4/stm-idf/components/stm32f4xx_hal_driver/stm32f4xx_hal_dac.c ****   
 989              		.loc 1 859 0
 990 0046 0220     		movs	r0, #2
 991              	.LVL100:
 992 0048 7047     		bx	lr
 993              		.cfi_endproc
 994              	.LFE144:
 996              		.section	.text.HAL_DAC_SetValue,"ax",%progbits
 997              		.align	1
 998              		.global	HAL_DAC_SetValue
 999              		.syntax unified
 1000              		.thumb
 1001              		.thumb_func
 1002              		.fpu fpv4-sp-d16
 1004              	HAL_DAC_SetValue:
 1005              	.LFB145:
 906:/home/phong/Documents/thesis/stm32f4/stm-idf/components/stm32f4xx_hal_driver/stm32f4xx_hal_dac.c ****   __IO uint32_t tmp = 0U;
 1006              		.loc 1 906 0
 1007              		.cfi_startproc
ARM GAS  /tmp/cc6S1L6Q.s 			page 42


 1008              		@ args = 0, pretend = 0, frame = 8
 1009              		@ frame_needed = 0, uses_anonymous_args = 0
 1010              		@ link register save eliminated.
 1011              	.LVL101:
 1012 0000 10B4     		push	{r4}
 1013              	.LCFI18:
 1014              		.cfi_def_cfa_offset 4
 1015              		.cfi_offset 4, -4
 1016 0002 83B0     		sub	sp, sp, #12
 1017              	.LCFI19:
 1018              		.cfi_def_cfa_offset 16
 907:/home/phong/Documents/thesis/stm32f4/stm-idf/components/stm32f4xx_hal_driver/stm32f4xx_hal_dac.c ****   
 1019              		.loc 1 907 0
 1020 0004 0024     		movs	r4, #0
 1021 0006 0194     		str	r4, [sp, #4]
 914:/home/phong/Documents/thesis/stm32f4/stm-idf/components/stm32f4xx_hal_driver/stm32f4xx_hal_dac.c ****   if(Channel == DAC_CHANNEL_1)
 1022              		.loc 1 914 0
 1023 0008 0068     		ldr	r0, [r0]
 1024              	.LVL102:
 1025 000a 0190     		str	r0, [sp, #4]
 915:/home/phong/Documents/thesis/stm32f4/stm-idf/components/stm32f4xx_hal_driver/stm32f4xx_hal_dac.c ****   {
 1026              		.loc 1 915 0
 1027 000c 51B1     		cbz	r1, .L91
 921:/home/phong/Documents/thesis/stm32f4/stm-idf/components/stm32f4xx_hal_driver/stm32f4xx_hal_dac.c ****   }
 1028              		.loc 1 921 0
 1029 000e 0199     		ldr	r1, [sp, #4]
 1030              	.LVL103:
 1031 0010 0A44     		add	r2, r2, r1
 1032              	.LVL104:
 1033 0012 1432     		adds	r2, r2, #20
 1034 0014 0192     		str	r2, [sp, #4]
 1035              	.L89:
 925:/home/phong/Documents/thesis/stm32f4/stm-idf/components/stm32f4xx_hal_driver/stm32f4xx_hal_dac.c ****   
 1036              		.loc 1 925 0
 1037 0016 019A     		ldr	r2, [sp, #4]
 1038 0018 1360     		str	r3, [r2]
 929:/home/phong/Documents/thesis/stm32f4/stm-idf/components/stm32f4xx_hal_driver/stm32f4xx_hal_dac.c **** 
 1039              		.loc 1 929 0
 1040 001a 0020     		movs	r0, #0
 1041 001c 03B0     		add	sp, sp, #12
 1042              	.LCFI20:
 1043              		.cfi_remember_state
 1044              		.cfi_def_cfa_offset 4
 1045              		@ sp needed
 1046 001e 5DF8044B 		ldr	r4, [sp], #4
 1047              	.LCFI21:
 1048              		.cfi_restore 4
 1049              		.cfi_def_cfa_offset 0
 1050 0022 7047     		bx	lr
 1051              	.LVL105:
 1052              	.L91:
 1053              	.LCFI22:
 1054              		.cfi_restore_state
 917:/home/phong/Documents/thesis/stm32f4/stm-idf/components/stm32f4xx_hal_driver/stm32f4xx_hal_dac.c ****   }
 1055              		.loc 1 917 0
 1056 0024 0199     		ldr	r1, [sp, #4]
 1057              	.LVL106:
ARM GAS  /tmp/cc6S1L6Q.s 			page 43


 1058 0026 0A44     		add	r2, r2, r1
 1059              	.LVL107:
 1060 0028 0832     		adds	r2, r2, #8
 1061 002a 0192     		str	r2, [sp, #4]
 1062 002c F3E7     		b	.L89
 1063              		.cfi_endproc
 1064              	.LFE145:
 1066              		.section	.text.HAL_DAC_GetState,"ax",%progbits
 1067              		.align	1
 1068              		.global	HAL_DAC_GetState
 1069              		.syntax unified
 1070              		.thumb
 1071              		.thumb_func
 1072              		.fpu fpv4-sp-d16
 1074              	HAL_DAC_GetState:
 1075              	.LFB146:
 958:/home/phong/Documents/thesis/stm32f4/stm-idf/components/stm32f4xx_hal_driver/stm32f4xx_hal_dac.c ****   /* Return DAC state */
 1076              		.loc 1 958 0
 1077              		.cfi_startproc
 1078              		@ args = 0, pretend = 0, frame = 0
 1079              		@ frame_needed = 0, uses_anonymous_args = 0
 1080              		@ link register save eliminated.
 1081              	.LVL108:
 960:/home/phong/Documents/thesis/stm32f4/stm-idf/components/stm32f4xx_hal_driver/stm32f4xx_hal_dac.c **** }
 1082              		.loc 1 960 0
 1083 0000 0079     		ldrb	r0, [r0, #4]	@ zero_extendqisi2
 1084              	.LVL109:
 961:/home/phong/Documents/thesis/stm32f4/stm-idf/components/stm32f4xx_hal_driver/stm32f4xx_hal_dac.c **** 
 1085              		.loc 1 961 0
 1086 0002 7047     		bx	lr
 1087              		.cfi_endproc
 1088              	.LFE146:
 1090              		.section	.text.HAL_DAC_GetError,"ax",%progbits
 1091              		.align	1
 1092              		.global	HAL_DAC_GetError
 1093              		.syntax unified
 1094              		.thumb
 1095              		.thumb_func
 1096              		.fpu fpv4-sp-d16
 1098              	HAL_DAC_GetError:
 1099              	.LFB147:
 971:/home/phong/Documents/thesis/stm32f4/stm-idf/components/stm32f4xx_hal_driver/stm32f4xx_hal_dac.c ****   return hdac->ErrorCode;
 1100              		.loc 1 971 0
 1101              		.cfi_startproc
 1102              		@ args = 0, pretend = 0, frame = 0
 1103              		@ frame_needed = 0, uses_anonymous_args = 0
 1104              		@ link register save eliminated.
 1105              	.LVL110:
 972:/home/phong/Documents/thesis/stm32f4/stm-idf/components/stm32f4xx_hal_driver/stm32f4xx_hal_dac.c **** }
 1106              		.loc 1 972 0
 1107 0000 0069     		ldr	r0, [r0, #16]
 1108              	.LVL111:
 973:/home/phong/Documents/thesis/stm32f4/stm-idf/components/stm32f4xx_hal_driver/stm32f4xx_hal_dac.c **** 
 1109              		.loc 1 973 0
 1110 0002 7047     		bx	lr
 1111              		.cfi_endproc
 1112              	.LFE147:
ARM GAS  /tmp/cc6S1L6Q.s 			page 44


 1114              		.text
 1115              	.Letext0:
 1116              		.file 2 "/home/phong/Documents/thesis/stm32f4/stm-idf/components/newlib/include/machine/_default_t
 1117              		.file 3 "/home/phong/Documents/thesis/stm32f4/stm-idf/components/newlib/include/sys/_stdint.h"
 1118              		.file 4 "/home/phong/Documents/thesis/stm32f4/stm-idf/components/cmsis/include/core_cm4.h"
 1119              		.file 5 "/home/phong/Documents/thesis/stm32f4/stm-idf/components/cmsis/device/stm32/stm32f4xx/incl
 1120              		.file 6 "/home/phong/Documents/thesis/stm32f4/stm-idf/components/cmsis/device/stm32/stm32f4xx/incl
 1121              		.file 7 "/home/phong/Documents/thesis/stm32f4/stm-idf/components/stm32f4xx_hal_driver/include/stm3
 1122              		.file 8 "/home/phong/Documents/thesis/stm32f4/stm-idf/components/stm32f4xx_hal_driver/include/stm3
 1123              		.file 9 "/home/phong/Documents/thesis/stm32f4/stm-idf/components/stm32f4xx_hal_driver/include/stm3
 1124              		.file 10 "/home/phong/Documents/thesis/stm32f4/stm-idf/components/stm32f4xx_hal_driver/include/stm
 1125              		.file 11 "/home/phong/Documents/thesis/stm32f4/stm-idf/components/stm32f4xx_hal_driver/include/stm
ARM GAS  /tmp/cc6S1L6Q.s 			page 45

