ARM GAS  /tmp/cccrE0jc.s 			page 1


   1              		.cpu cortex-m4
   2              		.eabi_attribute 27, 1
   3              		.eabi_attribute 28, 1
   4              		.eabi_attribute 20, 1
   5              		.eabi_attribute 21, 1
   6              		.eabi_attribute 23, 3
   7              		.eabi_attribute 24, 1
   8              		.eabi_attribute 25, 1
   9              		.eabi_attribute 26, 1
  10              		.eabi_attribute 30, 1
  11              		.eabi_attribute 34, 1
  12              		.eabi_attribute 18, 4
  13              		.file	"stm32f4xx_ll_fsmc.c"
  14              		.text
  15              	.Ltext0:
  16              		.cfi_sections	.debug_frame
  17              		.section	.text.FSMC_NORSRAM_Init,"ax",%progbits
  18              		.align	1
  19              		.global	FSMC_NORSRAM_Init
  20              		.syntax unified
  21              		.thumb
  22              		.thumb_func
  23              		.fpu fpv4-sp-d16
  25              	FSMC_NORSRAM_Init:
  26              	.LFB130:
  27              		.file 1 "/home/phong/Documents/thesis/stm32f4/stm-idf/components/stm32f4xx_hal_driver/stm32f4xx_ll
   1:/home/phong/Documents/thesis/stm32f4/stm-idf/components/stm32f4xx_hal_driver/stm32f4xx_ll_fsmc.c **** /**
   2:/home/phong/Documents/thesis/stm32f4/stm-idf/components/stm32f4xx_hal_driver/stm32f4xx_ll_fsmc.c ****   ******************************************************************************
   3:/home/phong/Documents/thesis/stm32f4/stm-idf/components/stm32f4xx_hal_driver/stm32f4xx_ll_fsmc.c ****   * @file    stm32f4xx_ll_fsmc.c
   4:/home/phong/Documents/thesis/stm32f4/stm-idf/components/stm32f4xx_hal_driver/stm32f4xx_ll_fsmc.c ****   * @author  MCD Application Team
   5:/home/phong/Documents/thesis/stm32f4/stm-idf/components/stm32f4xx_hal_driver/stm32f4xx_ll_fsmc.c ****   * @brief   FSMC Low Layer HAL module driver.
   6:/home/phong/Documents/thesis/stm32f4/stm-idf/components/stm32f4xx_hal_driver/stm32f4xx_ll_fsmc.c ****   *    
   7:/home/phong/Documents/thesis/stm32f4/stm-idf/components/stm32f4xx_hal_driver/stm32f4xx_ll_fsmc.c ****   *          This file provides firmware functions to manage the following 
   8:/home/phong/Documents/thesis/stm32f4/stm-idf/components/stm32f4xx_hal_driver/stm32f4xx_ll_fsmc.c ****   *          functionalities of the Flexible Static Memory Controller (FSMC) peripheral memories:
   9:/home/phong/Documents/thesis/stm32f4/stm-idf/components/stm32f4xx_hal_driver/stm32f4xx_ll_fsmc.c ****   *           + Initialization/de-initialization functions
  10:/home/phong/Documents/thesis/stm32f4/stm-idf/components/stm32f4xx_hal_driver/stm32f4xx_ll_fsmc.c ****   *           + Peripheral Control functions 
  11:/home/phong/Documents/thesis/stm32f4/stm-idf/components/stm32f4xx_hal_driver/stm32f4xx_ll_fsmc.c ****   *           + Peripheral State functions
  12:/home/phong/Documents/thesis/stm32f4/stm-idf/components/stm32f4xx_hal_driver/stm32f4xx_ll_fsmc.c ****   *         
  13:/home/phong/Documents/thesis/stm32f4/stm-idf/components/stm32f4xx_hal_driver/stm32f4xx_ll_fsmc.c ****   @verbatim
  14:/home/phong/Documents/thesis/stm32f4/stm-idf/components/stm32f4xx_hal_driver/stm32f4xx_ll_fsmc.c ****   ==============================================================================
  15:/home/phong/Documents/thesis/stm32f4/stm-idf/components/stm32f4xx_hal_driver/stm32f4xx_ll_fsmc.c ****                         ##### FSMC peripheral features #####
  16:/home/phong/Documents/thesis/stm32f4/stm-idf/components/stm32f4xx_hal_driver/stm32f4xx_ll_fsmc.c ****   ==============================================================================                  
  17:/home/phong/Documents/thesis/stm32f4/stm-idf/components/stm32f4xx_hal_driver/stm32f4xx_ll_fsmc.c ****     [..] The Flexible static memory controller (FSMC) includes two memory controllers:
  18:/home/phong/Documents/thesis/stm32f4/stm-idf/components/stm32f4xx_hal_driver/stm32f4xx_ll_fsmc.c ****          (+) The NOR/PSRAM memory controller
  19:/home/phong/Documents/thesis/stm32f4/stm-idf/components/stm32f4xx_hal_driver/stm32f4xx_ll_fsmc.c ****          (+) The NAND/PC Card memory controller
  20:/home/phong/Documents/thesis/stm32f4/stm-idf/components/stm32f4xx_hal_driver/stm32f4xx_ll_fsmc.c ****        
  21:/home/phong/Documents/thesis/stm32f4/stm-idf/components/stm32f4xx_hal_driver/stm32f4xx_ll_fsmc.c ****     [..] The FSMC functional block makes the interface with synchronous and asynchronous static
  22:/home/phong/Documents/thesis/stm32f4/stm-idf/components/stm32f4xx_hal_driver/stm32f4xx_ll_fsmc.c ****          memories, SDRAM memories, and 16-bit PC memory cards. Its main purposes are:
  23:/home/phong/Documents/thesis/stm32f4/stm-idf/components/stm32f4xx_hal_driver/stm32f4xx_ll_fsmc.c ****          (+) to translate AHB transactions into the appropriate external device protocol.
  24:/home/phong/Documents/thesis/stm32f4/stm-idf/components/stm32f4xx_hal_driver/stm32f4xx_ll_fsmc.c ****          (+) to meet the access time requirements of the external memory devices.
  25:/home/phong/Documents/thesis/stm32f4/stm-idf/components/stm32f4xx_hal_driver/stm32f4xx_ll_fsmc.c ****    
  26:/home/phong/Documents/thesis/stm32f4/stm-idf/components/stm32f4xx_hal_driver/stm32f4xx_ll_fsmc.c ****     [..] All external memories share the addresses, data and control signals with the controller.
  27:/home/phong/Documents/thesis/stm32f4/stm-idf/components/stm32f4xx_hal_driver/stm32f4xx_ll_fsmc.c ****          Each external device is accessed by means of a unique Chip Select. The FSMC performs
  28:/home/phong/Documents/thesis/stm32f4/stm-idf/components/stm32f4xx_hal_driver/stm32f4xx_ll_fsmc.c ****          only one access at a time to an external device.
  29:/home/phong/Documents/thesis/stm32f4/stm-idf/components/stm32f4xx_hal_driver/stm32f4xx_ll_fsmc.c ****          The main features of the FSMC controller are the following:
  30:/home/phong/Documents/thesis/stm32f4/stm-idf/components/stm32f4xx_hal_driver/stm32f4xx_ll_fsmc.c ****           (+) Interface with static-memory mapped devices including:
  31:/home/phong/Documents/thesis/stm32f4/stm-idf/components/stm32f4xx_hal_driver/stm32f4xx_ll_fsmc.c ****              (++) Static random access memory (SRAM).
ARM GAS  /tmp/cccrE0jc.s 			page 2


  32:/home/phong/Documents/thesis/stm32f4/stm-idf/components/stm32f4xx_hal_driver/stm32f4xx_ll_fsmc.c ****              (++) Read-only memory (ROM).
  33:/home/phong/Documents/thesis/stm32f4/stm-idf/components/stm32f4xx_hal_driver/stm32f4xx_ll_fsmc.c ****              (++) NOR Flash memory/OneNAND Flash memory.
  34:/home/phong/Documents/thesis/stm32f4/stm-idf/components/stm32f4xx_hal_driver/stm32f4xx_ll_fsmc.c ****              (++) PSRAM (4 memory banks).
  35:/home/phong/Documents/thesis/stm32f4/stm-idf/components/stm32f4xx_hal_driver/stm32f4xx_ll_fsmc.c ****              (++) 16-bit PC Card compatible devices.
  36:/home/phong/Documents/thesis/stm32f4/stm-idf/components/stm32f4xx_hal_driver/stm32f4xx_ll_fsmc.c ****              (++) Two banks of NAND Flash memory with ECC hardware to check up to 8 Kbytes of
  37:/home/phong/Documents/thesis/stm32f4/stm-idf/components/stm32f4xx_hal_driver/stm32f4xx_ll_fsmc.c ****                   data.
  38:/home/phong/Documents/thesis/stm32f4/stm-idf/components/stm32f4xx_hal_driver/stm32f4xx_ll_fsmc.c ****           (+) Independent Chip Select control for each memory bank.
  39:/home/phong/Documents/thesis/stm32f4/stm-idf/components/stm32f4xx_hal_driver/stm32f4xx_ll_fsmc.c ****           (+) Independent configuration for each memory bank.          
  40:/home/phong/Documents/thesis/stm32f4/stm-idf/components/stm32f4xx_hal_driver/stm32f4xx_ll_fsmc.c ****         
  41:/home/phong/Documents/thesis/stm32f4/stm-idf/components/stm32f4xx_hal_driver/stm32f4xx_ll_fsmc.c ****   @endverbatim
  42:/home/phong/Documents/thesis/stm32f4/stm-idf/components/stm32f4xx_hal_driver/stm32f4xx_ll_fsmc.c ****   ******************************************************************************
  43:/home/phong/Documents/thesis/stm32f4/stm-idf/components/stm32f4xx_hal_driver/stm32f4xx_ll_fsmc.c ****   * @attention
  44:/home/phong/Documents/thesis/stm32f4/stm-idf/components/stm32f4xx_hal_driver/stm32f4xx_ll_fsmc.c ****   *
  45:/home/phong/Documents/thesis/stm32f4/stm-idf/components/stm32f4xx_hal_driver/stm32f4xx_ll_fsmc.c ****   * <h2><center>&copy; Copyright (c) 2017 STMicroelectronics.
  46:/home/phong/Documents/thesis/stm32f4/stm-idf/components/stm32f4xx_hal_driver/stm32f4xx_ll_fsmc.c ****   * All rights reserved.</center></h2>
  47:/home/phong/Documents/thesis/stm32f4/stm-idf/components/stm32f4xx_hal_driver/stm32f4xx_ll_fsmc.c ****   *
  48:/home/phong/Documents/thesis/stm32f4/stm-idf/components/stm32f4xx_hal_driver/stm32f4xx_ll_fsmc.c ****   * This software component is licensed by ST under BSD 3-Clause license,
  49:/home/phong/Documents/thesis/stm32f4/stm-idf/components/stm32f4xx_hal_driver/stm32f4xx_ll_fsmc.c ****   * the "License"; You may not use this file except in compliance with the
  50:/home/phong/Documents/thesis/stm32f4/stm-idf/components/stm32f4xx_hal_driver/stm32f4xx_ll_fsmc.c ****   * License. You may obtain a copy of the License at:
  51:/home/phong/Documents/thesis/stm32f4/stm-idf/components/stm32f4xx_hal_driver/stm32f4xx_ll_fsmc.c ****   *                        opensource.org/licenses/BSD-3-Clause
  52:/home/phong/Documents/thesis/stm32f4/stm-idf/components/stm32f4xx_hal_driver/stm32f4xx_ll_fsmc.c ****   *
  53:/home/phong/Documents/thesis/stm32f4/stm-idf/components/stm32f4xx_hal_driver/stm32f4xx_ll_fsmc.c ****   ******************************************************************************
  54:/home/phong/Documents/thesis/stm32f4/stm-idf/components/stm32f4xx_hal_driver/stm32f4xx_ll_fsmc.c ****   */ 
  55:/home/phong/Documents/thesis/stm32f4/stm-idf/components/stm32f4xx_hal_driver/stm32f4xx_ll_fsmc.c **** 
  56:/home/phong/Documents/thesis/stm32f4/stm-idf/components/stm32f4xx_hal_driver/stm32f4xx_ll_fsmc.c **** /* Includes ------------------------------------------------------------------*/
  57:/home/phong/Documents/thesis/stm32f4/stm-idf/components/stm32f4xx_hal_driver/stm32f4xx_ll_fsmc.c **** #include "stm32f4xx_hal.h"
  58:/home/phong/Documents/thesis/stm32f4/stm-idf/components/stm32f4xx_hal_driver/stm32f4xx_ll_fsmc.c **** 
  59:/home/phong/Documents/thesis/stm32f4/stm-idf/components/stm32f4xx_hal_driver/stm32f4xx_ll_fsmc.c **** /** @addtogroup STM32F4xx_HAL_Driver
  60:/home/phong/Documents/thesis/stm32f4/stm-idf/components/stm32f4xx_hal_driver/stm32f4xx_ll_fsmc.c ****   * @{
  61:/home/phong/Documents/thesis/stm32f4/stm-idf/components/stm32f4xx_hal_driver/stm32f4xx_ll_fsmc.c ****   */
  62:/home/phong/Documents/thesis/stm32f4/stm-idf/components/stm32f4xx_hal_driver/stm32f4xx_ll_fsmc.c **** 
  63:/home/phong/Documents/thesis/stm32f4/stm-idf/components/stm32f4xx_hal_driver/stm32f4xx_ll_fsmc.c **** /** @defgroup FSMC_LL  FSMC Low Layer
  64:/home/phong/Documents/thesis/stm32f4/stm-idf/components/stm32f4xx_hal_driver/stm32f4xx_ll_fsmc.c ****   * @brief FSMC driver modules
  65:/home/phong/Documents/thesis/stm32f4/stm-idf/components/stm32f4xx_hal_driver/stm32f4xx_ll_fsmc.c ****   * @{
  66:/home/phong/Documents/thesis/stm32f4/stm-idf/components/stm32f4xx_hal_driver/stm32f4xx_ll_fsmc.c ****   */
  67:/home/phong/Documents/thesis/stm32f4/stm-idf/components/stm32f4xx_hal_driver/stm32f4xx_ll_fsmc.c **** 
  68:/home/phong/Documents/thesis/stm32f4/stm-idf/components/stm32f4xx_hal_driver/stm32f4xx_ll_fsmc.c **** #if defined (HAL_SRAM_MODULE_ENABLED) || defined(HAL_NOR_MODULE_ENABLED) || defined(HAL_NAND_MODULE
  69:/home/phong/Documents/thesis/stm32f4/stm-idf/components/stm32f4xx_hal_driver/stm32f4xx_ll_fsmc.c **** #if defined(STM32F405xx) || defined(STM32F415xx) || defined(STM32F407xx) || defined(STM32F417xx) ||
  70:/home/phong/Documents/thesis/stm32f4/stm-idf/components/stm32f4xx_hal_driver/stm32f4xx_ll_fsmc.c ****     defined(STM32F412Vx) || defined(STM32F412Rx) || defined(STM32F413xx) || defined(STM32F423xx)
  71:/home/phong/Documents/thesis/stm32f4/stm-idf/components/stm32f4xx_hal_driver/stm32f4xx_ll_fsmc.c **** /* Private typedef -----------------------------------------------------------*/
  72:/home/phong/Documents/thesis/stm32f4/stm-idf/components/stm32f4xx_hal_driver/stm32f4xx_ll_fsmc.c **** /* Private define ------------------------------------------------------------*/
  73:/home/phong/Documents/thesis/stm32f4/stm-idf/components/stm32f4xx_hal_driver/stm32f4xx_ll_fsmc.c **** /* Private macro -------------------------------------------------------------*/
  74:/home/phong/Documents/thesis/stm32f4/stm-idf/components/stm32f4xx_hal_driver/stm32f4xx_ll_fsmc.c **** /* Private variables ---------------------------------------------------------*/
  75:/home/phong/Documents/thesis/stm32f4/stm-idf/components/stm32f4xx_hal_driver/stm32f4xx_ll_fsmc.c **** /* Private function prototypes -----------------------------------------------*/
  76:/home/phong/Documents/thesis/stm32f4/stm-idf/components/stm32f4xx_hal_driver/stm32f4xx_ll_fsmc.c **** /* Private functions ---------------------------------------------------------*/
  77:/home/phong/Documents/thesis/stm32f4/stm-idf/components/stm32f4xx_hal_driver/stm32f4xx_ll_fsmc.c **** /** @addtogroup FSMC_LL_Private_Functions
  78:/home/phong/Documents/thesis/stm32f4/stm-idf/components/stm32f4xx_hal_driver/stm32f4xx_ll_fsmc.c ****   * @{
  79:/home/phong/Documents/thesis/stm32f4/stm-idf/components/stm32f4xx_hal_driver/stm32f4xx_ll_fsmc.c ****   */
  80:/home/phong/Documents/thesis/stm32f4/stm-idf/components/stm32f4xx_hal_driver/stm32f4xx_ll_fsmc.c **** 
  81:/home/phong/Documents/thesis/stm32f4/stm-idf/components/stm32f4xx_hal_driver/stm32f4xx_ll_fsmc.c **** /** @addtogroup FSMC_LL_NORSRAM
  82:/home/phong/Documents/thesis/stm32f4/stm-idf/components/stm32f4xx_hal_driver/stm32f4xx_ll_fsmc.c ****   * @brief    NORSRAM Controller functions 
  83:/home/phong/Documents/thesis/stm32f4/stm-idf/components/stm32f4xx_hal_driver/stm32f4xx_ll_fsmc.c ****   *
  84:/home/phong/Documents/thesis/stm32f4/stm-idf/components/stm32f4xx_hal_driver/stm32f4xx_ll_fsmc.c ****   @verbatim 
  85:/home/phong/Documents/thesis/stm32f4/stm-idf/components/stm32f4xx_hal_driver/stm32f4xx_ll_fsmc.c ****   ==============================================================================
  86:/home/phong/Documents/thesis/stm32f4/stm-idf/components/stm32f4xx_hal_driver/stm32f4xx_ll_fsmc.c ****                    ##### How to use NORSRAM device driver #####
  87:/home/phong/Documents/thesis/stm32f4/stm-idf/components/stm32f4xx_hal_driver/stm32f4xx_ll_fsmc.c ****   ==============================================================================
  88:/home/phong/Documents/thesis/stm32f4/stm-idf/components/stm32f4xx_hal_driver/stm32f4xx_ll_fsmc.c ****  
ARM GAS  /tmp/cccrE0jc.s 			page 3


  89:/home/phong/Documents/thesis/stm32f4/stm-idf/components/stm32f4xx_hal_driver/stm32f4xx_ll_fsmc.c ****   [..] 
  90:/home/phong/Documents/thesis/stm32f4/stm-idf/components/stm32f4xx_hal_driver/stm32f4xx_ll_fsmc.c ****     This driver contains a set of APIs to interface with the FSMC NORSRAM banks in order
  91:/home/phong/Documents/thesis/stm32f4/stm-idf/components/stm32f4xx_hal_driver/stm32f4xx_ll_fsmc.c ****     to run the NORSRAM external devices.
  92:/home/phong/Documents/thesis/stm32f4/stm-idf/components/stm32f4xx_hal_driver/stm32f4xx_ll_fsmc.c ****       
  93:/home/phong/Documents/thesis/stm32f4/stm-idf/components/stm32f4xx_hal_driver/stm32f4xx_ll_fsmc.c ****     (+) FSMC NORSRAM bank reset using the function FSMC_NORSRAM_DeInit() 
  94:/home/phong/Documents/thesis/stm32f4/stm-idf/components/stm32f4xx_hal_driver/stm32f4xx_ll_fsmc.c ****     (+) FSMC NORSRAM bank control configuration using the function FSMC_NORSRAM_Init()
  95:/home/phong/Documents/thesis/stm32f4/stm-idf/components/stm32f4xx_hal_driver/stm32f4xx_ll_fsmc.c ****     (+) FSMC NORSRAM bank timing configuration using the function FSMC_NORSRAM_Timing_Init()
  96:/home/phong/Documents/thesis/stm32f4/stm-idf/components/stm32f4xx_hal_driver/stm32f4xx_ll_fsmc.c ****     (+) FSMC NORSRAM bank extended timing configuration using the function 
  97:/home/phong/Documents/thesis/stm32f4/stm-idf/components/stm32f4xx_hal_driver/stm32f4xx_ll_fsmc.c ****         FSMC_NORSRAM_Extended_Timing_Init()
  98:/home/phong/Documents/thesis/stm32f4/stm-idf/components/stm32f4xx_hal_driver/stm32f4xx_ll_fsmc.c ****     (+) FSMC NORSRAM bank enable/disable write operation using the functions
  99:/home/phong/Documents/thesis/stm32f4/stm-idf/components/stm32f4xx_hal_driver/stm32f4xx_ll_fsmc.c ****         FSMC_NORSRAM_WriteOperation_Enable()/FSMC_NORSRAM_WriteOperation_Disable()
 100:/home/phong/Documents/thesis/stm32f4/stm-idf/components/stm32f4xx_hal_driver/stm32f4xx_ll_fsmc.c **** 
 101:/home/phong/Documents/thesis/stm32f4/stm-idf/components/stm32f4xx_hal_driver/stm32f4xx_ll_fsmc.c **** @endverbatim
 102:/home/phong/Documents/thesis/stm32f4/stm-idf/components/stm32f4xx_hal_driver/stm32f4xx_ll_fsmc.c ****   * @{
 103:/home/phong/Documents/thesis/stm32f4/stm-idf/components/stm32f4xx_hal_driver/stm32f4xx_ll_fsmc.c ****   */
 104:/home/phong/Documents/thesis/stm32f4/stm-idf/components/stm32f4xx_hal_driver/stm32f4xx_ll_fsmc.c ****        
 105:/home/phong/Documents/thesis/stm32f4/stm-idf/components/stm32f4xx_hal_driver/stm32f4xx_ll_fsmc.c **** /** @addtogroup FSMC_LL_NORSRAM_Private_Functions_Group1
 106:/home/phong/Documents/thesis/stm32f4/stm-idf/components/stm32f4xx_hal_driver/stm32f4xx_ll_fsmc.c ****   * @brief    Initialization and Configuration functions 
 107:/home/phong/Documents/thesis/stm32f4/stm-idf/components/stm32f4xx_hal_driver/stm32f4xx_ll_fsmc.c ****   *
 108:/home/phong/Documents/thesis/stm32f4/stm-idf/components/stm32f4xx_hal_driver/stm32f4xx_ll_fsmc.c ****   @verbatim    
 109:/home/phong/Documents/thesis/stm32f4/stm-idf/components/stm32f4xx_hal_driver/stm32f4xx_ll_fsmc.c ****   ==============================================================================
 110:/home/phong/Documents/thesis/stm32f4/stm-idf/components/stm32f4xx_hal_driver/stm32f4xx_ll_fsmc.c ****               ##### Initialization and de_initialization functions #####
 111:/home/phong/Documents/thesis/stm32f4/stm-idf/components/stm32f4xx_hal_driver/stm32f4xx_ll_fsmc.c ****   ==============================================================================
 112:/home/phong/Documents/thesis/stm32f4/stm-idf/components/stm32f4xx_hal_driver/stm32f4xx_ll_fsmc.c ****   [..]  
 113:/home/phong/Documents/thesis/stm32f4/stm-idf/components/stm32f4xx_hal_driver/stm32f4xx_ll_fsmc.c ****     This section provides functions allowing to:
 114:/home/phong/Documents/thesis/stm32f4/stm-idf/components/stm32f4xx_hal_driver/stm32f4xx_ll_fsmc.c ****     (+) Initialize and configure the FSMC NORSRAM interface
 115:/home/phong/Documents/thesis/stm32f4/stm-idf/components/stm32f4xx_hal_driver/stm32f4xx_ll_fsmc.c ****     (+) De-initialize the FSMC NORSRAM interface 
 116:/home/phong/Documents/thesis/stm32f4/stm-idf/components/stm32f4xx_hal_driver/stm32f4xx_ll_fsmc.c ****     (+) Configure the FSMC clock and associated GPIOs    
 117:/home/phong/Documents/thesis/stm32f4/stm-idf/components/stm32f4xx_hal_driver/stm32f4xx_ll_fsmc.c ****  
 118:/home/phong/Documents/thesis/stm32f4/stm-idf/components/stm32f4xx_hal_driver/stm32f4xx_ll_fsmc.c **** @endverbatim
 119:/home/phong/Documents/thesis/stm32f4/stm-idf/components/stm32f4xx_hal_driver/stm32f4xx_ll_fsmc.c ****   * @{
 120:/home/phong/Documents/thesis/stm32f4/stm-idf/components/stm32f4xx_hal_driver/stm32f4xx_ll_fsmc.c ****   */
 121:/home/phong/Documents/thesis/stm32f4/stm-idf/components/stm32f4xx_hal_driver/stm32f4xx_ll_fsmc.c ****   
 122:/home/phong/Documents/thesis/stm32f4/stm-idf/components/stm32f4xx_hal_driver/stm32f4xx_ll_fsmc.c **** /**
 123:/home/phong/Documents/thesis/stm32f4/stm-idf/components/stm32f4xx_hal_driver/stm32f4xx_ll_fsmc.c ****   * @brief  Initialize the FSMC_NORSRAM device according to the specified
 124:/home/phong/Documents/thesis/stm32f4/stm-idf/components/stm32f4xx_hal_driver/stm32f4xx_ll_fsmc.c ****   *         control parameters in the FSMC_NORSRAM_InitTypeDef
 125:/home/phong/Documents/thesis/stm32f4/stm-idf/components/stm32f4xx_hal_driver/stm32f4xx_ll_fsmc.c ****   * @param  Device Pointer to NORSRAM device instance
 126:/home/phong/Documents/thesis/stm32f4/stm-idf/components/stm32f4xx_hal_driver/stm32f4xx_ll_fsmc.c ****   * @param  Init Pointer to NORSRAM Initialization structure   
 127:/home/phong/Documents/thesis/stm32f4/stm-idf/components/stm32f4xx_hal_driver/stm32f4xx_ll_fsmc.c ****   * @retval HAL status
 128:/home/phong/Documents/thesis/stm32f4/stm-idf/components/stm32f4xx_hal_driver/stm32f4xx_ll_fsmc.c ****   */
 129:/home/phong/Documents/thesis/stm32f4/stm-idf/components/stm32f4xx_hal_driver/stm32f4xx_ll_fsmc.c **** HAL_StatusTypeDef  FSMC_NORSRAM_Init(FSMC_NORSRAM_TypeDef *Device, FSMC_NORSRAM_InitTypeDef* Init)
 130:/home/phong/Documents/thesis/stm32f4/stm-idf/components/stm32f4xx_hal_driver/stm32f4xx_ll_fsmc.c **** { 
  28              		.loc 1 130 0
  29              		.cfi_startproc
  30              		@ args = 0, pretend = 0, frame = 0
  31              		@ frame_needed = 0, uses_anonymous_args = 0
  32              		@ link register save eliminated.
  33              	.LVL0:
  34 0000 70B4     		push	{r4, r5, r6}
  35              	.LCFI0:
  36              		.cfi_def_cfa_offset 12
  37              		.cfi_offset 4, -12
  38              		.cfi_offset 5, -8
  39              		.cfi_offset 6, -4
  40              	.LVL1:
 131:/home/phong/Documents/thesis/stm32f4/stm-idf/components/stm32f4xx_hal_driver/stm32f4xx_ll_fsmc.c ****   uint32_t tmpr = 0U;
 132:/home/phong/Documents/thesis/stm32f4/stm-idf/components/stm32f4xx_hal_driver/stm32f4xx_ll_fsmc.c ****     
ARM GAS  /tmp/cccrE0jc.s 			page 4


 133:/home/phong/Documents/thesis/stm32f4/stm-idf/components/stm32f4xx_hal_driver/stm32f4xx_ll_fsmc.c ****   /* Check the parameters */
 134:/home/phong/Documents/thesis/stm32f4/stm-idf/components/stm32f4xx_hal_driver/stm32f4xx_ll_fsmc.c ****   assert_param(IS_FSMC_NORSRAM_DEVICE(Device));
 135:/home/phong/Documents/thesis/stm32f4/stm-idf/components/stm32f4xx_hal_driver/stm32f4xx_ll_fsmc.c ****   assert_param(IS_FSMC_NORSRAM_BANK(Init->NSBank));
 136:/home/phong/Documents/thesis/stm32f4/stm-idf/components/stm32f4xx_hal_driver/stm32f4xx_ll_fsmc.c ****   assert_param(IS_FSMC_MUX(Init->DataAddressMux));
 137:/home/phong/Documents/thesis/stm32f4/stm-idf/components/stm32f4xx_hal_driver/stm32f4xx_ll_fsmc.c ****   assert_param(IS_FSMC_MEMORY(Init->MemoryType));
 138:/home/phong/Documents/thesis/stm32f4/stm-idf/components/stm32f4xx_hal_driver/stm32f4xx_ll_fsmc.c ****   assert_param(IS_FSMC_NORSRAM_MEMORY_WIDTH(Init->MemoryDataWidth));
 139:/home/phong/Documents/thesis/stm32f4/stm-idf/components/stm32f4xx_hal_driver/stm32f4xx_ll_fsmc.c ****   assert_param(IS_FSMC_BURSTMODE(Init->BurstAccessMode));
 140:/home/phong/Documents/thesis/stm32f4/stm-idf/components/stm32f4xx_hal_driver/stm32f4xx_ll_fsmc.c ****   assert_param(IS_FSMC_WAIT_POLARITY(Init->WaitSignalPolarity));
 141:/home/phong/Documents/thesis/stm32f4/stm-idf/components/stm32f4xx_hal_driver/stm32f4xx_ll_fsmc.c **** #if defined(STM32F405xx) || defined(STM32F415xx) || defined(STM32F407xx) || defined(STM32F417xx)
 142:/home/phong/Documents/thesis/stm32f4/stm-idf/components/stm32f4xx_hal_driver/stm32f4xx_ll_fsmc.c ****   assert_param(IS_FSMC_WRAP_MODE(Init->WrapMode));
 143:/home/phong/Documents/thesis/stm32f4/stm-idf/components/stm32f4xx_hal_driver/stm32f4xx_ll_fsmc.c **** #endif /* STM32F405xx || STM32F415xx || STM32F407xx || STM32F417xx */
 144:/home/phong/Documents/thesis/stm32f4/stm-idf/components/stm32f4xx_hal_driver/stm32f4xx_ll_fsmc.c ****   assert_param(IS_FSMC_WAIT_SIGNAL_ACTIVE(Init->WaitSignalActive));
 145:/home/phong/Documents/thesis/stm32f4/stm-idf/components/stm32f4xx_hal_driver/stm32f4xx_ll_fsmc.c ****   assert_param(IS_FSMC_WRITE_OPERATION(Init->WriteOperation));
 146:/home/phong/Documents/thesis/stm32f4/stm-idf/components/stm32f4xx_hal_driver/stm32f4xx_ll_fsmc.c ****   assert_param(IS_FSMC_WAITE_SIGNAL(Init->WaitSignal));
 147:/home/phong/Documents/thesis/stm32f4/stm-idf/components/stm32f4xx_hal_driver/stm32f4xx_ll_fsmc.c ****   assert_param(IS_FSMC_EXTENDED_MODE(Init->ExtendedMode));
 148:/home/phong/Documents/thesis/stm32f4/stm-idf/components/stm32f4xx_hal_driver/stm32f4xx_ll_fsmc.c ****   assert_param(IS_FSMC_ASYNWAIT(Init->AsynchronousWait));
 149:/home/phong/Documents/thesis/stm32f4/stm-idf/components/stm32f4xx_hal_driver/stm32f4xx_ll_fsmc.c ****   assert_param(IS_FSMC_WRITE_BURST(Init->WriteBurst));
 150:/home/phong/Documents/thesis/stm32f4/stm-idf/components/stm32f4xx_hal_driver/stm32f4xx_ll_fsmc.c ****   assert_param(IS_FSMC_PAGESIZE(Init->PageSize));
 151:/home/phong/Documents/thesis/stm32f4/stm-idf/components/stm32f4xx_hal_driver/stm32f4xx_ll_fsmc.c **** #if defined(STM32F412Zx) || defined(STM32F412Vx) || defined(STM32F412Rx) || defined(STM32F413xx) ||
 152:/home/phong/Documents/thesis/stm32f4/stm-idf/components/stm32f4xx_hal_driver/stm32f4xx_ll_fsmc.c ****   assert_param(IS_FSMC_WRITE_FIFO(Init->WriteFifo));
 153:/home/phong/Documents/thesis/stm32f4/stm-idf/components/stm32f4xx_hal_driver/stm32f4xx_ll_fsmc.c ****   assert_param(IS_FSMC_CONTINOUS_CLOCK(Init->ContinuousClock));
 154:/home/phong/Documents/thesis/stm32f4/stm-idf/components/stm32f4xx_hal_driver/stm32f4xx_ll_fsmc.c **** #endif /* STM32F412Zx || STM32F412Vx || STM32F413xx || STM32F423xx */
 155:/home/phong/Documents/thesis/stm32f4/stm-idf/components/stm32f4xx_hal_driver/stm32f4xx_ll_fsmc.c ****   
 156:/home/phong/Documents/thesis/stm32f4/stm-idf/components/stm32f4xx_hal_driver/stm32f4xx_ll_fsmc.c ****   /* Get the BTCR register value */
 157:/home/phong/Documents/thesis/stm32f4/stm-idf/components/stm32f4xx_hal_driver/stm32f4xx_ll_fsmc.c ****   tmpr = Device->BTCR[Init->NSBank];
  41              		.loc 1 157 0
  42 0002 0C68     		ldr	r4, [r1]
  43 0004 50F82430 		ldr	r3, [r0, r4, lsl #2]
  44              	.LVL2:
 158:/home/phong/Documents/thesis/stm32f4/stm-idf/components/stm32f4xx_hal_driver/stm32f4xx_ll_fsmc.c **** 
 159:/home/phong/Documents/thesis/stm32f4/stm-idf/components/stm32f4xx_hal_driver/stm32f4xx_ll_fsmc.c **** #if defined(STM32F405xx) || defined(STM32F415xx) || defined(STM32F407xx) || defined(STM32F417xx)
 160:/home/phong/Documents/thesis/stm32f4/stm-idf/components/stm32f4xx_hal_driver/stm32f4xx_ll_fsmc.c ****   /* Clear MBKEN, MUXEN, MTYP, MWID, FACCEN, BURSTEN, WAITPOL, WRAPMOD, WAITCFG, WREN,
 161:/home/phong/Documents/thesis/stm32f4/stm-idf/components/stm32f4xx_hal_driver/stm32f4xx_ll_fsmc.c ****            WAITEN, EXTMOD, ASYNCWAIT, CPSIZE and CBURSTRW bits */
 162:/home/phong/Documents/thesis/stm32f4/stm-idf/components/stm32f4xx_hal_driver/stm32f4xx_ll_fsmc.c ****   tmpr &= ((uint32_t)~(FSMC_BCR1_MBKEN     | FSMC_BCR1_MUXEN    | FSMC_BCR1_MTYP     | \
  45              		.loc 1 162 0
  46 0008 124A     		ldr	r2, .L5
  47 000a 1A40     		ands	r2, r2, r3
  48              	.LVL3:
 163:/home/phong/Documents/thesis/stm32f4/stm-idf/components/stm32f4xx_hal_driver/stm32f4xx_ll_fsmc.c ****                        FSMC_BCR1_MWID      | FSMC_BCR1_FACCEN   | FSMC_BCR1_BURSTEN  | \
 164:/home/phong/Documents/thesis/stm32f4/stm-idf/components/stm32f4xx_hal_driver/stm32f4xx_ll_fsmc.c ****                        FSMC_BCR1_WAITPOL   | FSMC_BCR1_WRAPMOD  | FSMC_BCR1_WAITCFG  | \
 165:/home/phong/Documents/thesis/stm32f4/stm-idf/components/stm32f4xx_hal_driver/stm32f4xx_ll_fsmc.c ****                        FSMC_BCR1_WREN      | FSMC_BCR1_WAITEN   | FSMC_BCR1_EXTMOD   | \
 166:/home/phong/Documents/thesis/stm32f4/stm-idf/components/stm32f4xx_hal_driver/stm32f4xx_ll_fsmc.c ****                        FSMC_BCR1_ASYNCWAIT | FSMC_BCR1_CPSIZE   | FSMC_BCR1_CBURSTRW));
 167:/home/phong/Documents/thesis/stm32f4/stm-idf/components/stm32f4xx_hal_driver/stm32f4xx_ll_fsmc.c ****   /* Set NORSRAM device control parameters */
 168:/home/phong/Documents/thesis/stm32f4/stm-idf/components/stm32f4xx_hal_driver/stm32f4xx_ll_fsmc.c ****   tmpr |= (uint32_t)(Init->DataAddressMux       |\
  49              		.loc 1 168 0
  50 000c 4B68     		ldr	r3, [r1, #4]
 169:/home/phong/Documents/thesis/stm32f4/stm-idf/components/stm32f4xx_hal_driver/stm32f4xx_ll_fsmc.c ****                      Init->MemoryType           |\
  51              		.loc 1 169 0
  52 000e 8D68     		ldr	r5, [r1, #8]
 168:/home/phong/Documents/thesis/stm32f4/stm-idf/components/stm32f4xx_hal_driver/stm32f4xx_ll_fsmc.c ****                      Init->MemoryType           |\
  53              		.loc 1 168 0
  54 0010 2B43     		orrs	r3, r3, r5
 170:/home/phong/Documents/thesis/stm32f4/stm-idf/components/stm32f4xx_hal_driver/stm32f4xx_ll_fsmc.c ****                      Init->MemoryDataWidth      |\
  55              		.loc 1 170 0
  56 0012 CE68     		ldr	r6, [r1, #12]
 169:/home/phong/Documents/thesis/stm32f4/stm-idf/components/stm32f4xx_hal_driver/stm32f4xx_ll_fsmc.c ****                      Init->MemoryType           |\
  57              		.loc 1 169 0
ARM GAS  /tmp/cccrE0jc.s 			page 5


  58 0014 3343     		orrs	r3, r3, r6
 171:/home/phong/Documents/thesis/stm32f4/stm-idf/components/stm32f4xx_hal_driver/stm32f4xx_ll_fsmc.c ****                      Init->BurstAccessMode      |\
  59              		.loc 1 171 0
  60 0016 0E69     		ldr	r6, [r1, #16]
 170:/home/phong/Documents/thesis/stm32f4/stm-idf/components/stm32f4xx_hal_driver/stm32f4xx_ll_fsmc.c ****                      Init->MemoryDataWidth      |\
  61              		.loc 1 170 0
  62 0018 3343     		orrs	r3, r3, r6
 172:/home/phong/Documents/thesis/stm32f4/stm-idf/components/stm32f4xx_hal_driver/stm32f4xx_ll_fsmc.c ****                      Init->WaitSignalPolarity   |\
  63              		.loc 1 172 0
  64 001a 4E69     		ldr	r6, [r1, #20]
 171:/home/phong/Documents/thesis/stm32f4/stm-idf/components/stm32f4xx_hal_driver/stm32f4xx_ll_fsmc.c ****                      Init->BurstAccessMode      |\
  65              		.loc 1 171 0
  66 001c 3343     		orrs	r3, r3, r6
 173:/home/phong/Documents/thesis/stm32f4/stm-idf/components/stm32f4xx_hal_driver/stm32f4xx_ll_fsmc.c ****                      Init->WrapMode             |\
  67              		.loc 1 173 0
  68 001e 8E69     		ldr	r6, [r1, #24]
 172:/home/phong/Documents/thesis/stm32f4/stm-idf/components/stm32f4xx_hal_driver/stm32f4xx_ll_fsmc.c ****                      Init->WaitSignalPolarity   |\
  69              		.loc 1 172 0
  70 0020 3343     		orrs	r3, r3, r6
 174:/home/phong/Documents/thesis/stm32f4/stm-idf/components/stm32f4xx_hal_driver/stm32f4xx_ll_fsmc.c ****                      Init->WaitSignalActive     |\
  71              		.loc 1 174 0
  72 0022 CE69     		ldr	r6, [r1, #28]
 173:/home/phong/Documents/thesis/stm32f4/stm-idf/components/stm32f4xx_hal_driver/stm32f4xx_ll_fsmc.c ****                      Init->WrapMode             |\
  73              		.loc 1 173 0
  74 0024 3343     		orrs	r3, r3, r6
 175:/home/phong/Documents/thesis/stm32f4/stm-idf/components/stm32f4xx_hal_driver/stm32f4xx_ll_fsmc.c ****                      Init->WriteOperation       |\
  75              		.loc 1 175 0
  76 0026 0E6A     		ldr	r6, [r1, #32]
 174:/home/phong/Documents/thesis/stm32f4/stm-idf/components/stm32f4xx_hal_driver/stm32f4xx_ll_fsmc.c ****                      Init->WaitSignalActive     |\
  77              		.loc 1 174 0
  78 0028 3343     		orrs	r3, r3, r6
 176:/home/phong/Documents/thesis/stm32f4/stm-idf/components/stm32f4xx_hal_driver/stm32f4xx_ll_fsmc.c ****                      Init->WaitSignal           |\
  79              		.loc 1 176 0
  80 002a 4E6A     		ldr	r6, [r1, #36]
 175:/home/phong/Documents/thesis/stm32f4/stm-idf/components/stm32f4xx_hal_driver/stm32f4xx_ll_fsmc.c ****                      Init->WriteOperation       |\
  81              		.loc 1 175 0
  82 002c 3343     		orrs	r3, r3, r6
 177:/home/phong/Documents/thesis/stm32f4/stm-idf/components/stm32f4xx_hal_driver/stm32f4xx_ll_fsmc.c ****                      Init->ExtendedMode         |\
  83              		.loc 1 177 0
  84 002e 8E6A     		ldr	r6, [r1, #40]
 176:/home/phong/Documents/thesis/stm32f4/stm-idf/components/stm32f4xx_hal_driver/stm32f4xx_ll_fsmc.c ****                      Init->WaitSignal           |\
  85              		.loc 1 176 0
  86 0030 3343     		orrs	r3, r3, r6
 178:/home/phong/Documents/thesis/stm32f4/stm-idf/components/stm32f4xx_hal_driver/stm32f4xx_ll_fsmc.c ****                      Init->AsynchronousWait     |\
  87              		.loc 1 178 0
  88 0032 CE6A     		ldr	r6, [r1, #44]
 177:/home/phong/Documents/thesis/stm32f4/stm-idf/components/stm32f4xx_hal_driver/stm32f4xx_ll_fsmc.c ****                      Init->ExtendedMode         |\
  89              		.loc 1 177 0
  90 0034 3343     		orrs	r3, r3, r6
 179:/home/phong/Documents/thesis/stm32f4/stm-idf/components/stm32f4xx_hal_driver/stm32f4xx_ll_fsmc.c ****                      Init->PageSize             |\
  91              		.loc 1 179 0
  92 0036 CE6B     		ldr	r6, [r1, #60]
 178:/home/phong/Documents/thesis/stm32f4/stm-idf/components/stm32f4xx_hal_driver/stm32f4xx_ll_fsmc.c ****                      Init->AsynchronousWait     |\
  93              		.loc 1 178 0
  94 0038 3343     		orrs	r3, r3, r6
 180:/home/phong/Documents/thesis/stm32f4/stm-idf/components/stm32f4xx_hal_driver/stm32f4xx_ll_fsmc.c ****                      Init->WriteBurst
  95              		.loc 1 180 0
ARM GAS  /tmp/cccrE0jc.s 			page 6


  96 003a 096B     		ldr	r1, [r1, #48]
  97              	.LVL4:
 179:/home/phong/Documents/thesis/stm32f4/stm-idf/components/stm32f4xx_hal_driver/stm32f4xx_ll_fsmc.c ****                      Init->PageSize             |\
  98              		.loc 1 179 0
  99 003c 0B43     		orrs	r3, r3, r1
 168:/home/phong/Documents/thesis/stm32f4/stm-idf/components/stm32f4xx_hal_driver/stm32f4xx_ll_fsmc.c ****                      Init->MemoryType           |\
 100              		.loc 1 168 0
 101 003e 1343     		orrs	r3, r3, r2
 102              	.LVL5:
 181:/home/phong/Documents/thesis/stm32f4/stm-idf/components/stm32f4xx_hal_driver/stm32f4xx_ll_fsmc.c ****                      );
 182:/home/phong/Documents/thesis/stm32f4/stm-idf/components/stm32f4xx_hal_driver/stm32f4xx_ll_fsmc.c **** #else /* STM32F412Zx || STM32F412Vx || STM32F412Rx || STM32F413xx || STM32F423xx */
 183:/home/phong/Documents/thesis/stm32f4/stm-idf/components/stm32f4xx_hal_driver/stm32f4xx_ll_fsmc.c ****   /* Clear MBKEN, MUXEN, MTYP, MWID, FACCEN, BURSTEN, WAITPOL, WAITCFG, WREN,
 184:/home/phong/Documents/thesis/stm32f4/stm-idf/components/stm32f4xx_hal_driver/stm32f4xx_ll_fsmc.c ****            WAITEN, EXTMOD, ASYNCWAIT,CPSIZE,  CBURSTRW, CCLKEN and WFDIS bits */
 185:/home/phong/Documents/thesis/stm32f4/stm-idf/components/stm32f4xx_hal_driver/stm32f4xx_ll_fsmc.c ****   tmpr &= ((uint32_t)~(FSMC_BCR1_MBKEN     | FSMC_BCR1_MUXEN    | FSMC_BCR1_MTYP      | \
 186:/home/phong/Documents/thesis/stm32f4/stm-idf/components/stm32f4xx_hal_driver/stm32f4xx_ll_fsmc.c ****                        FSMC_BCR1_MWID      | FSMC_BCR1_FACCEN   | FSMC_BCR1_BURSTEN   | \
 187:/home/phong/Documents/thesis/stm32f4/stm-idf/components/stm32f4xx_hal_driver/stm32f4xx_ll_fsmc.c ****                        FSMC_BCR1_WAITPOL   | FSMC_BCR1_WAITCFG  | FSMC_BCR1_WREN      | \
 188:/home/phong/Documents/thesis/stm32f4/stm-idf/components/stm32f4xx_hal_driver/stm32f4xx_ll_fsmc.c ****                        FSMC_BCR1_WAITEN    | FSMC_BCR1_EXTMOD   | FSMC_BCR1_ASYNCWAIT | \
 189:/home/phong/Documents/thesis/stm32f4/stm-idf/components/stm32f4xx_hal_driver/stm32f4xx_ll_fsmc.c ****                        FSMC_BCR1_CPSIZE    | FSMC_BCR1_CBURSTRW | FSMC_BCR1_CCLKEN    | \
 190:/home/phong/Documents/thesis/stm32f4/stm-idf/components/stm32f4xx_hal_driver/stm32f4xx_ll_fsmc.c ****                        FSMC_BCR1_WFDIS));
 191:/home/phong/Documents/thesis/stm32f4/stm-idf/components/stm32f4xx_hal_driver/stm32f4xx_ll_fsmc.c ****   /* Set NORSRAM device control parameters */
 192:/home/phong/Documents/thesis/stm32f4/stm-idf/components/stm32f4xx_hal_driver/stm32f4xx_ll_fsmc.c ****   tmpr |= (uint32_t)(Init->DataAddressMux       |\
 193:/home/phong/Documents/thesis/stm32f4/stm-idf/components/stm32f4xx_hal_driver/stm32f4xx_ll_fsmc.c ****                      Init->MemoryType           |\
 194:/home/phong/Documents/thesis/stm32f4/stm-idf/components/stm32f4xx_hal_driver/stm32f4xx_ll_fsmc.c ****                      Init->MemoryDataWidth      |\
 195:/home/phong/Documents/thesis/stm32f4/stm-idf/components/stm32f4xx_hal_driver/stm32f4xx_ll_fsmc.c ****                      Init->BurstAccessMode      |\
 196:/home/phong/Documents/thesis/stm32f4/stm-idf/components/stm32f4xx_hal_driver/stm32f4xx_ll_fsmc.c ****                      Init->WaitSignalPolarity   |\
 197:/home/phong/Documents/thesis/stm32f4/stm-idf/components/stm32f4xx_hal_driver/stm32f4xx_ll_fsmc.c ****                      Init->WaitSignalActive     |\
 198:/home/phong/Documents/thesis/stm32f4/stm-idf/components/stm32f4xx_hal_driver/stm32f4xx_ll_fsmc.c ****                      Init->WriteOperation       |\
 199:/home/phong/Documents/thesis/stm32f4/stm-idf/components/stm32f4xx_hal_driver/stm32f4xx_ll_fsmc.c ****                      Init->WaitSignal           |\
 200:/home/phong/Documents/thesis/stm32f4/stm-idf/components/stm32f4xx_hal_driver/stm32f4xx_ll_fsmc.c ****                      Init->ExtendedMode         |\
 201:/home/phong/Documents/thesis/stm32f4/stm-idf/components/stm32f4xx_hal_driver/stm32f4xx_ll_fsmc.c ****                      Init->AsynchronousWait     |\
 202:/home/phong/Documents/thesis/stm32f4/stm-idf/components/stm32f4xx_hal_driver/stm32f4xx_ll_fsmc.c ****                      Init->WriteBurst           |\
 203:/home/phong/Documents/thesis/stm32f4/stm-idf/components/stm32f4xx_hal_driver/stm32f4xx_ll_fsmc.c ****                      Init->ContinuousClock      |\
 204:/home/phong/Documents/thesis/stm32f4/stm-idf/components/stm32f4xx_hal_driver/stm32f4xx_ll_fsmc.c ****                      Init->PageSize             |\
 205:/home/phong/Documents/thesis/stm32f4/stm-idf/components/stm32f4xx_hal_driver/stm32f4xx_ll_fsmc.c ****                      Init->WriteFifo);
 206:/home/phong/Documents/thesis/stm32f4/stm-idf/components/stm32f4xx_hal_driver/stm32f4xx_ll_fsmc.c **** #endif /* STM32F405xx || STM32F415xx || STM32F407xx || STM32F417xx */ 
 207:/home/phong/Documents/thesis/stm32f4/stm-idf/components/stm32f4xx_hal_driver/stm32f4xx_ll_fsmc.c ****             
 208:/home/phong/Documents/thesis/stm32f4/stm-idf/components/stm32f4xx_hal_driver/stm32f4xx_ll_fsmc.c ****   if(Init->MemoryType == FSMC_MEMORY_TYPE_NOR)
 103              		.loc 1 208 0
 104 0040 082D     		cmp	r5, #8
 105 0042 04D0     		beq	.L4
 106              	.L2:
 209:/home/phong/Documents/thesis/stm32f4/stm-idf/components/stm32f4xx_hal_driver/stm32f4xx_ll_fsmc.c ****   {
 210:/home/phong/Documents/thesis/stm32f4/stm-idf/components/stm32f4xx_hal_driver/stm32f4xx_ll_fsmc.c ****     tmpr |= (uint32_t)FSMC_NORSRAM_FLASH_ACCESS_ENABLE;
 211:/home/phong/Documents/thesis/stm32f4/stm-idf/components/stm32f4xx_hal_driver/stm32f4xx_ll_fsmc.c ****   }
 212:/home/phong/Documents/thesis/stm32f4/stm-idf/components/stm32f4xx_hal_driver/stm32f4xx_ll_fsmc.c **** 
 213:/home/phong/Documents/thesis/stm32f4/stm-idf/components/stm32f4xx_hal_driver/stm32f4xx_ll_fsmc.c ****   Device->BTCR[Init->NSBank] = tmpr;
 107              		.loc 1 213 0
 108 0044 40F82430 		str	r3, [r0, r4, lsl #2]
 214:/home/phong/Documents/thesis/stm32f4/stm-idf/components/stm32f4xx_hal_driver/stm32f4xx_ll_fsmc.c **** 
 215:/home/phong/Documents/thesis/stm32f4/stm-idf/components/stm32f4xx_hal_driver/stm32f4xx_ll_fsmc.c **** #if defined(STM32F412Zx) || defined(STM32F412Vx) || defined(STM32F412Rx) || defined(STM32F413xx) ||
 216:/home/phong/Documents/thesis/stm32f4/stm-idf/components/stm32f4xx_hal_driver/stm32f4xx_ll_fsmc.c ****   /* Configure synchronous mode when Continuous clock is enabled for bank2..4 */
 217:/home/phong/Documents/thesis/stm32f4/stm-idf/components/stm32f4xx_hal_driver/stm32f4xx_ll_fsmc.c ****   if((Init->ContinuousClock == FSMC_CONTINUOUS_CLOCK_SYNC_ASYNC) && (Init->NSBank != FSMC_NORSRAM_B
 218:/home/phong/Documents/thesis/stm32f4/stm-idf/components/stm32f4xx_hal_driver/stm32f4xx_ll_fsmc.c ****   {
 219:/home/phong/Documents/thesis/stm32f4/stm-idf/components/stm32f4xx_hal_driver/stm32f4xx_ll_fsmc.c ****     Device->BTCR[FSMC_NORSRAM_BANK1] |= (uint32_t)(Init->ContinuousClock);
 220:/home/phong/Documents/thesis/stm32f4/stm-idf/components/stm32f4xx_hal_driver/stm32f4xx_ll_fsmc.c ****   }
 221:/home/phong/Documents/thesis/stm32f4/stm-idf/components/stm32f4xx_hal_driver/stm32f4xx_ll_fsmc.c **** 
 222:/home/phong/Documents/thesis/stm32f4/stm-idf/components/stm32f4xx_hal_driver/stm32f4xx_ll_fsmc.c ****   if(Init->NSBank != FSMC_NORSRAM_BANK1)
ARM GAS  /tmp/cccrE0jc.s 			page 7


 223:/home/phong/Documents/thesis/stm32f4/stm-idf/components/stm32f4xx_hal_driver/stm32f4xx_ll_fsmc.c ****   {
 224:/home/phong/Documents/thesis/stm32f4/stm-idf/components/stm32f4xx_hal_driver/stm32f4xx_ll_fsmc.c ****     Device->BTCR[FSMC_NORSRAM_BANK1] |= (uint32_t)(Init->WriteFifo);
 225:/home/phong/Documents/thesis/stm32f4/stm-idf/components/stm32f4xx_hal_driver/stm32f4xx_ll_fsmc.c ****   }
 226:/home/phong/Documents/thesis/stm32f4/stm-idf/components/stm32f4xx_hal_driver/stm32f4xx_ll_fsmc.c **** #endif /* STM32F412Zx || STM32F412Vx || STM32F412Rx || STM32F413xx || STM32F423xx */
 227:/home/phong/Documents/thesis/stm32f4/stm-idf/components/stm32f4xx_hal_driver/stm32f4xx_ll_fsmc.c **** 
 228:/home/phong/Documents/thesis/stm32f4/stm-idf/components/stm32f4xx_hal_driver/stm32f4xx_ll_fsmc.c ****   return HAL_OK;
 229:/home/phong/Documents/thesis/stm32f4/stm-idf/components/stm32f4xx_hal_driver/stm32f4xx_ll_fsmc.c **** }
 109              		.loc 1 229 0
 110 0048 0020     		movs	r0, #0
 111              	.LVL6:
 112 004a 70BC     		pop	{r4, r5, r6}
 113              	.LCFI1:
 114              		.cfi_remember_state
 115              		.cfi_restore 6
 116              		.cfi_restore 5
 117              		.cfi_restore 4
 118              		.cfi_def_cfa_offset 0
 119 004c 7047     		bx	lr
 120              	.LVL7:
 121              	.L4:
 122              	.LCFI2:
 123              		.cfi_restore_state
 210:/home/phong/Documents/thesis/stm32f4/stm-idf/components/stm32f4xx_hal_driver/stm32f4xx_ll_fsmc.c ****   }
 124              		.loc 1 210 0
 125 004e 43F04003 		orr	r3, r3, #64
 126              	.LVL8:
 127 0052 F7E7     		b	.L2
 128              	.L6:
 129              		.align	2
 130              	.L5:
 131 0054 8000F0FF 		.word	-1048448
 132              		.cfi_endproc
 133              	.LFE130:
 135              		.section	.text.FSMC_NORSRAM_DeInit,"ax",%progbits
 136              		.align	1
 137              		.global	FSMC_NORSRAM_DeInit
 138              		.syntax unified
 139              		.thumb
 140              		.thumb_func
 141              		.fpu fpv4-sp-d16
 143              	FSMC_NORSRAM_DeInit:
 144              	.LFB131:
 230:/home/phong/Documents/thesis/stm32f4/stm-idf/components/stm32f4xx_hal_driver/stm32f4xx_ll_fsmc.c **** 
 231:/home/phong/Documents/thesis/stm32f4/stm-idf/components/stm32f4xx_hal_driver/stm32f4xx_ll_fsmc.c **** /**
 232:/home/phong/Documents/thesis/stm32f4/stm-idf/components/stm32f4xx_hal_driver/stm32f4xx_ll_fsmc.c ****   * @brief  DeInitialize the FSMC_NORSRAM peripheral 
 233:/home/phong/Documents/thesis/stm32f4/stm-idf/components/stm32f4xx_hal_driver/stm32f4xx_ll_fsmc.c ****   * @param  Device Pointer to NORSRAM device instance
 234:/home/phong/Documents/thesis/stm32f4/stm-idf/components/stm32f4xx_hal_driver/stm32f4xx_ll_fsmc.c ****   * @param  ExDevice Pointer to NORSRAM extended mode device instance  
 235:/home/phong/Documents/thesis/stm32f4/stm-idf/components/stm32f4xx_hal_driver/stm32f4xx_ll_fsmc.c ****   * @param  Bank NORSRAM bank number  
 236:/home/phong/Documents/thesis/stm32f4/stm-idf/components/stm32f4xx_hal_driver/stm32f4xx_ll_fsmc.c ****   * @retval HAL status
 237:/home/phong/Documents/thesis/stm32f4/stm-idf/components/stm32f4xx_hal_driver/stm32f4xx_ll_fsmc.c ****   */
 238:/home/phong/Documents/thesis/stm32f4/stm-idf/components/stm32f4xx_hal_driver/stm32f4xx_ll_fsmc.c **** HAL_StatusTypeDef FSMC_NORSRAM_DeInit(FSMC_NORSRAM_TypeDef *Device, FSMC_NORSRAM_EXTENDED_TypeDef *
 239:/home/phong/Documents/thesis/stm32f4/stm-idf/components/stm32f4xx_hal_driver/stm32f4xx_ll_fsmc.c **** {
 145              		.loc 1 239 0
 146              		.cfi_startproc
 147              		@ args = 0, pretend = 0, frame = 0
 148              		@ frame_needed = 0, uses_anonymous_args = 0
 149              		@ link register save eliminated.
ARM GAS  /tmp/cccrE0jc.s 			page 8


 150              	.LVL9:
 151 0000 10B4     		push	{r4}
 152              	.LCFI3:
 153              		.cfi_def_cfa_offset 4
 154              		.cfi_offset 4, -4
 240:/home/phong/Documents/thesis/stm32f4/stm-idf/components/stm32f4xx_hal_driver/stm32f4xx_ll_fsmc.c ****   /* Check the parameters */
 241:/home/phong/Documents/thesis/stm32f4/stm-idf/components/stm32f4xx_hal_driver/stm32f4xx_ll_fsmc.c ****   assert_param(IS_FSMC_NORSRAM_DEVICE(Device));
 242:/home/phong/Documents/thesis/stm32f4/stm-idf/components/stm32f4xx_hal_driver/stm32f4xx_ll_fsmc.c ****   assert_param(IS_FSMC_NORSRAM_EXTENDED_DEVICE(ExDevice));
 243:/home/phong/Documents/thesis/stm32f4/stm-idf/components/stm32f4xx_hal_driver/stm32f4xx_ll_fsmc.c ****   assert_param(IS_FSMC_NORSRAM_BANK(Bank));
 244:/home/phong/Documents/thesis/stm32f4/stm-idf/components/stm32f4xx_hal_driver/stm32f4xx_ll_fsmc.c **** 
 245:/home/phong/Documents/thesis/stm32f4/stm-idf/components/stm32f4xx_hal_driver/stm32f4xx_ll_fsmc.c ****   /* Disable the FSMC_NORSRAM device */
 246:/home/phong/Documents/thesis/stm32f4/stm-idf/components/stm32f4xx_hal_driver/stm32f4xx_ll_fsmc.c ****   __FSMC_NORSRAM_DISABLE(Device, Bank);
 155              		.loc 1 246 0
 156 0002 50F82230 		ldr	r3, [r0, r2, lsl #2]
 157 0006 23F00103 		bic	r3, r3, #1
 158 000a 40F82230 		str	r3, [r0, r2, lsl #2]
 247:/home/phong/Documents/thesis/stm32f4/stm-idf/components/stm32f4xx_hal_driver/stm32f4xx_ll_fsmc.c ****   
 248:/home/phong/Documents/thesis/stm32f4/stm-idf/components/stm32f4xx_hal_driver/stm32f4xx_ll_fsmc.c ****   /* De-initialize the FSMC_NORSRAM device */
 249:/home/phong/Documents/thesis/stm32f4/stm-idf/components/stm32f4xx_hal_driver/stm32f4xx_ll_fsmc.c ****   /* FSMC_NORSRAM_BANK1 */
 250:/home/phong/Documents/thesis/stm32f4/stm-idf/components/stm32f4xx_hal_driver/stm32f4xx_ll_fsmc.c ****   if(Bank == FSMC_NORSRAM_BANK1)
 159              		.loc 1 250 0
 160 000e 72B1     		cbz	r2, .L11
 251:/home/phong/Documents/thesis/stm32f4/stm-idf/components/stm32f4xx_hal_driver/stm32f4xx_ll_fsmc.c ****   {
 252:/home/phong/Documents/thesis/stm32f4/stm-idf/components/stm32f4xx_hal_driver/stm32f4xx_ll_fsmc.c ****     Device->BTCR[Bank] = 0x000030DBU;    
 253:/home/phong/Documents/thesis/stm32f4/stm-idf/components/stm32f4xx_hal_driver/stm32f4xx_ll_fsmc.c ****   }
 254:/home/phong/Documents/thesis/stm32f4/stm-idf/components/stm32f4xx_hal_driver/stm32f4xx_ll_fsmc.c ****   /* FSMC_NORSRAM_BANK2, FSMC_NORSRAM_BANK3 or FSMC_NORSRAM_BANK4 */
 255:/home/phong/Documents/thesis/stm32f4/stm-idf/components/stm32f4xx_hal_driver/stm32f4xx_ll_fsmc.c ****   else
 256:/home/phong/Documents/thesis/stm32f4/stm-idf/components/stm32f4xx_hal_driver/stm32f4xx_ll_fsmc.c ****   {   
 257:/home/phong/Documents/thesis/stm32f4/stm-idf/components/stm32f4xx_hal_driver/stm32f4xx_ll_fsmc.c ****     Device->BTCR[Bank] = 0x000030D2U; 
 161              		.loc 1 257 0
 162 0010 43F2D203 		movw	r3, #12498
 163 0014 40F82230 		str	r3, [r0, r2, lsl #2]
 164              	.L9:
 258:/home/phong/Documents/thesis/stm32f4/stm-idf/components/stm32f4xx_hal_driver/stm32f4xx_ll_fsmc.c ****   }
 259:/home/phong/Documents/thesis/stm32f4/stm-idf/components/stm32f4xx_hal_driver/stm32f4xx_ll_fsmc.c ****   
 260:/home/phong/Documents/thesis/stm32f4/stm-idf/components/stm32f4xx_hal_driver/stm32f4xx_ll_fsmc.c ****   Device->BTCR[Bank + 1U] = 0x0FFFFFFFU;
 165              		.loc 1 260 0
 166 0018 541C     		adds	r4, r2, #1
 167 001a 6FF07043 		mvn	r3, #-268435456
 168 001e 40F82430 		str	r3, [r0, r4, lsl #2]
 261:/home/phong/Documents/thesis/stm32f4/stm-idf/components/stm32f4xx_hal_driver/stm32f4xx_ll_fsmc.c ****   ExDevice->BWTR[Bank]    = 0x0FFFFFFFU;
 169              		.loc 1 261 0
 170 0022 41F82230 		str	r3, [r1, r2, lsl #2]
 262:/home/phong/Documents/thesis/stm32f4/stm-idf/components/stm32f4xx_hal_driver/stm32f4xx_ll_fsmc.c ****    
 263:/home/phong/Documents/thesis/stm32f4/stm-idf/components/stm32f4xx_hal_driver/stm32f4xx_ll_fsmc.c ****   return HAL_OK;
 264:/home/phong/Documents/thesis/stm32f4/stm-idf/components/stm32f4xx_hal_driver/stm32f4xx_ll_fsmc.c **** }
 171              		.loc 1 264 0
 172 0026 0020     		movs	r0, #0
 173              	.LVL10:
 174 0028 5DF8044B 		ldr	r4, [sp], #4
 175              	.LCFI4:
 176              		.cfi_remember_state
 177              		.cfi_restore 4
 178              		.cfi_def_cfa_offset 0
 179 002c 7047     		bx	lr
 180              	.LVL11:
 181              	.L11:
ARM GAS  /tmp/cccrE0jc.s 			page 9


 182              	.LCFI5:
 183              		.cfi_restore_state
 252:/home/phong/Documents/thesis/stm32f4/stm-idf/components/stm32f4xx_hal_driver/stm32f4xx_ll_fsmc.c ****   }
 184              		.loc 1 252 0
 185 002e 43F2DB03 		movw	r3, #12507
 186 0032 40F82230 		str	r3, [r0, r2, lsl #2]
 187 0036 EFE7     		b	.L9
 188              		.cfi_endproc
 189              	.LFE131:
 191              		.section	.text.FSMC_NORSRAM_Timing_Init,"ax",%progbits
 192              		.align	1
 193              		.global	FSMC_NORSRAM_Timing_Init
 194              		.syntax unified
 195              		.thumb
 196              		.thumb_func
 197              		.fpu fpv4-sp-d16
 199              	FSMC_NORSRAM_Timing_Init:
 200              	.LFB132:
 265:/home/phong/Documents/thesis/stm32f4/stm-idf/components/stm32f4xx_hal_driver/stm32f4xx_ll_fsmc.c **** 
 266:/home/phong/Documents/thesis/stm32f4/stm-idf/components/stm32f4xx_hal_driver/stm32f4xx_ll_fsmc.c **** 
 267:/home/phong/Documents/thesis/stm32f4/stm-idf/components/stm32f4xx_hal_driver/stm32f4xx_ll_fsmc.c **** /**
 268:/home/phong/Documents/thesis/stm32f4/stm-idf/components/stm32f4xx_hal_driver/stm32f4xx_ll_fsmc.c ****   * @brief  Initialize the FSMC_NORSRAM Timing according to the specified
 269:/home/phong/Documents/thesis/stm32f4/stm-idf/components/stm32f4xx_hal_driver/stm32f4xx_ll_fsmc.c ****   *         parameters in the FSMC_NORSRAM_TimingTypeDef
 270:/home/phong/Documents/thesis/stm32f4/stm-idf/components/stm32f4xx_hal_driver/stm32f4xx_ll_fsmc.c ****   * @param  Device Pointer to NORSRAM device instance
 271:/home/phong/Documents/thesis/stm32f4/stm-idf/components/stm32f4xx_hal_driver/stm32f4xx_ll_fsmc.c ****   * @param  Timing Pointer to NORSRAM Timing structure
 272:/home/phong/Documents/thesis/stm32f4/stm-idf/components/stm32f4xx_hal_driver/stm32f4xx_ll_fsmc.c ****   * @param  Bank NORSRAM bank number  
 273:/home/phong/Documents/thesis/stm32f4/stm-idf/components/stm32f4xx_hal_driver/stm32f4xx_ll_fsmc.c ****   * @retval HAL status
 274:/home/phong/Documents/thesis/stm32f4/stm-idf/components/stm32f4xx_hal_driver/stm32f4xx_ll_fsmc.c ****   */
 275:/home/phong/Documents/thesis/stm32f4/stm-idf/components/stm32f4xx_hal_driver/stm32f4xx_ll_fsmc.c **** HAL_StatusTypeDef FSMC_NORSRAM_Timing_Init(FSMC_NORSRAM_TypeDef *Device, FSMC_NORSRAM_TimingTypeDef
 276:/home/phong/Documents/thesis/stm32f4/stm-idf/components/stm32f4xx_hal_driver/stm32f4xx_ll_fsmc.c **** {
 201              		.loc 1 276 0
 202              		.cfi_startproc
 203              		@ args = 0, pretend = 0, frame = 0
 204              		@ frame_needed = 0, uses_anonymous_args = 0
 205              		@ link register save eliminated.
 206              	.LVL12:
 207 0000 30B4     		push	{r4, r5}
 208              	.LCFI6:
 209              		.cfi_def_cfa_offset 8
 210              		.cfi_offset 4, -8
 211              		.cfi_offset 5, -4
 212              	.LVL13:
 277:/home/phong/Documents/thesis/stm32f4/stm-idf/components/stm32f4xx_hal_driver/stm32f4xx_ll_fsmc.c ****   uint32_t tmpr = 0U;
 278:/home/phong/Documents/thesis/stm32f4/stm-idf/components/stm32f4xx_hal_driver/stm32f4xx_ll_fsmc.c ****   
 279:/home/phong/Documents/thesis/stm32f4/stm-idf/components/stm32f4xx_hal_driver/stm32f4xx_ll_fsmc.c ****   /* Check the parameters */
 280:/home/phong/Documents/thesis/stm32f4/stm-idf/components/stm32f4xx_hal_driver/stm32f4xx_ll_fsmc.c ****   assert_param(IS_FSMC_NORSRAM_DEVICE(Device));
 281:/home/phong/Documents/thesis/stm32f4/stm-idf/components/stm32f4xx_hal_driver/stm32f4xx_ll_fsmc.c ****   assert_param(IS_FSMC_ADDRESS_SETUP_TIME(Timing->AddressSetupTime));
 282:/home/phong/Documents/thesis/stm32f4/stm-idf/components/stm32f4xx_hal_driver/stm32f4xx_ll_fsmc.c ****   assert_param(IS_FSMC_ADDRESS_HOLD_TIME(Timing->AddressHoldTime));
 283:/home/phong/Documents/thesis/stm32f4/stm-idf/components/stm32f4xx_hal_driver/stm32f4xx_ll_fsmc.c ****   assert_param(IS_FSMC_DATASETUP_TIME(Timing->DataSetupTime));
 284:/home/phong/Documents/thesis/stm32f4/stm-idf/components/stm32f4xx_hal_driver/stm32f4xx_ll_fsmc.c ****   assert_param(IS_FSMC_TURNAROUND_TIME(Timing->BusTurnAroundDuration));
 285:/home/phong/Documents/thesis/stm32f4/stm-idf/components/stm32f4xx_hal_driver/stm32f4xx_ll_fsmc.c ****   assert_param(IS_FSMC_CLK_DIV(Timing->CLKDivision));
 286:/home/phong/Documents/thesis/stm32f4/stm-idf/components/stm32f4xx_hal_driver/stm32f4xx_ll_fsmc.c ****   assert_param(IS_FSMC_DATA_LATENCY(Timing->DataLatency));
 287:/home/phong/Documents/thesis/stm32f4/stm-idf/components/stm32f4xx_hal_driver/stm32f4xx_ll_fsmc.c ****   assert_param(IS_FSMC_ACCESS_MODE(Timing->AccessMode));
 288:/home/phong/Documents/thesis/stm32f4/stm-idf/components/stm32f4xx_hal_driver/stm32f4xx_ll_fsmc.c ****   assert_param(IS_FSMC_NORSRAM_BANK(Bank));
 289:/home/phong/Documents/thesis/stm32f4/stm-idf/components/stm32f4xx_hal_driver/stm32f4xx_ll_fsmc.c ****   
 290:/home/phong/Documents/thesis/stm32f4/stm-idf/components/stm32f4xx_hal_driver/stm32f4xx_ll_fsmc.c ****   /* Get the BTCR register value */
 291:/home/phong/Documents/thesis/stm32f4/stm-idf/components/stm32f4xx_hal_driver/stm32f4xx_ll_fsmc.c ****   tmpr = Device->BTCR[Bank + 1U];
ARM GAS  /tmp/cccrE0jc.s 			page 10


 213              		.loc 1 291 0
 214 0002 0132     		adds	r2, r2, #1
 215              	.LVL14:
 216 0004 50F82240 		ldr	r4, [r0, r2, lsl #2]
 217              	.LVL15:
 292:/home/phong/Documents/thesis/stm32f4/stm-idf/components/stm32f4xx_hal_driver/stm32f4xx_ll_fsmc.c **** 
 293:/home/phong/Documents/thesis/stm32f4/stm-idf/components/stm32f4xx_hal_driver/stm32f4xx_ll_fsmc.c ****   /* Clear ADDSET, ADDHLD, DATAST, BUSTURN, CLKDIV, DATLAT and ACCMOD bits */
 294:/home/phong/Documents/thesis/stm32f4/stm-idf/components/stm32f4xx_hal_driver/stm32f4xx_ll_fsmc.c ****   tmpr &= ((uint32_t)~(FSMC_BTR1_ADDSET  | FSMC_BTR1_ADDHLD | FSMC_BTR1_DATAST | \
 218              		.loc 1 294 0
 219 0008 04F04044 		and	r4, r4, #-1073741824
 220              	.LVL16:
 295:/home/phong/Documents/thesis/stm32f4/stm-idf/components/stm32f4xx_hal_driver/stm32f4xx_ll_fsmc.c ****                        FSMC_BTR1_BUSTURN | FSMC_BTR1_CLKDIV | FSMC_BTR1_DATLAT | \
 296:/home/phong/Documents/thesis/stm32f4/stm-idf/components/stm32f4xx_hal_driver/stm32f4xx_ll_fsmc.c ****                        FSMC_BTR1_ACCMOD));
 297:/home/phong/Documents/thesis/stm32f4/stm-idf/components/stm32f4xx_hal_driver/stm32f4xx_ll_fsmc.c ****   
 298:/home/phong/Documents/thesis/stm32f4/stm-idf/components/stm32f4xx_hal_driver/stm32f4xx_ll_fsmc.c ****   /* Set FSMC_NORSRAM device timing parameters */  
 299:/home/phong/Documents/thesis/stm32f4/stm-idf/components/stm32f4xx_hal_driver/stm32f4xx_ll_fsmc.c ****   tmpr |= (uint32_t)(Timing->AddressSetupTime                  |\
 221              		.loc 1 299 0
 222 000c 0B68     		ldr	r3, [r1]
 300:/home/phong/Documents/thesis/stm32f4/stm-idf/components/stm32f4xx_hal_driver/stm32f4xx_ll_fsmc.c ****                     ((Timing->AddressHoldTime) << 4U)          |\
 223              		.loc 1 300 0
 224 000e 4D68     		ldr	r5, [r1, #4]
 299:/home/phong/Documents/thesis/stm32f4/stm-idf/components/stm32f4xx_hal_driver/stm32f4xx_ll_fsmc.c ****                     ((Timing->AddressHoldTime) << 4U)          |\
 225              		.loc 1 299 0
 226 0010 43EA0513 		orr	r3, r3, r5, lsl #4
 301:/home/phong/Documents/thesis/stm32f4/stm-idf/components/stm32f4xx_hal_driver/stm32f4xx_ll_fsmc.c ****                     ((Timing->DataSetupTime) << 8U)            |\
 227              		.loc 1 301 0
 228 0014 8D68     		ldr	r5, [r1, #8]
 300:/home/phong/Documents/thesis/stm32f4/stm-idf/components/stm32f4xx_hal_driver/stm32f4xx_ll_fsmc.c ****                     ((Timing->AddressHoldTime) << 4U)          |\
 229              		.loc 1 300 0
 230 0016 43EA0523 		orr	r3, r3, r5, lsl #8
 302:/home/phong/Documents/thesis/stm32f4/stm-idf/components/stm32f4xx_hal_driver/stm32f4xx_ll_fsmc.c ****                     ((Timing->BusTurnAroundDuration) << 16U)   |\
 231              		.loc 1 302 0
 232 001a CD68     		ldr	r5, [r1, #12]
 301:/home/phong/Documents/thesis/stm32f4/stm-idf/components/stm32f4xx_hal_driver/stm32f4xx_ll_fsmc.c ****                     ((Timing->DataSetupTime) << 8U)            |\
 233              		.loc 1 301 0
 234 001c 43EA0543 		orr	r3, r3, r5, lsl #16
 303:/home/phong/Documents/thesis/stm32f4/stm-idf/components/stm32f4xx_hal_driver/stm32f4xx_ll_fsmc.c ****                     (((Timing->CLKDivision)-1U) << 20U)        |\
 235              		.loc 1 303 0
 236 0020 0D69     		ldr	r5, [r1, #16]
 237 0022 013D     		subs	r5, r5, #1
 302:/home/phong/Documents/thesis/stm32f4/stm-idf/components/stm32f4xx_hal_driver/stm32f4xx_ll_fsmc.c ****                     ((Timing->BusTurnAroundDuration) << 16U)   |\
 238              		.loc 1 302 0
 239 0024 43EA0553 		orr	r3, r3, r5, lsl #20
 304:/home/phong/Documents/thesis/stm32f4/stm-idf/components/stm32f4xx_hal_driver/stm32f4xx_ll_fsmc.c ****                     (((Timing->DataLatency)-2U) << 24U)        |\
 240              		.loc 1 304 0
 241 0028 4D69     		ldr	r5, [r1, #20]
 242 002a 023D     		subs	r5, r5, #2
 303:/home/phong/Documents/thesis/stm32f4/stm-idf/components/stm32f4xx_hal_driver/stm32f4xx_ll_fsmc.c ****                     (((Timing->CLKDivision)-1U) << 20U)        |\
 243              		.loc 1 303 0
 244 002c 43EA0563 		orr	r3, r3, r5, lsl #24
 305:/home/phong/Documents/thesis/stm32f4/stm-idf/components/stm32f4xx_hal_driver/stm32f4xx_ll_fsmc.c ****                     (Timing->AccessMode));
 245              		.loc 1 305 0
 246 0030 8969     		ldr	r1, [r1, #24]
 247              	.LVL17:
 299:/home/phong/Documents/thesis/stm32f4/stm-idf/components/stm32f4xx_hal_driver/stm32f4xx_ll_fsmc.c ****                     ((Timing->AddressHoldTime) << 4U)          |\
 248              		.loc 1 299 0
 249 0032 0B43     		orrs	r3, r3, r1
ARM GAS  /tmp/cccrE0jc.s 			page 11


 250 0034 2343     		orrs	r3, r3, r4
 251              	.LVL18:
 306:/home/phong/Documents/thesis/stm32f4/stm-idf/components/stm32f4xx_hal_driver/stm32f4xx_ll_fsmc.c ****   
 307:/home/phong/Documents/thesis/stm32f4/stm-idf/components/stm32f4xx_hal_driver/stm32f4xx_ll_fsmc.c ****   Device->BTCR[Bank + 1] = tmpr; 
 252              		.loc 1 307 0
 253 0036 40F82230 		str	r3, [r0, r2, lsl #2]
 308:/home/phong/Documents/thesis/stm32f4/stm-idf/components/stm32f4xx_hal_driver/stm32f4xx_ll_fsmc.c **** 
 309:/home/phong/Documents/thesis/stm32f4/stm-idf/components/stm32f4xx_hal_driver/stm32f4xx_ll_fsmc.c **** #if defined(STM32F412Zx) || defined(STM32F412Vx) || defined(STM32F412Rx) || defined(STM32F413xx) ||
 310:/home/phong/Documents/thesis/stm32f4/stm-idf/components/stm32f4xx_hal_driver/stm32f4xx_ll_fsmc.c ****   /* Configure Clock division value (in NORSRAM bank 1) when continuous clock is enabled */
 311:/home/phong/Documents/thesis/stm32f4/stm-idf/components/stm32f4xx_hal_driver/stm32f4xx_ll_fsmc.c ****   if(HAL_IS_BIT_SET(Device->BTCR[FSMC_NORSRAM_BANK1], FSMC_BCR1_CCLKEN))
 312:/home/phong/Documents/thesis/stm32f4/stm-idf/components/stm32f4xx_hal_driver/stm32f4xx_ll_fsmc.c ****   {
 313:/home/phong/Documents/thesis/stm32f4/stm-idf/components/stm32f4xx_hal_driver/stm32f4xx_ll_fsmc.c ****     tmpr = (uint32_t)(Device->BTCR[FSMC_NORSRAM_BANK1 + 1U] & ~(0x0FU << 20U)); 
 314:/home/phong/Documents/thesis/stm32f4/stm-idf/components/stm32f4xx_hal_driver/stm32f4xx_ll_fsmc.c ****     tmpr |= (uint32_t)(((Timing->CLKDivision)-1U) << 20U);
 315:/home/phong/Documents/thesis/stm32f4/stm-idf/components/stm32f4xx_hal_driver/stm32f4xx_ll_fsmc.c ****     Device->BTCR[FSMC_NORSRAM_BANK1 + 1U] = tmpr;
 316:/home/phong/Documents/thesis/stm32f4/stm-idf/components/stm32f4xx_hal_driver/stm32f4xx_ll_fsmc.c ****   }
 317:/home/phong/Documents/thesis/stm32f4/stm-idf/components/stm32f4xx_hal_driver/stm32f4xx_ll_fsmc.c **** #endif /* STM32F412Zx || STM32F412Vx || STM32F412Rx || STM32F413xx || STM32F423xx */
 318:/home/phong/Documents/thesis/stm32f4/stm-idf/components/stm32f4xx_hal_driver/stm32f4xx_ll_fsmc.c **** 
 319:/home/phong/Documents/thesis/stm32f4/stm-idf/components/stm32f4xx_hal_driver/stm32f4xx_ll_fsmc.c ****   return HAL_OK;
 320:/home/phong/Documents/thesis/stm32f4/stm-idf/components/stm32f4xx_hal_driver/stm32f4xx_ll_fsmc.c **** }
 254              		.loc 1 320 0
 255 003a 0020     		movs	r0, #0
 256              	.LVL19:
 257 003c 30BC     		pop	{r4, r5}
 258              	.LCFI7:
 259              		.cfi_restore 5
 260              		.cfi_restore 4
 261              		.cfi_def_cfa_offset 0
 262 003e 7047     		bx	lr
 263              		.cfi_endproc
 264              	.LFE132:
 266              		.section	.text.FSMC_NORSRAM_Extended_Timing_Init,"ax",%progbits
 267              		.align	1
 268              		.global	FSMC_NORSRAM_Extended_Timing_Init
 269              		.syntax unified
 270              		.thumb
 271              		.thumb_func
 272              		.fpu fpv4-sp-d16
 274              	FSMC_NORSRAM_Extended_Timing_Init:
 275              	.LFB133:
 321:/home/phong/Documents/thesis/stm32f4/stm-idf/components/stm32f4xx_hal_driver/stm32f4xx_ll_fsmc.c **** 
 322:/home/phong/Documents/thesis/stm32f4/stm-idf/components/stm32f4xx_hal_driver/stm32f4xx_ll_fsmc.c **** /**
 323:/home/phong/Documents/thesis/stm32f4/stm-idf/components/stm32f4xx_hal_driver/stm32f4xx_ll_fsmc.c ****   * @brief  Initialize the FSMC_NORSRAM Extended mode Timing according to the specified
 324:/home/phong/Documents/thesis/stm32f4/stm-idf/components/stm32f4xx_hal_driver/stm32f4xx_ll_fsmc.c ****   *         parameters in the FSMC_NORSRAM_TimingTypeDef
 325:/home/phong/Documents/thesis/stm32f4/stm-idf/components/stm32f4xx_hal_driver/stm32f4xx_ll_fsmc.c ****   * @param  Device Pointer to NORSRAM device instance
 326:/home/phong/Documents/thesis/stm32f4/stm-idf/components/stm32f4xx_hal_driver/stm32f4xx_ll_fsmc.c ****   * @param  Timing Pointer to NORSRAM Timing structure
 327:/home/phong/Documents/thesis/stm32f4/stm-idf/components/stm32f4xx_hal_driver/stm32f4xx_ll_fsmc.c ****   * @param  Bank NORSRAM bank number  
 328:/home/phong/Documents/thesis/stm32f4/stm-idf/components/stm32f4xx_hal_driver/stm32f4xx_ll_fsmc.c ****   * @retval HAL status
 329:/home/phong/Documents/thesis/stm32f4/stm-idf/components/stm32f4xx_hal_driver/stm32f4xx_ll_fsmc.c ****   */
 330:/home/phong/Documents/thesis/stm32f4/stm-idf/components/stm32f4xx_hal_driver/stm32f4xx_ll_fsmc.c **** HAL_StatusTypeDef  FSMC_NORSRAM_Extended_Timing_Init(FSMC_NORSRAM_EXTENDED_TypeDef *Device, FSMC_NO
 331:/home/phong/Documents/thesis/stm32f4/stm-idf/components/stm32f4xx_hal_driver/stm32f4xx_ll_fsmc.c **** {
 276              		.loc 1 331 0
 277              		.cfi_startproc
 278              		@ args = 0, pretend = 0, frame = 0
 279              		@ frame_needed = 0, uses_anonymous_args = 0
 280              		@ link register save eliminated.
 281              	.LVL20:
 332:/home/phong/Documents/thesis/stm32f4/stm-idf/components/stm32f4xx_hal_driver/stm32f4xx_ll_fsmc.c ****   uint32_t tmpr = 0U;
ARM GAS  /tmp/cccrE0jc.s 			page 12


 333:/home/phong/Documents/thesis/stm32f4/stm-idf/components/stm32f4xx_hal_driver/stm32f4xx_ll_fsmc.c ****   
 334:/home/phong/Documents/thesis/stm32f4/stm-idf/components/stm32f4xx_hal_driver/stm32f4xx_ll_fsmc.c ****   /* Check the parameters */
 335:/home/phong/Documents/thesis/stm32f4/stm-idf/components/stm32f4xx_hal_driver/stm32f4xx_ll_fsmc.c ****   assert_param(IS_FSMC_EXTENDED_MODE(ExtendedMode));
 336:/home/phong/Documents/thesis/stm32f4/stm-idf/components/stm32f4xx_hal_driver/stm32f4xx_ll_fsmc.c **** 
 337:/home/phong/Documents/thesis/stm32f4/stm-idf/components/stm32f4xx_hal_driver/stm32f4xx_ll_fsmc.c ****   /* Set NORSRAM device timing register for write configuration, if extended mode is used */
 338:/home/phong/Documents/thesis/stm32f4/stm-idf/components/stm32f4xx_hal_driver/stm32f4xx_ll_fsmc.c ****   if(ExtendedMode == FSMC_EXTENDED_MODE_ENABLE)
 282              		.loc 1 338 0
 283 0000 B3F5804F 		cmp	r3, #16384
 284 0004 05D0     		beq	.L21
 339:/home/phong/Documents/thesis/stm32f4/stm-idf/components/stm32f4xx_hal_driver/stm32f4xx_ll_fsmc.c ****   {
 340:/home/phong/Documents/thesis/stm32f4/stm-idf/components/stm32f4xx_hal_driver/stm32f4xx_ll_fsmc.c ****     /* Check the parameters */
 341:/home/phong/Documents/thesis/stm32f4/stm-idf/components/stm32f4xx_hal_driver/stm32f4xx_ll_fsmc.c ****     assert_param(IS_FSMC_NORSRAM_EXTENDED_DEVICE(Device));
 342:/home/phong/Documents/thesis/stm32f4/stm-idf/components/stm32f4xx_hal_driver/stm32f4xx_ll_fsmc.c ****     assert_param(IS_FSMC_ADDRESS_SETUP_TIME(Timing->AddressSetupTime));
 343:/home/phong/Documents/thesis/stm32f4/stm-idf/components/stm32f4xx_hal_driver/stm32f4xx_ll_fsmc.c ****     assert_param(IS_FSMC_ADDRESS_HOLD_TIME(Timing->AddressHoldTime));
 344:/home/phong/Documents/thesis/stm32f4/stm-idf/components/stm32f4xx_hal_driver/stm32f4xx_ll_fsmc.c ****     assert_param(IS_FSMC_DATASETUP_TIME(Timing->DataSetupTime));
 345:/home/phong/Documents/thesis/stm32f4/stm-idf/components/stm32f4xx_hal_driver/stm32f4xx_ll_fsmc.c ****     assert_param(IS_FSMC_TURNAROUND_TIME(Timing->BusTurnAroundDuration));
 346:/home/phong/Documents/thesis/stm32f4/stm-idf/components/stm32f4xx_hal_driver/stm32f4xx_ll_fsmc.c ****     assert_param(IS_FSMC_ACCESS_MODE(Timing->AccessMode));
 347:/home/phong/Documents/thesis/stm32f4/stm-idf/components/stm32f4xx_hal_driver/stm32f4xx_ll_fsmc.c ****     assert_param(IS_FSMC_NORSRAM_BANK(Bank));
 348:/home/phong/Documents/thesis/stm32f4/stm-idf/components/stm32f4xx_hal_driver/stm32f4xx_ll_fsmc.c ****   
 349:/home/phong/Documents/thesis/stm32f4/stm-idf/components/stm32f4xx_hal_driver/stm32f4xx_ll_fsmc.c ****     /* Get the BWTR register value */
 350:/home/phong/Documents/thesis/stm32f4/stm-idf/components/stm32f4xx_hal_driver/stm32f4xx_ll_fsmc.c ****     tmpr = Device->BWTR[Bank];
 351:/home/phong/Documents/thesis/stm32f4/stm-idf/components/stm32f4xx_hal_driver/stm32f4xx_ll_fsmc.c ****     
 352:/home/phong/Documents/thesis/stm32f4/stm-idf/components/stm32f4xx_hal_driver/stm32f4xx_ll_fsmc.c ****     /* Clear ADDSET, ADDHLD, DATAST, BUSTURN and ACCMOD bits */
 353:/home/phong/Documents/thesis/stm32f4/stm-idf/components/stm32f4xx_hal_driver/stm32f4xx_ll_fsmc.c ****     tmpr &= ((uint32_t)~(FSMC_BWTR1_ADDSET  | FSMC_BWTR1_ADDHLD | FSMC_BWTR1_DATAST | \
 354:/home/phong/Documents/thesis/stm32f4/stm-idf/components/stm32f4xx_hal_driver/stm32f4xx_ll_fsmc.c ****                          FSMC_BWTR1_BUSTURN | FSMC_BWTR1_ACCMOD));
 355:/home/phong/Documents/thesis/stm32f4/stm-idf/components/stm32f4xx_hal_driver/stm32f4xx_ll_fsmc.c **** 
 356:/home/phong/Documents/thesis/stm32f4/stm-idf/components/stm32f4xx_hal_driver/stm32f4xx_ll_fsmc.c ****     tmpr |= (uint32_t)(Timing->AddressSetupTime                  |\
 357:/home/phong/Documents/thesis/stm32f4/stm-idf/components/stm32f4xx_hal_driver/stm32f4xx_ll_fsmc.c ****                       ((Timing->AddressHoldTime) << 4U)          |\
 358:/home/phong/Documents/thesis/stm32f4/stm-idf/components/stm32f4xx_hal_driver/stm32f4xx_ll_fsmc.c ****                       ((Timing->DataSetupTime) << 8U)            |\
 359:/home/phong/Documents/thesis/stm32f4/stm-idf/components/stm32f4xx_hal_driver/stm32f4xx_ll_fsmc.c ****                       ((Timing->BusTurnAroundDuration) << 16U)   |\
 360:/home/phong/Documents/thesis/stm32f4/stm-idf/components/stm32f4xx_hal_driver/stm32f4xx_ll_fsmc.c ****                       (Timing->AccessMode));
 361:/home/phong/Documents/thesis/stm32f4/stm-idf/components/stm32f4xx_hal_driver/stm32f4xx_ll_fsmc.c ****     
 362:/home/phong/Documents/thesis/stm32f4/stm-idf/components/stm32f4xx_hal_driver/stm32f4xx_ll_fsmc.c ****     Device->BWTR[Bank] = tmpr;
 363:/home/phong/Documents/thesis/stm32f4/stm-idf/components/stm32f4xx_hal_driver/stm32f4xx_ll_fsmc.c ****   }
 364:/home/phong/Documents/thesis/stm32f4/stm-idf/components/stm32f4xx_hal_driver/stm32f4xx_ll_fsmc.c ****   else                                        
 365:/home/phong/Documents/thesis/stm32f4/stm-idf/components/stm32f4xx_hal_driver/stm32f4xx_ll_fsmc.c ****   {
 366:/home/phong/Documents/thesis/stm32f4/stm-idf/components/stm32f4xx_hal_driver/stm32f4xx_ll_fsmc.c ****     Device->BWTR[Bank] = 0x0FFFFFFFU;
 285              		.loc 1 366 0
 286 0006 6FF07043 		mvn	r3, #-268435456
 287              	.LVL21:
 288 000a 40F82230 		str	r3, [r0, r2, lsl #2]
 367:/home/phong/Documents/thesis/stm32f4/stm-idf/components/stm32f4xx_hal_driver/stm32f4xx_ll_fsmc.c ****   }   
 368:/home/phong/Documents/thesis/stm32f4/stm-idf/components/stm32f4xx_hal_driver/stm32f4xx_ll_fsmc.c ****   
 369:/home/phong/Documents/thesis/stm32f4/stm-idf/components/stm32f4xx_hal_driver/stm32f4xx_ll_fsmc.c ****   return HAL_OK;  
 370:/home/phong/Documents/thesis/stm32f4/stm-idf/components/stm32f4xx_hal_driver/stm32f4xx_ll_fsmc.c **** }
 289              		.loc 1 370 0
 290 000e 0020     		movs	r0, #0
 291              	.LVL22:
 292 0010 7047     		bx	lr
 293              	.LVL23:
 294              	.L21:
 331:/home/phong/Documents/thesis/stm32f4/stm-idf/components/stm32f4xx_hal_driver/stm32f4xx_ll_fsmc.c ****   uint32_t tmpr = 0U;
 295              		.loc 1 331 0
 296 0012 30B4     		push	{r4, r5}
 297              	.LCFI8:
 298              		.cfi_def_cfa_offset 8
 299              		.cfi_offset 4, -8
ARM GAS  /tmp/cccrE0jc.s 			page 13


 300              		.cfi_offset 5, -4
 350:/home/phong/Documents/thesis/stm32f4/stm-idf/components/stm32f4xx_hal_driver/stm32f4xx_ll_fsmc.c ****     
 301              		.loc 1 350 0
 302 0014 50F82230 		ldr	r3, [r0, r2, lsl #2]
 303              	.LVL24:
 353:/home/phong/Documents/thesis/stm32f4/stm-idf/components/stm32f4xx_hal_driver/stm32f4xx_ll_fsmc.c ****                          FSMC_BWTR1_BUSTURN | FSMC_BWTR1_ACCMOD));
 304              		.loc 1 353 0
 305 0018 094C     		ldr	r4, .L22
 306 001a 1C40     		ands	r4, r4, r3
 307              	.LVL25:
 356:/home/phong/Documents/thesis/stm32f4/stm-idf/components/stm32f4xx_hal_driver/stm32f4xx_ll_fsmc.c ****                       ((Timing->AddressHoldTime) << 4U)          |\
 308              		.loc 1 356 0
 309 001c 0B68     		ldr	r3, [r1]
 357:/home/phong/Documents/thesis/stm32f4/stm-idf/components/stm32f4xx_hal_driver/stm32f4xx_ll_fsmc.c ****                       ((Timing->DataSetupTime) << 8U)            |\
 310              		.loc 1 357 0
 311 001e 4D68     		ldr	r5, [r1, #4]
 356:/home/phong/Documents/thesis/stm32f4/stm-idf/components/stm32f4xx_hal_driver/stm32f4xx_ll_fsmc.c ****                       ((Timing->AddressHoldTime) << 4U)          |\
 312              		.loc 1 356 0
 313 0020 43EA0513 		orr	r3, r3, r5, lsl #4
 358:/home/phong/Documents/thesis/stm32f4/stm-idf/components/stm32f4xx_hal_driver/stm32f4xx_ll_fsmc.c ****                       ((Timing->BusTurnAroundDuration) << 16U)   |\
 314              		.loc 1 358 0
 315 0024 8D68     		ldr	r5, [r1, #8]
 357:/home/phong/Documents/thesis/stm32f4/stm-idf/components/stm32f4xx_hal_driver/stm32f4xx_ll_fsmc.c ****                       ((Timing->DataSetupTime) << 8U)            |\
 316              		.loc 1 357 0
 317 0026 43EA0523 		orr	r3, r3, r5, lsl #8
 359:/home/phong/Documents/thesis/stm32f4/stm-idf/components/stm32f4xx_hal_driver/stm32f4xx_ll_fsmc.c ****                       (Timing->AccessMode));
 318              		.loc 1 359 0
 319 002a CD68     		ldr	r5, [r1, #12]
 358:/home/phong/Documents/thesis/stm32f4/stm-idf/components/stm32f4xx_hal_driver/stm32f4xx_ll_fsmc.c ****                       ((Timing->BusTurnAroundDuration) << 16U)   |\
 320              		.loc 1 358 0
 321 002c 43EA0543 		orr	r3, r3, r5, lsl #16
 360:/home/phong/Documents/thesis/stm32f4/stm-idf/components/stm32f4xx_hal_driver/stm32f4xx_ll_fsmc.c ****     
 322              		.loc 1 360 0
 323 0030 8969     		ldr	r1, [r1, #24]
 324              	.LVL26:
 359:/home/phong/Documents/thesis/stm32f4/stm-idf/components/stm32f4xx_hal_driver/stm32f4xx_ll_fsmc.c ****                       (Timing->AccessMode));
 325              		.loc 1 359 0
 326 0032 0B43     		orrs	r3, r3, r1
 356:/home/phong/Documents/thesis/stm32f4/stm-idf/components/stm32f4xx_hal_driver/stm32f4xx_ll_fsmc.c ****                       ((Timing->AddressHoldTime) << 4U)          |\
 327              		.loc 1 356 0
 328 0034 2343     		orrs	r3, r3, r4
 329              	.LVL27:
 362:/home/phong/Documents/thesis/stm32f4/stm-idf/components/stm32f4xx_hal_driver/stm32f4xx_ll_fsmc.c ****   }
 330              		.loc 1 362 0
 331 0036 40F82230 		str	r3, [r0, r2, lsl #2]
 332              		.loc 1 370 0
 333 003a 0020     		movs	r0, #0
 334              	.LVL28:
 335 003c 30BC     		pop	{r4, r5}
 336              	.LCFI9:
 337              		.cfi_restore 5
 338              		.cfi_restore 4
 339              		.cfi_def_cfa_offset 0
 340 003e 7047     		bx	lr
 341              	.L23:
 342              		.align	2
 343              	.L22:
ARM GAS  /tmp/cccrE0jc.s 			page 14


 344 0040 0000F0CF 		.word	-806354944
 345              		.cfi_endproc
 346              	.LFE133:
 348              		.section	.text.FSMC_NORSRAM_WriteOperation_Enable,"ax",%progbits
 349              		.align	1
 350              		.global	FSMC_NORSRAM_WriteOperation_Enable
 351              		.syntax unified
 352              		.thumb
 353              		.thumb_func
 354              		.fpu fpv4-sp-d16
 356              	FSMC_NORSRAM_WriteOperation_Enable:
 357              	.LFB134:
 371:/home/phong/Documents/thesis/stm32f4/stm-idf/components/stm32f4xx_hal_driver/stm32f4xx_ll_fsmc.c **** /**
 372:/home/phong/Documents/thesis/stm32f4/stm-idf/components/stm32f4xx_hal_driver/stm32f4xx_ll_fsmc.c ****   * @}
 373:/home/phong/Documents/thesis/stm32f4/stm-idf/components/stm32f4xx_hal_driver/stm32f4xx_ll_fsmc.c ****   */
 374:/home/phong/Documents/thesis/stm32f4/stm-idf/components/stm32f4xx_hal_driver/stm32f4xx_ll_fsmc.c ****   
 375:/home/phong/Documents/thesis/stm32f4/stm-idf/components/stm32f4xx_hal_driver/stm32f4xx_ll_fsmc.c **** /** @addtogroup FSMC_LL_NORSRAM_Private_Functions_Group2
 376:/home/phong/Documents/thesis/stm32f4/stm-idf/components/stm32f4xx_hal_driver/stm32f4xx_ll_fsmc.c ****   *  @brief   management functions 
 377:/home/phong/Documents/thesis/stm32f4/stm-idf/components/stm32f4xx_hal_driver/stm32f4xx_ll_fsmc.c ****   *
 378:/home/phong/Documents/thesis/stm32f4/stm-idf/components/stm32f4xx_hal_driver/stm32f4xx_ll_fsmc.c **** @verbatim   
 379:/home/phong/Documents/thesis/stm32f4/stm-idf/components/stm32f4xx_hal_driver/stm32f4xx_ll_fsmc.c ****   ==============================================================================
 380:/home/phong/Documents/thesis/stm32f4/stm-idf/components/stm32f4xx_hal_driver/stm32f4xx_ll_fsmc.c ****                       ##### FSMC_NORSRAM Control functions #####
 381:/home/phong/Documents/thesis/stm32f4/stm-idf/components/stm32f4xx_hal_driver/stm32f4xx_ll_fsmc.c ****   ==============================================================================
 382:/home/phong/Documents/thesis/stm32f4/stm-idf/components/stm32f4xx_hal_driver/stm32f4xx_ll_fsmc.c ****   [..]
 383:/home/phong/Documents/thesis/stm32f4/stm-idf/components/stm32f4xx_hal_driver/stm32f4xx_ll_fsmc.c ****     This subsection provides a set of functions allowing to control dynamically
 384:/home/phong/Documents/thesis/stm32f4/stm-idf/components/stm32f4xx_hal_driver/stm32f4xx_ll_fsmc.c ****     the FSMC NORSRAM interface.
 385:/home/phong/Documents/thesis/stm32f4/stm-idf/components/stm32f4xx_hal_driver/stm32f4xx_ll_fsmc.c **** 
 386:/home/phong/Documents/thesis/stm32f4/stm-idf/components/stm32f4xx_hal_driver/stm32f4xx_ll_fsmc.c **** @endverbatim
 387:/home/phong/Documents/thesis/stm32f4/stm-idf/components/stm32f4xx_hal_driver/stm32f4xx_ll_fsmc.c ****   * @{
 388:/home/phong/Documents/thesis/stm32f4/stm-idf/components/stm32f4xx_hal_driver/stm32f4xx_ll_fsmc.c ****   */
 389:/home/phong/Documents/thesis/stm32f4/stm-idf/components/stm32f4xx_hal_driver/stm32f4xx_ll_fsmc.c ****     
 390:/home/phong/Documents/thesis/stm32f4/stm-idf/components/stm32f4xx_hal_driver/stm32f4xx_ll_fsmc.c **** /**
 391:/home/phong/Documents/thesis/stm32f4/stm-idf/components/stm32f4xx_hal_driver/stm32f4xx_ll_fsmc.c ****   * @brief  Enables dynamically FSMC_NORSRAM write operation.
 392:/home/phong/Documents/thesis/stm32f4/stm-idf/components/stm32f4xx_hal_driver/stm32f4xx_ll_fsmc.c ****   * @param  Device Pointer to NORSRAM device instance
 393:/home/phong/Documents/thesis/stm32f4/stm-idf/components/stm32f4xx_hal_driver/stm32f4xx_ll_fsmc.c ****   * @param  Bank NORSRAM bank number   
 394:/home/phong/Documents/thesis/stm32f4/stm-idf/components/stm32f4xx_hal_driver/stm32f4xx_ll_fsmc.c ****   * @retval HAL status
 395:/home/phong/Documents/thesis/stm32f4/stm-idf/components/stm32f4xx_hal_driver/stm32f4xx_ll_fsmc.c ****   */
 396:/home/phong/Documents/thesis/stm32f4/stm-idf/components/stm32f4xx_hal_driver/stm32f4xx_ll_fsmc.c **** HAL_StatusTypeDef FSMC_NORSRAM_WriteOperation_Enable(FSMC_NORSRAM_TypeDef *Device, uint32_t Bank)
 397:/home/phong/Documents/thesis/stm32f4/stm-idf/components/stm32f4xx_hal_driver/stm32f4xx_ll_fsmc.c **** {
 358              		.loc 1 397 0
 359              		.cfi_startproc
 360              		@ args = 0, pretend = 0, frame = 0
 361              		@ frame_needed = 0, uses_anonymous_args = 0
 362              		@ link register save eliminated.
 363              	.LVL29:
 398:/home/phong/Documents/thesis/stm32f4/stm-idf/components/stm32f4xx_hal_driver/stm32f4xx_ll_fsmc.c ****   /* Check the parameters */
 399:/home/phong/Documents/thesis/stm32f4/stm-idf/components/stm32f4xx_hal_driver/stm32f4xx_ll_fsmc.c ****   assert_param(IS_FSMC_NORSRAM_DEVICE(Device));
 400:/home/phong/Documents/thesis/stm32f4/stm-idf/components/stm32f4xx_hal_driver/stm32f4xx_ll_fsmc.c ****   assert_param(IS_FSMC_NORSRAM_BANK(Bank));
 401:/home/phong/Documents/thesis/stm32f4/stm-idf/components/stm32f4xx_hal_driver/stm32f4xx_ll_fsmc.c **** 
 402:/home/phong/Documents/thesis/stm32f4/stm-idf/components/stm32f4xx_hal_driver/stm32f4xx_ll_fsmc.c ****   /* Enable write operation */
 403:/home/phong/Documents/thesis/stm32f4/stm-idf/components/stm32f4xx_hal_driver/stm32f4xx_ll_fsmc.c ****   Device->BTCR[Bank] |= FSMC_WRITE_OPERATION_ENABLE; 
 364              		.loc 1 403 0
 365 0000 50F82130 		ldr	r3, [r0, r1, lsl #2]
 366 0004 43F48053 		orr	r3, r3, #4096
 367 0008 40F82130 		str	r3, [r0, r1, lsl #2]
 404:/home/phong/Documents/thesis/stm32f4/stm-idf/components/stm32f4xx_hal_driver/stm32f4xx_ll_fsmc.c **** 
 405:/home/phong/Documents/thesis/stm32f4/stm-idf/components/stm32f4xx_hal_driver/stm32f4xx_ll_fsmc.c ****   return HAL_OK;  
ARM GAS  /tmp/cccrE0jc.s 			page 15


 406:/home/phong/Documents/thesis/stm32f4/stm-idf/components/stm32f4xx_hal_driver/stm32f4xx_ll_fsmc.c **** }
 368              		.loc 1 406 0
 369 000c 0020     		movs	r0, #0
 370              	.LVL30:
 371 000e 7047     		bx	lr
 372              		.cfi_endproc
 373              	.LFE134:
 375              		.section	.text.FSMC_NORSRAM_WriteOperation_Disable,"ax",%progbits
 376              		.align	1
 377              		.global	FSMC_NORSRAM_WriteOperation_Disable
 378              		.syntax unified
 379              		.thumb
 380              		.thumb_func
 381              		.fpu fpv4-sp-d16
 383              	FSMC_NORSRAM_WriteOperation_Disable:
 384              	.LFB135:
 407:/home/phong/Documents/thesis/stm32f4/stm-idf/components/stm32f4xx_hal_driver/stm32f4xx_ll_fsmc.c **** 
 408:/home/phong/Documents/thesis/stm32f4/stm-idf/components/stm32f4xx_hal_driver/stm32f4xx_ll_fsmc.c **** /**
 409:/home/phong/Documents/thesis/stm32f4/stm-idf/components/stm32f4xx_hal_driver/stm32f4xx_ll_fsmc.c ****   * @brief  Disables dynamically FSMC_NORSRAM write operation.
 410:/home/phong/Documents/thesis/stm32f4/stm-idf/components/stm32f4xx_hal_driver/stm32f4xx_ll_fsmc.c ****   * @param  Device Pointer to NORSRAM device instance
 411:/home/phong/Documents/thesis/stm32f4/stm-idf/components/stm32f4xx_hal_driver/stm32f4xx_ll_fsmc.c ****   * @param  Bank NORSRAM bank number   
 412:/home/phong/Documents/thesis/stm32f4/stm-idf/components/stm32f4xx_hal_driver/stm32f4xx_ll_fsmc.c ****   * @retval HAL status
 413:/home/phong/Documents/thesis/stm32f4/stm-idf/components/stm32f4xx_hal_driver/stm32f4xx_ll_fsmc.c ****   */
 414:/home/phong/Documents/thesis/stm32f4/stm-idf/components/stm32f4xx_hal_driver/stm32f4xx_ll_fsmc.c **** HAL_StatusTypeDef FSMC_NORSRAM_WriteOperation_Disable(FSMC_NORSRAM_TypeDef *Device, uint32_t Bank)
 415:/home/phong/Documents/thesis/stm32f4/stm-idf/components/stm32f4xx_hal_driver/stm32f4xx_ll_fsmc.c **** {
 385              		.loc 1 415 0
 386              		.cfi_startproc
 387              		@ args = 0, pretend = 0, frame = 0
 388              		@ frame_needed = 0, uses_anonymous_args = 0
 389              		@ link register save eliminated.
 390              	.LVL31:
 416:/home/phong/Documents/thesis/stm32f4/stm-idf/components/stm32f4xx_hal_driver/stm32f4xx_ll_fsmc.c ****   /* Check the parameters */
 417:/home/phong/Documents/thesis/stm32f4/stm-idf/components/stm32f4xx_hal_driver/stm32f4xx_ll_fsmc.c ****   assert_param(IS_FSMC_NORSRAM_DEVICE(Device));
 418:/home/phong/Documents/thesis/stm32f4/stm-idf/components/stm32f4xx_hal_driver/stm32f4xx_ll_fsmc.c ****   assert_param(IS_FSMC_NORSRAM_BANK(Bank));
 419:/home/phong/Documents/thesis/stm32f4/stm-idf/components/stm32f4xx_hal_driver/stm32f4xx_ll_fsmc.c ****   
 420:/home/phong/Documents/thesis/stm32f4/stm-idf/components/stm32f4xx_hal_driver/stm32f4xx_ll_fsmc.c ****   /* Disable write operation */
 421:/home/phong/Documents/thesis/stm32f4/stm-idf/components/stm32f4xx_hal_driver/stm32f4xx_ll_fsmc.c ****   Device->BTCR[Bank] &= ~FSMC_WRITE_OPERATION_ENABLE; 
 391              		.loc 1 421 0
 392 0000 50F82130 		ldr	r3, [r0, r1, lsl #2]
 393 0004 23F48053 		bic	r3, r3, #4096
 394 0008 40F82130 		str	r3, [r0, r1, lsl #2]
 422:/home/phong/Documents/thesis/stm32f4/stm-idf/components/stm32f4xx_hal_driver/stm32f4xx_ll_fsmc.c **** 
 423:/home/phong/Documents/thesis/stm32f4/stm-idf/components/stm32f4xx_hal_driver/stm32f4xx_ll_fsmc.c ****   return HAL_OK;  
 424:/home/phong/Documents/thesis/stm32f4/stm-idf/components/stm32f4xx_hal_driver/stm32f4xx_ll_fsmc.c **** }
 395              		.loc 1 424 0
 396 000c 0020     		movs	r0, #0
 397              	.LVL32:
 398 000e 7047     		bx	lr
 399              		.cfi_endproc
 400              	.LFE135:
 402              		.section	.text.FSMC_NAND_Init,"ax",%progbits
 403              		.align	1
 404              		.global	FSMC_NAND_Init
 405              		.syntax unified
 406              		.thumb
 407              		.thumb_func
 408              		.fpu fpv4-sp-d16
ARM GAS  /tmp/cccrE0jc.s 			page 16


 410              	FSMC_NAND_Init:
 411              	.LFB136:
 425:/home/phong/Documents/thesis/stm32f4/stm-idf/components/stm32f4xx_hal_driver/stm32f4xx_ll_fsmc.c **** /**
 426:/home/phong/Documents/thesis/stm32f4/stm-idf/components/stm32f4xx_hal_driver/stm32f4xx_ll_fsmc.c ****   * @}
 427:/home/phong/Documents/thesis/stm32f4/stm-idf/components/stm32f4xx_hal_driver/stm32f4xx_ll_fsmc.c ****   */
 428:/home/phong/Documents/thesis/stm32f4/stm-idf/components/stm32f4xx_hal_driver/stm32f4xx_ll_fsmc.c **** 
 429:/home/phong/Documents/thesis/stm32f4/stm-idf/components/stm32f4xx_hal_driver/stm32f4xx_ll_fsmc.c **** /**
 430:/home/phong/Documents/thesis/stm32f4/stm-idf/components/stm32f4xx_hal_driver/stm32f4xx_ll_fsmc.c ****   * @}
 431:/home/phong/Documents/thesis/stm32f4/stm-idf/components/stm32f4xx_hal_driver/stm32f4xx_ll_fsmc.c ****   */
 432:/home/phong/Documents/thesis/stm32f4/stm-idf/components/stm32f4xx_hal_driver/stm32f4xx_ll_fsmc.c **** 
 433:/home/phong/Documents/thesis/stm32f4/stm-idf/components/stm32f4xx_hal_driver/stm32f4xx_ll_fsmc.c **** #if defined(STM32F405xx) || defined(STM32F415xx) || defined(STM32F407xx) || defined(STM32F417xx)
 434:/home/phong/Documents/thesis/stm32f4/stm-idf/components/stm32f4xx_hal_driver/stm32f4xx_ll_fsmc.c **** /** @addtogroup FSMC_LL_NAND
 435:/home/phong/Documents/thesis/stm32f4/stm-idf/components/stm32f4xx_hal_driver/stm32f4xx_ll_fsmc.c ****   * @brief    NAND Controller functions 
 436:/home/phong/Documents/thesis/stm32f4/stm-idf/components/stm32f4xx_hal_driver/stm32f4xx_ll_fsmc.c ****   *
 437:/home/phong/Documents/thesis/stm32f4/stm-idf/components/stm32f4xx_hal_driver/stm32f4xx_ll_fsmc.c ****   @verbatim 
 438:/home/phong/Documents/thesis/stm32f4/stm-idf/components/stm32f4xx_hal_driver/stm32f4xx_ll_fsmc.c ****   ==============================================================================   
 439:/home/phong/Documents/thesis/stm32f4/stm-idf/components/stm32f4xx_hal_driver/stm32f4xx_ll_fsmc.c ****                     ##### How to use NAND device driver #####
 440:/home/phong/Documents/thesis/stm32f4/stm-idf/components/stm32f4xx_hal_driver/stm32f4xx_ll_fsmc.c ****   ==============================================================================
 441:/home/phong/Documents/thesis/stm32f4/stm-idf/components/stm32f4xx_hal_driver/stm32f4xx_ll_fsmc.c ****   [..]
 442:/home/phong/Documents/thesis/stm32f4/stm-idf/components/stm32f4xx_hal_driver/stm32f4xx_ll_fsmc.c ****     This driver contains a set of APIs to interface with the FSMC NAND banks in order
 443:/home/phong/Documents/thesis/stm32f4/stm-idf/components/stm32f4xx_hal_driver/stm32f4xx_ll_fsmc.c ****     to run the NAND external devices.
 444:/home/phong/Documents/thesis/stm32f4/stm-idf/components/stm32f4xx_hal_driver/stm32f4xx_ll_fsmc.c ****   
 445:/home/phong/Documents/thesis/stm32f4/stm-idf/components/stm32f4xx_hal_driver/stm32f4xx_ll_fsmc.c ****     (+) FSMC NAND bank reset using the function FSMC_NAND_DeInit() 
 446:/home/phong/Documents/thesis/stm32f4/stm-idf/components/stm32f4xx_hal_driver/stm32f4xx_ll_fsmc.c ****     (+) FSMC NAND bank control configuration using the function FSMC_NAND_Init()
 447:/home/phong/Documents/thesis/stm32f4/stm-idf/components/stm32f4xx_hal_driver/stm32f4xx_ll_fsmc.c ****     (+) FSMC NAND bank common space timing configuration using the function 
 448:/home/phong/Documents/thesis/stm32f4/stm-idf/components/stm32f4xx_hal_driver/stm32f4xx_ll_fsmc.c ****         FSMC_NAND_CommonSpace_Timing_Init()
 449:/home/phong/Documents/thesis/stm32f4/stm-idf/components/stm32f4xx_hal_driver/stm32f4xx_ll_fsmc.c ****     (+) FSMC NAND bank attribute space timing configuration using the function 
 450:/home/phong/Documents/thesis/stm32f4/stm-idf/components/stm32f4xx_hal_driver/stm32f4xx_ll_fsmc.c ****         FSMC_NAND_AttributeSpace_Timing_Init()
 451:/home/phong/Documents/thesis/stm32f4/stm-idf/components/stm32f4xx_hal_driver/stm32f4xx_ll_fsmc.c ****     (+) FSMC NAND bank enable/disable ECC correction feature using the functions
 452:/home/phong/Documents/thesis/stm32f4/stm-idf/components/stm32f4xx_hal_driver/stm32f4xx_ll_fsmc.c ****         FSMC_NAND_ECC_Enable()/FSMC_NAND_ECC_Disable()
 453:/home/phong/Documents/thesis/stm32f4/stm-idf/components/stm32f4xx_hal_driver/stm32f4xx_ll_fsmc.c ****     (+) FSMC NAND bank get ECC correction code using the function FSMC_NAND_GetECC()  
 454:/home/phong/Documents/thesis/stm32f4/stm-idf/components/stm32f4xx_hal_driver/stm32f4xx_ll_fsmc.c **** 
 455:/home/phong/Documents/thesis/stm32f4/stm-idf/components/stm32f4xx_hal_driver/stm32f4xx_ll_fsmc.c **** @endverbatim
 456:/home/phong/Documents/thesis/stm32f4/stm-idf/components/stm32f4xx_hal_driver/stm32f4xx_ll_fsmc.c ****   * @{
 457:/home/phong/Documents/thesis/stm32f4/stm-idf/components/stm32f4xx_hal_driver/stm32f4xx_ll_fsmc.c ****   */
 458:/home/phong/Documents/thesis/stm32f4/stm-idf/components/stm32f4xx_hal_driver/stm32f4xx_ll_fsmc.c ****     
 459:/home/phong/Documents/thesis/stm32f4/stm-idf/components/stm32f4xx_hal_driver/stm32f4xx_ll_fsmc.c **** /** @addtogroup FSMC_LL_NAND_Private_Functions_Group1
 460:/home/phong/Documents/thesis/stm32f4/stm-idf/components/stm32f4xx_hal_driver/stm32f4xx_ll_fsmc.c ****   *  @brief    Initialization and Configuration functions 
 461:/home/phong/Documents/thesis/stm32f4/stm-idf/components/stm32f4xx_hal_driver/stm32f4xx_ll_fsmc.c ****   *
 462:/home/phong/Documents/thesis/stm32f4/stm-idf/components/stm32f4xx_hal_driver/stm32f4xx_ll_fsmc.c **** @verbatim    
 463:/home/phong/Documents/thesis/stm32f4/stm-idf/components/stm32f4xx_hal_driver/stm32f4xx_ll_fsmc.c ****   ==============================================================================
 464:/home/phong/Documents/thesis/stm32f4/stm-idf/components/stm32f4xx_hal_driver/stm32f4xx_ll_fsmc.c ****               ##### Initialization and de_initialization functions #####
 465:/home/phong/Documents/thesis/stm32f4/stm-idf/components/stm32f4xx_hal_driver/stm32f4xx_ll_fsmc.c ****   ==============================================================================
 466:/home/phong/Documents/thesis/stm32f4/stm-idf/components/stm32f4xx_hal_driver/stm32f4xx_ll_fsmc.c ****   [..]  
 467:/home/phong/Documents/thesis/stm32f4/stm-idf/components/stm32f4xx_hal_driver/stm32f4xx_ll_fsmc.c ****     This section provides functions allowing to:
 468:/home/phong/Documents/thesis/stm32f4/stm-idf/components/stm32f4xx_hal_driver/stm32f4xx_ll_fsmc.c ****     (+) Initialize and configure the FSMC NAND interface
 469:/home/phong/Documents/thesis/stm32f4/stm-idf/components/stm32f4xx_hal_driver/stm32f4xx_ll_fsmc.c ****     (+) De-initialize the FSMC NAND interface 
 470:/home/phong/Documents/thesis/stm32f4/stm-idf/components/stm32f4xx_hal_driver/stm32f4xx_ll_fsmc.c ****     (+) Configure the FSMC clock and associated GPIOs
 471:/home/phong/Documents/thesis/stm32f4/stm-idf/components/stm32f4xx_hal_driver/stm32f4xx_ll_fsmc.c ****         
 472:/home/phong/Documents/thesis/stm32f4/stm-idf/components/stm32f4xx_hal_driver/stm32f4xx_ll_fsmc.c **** @endverbatim
 473:/home/phong/Documents/thesis/stm32f4/stm-idf/components/stm32f4xx_hal_driver/stm32f4xx_ll_fsmc.c ****   * @{
 474:/home/phong/Documents/thesis/stm32f4/stm-idf/components/stm32f4xx_hal_driver/stm32f4xx_ll_fsmc.c ****   */
 475:/home/phong/Documents/thesis/stm32f4/stm-idf/components/stm32f4xx_hal_driver/stm32f4xx_ll_fsmc.c ****   
 476:/home/phong/Documents/thesis/stm32f4/stm-idf/components/stm32f4xx_hal_driver/stm32f4xx_ll_fsmc.c **** /**
 477:/home/phong/Documents/thesis/stm32f4/stm-idf/components/stm32f4xx_hal_driver/stm32f4xx_ll_fsmc.c ****   * @brief  Initializes the FSMC_NAND device according to the specified
 478:/home/phong/Documents/thesis/stm32f4/stm-idf/components/stm32f4xx_hal_driver/stm32f4xx_ll_fsmc.c ****   *         control parameters in the FSMC_NAND_HandleTypeDef
 479:/home/phong/Documents/thesis/stm32f4/stm-idf/components/stm32f4xx_hal_driver/stm32f4xx_ll_fsmc.c ****   * @param  Device Pointer to NAND device instance
ARM GAS  /tmp/cccrE0jc.s 			page 17


 480:/home/phong/Documents/thesis/stm32f4/stm-idf/components/stm32f4xx_hal_driver/stm32f4xx_ll_fsmc.c ****   * @param  Init Pointer to NAND Initialization structure
 481:/home/phong/Documents/thesis/stm32f4/stm-idf/components/stm32f4xx_hal_driver/stm32f4xx_ll_fsmc.c ****   * @retval HAL status
 482:/home/phong/Documents/thesis/stm32f4/stm-idf/components/stm32f4xx_hal_driver/stm32f4xx_ll_fsmc.c ****   */
 483:/home/phong/Documents/thesis/stm32f4/stm-idf/components/stm32f4xx_hal_driver/stm32f4xx_ll_fsmc.c **** HAL_StatusTypeDef FSMC_NAND_Init(FSMC_NAND_TypeDef *Device, FSMC_NAND_InitTypeDef *Init)
 484:/home/phong/Documents/thesis/stm32f4/stm-idf/components/stm32f4xx_hal_driver/stm32f4xx_ll_fsmc.c **** {
 412              		.loc 1 484 0
 413              		.cfi_startproc
 414              		@ args = 0, pretend = 0, frame = 0
 415              		@ frame_needed = 0, uses_anonymous_args = 0
 416              		@ link register save eliminated.
 417              	.LVL33:
 418 0000 30B4     		push	{r4, r5}
 419              	.LCFI10:
 420              		.cfi_def_cfa_offset 8
 421              		.cfi_offset 4, -8
 422              		.cfi_offset 5, -4
 423              	.LVL34:
 485:/home/phong/Documents/thesis/stm32f4/stm-idf/components/stm32f4xx_hal_driver/stm32f4xx_ll_fsmc.c ****   uint32_t tmpr  = 0U; 
 486:/home/phong/Documents/thesis/stm32f4/stm-idf/components/stm32f4xx_hal_driver/stm32f4xx_ll_fsmc.c ****     
 487:/home/phong/Documents/thesis/stm32f4/stm-idf/components/stm32f4xx_hal_driver/stm32f4xx_ll_fsmc.c ****   /* Check the parameters */
 488:/home/phong/Documents/thesis/stm32f4/stm-idf/components/stm32f4xx_hal_driver/stm32f4xx_ll_fsmc.c ****   assert_param(IS_FSMC_NAND_BANK(Init->NandBank));
 489:/home/phong/Documents/thesis/stm32f4/stm-idf/components/stm32f4xx_hal_driver/stm32f4xx_ll_fsmc.c ****   assert_param(IS_FSMC_WAIT_FEATURE(Init->Waitfeature));
 490:/home/phong/Documents/thesis/stm32f4/stm-idf/components/stm32f4xx_hal_driver/stm32f4xx_ll_fsmc.c ****   assert_param(IS_FSMC_NAND_MEMORY_WIDTH(Init->MemoryDataWidth));
 491:/home/phong/Documents/thesis/stm32f4/stm-idf/components/stm32f4xx_hal_driver/stm32f4xx_ll_fsmc.c ****   assert_param(IS_FSMC_ECC_STATE(Init->EccComputation));
 492:/home/phong/Documents/thesis/stm32f4/stm-idf/components/stm32f4xx_hal_driver/stm32f4xx_ll_fsmc.c ****   assert_param(IS_FSMC_ECCPAGE_SIZE(Init->ECCPageSize));
 493:/home/phong/Documents/thesis/stm32f4/stm-idf/components/stm32f4xx_hal_driver/stm32f4xx_ll_fsmc.c ****   assert_param(IS_FSMC_TCLR_TIME(Init->TCLRSetupTime));
 494:/home/phong/Documents/thesis/stm32f4/stm-idf/components/stm32f4xx_hal_driver/stm32f4xx_ll_fsmc.c ****   assert_param(IS_FSMC_TAR_TIME(Init->TARSetupTime));   
 495:/home/phong/Documents/thesis/stm32f4/stm-idf/components/stm32f4xx_hal_driver/stm32f4xx_ll_fsmc.c **** 
 496:/home/phong/Documents/thesis/stm32f4/stm-idf/components/stm32f4xx_hal_driver/stm32f4xx_ll_fsmc.c ****     if(Init->NandBank == FSMC_NAND_BANK2)
 424              		.loc 1 496 0
 425 0002 0C68     		ldr	r4, [r1]
 426 0004 102C     		cmp	r4, #16
 427 0006 18D0     		beq	.L32
 497:/home/phong/Documents/thesis/stm32f4/stm-idf/components/stm32f4xx_hal_driver/stm32f4xx_ll_fsmc.c ****   {
 498:/home/phong/Documents/thesis/stm32f4/stm-idf/components/stm32f4xx_hal_driver/stm32f4xx_ll_fsmc.c ****     /* Get the NAND bank 2 register value */
 499:/home/phong/Documents/thesis/stm32f4/stm-idf/components/stm32f4xx_hal_driver/stm32f4xx_ll_fsmc.c ****     tmpr = Device->PCR2;
 500:/home/phong/Documents/thesis/stm32f4/stm-idf/components/stm32f4xx_hal_driver/stm32f4xx_ll_fsmc.c ****   }
 501:/home/phong/Documents/thesis/stm32f4/stm-idf/components/stm32f4xx_hal_driver/stm32f4xx_ll_fsmc.c ****   else
 502:/home/phong/Documents/thesis/stm32f4/stm-idf/components/stm32f4xx_hal_driver/stm32f4xx_ll_fsmc.c ****   {
 503:/home/phong/Documents/thesis/stm32f4/stm-idf/components/stm32f4xx_hal_driver/stm32f4xx_ll_fsmc.c ****     /* Get the NAND bank 3 register value */
 504:/home/phong/Documents/thesis/stm32f4/stm-idf/components/stm32f4xx_hal_driver/stm32f4xx_ll_fsmc.c ****     tmpr = Device->PCR3;
 428              		.loc 1 504 0
 429 0008 036A     		ldr	r3, [r0, #32]
 430              	.LVL35:
 431              	.L28:
 505:/home/phong/Documents/thesis/stm32f4/stm-idf/components/stm32f4xx_hal_driver/stm32f4xx_ll_fsmc.c ****   }
 506:/home/phong/Documents/thesis/stm32f4/stm-idf/components/stm32f4xx_hal_driver/stm32f4xx_ll_fsmc.c ****   
 507:/home/phong/Documents/thesis/stm32f4/stm-idf/components/stm32f4xx_hal_driver/stm32f4xx_ll_fsmc.c ****   /* Clear PWAITEN, PBKEN, PTYP, PWID, ECCEN, TCLR, TAR and ECCPS bits */
 508:/home/phong/Documents/thesis/stm32f4/stm-idf/components/stm32f4xx_hal_driver/stm32f4xx_ll_fsmc.c ****   tmpr &= ((uint32_t)~(FSMC_PCR2_PWAITEN  | FSMC_PCR2_PBKEN | FSMC_PCR2_PTYP | \
 432              		.loc 1 508 0
 433 000a 0E4A     		ldr	r2, .L34
 434 000c 1A40     		ands	r2, r2, r3
 435              	.LVL36:
 509:/home/phong/Documents/thesis/stm32f4/stm-idf/components/stm32f4xx_hal_driver/stm32f4xx_ll_fsmc.c ****                        FSMC_PCR2_PWID | FSMC_PCR2_ECCEN | FSMC_PCR2_TCLR | \
 510:/home/phong/Documents/thesis/stm32f4/stm-idf/components/stm32f4xx_hal_driver/stm32f4xx_ll_fsmc.c ****                        FSMC_PCR2_TAR | FSMC_PCR2_ECCPS));  
 511:/home/phong/Documents/thesis/stm32f4/stm-idf/components/stm32f4xx_hal_driver/stm32f4xx_ll_fsmc.c ****   
 512:/home/phong/Documents/thesis/stm32f4/stm-idf/components/stm32f4xx_hal_driver/stm32f4xx_ll_fsmc.c ****   /* Set NAND device control parameters */
ARM GAS  /tmp/cccrE0jc.s 			page 18


 513:/home/phong/Documents/thesis/stm32f4/stm-idf/components/stm32f4xx_hal_driver/stm32f4xx_ll_fsmc.c ****   tmpr |= (uint32_t)(Init->Waitfeature                |\
 436              		.loc 1 513 0
 437 000e 4B68     		ldr	r3, [r1, #4]
 514:/home/phong/Documents/thesis/stm32f4/stm-idf/components/stm32f4xx_hal_driver/stm32f4xx_ll_fsmc.c ****                      FSMC_PCR_MEMORY_TYPE_NAND        |\
 515:/home/phong/Documents/thesis/stm32f4/stm-idf/components/stm32f4xx_hal_driver/stm32f4xx_ll_fsmc.c ****                      Init->MemoryDataWidth            |\
 438              		.loc 1 515 0
 439 0010 8D68     		ldr	r5, [r1, #8]
 514:/home/phong/Documents/thesis/stm32f4/stm-idf/components/stm32f4xx_hal_driver/stm32f4xx_ll_fsmc.c ****                      FSMC_PCR_MEMORY_TYPE_NAND        |\
 440              		.loc 1 514 0
 441 0012 2B43     		orrs	r3, r3, r5
 516:/home/phong/Documents/thesis/stm32f4/stm-idf/components/stm32f4xx_hal_driver/stm32f4xx_ll_fsmc.c ****                      Init->EccComputation             |\
 442              		.loc 1 516 0
 443 0014 CD68     		ldr	r5, [r1, #12]
 515:/home/phong/Documents/thesis/stm32f4/stm-idf/components/stm32f4xx_hal_driver/stm32f4xx_ll_fsmc.c ****                      Init->EccComputation             |\
 444              		.loc 1 515 0
 445 0016 2B43     		orrs	r3, r3, r5
 517:/home/phong/Documents/thesis/stm32f4/stm-idf/components/stm32f4xx_hal_driver/stm32f4xx_ll_fsmc.c ****                      Init->ECCPageSize                |\
 446              		.loc 1 517 0
 447 0018 0D69     		ldr	r5, [r1, #16]
 516:/home/phong/Documents/thesis/stm32f4/stm-idf/components/stm32f4xx_hal_driver/stm32f4xx_ll_fsmc.c ****                      Init->EccComputation             |\
 448              		.loc 1 516 0
 449 001a 2B43     		orrs	r3, r3, r5
 518:/home/phong/Documents/thesis/stm32f4/stm-idf/components/stm32f4xx_hal_driver/stm32f4xx_ll_fsmc.c ****                      ((Init->TCLRSetupTime) << 9U)    |\
 450              		.loc 1 518 0
 451 001c 4D69     		ldr	r5, [r1, #20]
 517:/home/phong/Documents/thesis/stm32f4/stm-idf/components/stm32f4xx_hal_driver/stm32f4xx_ll_fsmc.c ****                      Init->ECCPageSize                |\
 452              		.loc 1 517 0
 453 001e 43EA4523 		orr	r3, r3, r5, lsl #9
 519:/home/phong/Documents/thesis/stm32f4/stm-idf/components/stm32f4xx_hal_driver/stm32f4xx_ll_fsmc.c ****                      ((Init->TARSetupTime) << 13U));   
 454              		.loc 1 519 0
 455 0022 8969     		ldr	r1, [r1, #24]
 456              	.LVL37:
 513:/home/phong/Documents/thesis/stm32f4/stm-idf/components/stm32f4xx_hal_driver/stm32f4xx_ll_fsmc.c ****                      FSMC_PCR_MEMORY_TYPE_NAND        |\
 457              		.loc 1 513 0
 458 0024 43EA4133 		orr	r3, r3, r1, lsl #13
 459 0028 1343     		orrs	r3, r3, r2
 460 002a 43F00803 		orr	r3, r3, #8
 461              	.LVL38:
 520:/home/phong/Documents/thesis/stm32f4/stm-idf/components/stm32f4xx_hal_driver/stm32f4xx_ll_fsmc.c ****   
 521:/home/phong/Documents/thesis/stm32f4/stm-idf/components/stm32f4xx_hal_driver/stm32f4xx_ll_fsmc.c ****   if(Init->NandBank == FSMC_NAND_BANK2)
 462              		.loc 1 521 0
 463 002e 102C     		cmp	r4, #16
 464 0030 05D0     		beq	.L33
 522:/home/phong/Documents/thesis/stm32f4/stm-idf/components/stm32f4xx_hal_driver/stm32f4xx_ll_fsmc.c ****   {
 523:/home/phong/Documents/thesis/stm32f4/stm-idf/components/stm32f4xx_hal_driver/stm32f4xx_ll_fsmc.c ****     /* NAND bank 2 registers configuration */
 524:/home/phong/Documents/thesis/stm32f4/stm-idf/components/stm32f4xx_hal_driver/stm32f4xx_ll_fsmc.c ****     Device->PCR2  = tmpr;
 525:/home/phong/Documents/thesis/stm32f4/stm-idf/components/stm32f4xx_hal_driver/stm32f4xx_ll_fsmc.c ****   }
 526:/home/phong/Documents/thesis/stm32f4/stm-idf/components/stm32f4xx_hal_driver/stm32f4xx_ll_fsmc.c ****   else
 527:/home/phong/Documents/thesis/stm32f4/stm-idf/components/stm32f4xx_hal_driver/stm32f4xx_ll_fsmc.c ****   {
 528:/home/phong/Documents/thesis/stm32f4/stm-idf/components/stm32f4xx_hal_driver/stm32f4xx_ll_fsmc.c ****     /* NAND bank 3 registers configuration */
 529:/home/phong/Documents/thesis/stm32f4/stm-idf/components/stm32f4xx_hal_driver/stm32f4xx_ll_fsmc.c ****     Device->PCR3  = tmpr;
 465              		.loc 1 529 0
 466 0032 0362     		str	r3, [r0, #32]
 467              	.L30:
 530:/home/phong/Documents/thesis/stm32f4/stm-idf/components/stm32f4xx_hal_driver/stm32f4xx_ll_fsmc.c ****   }
 531:/home/phong/Documents/thesis/stm32f4/stm-idf/components/stm32f4xx_hal_driver/stm32f4xx_ll_fsmc.c ****   
 532:/home/phong/Documents/thesis/stm32f4/stm-idf/components/stm32f4xx_hal_driver/stm32f4xx_ll_fsmc.c ****   return HAL_OK;
ARM GAS  /tmp/cccrE0jc.s 			page 19


 533:/home/phong/Documents/thesis/stm32f4/stm-idf/components/stm32f4xx_hal_driver/stm32f4xx_ll_fsmc.c **** }
 468              		.loc 1 533 0
 469 0034 0020     		movs	r0, #0
 470              	.LVL39:
 471 0036 30BC     		pop	{r4, r5}
 472              	.LCFI11:
 473              		.cfi_remember_state
 474              		.cfi_restore 5
 475              		.cfi_restore 4
 476              		.cfi_def_cfa_offset 0
 477 0038 7047     		bx	lr
 478              	.LVL40:
 479              	.L32:
 480              	.LCFI12:
 481              		.cfi_restore_state
 499:/home/phong/Documents/thesis/stm32f4/stm-idf/components/stm32f4xx_hal_driver/stm32f4xx_ll_fsmc.c ****   }
 482              		.loc 1 499 0
 483 003a 0368     		ldr	r3, [r0]
 484              	.LVL41:
 485 003c E5E7     		b	.L28
 486              	.LVL42:
 487              	.L33:
 524:/home/phong/Documents/thesis/stm32f4/stm-idf/components/stm32f4xx_hal_driver/stm32f4xx_ll_fsmc.c ****   }
 488              		.loc 1 524 0
 489 003e 0360     		str	r3, [r0]
 490 0040 F8E7     		b	.L30
 491              	.L35:
 492 0042 00BF     		.align	2
 493              	.L34:
 494 0044 8101F0FF 		.word	-1048191
 495              		.cfi_endproc
 496              	.LFE136:
 498              		.section	.text.FSMC_NAND_CommonSpace_Timing_Init,"ax",%progbits
 499              		.align	1
 500              		.global	FSMC_NAND_CommonSpace_Timing_Init
 501              		.syntax unified
 502              		.thumb
 503              		.thumb_func
 504              		.fpu fpv4-sp-d16
 506              	FSMC_NAND_CommonSpace_Timing_Init:
 507              	.LFB137:
 534:/home/phong/Documents/thesis/stm32f4/stm-idf/components/stm32f4xx_hal_driver/stm32f4xx_ll_fsmc.c **** 
 535:/home/phong/Documents/thesis/stm32f4/stm-idf/components/stm32f4xx_hal_driver/stm32f4xx_ll_fsmc.c **** /**
 536:/home/phong/Documents/thesis/stm32f4/stm-idf/components/stm32f4xx_hal_driver/stm32f4xx_ll_fsmc.c ****   * @brief  Initializes the FSMC_NAND Common space Timing according to the specified
 537:/home/phong/Documents/thesis/stm32f4/stm-idf/components/stm32f4xx_hal_driver/stm32f4xx_ll_fsmc.c ****   *         parameters in the FSMC_NAND_PCC_TimingTypeDef
 538:/home/phong/Documents/thesis/stm32f4/stm-idf/components/stm32f4xx_hal_driver/stm32f4xx_ll_fsmc.c ****   * @param  Device Pointer to NAND device instance
 539:/home/phong/Documents/thesis/stm32f4/stm-idf/components/stm32f4xx_hal_driver/stm32f4xx_ll_fsmc.c ****   * @param  Timing Pointer to NAND timing structure
 540:/home/phong/Documents/thesis/stm32f4/stm-idf/components/stm32f4xx_hal_driver/stm32f4xx_ll_fsmc.c ****   * @param  Bank NAND bank number   
 541:/home/phong/Documents/thesis/stm32f4/stm-idf/components/stm32f4xx_hal_driver/stm32f4xx_ll_fsmc.c ****   * @retval HAL status
 542:/home/phong/Documents/thesis/stm32f4/stm-idf/components/stm32f4xx_hal_driver/stm32f4xx_ll_fsmc.c ****   */
 543:/home/phong/Documents/thesis/stm32f4/stm-idf/components/stm32f4xx_hal_driver/stm32f4xx_ll_fsmc.c **** HAL_StatusTypeDef FSMC_NAND_CommonSpace_Timing_Init(FSMC_NAND_TypeDef *Device, FSMC_NAND_PCC_Timing
 544:/home/phong/Documents/thesis/stm32f4/stm-idf/components/stm32f4xx_hal_driver/stm32f4xx_ll_fsmc.c **** {
 508              		.loc 1 544 0
 509              		.cfi_startproc
 510              		@ args = 0, pretend = 0, frame = 0
 511              		@ frame_needed = 0, uses_anonymous_args = 0
 512              		@ link register save eliminated.
ARM GAS  /tmp/cccrE0jc.s 			page 20


 513              	.LVL43:
 514 0000 10B4     		push	{r4}
 515              	.LCFI13:
 516              		.cfi_def_cfa_offset 4
 517              		.cfi_offset 4, -4
 518              	.LVL44:
 545:/home/phong/Documents/thesis/stm32f4/stm-idf/components/stm32f4xx_hal_driver/stm32f4xx_ll_fsmc.c ****   uint32_t tmpr = 0U;  
 546:/home/phong/Documents/thesis/stm32f4/stm-idf/components/stm32f4xx_hal_driver/stm32f4xx_ll_fsmc.c ****   
 547:/home/phong/Documents/thesis/stm32f4/stm-idf/components/stm32f4xx_hal_driver/stm32f4xx_ll_fsmc.c ****   /* Check the parameters */
 548:/home/phong/Documents/thesis/stm32f4/stm-idf/components/stm32f4xx_hal_driver/stm32f4xx_ll_fsmc.c ****   assert_param(IS_FSMC_SETUP_TIME(Timing->SetupTime));
 549:/home/phong/Documents/thesis/stm32f4/stm-idf/components/stm32f4xx_hal_driver/stm32f4xx_ll_fsmc.c ****   assert_param(IS_FSMC_WAIT_TIME(Timing->WaitSetupTime));
 550:/home/phong/Documents/thesis/stm32f4/stm-idf/components/stm32f4xx_hal_driver/stm32f4xx_ll_fsmc.c ****   assert_param(IS_FSMC_HOLD_TIME(Timing->HoldSetupTime));
 551:/home/phong/Documents/thesis/stm32f4/stm-idf/components/stm32f4xx_hal_driver/stm32f4xx_ll_fsmc.c ****   assert_param(IS_FSMC_HIZ_TIME(Timing->HiZSetupTime));
 552:/home/phong/Documents/thesis/stm32f4/stm-idf/components/stm32f4xx_hal_driver/stm32f4xx_ll_fsmc.c ****   
 553:/home/phong/Documents/thesis/stm32f4/stm-idf/components/stm32f4xx_hal_driver/stm32f4xx_ll_fsmc.c ****   if(Bank == FSMC_NAND_BANK2)
 519              		.loc 1 553 0
 520 0002 102A     		cmp	r2, #16
 521 0004 11D0     		beq	.L42
 554:/home/phong/Documents/thesis/stm32f4/stm-idf/components/stm32f4xx_hal_driver/stm32f4xx_ll_fsmc.c ****   {
 555:/home/phong/Documents/thesis/stm32f4/stm-idf/components/stm32f4xx_hal_driver/stm32f4xx_ll_fsmc.c ****     /* Get the NAND bank 2 register value */
 556:/home/phong/Documents/thesis/stm32f4/stm-idf/components/stm32f4xx_hal_driver/stm32f4xx_ll_fsmc.c ****     tmpr = Device->PMEM2;
 557:/home/phong/Documents/thesis/stm32f4/stm-idf/components/stm32f4xx_hal_driver/stm32f4xx_ll_fsmc.c ****   }
 558:/home/phong/Documents/thesis/stm32f4/stm-idf/components/stm32f4xx_hal_driver/stm32f4xx_ll_fsmc.c ****   else
 559:/home/phong/Documents/thesis/stm32f4/stm-idf/components/stm32f4xx_hal_driver/stm32f4xx_ll_fsmc.c ****   {
 560:/home/phong/Documents/thesis/stm32f4/stm-idf/components/stm32f4xx_hal_driver/stm32f4xx_ll_fsmc.c ****     /* Get the NAND bank 3 register value */
 561:/home/phong/Documents/thesis/stm32f4/stm-idf/components/stm32f4xx_hal_driver/stm32f4xx_ll_fsmc.c ****     tmpr = Device->PMEM3;
 522              		.loc 1 561 0
 523 0006 836A     		ldr	r3, [r0, #40]
 524              	.LVL45:
 525              	.L38:
 562:/home/phong/Documents/thesis/stm32f4/stm-idf/components/stm32f4xx_hal_driver/stm32f4xx_ll_fsmc.c ****   } 
 563:/home/phong/Documents/thesis/stm32f4/stm-idf/components/stm32f4xx_hal_driver/stm32f4xx_ll_fsmc.c ****   
 564:/home/phong/Documents/thesis/stm32f4/stm-idf/components/stm32f4xx_hal_driver/stm32f4xx_ll_fsmc.c ****   /* Clear MEMSETx, MEMWAITx, MEMHOLDx and MEMHIZx bits */
 565:/home/phong/Documents/thesis/stm32f4/stm-idf/components/stm32f4xx_hal_driver/stm32f4xx_ll_fsmc.c ****   tmpr &= ((uint32_t)~(FSMC_PMEM2_MEMSET2  | FSMC_PMEM2_MEMWAIT2 | FSMC_PMEM2_MEMHOLD2 | \
 566:/home/phong/Documents/thesis/stm32f4/stm-idf/components/stm32f4xx_hal_driver/stm32f4xx_ll_fsmc.c ****                        FSMC_PMEM2_MEMHIZ2));
 567:/home/phong/Documents/thesis/stm32f4/stm-idf/components/stm32f4xx_hal_driver/stm32f4xx_ll_fsmc.c ****   
 568:/home/phong/Documents/thesis/stm32f4/stm-idf/components/stm32f4xx_hal_driver/stm32f4xx_ll_fsmc.c ****   /* Set FSMC_NAND device timing parameters */
 569:/home/phong/Documents/thesis/stm32f4/stm-idf/components/stm32f4xx_hal_driver/stm32f4xx_ll_fsmc.c ****   tmpr |= (uint32_t)(Timing->SetupTime                     |\
 526              		.loc 1 569 0
 527 0008 0B68     		ldr	r3, [r1]
 570:/home/phong/Documents/thesis/stm32f4/stm-idf/components/stm32f4xx_hal_driver/stm32f4xx_ll_fsmc.c ****                        ((Timing->WaitSetupTime) << 8U)     |\
 528              		.loc 1 570 0
 529 000a 4C68     		ldr	r4, [r1, #4]
 569:/home/phong/Documents/thesis/stm32f4/stm-idf/components/stm32f4xx_hal_driver/stm32f4xx_ll_fsmc.c ****                        ((Timing->WaitSetupTime) << 8U)     |\
 530              		.loc 1 569 0
 531 000c 43EA0423 		orr	r3, r3, r4, lsl #8
 571:/home/phong/Documents/thesis/stm32f4/stm-idf/components/stm32f4xx_hal_driver/stm32f4xx_ll_fsmc.c ****                        ((Timing->HoldSetupTime) << 16U)    |\
 532              		.loc 1 571 0
 533 0010 8C68     		ldr	r4, [r1, #8]
 570:/home/phong/Documents/thesis/stm32f4/stm-idf/components/stm32f4xx_hal_driver/stm32f4xx_ll_fsmc.c ****                        ((Timing->WaitSetupTime) << 8U)     |\
 534              		.loc 1 570 0
 535 0012 43EA0443 		orr	r3, r3, r4, lsl #16
 572:/home/phong/Documents/thesis/stm32f4/stm-idf/components/stm32f4xx_hal_driver/stm32f4xx_ll_fsmc.c ****                        ((Timing->HiZSetupTime) << 24U)
 536              		.loc 1 572 0
 537 0016 C968     		ldr	r1, [r1, #12]
 538              	.LVL46:
 571:/home/phong/Documents/thesis/stm32f4/stm-idf/components/stm32f4xx_hal_driver/stm32f4xx_ll_fsmc.c ****                        ((Timing->HoldSetupTime) << 16U)    |\
ARM GAS  /tmp/cccrE0jc.s 			page 21


 539              		.loc 1 571 0
 540 0018 43EA0163 		orr	r3, r3, r1, lsl #24
 541              	.LVL47:
 573:/home/phong/Documents/thesis/stm32f4/stm-idf/components/stm32f4xx_hal_driver/stm32f4xx_ll_fsmc.c ****                        );
 574:/home/phong/Documents/thesis/stm32f4/stm-idf/components/stm32f4xx_hal_driver/stm32f4xx_ll_fsmc.c ****                             
 575:/home/phong/Documents/thesis/stm32f4/stm-idf/components/stm32f4xx_hal_driver/stm32f4xx_ll_fsmc.c ****   if(Bank == FSMC_NAND_BANK2)
 542              		.loc 1 575 0
 543 001c 102A     		cmp	r2, #16
 544 001e 06D0     		beq	.L43
 576:/home/phong/Documents/thesis/stm32f4/stm-idf/components/stm32f4xx_hal_driver/stm32f4xx_ll_fsmc.c ****   {
 577:/home/phong/Documents/thesis/stm32f4/stm-idf/components/stm32f4xx_hal_driver/stm32f4xx_ll_fsmc.c ****     /* NAND bank 2 registers configuration */
 578:/home/phong/Documents/thesis/stm32f4/stm-idf/components/stm32f4xx_hal_driver/stm32f4xx_ll_fsmc.c ****     Device->PMEM2 = tmpr;
 579:/home/phong/Documents/thesis/stm32f4/stm-idf/components/stm32f4xx_hal_driver/stm32f4xx_ll_fsmc.c ****   }
 580:/home/phong/Documents/thesis/stm32f4/stm-idf/components/stm32f4xx_hal_driver/stm32f4xx_ll_fsmc.c ****   else
 581:/home/phong/Documents/thesis/stm32f4/stm-idf/components/stm32f4xx_hal_driver/stm32f4xx_ll_fsmc.c ****   {
 582:/home/phong/Documents/thesis/stm32f4/stm-idf/components/stm32f4xx_hal_driver/stm32f4xx_ll_fsmc.c ****     /* NAND bank 3 registers configuration */
 583:/home/phong/Documents/thesis/stm32f4/stm-idf/components/stm32f4xx_hal_driver/stm32f4xx_ll_fsmc.c ****     Device->PMEM3 = tmpr;
 545              		.loc 1 583 0
 546 0020 8362     		str	r3, [r0, #40]
 547              	.L40:
 584:/home/phong/Documents/thesis/stm32f4/stm-idf/components/stm32f4xx_hal_driver/stm32f4xx_ll_fsmc.c ****   }  
 585:/home/phong/Documents/thesis/stm32f4/stm-idf/components/stm32f4xx_hal_driver/stm32f4xx_ll_fsmc.c ****   
 586:/home/phong/Documents/thesis/stm32f4/stm-idf/components/stm32f4xx_hal_driver/stm32f4xx_ll_fsmc.c ****   return HAL_OK;  
 587:/home/phong/Documents/thesis/stm32f4/stm-idf/components/stm32f4xx_hal_driver/stm32f4xx_ll_fsmc.c **** }
 548              		.loc 1 587 0
 549 0022 0020     		movs	r0, #0
 550              	.LVL48:
 551 0024 5DF8044B 		ldr	r4, [sp], #4
 552              	.LCFI14:
 553              		.cfi_remember_state
 554              		.cfi_restore 4
 555              		.cfi_def_cfa_offset 0
 556 0028 7047     		bx	lr
 557              	.LVL49:
 558              	.L42:
 559              	.LCFI15:
 560              		.cfi_restore_state
 556:/home/phong/Documents/thesis/stm32f4/stm-idf/components/stm32f4xx_hal_driver/stm32f4xx_ll_fsmc.c ****   }
 561              		.loc 1 556 0
 562 002a 8368     		ldr	r3, [r0, #8]
 563              	.LVL50:
 564 002c ECE7     		b	.L38
 565              	.LVL51:
 566              	.L43:
 578:/home/phong/Documents/thesis/stm32f4/stm-idf/components/stm32f4xx_hal_driver/stm32f4xx_ll_fsmc.c ****   }
 567              		.loc 1 578 0
 568 002e 8360     		str	r3, [r0, #8]
 569 0030 F7E7     		b	.L40
 570              		.cfi_endproc
 571              	.LFE137:
 573              		.section	.text.FSMC_NAND_AttributeSpace_Timing_Init,"ax",%progbits
 574              		.align	1
 575              		.global	FSMC_NAND_AttributeSpace_Timing_Init
 576              		.syntax unified
 577              		.thumb
 578              		.thumb_func
 579              		.fpu fpv4-sp-d16
ARM GAS  /tmp/cccrE0jc.s 			page 22


 581              	FSMC_NAND_AttributeSpace_Timing_Init:
 582              	.LFB138:
 588:/home/phong/Documents/thesis/stm32f4/stm-idf/components/stm32f4xx_hal_driver/stm32f4xx_ll_fsmc.c **** 
 589:/home/phong/Documents/thesis/stm32f4/stm-idf/components/stm32f4xx_hal_driver/stm32f4xx_ll_fsmc.c **** /**
 590:/home/phong/Documents/thesis/stm32f4/stm-idf/components/stm32f4xx_hal_driver/stm32f4xx_ll_fsmc.c ****   * @brief  Initializes the FSMC_NAND Attribute space Timing according to the specified
 591:/home/phong/Documents/thesis/stm32f4/stm-idf/components/stm32f4xx_hal_driver/stm32f4xx_ll_fsmc.c ****   *         parameters in the FSMC_NAND_PCC_TimingTypeDef
 592:/home/phong/Documents/thesis/stm32f4/stm-idf/components/stm32f4xx_hal_driver/stm32f4xx_ll_fsmc.c ****   * @param  Device Pointer to NAND device instance
 593:/home/phong/Documents/thesis/stm32f4/stm-idf/components/stm32f4xx_hal_driver/stm32f4xx_ll_fsmc.c ****   * @param  Timing Pointer to NAND timing structure
 594:/home/phong/Documents/thesis/stm32f4/stm-idf/components/stm32f4xx_hal_driver/stm32f4xx_ll_fsmc.c ****   * @param  Bank NAND bank number 
 595:/home/phong/Documents/thesis/stm32f4/stm-idf/components/stm32f4xx_hal_driver/stm32f4xx_ll_fsmc.c ****   * @retval HAL status
 596:/home/phong/Documents/thesis/stm32f4/stm-idf/components/stm32f4xx_hal_driver/stm32f4xx_ll_fsmc.c ****   */
 597:/home/phong/Documents/thesis/stm32f4/stm-idf/components/stm32f4xx_hal_driver/stm32f4xx_ll_fsmc.c **** HAL_StatusTypeDef FSMC_NAND_AttributeSpace_Timing_Init(FSMC_NAND_TypeDef *Device, FSMC_NAND_PCC_Tim
 598:/home/phong/Documents/thesis/stm32f4/stm-idf/components/stm32f4xx_hal_driver/stm32f4xx_ll_fsmc.c **** {
 583              		.loc 1 598 0
 584              		.cfi_startproc
 585              		@ args = 0, pretend = 0, frame = 0
 586              		@ frame_needed = 0, uses_anonymous_args = 0
 587              		@ link register save eliminated.
 588              	.LVL52:
 589 0000 10B4     		push	{r4}
 590              	.LCFI16:
 591              		.cfi_def_cfa_offset 4
 592              		.cfi_offset 4, -4
 593              	.LVL53:
 599:/home/phong/Documents/thesis/stm32f4/stm-idf/components/stm32f4xx_hal_driver/stm32f4xx_ll_fsmc.c ****   uint32_t tmpr = 0U;  
 600:/home/phong/Documents/thesis/stm32f4/stm-idf/components/stm32f4xx_hal_driver/stm32f4xx_ll_fsmc.c ****   
 601:/home/phong/Documents/thesis/stm32f4/stm-idf/components/stm32f4xx_hal_driver/stm32f4xx_ll_fsmc.c ****   /* Check the parameters */  
 602:/home/phong/Documents/thesis/stm32f4/stm-idf/components/stm32f4xx_hal_driver/stm32f4xx_ll_fsmc.c ****   assert_param(IS_FSMC_SETUP_TIME(Timing->SetupTime));
 603:/home/phong/Documents/thesis/stm32f4/stm-idf/components/stm32f4xx_hal_driver/stm32f4xx_ll_fsmc.c ****   assert_param(IS_FSMC_WAIT_TIME(Timing->WaitSetupTime));
 604:/home/phong/Documents/thesis/stm32f4/stm-idf/components/stm32f4xx_hal_driver/stm32f4xx_ll_fsmc.c ****   assert_param(IS_FSMC_HOLD_TIME(Timing->HoldSetupTime));
 605:/home/phong/Documents/thesis/stm32f4/stm-idf/components/stm32f4xx_hal_driver/stm32f4xx_ll_fsmc.c ****   assert_param(IS_FSMC_HIZ_TIME(Timing->HiZSetupTime));
 606:/home/phong/Documents/thesis/stm32f4/stm-idf/components/stm32f4xx_hal_driver/stm32f4xx_ll_fsmc.c ****   
 607:/home/phong/Documents/thesis/stm32f4/stm-idf/components/stm32f4xx_hal_driver/stm32f4xx_ll_fsmc.c ****   if(Bank == FSMC_NAND_BANK2)
 594              		.loc 1 607 0
 595 0002 102A     		cmp	r2, #16
 596 0004 11D0     		beq	.L50
 608:/home/phong/Documents/thesis/stm32f4/stm-idf/components/stm32f4xx_hal_driver/stm32f4xx_ll_fsmc.c ****   {
 609:/home/phong/Documents/thesis/stm32f4/stm-idf/components/stm32f4xx_hal_driver/stm32f4xx_ll_fsmc.c ****     /* Get the NAND bank 2 register value */
 610:/home/phong/Documents/thesis/stm32f4/stm-idf/components/stm32f4xx_hal_driver/stm32f4xx_ll_fsmc.c ****     tmpr = Device->PATT2;
 611:/home/phong/Documents/thesis/stm32f4/stm-idf/components/stm32f4xx_hal_driver/stm32f4xx_ll_fsmc.c ****   }
 612:/home/phong/Documents/thesis/stm32f4/stm-idf/components/stm32f4xx_hal_driver/stm32f4xx_ll_fsmc.c ****   else
 613:/home/phong/Documents/thesis/stm32f4/stm-idf/components/stm32f4xx_hal_driver/stm32f4xx_ll_fsmc.c ****   {
 614:/home/phong/Documents/thesis/stm32f4/stm-idf/components/stm32f4xx_hal_driver/stm32f4xx_ll_fsmc.c ****     /* Get the NAND bank 3 register value */
 615:/home/phong/Documents/thesis/stm32f4/stm-idf/components/stm32f4xx_hal_driver/stm32f4xx_ll_fsmc.c ****     tmpr = Device->PATT3;
 597              		.loc 1 615 0
 598 0006 C36A     		ldr	r3, [r0, #44]
 599              	.LVL54:
 600              	.L46:
 616:/home/phong/Documents/thesis/stm32f4/stm-idf/components/stm32f4xx_hal_driver/stm32f4xx_ll_fsmc.c ****   } 
 617:/home/phong/Documents/thesis/stm32f4/stm-idf/components/stm32f4xx_hal_driver/stm32f4xx_ll_fsmc.c ****   
 618:/home/phong/Documents/thesis/stm32f4/stm-idf/components/stm32f4xx_hal_driver/stm32f4xx_ll_fsmc.c ****   /* Clear ATTSETx, ATTWAITx, ATTHOLDx and ATTHIZx bits */
 619:/home/phong/Documents/thesis/stm32f4/stm-idf/components/stm32f4xx_hal_driver/stm32f4xx_ll_fsmc.c ****   tmpr &= ((uint32_t)~(FSMC_PATT2_ATTSET2  | FSMC_PATT2_ATTWAIT2 | FSMC_PATT2_ATTHOLD2 | \
 620:/home/phong/Documents/thesis/stm32f4/stm-idf/components/stm32f4xx_hal_driver/stm32f4xx_ll_fsmc.c ****                        FSMC_PATT2_ATTHIZ2));
 621:/home/phong/Documents/thesis/stm32f4/stm-idf/components/stm32f4xx_hal_driver/stm32f4xx_ll_fsmc.c ****   
 622:/home/phong/Documents/thesis/stm32f4/stm-idf/components/stm32f4xx_hal_driver/stm32f4xx_ll_fsmc.c ****   /* Set FSMC_NAND device timing parameters */
 623:/home/phong/Documents/thesis/stm32f4/stm-idf/components/stm32f4xx_hal_driver/stm32f4xx_ll_fsmc.c ****   tmpr |= (uint32_t)(Timing->SetupTime                     |\
 601              		.loc 1 623 0
ARM GAS  /tmp/cccrE0jc.s 			page 23


 602 0008 0B68     		ldr	r3, [r1]
 624:/home/phong/Documents/thesis/stm32f4/stm-idf/components/stm32f4xx_hal_driver/stm32f4xx_ll_fsmc.c ****                        ((Timing->WaitSetupTime) << 8U)     |\
 603              		.loc 1 624 0
 604 000a 4C68     		ldr	r4, [r1, #4]
 623:/home/phong/Documents/thesis/stm32f4/stm-idf/components/stm32f4xx_hal_driver/stm32f4xx_ll_fsmc.c ****                        ((Timing->WaitSetupTime) << 8U)     |\
 605              		.loc 1 623 0
 606 000c 43EA0423 		orr	r3, r3, r4, lsl #8
 625:/home/phong/Documents/thesis/stm32f4/stm-idf/components/stm32f4xx_hal_driver/stm32f4xx_ll_fsmc.c ****                        ((Timing->HoldSetupTime) << 16U)    |\
 607              		.loc 1 625 0
 608 0010 8C68     		ldr	r4, [r1, #8]
 624:/home/phong/Documents/thesis/stm32f4/stm-idf/components/stm32f4xx_hal_driver/stm32f4xx_ll_fsmc.c ****                        ((Timing->WaitSetupTime) << 8U)     |\
 609              		.loc 1 624 0
 610 0012 43EA0443 		orr	r3, r3, r4, lsl #16
 626:/home/phong/Documents/thesis/stm32f4/stm-idf/components/stm32f4xx_hal_driver/stm32f4xx_ll_fsmc.c ****                        ((Timing->HiZSetupTime) << 24U)
 611              		.loc 1 626 0
 612 0016 C968     		ldr	r1, [r1, #12]
 613              	.LVL55:
 625:/home/phong/Documents/thesis/stm32f4/stm-idf/components/stm32f4xx_hal_driver/stm32f4xx_ll_fsmc.c ****                        ((Timing->HoldSetupTime) << 16U)    |\
 614              		.loc 1 625 0
 615 0018 43EA0163 		orr	r3, r3, r1, lsl #24
 616              	.LVL56:
 627:/home/phong/Documents/thesis/stm32f4/stm-idf/components/stm32f4xx_hal_driver/stm32f4xx_ll_fsmc.c ****                        );
 628:/home/phong/Documents/thesis/stm32f4/stm-idf/components/stm32f4xx_hal_driver/stm32f4xx_ll_fsmc.c ****                        
 629:/home/phong/Documents/thesis/stm32f4/stm-idf/components/stm32f4xx_hal_driver/stm32f4xx_ll_fsmc.c ****   if(Bank == FSMC_NAND_BANK2)
 617              		.loc 1 629 0
 618 001c 102A     		cmp	r2, #16
 619 001e 06D0     		beq	.L51
 630:/home/phong/Documents/thesis/stm32f4/stm-idf/components/stm32f4xx_hal_driver/stm32f4xx_ll_fsmc.c ****   {
 631:/home/phong/Documents/thesis/stm32f4/stm-idf/components/stm32f4xx_hal_driver/stm32f4xx_ll_fsmc.c ****     /* NAND bank 2 registers configuration */
 632:/home/phong/Documents/thesis/stm32f4/stm-idf/components/stm32f4xx_hal_driver/stm32f4xx_ll_fsmc.c ****     Device->PATT2 = tmpr;
 633:/home/phong/Documents/thesis/stm32f4/stm-idf/components/stm32f4xx_hal_driver/stm32f4xx_ll_fsmc.c ****   }
 634:/home/phong/Documents/thesis/stm32f4/stm-idf/components/stm32f4xx_hal_driver/stm32f4xx_ll_fsmc.c ****   else
 635:/home/phong/Documents/thesis/stm32f4/stm-idf/components/stm32f4xx_hal_driver/stm32f4xx_ll_fsmc.c ****   {
 636:/home/phong/Documents/thesis/stm32f4/stm-idf/components/stm32f4xx_hal_driver/stm32f4xx_ll_fsmc.c ****     /* NAND bank 3 registers configuration */
 637:/home/phong/Documents/thesis/stm32f4/stm-idf/components/stm32f4xx_hal_driver/stm32f4xx_ll_fsmc.c ****     Device->PATT3 = tmpr;
 620              		.loc 1 637 0
 621 0020 C362     		str	r3, [r0, #44]
 622              	.L48:
 638:/home/phong/Documents/thesis/stm32f4/stm-idf/components/stm32f4xx_hal_driver/stm32f4xx_ll_fsmc.c ****   }   
 639:/home/phong/Documents/thesis/stm32f4/stm-idf/components/stm32f4xx_hal_driver/stm32f4xx_ll_fsmc.c ****   
 640:/home/phong/Documents/thesis/stm32f4/stm-idf/components/stm32f4xx_hal_driver/stm32f4xx_ll_fsmc.c ****   return HAL_OK;
 641:/home/phong/Documents/thesis/stm32f4/stm-idf/components/stm32f4xx_hal_driver/stm32f4xx_ll_fsmc.c **** }
 623              		.loc 1 641 0
 624 0022 0020     		movs	r0, #0
 625              	.LVL57:
 626 0024 5DF8044B 		ldr	r4, [sp], #4
 627              	.LCFI17:
 628              		.cfi_remember_state
 629              		.cfi_restore 4
 630              		.cfi_def_cfa_offset 0
 631 0028 7047     		bx	lr
 632              	.LVL58:
 633              	.L50:
 634              	.LCFI18:
 635              		.cfi_restore_state
 610:/home/phong/Documents/thesis/stm32f4/stm-idf/components/stm32f4xx_hal_driver/stm32f4xx_ll_fsmc.c ****   }
 636              		.loc 1 610 0
ARM GAS  /tmp/cccrE0jc.s 			page 24


 637 002a C368     		ldr	r3, [r0, #12]
 638              	.LVL59:
 639 002c ECE7     		b	.L46
 640              	.LVL60:
 641              	.L51:
 632:/home/phong/Documents/thesis/stm32f4/stm-idf/components/stm32f4xx_hal_driver/stm32f4xx_ll_fsmc.c ****   }
 642              		.loc 1 632 0
 643 002e C360     		str	r3, [r0, #12]
 644 0030 F7E7     		b	.L48
 645              		.cfi_endproc
 646              	.LFE138:
 648              		.section	.text.FSMC_NAND_DeInit,"ax",%progbits
 649              		.align	1
 650              		.global	FSMC_NAND_DeInit
 651              		.syntax unified
 652              		.thumb
 653              		.thumb_func
 654              		.fpu fpv4-sp-d16
 656              	FSMC_NAND_DeInit:
 657              	.LFB139:
 642:/home/phong/Documents/thesis/stm32f4/stm-idf/components/stm32f4xx_hal_driver/stm32f4xx_ll_fsmc.c **** 
 643:/home/phong/Documents/thesis/stm32f4/stm-idf/components/stm32f4xx_hal_driver/stm32f4xx_ll_fsmc.c **** /**
 644:/home/phong/Documents/thesis/stm32f4/stm-idf/components/stm32f4xx_hal_driver/stm32f4xx_ll_fsmc.c ****   * @brief  DeInitializes the FSMC_NAND device 
 645:/home/phong/Documents/thesis/stm32f4/stm-idf/components/stm32f4xx_hal_driver/stm32f4xx_ll_fsmc.c ****   * @param  Device Pointer to NAND device instance
 646:/home/phong/Documents/thesis/stm32f4/stm-idf/components/stm32f4xx_hal_driver/stm32f4xx_ll_fsmc.c ****   * @param  Bank NAND bank number
 647:/home/phong/Documents/thesis/stm32f4/stm-idf/components/stm32f4xx_hal_driver/stm32f4xx_ll_fsmc.c ****   * @retval HAL status
 648:/home/phong/Documents/thesis/stm32f4/stm-idf/components/stm32f4xx_hal_driver/stm32f4xx_ll_fsmc.c ****   */
 649:/home/phong/Documents/thesis/stm32f4/stm-idf/components/stm32f4xx_hal_driver/stm32f4xx_ll_fsmc.c **** HAL_StatusTypeDef FSMC_NAND_DeInit(FSMC_NAND_TypeDef *Device, uint32_t Bank)
 650:/home/phong/Documents/thesis/stm32f4/stm-idf/components/stm32f4xx_hal_driver/stm32f4xx_ll_fsmc.c **** {
 658              		.loc 1 650 0
 659              		.cfi_startproc
 660              		@ args = 0, pretend = 0, frame = 0
 661              		@ frame_needed = 0, uses_anonymous_args = 0
 662              		@ link register save eliminated.
 663              	.LVL61:
 651:/home/phong/Documents/thesis/stm32f4/stm-idf/components/stm32f4xx_hal_driver/stm32f4xx_ll_fsmc.c ****   /* Disable the NAND Bank */
 652:/home/phong/Documents/thesis/stm32f4/stm-idf/components/stm32f4xx_hal_driver/stm32f4xx_ll_fsmc.c ****   __FSMC_NAND_DISABLE(Device, Bank);
 664              		.loc 1 652 0
 665 0000 1029     		cmp	r1, #16
 666 0002 0FD0     		beq	.L57
 667              		.loc 1 652 0 is_stmt 0 discriminator 2
 668 0004 036A     		ldr	r3, [r0, #32]
 669 0006 23F00403 		bic	r3, r3, #4
 670 000a 0362     		str	r3, [r0, #32]
 671              	.L54:
 653:/home/phong/Documents/thesis/stm32f4/stm-idf/components/stm32f4xx_hal_driver/stm32f4xx_ll_fsmc.c ****  
 654:/home/phong/Documents/thesis/stm32f4/stm-idf/components/stm32f4xx_hal_driver/stm32f4xx_ll_fsmc.c ****   /* De-initialize the NAND Bank */
 655:/home/phong/Documents/thesis/stm32f4/stm-idf/components/stm32f4xx_hal_driver/stm32f4xx_ll_fsmc.c ****   if(Bank == FSMC_NAND_BANK2)
 672              		.loc 1 655 0 is_stmt 1
 673 000c 1029     		cmp	r1, #16
 674 000e 0ED0     		beq	.L58
 656:/home/phong/Documents/thesis/stm32f4/stm-idf/components/stm32f4xx_hal_driver/stm32f4xx_ll_fsmc.c ****   {
 657:/home/phong/Documents/thesis/stm32f4/stm-idf/components/stm32f4xx_hal_driver/stm32f4xx_ll_fsmc.c ****     /* Set the FSMC_NAND_BANK2 registers to their reset values */
 658:/home/phong/Documents/thesis/stm32f4/stm-idf/components/stm32f4xx_hal_driver/stm32f4xx_ll_fsmc.c ****     Device->PCR2  = 0x00000018U;
 659:/home/phong/Documents/thesis/stm32f4/stm-idf/components/stm32f4xx_hal_driver/stm32f4xx_ll_fsmc.c ****     Device->SR2   = 0x00000040U;
 660:/home/phong/Documents/thesis/stm32f4/stm-idf/components/stm32f4xx_hal_driver/stm32f4xx_ll_fsmc.c ****     Device->PMEM2 = 0xFCFCFCFCU;
 661:/home/phong/Documents/thesis/stm32f4/stm-idf/components/stm32f4xx_hal_driver/stm32f4xx_ll_fsmc.c ****     Device->PATT2 = 0xFCFCFCFCU;  
ARM GAS  /tmp/cccrE0jc.s 			page 25


 662:/home/phong/Documents/thesis/stm32f4/stm-idf/components/stm32f4xx_hal_driver/stm32f4xx_ll_fsmc.c ****   }
 663:/home/phong/Documents/thesis/stm32f4/stm-idf/components/stm32f4xx_hal_driver/stm32f4xx_ll_fsmc.c ****   /* FSMC_Bank3_NAND */  
 664:/home/phong/Documents/thesis/stm32f4/stm-idf/components/stm32f4xx_hal_driver/stm32f4xx_ll_fsmc.c ****   else
 665:/home/phong/Documents/thesis/stm32f4/stm-idf/components/stm32f4xx_hal_driver/stm32f4xx_ll_fsmc.c ****   {
 666:/home/phong/Documents/thesis/stm32f4/stm-idf/components/stm32f4xx_hal_driver/stm32f4xx_ll_fsmc.c ****     /* Set the FSMC_NAND_BANK3 registers to their reset values */
 667:/home/phong/Documents/thesis/stm32f4/stm-idf/components/stm32f4xx_hal_driver/stm32f4xx_ll_fsmc.c ****     Device->PCR3  = 0x00000018U;
 675              		.loc 1 667 0
 676 0010 1823     		movs	r3, #24
 677 0012 0362     		str	r3, [r0, #32]
 668:/home/phong/Documents/thesis/stm32f4/stm-idf/components/stm32f4xx_hal_driver/stm32f4xx_ll_fsmc.c ****     Device->SR3   = 0x00000040U;
 678              		.loc 1 668 0
 679 0014 4023     		movs	r3, #64
 680 0016 4362     		str	r3, [r0, #36]
 669:/home/phong/Documents/thesis/stm32f4/stm-idf/components/stm32f4xx_hal_driver/stm32f4xx_ll_fsmc.c ****     Device->PMEM3 = 0xFCFCFCFCU;
 681              		.loc 1 669 0
 682 0018 4FF0FC33 		mov	r3, #-50529028
 683 001c 8362     		str	r3, [r0, #40]
 670:/home/phong/Documents/thesis/stm32f4/stm-idf/components/stm32f4xx_hal_driver/stm32f4xx_ll_fsmc.c ****     Device->PATT3 = 0xFCFCFCFCU; 
 684              		.loc 1 670 0
 685 001e C362     		str	r3, [r0, #44]
 686              	.L56:
 671:/home/phong/Documents/thesis/stm32f4/stm-idf/components/stm32f4xx_hal_driver/stm32f4xx_ll_fsmc.c ****   }
 672:/home/phong/Documents/thesis/stm32f4/stm-idf/components/stm32f4xx_hal_driver/stm32f4xx_ll_fsmc.c ****   
 673:/home/phong/Documents/thesis/stm32f4/stm-idf/components/stm32f4xx_hal_driver/stm32f4xx_ll_fsmc.c ****   return HAL_OK;
 674:/home/phong/Documents/thesis/stm32f4/stm-idf/components/stm32f4xx_hal_driver/stm32f4xx_ll_fsmc.c **** }
 687              		.loc 1 674 0
 688 0020 0020     		movs	r0, #0
 689              	.LVL62:
 690 0022 7047     		bx	lr
 691              	.LVL63:
 692              	.L57:
 652:/home/phong/Documents/thesis/stm32f4/stm-idf/components/stm32f4xx_hal_driver/stm32f4xx_ll_fsmc.c ****  
 693              		.loc 1 652 0 discriminator 1
 694 0024 0368     		ldr	r3, [r0]
 695 0026 23F00403 		bic	r3, r3, #4
 696 002a 0360     		str	r3, [r0]
 697 002c EEE7     		b	.L54
 698              	.L58:
 658:/home/phong/Documents/thesis/stm32f4/stm-idf/components/stm32f4xx_hal_driver/stm32f4xx_ll_fsmc.c ****     Device->SR2   = 0x00000040U;
 699              		.loc 1 658 0
 700 002e 1823     		movs	r3, #24
 701 0030 0360     		str	r3, [r0]
 659:/home/phong/Documents/thesis/stm32f4/stm-idf/components/stm32f4xx_hal_driver/stm32f4xx_ll_fsmc.c ****     Device->PMEM2 = 0xFCFCFCFCU;
 702              		.loc 1 659 0
 703 0032 4023     		movs	r3, #64
 704 0034 4360     		str	r3, [r0, #4]
 660:/home/phong/Documents/thesis/stm32f4/stm-idf/components/stm32f4xx_hal_driver/stm32f4xx_ll_fsmc.c ****     Device->PATT2 = 0xFCFCFCFCU;  
 705              		.loc 1 660 0
 706 0036 4FF0FC33 		mov	r3, #-50529028
 707 003a 8360     		str	r3, [r0, #8]
 661:/home/phong/Documents/thesis/stm32f4/stm-idf/components/stm32f4xx_hal_driver/stm32f4xx_ll_fsmc.c ****   }
 708              		.loc 1 661 0
 709 003c C360     		str	r3, [r0, #12]
 710 003e EFE7     		b	.L56
 711              		.cfi_endproc
 712              	.LFE139:
 714              		.section	.text.FSMC_NAND_ECC_Enable,"ax",%progbits
ARM GAS  /tmp/cccrE0jc.s 			page 26


 715              		.align	1
 716              		.global	FSMC_NAND_ECC_Enable
 717              		.syntax unified
 718              		.thumb
 719              		.thumb_func
 720              		.fpu fpv4-sp-d16
 722              	FSMC_NAND_ECC_Enable:
 723              	.LFB140:
 675:/home/phong/Documents/thesis/stm32f4/stm-idf/components/stm32f4xx_hal_driver/stm32f4xx_ll_fsmc.c **** /**
 676:/home/phong/Documents/thesis/stm32f4/stm-idf/components/stm32f4xx_hal_driver/stm32f4xx_ll_fsmc.c ****   * @}
 677:/home/phong/Documents/thesis/stm32f4/stm-idf/components/stm32f4xx_hal_driver/stm32f4xx_ll_fsmc.c ****   */
 678:/home/phong/Documents/thesis/stm32f4/stm-idf/components/stm32f4xx_hal_driver/stm32f4xx_ll_fsmc.c ****   
 679:/home/phong/Documents/thesis/stm32f4/stm-idf/components/stm32f4xx_hal_driver/stm32f4xx_ll_fsmc.c **** /** @addtogroup FSMC_LL_NAND_Private_Functions_Group2
 680:/home/phong/Documents/thesis/stm32f4/stm-idf/components/stm32f4xx_hal_driver/stm32f4xx_ll_fsmc.c ****   *  @brief   management functions 
 681:/home/phong/Documents/thesis/stm32f4/stm-idf/components/stm32f4xx_hal_driver/stm32f4xx_ll_fsmc.c ****   *
 682:/home/phong/Documents/thesis/stm32f4/stm-idf/components/stm32f4xx_hal_driver/stm32f4xx_ll_fsmc.c **** @verbatim   
 683:/home/phong/Documents/thesis/stm32f4/stm-idf/components/stm32f4xx_hal_driver/stm32f4xx_ll_fsmc.c ****   ==============================================================================
 684:/home/phong/Documents/thesis/stm32f4/stm-idf/components/stm32f4xx_hal_driver/stm32f4xx_ll_fsmc.c ****                        ##### FSMC_NAND Control functions #####
 685:/home/phong/Documents/thesis/stm32f4/stm-idf/components/stm32f4xx_hal_driver/stm32f4xx_ll_fsmc.c ****   ==============================================================================
 686:/home/phong/Documents/thesis/stm32f4/stm-idf/components/stm32f4xx_hal_driver/stm32f4xx_ll_fsmc.c ****   [..]
 687:/home/phong/Documents/thesis/stm32f4/stm-idf/components/stm32f4xx_hal_driver/stm32f4xx_ll_fsmc.c ****     This subsection provides a set of functions allowing to control dynamically
 688:/home/phong/Documents/thesis/stm32f4/stm-idf/components/stm32f4xx_hal_driver/stm32f4xx_ll_fsmc.c ****     the FSMC NAND interface.
 689:/home/phong/Documents/thesis/stm32f4/stm-idf/components/stm32f4xx_hal_driver/stm32f4xx_ll_fsmc.c **** 
 690:/home/phong/Documents/thesis/stm32f4/stm-idf/components/stm32f4xx_hal_driver/stm32f4xx_ll_fsmc.c **** @endverbatim
 691:/home/phong/Documents/thesis/stm32f4/stm-idf/components/stm32f4xx_hal_driver/stm32f4xx_ll_fsmc.c ****   * @{
 692:/home/phong/Documents/thesis/stm32f4/stm-idf/components/stm32f4xx_hal_driver/stm32f4xx_ll_fsmc.c ****   */ 
 693:/home/phong/Documents/thesis/stm32f4/stm-idf/components/stm32f4xx_hal_driver/stm32f4xx_ll_fsmc.c ****     
 694:/home/phong/Documents/thesis/stm32f4/stm-idf/components/stm32f4xx_hal_driver/stm32f4xx_ll_fsmc.c **** /**
 695:/home/phong/Documents/thesis/stm32f4/stm-idf/components/stm32f4xx_hal_driver/stm32f4xx_ll_fsmc.c ****   * @brief  Enables dynamically FSMC_NAND ECC feature.
 696:/home/phong/Documents/thesis/stm32f4/stm-idf/components/stm32f4xx_hal_driver/stm32f4xx_ll_fsmc.c ****   * @param  Device Pointer to NAND device instance
 697:/home/phong/Documents/thesis/stm32f4/stm-idf/components/stm32f4xx_hal_driver/stm32f4xx_ll_fsmc.c ****   * @param  Bank NAND bank number
 698:/home/phong/Documents/thesis/stm32f4/stm-idf/components/stm32f4xx_hal_driver/stm32f4xx_ll_fsmc.c ****   * @retval HAL status
 699:/home/phong/Documents/thesis/stm32f4/stm-idf/components/stm32f4xx_hal_driver/stm32f4xx_ll_fsmc.c ****   */    
 700:/home/phong/Documents/thesis/stm32f4/stm-idf/components/stm32f4xx_hal_driver/stm32f4xx_ll_fsmc.c **** HAL_StatusTypeDef  FSMC_NAND_ECC_Enable(FSMC_NAND_TypeDef *Device, uint32_t Bank)
 701:/home/phong/Documents/thesis/stm32f4/stm-idf/components/stm32f4xx_hal_driver/stm32f4xx_ll_fsmc.c **** {
 724              		.loc 1 701 0
 725              		.cfi_startproc
 726              		@ args = 0, pretend = 0, frame = 0
 727              		@ frame_needed = 0, uses_anonymous_args = 0
 728              		@ link register save eliminated.
 729              	.LVL64:
 702:/home/phong/Documents/thesis/stm32f4/stm-idf/components/stm32f4xx_hal_driver/stm32f4xx_ll_fsmc.c ****   /* Enable ECC feature */
 703:/home/phong/Documents/thesis/stm32f4/stm-idf/components/stm32f4xx_hal_driver/stm32f4xx_ll_fsmc.c ****   if(Bank == FSMC_NAND_BANK2)
 730              		.loc 1 703 0
 731 0000 1029     		cmp	r1, #16
 732 0002 05D0     		beq	.L62
 704:/home/phong/Documents/thesis/stm32f4/stm-idf/components/stm32f4xx_hal_driver/stm32f4xx_ll_fsmc.c ****   {
 705:/home/phong/Documents/thesis/stm32f4/stm-idf/components/stm32f4xx_hal_driver/stm32f4xx_ll_fsmc.c ****     Device->PCR2 |= FSMC_PCR2_ECCEN;
 706:/home/phong/Documents/thesis/stm32f4/stm-idf/components/stm32f4xx_hal_driver/stm32f4xx_ll_fsmc.c ****   }
 707:/home/phong/Documents/thesis/stm32f4/stm-idf/components/stm32f4xx_hal_driver/stm32f4xx_ll_fsmc.c ****   else
 708:/home/phong/Documents/thesis/stm32f4/stm-idf/components/stm32f4xx_hal_driver/stm32f4xx_ll_fsmc.c ****   {
 709:/home/phong/Documents/thesis/stm32f4/stm-idf/components/stm32f4xx_hal_driver/stm32f4xx_ll_fsmc.c ****     Device->PCR3 |= FSMC_PCR3_ECCEN;
 733              		.loc 1 709 0
 734 0004 036A     		ldr	r3, [r0, #32]
 735 0006 43F04003 		orr	r3, r3, #64
 736 000a 0362     		str	r3, [r0, #32]
 737              	.L61:
ARM GAS  /tmp/cccrE0jc.s 			page 27


 710:/home/phong/Documents/thesis/stm32f4/stm-idf/components/stm32f4xx_hal_driver/stm32f4xx_ll_fsmc.c ****   } 
 711:/home/phong/Documents/thesis/stm32f4/stm-idf/components/stm32f4xx_hal_driver/stm32f4xx_ll_fsmc.c ****   
 712:/home/phong/Documents/thesis/stm32f4/stm-idf/components/stm32f4xx_hal_driver/stm32f4xx_ll_fsmc.c ****   return HAL_OK;  
 713:/home/phong/Documents/thesis/stm32f4/stm-idf/components/stm32f4xx_hal_driver/stm32f4xx_ll_fsmc.c **** }
 738              		.loc 1 713 0
 739 000c 0020     		movs	r0, #0
 740              	.LVL65:
 741 000e 7047     		bx	lr
 742              	.LVL66:
 743              	.L62:
 705:/home/phong/Documents/thesis/stm32f4/stm-idf/components/stm32f4xx_hal_driver/stm32f4xx_ll_fsmc.c ****   }
 744              		.loc 1 705 0
 745 0010 0368     		ldr	r3, [r0]
 746 0012 43F04003 		orr	r3, r3, #64
 747 0016 0360     		str	r3, [r0]
 748 0018 F8E7     		b	.L61
 749              		.cfi_endproc
 750              	.LFE140:
 752              		.section	.text.FSMC_NAND_ECC_Disable,"ax",%progbits
 753              		.align	1
 754              		.global	FSMC_NAND_ECC_Disable
 755              		.syntax unified
 756              		.thumb
 757              		.thumb_func
 758              		.fpu fpv4-sp-d16
 760              	FSMC_NAND_ECC_Disable:
 761              	.LFB141:
 714:/home/phong/Documents/thesis/stm32f4/stm-idf/components/stm32f4xx_hal_driver/stm32f4xx_ll_fsmc.c **** 
 715:/home/phong/Documents/thesis/stm32f4/stm-idf/components/stm32f4xx_hal_driver/stm32f4xx_ll_fsmc.c **** /**
 716:/home/phong/Documents/thesis/stm32f4/stm-idf/components/stm32f4xx_hal_driver/stm32f4xx_ll_fsmc.c ****   * @brief  Disables dynamically FSMC_NAND ECC feature.
 717:/home/phong/Documents/thesis/stm32f4/stm-idf/components/stm32f4xx_hal_driver/stm32f4xx_ll_fsmc.c ****   * @param  Device Pointer to NAND device instance
 718:/home/phong/Documents/thesis/stm32f4/stm-idf/components/stm32f4xx_hal_driver/stm32f4xx_ll_fsmc.c ****   * @param  Bank NAND bank number
 719:/home/phong/Documents/thesis/stm32f4/stm-idf/components/stm32f4xx_hal_driver/stm32f4xx_ll_fsmc.c ****   * @retval HAL status
 720:/home/phong/Documents/thesis/stm32f4/stm-idf/components/stm32f4xx_hal_driver/stm32f4xx_ll_fsmc.c ****   */  
 721:/home/phong/Documents/thesis/stm32f4/stm-idf/components/stm32f4xx_hal_driver/stm32f4xx_ll_fsmc.c **** HAL_StatusTypeDef FSMC_NAND_ECC_Disable(FSMC_NAND_TypeDef *Device, uint32_t Bank)  
 722:/home/phong/Documents/thesis/stm32f4/stm-idf/components/stm32f4xx_hal_driver/stm32f4xx_ll_fsmc.c **** {  
 762              		.loc 1 722 0
 763              		.cfi_startproc
 764              		@ args = 0, pretend = 0, frame = 0
 765              		@ frame_needed = 0, uses_anonymous_args = 0
 766              		@ link register save eliminated.
 767              	.LVL67:
 723:/home/phong/Documents/thesis/stm32f4/stm-idf/components/stm32f4xx_hal_driver/stm32f4xx_ll_fsmc.c ****   /* Disable ECC feature */
 724:/home/phong/Documents/thesis/stm32f4/stm-idf/components/stm32f4xx_hal_driver/stm32f4xx_ll_fsmc.c ****   if(Bank == FSMC_NAND_BANK2)
 768              		.loc 1 724 0
 769 0000 1029     		cmp	r1, #16
 770 0002 05D0     		beq	.L66
 725:/home/phong/Documents/thesis/stm32f4/stm-idf/components/stm32f4xx_hal_driver/stm32f4xx_ll_fsmc.c ****   {
 726:/home/phong/Documents/thesis/stm32f4/stm-idf/components/stm32f4xx_hal_driver/stm32f4xx_ll_fsmc.c ****     Device->PCR2 &= ~FSMC_PCR2_ECCEN;
 727:/home/phong/Documents/thesis/stm32f4/stm-idf/components/stm32f4xx_hal_driver/stm32f4xx_ll_fsmc.c ****   }
 728:/home/phong/Documents/thesis/stm32f4/stm-idf/components/stm32f4xx_hal_driver/stm32f4xx_ll_fsmc.c ****   else
 729:/home/phong/Documents/thesis/stm32f4/stm-idf/components/stm32f4xx_hal_driver/stm32f4xx_ll_fsmc.c ****   {
 730:/home/phong/Documents/thesis/stm32f4/stm-idf/components/stm32f4xx_hal_driver/stm32f4xx_ll_fsmc.c ****     Device->PCR3 &= ~FSMC_PCR3_ECCEN;
 771              		.loc 1 730 0
 772 0004 036A     		ldr	r3, [r0, #32]
 773 0006 23F04003 		bic	r3, r3, #64
 774 000a 0362     		str	r3, [r0, #32]
ARM GAS  /tmp/cccrE0jc.s 			page 28


 775              	.L65:
 731:/home/phong/Documents/thesis/stm32f4/stm-idf/components/stm32f4xx_hal_driver/stm32f4xx_ll_fsmc.c ****   } 
 732:/home/phong/Documents/thesis/stm32f4/stm-idf/components/stm32f4xx_hal_driver/stm32f4xx_ll_fsmc.c **** 
 733:/home/phong/Documents/thesis/stm32f4/stm-idf/components/stm32f4xx_hal_driver/stm32f4xx_ll_fsmc.c ****   return HAL_OK;  
 734:/home/phong/Documents/thesis/stm32f4/stm-idf/components/stm32f4xx_hal_driver/stm32f4xx_ll_fsmc.c **** }
 776              		.loc 1 734 0
 777 000c 0020     		movs	r0, #0
 778              	.LVL68:
 779 000e 7047     		bx	lr
 780              	.LVL69:
 781              	.L66:
 726:/home/phong/Documents/thesis/stm32f4/stm-idf/components/stm32f4xx_hal_driver/stm32f4xx_ll_fsmc.c ****   }
 782              		.loc 1 726 0
 783 0010 0368     		ldr	r3, [r0]
 784 0012 23F04003 		bic	r3, r3, #64
 785 0016 0360     		str	r3, [r0]
 786 0018 F8E7     		b	.L65
 787              		.cfi_endproc
 788              	.LFE141:
 790              		.section	.text.FSMC_NAND_GetECC,"ax",%progbits
 791              		.align	1
 792              		.global	FSMC_NAND_GetECC
 793              		.syntax unified
 794              		.thumb
 795              		.thumb_func
 796              		.fpu fpv4-sp-d16
 798              	FSMC_NAND_GetECC:
 799              	.LFB142:
 735:/home/phong/Documents/thesis/stm32f4/stm-idf/components/stm32f4xx_hal_driver/stm32f4xx_ll_fsmc.c **** 
 736:/home/phong/Documents/thesis/stm32f4/stm-idf/components/stm32f4xx_hal_driver/stm32f4xx_ll_fsmc.c **** /**
 737:/home/phong/Documents/thesis/stm32f4/stm-idf/components/stm32f4xx_hal_driver/stm32f4xx_ll_fsmc.c ****   * @brief  Disables dynamically FSMC_NAND ECC feature.
 738:/home/phong/Documents/thesis/stm32f4/stm-idf/components/stm32f4xx_hal_driver/stm32f4xx_ll_fsmc.c ****   * @param  Device Pointer to NAND device instance
 739:/home/phong/Documents/thesis/stm32f4/stm-idf/components/stm32f4xx_hal_driver/stm32f4xx_ll_fsmc.c ****   * @param  ECCval Pointer to ECC value
 740:/home/phong/Documents/thesis/stm32f4/stm-idf/components/stm32f4xx_hal_driver/stm32f4xx_ll_fsmc.c ****   * @param  Bank NAND bank number
 741:/home/phong/Documents/thesis/stm32f4/stm-idf/components/stm32f4xx_hal_driver/stm32f4xx_ll_fsmc.c ****   * @param  Timeout Timeout wait value  
 742:/home/phong/Documents/thesis/stm32f4/stm-idf/components/stm32f4xx_hal_driver/stm32f4xx_ll_fsmc.c ****   * @retval HAL status
 743:/home/phong/Documents/thesis/stm32f4/stm-idf/components/stm32f4xx_hal_driver/stm32f4xx_ll_fsmc.c ****   */
 744:/home/phong/Documents/thesis/stm32f4/stm-idf/components/stm32f4xx_hal_driver/stm32f4xx_ll_fsmc.c **** HAL_StatusTypeDef FSMC_NAND_GetECC(FSMC_NAND_TypeDef *Device, uint32_t *ECCval, uint32_t Bank, uint
 745:/home/phong/Documents/thesis/stm32f4/stm-idf/components/stm32f4xx_hal_driver/stm32f4xx_ll_fsmc.c **** {
 800              		.loc 1 745 0
 801              		.cfi_startproc
 802              		@ args = 0, pretend = 0, frame = 0
 803              		@ frame_needed = 0, uses_anonymous_args = 0
 804              	.LVL70:
 805 0000 2DE9F041 		push	{r4, r5, r6, r7, r8, lr}
 806              	.LCFI19:
 807              		.cfi_def_cfa_offset 24
 808              		.cfi_offset 4, -24
 809              		.cfi_offset 5, -20
 810              		.cfi_offset 6, -16
 811              		.cfi_offset 7, -12
 812              		.cfi_offset 8, -8
 813              		.cfi_offset 14, -4
 814 0004 0446     		mov	r4, r0
 815 0006 0F46     		mov	r7, r1
 816 0008 1546     		mov	r5, r2
 817 000a 1E46     		mov	r6, r3
ARM GAS  /tmp/cccrE0jc.s 			page 29


 818              	.LVL71:
 746:/home/phong/Documents/thesis/stm32f4/stm-idf/components/stm32f4xx_hal_driver/stm32f4xx_ll_fsmc.c ****   uint32_t tickstart = 0U;
 747:/home/phong/Documents/thesis/stm32f4/stm-idf/components/stm32f4xx_hal_driver/stm32f4xx_ll_fsmc.c ****   
 748:/home/phong/Documents/thesis/stm32f4/stm-idf/components/stm32f4xx_hal_driver/stm32f4xx_ll_fsmc.c ****   /* Check the parameters */ 
 749:/home/phong/Documents/thesis/stm32f4/stm-idf/components/stm32f4xx_hal_driver/stm32f4xx_ll_fsmc.c ****   assert_param(IS_FSMC_NAND_DEVICE(Device)); 
 750:/home/phong/Documents/thesis/stm32f4/stm-idf/components/stm32f4xx_hal_driver/stm32f4xx_ll_fsmc.c ****   assert_param(IS_FSMC_NAND_BANK(Bank));
 751:/home/phong/Documents/thesis/stm32f4/stm-idf/components/stm32f4xx_hal_driver/stm32f4xx_ll_fsmc.c **** 
 752:/home/phong/Documents/thesis/stm32f4/stm-idf/components/stm32f4xx_hal_driver/stm32f4xx_ll_fsmc.c ****   /* Get tick */ 
 753:/home/phong/Documents/thesis/stm32f4/stm-idf/components/stm32f4xx_hal_driver/stm32f4xx_ll_fsmc.c ****   tickstart = HAL_GetTick();
 819              		.loc 1 753 0
 820 000c FFF7FEFF 		bl	HAL_GetTick
 821              	.LVL72:
 822 0010 8046     		mov	r8, r0
 823              	.LVL73:
 754:/home/phong/Documents/thesis/stm32f4/stm-idf/components/stm32f4xx_hal_driver/stm32f4xx_ll_fsmc.c **** 
 755:/home/phong/Documents/thesis/stm32f4/stm-idf/components/stm32f4xx_hal_driver/stm32f4xx_ll_fsmc.c ****   /* Wait until FIFO is empty */
 756:/home/phong/Documents/thesis/stm32f4/stm-idf/components/stm32f4xx_hal_driver/stm32f4xx_ll_fsmc.c ****   while(__FSMC_NAND_GET_FLAG(Device, Bank, FSMC_FLAG_FEMPT) == RESET)
 824              		.loc 1 756 0
 825 0012 13E0     		b	.L69
 826              	.LVL74:
 827              	.L79:
 757:/home/phong/Documents/thesis/stm32f4/stm-idf/components/stm32f4xx_hal_driver/stm32f4xx_ll_fsmc.c ****   {
 758:/home/phong/Documents/thesis/stm32f4/stm-idf/components/stm32f4xx_hal_driver/stm32f4xx_ll_fsmc.c ****     /* Check for the Timeout */
 759:/home/phong/Documents/thesis/stm32f4/stm-idf/components/stm32f4xx_hal_driver/stm32f4xx_ll_fsmc.c ****     if(Timeout != HAL_MAX_DELAY)
 760:/home/phong/Documents/thesis/stm32f4/stm-idf/components/stm32f4xx_hal_driver/stm32f4xx_ll_fsmc.c ****     {
 761:/home/phong/Documents/thesis/stm32f4/stm-idf/components/stm32f4xx_hal_driver/stm32f4xx_ll_fsmc.c ****       if((Timeout == 0U)||((HAL_GetTick() - tickstart ) > Timeout))
 828              		.loc 1 761 0
 829 0014 3EB3     		cbz	r6, .L75
 830              		.loc 1 761 0 is_stmt 0 discriminator 1
 831 0016 FFF7FEFF 		bl	HAL_GetTick
 832              	.LVL75:
 833 001a A0EB0800 		sub	r0, r0, r8
 834 001e 8642     		cmp	r6, r0
 835 0020 0CD2     		bcs	.L69
 762:/home/phong/Documents/thesis/stm32f4/stm-idf/components/stm32f4xx_hal_driver/stm32f4xx_ll_fsmc.c ****       {
 763:/home/phong/Documents/thesis/stm32f4/stm-idf/components/stm32f4xx_hal_driver/stm32f4xx_ll_fsmc.c ****         return HAL_TIMEOUT;
 836              		.loc 1 763 0 is_stmt 1
 837 0022 0320     		movs	r0, #3
 764:/home/phong/Documents/thesis/stm32f4/stm-idf/components/stm32f4xx_hal_driver/stm32f4xx_ll_fsmc.c ****       }
 765:/home/phong/Documents/thesis/stm32f4/stm-idf/components/stm32f4xx_hal_driver/stm32f4xx_ll_fsmc.c ****     }   
 766:/home/phong/Documents/thesis/stm32f4/stm-idf/components/stm32f4xx_hal_driver/stm32f4xx_ll_fsmc.c ****   }
 767:/home/phong/Documents/thesis/stm32f4/stm-idf/components/stm32f4xx_hal_driver/stm32f4xx_ll_fsmc.c ****      
 768:/home/phong/Documents/thesis/stm32f4/stm-idf/components/stm32f4xx_hal_driver/stm32f4xx_ll_fsmc.c ****   if(Bank == FSMC_NAND_BANK2)
 769:/home/phong/Documents/thesis/stm32f4/stm-idf/components/stm32f4xx_hal_driver/stm32f4xx_ll_fsmc.c ****   {    
 770:/home/phong/Documents/thesis/stm32f4/stm-idf/components/stm32f4xx_hal_driver/stm32f4xx_ll_fsmc.c ****     /* Get the ECCR2 register value */
 771:/home/phong/Documents/thesis/stm32f4/stm-idf/components/stm32f4xx_hal_driver/stm32f4xx_ll_fsmc.c ****     *ECCval = (uint32_t)Device->ECCR2;
 772:/home/phong/Documents/thesis/stm32f4/stm-idf/components/stm32f4xx_hal_driver/stm32f4xx_ll_fsmc.c ****   }
 773:/home/phong/Documents/thesis/stm32f4/stm-idf/components/stm32f4xx_hal_driver/stm32f4xx_ll_fsmc.c ****   else
 774:/home/phong/Documents/thesis/stm32f4/stm-idf/components/stm32f4xx_hal_driver/stm32f4xx_ll_fsmc.c ****   {    
 775:/home/phong/Documents/thesis/stm32f4/stm-idf/components/stm32f4xx_hal_driver/stm32f4xx_ll_fsmc.c ****     /* Get the ECCR3 register value */
 776:/home/phong/Documents/thesis/stm32f4/stm-idf/components/stm32f4xx_hal_driver/stm32f4xx_ll_fsmc.c ****     *ECCval = (uint32_t)Device->ECCR3;
 777:/home/phong/Documents/thesis/stm32f4/stm-idf/components/stm32f4xx_hal_driver/stm32f4xx_ll_fsmc.c ****   }
 778:/home/phong/Documents/thesis/stm32f4/stm-idf/components/stm32f4xx_hal_driver/stm32f4xx_ll_fsmc.c **** 
 779:/home/phong/Documents/thesis/stm32f4/stm-idf/components/stm32f4xx_hal_driver/stm32f4xx_ll_fsmc.c ****   return HAL_OK;  
 780:/home/phong/Documents/thesis/stm32f4/stm-idf/components/stm32f4xx_hal_driver/stm32f4xx_ll_fsmc.c **** }
 838              		.loc 1 780 0
 839 0024 BDE8F081 		pop	{r4, r5, r6, r7, r8, pc}
ARM GAS  /tmp/cccrE0jc.s 			page 30


 840              	.LVL76:
 841              	.L80:
 756:/home/phong/Documents/thesis/stm32f4/stm-idf/components/stm32f4xx_hal_driver/stm32f4xx_ll_fsmc.c ****   {
 842              		.loc 1 756 0 discriminator 1
 843 0028 6368     		ldr	r3, [r4, #4]
 844 002a 13F0400F 		tst	r3, #64
 845 002e 0CBF     		ite	eq
 846 0030 0123     		moveq	r3, #1
 847 0032 0023     		movne	r3, #0
 848              	.L72:
 756:/home/phong/Documents/thesis/stm32f4/stm-idf/components/stm32f4xx_hal_driver/stm32f4xx_ll_fsmc.c ****   {
 849              		.loc 1 756 0 is_stmt 0 discriminator 4
 850 0034 5BB1     		cbz	r3, .L78
 759:/home/phong/Documents/thesis/stm32f4/stm-idf/components/stm32f4xx_hal_driver/stm32f4xx_ll_fsmc.c ****     {
 851              		.loc 1 759 0 is_stmt 1
 852 0036 B6F1FF3F 		cmp	r6, #-1
 853 003a EBD1     		bne	.L79
 854              	.L69:
 756:/home/phong/Documents/thesis/stm32f4/stm-idf/components/stm32f4xx_hal_driver/stm32f4xx_ll_fsmc.c ****   {
 855              		.loc 1 756 0
 856 003c 102D     		cmp	r5, #16
 857 003e F3D0     		beq	.L80
 756:/home/phong/Documents/thesis/stm32f4/stm-idf/components/stm32f4xx_hal_driver/stm32f4xx_ll_fsmc.c ****   {
 858              		.loc 1 756 0 is_stmt 0 discriminator 2
 859 0040 636A     		ldr	r3, [r4, #36]
 860 0042 13F0400F 		tst	r3, #64
 861 0046 0CBF     		ite	eq
 862 0048 0123     		moveq	r3, #1
 863 004a 0023     		movne	r3, #0
 864 004c F2E7     		b	.L72
 865              	.L78:
 768:/home/phong/Documents/thesis/stm32f4/stm-idf/components/stm32f4xx_hal_driver/stm32f4xx_ll_fsmc.c ****   {    
 866              		.loc 1 768 0 is_stmt 1
 867 004e 102D     		cmp	r5, #16
 868 0050 04D0     		beq	.L81
 776:/home/phong/Documents/thesis/stm32f4/stm-idf/components/stm32f4xx_hal_driver/stm32f4xx_ll_fsmc.c ****   }
 869              		.loc 1 776 0
 870 0052 636B     		ldr	r3, [r4, #52]
 871 0054 3B60     		str	r3, [r7]
 779:/home/phong/Documents/thesis/stm32f4/stm-idf/components/stm32f4xx_hal_driver/stm32f4xx_ll_fsmc.c **** }
 872              		.loc 1 779 0
 873 0056 0020     		movs	r0, #0
 874 0058 BDE8F081 		pop	{r4, r5, r6, r7, r8, pc}
 875              	.LVL77:
 876              	.L81:
 771:/home/phong/Documents/thesis/stm32f4/stm-idf/components/stm32f4xx_hal_driver/stm32f4xx_ll_fsmc.c ****   }
 877              		.loc 1 771 0
 878 005c 6369     		ldr	r3, [r4, #20]
 879 005e 3B60     		str	r3, [r7]
 779:/home/phong/Documents/thesis/stm32f4/stm-idf/components/stm32f4xx_hal_driver/stm32f4xx_ll_fsmc.c **** }
 880              		.loc 1 779 0
 881 0060 0020     		movs	r0, #0
 882 0062 BDE8F081 		pop	{r4, r5, r6, r7, r8, pc}
 883              	.LVL78:
 884              	.L75:
 763:/home/phong/Documents/thesis/stm32f4/stm-idf/components/stm32f4xx_hal_driver/stm32f4xx_ll_fsmc.c ****       }
 885              		.loc 1 763 0
ARM GAS  /tmp/cccrE0jc.s 			page 31


 886 0066 0320     		movs	r0, #3
 887 0068 BDE8F081 		pop	{r4, r5, r6, r7, r8, pc}
 888              		.cfi_endproc
 889              	.LFE142:
 891              		.section	.text.FSMC_PCCARD_Init,"ax",%progbits
 892              		.align	1
 893              		.global	FSMC_PCCARD_Init
 894              		.syntax unified
 895              		.thumb
 896              		.thumb_func
 897              		.fpu fpv4-sp-d16
 899              	FSMC_PCCARD_Init:
 900              	.LFB143:
 781:/home/phong/Documents/thesis/stm32f4/stm-idf/components/stm32f4xx_hal_driver/stm32f4xx_ll_fsmc.c **** 
 782:/home/phong/Documents/thesis/stm32f4/stm-idf/components/stm32f4xx_hal_driver/stm32f4xx_ll_fsmc.c **** /**
 783:/home/phong/Documents/thesis/stm32f4/stm-idf/components/stm32f4xx_hal_driver/stm32f4xx_ll_fsmc.c ****   * @}
 784:/home/phong/Documents/thesis/stm32f4/stm-idf/components/stm32f4xx_hal_driver/stm32f4xx_ll_fsmc.c ****   */
 785:/home/phong/Documents/thesis/stm32f4/stm-idf/components/stm32f4xx_hal_driver/stm32f4xx_ll_fsmc.c ****   
 786:/home/phong/Documents/thesis/stm32f4/stm-idf/components/stm32f4xx_hal_driver/stm32f4xx_ll_fsmc.c **** /**
 787:/home/phong/Documents/thesis/stm32f4/stm-idf/components/stm32f4xx_hal_driver/stm32f4xx_ll_fsmc.c ****   * @}
 788:/home/phong/Documents/thesis/stm32f4/stm-idf/components/stm32f4xx_hal_driver/stm32f4xx_ll_fsmc.c ****   */
 789:/home/phong/Documents/thesis/stm32f4/stm-idf/components/stm32f4xx_hal_driver/stm32f4xx_ll_fsmc.c ****     
 790:/home/phong/Documents/thesis/stm32f4/stm-idf/components/stm32f4xx_hal_driver/stm32f4xx_ll_fsmc.c **** /** @addtogroup FSMC_LL_PCCARD
 791:/home/phong/Documents/thesis/stm32f4/stm-idf/components/stm32f4xx_hal_driver/stm32f4xx_ll_fsmc.c ****   * @brief    PCCARD Controller functions 
 792:/home/phong/Documents/thesis/stm32f4/stm-idf/components/stm32f4xx_hal_driver/stm32f4xx_ll_fsmc.c ****   *
 793:/home/phong/Documents/thesis/stm32f4/stm-idf/components/stm32f4xx_hal_driver/stm32f4xx_ll_fsmc.c ****   @verbatim 
 794:/home/phong/Documents/thesis/stm32f4/stm-idf/components/stm32f4xx_hal_driver/stm32f4xx_ll_fsmc.c ****   ==============================================================================
 795:/home/phong/Documents/thesis/stm32f4/stm-idf/components/stm32f4xx_hal_driver/stm32f4xx_ll_fsmc.c ****                     ##### How to use PCCARD device driver #####
 796:/home/phong/Documents/thesis/stm32f4/stm-idf/components/stm32f4xx_hal_driver/stm32f4xx_ll_fsmc.c ****   ==============================================================================
 797:/home/phong/Documents/thesis/stm32f4/stm-idf/components/stm32f4xx_hal_driver/stm32f4xx_ll_fsmc.c ****   [..]
 798:/home/phong/Documents/thesis/stm32f4/stm-idf/components/stm32f4xx_hal_driver/stm32f4xx_ll_fsmc.c ****     This driver contains a set of APIs to interface with the FSMC PCCARD bank in order
 799:/home/phong/Documents/thesis/stm32f4/stm-idf/components/stm32f4xx_hal_driver/stm32f4xx_ll_fsmc.c ****     to run the PCCARD/compact flash external devices.
 800:/home/phong/Documents/thesis/stm32f4/stm-idf/components/stm32f4xx_hal_driver/stm32f4xx_ll_fsmc.c ****   
 801:/home/phong/Documents/thesis/stm32f4/stm-idf/components/stm32f4xx_hal_driver/stm32f4xx_ll_fsmc.c ****     (+) FSMC PCCARD bank reset using the function FSMC_PCCARD_DeInit() 
 802:/home/phong/Documents/thesis/stm32f4/stm-idf/components/stm32f4xx_hal_driver/stm32f4xx_ll_fsmc.c ****     (+) FSMC PCCARD bank control configuration using the function FSMC_PCCARD_Init()
 803:/home/phong/Documents/thesis/stm32f4/stm-idf/components/stm32f4xx_hal_driver/stm32f4xx_ll_fsmc.c ****     (+) FSMC PCCARD bank common space timing configuration using the function 
 804:/home/phong/Documents/thesis/stm32f4/stm-idf/components/stm32f4xx_hal_driver/stm32f4xx_ll_fsmc.c ****         FSMC_PCCARD_CommonSpace_Timing_Init()
 805:/home/phong/Documents/thesis/stm32f4/stm-idf/components/stm32f4xx_hal_driver/stm32f4xx_ll_fsmc.c ****     (+) FSMC PCCARD bank attribute space timing configuration using the function 
 806:/home/phong/Documents/thesis/stm32f4/stm-idf/components/stm32f4xx_hal_driver/stm32f4xx_ll_fsmc.c ****         FSMC_PCCARD_AttributeSpace_Timing_Init()
 807:/home/phong/Documents/thesis/stm32f4/stm-idf/components/stm32f4xx_hal_driver/stm32f4xx_ll_fsmc.c ****     (+) FSMC PCCARD bank IO space timing configuration using the function 
 808:/home/phong/Documents/thesis/stm32f4/stm-idf/components/stm32f4xx_hal_driver/stm32f4xx_ll_fsmc.c ****         FSMC_PCCARD_IOSpace_Timing_Init()
 809:/home/phong/Documents/thesis/stm32f4/stm-idf/components/stm32f4xx_hal_driver/stm32f4xx_ll_fsmc.c ****        
 810:/home/phong/Documents/thesis/stm32f4/stm-idf/components/stm32f4xx_hal_driver/stm32f4xx_ll_fsmc.c **** @endverbatim
 811:/home/phong/Documents/thesis/stm32f4/stm-idf/components/stm32f4xx_hal_driver/stm32f4xx_ll_fsmc.c ****   * @{
 812:/home/phong/Documents/thesis/stm32f4/stm-idf/components/stm32f4xx_hal_driver/stm32f4xx_ll_fsmc.c ****   */
 813:/home/phong/Documents/thesis/stm32f4/stm-idf/components/stm32f4xx_hal_driver/stm32f4xx_ll_fsmc.c ****   
 814:/home/phong/Documents/thesis/stm32f4/stm-idf/components/stm32f4xx_hal_driver/stm32f4xx_ll_fsmc.c **** /** @addtogroup FSMC_LL_PCCARD_Private_Functions_Group1
 815:/home/phong/Documents/thesis/stm32f4/stm-idf/components/stm32f4xx_hal_driver/stm32f4xx_ll_fsmc.c ****   *  @brief   Initialization and Configuration functions 
 816:/home/phong/Documents/thesis/stm32f4/stm-idf/components/stm32f4xx_hal_driver/stm32f4xx_ll_fsmc.c ****   *
 817:/home/phong/Documents/thesis/stm32f4/stm-idf/components/stm32f4xx_hal_driver/stm32f4xx_ll_fsmc.c **** @verbatim    
 818:/home/phong/Documents/thesis/stm32f4/stm-idf/components/stm32f4xx_hal_driver/stm32f4xx_ll_fsmc.c ****   ==============================================================================
 819:/home/phong/Documents/thesis/stm32f4/stm-idf/components/stm32f4xx_hal_driver/stm32f4xx_ll_fsmc.c ****               ##### Initialization and de_initialization functions #####
 820:/home/phong/Documents/thesis/stm32f4/stm-idf/components/stm32f4xx_hal_driver/stm32f4xx_ll_fsmc.c ****   ==============================================================================
 821:/home/phong/Documents/thesis/stm32f4/stm-idf/components/stm32f4xx_hal_driver/stm32f4xx_ll_fsmc.c ****   [..]  
 822:/home/phong/Documents/thesis/stm32f4/stm-idf/components/stm32f4xx_hal_driver/stm32f4xx_ll_fsmc.c ****     This section provides functions allowing to:
 823:/home/phong/Documents/thesis/stm32f4/stm-idf/components/stm32f4xx_hal_driver/stm32f4xx_ll_fsmc.c ****     (+) Initialize and configure the FSMC PCCARD interface
 824:/home/phong/Documents/thesis/stm32f4/stm-idf/components/stm32f4xx_hal_driver/stm32f4xx_ll_fsmc.c ****     (+) De-initialize the FSMC PCCARD interface 
ARM GAS  /tmp/cccrE0jc.s 			page 32


 825:/home/phong/Documents/thesis/stm32f4/stm-idf/components/stm32f4xx_hal_driver/stm32f4xx_ll_fsmc.c ****     (+) Configure the FSMC clock and associated GPIOs
 826:/home/phong/Documents/thesis/stm32f4/stm-idf/components/stm32f4xx_hal_driver/stm32f4xx_ll_fsmc.c ****         
 827:/home/phong/Documents/thesis/stm32f4/stm-idf/components/stm32f4xx_hal_driver/stm32f4xx_ll_fsmc.c **** @endverbatim
 828:/home/phong/Documents/thesis/stm32f4/stm-idf/components/stm32f4xx_hal_driver/stm32f4xx_ll_fsmc.c ****   * @{
 829:/home/phong/Documents/thesis/stm32f4/stm-idf/components/stm32f4xx_hal_driver/stm32f4xx_ll_fsmc.c ****   */
 830:/home/phong/Documents/thesis/stm32f4/stm-idf/components/stm32f4xx_hal_driver/stm32f4xx_ll_fsmc.c ****   
 831:/home/phong/Documents/thesis/stm32f4/stm-idf/components/stm32f4xx_hal_driver/stm32f4xx_ll_fsmc.c **** /**
 832:/home/phong/Documents/thesis/stm32f4/stm-idf/components/stm32f4xx_hal_driver/stm32f4xx_ll_fsmc.c ****   * @brief  Initializes the FSMC_PCCARD device according to the specified
 833:/home/phong/Documents/thesis/stm32f4/stm-idf/components/stm32f4xx_hal_driver/stm32f4xx_ll_fsmc.c ****   *         control parameters in the FSMC_PCCARD_HandleTypeDef
 834:/home/phong/Documents/thesis/stm32f4/stm-idf/components/stm32f4xx_hal_driver/stm32f4xx_ll_fsmc.c ****   * @param  Device Pointer to PCCARD device instance
 835:/home/phong/Documents/thesis/stm32f4/stm-idf/components/stm32f4xx_hal_driver/stm32f4xx_ll_fsmc.c ****   * @param  Init Pointer to PCCARD Initialization structure   
 836:/home/phong/Documents/thesis/stm32f4/stm-idf/components/stm32f4xx_hal_driver/stm32f4xx_ll_fsmc.c ****   * @retval HAL status
 837:/home/phong/Documents/thesis/stm32f4/stm-idf/components/stm32f4xx_hal_driver/stm32f4xx_ll_fsmc.c ****   */
 838:/home/phong/Documents/thesis/stm32f4/stm-idf/components/stm32f4xx_hal_driver/stm32f4xx_ll_fsmc.c **** HAL_StatusTypeDef FSMC_PCCARD_Init(FSMC_PCCARD_TypeDef *Device, FSMC_PCCARD_InitTypeDef *Init)
 839:/home/phong/Documents/thesis/stm32f4/stm-idf/components/stm32f4xx_hal_driver/stm32f4xx_ll_fsmc.c **** {
 901              		.loc 1 839 0
 902              		.cfi_startproc
 903              		@ args = 0, pretend = 0, frame = 0
 904              		@ frame_needed = 0, uses_anonymous_args = 0
 905              		@ link register save eliminated.
 906              	.LVL79:
 907 0000 10B4     		push	{r4}
 908              	.LCFI20:
 909              		.cfi_def_cfa_offset 4
 910              		.cfi_offset 4, -4
 911              	.LVL80:
 840:/home/phong/Documents/thesis/stm32f4/stm-idf/components/stm32f4xx_hal_driver/stm32f4xx_ll_fsmc.c ****   uint32_t tmpr = 0U;
 841:/home/phong/Documents/thesis/stm32f4/stm-idf/components/stm32f4xx_hal_driver/stm32f4xx_ll_fsmc.c ****   
 842:/home/phong/Documents/thesis/stm32f4/stm-idf/components/stm32f4xx_hal_driver/stm32f4xx_ll_fsmc.c ****   /* Check the parameters */ 
 843:/home/phong/Documents/thesis/stm32f4/stm-idf/components/stm32f4xx_hal_driver/stm32f4xx_ll_fsmc.c ****   assert_param(IS_FSMC_WAIT_FEATURE(Init->Waitfeature));
 844:/home/phong/Documents/thesis/stm32f4/stm-idf/components/stm32f4xx_hal_driver/stm32f4xx_ll_fsmc.c ****   assert_param(IS_FSMC_TCLR_TIME(Init->TCLRSetupTime));
 845:/home/phong/Documents/thesis/stm32f4/stm-idf/components/stm32f4xx_hal_driver/stm32f4xx_ll_fsmc.c ****   assert_param(IS_FSMC_TAR_TIME(Init->TARSetupTime));     
 846:/home/phong/Documents/thesis/stm32f4/stm-idf/components/stm32f4xx_hal_driver/stm32f4xx_ll_fsmc.c ****   
 847:/home/phong/Documents/thesis/stm32f4/stm-idf/components/stm32f4xx_hal_driver/stm32f4xx_ll_fsmc.c ****   /* Get PCCARD control register value */
 848:/home/phong/Documents/thesis/stm32f4/stm-idf/components/stm32f4xx_hal_driver/stm32f4xx_ll_fsmc.c ****   tmpr = Device->PCR4;
 912              		.loc 1 848 0
 913 0002 0368     		ldr	r3, [r0]
 914              	.LVL81:
 849:/home/phong/Documents/thesis/stm32f4/stm-idf/components/stm32f4xx_hal_driver/stm32f4xx_ll_fsmc.c ****   
 850:/home/phong/Documents/thesis/stm32f4/stm-idf/components/stm32f4xx_hal_driver/stm32f4xx_ll_fsmc.c ****   /* Clear TAR, TCLR, PWAITEN and PWID bits */
 851:/home/phong/Documents/thesis/stm32f4/stm-idf/components/stm32f4xx_hal_driver/stm32f4xx_ll_fsmc.c ****   tmpr &= ((uint32_t)~(FSMC_PCR4_TAR  | FSMC_PCR4_TCLR | FSMC_PCR4_PWAITEN | \
 915              		.loc 1 851 0
 916 0004 23F4FF33 		bic	r3, r3, #130560
 917              	.LVL82:
 918 0008 23F03A03 		bic	r3, r3, #58
 919              	.LVL83:
 852:/home/phong/Documents/thesis/stm32f4/stm-idf/components/stm32f4xx_hal_driver/stm32f4xx_ll_fsmc.c ****                        FSMC_PCR4_PWID | FSMC_PCR4_PTYP));
 853:/home/phong/Documents/thesis/stm32f4/stm-idf/components/stm32f4xx_hal_driver/stm32f4xx_ll_fsmc.c ****   
 854:/home/phong/Documents/thesis/stm32f4/stm-idf/components/stm32f4xx_hal_driver/stm32f4xx_ll_fsmc.c ****   /* Set FSMC_PCCARD device control parameters */
 855:/home/phong/Documents/thesis/stm32f4/stm-idf/components/stm32f4xx_hal_driver/stm32f4xx_ll_fsmc.c ****   tmpr |= (uint32_t)(Init->Waitfeature               |\
 920              		.loc 1 855 0
 921 000c 0A68     		ldr	r2, [r1]
 856:/home/phong/Documents/thesis/stm32f4/stm-idf/components/stm32f4xx_hal_driver/stm32f4xx_ll_fsmc.c ****                      FSMC_NAND_PCC_MEM_BUS_WIDTH_16  |\
 857:/home/phong/Documents/thesis/stm32f4/stm-idf/components/stm32f4xx_hal_driver/stm32f4xx_ll_fsmc.c ****                      (Init->TCLRSetupTime << 9U)     |\
 922              		.loc 1 857 0
 923 000e 4C68     		ldr	r4, [r1, #4]
 856:/home/phong/Documents/thesis/stm32f4/stm-idf/components/stm32f4xx_hal_driver/stm32f4xx_ll_fsmc.c ****                      FSMC_NAND_PCC_MEM_BUS_WIDTH_16  |\
ARM GAS  /tmp/cccrE0jc.s 			page 33


 924              		.loc 1 856 0
 925 0010 42EA4422 		orr	r2, r2, r4, lsl #9
 858:/home/phong/Documents/thesis/stm32f4/stm-idf/components/stm32f4xx_hal_driver/stm32f4xx_ll_fsmc.c ****                      (Init->TARSetupTime << 13U));
 926              		.loc 1 858 0
 927 0014 8968     		ldr	r1, [r1, #8]
 928              	.LVL84:
 855:/home/phong/Documents/thesis/stm32f4/stm-idf/components/stm32f4xx_hal_driver/stm32f4xx_ll_fsmc.c ****                      FSMC_NAND_PCC_MEM_BUS_WIDTH_16  |\
 929              		.loc 1 855 0
 930 0016 42EA4132 		orr	r2, r2, r1, lsl #13
 931 001a 1343     		orrs	r3, r3, r2
 932              	.LVL85:
 933 001c 43F01003 		orr	r3, r3, #16
 934              	.LVL86:
 859:/home/phong/Documents/thesis/stm32f4/stm-idf/components/stm32f4xx_hal_driver/stm32f4xx_ll_fsmc.c ****   
 860:/home/phong/Documents/thesis/stm32f4/stm-idf/components/stm32f4xx_hal_driver/stm32f4xx_ll_fsmc.c ****   Device->PCR4 = tmpr;
 935              		.loc 1 860 0
 936 0020 0360     		str	r3, [r0]
 861:/home/phong/Documents/thesis/stm32f4/stm-idf/components/stm32f4xx_hal_driver/stm32f4xx_ll_fsmc.c ****   
 862:/home/phong/Documents/thesis/stm32f4/stm-idf/components/stm32f4xx_hal_driver/stm32f4xx_ll_fsmc.c ****   return HAL_OK;
 863:/home/phong/Documents/thesis/stm32f4/stm-idf/components/stm32f4xx_hal_driver/stm32f4xx_ll_fsmc.c **** }
 937              		.loc 1 863 0
 938 0022 0020     		movs	r0, #0
 939              	.LVL87:
 940 0024 5DF8044B 		ldr	r4, [sp], #4
 941              	.LCFI21:
 942              		.cfi_restore 4
 943              		.cfi_def_cfa_offset 0
 944 0028 7047     		bx	lr
 945              		.cfi_endproc
 946              	.LFE143:
 948              		.section	.text.FSMC_PCCARD_CommonSpace_Timing_Init,"ax",%progbits
 949              		.align	1
 950              		.global	FSMC_PCCARD_CommonSpace_Timing_Init
 951              		.syntax unified
 952              		.thumb
 953              		.thumb_func
 954              		.fpu fpv4-sp-d16
 956              	FSMC_PCCARD_CommonSpace_Timing_Init:
 957              	.LFB144:
 864:/home/phong/Documents/thesis/stm32f4/stm-idf/components/stm32f4xx_hal_driver/stm32f4xx_ll_fsmc.c **** 
 865:/home/phong/Documents/thesis/stm32f4/stm-idf/components/stm32f4xx_hal_driver/stm32f4xx_ll_fsmc.c **** /**
 866:/home/phong/Documents/thesis/stm32f4/stm-idf/components/stm32f4xx_hal_driver/stm32f4xx_ll_fsmc.c ****   * @brief  Initializes the FSMC_PCCARD Common space Timing according to the specified
 867:/home/phong/Documents/thesis/stm32f4/stm-idf/components/stm32f4xx_hal_driver/stm32f4xx_ll_fsmc.c ****   *         parameters in the FSMC_NAND_PCC_TimingTypeDef
 868:/home/phong/Documents/thesis/stm32f4/stm-idf/components/stm32f4xx_hal_driver/stm32f4xx_ll_fsmc.c ****   * @param  Device Pointer to PCCARD device instance
 869:/home/phong/Documents/thesis/stm32f4/stm-idf/components/stm32f4xx_hal_driver/stm32f4xx_ll_fsmc.c ****   * @param  Timing Pointer to PCCARD timing structure 
 870:/home/phong/Documents/thesis/stm32f4/stm-idf/components/stm32f4xx_hal_driver/stm32f4xx_ll_fsmc.c ****   * @retval HAL status
 871:/home/phong/Documents/thesis/stm32f4/stm-idf/components/stm32f4xx_hal_driver/stm32f4xx_ll_fsmc.c ****   */
 872:/home/phong/Documents/thesis/stm32f4/stm-idf/components/stm32f4xx_hal_driver/stm32f4xx_ll_fsmc.c **** HAL_StatusTypeDef FSMC_PCCARD_CommonSpace_Timing_Init(FSMC_PCCARD_TypeDef *Device, FSMC_NAND_PCC_Ti
 873:/home/phong/Documents/thesis/stm32f4/stm-idf/components/stm32f4xx_hal_driver/stm32f4xx_ll_fsmc.c **** {
 958              		.loc 1 873 0
 959              		.cfi_startproc
 960              		@ args = 0, pretend = 0, frame = 0
 961              		@ frame_needed = 0, uses_anonymous_args = 0
 962              		@ link register save eliminated.
 963              	.LVL88:
 874:/home/phong/Documents/thesis/stm32f4/stm-idf/components/stm32f4xx_hal_driver/stm32f4xx_ll_fsmc.c ****   uint32_t tmpr = 0U;
 875:/home/phong/Documents/thesis/stm32f4/stm-idf/components/stm32f4xx_hal_driver/stm32f4xx_ll_fsmc.c ****   
ARM GAS  /tmp/cccrE0jc.s 			page 34


 876:/home/phong/Documents/thesis/stm32f4/stm-idf/components/stm32f4xx_hal_driver/stm32f4xx_ll_fsmc.c ****   /* Check the parameters */
 877:/home/phong/Documents/thesis/stm32f4/stm-idf/components/stm32f4xx_hal_driver/stm32f4xx_ll_fsmc.c ****   assert_param(IS_FSMC_SETUP_TIME(Timing->SetupTime));
 878:/home/phong/Documents/thesis/stm32f4/stm-idf/components/stm32f4xx_hal_driver/stm32f4xx_ll_fsmc.c ****   assert_param(IS_FSMC_WAIT_TIME(Timing->WaitSetupTime));
 879:/home/phong/Documents/thesis/stm32f4/stm-idf/components/stm32f4xx_hal_driver/stm32f4xx_ll_fsmc.c ****   assert_param(IS_FSMC_HOLD_TIME(Timing->HoldSetupTime));
 880:/home/phong/Documents/thesis/stm32f4/stm-idf/components/stm32f4xx_hal_driver/stm32f4xx_ll_fsmc.c ****   assert_param(IS_FSMC_HIZ_TIME(Timing->HiZSetupTime));
 881:/home/phong/Documents/thesis/stm32f4/stm-idf/components/stm32f4xx_hal_driver/stm32f4xx_ll_fsmc.c **** 
 882:/home/phong/Documents/thesis/stm32f4/stm-idf/components/stm32f4xx_hal_driver/stm32f4xx_ll_fsmc.c ****   /* Get PCCARD common space timing register value */
 883:/home/phong/Documents/thesis/stm32f4/stm-idf/components/stm32f4xx_hal_driver/stm32f4xx_ll_fsmc.c ****   tmpr = Device->PMEM4;
 964              		.loc 1 883 0
 965 0000 8368     		ldr	r3, [r0, #8]
 966              	.LVL89:
 884:/home/phong/Documents/thesis/stm32f4/stm-idf/components/stm32f4xx_hal_driver/stm32f4xx_ll_fsmc.c ****   
 885:/home/phong/Documents/thesis/stm32f4/stm-idf/components/stm32f4xx_hal_driver/stm32f4xx_ll_fsmc.c ****   /* Clear MEMSETx, MEMWAITx, MEMHOLDx and MEMHIZx bits */
 886:/home/phong/Documents/thesis/stm32f4/stm-idf/components/stm32f4xx_hal_driver/stm32f4xx_ll_fsmc.c ****   tmpr &= ((uint32_t)~(FSMC_PMEM4_MEMSET4  | FSMC_PMEM4_MEMWAIT4 | FSMC_PMEM4_MEMHOLD4 | \
 887:/home/phong/Documents/thesis/stm32f4/stm-idf/components/stm32f4xx_hal_driver/stm32f4xx_ll_fsmc.c ****                        FSMC_PMEM4_MEMHIZ4));
 888:/home/phong/Documents/thesis/stm32f4/stm-idf/components/stm32f4xx_hal_driver/stm32f4xx_ll_fsmc.c ****   /* Set PCCARD timing parameters */
 889:/home/phong/Documents/thesis/stm32f4/stm-idf/components/stm32f4xx_hal_driver/stm32f4xx_ll_fsmc.c ****   tmpr |= (uint32_t)((Timing->SetupTime                 |\
 967              		.loc 1 889 0
 968 0002 0B68     		ldr	r3, [r1]
 890:/home/phong/Documents/thesis/stm32f4/stm-idf/components/stm32f4xx_hal_driver/stm32f4xx_ll_fsmc.c ****                     ((Timing->WaitSetupTime) << 8U)     |\
 969              		.loc 1 890 0
 970 0004 4A68     		ldr	r2, [r1, #4]
 889:/home/phong/Documents/thesis/stm32f4/stm-idf/components/stm32f4xx_hal_driver/stm32f4xx_ll_fsmc.c ****                     ((Timing->WaitSetupTime) << 8U)     |\
 971              		.loc 1 889 0
 972 0006 43EA0223 		orr	r3, r3, r2, lsl #8
 891:/home/phong/Documents/thesis/stm32f4/stm-idf/components/stm32f4xx_hal_driver/stm32f4xx_ll_fsmc.c ****                     (Timing->HoldSetupTime) << 16U)     |\
 973              		.loc 1 891 0
 974 000a 8A68     		ldr	r2, [r1, #8]
 890:/home/phong/Documents/thesis/stm32f4/stm-idf/components/stm32f4xx_hal_driver/stm32f4xx_ll_fsmc.c ****                     ((Timing->WaitSetupTime) << 8U)     |\
 975              		.loc 1 890 0
 976 000c 43EA0243 		orr	r3, r3, r2, lsl #16
 892:/home/phong/Documents/thesis/stm32f4/stm-idf/components/stm32f4xx_hal_driver/stm32f4xx_ll_fsmc.c ****                     ((Timing->HiZSetupTime) << 24U));
 977              		.loc 1 892 0
 978 0010 CA68     		ldr	r2, [r1, #12]
 891:/home/phong/Documents/thesis/stm32f4/stm-idf/components/stm32f4xx_hal_driver/stm32f4xx_ll_fsmc.c ****                     (Timing->HoldSetupTime) << 16U)     |\
 979              		.loc 1 891 0
 980 0012 43EA0263 		orr	r3, r3, r2, lsl #24
 981              	.LVL90:
 893:/home/phong/Documents/thesis/stm32f4/stm-idf/components/stm32f4xx_hal_driver/stm32f4xx_ll_fsmc.c ****   
 894:/home/phong/Documents/thesis/stm32f4/stm-idf/components/stm32f4xx_hal_driver/stm32f4xx_ll_fsmc.c ****   Device->PMEM4 = tmpr;
 982              		.loc 1 894 0
 983 0016 8360     		str	r3, [r0, #8]
 895:/home/phong/Documents/thesis/stm32f4/stm-idf/components/stm32f4xx_hal_driver/stm32f4xx_ll_fsmc.c ****   
 896:/home/phong/Documents/thesis/stm32f4/stm-idf/components/stm32f4xx_hal_driver/stm32f4xx_ll_fsmc.c ****   return HAL_OK;  
 897:/home/phong/Documents/thesis/stm32f4/stm-idf/components/stm32f4xx_hal_driver/stm32f4xx_ll_fsmc.c **** }
 984              		.loc 1 897 0
 985 0018 0020     		movs	r0, #0
 986              	.LVL91:
 987 001a 7047     		bx	lr
 988              		.cfi_endproc
 989              	.LFE144:
 991              		.section	.text.FSMC_PCCARD_AttributeSpace_Timing_Init,"ax",%progbits
 992              		.align	1
 993              		.global	FSMC_PCCARD_AttributeSpace_Timing_Init
 994              		.syntax unified
 995              		.thumb
 996              		.thumb_func
ARM GAS  /tmp/cccrE0jc.s 			page 35


 997              		.fpu fpv4-sp-d16
 999              	FSMC_PCCARD_AttributeSpace_Timing_Init:
 1000              	.LFB145:
 898:/home/phong/Documents/thesis/stm32f4/stm-idf/components/stm32f4xx_hal_driver/stm32f4xx_ll_fsmc.c **** 
 899:/home/phong/Documents/thesis/stm32f4/stm-idf/components/stm32f4xx_hal_driver/stm32f4xx_ll_fsmc.c **** /**
 900:/home/phong/Documents/thesis/stm32f4/stm-idf/components/stm32f4xx_hal_driver/stm32f4xx_ll_fsmc.c ****   * @brief  Initializes the FSMC_PCCARD Attribute space Timing according to the specified
 901:/home/phong/Documents/thesis/stm32f4/stm-idf/components/stm32f4xx_hal_driver/stm32f4xx_ll_fsmc.c ****   *         parameters in the FSMC_NAND_PCC_TimingTypeDef
 902:/home/phong/Documents/thesis/stm32f4/stm-idf/components/stm32f4xx_hal_driver/stm32f4xx_ll_fsmc.c ****   * @param  Device Pointer to PCCARD device instance
 903:/home/phong/Documents/thesis/stm32f4/stm-idf/components/stm32f4xx_hal_driver/stm32f4xx_ll_fsmc.c ****   * @param  Timing Pointer to PCCARD timing structure  
 904:/home/phong/Documents/thesis/stm32f4/stm-idf/components/stm32f4xx_hal_driver/stm32f4xx_ll_fsmc.c ****   * @retval HAL status
 905:/home/phong/Documents/thesis/stm32f4/stm-idf/components/stm32f4xx_hal_driver/stm32f4xx_ll_fsmc.c ****   */
 906:/home/phong/Documents/thesis/stm32f4/stm-idf/components/stm32f4xx_hal_driver/stm32f4xx_ll_fsmc.c **** HAL_StatusTypeDef FSMC_PCCARD_AttributeSpace_Timing_Init(FSMC_PCCARD_TypeDef *Device, FSMC_NAND_PCC
 907:/home/phong/Documents/thesis/stm32f4/stm-idf/components/stm32f4xx_hal_driver/stm32f4xx_ll_fsmc.c **** {
 1001              		.loc 1 907 0
 1002              		.cfi_startproc
 1003              		@ args = 0, pretend = 0, frame = 0
 1004              		@ frame_needed = 0, uses_anonymous_args = 0
 1005              		@ link register save eliminated.
 1006              	.LVL92:
 908:/home/phong/Documents/thesis/stm32f4/stm-idf/components/stm32f4xx_hal_driver/stm32f4xx_ll_fsmc.c ****   uint32_t tmpr = 0U;
 909:/home/phong/Documents/thesis/stm32f4/stm-idf/components/stm32f4xx_hal_driver/stm32f4xx_ll_fsmc.c **** 
 910:/home/phong/Documents/thesis/stm32f4/stm-idf/components/stm32f4xx_hal_driver/stm32f4xx_ll_fsmc.c ****   /* Check the parameters */  
 911:/home/phong/Documents/thesis/stm32f4/stm-idf/components/stm32f4xx_hal_driver/stm32f4xx_ll_fsmc.c ****   assert_param(IS_FSMC_SETUP_TIME(Timing->SetupTime));
 912:/home/phong/Documents/thesis/stm32f4/stm-idf/components/stm32f4xx_hal_driver/stm32f4xx_ll_fsmc.c ****   assert_param(IS_FSMC_WAIT_TIME(Timing->WaitSetupTime));
 913:/home/phong/Documents/thesis/stm32f4/stm-idf/components/stm32f4xx_hal_driver/stm32f4xx_ll_fsmc.c ****   assert_param(IS_FSMC_HOLD_TIME(Timing->HoldSetupTime));
 914:/home/phong/Documents/thesis/stm32f4/stm-idf/components/stm32f4xx_hal_driver/stm32f4xx_ll_fsmc.c ****   assert_param(IS_FSMC_HIZ_TIME(Timing->HiZSetupTime));
 915:/home/phong/Documents/thesis/stm32f4/stm-idf/components/stm32f4xx_hal_driver/stm32f4xx_ll_fsmc.c **** 
 916:/home/phong/Documents/thesis/stm32f4/stm-idf/components/stm32f4xx_hal_driver/stm32f4xx_ll_fsmc.c ****   /* Get PCCARD timing parameters */
 917:/home/phong/Documents/thesis/stm32f4/stm-idf/components/stm32f4xx_hal_driver/stm32f4xx_ll_fsmc.c ****   tmpr = Device->PATT4;
 1007              		.loc 1 917 0
 1008 0000 C368     		ldr	r3, [r0, #12]
 1009              	.LVL93:
 918:/home/phong/Documents/thesis/stm32f4/stm-idf/components/stm32f4xx_hal_driver/stm32f4xx_ll_fsmc.c **** 
 919:/home/phong/Documents/thesis/stm32f4/stm-idf/components/stm32f4xx_hal_driver/stm32f4xx_ll_fsmc.c ****   /* Clear ATTSETx, ATTWAITx, ATTHOLDx and ATTHIZx bits */
 920:/home/phong/Documents/thesis/stm32f4/stm-idf/components/stm32f4xx_hal_driver/stm32f4xx_ll_fsmc.c ****   tmpr &= ((uint32_t)~(FSMC_PATT4_ATTSET4  | FSMC_PATT4_ATTWAIT4 | FSMC_PATT4_ATTHOLD4 | \
 921:/home/phong/Documents/thesis/stm32f4/stm-idf/components/stm32f4xx_hal_driver/stm32f4xx_ll_fsmc.c ****                        FSMC_PATT4_ATTHIZ4));
 922:/home/phong/Documents/thesis/stm32f4/stm-idf/components/stm32f4xx_hal_driver/stm32f4xx_ll_fsmc.c ****   
 923:/home/phong/Documents/thesis/stm32f4/stm-idf/components/stm32f4xx_hal_driver/stm32f4xx_ll_fsmc.c ****   /* Set PCCARD timing parameters */
 924:/home/phong/Documents/thesis/stm32f4/stm-idf/components/stm32f4xx_hal_driver/stm32f4xx_ll_fsmc.c ****   tmpr |= (uint32_t)(Timing->SetupTime                 |\
 1010              		.loc 1 924 0
 1011 0002 0B68     		ldr	r3, [r1]
 925:/home/phong/Documents/thesis/stm32f4/stm-idf/components/stm32f4xx_hal_driver/stm32f4xx_ll_fsmc.c ****                    ((Timing->WaitSetupTime) << 8U)     |\
 1012              		.loc 1 925 0
 1013 0004 4A68     		ldr	r2, [r1, #4]
 924:/home/phong/Documents/thesis/stm32f4/stm-idf/components/stm32f4xx_hal_driver/stm32f4xx_ll_fsmc.c ****                    ((Timing->WaitSetupTime) << 8U)     |\
 1014              		.loc 1 924 0
 1015 0006 43EA0223 		orr	r3, r3, r2, lsl #8
 926:/home/phong/Documents/thesis/stm32f4/stm-idf/components/stm32f4xx_hal_driver/stm32f4xx_ll_fsmc.c ****                    ((Timing->HoldSetupTime) << 16U)    |\
 1016              		.loc 1 926 0
 1017 000a 8A68     		ldr	r2, [r1, #8]
 925:/home/phong/Documents/thesis/stm32f4/stm-idf/components/stm32f4xx_hal_driver/stm32f4xx_ll_fsmc.c ****                    ((Timing->WaitSetupTime) << 8U)     |\
 1018              		.loc 1 925 0
 1019 000c 43EA0243 		orr	r3, r3, r2, lsl #16
 927:/home/phong/Documents/thesis/stm32f4/stm-idf/components/stm32f4xx_hal_driver/stm32f4xx_ll_fsmc.c ****                    ((Timing->HiZSetupTime) << 24U));
 1020              		.loc 1 927 0
 1021 0010 CA68     		ldr	r2, [r1, #12]
 926:/home/phong/Documents/thesis/stm32f4/stm-idf/components/stm32f4xx_hal_driver/stm32f4xx_ll_fsmc.c ****                    ((Timing->HoldSetupTime) << 16U)    |\
ARM GAS  /tmp/cccrE0jc.s 			page 36


 1022              		.loc 1 926 0
 1023 0012 43EA0263 		orr	r3, r3, r2, lsl #24
 1024              	.LVL94:
 928:/home/phong/Documents/thesis/stm32f4/stm-idf/components/stm32f4xx_hal_driver/stm32f4xx_ll_fsmc.c ****   Device->PATT4 = tmpr; 
 1025              		.loc 1 928 0
 1026 0016 C360     		str	r3, [r0, #12]
 929:/home/phong/Documents/thesis/stm32f4/stm-idf/components/stm32f4xx_hal_driver/stm32f4xx_ll_fsmc.c ****                                         
 930:/home/phong/Documents/thesis/stm32f4/stm-idf/components/stm32f4xx_hal_driver/stm32f4xx_ll_fsmc.c ****   return HAL_OK;
 931:/home/phong/Documents/thesis/stm32f4/stm-idf/components/stm32f4xx_hal_driver/stm32f4xx_ll_fsmc.c **** }
 1027              		.loc 1 931 0
 1028 0018 0020     		movs	r0, #0
 1029              	.LVL95:
 1030 001a 7047     		bx	lr
 1031              		.cfi_endproc
 1032              	.LFE145:
 1034              		.section	.text.FSMC_PCCARD_IOSpace_Timing_Init,"ax",%progbits
 1035              		.align	1
 1036              		.global	FSMC_PCCARD_IOSpace_Timing_Init
 1037              		.syntax unified
 1038              		.thumb
 1039              		.thumb_func
 1040              		.fpu fpv4-sp-d16
 1042              	FSMC_PCCARD_IOSpace_Timing_Init:
 1043              	.LFB146:
 932:/home/phong/Documents/thesis/stm32f4/stm-idf/components/stm32f4xx_hal_driver/stm32f4xx_ll_fsmc.c **** 
 933:/home/phong/Documents/thesis/stm32f4/stm-idf/components/stm32f4xx_hal_driver/stm32f4xx_ll_fsmc.c **** /**
 934:/home/phong/Documents/thesis/stm32f4/stm-idf/components/stm32f4xx_hal_driver/stm32f4xx_ll_fsmc.c ****   * @brief  Initializes the FSMC_PCCARD IO space Timing according to the specified
 935:/home/phong/Documents/thesis/stm32f4/stm-idf/components/stm32f4xx_hal_driver/stm32f4xx_ll_fsmc.c ****   *         parameters in the FSMC_NAND_PCC_TimingTypeDef
 936:/home/phong/Documents/thesis/stm32f4/stm-idf/components/stm32f4xx_hal_driver/stm32f4xx_ll_fsmc.c ****   * @param  Device Pointer to PCCARD device instance
 937:/home/phong/Documents/thesis/stm32f4/stm-idf/components/stm32f4xx_hal_driver/stm32f4xx_ll_fsmc.c ****   * @param  Timing Pointer to PCCARD timing structure  
 938:/home/phong/Documents/thesis/stm32f4/stm-idf/components/stm32f4xx_hal_driver/stm32f4xx_ll_fsmc.c ****   * @retval HAL status
 939:/home/phong/Documents/thesis/stm32f4/stm-idf/components/stm32f4xx_hal_driver/stm32f4xx_ll_fsmc.c ****   */
 940:/home/phong/Documents/thesis/stm32f4/stm-idf/components/stm32f4xx_hal_driver/stm32f4xx_ll_fsmc.c **** HAL_StatusTypeDef FSMC_PCCARD_IOSpace_Timing_Init(FSMC_PCCARD_TypeDef *Device, FSMC_NAND_PCC_Timing
 941:/home/phong/Documents/thesis/stm32f4/stm-idf/components/stm32f4xx_hal_driver/stm32f4xx_ll_fsmc.c **** {
 1044              		.loc 1 941 0
 1045              		.cfi_startproc
 1046              		@ args = 0, pretend = 0, frame = 0
 1047              		@ frame_needed = 0, uses_anonymous_args = 0
 1048              		@ link register save eliminated.
 1049              	.LVL96:
 942:/home/phong/Documents/thesis/stm32f4/stm-idf/components/stm32f4xx_hal_driver/stm32f4xx_ll_fsmc.c ****   uint32_t tmpr = 0U;
 943:/home/phong/Documents/thesis/stm32f4/stm-idf/components/stm32f4xx_hal_driver/stm32f4xx_ll_fsmc.c ****   
 944:/home/phong/Documents/thesis/stm32f4/stm-idf/components/stm32f4xx_hal_driver/stm32f4xx_ll_fsmc.c ****   /* Check the parameters */  
 945:/home/phong/Documents/thesis/stm32f4/stm-idf/components/stm32f4xx_hal_driver/stm32f4xx_ll_fsmc.c ****   assert_param(IS_FSMC_SETUP_TIME(Timing->SetupTime));
 946:/home/phong/Documents/thesis/stm32f4/stm-idf/components/stm32f4xx_hal_driver/stm32f4xx_ll_fsmc.c ****   assert_param(IS_FSMC_WAIT_TIME(Timing->WaitSetupTime));
 947:/home/phong/Documents/thesis/stm32f4/stm-idf/components/stm32f4xx_hal_driver/stm32f4xx_ll_fsmc.c ****   assert_param(IS_FSMC_HOLD_TIME(Timing->HoldSetupTime));
 948:/home/phong/Documents/thesis/stm32f4/stm-idf/components/stm32f4xx_hal_driver/stm32f4xx_ll_fsmc.c ****   assert_param(IS_FSMC_HIZ_TIME(Timing->HiZSetupTime));
 949:/home/phong/Documents/thesis/stm32f4/stm-idf/components/stm32f4xx_hal_driver/stm32f4xx_ll_fsmc.c **** 
 950:/home/phong/Documents/thesis/stm32f4/stm-idf/components/stm32f4xx_hal_driver/stm32f4xx_ll_fsmc.c ****   /* Get FSMC_PCCARD device timing parameters */
 951:/home/phong/Documents/thesis/stm32f4/stm-idf/components/stm32f4xx_hal_driver/stm32f4xx_ll_fsmc.c ****   tmpr = Device->PIO4;
 1050              		.loc 1 951 0
 1051 0000 0369     		ldr	r3, [r0, #16]
 1052              	.LVL97:
 952:/home/phong/Documents/thesis/stm32f4/stm-idf/components/stm32f4xx_hal_driver/stm32f4xx_ll_fsmc.c **** 
 953:/home/phong/Documents/thesis/stm32f4/stm-idf/components/stm32f4xx_hal_driver/stm32f4xx_ll_fsmc.c ****   /* Clear IOSET4, IOWAIT4, IOHOLD4 and IOHIZ4 bits */
 954:/home/phong/Documents/thesis/stm32f4/stm-idf/components/stm32f4xx_hal_driver/stm32f4xx_ll_fsmc.c ****   tmpr &= ((uint32_t)~(FSMC_PIO4_IOSET4  | FSMC_PIO4_IOWAIT4 | FSMC_PIO4_IOHOLD4 | \
 955:/home/phong/Documents/thesis/stm32f4/stm-idf/components/stm32f4xx_hal_driver/stm32f4xx_ll_fsmc.c ****                        FSMC_PIO4_IOHIZ4));
ARM GAS  /tmp/cccrE0jc.s 			page 37


 956:/home/phong/Documents/thesis/stm32f4/stm-idf/components/stm32f4xx_hal_driver/stm32f4xx_ll_fsmc.c ****   
 957:/home/phong/Documents/thesis/stm32f4/stm-idf/components/stm32f4xx_hal_driver/stm32f4xx_ll_fsmc.c ****   /* Set FSMC_PCCARD device timing parameters */
 958:/home/phong/Documents/thesis/stm32f4/stm-idf/components/stm32f4xx_hal_driver/stm32f4xx_ll_fsmc.c ****   tmpr |= (uint32_t)(Timing->SetupTime                   |\
 1053              		.loc 1 958 0
 1054 0002 0B68     		ldr	r3, [r1]
 959:/home/phong/Documents/thesis/stm32f4/stm-idf/components/stm32f4xx_hal_driver/stm32f4xx_ll_fsmc.c ****                      ((Timing->WaitSetupTime) << 8U)     |\
 1055              		.loc 1 959 0
 1056 0004 4A68     		ldr	r2, [r1, #4]
 958:/home/phong/Documents/thesis/stm32f4/stm-idf/components/stm32f4xx_hal_driver/stm32f4xx_ll_fsmc.c ****                      ((Timing->WaitSetupTime) << 8U)     |\
 1057              		.loc 1 958 0
 1058 0006 43EA0223 		orr	r3, r3, r2, lsl #8
 960:/home/phong/Documents/thesis/stm32f4/stm-idf/components/stm32f4xx_hal_driver/stm32f4xx_ll_fsmc.c ****                      ((Timing->HoldSetupTime) << 16U)    |\
 1059              		.loc 1 960 0
 1060 000a 8A68     		ldr	r2, [r1, #8]
 959:/home/phong/Documents/thesis/stm32f4/stm-idf/components/stm32f4xx_hal_driver/stm32f4xx_ll_fsmc.c ****                      ((Timing->WaitSetupTime) << 8U)     |\
 1061              		.loc 1 959 0
 1062 000c 43EA0243 		orr	r3, r3, r2, lsl #16
 961:/home/phong/Documents/thesis/stm32f4/stm-idf/components/stm32f4xx_hal_driver/stm32f4xx_ll_fsmc.c ****                      ((Timing->HiZSetupTime) << 24U));   
 1063              		.loc 1 961 0
 1064 0010 CA68     		ldr	r2, [r1, #12]
 960:/home/phong/Documents/thesis/stm32f4/stm-idf/components/stm32f4xx_hal_driver/stm32f4xx_ll_fsmc.c ****                      ((Timing->HoldSetupTime) << 16U)    |\
 1065              		.loc 1 960 0
 1066 0012 43EA0263 		orr	r3, r3, r2, lsl #24
 1067              	.LVL98:
 962:/home/phong/Documents/thesis/stm32f4/stm-idf/components/stm32f4xx_hal_driver/stm32f4xx_ll_fsmc.c ****   
 963:/home/phong/Documents/thesis/stm32f4/stm-idf/components/stm32f4xx_hal_driver/stm32f4xx_ll_fsmc.c ****   Device->PIO4 = tmpr;
 1068              		.loc 1 963 0
 1069 0016 0361     		str	r3, [r0, #16]
 964:/home/phong/Documents/thesis/stm32f4/stm-idf/components/stm32f4xx_hal_driver/stm32f4xx_ll_fsmc.c ****   
 965:/home/phong/Documents/thesis/stm32f4/stm-idf/components/stm32f4xx_hal_driver/stm32f4xx_ll_fsmc.c ****   return HAL_OK;
 966:/home/phong/Documents/thesis/stm32f4/stm-idf/components/stm32f4xx_hal_driver/stm32f4xx_ll_fsmc.c **** }
 1070              		.loc 1 966 0
 1071 0018 0020     		movs	r0, #0
 1072              	.LVL99:
 1073 001a 7047     		bx	lr
 1074              		.cfi_endproc
 1075              	.LFE146:
 1077              		.section	.text.FSMC_PCCARD_DeInit,"ax",%progbits
 1078              		.align	1
 1079              		.global	FSMC_PCCARD_DeInit
 1080              		.syntax unified
 1081              		.thumb
 1082              		.thumb_func
 1083              		.fpu fpv4-sp-d16
 1085              	FSMC_PCCARD_DeInit:
 1086              	.LFB147:
 967:/home/phong/Documents/thesis/stm32f4/stm-idf/components/stm32f4xx_hal_driver/stm32f4xx_ll_fsmc.c ****                                            
 968:/home/phong/Documents/thesis/stm32f4/stm-idf/components/stm32f4xx_hal_driver/stm32f4xx_ll_fsmc.c **** /**
 969:/home/phong/Documents/thesis/stm32f4/stm-idf/components/stm32f4xx_hal_driver/stm32f4xx_ll_fsmc.c ****   * @brief  DeInitializes the FSMC_PCCARD device 
 970:/home/phong/Documents/thesis/stm32f4/stm-idf/components/stm32f4xx_hal_driver/stm32f4xx_ll_fsmc.c ****   * @param  Device Pointer to PCCARD device instance
 971:/home/phong/Documents/thesis/stm32f4/stm-idf/components/stm32f4xx_hal_driver/stm32f4xx_ll_fsmc.c ****   * @retval HAL status
 972:/home/phong/Documents/thesis/stm32f4/stm-idf/components/stm32f4xx_hal_driver/stm32f4xx_ll_fsmc.c ****   */
 973:/home/phong/Documents/thesis/stm32f4/stm-idf/components/stm32f4xx_hal_driver/stm32f4xx_ll_fsmc.c **** HAL_StatusTypeDef FSMC_PCCARD_DeInit(FSMC_PCCARD_TypeDef *Device)
 974:/home/phong/Documents/thesis/stm32f4/stm-idf/components/stm32f4xx_hal_driver/stm32f4xx_ll_fsmc.c **** {
 1087              		.loc 1 974 0
 1088              		.cfi_startproc
 1089              		@ args = 0, pretend = 0, frame = 0
ARM GAS  /tmp/cccrE0jc.s 			page 38


 1090              		@ frame_needed = 0, uses_anonymous_args = 0
 1091              		@ link register save eliminated.
 1092              	.LVL100:
 1093 0000 0346     		mov	r3, r0
 975:/home/phong/Documents/thesis/stm32f4/stm-idf/components/stm32f4xx_hal_driver/stm32f4xx_ll_fsmc.c ****   /* Disable the FSMC_PCCARD device */
 976:/home/phong/Documents/thesis/stm32f4/stm-idf/components/stm32f4xx_hal_driver/stm32f4xx_ll_fsmc.c ****   __FSMC_PCCARD_DISABLE(Device);
 1094              		.loc 1 976 0
 1095 0002 0268     		ldr	r2, [r0]
 1096 0004 22F00402 		bic	r2, r2, #4
 1097 0008 0260     		str	r2, [r0]
 977:/home/phong/Documents/thesis/stm32f4/stm-idf/components/stm32f4xx_hal_driver/stm32f4xx_ll_fsmc.c ****   
 978:/home/phong/Documents/thesis/stm32f4/stm-idf/components/stm32f4xx_hal_driver/stm32f4xx_ll_fsmc.c ****   /* De-initialize the FSMC_PCCARD device */
 979:/home/phong/Documents/thesis/stm32f4/stm-idf/components/stm32f4xx_hal_driver/stm32f4xx_ll_fsmc.c ****   Device->PCR4    = 0x00000018U; 
 1098              		.loc 1 979 0
 1099 000a 1822     		movs	r2, #24
 1100 000c 0260     		str	r2, [r0]
 980:/home/phong/Documents/thesis/stm32f4/stm-idf/components/stm32f4xx_hal_driver/stm32f4xx_ll_fsmc.c ****   Device->SR4     = 0x00000000U;	
 1101              		.loc 1 980 0
 1102 000e 0020     		movs	r0, #0
 1103              	.LVL101:
 1104 0010 5860     		str	r0, [r3, #4]
 981:/home/phong/Documents/thesis/stm32f4/stm-idf/components/stm32f4xx_hal_driver/stm32f4xx_ll_fsmc.c ****   Device->PMEM4   = 0xFCFCFCFCU;
 1105              		.loc 1 981 0
 1106 0012 4FF0FC32 		mov	r2, #-50529028
 1107 0016 9A60     		str	r2, [r3, #8]
 982:/home/phong/Documents/thesis/stm32f4/stm-idf/components/stm32f4xx_hal_driver/stm32f4xx_ll_fsmc.c ****   Device->PATT4   = 0xFCFCFCFCU;
 1108              		.loc 1 982 0
 1109 0018 DA60     		str	r2, [r3, #12]
 983:/home/phong/Documents/thesis/stm32f4/stm-idf/components/stm32f4xx_hal_driver/stm32f4xx_ll_fsmc.c ****   Device->PIO4    = 0xFCFCFCFCU;
 1110              		.loc 1 983 0
 1111 001a 1A61     		str	r2, [r3, #16]
 984:/home/phong/Documents/thesis/stm32f4/stm-idf/components/stm32f4xx_hal_driver/stm32f4xx_ll_fsmc.c ****   
 985:/home/phong/Documents/thesis/stm32f4/stm-idf/components/stm32f4xx_hal_driver/stm32f4xx_ll_fsmc.c ****   return HAL_OK;
 986:/home/phong/Documents/thesis/stm32f4/stm-idf/components/stm32f4xx_hal_driver/stm32f4xx_ll_fsmc.c **** }
 1112              		.loc 1 986 0
 1113 001c 7047     		bx	lr
 1114              		.cfi_endproc
 1115              	.LFE147:
 1117              		.text
 1118              	.Letext0:
 1119              		.file 2 "/home/phong/Documents/thesis/stm32f4/stm-idf/components/newlib/include/machine/_default_t
 1120              		.file 3 "/home/phong/Documents/thesis/stm32f4/stm-idf/components/newlib/include/sys/_stdint.h"
 1121              		.file 4 "/home/phong/Documents/thesis/stm32f4/stm-idf/components/cmsis/include/core_cm4.h"
 1122              		.file 5 "/home/phong/Documents/thesis/stm32f4/stm-idf/components/cmsis/device/stm32/stm32f4xx/incl
 1123              		.file 6 "/home/phong/Documents/thesis/stm32f4/stm-idf/components/cmsis/device/stm32/stm32f4xx/incl
 1124              		.file 7 "/home/phong/Documents/thesis/stm32f4/stm-idf/components/cmsis/device/stm32/stm32f4xx/incl
 1125              		.file 8 "/home/phong/Documents/thesis/stm32f4/stm-idf/components/stm32f4xx_hal_driver/include/stm3
 1126              		.file 9 "/home/phong/Documents/thesis/stm32f4/stm-idf/components/stm32f4xx_hal_driver/include/stm3
 1127              		.file 10 "/home/phong/Documents/thesis/stm32f4/stm-idf/components/stm32f4xx_hal_driver/include/stm
ARM GAS  /tmp/cccrE0jc.s 			page 39

