ARM GAS  /tmp/ccYyp54X.s 			page 1


   1              		.cpu cortex-m4
   2              		.eabi_attribute 27, 1
   3              		.eabi_attribute 28, 1
   4              		.eabi_attribute 20, 1
   5              		.eabi_attribute 21, 1
   6              		.eabi_attribute 23, 3
   7              		.eabi_attribute 24, 1
   8              		.eabi_attribute 25, 1
   9              		.eabi_attribute 26, 1
  10              		.eabi_attribute 30, 1
  11              		.eabi_attribute 34, 1
  12              		.eabi_attribute 18, 4
  13              		.file	"stm32f4xx_hal_nor.c"
  14              		.text
  15              	.Ltext0:
  16              		.cfi_sections	.debug_frame
  17              		.section	.text.HAL_NOR_MspInit,"ax",%progbits
  18              		.align	1
  19              		.weak	HAL_NOR_MspInit
  20              		.syntax unified
  21              		.thumb
  22              		.thumb_func
  23              		.fpu fpv4-sp-d16
  25              	HAL_NOR_MspInit:
  26              	.LFB132:
  27              		.file 1 "/home/phong/Documents/thesis/stm32f4/stm-idf/components/stm32f4xx_hal_driver/stm32f4xx_ha
   1:/home/phong/Documents/thesis/stm32f4/stm-idf/components/stm32f4xx_hal_driver/stm32f4xx_hal_nor.c **** /**
   2:/home/phong/Documents/thesis/stm32f4/stm-idf/components/stm32f4xx_hal_driver/stm32f4xx_hal_nor.c ****   ******************************************************************************
   3:/home/phong/Documents/thesis/stm32f4/stm-idf/components/stm32f4xx_hal_driver/stm32f4xx_hal_nor.c ****   * @file    stm32f4xx_hal_nor.c
   4:/home/phong/Documents/thesis/stm32f4/stm-idf/components/stm32f4xx_hal_driver/stm32f4xx_hal_nor.c ****   * @author  MCD Application Team
   5:/home/phong/Documents/thesis/stm32f4/stm-idf/components/stm32f4xx_hal_driver/stm32f4xx_hal_nor.c ****   * @brief   NOR HAL module driver.
   6:/home/phong/Documents/thesis/stm32f4/stm-idf/components/stm32f4xx_hal_driver/stm32f4xx_hal_nor.c ****   *          This file provides a generic firmware to drive NOR memories mounted 
   7:/home/phong/Documents/thesis/stm32f4/stm-idf/components/stm32f4xx_hal_driver/stm32f4xx_hal_nor.c ****   *          as external device.
   8:/home/phong/Documents/thesis/stm32f4/stm-idf/components/stm32f4xx_hal_driver/stm32f4xx_hal_nor.c ****   *         
   9:/home/phong/Documents/thesis/stm32f4/stm-idf/components/stm32f4xx_hal_driver/stm32f4xx_hal_nor.c ****   @verbatim
  10:/home/phong/Documents/thesis/stm32f4/stm-idf/components/stm32f4xx_hal_driver/stm32f4xx_hal_nor.c ****   ==============================================================================
  11:/home/phong/Documents/thesis/stm32f4/stm-idf/components/stm32f4xx_hal_driver/stm32f4xx_hal_nor.c ****                      ##### How to use this driver #####
  12:/home/phong/Documents/thesis/stm32f4/stm-idf/components/stm32f4xx_hal_driver/stm32f4xx_hal_nor.c ****   ==============================================================================       
  13:/home/phong/Documents/thesis/stm32f4/stm-idf/components/stm32f4xx_hal_driver/stm32f4xx_hal_nor.c ****     [..]
  14:/home/phong/Documents/thesis/stm32f4/stm-idf/components/stm32f4xx_hal_driver/stm32f4xx_hal_nor.c ****       This driver is a generic layered driver which contains a set of APIs used to 
  15:/home/phong/Documents/thesis/stm32f4/stm-idf/components/stm32f4xx_hal_driver/stm32f4xx_hal_nor.c ****       control NOR flash memories. It uses the FMC/FSMC layer functions to interface 
  16:/home/phong/Documents/thesis/stm32f4/stm-idf/components/stm32f4xx_hal_driver/stm32f4xx_hal_nor.c ****       with NOR devices. This driver is used as follows:
  17:/home/phong/Documents/thesis/stm32f4/stm-idf/components/stm32f4xx_hal_driver/stm32f4xx_hal_nor.c ****     
  18:/home/phong/Documents/thesis/stm32f4/stm-idf/components/stm32f4xx_hal_driver/stm32f4xx_hal_nor.c ****       (+) NOR flash memory configuration sequence using the function HAL_NOR_Init() 
  19:/home/phong/Documents/thesis/stm32f4/stm-idf/components/stm32f4xx_hal_driver/stm32f4xx_hal_nor.c ****           with control and timing parameters for both normal and extended mode.
  20:/home/phong/Documents/thesis/stm32f4/stm-idf/components/stm32f4xx_hal_driver/stm32f4xx_hal_nor.c ****             
  21:/home/phong/Documents/thesis/stm32f4/stm-idf/components/stm32f4xx_hal_driver/stm32f4xx_hal_nor.c ****       (+) Read NOR flash memory manufacturer code and device IDs using the function
  22:/home/phong/Documents/thesis/stm32f4/stm-idf/components/stm32f4xx_hal_driver/stm32f4xx_hal_nor.c ****           HAL_NOR_Read_ID(). The read information is stored in the NOR_ID_TypeDef 
  23:/home/phong/Documents/thesis/stm32f4/stm-idf/components/stm32f4xx_hal_driver/stm32f4xx_hal_nor.c ****           structure declared by the function caller. 
  24:/home/phong/Documents/thesis/stm32f4/stm-idf/components/stm32f4xx_hal_driver/stm32f4xx_hal_nor.c ****         
  25:/home/phong/Documents/thesis/stm32f4/stm-idf/components/stm32f4xx_hal_driver/stm32f4xx_hal_nor.c ****       (+) Access NOR flash memory by read/write data unit operations using the functions
  26:/home/phong/Documents/thesis/stm32f4/stm-idf/components/stm32f4xx_hal_driver/stm32f4xx_hal_nor.c ****           HAL_NOR_Read(), HAL_NOR_Program().
  27:/home/phong/Documents/thesis/stm32f4/stm-idf/components/stm32f4xx_hal_driver/stm32f4xx_hal_nor.c ****         
  28:/home/phong/Documents/thesis/stm32f4/stm-idf/components/stm32f4xx_hal_driver/stm32f4xx_hal_nor.c ****       (+) Perform NOR flash erase block/chip operations using the functions 
  29:/home/phong/Documents/thesis/stm32f4/stm-idf/components/stm32f4xx_hal_driver/stm32f4xx_hal_nor.c ****           HAL_NOR_Erase_Block() and HAL_NOR_Erase_Chip().
  30:/home/phong/Documents/thesis/stm32f4/stm-idf/components/stm32f4xx_hal_driver/stm32f4xx_hal_nor.c ****         
  31:/home/phong/Documents/thesis/stm32f4/stm-idf/components/stm32f4xx_hal_driver/stm32f4xx_hal_nor.c ****       (+) Read the NOR flash CFI (common flash interface) IDs using the function
ARM GAS  /tmp/ccYyp54X.s 			page 2


  32:/home/phong/Documents/thesis/stm32f4/stm-idf/components/stm32f4xx_hal_driver/stm32f4xx_hal_nor.c ****           HAL_NOR_Read_CFI(). The read information is stored in the NOR_CFI_TypeDef
  33:/home/phong/Documents/thesis/stm32f4/stm-idf/components/stm32f4xx_hal_driver/stm32f4xx_hal_nor.c ****           structure declared by the function caller.
  34:/home/phong/Documents/thesis/stm32f4/stm-idf/components/stm32f4xx_hal_driver/stm32f4xx_hal_nor.c ****         
  35:/home/phong/Documents/thesis/stm32f4/stm-idf/components/stm32f4xx_hal_driver/stm32f4xx_hal_nor.c ****       (+) You can also control the NOR device by calling the control APIs HAL_NOR_WriteOperation_En
  36:/home/phong/Documents/thesis/stm32f4/stm-idf/components/stm32f4xx_hal_driver/stm32f4xx_hal_nor.c ****           HAL_NOR_WriteOperation_Disable() to respectively enable/disable the NOR write operation  
  37:/home/phong/Documents/thesis/stm32f4/stm-idf/components/stm32f4xx_hal_driver/stm32f4xx_hal_nor.c ****        
  38:/home/phong/Documents/thesis/stm32f4/stm-idf/components/stm32f4xx_hal_driver/stm32f4xx_hal_nor.c ****       (+) You can monitor the NOR device HAL state by calling the function
  39:/home/phong/Documents/thesis/stm32f4/stm-idf/components/stm32f4xx_hal_driver/stm32f4xx_hal_nor.c ****           HAL_NOR_GetState() 
  40:/home/phong/Documents/thesis/stm32f4/stm-idf/components/stm32f4xx_hal_driver/stm32f4xx_hal_nor.c ****     [..]
  41:/home/phong/Documents/thesis/stm32f4/stm-idf/components/stm32f4xx_hal_driver/stm32f4xx_hal_nor.c ****      (@) This driver is a set of generic APIs which handle standard NOR flash operations.
  42:/home/phong/Documents/thesis/stm32f4/stm-idf/components/stm32f4xx_hal_driver/stm32f4xx_hal_nor.c ****          If a NOR flash device contains different operations and/or implementations, 
  43:/home/phong/Documents/thesis/stm32f4/stm-idf/components/stm32f4xx_hal_driver/stm32f4xx_hal_nor.c ****          it should be implemented separately.
  44:/home/phong/Documents/thesis/stm32f4/stm-idf/components/stm32f4xx_hal_driver/stm32f4xx_hal_nor.c **** 
  45:/home/phong/Documents/thesis/stm32f4/stm-idf/components/stm32f4xx_hal_driver/stm32f4xx_hal_nor.c ****      *** NOR HAL driver macros list ***
  46:/home/phong/Documents/thesis/stm32f4/stm-idf/components/stm32f4xx_hal_driver/stm32f4xx_hal_nor.c ****      ============================================= 
  47:/home/phong/Documents/thesis/stm32f4/stm-idf/components/stm32f4xx_hal_driver/stm32f4xx_hal_nor.c ****      [..]
  48:/home/phong/Documents/thesis/stm32f4/stm-idf/components/stm32f4xx_hal_driver/stm32f4xx_hal_nor.c ****        Below the list of most used macros in NOR HAL driver.
  49:/home/phong/Documents/thesis/stm32f4/stm-idf/components/stm32f4xx_hal_driver/stm32f4xx_hal_nor.c ****        
  50:/home/phong/Documents/thesis/stm32f4/stm-idf/components/stm32f4xx_hal_driver/stm32f4xx_hal_nor.c ****       (+) NOR_WRITE : NOR memory write data to specified address
  51:/home/phong/Documents/thesis/stm32f4/stm-idf/components/stm32f4xx_hal_driver/stm32f4xx_hal_nor.c **** 
  52:/home/phong/Documents/thesis/stm32f4/stm-idf/components/stm32f4xx_hal_driver/stm32f4xx_hal_nor.c ****     *** Callback registration ***
  53:/home/phong/Documents/thesis/stm32f4/stm-idf/components/stm32f4xx_hal_driver/stm32f4xx_hal_nor.c ****     =============================================
  54:/home/phong/Documents/thesis/stm32f4/stm-idf/components/stm32f4xx_hal_driver/stm32f4xx_hal_nor.c ****     [..]
  55:/home/phong/Documents/thesis/stm32f4/stm-idf/components/stm32f4xx_hal_driver/stm32f4xx_hal_nor.c ****       The compilation define  USE_HAL_NOR_REGISTER_CALLBACKS when set to 1
  56:/home/phong/Documents/thesis/stm32f4/stm-idf/components/stm32f4xx_hal_driver/stm32f4xx_hal_nor.c ****       allows the user to configure dynamically the driver callbacks.
  57:/home/phong/Documents/thesis/stm32f4/stm-idf/components/stm32f4xx_hal_driver/stm32f4xx_hal_nor.c **** 
  58:/home/phong/Documents/thesis/stm32f4/stm-idf/components/stm32f4xx_hal_driver/stm32f4xx_hal_nor.c ****       Use Functions @ref HAL_NOR_RegisterCallback() to register a user callback,
  59:/home/phong/Documents/thesis/stm32f4/stm-idf/components/stm32f4xx_hal_driver/stm32f4xx_hal_nor.c ****       it allows to register following callbacks:
  60:/home/phong/Documents/thesis/stm32f4/stm-idf/components/stm32f4xx_hal_driver/stm32f4xx_hal_nor.c ****         (+) MspInitCallback    : NOR MspInit.
  61:/home/phong/Documents/thesis/stm32f4/stm-idf/components/stm32f4xx_hal_driver/stm32f4xx_hal_nor.c ****         (+) MspDeInitCallback  : NOR MspDeInit.
  62:/home/phong/Documents/thesis/stm32f4/stm-idf/components/stm32f4xx_hal_driver/stm32f4xx_hal_nor.c ****       This function takes as parameters the HAL peripheral handle, the Callback ID
  63:/home/phong/Documents/thesis/stm32f4/stm-idf/components/stm32f4xx_hal_driver/stm32f4xx_hal_nor.c ****       and a pointer to the user callback function.
  64:/home/phong/Documents/thesis/stm32f4/stm-idf/components/stm32f4xx_hal_driver/stm32f4xx_hal_nor.c **** 
  65:/home/phong/Documents/thesis/stm32f4/stm-idf/components/stm32f4xx_hal_driver/stm32f4xx_hal_nor.c ****       Use function @ref HAL_NOR_UnRegisterCallback() to reset a callback to the default
  66:/home/phong/Documents/thesis/stm32f4/stm-idf/components/stm32f4xx_hal_driver/stm32f4xx_hal_nor.c ****       weak (surcharged) function. It allows to reset following callbacks:
  67:/home/phong/Documents/thesis/stm32f4/stm-idf/components/stm32f4xx_hal_driver/stm32f4xx_hal_nor.c ****         (+) MspInitCallback    : NOR MspInit.
  68:/home/phong/Documents/thesis/stm32f4/stm-idf/components/stm32f4xx_hal_driver/stm32f4xx_hal_nor.c ****         (+) MspDeInitCallback  : NOR MspDeInit.
  69:/home/phong/Documents/thesis/stm32f4/stm-idf/components/stm32f4xx_hal_driver/stm32f4xx_hal_nor.c ****       This function) takes as parameters the HAL peripheral handle and the Callback ID.
  70:/home/phong/Documents/thesis/stm32f4/stm-idf/components/stm32f4xx_hal_driver/stm32f4xx_hal_nor.c **** 
  71:/home/phong/Documents/thesis/stm32f4/stm-idf/components/stm32f4xx_hal_driver/stm32f4xx_hal_nor.c ****       By default, after the @ref HAL_NOR_Init and if the state is HAL_NOR_STATE_RESET
  72:/home/phong/Documents/thesis/stm32f4/stm-idf/components/stm32f4xx_hal_driver/stm32f4xx_hal_nor.c ****       all callbacks are reset to the corresponding legacy weak (surcharged) functions.
  73:/home/phong/Documents/thesis/stm32f4/stm-idf/components/stm32f4xx_hal_driver/stm32f4xx_hal_nor.c ****       Exception done for MspInit and MspDeInit callbacks that are respectively
  74:/home/phong/Documents/thesis/stm32f4/stm-idf/components/stm32f4xx_hal_driver/stm32f4xx_hal_nor.c ****       reset to the legacy weak (surcharged) functions in the @ref HAL_NOR_Init
  75:/home/phong/Documents/thesis/stm32f4/stm-idf/components/stm32f4xx_hal_driver/stm32f4xx_hal_nor.c ****       and @ref  HAL_NOR_DeInit only when these callbacks are null (not registered beforehand).
  76:/home/phong/Documents/thesis/stm32f4/stm-idf/components/stm32f4xx_hal_driver/stm32f4xx_hal_nor.c ****       If not, MspInit or MspDeInit are not null, the @ref HAL_NOR_Init and @ref HAL_NOR_DeInit
  77:/home/phong/Documents/thesis/stm32f4/stm-idf/components/stm32f4xx_hal_driver/stm32f4xx_hal_nor.c ****       keep and use the user MspInit/MspDeInit callbacks (registered beforehand)
  78:/home/phong/Documents/thesis/stm32f4/stm-idf/components/stm32f4xx_hal_driver/stm32f4xx_hal_nor.c **** 
  79:/home/phong/Documents/thesis/stm32f4/stm-idf/components/stm32f4xx_hal_driver/stm32f4xx_hal_nor.c ****       Callbacks can be registered/unregistered in READY state only.
  80:/home/phong/Documents/thesis/stm32f4/stm-idf/components/stm32f4xx_hal_driver/stm32f4xx_hal_nor.c ****       Exception done for MspInit/MspDeInit callbacks that can be registered/unregistered
  81:/home/phong/Documents/thesis/stm32f4/stm-idf/components/stm32f4xx_hal_driver/stm32f4xx_hal_nor.c ****       in READY or RESET state, thus registered (user) MspInit/DeInit callbacks can be used
  82:/home/phong/Documents/thesis/stm32f4/stm-idf/components/stm32f4xx_hal_driver/stm32f4xx_hal_nor.c ****       during the Init/DeInit.
  83:/home/phong/Documents/thesis/stm32f4/stm-idf/components/stm32f4xx_hal_driver/stm32f4xx_hal_nor.c ****       In that case first register the MspInit/MspDeInit user callbacks
  84:/home/phong/Documents/thesis/stm32f4/stm-idf/components/stm32f4xx_hal_driver/stm32f4xx_hal_nor.c ****       using @ref HAL_NOR_RegisterCallback before calling @ref HAL_NOR_DeInit
  85:/home/phong/Documents/thesis/stm32f4/stm-idf/components/stm32f4xx_hal_driver/stm32f4xx_hal_nor.c ****       or @ref HAL_NOR_Init function.
  86:/home/phong/Documents/thesis/stm32f4/stm-idf/components/stm32f4xx_hal_driver/stm32f4xx_hal_nor.c **** 
  87:/home/phong/Documents/thesis/stm32f4/stm-idf/components/stm32f4xx_hal_driver/stm32f4xx_hal_nor.c ****       When The compilation define USE_HAL_NOR_REGISTER_CALLBACKS is set to 0 or
  88:/home/phong/Documents/thesis/stm32f4/stm-idf/components/stm32f4xx_hal_driver/stm32f4xx_hal_nor.c ****       not defined, the callback registering feature is not available
ARM GAS  /tmp/ccYyp54X.s 			page 3


  89:/home/phong/Documents/thesis/stm32f4/stm-idf/components/stm32f4xx_hal_driver/stm32f4xx_hal_nor.c ****       and weak (surcharged) callbacks are used.
  90:/home/phong/Documents/thesis/stm32f4/stm-idf/components/stm32f4xx_hal_driver/stm32f4xx_hal_nor.c **** 
  91:/home/phong/Documents/thesis/stm32f4/stm-idf/components/stm32f4xx_hal_driver/stm32f4xx_hal_nor.c ****   @endverbatim
  92:/home/phong/Documents/thesis/stm32f4/stm-idf/components/stm32f4xx_hal_driver/stm32f4xx_hal_nor.c ****   ******************************************************************************
  93:/home/phong/Documents/thesis/stm32f4/stm-idf/components/stm32f4xx_hal_driver/stm32f4xx_hal_nor.c ****   * @attention
  94:/home/phong/Documents/thesis/stm32f4/stm-idf/components/stm32f4xx_hal_driver/stm32f4xx_hal_nor.c ****   *
  95:/home/phong/Documents/thesis/stm32f4/stm-idf/components/stm32f4xx_hal_driver/stm32f4xx_hal_nor.c ****   * <h2><center>&copy; Copyright (c) 2017 STMicroelectronics.
  96:/home/phong/Documents/thesis/stm32f4/stm-idf/components/stm32f4xx_hal_driver/stm32f4xx_hal_nor.c ****   * All rights reserved.</center></h2>
  97:/home/phong/Documents/thesis/stm32f4/stm-idf/components/stm32f4xx_hal_driver/stm32f4xx_hal_nor.c ****   *
  98:/home/phong/Documents/thesis/stm32f4/stm-idf/components/stm32f4xx_hal_driver/stm32f4xx_hal_nor.c ****   * This software component is licensed by ST under BSD 3-Clause license,
  99:/home/phong/Documents/thesis/stm32f4/stm-idf/components/stm32f4xx_hal_driver/stm32f4xx_hal_nor.c ****   * the "License"; You may not use this file except in compliance with the
 100:/home/phong/Documents/thesis/stm32f4/stm-idf/components/stm32f4xx_hal_driver/stm32f4xx_hal_nor.c ****   * License. You may obtain a copy of the License at:
 101:/home/phong/Documents/thesis/stm32f4/stm-idf/components/stm32f4xx_hal_driver/stm32f4xx_hal_nor.c ****   *                        opensource.org/licenses/BSD-3-Clause
 102:/home/phong/Documents/thesis/stm32f4/stm-idf/components/stm32f4xx_hal_driver/stm32f4xx_hal_nor.c ****   *
 103:/home/phong/Documents/thesis/stm32f4/stm-idf/components/stm32f4xx_hal_driver/stm32f4xx_hal_nor.c ****   ******************************************************************************
 104:/home/phong/Documents/thesis/stm32f4/stm-idf/components/stm32f4xx_hal_driver/stm32f4xx_hal_nor.c ****   */ 
 105:/home/phong/Documents/thesis/stm32f4/stm-idf/components/stm32f4xx_hal_driver/stm32f4xx_hal_nor.c **** 
 106:/home/phong/Documents/thesis/stm32f4/stm-idf/components/stm32f4xx_hal_driver/stm32f4xx_hal_nor.c **** /* Includes ------------------------------------------------------------------*/
 107:/home/phong/Documents/thesis/stm32f4/stm-idf/components/stm32f4xx_hal_driver/stm32f4xx_hal_nor.c **** #include "stm32f4xx_hal.h"
 108:/home/phong/Documents/thesis/stm32f4/stm-idf/components/stm32f4xx_hal_driver/stm32f4xx_hal_nor.c **** 
 109:/home/phong/Documents/thesis/stm32f4/stm-idf/components/stm32f4xx_hal_driver/stm32f4xx_hal_nor.c **** /** @addtogroup STM32F4xx_HAL_Driver
 110:/home/phong/Documents/thesis/stm32f4/stm-idf/components/stm32f4xx_hal_driver/stm32f4xx_hal_nor.c ****   * @{
 111:/home/phong/Documents/thesis/stm32f4/stm-idf/components/stm32f4xx_hal_driver/stm32f4xx_hal_nor.c ****   */
 112:/home/phong/Documents/thesis/stm32f4/stm-idf/components/stm32f4xx_hal_driver/stm32f4xx_hal_nor.c **** 
 113:/home/phong/Documents/thesis/stm32f4/stm-idf/components/stm32f4xx_hal_driver/stm32f4xx_hal_nor.c **** /** @defgroup NOR NOR
 114:/home/phong/Documents/thesis/stm32f4/stm-idf/components/stm32f4xx_hal_driver/stm32f4xx_hal_nor.c ****   * @brief NOR driver modules
 115:/home/phong/Documents/thesis/stm32f4/stm-idf/components/stm32f4xx_hal_driver/stm32f4xx_hal_nor.c ****   * @{
 116:/home/phong/Documents/thesis/stm32f4/stm-idf/components/stm32f4xx_hal_driver/stm32f4xx_hal_nor.c ****   */
 117:/home/phong/Documents/thesis/stm32f4/stm-idf/components/stm32f4xx_hal_driver/stm32f4xx_hal_nor.c **** #ifdef HAL_NOR_MODULE_ENABLED
 118:/home/phong/Documents/thesis/stm32f4/stm-idf/components/stm32f4xx_hal_driver/stm32f4xx_hal_nor.c **** #if defined(STM32F405xx) || defined(STM32F415xx) || defined(STM32F407xx) || defined(STM32F417xx) ||
 119:/home/phong/Documents/thesis/stm32f4/stm-idf/components/stm32f4xx_hal_driver/stm32f4xx_hal_nor.c ****     defined(STM32F427xx) || defined(STM32F437xx) || defined(STM32F429xx) || defined(STM32F439xx) ||
 120:/home/phong/Documents/thesis/stm32f4/stm-idf/components/stm32f4xx_hal_driver/stm32f4xx_hal_nor.c ****     defined(STM32F446xx) || defined(STM32F469xx) || defined(STM32F479xx) || defined(STM32F412Zx) ||
 121:/home/phong/Documents/thesis/stm32f4/stm-idf/components/stm32f4xx_hal_driver/stm32f4xx_hal_nor.c ****     defined(STM32F412Vx) || defined(STM32F412Rx) || defined(STM32F413xx) || defined(STM32F423xx)
 122:/home/phong/Documents/thesis/stm32f4/stm-idf/components/stm32f4xx_hal_driver/stm32f4xx_hal_nor.c **** /* Private typedef -----------------------------------------------------------*/
 123:/home/phong/Documents/thesis/stm32f4/stm-idf/components/stm32f4xx_hal_driver/stm32f4xx_hal_nor.c **** /* Private define ------------------------------------------------------------*/
 124:/home/phong/Documents/thesis/stm32f4/stm-idf/components/stm32f4xx_hal_driver/stm32f4xx_hal_nor.c ****       
 125:/home/phong/Documents/thesis/stm32f4/stm-idf/components/stm32f4xx_hal_driver/stm32f4xx_hal_nor.c **** /** @defgroup NOR_Private_Defines NOR Private Defines
 126:/home/phong/Documents/thesis/stm32f4/stm-idf/components/stm32f4xx_hal_driver/stm32f4xx_hal_nor.c ****   * @{
 127:/home/phong/Documents/thesis/stm32f4/stm-idf/components/stm32f4xx_hal_driver/stm32f4xx_hal_nor.c ****   */
 128:/home/phong/Documents/thesis/stm32f4/stm-idf/components/stm32f4xx_hal_driver/stm32f4xx_hal_nor.c **** 
 129:/home/phong/Documents/thesis/stm32f4/stm-idf/components/stm32f4xx_hal_driver/stm32f4xx_hal_nor.c **** /* Constants to define address to set to write a command */
 130:/home/phong/Documents/thesis/stm32f4/stm-idf/components/stm32f4xx_hal_driver/stm32f4xx_hal_nor.c **** #define NOR_CMD_ADDRESS_FIRST                 (uint16_t)0x0555
 131:/home/phong/Documents/thesis/stm32f4/stm-idf/components/stm32f4xx_hal_driver/stm32f4xx_hal_nor.c **** #define NOR_CMD_ADDRESS_FIRST_CFI             (uint16_t)0x0055
 132:/home/phong/Documents/thesis/stm32f4/stm-idf/components/stm32f4xx_hal_driver/stm32f4xx_hal_nor.c **** #define NOR_CMD_ADDRESS_SECOND                (uint16_t)0x02AA
 133:/home/phong/Documents/thesis/stm32f4/stm-idf/components/stm32f4xx_hal_driver/stm32f4xx_hal_nor.c **** #define NOR_CMD_ADDRESS_THIRD                 (uint16_t)0x0555
 134:/home/phong/Documents/thesis/stm32f4/stm-idf/components/stm32f4xx_hal_driver/stm32f4xx_hal_nor.c **** #define NOR_CMD_ADDRESS_FOURTH                (uint16_t)0x0555
 135:/home/phong/Documents/thesis/stm32f4/stm-idf/components/stm32f4xx_hal_driver/stm32f4xx_hal_nor.c **** #define NOR_CMD_ADDRESS_FIFTH                 (uint16_t)0x02AA
 136:/home/phong/Documents/thesis/stm32f4/stm-idf/components/stm32f4xx_hal_driver/stm32f4xx_hal_nor.c **** #define NOR_CMD_ADDRESS_SIXTH                 (uint16_t)0x0555
 137:/home/phong/Documents/thesis/stm32f4/stm-idf/components/stm32f4xx_hal_driver/stm32f4xx_hal_nor.c **** 
 138:/home/phong/Documents/thesis/stm32f4/stm-idf/components/stm32f4xx_hal_driver/stm32f4xx_hal_nor.c **** /* Constants to define data to program a command */
 139:/home/phong/Documents/thesis/stm32f4/stm-idf/components/stm32f4xx_hal_driver/stm32f4xx_hal_nor.c **** #define NOR_CMD_DATA_READ_RESET               (uint16_t)0x00F0
 140:/home/phong/Documents/thesis/stm32f4/stm-idf/components/stm32f4xx_hal_driver/stm32f4xx_hal_nor.c **** #define NOR_CMD_DATA_FIRST                    (uint16_t)0x00AA
 141:/home/phong/Documents/thesis/stm32f4/stm-idf/components/stm32f4xx_hal_driver/stm32f4xx_hal_nor.c **** #define NOR_CMD_DATA_SECOND                   (uint16_t)0x0055
 142:/home/phong/Documents/thesis/stm32f4/stm-idf/components/stm32f4xx_hal_driver/stm32f4xx_hal_nor.c **** #define NOR_CMD_DATA_AUTO_SELECT              (uint16_t)0x0090
 143:/home/phong/Documents/thesis/stm32f4/stm-idf/components/stm32f4xx_hal_driver/stm32f4xx_hal_nor.c **** #define NOR_CMD_DATA_PROGRAM                  (uint16_t)0x00A0
 144:/home/phong/Documents/thesis/stm32f4/stm-idf/components/stm32f4xx_hal_driver/stm32f4xx_hal_nor.c **** #define NOR_CMD_DATA_CHIP_BLOCK_ERASE_THIRD   (uint16_t)0x0080
 145:/home/phong/Documents/thesis/stm32f4/stm-idf/components/stm32f4xx_hal_driver/stm32f4xx_hal_nor.c **** #define NOR_CMD_DATA_CHIP_BLOCK_ERASE_FOURTH  (uint16_t)0x00AA
ARM GAS  /tmp/ccYyp54X.s 			page 4


 146:/home/phong/Documents/thesis/stm32f4/stm-idf/components/stm32f4xx_hal_driver/stm32f4xx_hal_nor.c **** #define NOR_CMD_DATA_CHIP_BLOCK_ERASE_FIFTH   (uint16_t)0x0055
 147:/home/phong/Documents/thesis/stm32f4/stm-idf/components/stm32f4xx_hal_driver/stm32f4xx_hal_nor.c **** #define NOR_CMD_DATA_CHIP_ERASE               (uint16_t)0x0010
 148:/home/phong/Documents/thesis/stm32f4/stm-idf/components/stm32f4xx_hal_driver/stm32f4xx_hal_nor.c **** #define NOR_CMD_DATA_CFI                      (uint16_t)0x0098
 149:/home/phong/Documents/thesis/stm32f4/stm-idf/components/stm32f4xx_hal_driver/stm32f4xx_hal_nor.c **** 
 150:/home/phong/Documents/thesis/stm32f4/stm-idf/components/stm32f4xx_hal_driver/stm32f4xx_hal_nor.c **** #define NOR_CMD_DATA_BUFFER_AND_PROG          (uint8_t)0x25
 151:/home/phong/Documents/thesis/stm32f4/stm-idf/components/stm32f4xx_hal_driver/stm32f4xx_hal_nor.c **** #define NOR_CMD_DATA_BUFFER_AND_PROG_CONFIRM  (uint8_t)0x29
 152:/home/phong/Documents/thesis/stm32f4/stm-idf/components/stm32f4xx_hal_driver/stm32f4xx_hal_nor.c **** #define NOR_CMD_DATA_BLOCK_ERASE              (uint8_t)0x30
 153:/home/phong/Documents/thesis/stm32f4/stm-idf/components/stm32f4xx_hal_driver/stm32f4xx_hal_nor.c **** 
 154:/home/phong/Documents/thesis/stm32f4/stm-idf/components/stm32f4xx_hal_driver/stm32f4xx_hal_nor.c **** /* Mask on NOR STATUS REGISTER */
 155:/home/phong/Documents/thesis/stm32f4/stm-idf/components/stm32f4xx_hal_driver/stm32f4xx_hal_nor.c **** #define NOR_MASK_STATUS_DQ5                   (uint16_t)0x0020
 156:/home/phong/Documents/thesis/stm32f4/stm-idf/components/stm32f4xx_hal_driver/stm32f4xx_hal_nor.c **** #define NOR_MASK_STATUS_DQ6                   (uint16_t)0x0040
 157:/home/phong/Documents/thesis/stm32f4/stm-idf/components/stm32f4xx_hal_driver/stm32f4xx_hal_nor.c **** 
 158:/home/phong/Documents/thesis/stm32f4/stm-idf/components/stm32f4xx_hal_driver/stm32f4xx_hal_nor.c **** /**
 159:/home/phong/Documents/thesis/stm32f4/stm-idf/components/stm32f4xx_hal_driver/stm32f4xx_hal_nor.c ****   * @}
 160:/home/phong/Documents/thesis/stm32f4/stm-idf/components/stm32f4xx_hal_driver/stm32f4xx_hal_nor.c ****   */
 161:/home/phong/Documents/thesis/stm32f4/stm-idf/components/stm32f4xx_hal_driver/stm32f4xx_hal_nor.c ****       
 162:/home/phong/Documents/thesis/stm32f4/stm-idf/components/stm32f4xx_hal_driver/stm32f4xx_hal_nor.c **** /* Private macro -------------------------------------------------------------*/
 163:/home/phong/Documents/thesis/stm32f4/stm-idf/components/stm32f4xx_hal_driver/stm32f4xx_hal_nor.c **** /* Private variables ---------------------------------------------------------*/
 164:/home/phong/Documents/thesis/stm32f4/stm-idf/components/stm32f4xx_hal_driver/stm32f4xx_hal_nor.c **** /** @defgroup NOR_Private_Variables NOR Private Variables
 165:/home/phong/Documents/thesis/stm32f4/stm-idf/components/stm32f4xx_hal_driver/stm32f4xx_hal_nor.c ****   * @{
 166:/home/phong/Documents/thesis/stm32f4/stm-idf/components/stm32f4xx_hal_driver/stm32f4xx_hal_nor.c ****   */
 167:/home/phong/Documents/thesis/stm32f4/stm-idf/components/stm32f4xx_hal_driver/stm32f4xx_hal_nor.c **** 
 168:/home/phong/Documents/thesis/stm32f4/stm-idf/components/stm32f4xx_hal_driver/stm32f4xx_hal_nor.c **** static uint32_t uwNORMemoryDataWidth  = NOR_MEMORY_8B;
 169:/home/phong/Documents/thesis/stm32f4/stm-idf/components/stm32f4xx_hal_driver/stm32f4xx_hal_nor.c **** 
 170:/home/phong/Documents/thesis/stm32f4/stm-idf/components/stm32f4xx_hal_driver/stm32f4xx_hal_nor.c **** /**
 171:/home/phong/Documents/thesis/stm32f4/stm-idf/components/stm32f4xx_hal_driver/stm32f4xx_hal_nor.c ****   * @}
 172:/home/phong/Documents/thesis/stm32f4/stm-idf/components/stm32f4xx_hal_driver/stm32f4xx_hal_nor.c ****   */
 173:/home/phong/Documents/thesis/stm32f4/stm-idf/components/stm32f4xx_hal_driver/stm32f4xx_hal_nor.c **** 
 174:/home/phong/Documents/thesis/stm32f4/stm-idf/components/stm32f4xx_hal_driver/stm32f4xx_hal_nor.c **** /* Private functions ---------------------------------------------------------*/
 175:/home/phong/Documents/thesis/stm32f4/stm-idf/components/stm32f4xx_hal_driver/stm32f4xx_hal_nor.c **** /* Exported functions --------------------------------------------------------*/
 176:/home/phong/Documents/thesis/stm32f4/stm-idf/components/stm32f4xx_hal_driver/stm32f4xx_hal_nor.c **** /** @defgroup NOR_Exported_Functions NOR Exported Functions
 177:/home/phong/Documents/thesis/stm32f4/stm-idf/components/stm32f4xx_hal_driver/stm32f4xx_hal_nor.c ****   * @{
 178:/home/phong/Documents/thesis/stm32f4/stm-idf/components/stm32f4xx_hal_driver/stm32f4xx_hal_nor.c ****   */
 179:/home/phong/Documents/thesis/stm32f4/stm-idf/components/stm32f4xx_hal_driver/stm32f4xx_hal_nor.c **** 
 180:/home/phong/Documents/thesis/stm32f4/stm-idf/components/stm32f4xx_hal_driver/stm32f4xx_hal_nor.c **** /** @defgroup NOR_Exported_Functions_Group1 Initialization and de-initialization functions 
 181:/home/phong/Documents/thesis/stm32f4/stm-idf/components/stm32f4xx_hal_driver/stm32f4xx_hal_nor.c ****   * @brief    Initialization and Configuration functions 
 182:/home/phong/Documents/thesis/stm32f4/stm-idf/components/stm32f4xx_hal_driver/stm32f4xx_hal_nor.c ****   *
 183:/home/phong/Documents/thesis/stm32f4/stm-idf/components/stm32f4xx_hal_driver/stm32f4xx_hal_nor.c ****   @verbatim    
 184:/home/phong/Documents/thesis/stm32f4/stm-idf/components/stm32f4xx_hal_driver/stm32f4xx_hal_nor.c ****   ==============================================================================
 185:/home/phong/Documents/thesis/stm32f4/stm-idf/components/stm32f4xx_hal_driver/stm32f4xx_hal_nor.c ****            ##### NOR Initialization and de_initialization functions #####
 186:/home/phong/Documents/thesis/stm32f4/stm-idf/components/stm32f4xx_hal_driver/stm32f4xx_hal_nor.c ****   ==============================================================================
 187:/home/phong/Documents/thesis/stm32f4/stm-idf/components/stm32f4xx_hal_driver/stm32f4xx_hal_nor.c ****   [..]  
 188:/home/phong/Documents/thesis/stm32f4/stm-idf/components/stm32f4xx_hal_driver/stm32f4xx_hal_nor.c ****     This section provides functions allowing to initialize/de-initialize
 189:/home/phong/Documents/thesis/stm32f4/stm-idf/components/stm32f4xx_hal_driver/stm32f4xx_hal_nor.c ****     the NOR memory
 190:/home/phong/Documents/thesis/stm32f4/stm-idf/components/stm32f4xx_hal_driver/stm32f4xx_hal_nor.c ****   
 191:/home/phong/Documents/thesis/stm32f4/stm-idf/components/stm32f4xx_hal_driver/stm32f4xx_hal_nor.c **** @endverbatim
 192:/home/phong/Documents/thesis/stm32f4/stm-idf/components/stm32f4xx_hal_driver/stm32f4xx_hal_nor.c ****   * @{
 193:/home/phong/Documents/thesis/stm32f4/stm-idf/components/stm32f4xx_hal_driver/stm32f4xx_hal_nor.c ****   */
 194:/home/phong/Documents/thesis/stm32f4/stm-idf/components/stm32f4xx_hal_driver/stm32f4xx_hal_nor.c ****     
 195:/home/phong/Documents/thesis/stm32f4/stm-idf/components/stm32f4xx_hal_driver/stm32f4xx_hal_nor.c **** /**
 196:/home/phong/Documents/thesis/stm32f4/stm-idf/components/stm32f4xx_hal_driver/stm32f4xx_hal_nor.c ****   * @brief  Perform the NOR memory Initialization sequence
 197:/home/phong/Documents/thesis/stm32f4/stm-idf/components/stm32f4xx_hal_driver/stm32f4xx_hal_nor.c ****   * @param  hnor pointer to a NOR_HandleTypeDef structure that contains
 198:/home/phong/Documents/thesis/stm32f4/stm-idf/components/stm32f4xx_hal_driver/stm32f4xx_hal_nor.c ****   *                the configuration information for NOR module.
 199:/home/phong/Documents/thesis/stm32f4/stm-idf/components/stm32f4xx_hal_driver/stm32f4xx_hal_nor.c ****   * @param  Timing pointer to NOR control timing structure 
 200:/home/phong/Documents/thesis/stm32f4/stm-idf/components/stm32f4xx_hal_driver/stm32f4xx_hal_nor.c ****   * @param  ExtTiming pointer to NOR extended mode timing structure    
 201:/home/phong/Documents/thesis/stm32f4/stm-idf/components/stm32f4xx_hal_driver/stm32f4xx_hal_nor.c ****   * @retval HAL status
 202:/home/phong/Documents/thesis/stm32f4/stm-idf/components/stm32f4xx_hal_driver/stm32f4xx_hal_nor.c ****   */
ARM GAS  /tmp/ccYyp54X.s 			page 5


 203:/home/phong/Documents/thesis/stm32f4/stm-idf/components/stm32f4xx_hal_driver/stm32f4xx_hal_nor.c **** HAL_StatusTypeDef HAL_NOR_Init(NOR_HandleTypeDef *hnor, FMC_NORSRAM_TimingTypeDef *Timing, FMC_NORS
 204:/home/phong/Documents/thesis/stm32f4/stm-idf/components/stm32f4xx_hal_driver/stm32f4xx_hal_nor.c **** {
 205:/home/phong/Documents/thesis/stm32f4/stm-idf/components/stm32f4xx_hal_driver/stm32f4xx_hal_nor.c ****   /* Check the NOR handle parameter */
 206:/home/phong/Documents/thesis/stm32f4/stm-idf/components/stm32f4xx_hal_driver/stm32f4xx_hal_nor.c ****   if(hnor == NULL)
 207:/home/phong/Documents/thesis/stm32f4/stm-idf/components/stm32f4xx_hal_driver/stm32f4xx_hal_nor.c ****   {
 208:/home/phong/Documents/thesis/stm32f4/stm-idf/components/stm32f4xx_hal_driver/stm32f4xx_hal_nor.c ****      return HAL_ERROR;
 209:/home/phong/Documents/thesis/stm32f4/stm-idf/components/stm32f4xx_hal_driver/stm32f4xx_hal_nor.c ****   }
 210:/home/phong/Documents/thesis/stm32f4/stm-idf/components/stm32f4xx_hal_driver/stm32f4xx_hal_nor.c ****   
 211:/home/phong/Documents/thesis/stm32f4/stm-idf/components/stm32f4xx_hal_driver/stm32f4xx_hal_nor.c ****   if(hnor->State == HAL_NOR_STATE_RESET)
 212:/home/phong/Documents/thesis/stm32f4/stm-idf/components/stm32f4xx_hal_driver/stm32f4xx_hal_nor.c ****   {
 213:/home/phong/Documents/thesis/stm32f4/stm-idf/components/stm32f4xx_hal_driver/stm32f4xx_hal_nor.c ****     /* Allocate lock resource and initialize it */
 214:/home/phong/Documents/thesis/stm32f4/stm-idf/components/stm32f4xx_hal_driver/stm32f4xx_hal_nor.c ****     hnor->Lock = HAL_UNLOCKED;
 215:/home/phong/Documents/thesis/stm32f4/stm-idf/components/stm32f4xx_hal_driver/stm32f4xx_hal_nor.c **** 
 216:/home/phong/Documents/thesis/stm32f4/stm-idf/components/stm32f4xx_hal_driver/stm32f4xx_hal_nor.c **** #if (USE_HAL_NOR_REGISTER_CALLBACKS == 1)
 217:/home/phong/Documents/thesis/stm32f4/stm-idf/components/stm32f4xx_hal_driver/stm32f4xx_hal_nor.c ****     if(hnor->MspInitCallback == NULL)
 218:/home/phong/Documents/thesis/stm32f4/stm-idf/components/stm32f4xx_hal_driver/stm32f4xx_hal_nor.c ****     {
 219:/home/phong/Documents/thesis/stm32f4/stm-idf/components/stm32f4xx_hal_driver/stm32f4xx_hal_nor.c ****       hnor->MspInitCallback = HAL_NOR_MspInit;
 220:/home/phong/Documents/thesis/stm32f4/stm-idf/components/stm32f4xx_hal_driver/stm32f4xx_hal_nor.c ****     }
 221:/home/phong/Documents/thesis/stm32f4/stm-idf/components/stm32f4xx_hal_driver/stm32f4xx_hal_nor.c **** 
 222:/home/phong/Documents/thesis/stm32f4/stm-idf/components/stm32f4xx_hal_driver/stm32f4xx_hal_nor.c ****     /* Init the low level hardware */
 223:/home/phong/Documents/thesis/stm32f4/stm-idf/components/stm32f4xx_hal_driver/stm32f4xx_hal_nor.c ****     hnor->MspInitCallback(hnor);
 224:/home/phong/Documents/thesis/stm32f4/stm-idf/components/stm32f4xx_hal_driver/stm32f4xx_hal_nor.c **** #else
 225:/home/phong/Documents/thesis/stm32f4/stm-idf/components/stm32f4xx_hal_driver/stm32f4xx_hal_nor.c ****     /* Initialize the low level hardware (MSP) */
 226:/home/phong/Documents/thesis/stm32f4/stm-idf/components/stm32f4xx_hal_driver/stm32f4xx_hal_nor.c ****     HAL_NOR_MspInit(hnor);
 227:/home/phong/Documents/thesis/stm32f4/stm-idf/components/stm32f4xx_hal_driver/stm32f4xx_hal_nor.c **** #endif /* (USE_HAL_NOR_REGISTER_CALLBACKS) */
 228:/home/phong/Documents/thesis/stm32f4/stm-idf/components/stm32f4xx_hal_driver/stm32f4xx_hal_nor.c ****   }
 229:/home/phong/Documents/thesis/stm32f4/stm-idf/components/stm32f4xx_hal_driver/stm32f4xx_hal_nor.c ****   
 230:/home/phong/Documents/thesis/stm32f4/stm-idf/components/stm32f4xx_hal_driver/stm32f4xx_hal_nor.c ****   /* Initialize NOR control Interface */
 231:/home/phong/Documents/thesis/stm32f4/stm-idf/components/stm32f4xx_hal_driver/stm32f4xx_hal_nor.c ****   FMC_NORSRAM_Init(hnor->Instance, &(hnor->Init));
 232:/home/phong/Documents/thesis/stm32f4/stm-idf/components/stm32f4xx_hal_driver/stm32f4xx_hal_nor.c **** 
 233:/home/phong/Documents/thesis/stm32f4/stm-idf/components/stm32f4xx_hal_driver/stm32f4xx_hal_nor.c ****   /* Initialize NOR timing Interface */
 234:/home/phong/Documents/thesis/stm32f4/stm-idf/components/stm32f4xx_hal_driver/stm32f4xx_hal_nor.c ****   FMC_NORSRAM_Timing_Init(hnor->Instance, Timing, hnor->Init.NSBank); 
 235:/home/phong/Documents/thesis/stm32f4/stm-idf/components/stm32f4xx_hal_driver/stm32f4xx_hal_nor.c **** 
 236:/home/phong/Documents/thesis/stm32f4/stm-idf/components/stm32f4xx_hal_driver/stm32f4xx_hal_nor.c ****   /* Initialize NOR extended mode timing Interface */
 237:/home/phong/Documents/thesis/stm32f4/stm-idf/components/stm32f4xx_hal_driver/stm32f4xx_hal_nor.c ****   FMC_NORSRAM_Extended_Timing_Init(hnor->Extended, ExtTiming, hnor->Init.NSBank, hnor->Init.Extende
 238:/home/phong/Documents/thesis/stm32f4/stm-idf/components/stm32f4xx_hal_driver/stm32f4xx_hal_nor.c **** 
 239:/home/phong/Documents/thesis/stm32f4/stm-idf/components/stm32f4xx_hal_driver/stm32f4xx_hal_nor.c ****   /* Enable the NORSRAM device */
 240:/home/phong/Documents/thesis/stm32f4/stm-idf/components/stm32f4xx_hal_driver/stm32f4xx_hal_nor.c ****   __FMC_NORSRAM_ENABLE(hnor->Instance, hnor->Init.NSBank);
 241:/home/phong/Documents/thesis/stm32f4/stm-idf/components/stm32f4xx_hal_driver/stm32f4xx_hal_nor.c **** 
 242:/home/phong/Documents/thesis/stm32f4/stm-idf/components/stm32f4xx_hal_driver/stm32f4xx_hal_nor.c ****   /* Initialize NOR Memory Data Width*/
 243:/home/phong/Documents/thesis/stm32f4/stm-idf/components/stm32f4xx_hal_driver/stm32f4xx_hal_nor.c ****   if (hnor->Init.MemoryDataWidth == FMC_NORSRAM_MEM_BUS_WIDTH_8)
 244:/home/phong/Documents/thesis/stm32f4/stm-idf/components/stm32f4xx_hal_driver/stm32f4xx_hal_nor.c ****   {
 245:/home/phong/Documents/thesis/stm32f4/stm-idf/components/stm32f4xx_hal_driver/stm32f4xx_hal_nor.c ****     uwNORMemoryDataWidth = NOR_MEMORY_8B;
 246:/home/phong/Documents/thesis/stm32f4/stm-idf/components/stm32f4xx_hal_driver/stm32f4xx_hal_nor.c ****   }
 247:/home/phong/Documents/thesis/stm32f4/stm-idf/components/stm32f4xx_hal_driver/stm32f4xx_hal_nor.c ****   else
 248:/home/phong/Documents/thesis/stm32f4/stm-idf/components/stm32f4xx_hal_driver/stm32f4xx_hal_nor.c ****   {
 249:/home/phong/Documents/thesis/stm32f4/stm-idf/components/stm32f4xx_hal_driver/stm32f4xx_hal_nor.c ****     uwNORMemoryDataWidth = NOR_MEMORY_16B;
 250:/home/phong/Documents/thesis/stm32f4/stm-idf/components/stm32f4xx_hal_driver/stm32f4xx_hal_nor.c ****   }
 251:/home/phong/Documents/thesis/stm32f4/stm-idf/components/stm32f4xx_hal_driver/stm32f4xx_hal_nor.c **** 
 252:/home/phong/Documents/thesis/stm32f4/stm-idf/components/stm32f4xx_hal_driver/stm32f4xx_hal_nor.c ****   /* Check the NOR controller state */
 253:/home/phong/Documents/thesis/stm32f4/stm-idf/components/stm32f4xx_hal_driver/stm32f4xx_hal_nor.c ****   hnor->State = HAL_NOR_STATE_READY; 
 254:/home/phong/Documents/thesis/stm32f4/stm-idf/components/stm32f4xx_hal_driver/stm32f4xx_hal_nor.c ****   
 255:/home/phong/Documents/thesis/stm32f4/stm-idf/components/stm32f4xx_hal_driver/stm32f4xx_hal_nor.c ****   return HAL_OK;
 256:/home/phong/Documents/thesis/stm32f4/stm-idf/components/stm32f4xx_hal_driver/stm32f4xx_hal_nor.c **** }
 257:/home/phong/Documents/thesis/stm32f4/stm-idf/components/stm32f4xx_hal_driver/stm32f4xx_hal_nor.c **** 
 258:/home/phong/Documents/thesis/stm32f4/stm-idf/components/stm32f4xx_hal_driver/stm32f4xx_hal_nor.c **** /**
 259:/home/phong/Documents/thesis/stm32f4/stm-idf/components/stm32f4xx_hal_driver/stm32f4xx_hal_nor.c ****   * @brief  Perform NOR memory De-Initialization sequence
ARM GAS  /tmp/ccYyp54X.s 			page 6


 260:/home/phong/Documents/thesis/stm32f4/stm-idf/components/stm32f4xx_hal_driver/stm32f4xx_hal_nor.c ****   * @param  hnor pointer to a NOR_HandleTypeDef structure that contains
 261:/home/phong/Documents/thesis/stm32f4/stm-idf/components/stm32f4xx_hal_driver/stm32f4xx_hal_nor.c ****   *                the configuration information for NOR module.
 262:/home/phong/Documents/thesis/stm32f4/stm-idf/components/stm32f4xx_hal_driver/stm32f4xx_hal_nor.c ****   * @retval HAL status
 263:/home/phong/Documents/thesis/stm32f4/stm-idf/components/stm32f4xx_hal_driver/stm32f4xx_hal_nor.c ****   */
 264:/home/phong/Documents/thesis/stm32f4/stm-idf/components/stm32f4xx_hal_driver/stm32f4xx_hal_nor.c **** HAL_StatusTypeDef HAL_NOR_DeInit(NOR_HandleTypeDef *hnor)  
 265:/home/phong/Documents/thesis/stm32f4/stm-idf/components/stm32f4xx_hal_driver/stm32f4xx_hal_nor.c **** {
 266:/home/phong/Documents/thesis/stm32f4/stm-idf/components/stm32f4xx_hal_driver/stm32f4xx_hal_nor.c **** #if (USE_HAL_NOR_REGISTER_CALLBACKS == 1)
 267:/home/phong/Documents/thesis/stm32f4/stm-idf/components/stm32f4xx_hal_driver/stm32f4xx_hal_nor.c ****   if(hnor->MspDeInitCallback == NULL)
 268:/home/phong/Documents/thesis/stm32f4/stm-idf/components/stm32f4xx_hal_driver/stm32f4xx_hal_nor.c ****   {
 269:/home/phong/Documents/thesis/stm32f4/stm-idf/components/stm32f4xx_hal_driver/stm32f4xx_hal_nor.c ****     hnor->MspDeInitCallback = HAL_NOR_MspDeInit;
 270:/home/phong/Documents/thesis/stm32f4/stm-idf/components/stm32f4xx_hal_driver/stm32f4xx_hal_nor.c ****   }
 271:/home/phong/Documents/thesis/stm32f4/stm-idf/components/stm32f4xx_hal_driver/stm32f4xx_hal_nor.c **** 
 272:/home/phong/Documents/thesis/stm32f4/stm-idf/components/stm32f4xx_hal_driver/stm32f4xx_hal_nor.c ****   /* DeInit the low level hardware */
 273:/home/phong/Documents/thesis/stm32f4/stm-idf/components/stm32f4xx_hal_driver/stm32f4xx_hal_nor.c ****   hnor->MspDeInitCallback(hnor);
 274:/home/phong/Documents/thesis/stm32f4/stm-idf/components/stm32f4xx_hal_driver/stm32f4xx_hal_nor.c **** #else
 275:/home/phong/Documents/thesis/stm32f4/stm-idf/components/stm32f4xx_hal_driver/stm32f4xx_hal_nor.c ****   /* De-Initialize the low level hardware (MSP) */
 276:/home/phong/Documents/thesis/stm32f4/stm-idf/components/stm32f4xx_hal_driver/stm32f4xx_hal_nor.c ****   HAL_NOR_MspDeInit(hnor);
 277:/home/phong/Documents/thesis/stm32f4/stm-idf/components/stm32f4xx_hal_driver/stm32f4xx_hal_nor.c **** #endif /* (USE_HAL_NOR_REGISTER_CALLBACKS) */
 278:/home/phong/Documents/thesis/stm32f4/stm-idf/components/stm32f4xx_hal_driver/stm32f4xx_hal_nor.c **** 
 279:/home/phong/Documents/thesis/stm32f4/stm-idf/components/stm32f4xx_hal_driver/stm32f4xx_hal_nor.c ****   /* Configure the NOR registers with their reset values */
 280:/home/phong/Documents/thesis/stm32f4/stm-idf/components/stm32f4xx_hal_driver/stm32f4xx_hal_nor.c ****   FMC_NORSRAM_DeInit(hnor->Instance, hnor->Extended, hnor->Init.NSBank);
 281:/home/phong/Documents/thesis/stm32f4/stm-idf/components/stm32f4xx_hal_driver/stm32f4xx_hal_nor.c ****   
 282:/home/phong/Documents/thesis/stm32f4/stm-idf/components/stm32f4xx_hal_driver/stm32f4xx_hal_nor.c ****   /* Update the NOR controller state */
 283:/home/phong/Documents/thesis/stm32f4/stm-idf/components/stm32f4xx_hal_driver/stm32f4xx_hal_nor.c ****   hnor->State = HAL_NOR_STATE_RESET;
 284:/home/phong/Documents/thesis/stm32f4/stm-idf/components/stm32f4xx_hal_driver/stm32f4xx_hal_nor.c **** 
 285:/home/phong/Documents/thesis/stm32f4/stm-idf/components/stm32f4xx_hal_driver/stm32f4xx_hal_nor.c ****   /* Release Lock */
 286:/home/phong/Documents/thesis/stm32f4/stm-idf/components/stm32f4xx_hal_driver/stm32f4xx_hal_nor.c ****   __HAL_UNLOCK(hnor);
 287:/home/phong/Documents/thesis/stm32f4/stm-idf/components/stm32f4xx_hal_driver/stm32f4xx_hal_nor.c **** 
 288:/home/phong/Documents/thesis/stm32f4/stm-idf/components/stm32f4xx_hal_driver/stm32f4xx_hal_nor.c ****   return HAL_OK;
 289:/home/phong/Documents/thesis/stm32f4/stm-idf/components/stm32f4xx_hal_driver/stm32f4xx_hal_nor.c **** }
 290:/home/phong/Documents/thesis/stm32f4/stm-idf/components/stm32f4xx_hal_driver/stm32f4xx_hal_nor.c **** 
 291:/home/phong/Documents/thesis/stm32f4/stm-idf/components/stm32f4xx_hal_driver/stm32f4xx_hal_nor.c **** /**
 292:/home/phong/Documents/thesis/stm32f4/stm-idf/components/stm32f4xx_hal_driver/stm32f4xx_hal_nor.c ****   * @brief  NOR MSP Init
 293:/home/phong/Documents/thesis/stm32f4/stm-idf/components/stm32f4xx_hal_driver/stm32f4xx_hal_nor.c ****   * @param  hnor pointer to a NOR_HandleTypeDef structure that contains
 294:/home/phong/Documents/thesis/stm32f4/stm-idf/components/stm32f4xx_hal_driver/stm32f4xx_hal_nor.c ****   *                the configuration information for NOR module.
 295:/home/phong/Documents/thesis/stm32f4/stm-idf/components/stm32f4xx_hal_driver/stm32f4xx_hal_nor.c ****   * @retval None
 296:/home/phong/Documents/thesis/stm32f4/stm-idf/components/stm32f4xx_hal_driver/stm32f4xx_hal_nor.c ****   */
 297:/home/phong/Documents/thesis/stm32f4/stm-idf/components/stm32f4xx_hal_driver/stm32f4xx_hal_nor.c **** __weak void HAL_NOR_MspInit(NOR_HandleTypeDef *hnor)
 298:/home/phong/Documents/thesis/stm32f4/stm-idf/components/stm32f4xx_hal_driver/stm32f4xx_hal_nor.c **** {
  28              		.loc 1 298 0
  29              		.cfi_startproc
  30              		@ args = 0, pretend = 0, frame = 0
  31              		@ frame_needed = 0, uses_anonymous_args = 0
  32              		@ link register save eliminated.
  33              	.LVL0:
  34 0000 7047     		bx	lr
  35              		.cfi_endproc
  36              	.LFE132:
  38              		.section	.text.HAL_NOR_Init,"ax",%progbits
  39              		.align	1
  40              		.global	HAL_NOR_Init
  41              		.syntax unified
  42              		.thumb
  43              		.thumb_func
  44              		.fpu fpv4-sp-d16
  46              	HAL_NOR_Init:
  47              	.LFB130:
ARM GAS  /tmp/ccYyp54X.s 			page 7


 204:/home/phong/Documents/thesis/stm32f4/stm-idf/components/stm32f4xx_hal_driver/stm32f4xx_hal_nor.c ****   /* Check the NOR handle parameter */
  48              		.loc 1 204 0
  49              		.cfi_startproc
  50              		@ args = 0, pretend = 0, frame = 0
  51              		@ frame_needed = 0, uses_anonymous_args = 0
  52              	.LVL1:
 206:/home/phong/Documents/thesis/stm32f4/stm-idf/components/stm32f4xx_hal_driver/stm32f4xx_hal_nor.c ****   {
  53              		.loc 1 206 0
  54 0000 88B3     		cbz	r0, .L7
 204:/home/phong/Documents/thesis/stm32f4/stm-idf/components/stm32f4xx_hal_driver/stm32f4xx_hal_nor.c ****   /* Check the NOR handle parameter */
  55              		.loc 1 204 0
  56 0002 70B5     		push	{r4, r5, r6, lr}
  57              	.LCFI0:
  58              		.cfi_def_cfa_offset 16
  59              		.cfi_offset 4, -16
  60              		.cfi_offset 5, -12
  61              		.cfi_offset 6, -8
  62              		.cfi_offset 14, -4
  63 0004 0446     		mov	r4, r0
  64 0006 1546     		mov	r5, r2
  65 0008 0E46     		mov	r6, r1
 211:/home/phong/Documents/thesis/stm32f4/stm-idf/components/stm32f4xx_hal_driver/stm32f4xx_hal_nor.c ****   {
  66              		.loc 1 211 0
  67 000a 90F84930 		ldrb	r3, [r0, #73]	@ zero_extendqisi2
  68 000e 0BB3     		cbz	r3, .L12
  69              	.LVL2:
  70              	.L4:
 231:/home/phong/Documents/thesis/stm32f4/stm-idf/components/stm32f4xx_hal_driver/stm32f4xx_hal_nor.c **** 
  71              		.loc 1 231 0
  72 0010 04F10801 		add	r1, r4, #8
  73 0014 2068     		ldr	r0, [r4]
  74 0016 FFF7FEFF 		bl	FSMC_NORSRAM_Init
  75              	.LVL3:
 234:/home/phong/Documents/thesis/stm32f4/stm-idf/components/stm32f4xx_hal_driver/stm32f4xx_hal_nor.c **** 
  76              		.loc 1 234 0
  77 001a A268     		ldr	r2, [r4, #8]
  78 001c 3146     		mov	r1, r6
  79 001e 2068     		ldr	r0, [r4]
  80 0020 FFF7FEFF 		bl	FSMC_NORSRAM_Timing_Init
  81              	.LVL4:
 237:/home/phong/Documents/thesis/stm32f4/stm-idf/components/stm32f4xx_hal_driver/stm32f4xx_hal_nor.c **** 
  82              		.loc 1 237 0
  83 0024 236B     		ldr	r3, [r4, #48]
  84 0026 A268     		ldr	r2, [r4, #8]
  85 0028 2946     		mov	r1, r5
  86 002a 6068     		ldr	r0, [r4, #4]
  87 002c FFF7FEFF 		bl	FSMC_NORSRAM_Extended_Timing_Init
  88              	.LVL5:
 240:/home/phong/Documents/thesis/stm32f4/stm-idf/components/stm32f4xx_hal_driver/stm32f4xx_hal_nor.c **** 
  89              		.loc 1 240 0
  90 0030 2268     		ldr	r2, [r4]
  91 0032 A168     		ldr	r1, [r4, #8]
  92 0034 52F82130 		ldr	r3, [r2, r1, lsl #2]
  93 0038 43F00103 		orr	r3, r3, #1
  94 003c 42F82130 		str	r3, [r2, r1, lsl #2]
 243:/home/phong/Documents/thesis/stm32f4/stm-idf/components/stm32f4xx_hal_driver/stm32f4xx_hal_nor.c ****   {
  95              		.loc 1 243 0
ARM GAS  /tmp/ccYyp54X.s 			page 8


  96 0040 6369     		ldr	r3, [r4, #20]
  97 0042 63B9     		cbnz	r3, .L5
 245:/home/phong/Documents/thesis/stm32f4/stm-idf/components/stm32f4xx_hal_driver/stm32f4xx_hal_nor.c ****   }
  98              		.loc 1 245 0
  99 0044 0022     		movs	r2, #0
 100 0046 094B     		ldr	r3, .L13
 101 0048 1A60     		str	r2, [r3]
 102              	.L6:
 253:/home/phong/Documents/thesis/stm32f4/stm-idf/components/stm32f4xx_hal_driver/stm32f4xx_hal_nor.c ****   
 103              		.loc 1 253 0
 104 004a 0123     		movs	r3, #1
 105 004c 84F84930 		strb	r3, [r4, #73]
 255:/home/phong/Documents/thesis/stm32f4/stm-idf/components/stm32f4xx_hal_driver/stm32f4xx_hal_nor.c **** }
 106              		.loc 1 255 0
 107 0050 0020     		movs	r0, #0
 108 0052 70BD     		pop	{r4, r5, r6, pc}
 109              	.LVL6:
 110              	.L12:
 214:/home/phong/Documents/thesis/stm32f4/stm-idf/components/stm32f4xx_hal_driver/stm32f4xx_hal_nor.c **** 
 111              		.loc 1 214 0
 112 0054 80F84830 		strb	r3, [r0, #72]
 226:/home/phong/Documents/thesis/stm32f4/stm-idf/components/stm32f4xx_hal_driver/stm32f4xx_hal_nor.c **** #endif /* (USE_HAL_NOR_REGISTER_CALLBACKS) */
 113              		.loc 1 226 0
 114 0058 FFF7FEFF 		bl	HAL_NOR_MspInit
 115              	.LVL7:
 116 005c D8E7     		b	.L4
 117              	.L5:
 249:/home/phong/Documents/thesis/stm32f4/stm-idf/components/stm32f4xx_hal_driver/stm32f4xx_hal_nor.c ****   }
 118              		.loc 1 249 0
 119 005e 0122     		movs	r2, #1
 120 0060 024B     		ldr	r3, .L13
 121 0062 1A60     		str	r2, [r3]
 122 0064 F1E7     		b	.L6
 123              	.LVL8:
 124              	.L7:
 125              	.LCFI1:
 126              		.cfi_def_cfa_offset 0
 127              		.cfi_restore 4
 128              		.cfi_restore 5
 129              		.cfi_restore 6
 130              		.cfi_restore 14
 208:/home/phong/Documents/thesis/stm32f4/stm-idf/components/stm32f4xx_hal_driver/stm32f4xx_hal_nor.c ****   }
 131              		.loc 1 208 0
 132 0066 0120     		movs	r0, #1
 133              	.LVL9:
 134 0068 7047     		bx	lr
 135              	.L14:
 136 006a 00BF     		.align	2
 137              	.L13:
 138 006c 00000000 		.word	.LANCHOR0
 139              		.cfi_endproc
 140              	.LFE130:
 142              		.section	.text.HAL_NOR_MspDeInit,"ax",%progbits
 143              		.align	1
 144              		.weak	HAL_NOR_MspDeInit
 145              		.syntax unified
 146              		.thumb
ARM GAS  /tmp/ccYyp54X.s 			page 9


 147              		.thumb_func
 148              		.fpu fpv4-sp-d16
 150              	HAL_NOR_MspDeInit:
 151              	.LFB133:
 299:/home/phong/Documents/thesis/stm32f4/stm-idf/components/stm32f4xx_hal_driver/stm32f4xx_hal_nor.c ****   /* Prevent unused argument(s) compilation warning */
 300:/home/phong/Documents/thesis/stm32f4/stm-idf/components/stm32f4xx_hal_driver/stm32f4xx_hal_nor.c ****   UNUSED(hnor);
 301:/home/phong/Documents/thesis/stm32f4/stm-idf/components/stm32f4xx_hal_driver/stm32f4xx_hal_nor.c ****   /* NOTE : This function Should not be modified, when the callback is needed,
 302:/home/phong/Documents/thesis/stm32f4/stm-idf/components/stm32f4xx_hal_driver/stm32f4xx_hal_nor.c ****             the HAL_NOR_MspInit could be implemented in the user file
 303:/home/phong/Documents/thesis/stm32f4/stm-idf/components/stm32f4xx_hal_driver/stm32f4xx_hal_nor.c ****    */ 
 304:/home/phong/Documents/thesis/stm32f4/stm-idf/components/stm32f4xx_hal_driver/stm32f4xx_hal_nor.c **** }
 305:/home/phong/Documents/thesis/stm32f4/stm-idf/components/stm32f4xx_hal_driver/stm32f4xx_hal_nor.c **** 
 306:/home/phong/Documents/thesis/stm32f4/stm-idf/components/stm32f4xx_hal_driver/stm32f4xx_hal_nor.c **** /**
 307:/home/phong/Documents/thesis/stm32f4/stm-idf/components/stm32f4xx_hal_driver/stm32f4xx_hal_nor.c ****   * @brief  NOR MSP DeInit
 308:/home/phong/Documents/thesis/stm32f4/stm-idf/components/stm32f4xx_hal_driver/stm32f4xx_hal_nor.c ****   * @param  hnor pointer to a NOR_HandleTypeDef structure that contains
 309:/home/phong/Documents/thesis/stm32f4/stm-idf/components/stm32f4xx_hal_driver/stm32f4xx_hal_nor.c ****   *                the configuration information for NOR module.
 310:/home/phong/Documents/thesis/stm32f4/stm-idf/components/stm32f4xx_hal_driver/stm32f4xx_hal_nor.c ****   * @retval None
 311:/home/phong/Documents/thesis/stm32f4/stm-idf/components/stm32f4xx_hal_driver/stm32f4xx_hal_nor.c ****   */
 312:/home/phong/Documents/thesis/stm32f4/stm-idf/components/stm32f4xx_hal_driver/stm32f4xx_hal_nor.c **** __weak void HAL_NOR_MspDeInit(NOR_HandleTypeDef *hnor)
 313:/home/phong/Documents/thesis/stm32f4/stm-idf/components/stm32f4xx_hal_driver/stm32f4xx_hal_nor.c **** {
 152              		.loc 1 313 0
 153              		.cfi_startproc
 154              		@ args = 0, pretend = 0, frame = 0
 155              		@ frame_needed = 0, uses_anonymous_args = 0
 156              		@ link register save eliminated.
 157              	.LVL10:
 158 0000 7047     		bx	lr
 159              		.cfi_endproc
 160              	.LFE133:
 162              		.section	.text.HAL_NOR_DeInit,"ax",%progbits
 163              		.align	1
 164              		.global	HAL_NOR_DeInit
 165              		.syntax unified
 166              		.thumb
 167              		.thumb_func
 168              		.fpu fpv4-sp-d16
 170              	HAL_NOR_DeInit:
 171              	.LFB131:
 265:/home/phong/Documents/thesis/stm32f4/stm-idf/components/stm32f4xx_hal_driver/stm32f4xx_hal_nor.c **** #if (USE_HAL_NOR_REGISTER_CALLBACKS == 1)
 172              		.loc 1 265 0
 173              		.cfi_startproc
 174              		@ args = 0, pretend = 0, frame = 0
 175              		@ frame_needed = 0, uses_anonymous_args = 0
 176              	.LVL11:
 265:/home/phong/Documents/thesis/stm32f4/stm-idf/components/stm32f4xx_hal_driver/stm32f4xx_hal_nor.c **** #if (USE_HAL_NOR_REGISTER_CALLBACKS == 1)
 177              		.loc 1 265 0
 178 0000 10B5     		push	{r4, lr}
 179              	.LCFI2:
 180              		.cfi_def_cfa_offset 8
 181              		.cfi_offset 4, -8
 182              		.cfi_offset 14, -4
 183 0002 0446     		mov	r4, r0
 276:/home/phong/Documents/thesis/stm32f4/stm-idf/components/stm32f4xx_hal_driver/stm32f4xx_hal_nor.c **** #endif /* (USE_HAL_NOR_REGISTER_CALLBACKS) */
 184              		.loc 1 276 0
 185 0004 FFF7FEFF 		bl	HAL_NOR_MspDeInit
 186              	.LVL12:
 280:/home/phong/Documents/thesis/stm32f4/stm-idf/components/stm32f4xx_hal_driver/stm32f4xx_hal_nor.c ****   
 187              		.loc 1 280 0
ARM GAS  /tmp/ccYyp54X.s 			page 10


 188 0008 A268     		ldr	r2, [r4, #8]
 189 000a 6168     		ldr	r1, [r4, #4]
 190 000c 2068     		ldr	r0, [r4]
 191 000e FFF7FEFF 		bl	FSMC_NORSRAM_DeInit
 192              	.LVL13:
 283:/home/phong/Documents/thesis/stm32f4/stm-idf/components/stm32f4xx_hal_driver/stm32f4xx_hal_nor.c **** 
 193              		.loc 1 283 0
 194 0012 0020     		movs	r0, #0
 195 0014 84F84900 		strb	r0, [r4, #73]
 286:/home/phong/Documents/thesis/stm32f4/stm-idf/components/stm32f4xx_hal_driver/stm32f4xx_hal_nor.c **** 
 196              		.loc 1 286 0
 197 0018 84F84800 		strb	r0, [r4, #72]
 289:/home/phong/Documents/thesis/stm32f4/stm-idf/components/stm32f4xx_hal_driver/stm32f4xx_hal_nor.c **** 
 198              		.loc 1 289 0
 199 001c 10BD     		pop	{r4, pc}
 200              		.cfi_endproc
 201              	.LFE131:
 203              		.section	.text.HAL_NOR_MspWait,"ax",%progbits
 204              		.align	1
 205              		.weak	HAL_NOR_MspWait
 206              		.syntax unified
 207              		.thumb
 208              		.thumb_func
 209              		.fpu fpv4-sp-d16
 211              	HAL_NOR_MspWait:
 212              	.LFB134:
 314:/home/phong/Documents/thesis/stm32f4/stm-idf/components/stm32f4xx_hal_driver/stm32f4xx_hal_nor.c ****   /* Prevent unused argument(s) compilation warning */
 315:/home/phong/Documents/thesis/stm32f4/stm-idf/components/stm32f4xx_hal_driver/stm32f4xx_hal_nor.c ****   UNUSED(hnor);
 316:/home/phong/Documents/thesis/stm32f4/stm-idf/components/stm32f4xx_hal_driver/stm32f4xx_hal_nor.c ****   /* NOTE : This function Should not be modified, when the callback is needed,
 317:/home/phong/Documents/thesis/stm32f4/stm-idf/components/stm32f4xx_hal_driver/stm32f4xx_hal_nor.c ****             the HAL_NOR_MspDeInit could be implemented in the user file
 318:/home/phong/Documents/thesis/stm32f4/stm-idf/components/stm32f4xx_hal_driver/stm32f4xx_hal_nor.c ****    */ 
 319:/home/phong/Documents/thesis/stm32f4/stm-idf/components/stm32f4xx_hal_driver/stm32f4xx_hal_nor.c **** }
 320:/home/phong/Documents/thesis/stm32f4/stm-idf/components/stm32f4xx_hal_driver/stm32f4xx_hal_nor.c **** 
 321:/home/phong/Documents/thesis/stm32f4/stm-idf/components/stm32f4xx_hal_driver/stm32f4xx_hal_nor.c **** /**
 322:/home/phong/Documents/thesis/stm32f4/stm-idf/components/stm32f4xx_hal_driver/stm32f4xx_hal_nor.c ****   * @brief  NOR MSP Wait for Ready/Busy signal
 323:/home/phong/Documents/thesis/stm32f4/stm-idf/components/stm32f4xx_hal_driver/stm32f4xx_hal_nor.c ****   * @param  hnor pointer to a NOR_HandleTypeDef structure that contains
 324:/home/phong/Documents/thesis/stm32f4/stm-idf/components/stm32f4xx_hal_driver/stm32f4xx_hal_nor.c ****   *                the configuration information for NOR module.
 325:/home/phong/Documents/thesis/stm32f4/stm-idf/components/stm32f4xx_hal_driver/stm32f4xx_hal_nor.c ****   * @param  Timeout Maximum timeout value
 326:/home/phong/Documents/thesis/stm32f4/stm-idf/components/stm32f4xx_hal_driver/stm32f4xx_hal_nor.c ****   * @retval None
 327:/home/phong/Documents/thesis/stm32f4/stm-idf/components/stm32f4xx_hal_driver/stm32f4xx_hal_nor.c ****   */
 328:/home/phong/Documents/thesis/stm32f4/stm-idf/components/stm32f4xx_hal_driver/stm32f4xx_hal_nor.c **** __weak void HAL_NOR_MspWait(NOR_HandleTypeDef *hnor, uint32_t Timeout)
 329:/home/phong/Documents/thesis/stm32f4/stm-idf/components/stm32f4xx_hal_driver/stm32f4xx_hal_nor.c **** {
 213              		.loc 1 329 0
 214              		.cfi_startproc
 215              		@ args = 0, pretend = 0, frame = 0
 216              		@ frame_needed = 0, uses_anonymous_args = 0
 217              		@ link register save eliminated.
 218              	.LVL14:
 219 0000 7047     		bx	lr
 220              		.cfi_endproc
 221              	.LFE134:
 223              		.section	.text.HAL_NOR_Read_ID,"ax",%progbits
 224              		.align	1
 225              		.global	HAL_NOR_Read_ID
 226              		.syntax unified
 227              		.thumb
 228              		.thumb_func
ARM GAS  /tmp/ccYyp54X.s 			page 11


 229              		.fpu fpv4-sp-d16
 231              	HAL_NOR_Read_ID:
 232              	.LFB135:
 330:/home/phong/Documents/thesis/stm32f4/stm-idf/components/stm32f4xx_hal_driver/stm32f4xx_hal_nor.c ****   /* Prevent unused argument(s) compilation warning */
 331:/home/phong/Documents/thesis/stm32f4/stm-idf/components/stm32f4xx_hal_driver/stm32f4xx_hal_nor.c ****   UNUSED(hnor);
 332:/home/phong/Documents/thesis/stm32f4/stm-idf/components/stm32f4xx_hal_driver/stm32f4xx_hal_nor.c ****   UNUSED(Timeout);
 333:/home/phong/Documents/thesis/stm32f4/stm-idf/components/stm32f4xx_hal_driver/stm32f4xx_hal_nor.c ****   
 334:/home/phong/Documents/thesis/stm32f4/stm-idf/components/stm32f4xx_hal_driver/stm32f4xx_hal_nor.c ****   /* NOTE : This function Should not be modified, when the callback is needed,
 335:/home/phong/Documents/thesis/stm32f4/stm-idf/components/stm32f4xx_hal_driver/stm32f4xx_hal_nor.c ****             the HAL_NOR_MspWait could be implemented in the user file
 336:/home/phong/Documents/thesis/stm32f4/stm-idf/components/stm32f4xx_hal_driver/stm32f4xx_hal_nor.c ****    */ 
 337:/home/phong/Documents/thesis/stm32f4/stm-idf/components/stm32f4xx_hal_driver/stm32f4xx_hal_nor.c **** }
 338:/home/phong/Documents/thesis/stm32f4/stm-idf/components/stm32f4xx_hal_driver/stm32f4xx_hal_nor.c ****   
 339:/home/phong/Documents/thesis/stm32f4/stm-idf/components/stm32f4xx_hal_driver/stm32f4xx_hal_nor.c **** /**
 340:/home/phong/Documents/thesis/stm32f4/stm-idf/components/stm32f4xx_hal_driver/stm32f4xx_hal_nor.c ****   * @}
 341:/home/phong/Documents/thesis/stm32f4/stm-idf/components/stm32f4xx_hal_driver/stm32f4xx_hal_nor.c ****   */
 342:/home/phong/Documents/thesis/stm32f4/stm-idf/components/stm32f4xx_hal_driver/stm32f4xx_hal_nor.c **** 
 343:/home/phong/Documents/thesis/stm32f4/stm-idf/components/stm32f4xx_hal_driver/stm32f4xx_hal_nor.c **** /** @defgroup NOR_Exported_Functions_Group2 Input and Output functions 
 344:/home/phong/Documents/thesis/stm32f4/stm-idf/components/stm32f4xx_hal_driver/stm32f4xx_hal_nor.c ****   * @brief    Input Output and memory control functions 
 345:/home/phong/Documents/thesis/stm32f4/stm-idf/components/stm32f4xx_hal_driver/stm32f4xx_hal_nor.c ****   *
 346:/home/phong/Documents/thesis/stm32f4/stm-idf/components/stm32f4xx_hal_driver/stm32f4xx_hal_nor.c ****   @verbatim    
 347:/home/phong/Documents/thesis/stm32f4/stm-idf/components/stm32f4xx_hal_driver/stm32f4xx_hal_nor.c ****   ==============================================================================
 348:/home/phong/Documents/thesis/stm32f4/stm-idf/components/stm32f4xx_hal_driver/stm32f4xx_hal_nor.c ****                 ##### NOR Input and Output functions #####
 349:/home/phong/Documents/thesis/stm32f4/stm-idf/components/stm32f4xx_hal_driver/stm32f4xx_hal_nor.c ****   ==============================================================================
 350:/home/phong/Documents/thesis/stm32f4/stm-idf/components/stm32f4xx_hal_driver/stm32f4xx_hal_nor.c ****   [..]  
 351:/home/phong/Documents/thesis/stm32f4/stm-idf/components/stm32f4xx_hal_driver/stm32f4xx_hal_nor.c ****     This section provides functions allowing to use and control the NOR memory
 352:/home/phong/Documents/thesis/stm32f4/stm-idf/components/stm32f4xx_hal_driver/stm32f4xx_hal_nor.c ****   
 353:/home/phong/Documents/thesis/stm32f4/stm-idf/components/stm32f4xx_hal_driver/stm32f4xx_hal_nor.c **** @endverbatim
 354:/home/phong/Documents/thesis/stm32f4/stm-idf/components/stm32f4xx_hal_driver/stm32f4xx_hal_nor.c ****   * @{
 355:/home/phong/Documents/thesis/stm32f4/stm-idf/components/stm32f4xx_hal_driver/stm32f4xx_hal_nor.c ****   */
 356:/home/phong/Documents/thesis/stm32f4/stm-idf/components/stm32f4xx_hal_driver/stm32f4xx_hal_nor.c ****   
 357:/home/phong/Documents/thesis/stm32f4/stm-idf/components/stm32f4xx_hal_driver/stm32f4xx_hal_nor.c **** /**
 358:/home/phong/Documents/thesis/stm32f4/stm-idf/components/stm32f4xx_hal_driver/stm32f4xx_hal_nor.c ****   * @brief  Read NOR flash IDs
 359:/home/phong/Documents/thesis/stm32f4/stm-idf/components/stm32f4xx_hal_driver/stm32f4xx_hal_nor.c ****   * @param  hnor pointer to a NOR_HandleTypeDef structure that contains
 360:/home/phong/Documents/thesis/stm32f4/stm-idf/components/stm32f4xx_hal_driver/stm32f4xx_hal_nor.c ****   *                the configuration information for NOR module.
 361:/home/phong/Documents/thesis/stm32f4/stm-idf/components/stm32f4xx_hal_driver/stm32f4xx_hal_nor.c ****   * @param  pNOR_ID  pointer to NOR ID structure
 362:/home/phong/Documents/thesis/stm32f4/stm-idf/components/stm32f4xx_hal_driver/stm32f4xx_hal_nor.c ****   * @retval HAL status
 363:/home/phong/Documents/thesis/stm32f4/stm-idf/components/stm32f4xx_hal_driver/stm32f4xx_hal_nor.c ****   */
 364:/home/phong/Documents/thesis/stm32f4/stm-idf/components/stm32f4xx_hal_driver/stm32f4xx_hal_nor.c **** HAL_StatusTypeDef HAL_NOR_Read_ID(NOR_HandleTypeDef *hnor, NOR_IDTypeDef *pNOR_ID)
 365:/home/phong/Documents/thesis/stm32f4/stm-idf/components/stm32f4xx_hal_driver/stm32f4xx_hal_nor.c **** {
 233              		.loc 1 365 0
 234              		.cfi_startproc
 235              		@ args = 0, pretend = 0, frame = 0
 236              		@ frame_needed = 0, uses_anonymous_args = 0
 237              		@ link register save eliminated.
 238              	.LVL15:
 366:/home/phong/Documents/thesis/stm32f4/stm-idf/components/stm32f4xx_hal_driver/stm32f4xx_hal_nor.c ****   uint32_t deviceaddress = 0U;
 367:/home/phong/Documents/thesis/stm32f4/stm-idf/components/stm32f4xx_hal_driver/stm32f4xx_hal_nor.c ****   
 368:/home/phong/Documents/thesis/stm32f4/stm-idf/components/stm32f4xx_hal_driver/stm32f4xx_hal_nor.c ****   /* Process Locked */
 369:/home/phong/Documents/thesis/stm32f4/stm-idf/components/stm32f4xx_hal_driver/stm32f4xx_hal_nor.c ****   __HAL_LOCK(hnor);
 239              		.loc 1 369 0
 240 0000 90F84830 		ldrb	r3, [r0, #72]	@ zero_extendqisi2
 241 0004 012B     		cmp	r3, #1
 242 0006 55D0     		beq	.L32
 243              		.loc 1 369 0 is_stmt 0 discriminator 2
 244 0008 0123     		movs	r3, #1
 245 000a 80F84830 		strb	r3, [r0, #72]
 370:/home/phong/Documents/thesis/stm32f4/stm-idf/components/stm32f4xx_hal_driver/stm32f4xx_hal_nor.c ****   
ARM GAS  /tmp/ccYyp54X.s 			page 12


 371:/home/phong/Documents/thesis/stm32f4/stm-idf/components/stm32f4xx_hal_driver/stm32f4xx_hal_nor.c ****   /* Check the NOR controller state */
 372:/home/phong/Documents/thesis/stm32f4/stm-idf/components/stm32f4xx_hal_driver/stm32f4xx_hal_nor.c ****   if(hnor->State == HAL_NOR_STATE_BUSY)
 246              		.loc 1 372 0 is_stmt 1 discriminator 2
 247 000e 90F84930 		ldrb	r3, [r0, #73]	@ zero_extendqisi2
 248 0012 DBB2     		uxtb	r3, r3
 249 0014 022B     		cmp	r3, #2
 250 0016 4FD0     		beq	.L33
 365:/home/phong/Documents/thesis/stm32f4/stm-idf/components/stm32f4xx_hal_driver/stm32f4xx_hal_nor.c ****   uint32_t deviceaddress = 0U;
 251              		.loc 1 365 0
 252 0018 70B4     		push	{r4, r5, r6}
 253              	.LCFI3:
 254              		.cfi_def_cfa_offset 12
 255              		.cfi_offset 4, -12
 256              		.cfi_offset 5, -8
 257              		.cfi_offset 6, -4
 373:/home/phong/Documents/thesis/stm32f4/stm-idf/components/stm32f4xx_hal_driver/stm32f4xx_hal_nor.c ****   {
 374:/home/phong/Documents/thesis/stm32f4/stm-idf/components/stm32f4xx_hal_driver/stm32f4xx_hal_nor.c ****      return HAL_BUSY;
 375:/home/phong/Documents/thesis/stm32f4/stm-idf/components/stm32f4xx_hal_driver/stm32f4xx_hal_nor.c ****   }
 376:/home/phong/Documents/thesis/stm32f4/stm-idf/components/stm32f4xx_hal_driver/stm32f4xx_hal_nor.c ****   
 377:/home/phong/Documents/thesis/stm32f4/stm-idf/components/stm32f4xx_hal_driver/stm32f4xx_hal_nor.c ****   /* Select the NOR device address */
 378:/home/phong/Documents/thesis/stm32f4/stm-idf/components/stm32f4xx_hal_driver/stm32f4xx_hal_nor.c ****   if (hnor->Init.NSBank == FMC_NORSRAM_BANK1)
 258              		.loc 1 378 0
 259 001a 8368     		ldr	r3, [r0, #8]
 260 001c 4BB1     		cbz	r3, .L34
 379:/home/phong/Documents/thesis/stm32f4/stm-idf/components/stm32f4xx_hal_driver/stm32f4xx_hal_nor.c ****   {
 380:/home/phong/Documents/thesis/stm32f4/stm-idf/components/stm32f4xx_hal_driver/stm32f4xx_hal_nor.c ****     deviceaddress = NOR_MEMORY_ADRESS1;
 381:/home/phong/Documents/thesis/stm32f4/stm-idf/components/stm32f4xx_hal_driver/stm32f4xx_hal_nor.c ****   }
 382:/home/phong/Documents/thesis/stm32f4/stm-idf/components/stm32f4xx_hal_driver/stm32f4xx_hal_nor.c ****   else if (hnor->Init.NSBank == FMC_NORSRAM_BANK2)
 261              		.loc 1 382 0
 262 001e 022B     		cmp	r3, #2
 263 0020 38D0     		beq	.L35
 383:/home/phong/Documents/thesis/stm32f4/stm-idf/components/stm32f4xx_hal_driver/stm32f4xx_hal_nor.c ****   {
 384:/home/phong/Documents/thesis/stm32f4/stm-idf/components/stm32f4xx_hal_driver/stm32f4xx_hal_nor.c ****     deviceaddress = NOR_MEMORY_ADRESS2;
 385:/home/phong/Documents/thesis/stm32f4/stm-idf/components/stm32f4xx_hal_driver/stm32f4xx_hal_nor.c ****   }
 386:/home/phong/Documents/thesis/stm32f4/stm-idf/components/stm32f4xx_hal_driver/stm32f4xx_hal_nor.c ****   else if (hnor->Init.NSBank == FMC_NORSRAM_BANK3)
 264              		.loc 1 386 0
 265 0022 042B     		cmp	r3, #4
 266 0024 02D0     		beq	.L41
 387:/home/phong/Documents/thesis/stm32f4/stm-idf/components/stm32f4xx_hal_driver/stm32f4xx_hal_nor.c ****   {
 388:/home/phong/Documents/thesis/stm32f4/stm-idf/components/stm32f4xx_hal_driver/stm32f4xx_hal_nor.c ****     deviceaddress = NOR_MEMORY_ADRESS3;
 389:/home/phong/Documents/thesis/stm32f4/stm-idf/components/stm32f4xx_hal_driver/stm32f4xx_hal_nor.c ****   }
 390:/home/phong/Documents/thesis/stm32f4/stm-idf/components/stm32f4xx_hal_driver/stm32f4xx_hal_nor.c ****   else /* FMC_NORSRAM_BANK4 */
 391:/home/phong/Documents/thesis/stm32f4/stm-idf/components/stm32f4xx_hal_driver/stm32f4xx_hal_nor.c ****   {
 392:/home/phong/Documents/thesis/stm32f4/stm-idf/components/stm32f4xx_hal_driver/stm32f4xx_hal_nor.c ****     deviceaddress = NOR_MEMORY_ADRESS4;
 267              		.loc 1 392 0
 268 0026 4FF0D843 		mov	r3, #1811939328
 269 002a 04E0     		b	.L21
 270              	.L41:
 388:/home/phong/Documents/thesis/stm32f4/stm-idf/components/stm32f4xx_hal_driver/stm32f4xx_hal_nor.c ****   }
 271              		.loc 1 388 0
 272 002c 4FF0D043 		mov	r3, #1744830464
 273 0030 01E0     		b	.L21
 274              	.L34:
 380:/home/phong/Documents/thesis/stm32f4/stm-idf/components/stm32f4xx_hal_driver/stm32f4xx_hal_nor.c ****   }
 275              		.loc 1 380 0
 276 0032 4FF0C043 		mov	r3, #1610612736
 277              	.L21:
ARM GAS  /tmp/ccYyp54X.s 			page 13


 278              	.LVL16:
 393:/home/phong/Documents/thesis/stm32f4/stm-idf/components/stm32f4xx_hal_driver/stm32f4xx_hal_nor.c ****   }  
 394:/home/phong/Documents/thesis/stm32f4/stm-idf/components/stm32f4xx_hal_driver/stm32f4xx_hal_nor.c ****     
 395:/home/phong/Documents/thesis/stm32f4/stm-idf/components/stm32f4xx_hal_driver/stm32f4xx_hal_nor.c ****   /* Update the NOR controller state */
 396:/home/phong/Documents/thesis/stm32f4/stm-idf/components/stm32f4xx_hal_driver/stm32f4xx_hal_nor.c ****   hnor->State = HAL_NOR_STATE_BUSY;
 279              		.loc 1 396 0
 280 0036 0222     		movs	r2, #2
 281 0038 80F84920 		strb	r2, [r0, #73]
 397:/home/phong/Documents/thesis/stm32f4/stm-idf/components/stm32f4xx_hal_driver/stm32f4xx_hal_nor.c ****   
 398:/home/phong/Documents/thesis/stm32f4/stm-idf/components/stm32f4xx_hal_driver/stm32f4xx_hal_nor.c ****   /* Send read ID command */
 399:/home/phong/Documents/thesis/stm32f4/stm-idf/components/stm32f4xx_hal_driver/stm32f4xx_hal_nor.c ****   NOR_WRITE(NOR_ADDR_SHIFT(deviceaddress, uwNORMemoryDataWidth, NOR_CMD_ADDRESS_FIRST), NOR_CMD_DAT
 282              		.loc 1 399 0
 283 003c 1F4A     		ldr	r2, .L47
 284 003e 1268     		ldr	r2, [r2]
 285 0040 012A     		cmp	r2, #1
 286 0042 2AD0     		beq	.L42
 287              		.loc 1 399 0 is_stmt 0 discriminator 2
 288 0044 03F25554 		addw	r4, r3, #1365
 289              	.L23:
 290              		.loc 1 399 0 discriminator 4
 291 0048 2546     		mov	r5, r4
 292 004a AA26     		movs	r6, #170
 293 004c 2680     		strh	r6, [r4]	@ movhi
 400:/home/phong/Documents/thesis/stm32f4/stm-idf/components/stm32f4xx_hal_driver/stm32f4xx_hal_nor.c ****   NOR_WRITE(NOR_ADDR_SHIFT(deviceaddress, uwNORMemoryDataWidth, NOR_CMD_ADDRESS_SECOND), NOR_CMD_DA
 294              		.loc 1 400 0 is_stmt 1 discriminator 4
 295 004e 012A     		cmp	r2, #1
 296 0050 26D0     		beq	.L43
 297              		.loc 1 400 0 is_stmt 0 discriminator 2
 298 0052 03F2AA26 		addw	r6, r3, #682
 299              	.L25:
 300              		.loc 1 400 0 discriminator 4
 301 0056 5524     		movs	r4, #85
 302 0058 3480     		strh	r4, [r6]	@ movhi
 401:/home/phong/Documents/thesis/stm32f4/stm-idf/components/stm32f4xx_hal_driver/stm32f4xx_hal_nor.c ****   NOR_WRITE(NOR_ADDR_SHIFT(deviceaddress, uwNORMemoryDataWidth, NOR_CMD_ADDRESS_THIRD), NOR_CMD_DAT
 303              		.loc 1 401 0 is_stmt 1 discriminator 4
 304 005a 9024     		movs	r4, #144
 305 005c 2C80     		strh	r4, [r5]	@ movhi
 402:/home/phong/Documents/thesis/stm32f4/stm-idf/components/stm32f4xx_hal_driver/stm32f4xx_hal_nor.c **** 
 403:/home/phong/Documents/thesis/stm32f4/stm-idf/components/stm32f4xx_hal_driver/stm32f4xx_hal_nor.c ****   /* Read the NOR IDs */
 404:/home/phong/Documents/thesis/stm32f4/stm-idf/components/stm32f4xx_hal_driver/stm32f4xx_hal_nor.c ****   pNOR_ID->Manufacturer_Code = *(__IO uint16_t *) NOR_ADDR_SHIFT(deviceaddress, uwNORMemoryDataWidt
 306              		.loc 1 404 0 discriminator 4
 307 005e 1C88     		ldrh	r4, [r3]
 308 0060 0C80     		strh	r4, [r1]	@ movhi
 405:/home/phong/Documents/thesis/stm32f4/stm-idf/components/stm32f4xx_hal_driver/stm32f4xx_hal_nor.c ****   pNOR_ID->Device_Code1      = *(__IO uint16_t *) NOR_ADDR_SHIFT(deviceaddress, uwNORMemoryDataWidt
 309              		.loc 1 405 0 discriminator 4
 310 0062 012A     		cmp	r2, #1
 311 0064 1FD0     		beq	.L44
 312              		.loc 1 405 0 is_stmt 0 discriminator 2
 313 0066 5C1C     		adds	r4, r3, #1
 314              	.L27:
 315              		.loc 1 405 0 discriminator 4
 316 0068 2488     		ldrh	r4, [r4]
 317 006a 4C80     		strh	r4, [r1, #2]	@ movhi
 406:/home/phong/Documents/thesis/stm32f4/stm-idf/components/stm32f4xx_hal_driver/stm32f4xx_hal_nor.c ****   pNOR_ID->Device_Code2      = *(__IO uint16_t *) NOR_ADDR_SHIFT(deviceaddress, uwNORMemoryDataWidt
 318              		.loc 1 406 0 is_stmt 1 discriminator 4
 319 006c 012A     		cmp	r2, #1
 320 006e 1CD0     		beq	.L45
ARM GAS  /tmp/ccYyp54X.s 			page 14


 321              		.loc 1 406 0 is_stmt 0 discriminator 2
 322 0070 03F10E04 		add	r4, r3, #14
 323              	.L29:
 324              		.loc 1 406 0 discriminator 4
 325 0074 2488     		ldrh	r4, [r4]
 326 0076 8C80     		strh	r4, [r1, #4]	@ movhi
 407:/home/phong/Documents/thesis/stm32f4/stm-idf/components/stm32f4xx_hal_driver/stm32f4xx_hal_nor.c ****   pNOR_ID->Device_Code3      = *(__IO uint16_t *) NOR_ADDR_SHIFT(deviceaddress, uwNORMemoryDataWidt
 327              		.loc 1 407 0 is_stmt 1 discriminator 4
 328 0078 012A     		cmp	r2, #1
 329 007a 19D0     		beq	.L46
 330              		.loc 1 407 0 is_stmt 0 discriminator 2
 331 007c 0F33     		adds	r3, r3, #15
 332              	.LVL17:
 333              	.L31:
 334              		.loc 1 407 0 discriminator 4
 335 007e 1B88     		ldrh	r3, [r3]
 336 0080 CB80     		strh	r3, [r1, #6]	@ movhi
 408:/home/phong/Documents/thesis/stm32f4/stm-idf/components/stm32f4xx_hal_driver/stm32f4xx_hal_nor.c ****   
 409:/home/phong/Documents/thesis/stm32f4/stm-idf/components/stm32f4xx_hal_driver/stm32f4xx_hal_nor.c ****   /* Check the NOR controller state */
 410:/home/phong/Documents/thesis/stm32f4/stm-idf/components/stm32f4xx_hal_driver/stm32f4xx_hal_nor.c ****   hnor->State = HAL_NOR_STATE_READY;
 337              		.loc 1 410 0 is_stmt 1 discriminator 4
 338 0082 0123     		movs	r3, #1
 339 0084 80F84930 		strb	r3, [r0, #73]
 411:/home/phong/Documents/thesis/stm32f4/stm-idf/components/stm32f4xx_hal_driver/stm32f4xx_hal_nor.c ****   
 412:/home/phong/Documents/thesis/stm32f4/stm-idf/components/stm32f4xx_hal_driver/stm32f4xx_hal_nor.c ****   /* Process unlocked */
 413:/home/phong/Documents/thesis/stm32f4/stm-idf/components/stm32f4xx_hal_driver/stm32f4xx_hal_nor.c ****   __HAL_UNLOCK(hnor);   
 340              		.loc 1 413 0 discriminator 4
 341 0088 0023     		movs	r3, #0
 342 008a 80F84830 		strb	r3, [r0, #72]
 414:/home/phong/Documents/thesis/stm32f4/stm-idf/components/stm32f4xx_hal_driver/stm32f4xx_hal_nor.c ****   
 415:/home/phong/Documents/thesis/stm32f4/stm-idf/components/stm32f4xx_hal_driver/stm32f4xx_hal_nor.c ****   return HAL_OK;
 343              		.loc 1 415 0 discriminator 4
 344 008e 1846     		mov	r0, r3
 345              	.LVL18:
 416:/home/phong/Documents/thesis/stm32f4/stm-idf/components/stm32f4xx_hal_driver/stm32f4xx_hal_nor.c **** }
 346              		.loc 1 416 0 discriminator 4
 347 0090 70BC     		pop	{r4, r5, r6}
 348              	.LCFI4:
 349              		.cfi_remember_state
 350              		.cfi_restore 6
 351              		.cfi_restore 5
 352              		.cfi_restore 4
 353              		.cfi_def_cfa_offset 0
 354 0092 7047     		bx	lr
 355              	.LVL19:
 356              	.L35:
 357              	.LCFI5:
 358              		.cfi_restore_state
 384:/home/phong/Documents/thesis/stm32f4/stm-idf/components/stm32f4xx_hal_driver/stm32f4xx_hal_nor.c ****   }
 359              		.loc 1 384 0
 360 0094 4FF0C843 		mov	r3, #1677721600
 361 0098 CDE7     		b	.L21
 362              	.LVL20:
 363              	.L42:
 399:/home/phong/Documents/thesis/stm32f4/stm-idf/components/stm32f4xx_hal_driver/stm32f4xx_hal_nor.c ****   NOR_WRITE(NOR_ADDR_SHIFT(deviceaddress, uwNORMemoryDataWidth, NOR_CMD_ADDRESS_SECOND), NOR_CMD_DA
 364              		.loc 1 399 0 discriminator 1
 365 009a 03F6AA24 		addw	r4, r3, #2730
ARM GAS  /tmp/ccYyp54X.s 			page 15


 366 009e D3E7     		b	.L23
 367              	.L43:
 400:/home/phong/Documents/thesis/stm32f4/stm-idf/components/stm32f4xx_hal_driver/stm32f4xx_hal_nor.c ****   NOR_WRITE(NOR_ADDR_SHIFT(deviceaddress, uwNORMemoryDataWidth, NOR_CMD_ADDRESS_THIRD), NOR_CMD_DAT
 368              		.loc 1 400 0 discriminator 1
 369 00a0 03F25456 		addw	r6, r3, #1364
 370 00a4 D7E7     		b	.L25
 371              	.L44:
 405:/home/phong/Documents/thesis/stm32f4/stm-idf/components/stm32f4xx_hal_driver/stm32f4xx_hal_nor.c ****   pNOR_ID->Device_Code2      = *(__IO uint16_t *) NOR_ADDR_SHIFT(deviceaddress, uwNORMemoryDataWidt
 372              		.loc 1 405 0 discriminator 1
 373 00a6 9C1C     		adds	r4, r3, #2
 374 00a8 DEE7     		b	.L27
 375              	.L45:
 406:/home/phong/Documents/thesis/stm32f4/stm-idf/components/stm32f4xx_hal_driver/stm32f4xx_hal_nor.c ****   pNOR_ID->Device_Code3      = *(__IO uint16_t *) NOR_ADDR_SHIFT(deviceaddress, uwNORMemoryDataWidt
 376              		.loc 1 406 0 discriminator 1
 377 00aa 03F11C04 		add	r4, r3, #28
 378 00ae E1E7     		b	.L29
 379              	.L46:
 407:/home/phong/Documents/thesis/stm32f4/stm-idf/components/stm32f4xx_hal_driver/stm32f4xx_hal_nor.c ****   
 380              		.loc 1 407 0 discriminator 1
 381 00b0 1E33     		adds	r3, r3, #30
 382              	.LVL21:
 383 00b2 E4E7     		b	.L31
 384              	.LVL22:
 385              	.L32:
 386              	.LCFI6:
 387              		.cfi_def_cfa_offset 0
 388              		.cfi_restore 4
 389              		.cfi_restore 5
 390              		.cfi_restore 6
 369:/home/phong/Documents/thesis/stm32f4/stm-idf/components/stm32f4xx_hal_driver/stm32f4xx_hal_nor.c ****   
 391              		.loc 1 369 0
 392 00b4 0220     		movs	r0, #2
 393              	.LVL23:
 394 00b6 7047     		bx	lr
 395              	.LVL24:
 396              	.L33:
 374:/home/phong/Documents/thesis/stm32f4/stm-idf/components/stm32f4xx_hal_driver/stm32f4xx_hal_nor.c ****   }
 397              		.loc 1 374 0
 398 00b8 0220     		movs	r0, #2
 399              	.LVL25:
 400 00ba 7047     		bx	lr
 401              	.L48:
 402              		.align	2
 403              	.L47:
 404 00bc 00000000 		.word	.LANCHOR0
 405              		.cfi_endproc
 406              	.LFE135:
 408              		.section	.text.HAL_NOR_ReturnToReadMode,"ax",%progbits
 409              		.align	1
 410              		.global	HAL_NOR_ReturnToReadMode
 411              		.syntax unified
 412              		.thumb
 413              		.thumb_func
 414              		.fpu fpv4-sp-d16
 416              	HAL_NOR_ReturnToReadMode:
 417              	.LFB136:
 417:/home/phong/Documents/thesis/stm32f4/stm-idf/components/stm32f4xx_hal_driver/stm32f4xx_hal_nor.c **** 
ARM GAS  /tmp/ccYyp54X.s 			page 16


 418:/home/phong/Documents/thesis/stm32f4/stm-idf/components/stm32f4xx_hal_driver/stm32f4xx_hal_nor.c **** /**
 419:/home/phong/Documents/thesis/stm32f4/stm-idf/components/stm32f4xx_hal_driver/stm32f4xx_hal_nor.c ****   * @brief  Returns the NOR memory to Read mode.
 420:/home/phong/Documents/thesis/stm32f4/stm-idf/components/stm32f4xx_hal_driver/stm32f4xx_hal_nor.c ****   * @param  hnor pointer to a NOR_HandleTypeDef structure that contains
 421:/home/phong/Documents/thesis/stm32f4/stm-idf/components/stm32f4xx_hal_driver/stm32f4xx_hal_nor.c ****   *                the configuration information for NOR module.
 422:/home/phong/Documents/thesis/stm32f4/stm-idf/components/stm32f4xx_hal_driver/stm32f4xx_hal_nor.c ****   * @retval HAL status
 423:/home/phong/Documents/thesis/stm32f4/stm-idf/components/stm32f4xx_hal_driver/stm32f4xx_hal_nor.c ****   */
 424:/home/phong/Documents/thesis/stm32f4/stm-idf/components/stm32f4xx_hal_driver/stm32f4xx_hal_nor.c **** HAL_StatusTypeDef HAL_NOR_ReturnToReadMode(NOR_HandleTypeDef *hnor)
 425:/home/phong/Documents/thesis/stm32f4/stm-idf/components/stm32f4xx_hal_driver/stm32f4xx_hal_nor.c **** {
 418              		.loc 1 425 0
 419              		.cfi_startproc
 420              		@ args = 0, pretend = 0, frame = 0
 421              		@ frame_needed = 0, uses_anonymous_args = 0
 422              		@ link register save eliminated.
 423              	.LVL26:
 426:/home/phong/Documents/thesis/stm32f4/stm-idf/components/stm32f4xx_hal_driver/stm32f4xx_hal_nor.c ****   uint32_t deviceaddress = 0U;  
 427:/home/phong/Documents/thesis/stm32f4/stm-idf/components/stm32f4xx_hal_driver/stm32f4xx_hal_nor.c ****   
 428:/home/phong/Documents/thesis/stm32f4/stm-idf/components/stm32f4xx_hal_driver/stm32f4xx_hal_nor.c ****   /* Process Locked */
 429:/home/phong/Documents/thesis/stm32f4/stm-idf/components/stm32f4xx_hal_driver/stm32f4xx_hal_nor.c ****   __HAL_LOCK(hnor);
 424              		.loc 1 429 0
 425 0000 90F84830 		ldrb	r3, [r0, #72]	@ zero_extendqisi2
 426 0004 012B     		cmp	r3, #1
 427 0006 22D0     		beq	.L52
 428              		.loc 1 429 0 is_stmt 0 discriminator 2
 429 0008 0123     		movs	r3, #1
 430 000a 80F84830 		strb	r3, [r0, #72]
 430:/home/phong/Documents/thesis/stm32f4/stm-idf/components/stm32f4xx_hal_driver/stm32f4xx_hal_nor.c ****   
 431:/home/phong/Documents/thesis/stm32f4/stm-idf/components/stm32f4xx_hal_driver/stm32f4xx_hal_nor.c ****   /* Check the NOR controller state */
 432:/home/phong/Documents/thesis/stm32f4/stm-idf/components/stm32f4xx_hal_driver/stm32f4xx_hal_nor.c ****   if(hnor->State == HAL_NOR_STATE_BUSY)
 431              		.loc 1 432 0 is_stmt 1 discriminator 2
 432 000e 90F84930 		ldrb	r3, [r0, #73]	@ zero_extendqisi2
 433 0012 DBB2     		uxtb	r3, r3
 434 0014 022B     		cmp	r3, #2
 435 0016 1CD0     		beq	.L53
 433:/home/phong/Documents/thesis/stm32f4/stm-idf/components/stm32f4xx_hal_driver/stm32f4xx_hal_nor.c ****   {
 434:/home/phong/Documents/thesis/stm32f4/stm-idf/components/stm32f4xx_hal_driver/stm32f4xx_hal_nor.c ****      return HAL_BUSY;
 435:/home/phong/Documents/thesis/stm32f4/stm-idf/components/stm32f4xx_hal_driver/stm32f4xx_hal_nor.c ****   }
 436:/home/phong/Documents/thesis/stm32f4/stm-idf/components/stm32f4xx_hal_driver/stm32f4xx_hal_nor.c ****   
 437:/home/phong/Documents/thesis/stm32f4/stm-idf/components/stm32f4xx_hal_driver/stm32f4xx_hal_nor.c ****   /* Select the NOR device address */
 438:/home/phong/Documents/thesis/stm32f4/stm-idf/components/stm32f4xx_hal_driver/stm32f4xx_hal_nor.c ****   if (hnor->Init.NSBank == FMC_NORSRAM_BANK1)
 436              		.loc 1 438 0
 437 0018 8368     		ldr	r3, [r0, #8]
 438 001a 4BB1     		cbz	r3, .L54
 439:/home/phong/Documents/thesis/stm32f4/stm-idf/components/stm32f4xx_hal_driver/stm32f4xx_hal_nor.c ****   {
 440:/home/phong/Documents/thesis/stm32f4/stm-idf/components/stm32f4xx_hal_driver/stm32f4xx_hal_nor.c ****     deviceaddress = NOR_MEMORY_ADRESS1;
 441:/home/phong/Documents/thesis/stm32f4/stm-idf/components/stm32f4xx_hal_driver/stm32f4xx_hal_nor.c ****   }
 442:/home/phong/Documents/thesis/stm32f4/stm-idf/components/stm32f4xx_hal_driver/stm32f4xx_hal_nor.c ****   else if (hnor->Init.NSBank == FMC_NORSRAM_BANK2)
 439              		.loc 1 442 0
 440 001c 022B     		cmp	r3, #2
 441 001e 13D0     		beq	.L55
 443:/home/phong/Documents/thesis/stm32f4/stm-idf/components/stm32f4xx_hal_driver/stm32f4xx_hal_nor.c ****   {
 444:/home/phong/Documents/thesis/stm32f4/stm-idf/components/stm32f4xx_hal_driver/stm32f4xx_hal_nor.c ****     deviceaddress = NOR_MEMORY_ADRESS2;
 445:/home/phong/Documents/thesis/stm32f4/stm-idf/components/stm32f4xx_hal_driver/stm32f4xx_hal_nor.c ****   }
 446:/home/phong/Documents/thesis/stm32f4/stm-idf/components/stm32f4xx_hal_driver/stm32f4xx_hal_nor.c ****   else if (hnor->Init.NSBank == FMC_NORSRAM_BANK3)
 442              		.loc 1 446 0
 443 0020 042B     		cmp	r3, #4
 444 0022 02D0     		beq	.L57
 447:/home/phong/Documents/thesis/stm32f4/stm-idf/components/stm32f4xx_hal_driver/stm32f4xx_hal_nor.c ****   {
ARM GAS  /tmp/ccYyp54X.s 			page 17


 448:/home/phong/Documents/thesis/stm32f4/stm-idf/components/stm32f4xx_hal_driver/stm32f4xx_hal_nor.c ****     deviceaddress = NOR_MEMORY_ADRESS3;
 449:/home/phong/Documents/thesis/stm32f4/stm-idf/components/stm32f4xx_hal_driver/stm32f4xx_hal_nor.c ****   }
 450:/home/phong/Documents/thesis/stm32f4/stm-idf/components/stm32f4xx_hal_driver/stm32f4xx_hal_nor.c ****   else /* FMC_NORSRAM_BANK4 */
 451:/home/phong/Documents/thesis/stm32f4/stm-idf/components/stm32f4xx_hal_driver/stm32f4xx_hal_nor.c ****   {
 452:/home/phong/Documents/thesis/stm32f4/stm-idf/components/stm32f4xx_hal_driver/stm32f4xx_hal_nor.c ****     deviceaddress = NOR_MEMORY_ADRESS4;
 445              		.loc 1 452 0
 446 0024 4FF0D842 		mov	r2, #1811939328
 447 0028 04E0     		b	.L51
 448              	.L57:
 448:/home/phong/Documents/thesis/stm32f4/stm-idf/components/stm32f4xx_hal_driver/stm32f4xx_hal_nor.c ****   }
 449              		.loc 1 448 0
 450 002a 4FF0D042 		mov	r2, #1744830464
 451 002e 01E0     		b	.L51
 452              	.L54:
 440:/home/phong/Documents/thesis/stm32f4/stm-idf/components/stm32f4xx_hal_driver/stm32f4xx_hal_nor.c ****   }
 453              		.loc 1 440 0
 454 0030 4FF0C042 		mov	r2, #1610612736
 455              	.L51:
 456              	.LVL27:
 453:/home/phong/Documents/thesis/stm32f4/stm-idf/components/stm32f4xx_hal_driver/stm32f4xx_hal_nor.c ****   }  
 454:/home/phong/Documents/thesis/stm32f4/stm-idf/components/stm32f4xx_hal_driver/stm32f4xx_hal_nor.c ****   
 455:/home/phong/Documents/thesis/stm32f4/stm-idf/components/stm32f4xx_hal_driver/stm32f4xx_hal_nor.c ****   NOR_WRITE(deviceaddress, NOR_CMD_DATA_READ_RESET);
 457              		.loc 1 455 0
 458 0034 F023     		movs	r3, #240
 459 0036 1380     		strh	r3, [r2]	@ movhi
 456:/home/phong/Documents/thesis/stm32f4/stm-idf/components/stm32f4xx_hal_driver/stm32f4xx_hal_nor.c **** 
 457:/home/phong/Documents/thesis/stm32f4/stm-idf/components/stm32f4xx_hal_driver/stm32f4xx_hal_nor.c ****   /* Check the NOR controller state */
 458:/home/phong/Documents/thesis/stm32f4/stm-idf/components/stm32f4xx_hal_driver/stm32f4xx_hal_nor.c ****   hnor->State = HAL_NOR_STATE_READY;
 460              		.loc 1 458 0
 461 0038 0123     		movs	r3, #1
 462 003a 80F84930 		strb	r3, [r0, #73]
 459:/home/phong/Documents/thesis/stm32f4/stm-idf/components/stm32f4xx_hal_driver/stm32f4xx_hal_nor.c ****   
 460:/home/phong/Documents/thesis/stm32f4/stm-idf/components/stm32f4xx_hal_driver/stm32f4xx_hal_nor.c ****   /* Process unlocked */
 461:/home/phong/Documents/thesis/stm32f4/stm-idf/components/stm32f4xx_hal_driver/stm32f4xx_hal_nor.c ****   __HAL_UNLOCK(hnor);   
 463              		.loc 1 461 0
 464 003e 0023     		movs	r3, #0
 465 0040 80F84830 		strb	r3, [r0, #72]
 462:/home/phong/Documents/thesis/stm32f4/stm-idf/components/stm32f4xx_hal_driver/stm32f4xx_hal_nor.c ****   
 463:/home/phong/Documents/thesis/stm32f4/stm-idf/components/stm32f4xx_hal_driver/stm32f4xx_hal_nor.c ****   return HAL_OK;
 466              		.loc 1 463 0
 467 0044 1846     		mov	r0, r3
 468              	.LVL28:
 469 0046 7047     		bx	lr
 470              	.LVL29:
 471              	.L55:
 444:/home/phong/Documents/thesis/stm32f4/stm-idf/components/stm32f4xx_hal_driver/stm32f4xx_hal_nor.c ****   }
 472              		.loc 1 444 0
 473 0048 4FF0C842 		mov	r2, #1677721600
 474 004c F2E7     		b	.L51
 475              	.L52:
 429:/home/phong/Documents/thesis/stm32f4/stm-idf/components/stm32f4xx_hal_driver/stm32f4xx_hal_nor.c ****   
 476              		.loc 1 429 0
 477 004e 0220     		movs	r0, #2
 478              	.LVL30:
 479 0050 7047     		bx	lr
 480              	.LVL31:
 481              	.L53:
ARM GAS  /tmp/ccYyp54X.s 			page 18


 434:/home/phong/Documents/thesis/stm32f4/stm-idf/components/stm32f4xx_hal_driver/stm32f4xx_hal_nor.c ****   }
 482              		.loc 1 434 0
 483 0052 0220     		movs	r0, #2
 484              	.LVL32:
 464:/home/phong/Documents/thesis/stm32f4/stm-idf/components/stm32f4xx_hal_driver/stm32f4xx_hal_nor.c **** }
 485              		.loc 1 464 0
 486 0054 7047     		bx	lr
 487              		.cfi_endproc
 488              	.LFE136:
 490              		.section	.text.HAL_NOR_Read,"ax",%progbits
 491              		.align	1
 492              		.global	HAL_NOR_Read
 493              		.syntax unified
 494              		.thumb
 495              		.thumb_func
 496              		.fpu fpv4-sp-d16
 498              	HAL_NOR_Read:
 499              	.LFB137:
 465:/home/phong/Documents/thesis/stm32f4/stm-idf/components/stm32f4xx_hal_driver/stm32f4xx_hal_nor.c **** 
 466:/home/phong/Documents/thesis/stm32f4/stm-idf/components/stm32f4xx_hal_driver/stm32f4xx_hal_nor.c **** /**
 467:/home/phong/Documents/thesis/stm32f4/stm-idf/components/stm32f4xx_hal_driver/stm32f4xx_hal_nor.c ****   * @brief  Read data from NOR memory 
 468:/home/phong/Documents/thesis/stm32f4/stm-idf/components/stm32f4xx_hal_driver/stm32f4xx_hal_nor.c ****   * @param  hnor pointer to a NOR_HandleTypeDef structure that contains
 469:/home/phong/Documents/thesis/stm32f4/stm-idf/components/stm32f4xx_hal_driver/stm32f4xx_hal_nor.c ****   *                the configuration information for NOR module.
 470:/home/phong/Documents/thesis/stm32f4/stm-idf/components/stm32f4xx_hal_driver/stm32f4xx_hal_nor.c ****   * @param  pAddress pointer to Device address
 471:/home/phong/Documents/thesis/stm32f4/stm-idf/components/stm32f4xx_hal_driver/stm32f4xx_hal_nor.c ****   * @param  pData  pointer to read data  
 472:/home/phong/Documents/thesis/stm32f4/stm-idf/components/stm32f4xx_hal_driver/stm32f4xx_hal_nor.c ****   * @retval HAL status
 473:/home/phong/Documents/thesis/stm32f4/stm-idf/components/stm32f4xx_hal_driver/stm32f4xx_hal_nor.c ****   */
 474:/home/phong/Documents/thesis/stm32f4/stm-idf/components/stm32f4xx_hal_driver/stm32f4xx_hal_nor.c **** HAL_StatusTypeDef HAL_NOR_Read(NOR_HandleTypeDef *hnor, uint32_t *pAddress, uint16_t *pData)
 475:/home/phong/Documents/thesis/stm32f4/stm-idf/components/stm32f4xx_hal_driver/stm32f4xx_hal_nor.c **** {
 500              		.loc 1 475 0
 501              		.cfi_startproc
 502              		@ args = 0, pretend = 0, frame = 0
 503              		@ frame_needed = 0, uses_anonymous_args = 0
 504              		@ link register save eliminated.
 505              	.LVL33:
 476:/home/phong/Documents/thesis/stm32f4/stm-idf/components/stm32f4xx_hal_driver/stm32f4xx_hal_nor.c ****   uint32_t deviceaddress = 0U;
 477:/home/phong/Documents/thesis/stm32f4/stm-idf/components/stm32f4xx_hal_driver/stm32f4xx_hal_nor.c ****   
 478:/home/phong/Documents/thesis/stm32f4/stm-idf/components/stm32f4xx_hal_driver/stm32f4xx_hal_nor.c ****   /* Process Locked */
 479:/home/phong/Documents/thesis/stm32f4/stm-idf/components/stm32f4xx_hal_driver/stm32f4xx_hal_nor.c ****   __HAL_LOCK(hnor);
 506              		.loc 1 479 0
 507 0000 90F84830 		ldrb	r3, [r0, #72]	@ zero_extendqisi2
 508 0004 012B     		cmp	r3, #1
 509 0006 3ED0     		beq	.L65
 510              		.loc 1 479 0 is_stmt 0 discriminator 2
 511 0008 0123     		movs	r3, #1
 512 000a 80F84830 		strb	r3, [r0, #72]
 480:/home/phong/Documents/thesis/stm32f4/stm-idf/components/stm32f4xx_hal_driver/stm32f4xx_hal_nor.c ****   
 481:/home/phong/Documents/thesis/stm32f4/stm-idf/components/stm32f4xx_hal_driver/stm32f4xx_hal_nor.c ****   /* Check the NOR controller state */
 482:/home/phong/Documents/thesis/stm32f4/stm-idf/components/stm32f4xx_hal_driver/stm32f4xx_hal_nor.c ****   if(hnor->State == HAL_NOR_STATE_BUSY)
 513              		.loc 1 482 0 is_stmt 1 discriminator 2
 514 000e 90F84930 		ldrb	r3, [r0, #73]	@ zero_extendqisi2
 515 0012 DBB2     		uxtb	r3, r3
 516 0014 022B     		cmp	r3, #2
 517 0016 38D0     		beq	.L66
 475:/home/phong/Documents/thesis/stm32f4/stm-idf/components/stm32f4xx_hal_driver/stm32f4xx_hal_nor.c ****   uint32_t deviceaddress = 0U;
 518              		.loc 1 475 0
 519 0018 F0B4     		push	{r4, r5, r6, r7}
ARM GAS  /tmp/ccYyp54X.s 			page 19


 520              	.LCFI7:
 521              		.cfi_def_cfa_offset 16
 522              		.cfi_offset 4, -16
 523              		.cfi_offset 5, -12
 524              		.cfi_offset 6, -8
 525              		.cfi_offset 7, -4
 483:/home/phong/Documents/thesis/stm32f4/stm-idf/components/stm32f4xx_hal_driver/stm32f4xx_hal_nor.c ****   {
 484:/home/phong/Documents/thesis/stm32f4/stm-idf/components/stm32f4xx_hal_driver/stm32f4xx_hal_nor.c ****      return HAL_BUSY;
 485:/home/phong/Documents/thesis/stm32f4/stm-idf/components/stm32f4xx_hal_driver/stm32f4xx_hal_nor.c ****   }
 486:/home/phong/Documents/thesis/stm32f4/stm-idf/components/stm32f4xx_hal_driver/stm32f4xx_hal_nor.c ****   
 487:/home/phong/Documents/thesis/stm32f4/stm-idf/components/stm32f4xx_hal_driver/stm32f4xx_hal_nor.c ****   /* Select the NOR device address */
 488:/home/phong/Documents/thesis/stm32f4/stm-idf/components/stm32f4xx_hal_driver/stm32f4xx_hal_nor.c ****   if (hnor->Init.NSBank == FMC_NORSRAM_BANK1)
 526              		.loc 1 488 0
 527 001a 8368     		ldr	r3, [r0, #8]
 528 001c 4BB1     		cbz	r3, .L67
 489:/home/phong/Documents/thesis/stm32f4/stm-idf/components/stm32f4xx_hal_driver/stm32f4xx_hal_nor.c ****   {
 490:/home/phong/Documents/thesis/stm32f4/stm-idf/components/stm32f4xx_hal_driver/stm32f4xx_hal_nor.c ****     deviceaddress = NOR_MEMORY_ADRESS1;
 491:/home/phong/Documents/thesis/stm32f4/stm-idf/components/stm32f4xx_hal_driver/stm32f4xx_hal_nor.c ****   }
 492:/home/phong/Documents/thesis/stm32f4/stm-idf/components/stm32f4xx_hal_driver/stm32f4xx_hal_nor.c ****   else if (hnor->Init.NSBank == FMC_NORSRAM_BANK2)
 529              		.loc 1 492 0
 530 001e 022B     		cmp	r3, #2
 531 0020 28D0     		beq	.L68
 493:/home/phong/Documents/thesis/stm32f4/stm-idf/components/stm32f4xx_hal_driver/stm32f4xx_hal_nor.c ****   {
 494:/home/phong/Documents/thesis/stm32f4/stm-idf/components/stm32f4xx_hal_driver/stm32f4xx_hal_nor.c ****     deviceaddress = NOR_MEMORY_ADRESS2;
 495:/home/phong/Documents/thesis/stm32f4/stm-idf/components/stm32f4xx_hal_driver/stm32f4xx_hal_nor.c ****   }
 496:/home/phong/Documents/thesis/stm32f4/stm-idf/components/stm32f4xx_hal_driver/stm32f4xx_hal_nor.c ****   else if (hnor->Init.NSBank == FMC_NORSRAM_BANK3)
 532              		.loc 1 496 0
 533 0022 042B     		cmp	r3, #4
 534 0024 02D0     		beq	.L74
 497:/home/phong/Documents/thesis/stm32f4/stm-idf/components/stm32f4xx_hal_driver/stm32f4xx_hal_nor.c ****   {
 498:/home/phong/Documents/thesis/stm32f4/stm-idf/components/stm32f4xx_hal_driver/stm32f4xx_hal_nor.c ****     deviceaddress = NOR_MEMORY_ADRESS3;
 499:/home/phong/Documents/thesis/stm32f4/stm-idf/components/stm32f4xx_hal_driver/stm32f4xx_hal_nor.c ****   }
 500:/home/phong/Documents/thesis/stm32f4/stm-idf/components/stm32f4xx_hal_driver/stm32f4xx_hal_nor.c ****   else /* FMC_NORSRAM_BANK4 */
 501:/home/phong/Documents/thesis/stm32f4/stm-idf/components/stm32f4xx_hal_driver/stm32f4xx_hal_nor.c ****   {
 502:/home/phong/Documents/thesis/stm32f4/stm-idf/components/stm32f4xx_hal_driver/stm32f4xx_hal_nor.c ****     deviceaddress = NOR_MEMORY_ADRESS4;
 535              		.loc 1 502 0
 536 0026 4FF0D843 		mov	r3, #1811939328
 537 002a 04E0     		b	.L60
 538              	.L74:
 498:/home/phong/Documents/thesis/stm32f4/stm-idf/components/stm32f4xx_hal_driver/stm32f4xx_hal_nor.c ****   }
 539              		.loc 1 498 0
 540 002c 4FF0D043 		mov	r3, #1744830464
 541 0030 01E0     		b	.L60
 542              	.L67:
 490:/home/phong/Documents/thesis/stm32f4/stm-idf/components/stm32f4xx_hal_driver/stm32f4xx_hal_nor.c ****   }
 543              		.loc 1 490 0
 544 0032 4FF0C043 		mov	r3, #1610612736
 545              	.L60:
 546              	.LVL34:
 503:/home/phong/Documents/thesis/stm32f4/stm-idf/components/stm32f4xx_hal_driver/stm32f4xx_hal_nor.c ****   } 
 504:/home/phong/Documents/thesis/stm32f4/stm-idf/components/stm32f4xx_hal_driver/stm32f4xx_hal_nor.c ****     
 505:/home/phong/Documents/thesis/stm32f4/stm-idf/components/stm32f4xx_hal_driver/stm32f4xx_hal_nor.c ****   /* Update the NOR controller state */
 506:/home/phong/Documents/thesis/stm32f4/stm-idf/components/stm32f4xx_hal_driver/stm32f4xx_hal_nor.c ****   hnor->State = HAL_NOR_STATE_BUSY;
 547              		.loc 1 506 0
 548 0036 0224     		movs	r4, #2
 549 0038 80F84940 		strb	r4, [r0, #73]
 507:/home/phong/Documents/thesis/stm32f4/stm-idf/components/stm32f4xx_hal_driver/stm32f4xx_hal_nor.c ****   
ARM GAS  /tmp/ccYyp54X.s 			page 20


 508:/home/phong/Documents/thesis/stm32f4/stm-idf/components/stm32f4xx_hal_driver/stm32f4xx_hal_nor.c ****   /* Send read data command */
 509:/home/phong/Documents/thesis/stm32f4/stm-idf/components/stm32f4xx_hal_driver/stm32f4xx_hal_nor.c ****   NOR_WRITE(NOR_ADDR_SHIFT(deviceaddress, uwNORMemoryDataWidth, NOR_CMD_ADDRESS_FIRST), NOR_CMD_DAT
 550              		.loc 1 509 0
 551 003c 144C     		ldr	r4, .L77
 552 003e 2468     		ldr	r4, [r4]
 553 0040 012C     		cmp	r4, #1
 554 0042 1AD0     		beq	.L75
 555              		.loc 1 509 0 is_stmt 0 discriminator 2
 556 0044 03F25555 		addw	r5, r3, #1365
 557              	.L62:
 558              		.loc 1 509 0 discriminator 4
 559 0048 2E46     		mov	r6, r5
 560 004a AA27     		movs	r7, #170
 561 004c 2F80     		strh	r7, [r5]	@ movhi
 510:/home/phong/Documents/thesis/stm32f4/stm-idf/components/stm32f4xx_hal_driver/stm32f4xx_hal_nor.c ****   NOR_WRITE(NOR_ADDR_SHIFT(deviceaddress, uwNORMemoryDataWidth, NOR_CMD_ADDRESS_SECOND), NOR_CMD_DA
 562              		.loc 1 510 0 is_stmt 1 discriminator 4
 563 004e 012C     		cmp	r4, #1
 564 0050 16D0     		beq	.L76
 565              		.loc 1 510 0 is_stmt 0 discriminator 2
 566 0052 03F2AA23 		addw	r3, r3, #682
 567              	.LVL35:
 568              	.L64:
 569              		.loc 1 510 0 discriminator 4
 570 0056 5524     		movs	r4, #85
 571 0058 1C80     		strh	r4, [r3]	@ movhi
 511:/home/phong/Documents/thesis/stm32f4/stm-idf/components/stm32f4xx_hal_driver/stm32f4xx_hal_nor.c ****   NOR_WRITE(NOR_ADDR_SHIFT(deviceaddress, uwNORMemoryDataWidth, NOR_CMD_ADDRESS_THIRD), NOR_CMD_DAT
 572              		.loc 1 511 0 is_stmt 1 discriminator 4
 573 005a F023     		movs	r3, #240
 574 005c 3380     		strh	r3, [r6]	@ movhi
 512:/home/phong/Documents/thesis/stm32f4/stm-idf/components/stm32f4xx_hal_driver/stm32f4xx_hal_nor.c **** 
 513:/home/phong/Documents/thesis/stm32f4/stm-idf/components/stm32f4xx_hal_driver/stm32f4xx_hal_nor.c ****   /* Read the data */
 514:/home/phong/Documents/thesis/stm32f4/stm-idf/components/stm32f4xx_hal_driver/stm32f4xx_hal_nor.c ****   *pData = *(__IO uint32_t *)(uint32_t)pAddress;
 575              		.loc 1 514 0 discriminator 4
 576 005e 0B68     		ldr	r3, [r1]
 577 0060 1380     		strh	r3, [r2]	@ movhi
 515:/home/phong/Documents/thesis/stm32f4/stm-idf/components/stm32f4xx_hal_driver/stm32f4xx_hal_nor.c ****   
 516:/home/phong/Documents/thesis/stm32f4/stm-idf/components/stm32f4xx_hal_driver/stm32f4xx_hal_nor.c ****   /* Check the NOR controller state */
 517:/home/phong/Documents/thesis/stm32f4/stm-idf/components/stm32f4xx_hal_driver/stm32f4xx_hal_nor.c ****   hnor->State = HAL_NOR_STATE_READY;
 578              		.loc 1 517 0 discriminator 4
 579 0062 0123     		movs	r3, #1
 580 0064 80F84930 		strb	r3, [r0, #73]
 518:/home/phong/Documents/thesis/stm32f4/stm-idf/components/stm32f4xx_hal_driver/stm32f4xx_hal_nor.c ****   
 519:/home/phong/Documents/thesis/stm32f4/stm-idf/components/stm32f4xx_hal_driver/stm32f4xx_hal_nor.c ****   /* Process unlocked */
 520:/home/phong/Documents/thesis/stm32f4/stm-idf/components/stm32f4xx_hal_driver/stm32f4xx_hal_nor.c ****   __HAL_UNLOCK(hnor);
 581              		.loc 1 520 0 discriminator 4
 582 0068 0023     		movs	r3, #0
 583 006a 80F84830 		strb	r3, [r0, #72]
 521:/home/phong/Documents/thesis/stm32f4/stm-idf/components/stm32f4xx_hal_driver/stm32f4xx_hal_nor.c ****   
 522:/home/phong/Documents/thesis/stm32f4/stm-idf/components/stm32f4xx_hal_driver/stm32f4xx_hal_nor.c ****   return HAL_OK;  
 584              		.loc 1 522 0 discriminator 4
 585 006e 1846     		mov	r0, r3
 586              	.LVL36:
 523:/home/phong/Documents/thesis/stm32f4/stm-idf/components/stm32f4xx_hal_driver/stm32f4xx_hal_nor.c **** }
 587              		.loc 1 523 0 discriminator 4
 588 0070 F0BC     		pop	{r4, r5, r6, r7}
 589              	.LCFI8:
 590              		.cfi_remember_state
ARM GAS  /tmp/ccYyp54X.s 			page 21


 591              		.cfi_restore 7
 592              		.cfi_restore 6
 593              		.cfi_restore 5
 594              		.cfi_restore 4
 595              		.cfi_def_cfa_offset 0
 596 0072 7047     		bx	lr
 597              	.LVL37:
 598              	.L68:
 599              	.LCFI9:
 600              		.cfi_restore_state
 494:/home/phong/Documents/thesis/stm32f4/stm-idf/components/stm32f4xx_hal_driver/stm32f4xx_hal_nor.c ****   }
 601              		.loc 1 494 0
 602 0074 4FF0C843 		mov	r3, #1677721600
 603 0078 DDE7     		b	.L60
 604              	.LVL38:
 605              	.L75:
 509:/home/phong/Documents/thesis/stm32f4/stm-idf/components/stm32f4xx_hal_driver/stm32f4xx_hal_nor.c ****   NOR_WRITE(NOR_ADDR_SHIFT(deviceaddress, uwNORMemoryDataWidth, NOR_CMD_ADDRESS_SECOND), NOR_CMD_DA
 606              		.loc 1 509 0 discriminator 1
 607 007a 03F6AA25 		addw	r5, r3, #2730
 608 007e E3E7     		b	.L62
 609              	.L76:
 510:/home/phong/Documents/thesis/stm32f4/stm-idf/components/stm32f4xx_hal_driver/stm32f4xx_hal_nor.c ****   NOR_WRITE(NOR_ADDR_SHIFT(deviceaddress, uwNORMemoryDataWidth, NOR_CMD_ADDRESS_THIRD), NOR_CMD_DAT
 610              		.loc 1 510 0 discriminator 1
 611 0080 03F25453 		addw	r3, r3, #1364
 612              	.LVL39:
 613 0084 E7E7     		b	.L64
 614              	.LVL40:
 615              	.L65:
 616              	.LCFI10:
 617              		.cfi_def_cfa_offset 0
 618              		.cfi_restore 4
 619              		.cfi_restore 5
 620              		.cfi_restore 6
 621              		.cfi_restore 7
 479:/home/phong/Documents/thesis/stm32f4/stm-idf/components/stm32f4xx_hal_driver/stm32f4xx_hal_nor.c ****   
 622              		.loc 1 479 0
 623 0086 0220     		movs	r0, #2
 624              	.LVL41:
 625 0088 7047     		bx	lr
 626              	.LVL42:
 627              	.L66:
 484:/home/phong/Documents/thesis/stm32f4/stm-idf/components/stm32f4xx_hal_driver/stm32f4xx_hal_nor.c ****   }
 628              		.loc 1 484 0
 629 008a 0220     		movs	r0, #2
 630              	.LVL43:
 631 008c 7047     		bx	lr
 632              	.L78:
 633 008e 00BF     		.align	2
 634              	.L77:
 635 0090 00000000 		.word	.LANCHOR0
 636              		.cfi_endproc
 637              	.LFE137:
 639              		.section	.text.HAL_NOR_Program,"ax",%progbits
 640              		.align	1
 641              		.global	HAL_NOR_Program
 642              		.syntax unified
 643              		.thumb
ARM GAS  /tmp/ccYyp54X.s 			page 22


 644              		.thumb_func
 645              		.fpu fpv4-sp-d16
 647              	HAL_NOR_Program:
 648              	.LFB138:
 524:/home/phong/Documents/thesis/stm32f4/stm-idf/components/stm32f4xx_hal_driver/stm32f4xx_hal_nor.c **** 
 525:/home/phong/Documents/thesis/stm32f4/stm-idf/components/stm32f4xx_hal_driver/stm32f4xx_hal_nor.c **** /**
 526:/home/phong/Documents/thesis/stm32f4/stm-idf/components/stm32f4xx_hal_driver/stm32f4xx_hal_nor.c ****   * @brief  Program data to NOR memory 
 527:/home/phong/Documents/thesis/stm32f4/stm-idf/components/stm32f4xx_hal_driver/stm32f4xx_hal_nor.c ****   * @param  hnor pointer to a NOR_HandleTypeDef structure that contains
 528:/home/phong/Documents/thesis/stm32f4/stm-idf/components/stm32f4xx_hal_driver/stm32f4xx_hal_nor.c ****   *                the configuration information for NOR module.
 529:/home/phong/Documents/thesis/stm32f4/stm-idf/components/stm32f4xx_hal_driver/stm32f4xx_hal_nor.c ****   * @param  pAddress Device address
 530:/home/phong/Documents/thesis/stm32f4/stm-idf/components/stm32f4xx_hal_driver/stm32f4xx_hal_nor.c ****   * @param  pData  pointer to the data to write   
 531:/home/phong/Documents/thesis/stm32f4/stm-idf/components/stm32f4xx_hal_driver/stm32f4xx_hal_nor.c ****   * @retval HAL status
 532:/home/phong/Documents/thesis/stm32f4/stm-idf/components/stm32f4xx_hal_driver/stm32f4xx_hal_nor.c ****   */
 533:/home/phong/Documents/thesis/stm32f4/stm-idf/components/stm32f4xx_hal_driver/stm32f4xx_hal_nor.c **** HAL_StatusTypeDef HAL_NOR_Program(NOR_HandleTypeDef *hnor, uint32_t *pAddress, uint16_t *pData)
 534:/home/phong/Documents/thesis/stm32f4/stm-idf/components/stm32f4xx_hal_driver/stm32f4xx_hal_nor.c **** {
 649              		.loc 1 534 0
 650              		.cfi_startproc
 651              		@ args = 0, pretend = 0, frame = 0
 652              		@ frame_needed = 0, uses_anonymous_args = 0
 653              		@ link register save eliminated.
 654              	.LVL44:
 535:/home/phong/Documents/thesis/stm32f4/stm-idf/components/stm32f4xx_hal_driver/stm32f4xx_hal_nor.c ****   uint32_t deviceaddress = 0U;
 536:/home/phong/Documents/thesis/stm32f4/stm-idf/components/stm32f4xx_hal_driver/stm32f4xx_hal_nor.c ****   
 537:/home/phong/Documents/thesis/stm32f4/stm-idf/components/stm32f4xx_hal_driver/stm32f4xx_hal_nor.c ****   /* Process Locked */
 538:/home/phong/Documents/thesis/stm32f4/stm-idf/components/stm32f4xx_hal_driver/stm32f4xx_hal_nor.c ****   __HAL_LOCK(hnor);
 655              		.loc 1 538 0
 656 0000 90F84830 		ldrb	r3, [r0, #72]	@ zero_extendqisi2
 657 0004 012B     		cmp	r3, #1
 658 0006 3ED0     		beq	.L86
 659              		.loc 1 538 0 is_stmt 0 discriminator 2
 660 0008 0123     		movs	r3, #1
 661 000a 80F84830 		strb	r3, [r0, #72]
 539:/home/phong/Documents/thesis/stm32f4/stm-idf/components/stm32f4xx_hal_driver/stm32f4xx_hal_nor.c ****   
 540:/home/phong/Documents/thesis/stm32f4/stm-idf/components/stm32f4xx_hal_driver/stm32f4xx_hal_nor.c ****   /* Check the NOR controller state */
 541:/home/phong/Documents/thesis/stm32f4/stm-idf/components/stm32f4xx_hal_driver/stm32f4xx_hal_nor.c ****   if(hnor->State == HAL_NOR_STATE_BUSY)
 662              		.loc 1 541 0 is_stmt 1 discriminator 2
 663 000e 90F84930 		ldrb	r3, [r0, #73]	@ zero_extendqisi2
 664 0012 DBB2     		uxtb	r3, r3
 665 0014 022B     		cmp	r3, #2
 666 0016 38D0     		beq	.L87
 534:/home/phong/Documents/thesis/stm32f4/stm-idf/components/stm32f4xx_hal_driver/stm32f4xx_hal_nor.c ****   uint32_t deviceaddress = 0U;
 667              		.loc 1 534 0
 668 0018 F0B4     		push	{r4, r5, r6, r7}
 669              	.LCFI11:
 670              		.cfi_def_cfa_offset 16
 671              		.cfi_offset 4, -16
 672              		.cfi_offset 5, -12
 673              		.cfi_offset 6, -8
 674              		.cfi_offset 7, -4
 542:/home/phong/Documents/thesis/stm32f4/stm-idf/components/stm32f4xx_hal_driver/stm32f4xx_hal_nor.c ****   {
 543:/home/phong/Documents/thesis/stm32f4/stm-idf/components/stm32f4xx_hal_driver/stm32f4xx_hal_nor.c ****      return HAL_BUSY;
 544:/home/phong/Documents/thesis/stm32f4/stm-idf/components/stm32f4xx_hal_driver/stm32f4xx_hal_nor.c ****   }
 545:/home/phong/Documents/thesis/stm32f4/stm-idf/components/stm32f4xx_hal_driver/stm32f4xx_hal_nor.c ****   
 546:/home/phong/Documents/thesis/stm32f4/stm-idf/components/stm32f4xx_hal_driver/stm32f4xx_hal_nor.c ****   /* Select the NOR device address */
 547:/home/phong/Documents/thesis/stm32f4/stm-idf/components/stm32f4xx_hal_driver/stm32f4xx_hal_nor.c ****   if (hnor->Init.NSBank == FMC_NORSRAM_BANK1)
 675              		.loc 1 547 0
 676 001a 8368     		ldr	r3, [r0, #8]
ARM GAS  /tmp/ccYyp54X.s 			page 23


 677 001c 4BB1     		cbz	r3, .L88
 548:/home/phong/Documents/thesis/stm32f4/stm-idf/components/stm32f4xx_hal_driver/stm32f4xx_hal_nor.c ****   {
 549:/home/phong/Documents/thesis/stm32f4/stm-idf/components/stm32f4xx_hal_driver/stm32f4xx_hal_nor.c ****     deviceaddress = NOR_MEMORY_ADRESS1;
 550:/home/phong/Documents/thesis/stm32f4/stm-idf/components/stm32f4xx_hal_driver/stm32f4xx_hal_nor.c ****   }
 551:/home/phong/Documents/thesis/stm32f4/stm-idf/components/stm32f4xx_hal_driver/stm32f4xx_hal_nor.c ****   else if (hnor->Init.NSBank == FMC_NORSRAM_BANK2)
 678              		.loc 1 551 0
 679 001e 022B     		cmp	r3, #2
 680 0020 28D0     		beq	.L89
 552:/home/phong/Documents/thesis/stm32f4/stm-idf/components/stm32f4xx_hal_driver/stm32f4xx_hal_nor.c ****   {
 553:/home/phong/Documents/thesis/stm32f4/stm-idf/components/stm32f4xx_hal_driver/stm32f4xx_hal_nor.c ****     deviceaddress = NOR_MEMORY_ADRESS2;
 554:/home/phong/Documents/thesis/stm32f4/stm-idf/components/stm32f4xx_hal_driver/stm32f4xx_hal_nor.c ****   }
 555:/home/phong/Documents/thesis/stm32f4/stm-idf/components/stm32f4xx_hal_driver/stm32f4xx_hal_nor.c ****   else if (hnor->Init.NSBank == FMC_NORSRAM_BANK3)
 681              		.loc 1 555 0
 682 0022 042B     		cmp	r3, #4
 683 0024 02D0     		beq	.L95
 556:/home/phong/Documents/thesis/stm32f4/stm-idf/components/stm32f4xx_hal_driver/stm32f4xx_hal_nor.c ****   {
 557:/home/phong/Documents/thesis/stm32f4/stm-idf/components/stm32f4xx_hal_driver/stm32f4xx_hal_nor.c ****     deviceaddress = NOR_MEMORY_ADRESS3;
 558:/home/phong/Documents/thesis/stm32f4/stm-idf/components/stm32f4xx_hal_driver/stm32f4xx_hal_nor.c ****   }
 559:/home/phong/Documents/thesis/stm32f4/stm-idf/components/stm32f4xx_hal_driver/stm32f4xx_hal_nor.c ****   else /* FMC_NORSRAM_BANK4 */
 560:/home/phong/Documents/thesis/stm32f4/stm-idf/components/stm32f4xx_hal_driver/stm32f4xx_hal_nor.c ****   {
 561:/home/phong/Documents/thesis/stm32f4/stm-idf/components/stm32f4xx_hal_driver/stm32f4xx_hal_nor.c ****     deviceaddress = NOR_MEMORY_ADRESS4;
 684              		.loc 1 561 0
 685 0026 4FF0D843 		mov	r3, #1811939328
 686 002a 04E0     		b	.L81
 687              	.L95:
 557:/home/phong/Documents/thesis/stm32f4/stm-idf/components/stm32f4xx_hal_driver/stm32f4xx_hal_nor.c ****   }
 688              		.loc 1 557 0
 689 002c 4FF0D043 		mov	r3, #1744830464
 690 0030 01E0     		b	.L81
 691              	.L88:
 549:/home/phong/Documents/thesis/stm32f4/stm-idf/components/stm32f4xx_hal_driver/stm32f4xx_hal_nor.c ****   }
 692              		.loc 1 549 0
 693 0032 4FF0C043 		mov	r3, #1610612736
 694              	.L81:
 695              	.LVL45:
 562:/home/phong/Documents/thesis/stm32f4/stm-idf/components/stm32f4xx_hal_driver/stm32f4xx_hal_nor.c ****   } 
 563:/home/phong/Documents/thesis/stm32f4/stm-idf/components/stm32f4xx_hal_driver/stm32f4xx_hal_nor.c ****     
 564:/home/phong/Documents/thesis/stm32f4/stm-idf/components/stm32f4xx_hal_driver/stm32f4xx_hal_nor.c ****   /* Update the NOR controller state */
 565:/home/phong/Documents/thesis/stm32f4/stm-idf/components/stm32f4xx_hal_driver/stm32f4xx_hal_nor.c ****   hnor->State = HAL_NOR_STATE_BUSY;
 696              		.loc 1 565 0
 697 0036 0224     		movs	r4, #2
 698 0038 80F84940 		strb	r4, [r0, #73]
 566:/home/phong/Documents/thesis/stm32f4/stm-idf/components/stm32f4xx_hal_driver/stm32f4xx_hal_nor.c ****   
 567:/home/phong/Documents/thesis/stm32f4/stm-idf/components/stm32f4xx_hal_driver/stm32f4xx_hal_nor.c ****   /* Send program data command */
 568:/home/phong/Documents/thesis/stm32f4/stm-idf/components/stm32f4xx_hal_driver/stm32f4xx_hal_nor.c ****   NOR_WRITE(NOR_ADDR_SHIFT(deviceaddress, uwNORMemoryDataWidth, NOR_CMD_ADDRESS_FIRST), NOR_CMD_DAT
 699              		.loc 1 568 0
 700 003c 144C     		ldr	r4, .L98
 701 003e 2468     		ldr	r4, [r4]
 702 0040 012C     		cmp	r4, #1
 703 0042 1AD0     		beq	.L96
 704              		.loc 1 568 0 is_stmt 0 discriminator 2
 705 0044 03F25555 		addw	r5, r3, #1365
 706              	.L83:
 707              		.loc 1 568 0 discriminator 4
 708 0048 2E46     		mov	r6, r5
 709 004a AA27     		movs	r7, #170
 710 004c 2F80     		strh	r7, [r5]	@ movhi
ARM GAS  /tmp/ccYyp54X.s 			page 24


 569:/home/phong/Documents/thesis/stm32f4/stm-idf/components/stm32f4xx_hal_driver/stm32f4xx_hal_nor.c ****   NOR_WRITE(NOR_ADDR_SHIFT(deviceaddress, uwNORMemoryDataWidth, NOR_CMD_ADDRESS_SECOND), NOR_CMD_DA
 711              		.loc 1 569 0 is_stmt 1 discriminator 4
 712 004e 012C     		cmp	r4, #1
 713 0050 16D0     		beq	.L97
 714              		.loc 1 569 0 is_stmt 0 discriminator 2
 715 0052 03F2AA23 		addw	r3, r3, #682
 716              	.LVL46:
 717              	.L85:
 718              		.loc 1 569 0 discriminator 4
 719 0056 5524     		movs	r4, #85
 720 0058 1C80     		strh	r4, [r3]	@ movhi
 570:/home/phong/Documents/thesis/stm32f4/stm-idf/components/stm32f4xx_hal_driver/stm32f4xx_hal_nor.c ****   NOR_WRITE(NOR_ADDR_SHIFT(deviceaddress, uwNORMemoryDataWidth, NOR_CMD_ADDRESS_THIRD), NOR_CMD_DAT
 721              		.loc 1 570 0 is_stmt 1 discriminator 4
 722 005a A023     		movs	r3, #160
 723 005c 3380     		strh	r3, [r6]	@ movhi
 571:/home/phong/Documents/thesis/stm32f4/stm-idf/components/stm32f4xx_hal_driver/stm32f4xx_hal_nor.c **** 
 572:/home/phong/Documents/thesis/stm32f4/stm-idf/components/stm32f4xx_hal_driver/stm32f4xx_hal_nor.c ****   /* Write the data */
 573:/home/phong/Documents/thesis/stm32f4/stm-idf/components/stm32f4xx_hal_driver/stm32f4xx_hal_nor.c ****   NOR_WRITE(pAddress, *pData);
 724              		.loc 1 573 0 discriminator 4
 725 005e 1388     		ldrh	r3, [r2]
 726 0060 0B80     		strh	r3, [r1]	@ movhi
 574:/home/phong/Documents/thesis/stm32f4/stm-idf/components/stm32f4xx_hal_driver/stm32f4xx_hal_nor.c ****   
 575:/home/phong/Documents/thesis/stm32f4/stm-idf/components/stm32f4xx_hal_driver/stm32f4xx_hal_nor.c ****   /* Check the NOR controller state */
 576:/home/phong/Documents/thesis/stm32f4/stm-idf/components/stm32f4xx_hal_driver/stm32f4xx_hal_nor.c ****   hnor->State = HAL_NOR_STATE_READY;
 727              		.loc 1 576 0 discriminator 4
 728 0062 0123     		movs	r3, #1
 729 0064 80F84930 		strb	r3, [r0, #73]
 577:/home/phong/Documents/thesis/stm32f4/stm-idf/components/stm32f4xx_hal_driver/stm32f4xx_hal_nor.c ****   
 578:/home/phong/Documents/thesis/stm32f4/stm-idf/components/stm32f4xx_hal_driver/stm32f4xx_hal_nor.c ****   /* Process unlocked */
 579:/home/phong/Documents/thesis/stm32f4/stm-idf/components/stm32f4xx_hal_driver/stm32f4xx_hal_nor.c ****   __HAL_UNLOCK(hnor);
 730              		.loc 1 579 0 discriminator 4
 731 0068 0023     		movs	r3, #0
 732 006a 80F84830 		strb	r3, [r0, #72]
 580:/home/phong/Documents/thesis/stm32f4/stm-idf/components/stm32f4xx_hal_driver/stm32f4xx_hal_nor.c ****   
 581:/home/phong/Documents/thesis/stm32f4/stm-idf/components/stm32f4xx_hal_driver/stm32f4xx_hal_nor.c ****   return HAL_OK;  
 733              		.loc 1 581 0 discriminator 4
 734 006e 1846     		mov	r0, r3
 735              	.LVL47:
 582:/home/phong/Documents/thesis/stm32f4/stm-idf/components/stm32f4xx_hal_driver/stm32f4xx_hal_nor.c **** }
 736              		.loc 1 582 0 discriminator 4
 737 0070 F0BC     		pop	{r4, r5, r6, r7}
 738              	.LCFI12:
 739              		.cfi_remember_state
 740              		.cfi_restore 7
 741              		.cfi_restore 6
 742              		.cfi_restore 5
 743              		.cfi_restore 4
 744              		.cfi_def_cfa_offset 0
 745 0072 7047     		bx	lr
 746              	.LVL48:
 747              	.L89:
 748              	.LCFI13:
 749              		.cfi_restore_state
 553:/home/phong/Documents/thesis/stm32f4/stm-idf/components/stm32f4xx_hal_driver/stm32f4xx_hal_nor.c ****   }
 750              		.loc 1 553 0
 751 0074 4FF0C843 		mov	r3, #1677721600
 752 0078 DDE7     		b	.L81
ARM GAS  /tmp/ccYyp54X.s 			page 25


 753              	.LVL49:
 754              	.L96:
 568:/home/phong/Documents/thesis/stm32f4/stm-idf/components/stm32f4xx_hal_driver/stm32f4xx_hal_nor.c ****   NOR_WRITE(NOR_ADDR_SHIFT(deviceaddress, uwNORMemoryDataWidth, NOR_CMD_ADDRESS_SECOND), NOR_CMD_DA
 755              		.loc 1 568 0 discriminator 1
 756 007a 03F6AA25 		addw	r5, r3, #2730
 757 007e E3E7     		b	.L83
 758              	.L97:
 569:/home/phong/Documents/thesis/stm32f4/stm-idf/components/stm32f4xx_hal_driver/stm32f4xx_hal_nor.c ****   NOR_WRITE(NOR_ADDR_SHIFT(deviceaddress, uwNORMemoryDataWidth, NOR_CMD_ADDRESS_THIRD), NOR_CMD_DAT
 759              		.loc 1 569 0 discriminator 1
 760 0080 03F25453 		addw	r3, r3, #1364
 761              	.LVL50:
 762 0084 E7E7     		b	.L85
 763              	.LVL51:
 764              	.L86:
 765              	.LCFI14:
 766              		.cfi_def_cfa_offset 0
 767              		.cfi_restore 4
 768              		.cfi_restore 5
 769              		.cfi_restore 6
 770              		.cfi_restore 7
 538:/home/phong/Documents/thesis/stm32f4/stm-idf/components/stm32f4xx_hal_driver/stm32f4xx_hal_nor.c ****   
 771              		.loc 1 538 0
 772 0086 0220     		movs	r0, #2
 773              	.LVL52:
 774 0088 7047     		bx	lr
 775              	.LVL53:
 776              	.L87:
 543:/home/phong/Documents/thesis/stm32f4/stm-idf/components/stm32f4xx_hal_driver/stm32f4xx_hal_nor.c ****   }
 777              		.loc 1 543 0
 778 008a 0220     		movs	r0, #2
 779              	.LVL54:
 780 008c 7047     		bx	lr
 781              	.L99:
 782 008e 00BF     		.align	2
 783              	.L98:
 784 0090 00000000 		.word	.LANCHOR0
 785              		.cfi_endproc
 786              	.LFE138:
 788              		.section	.text.HAL_NOR_ReadBuffer,"ax",%progbits
 789              		.align	1
 790              		.global	HAL_NOR_ReadBuffer
 791              		.syntax unified
 792              		.thumb
 793              		.thumb_func
 794              		.fpu fpv4-sp-d16
 796              	HAL_NOR_ReadBuffer:
 797              	.LFB139:
 583:/home/phong/Documents/thesis/stm32f4/stm-idf/components/stm32f4xx_hal_driver/stm32f4xx_hal_nor.c **** 
 584:/home/phong/Documents/thesis/stm32f4/stm-idf/components/stm32f4xx_hal_driver/stm32f4xx_hal_nor.c **** /**
 585:/home/phong/Documents/thesis/stm32f4/stm-idf/components/stm32f4xx_hal_driver/stm32f4xx_hal_nor.c ****   * @brief  Reads a half-word buffer from the NOR memory.
 586:/home/phong/Documents/thesis/stm32f4/stm-idf/components/stm32f4xx_hal_driver/stm32f4xx_hal_nor.c ****   * @param  hnor pointer to the NOR handle
 587:/home/phong/Documents/thesis/stm32f4/stm-idf/components/stm32f4xx_hal_driver/stm32f4xx_hal_nor.c ****   * @param  uwAddress NOR memory internal address to read from.
 588:/home/phong/Documents/thesis/stm32f4/stm-idf/components/stm32f4xx_hal_driver/stm32f4xx_hal_nor.c ****   * @param  pData pointer to the buffer that receives the data read from the 
 589:/home/phong/Documents/thesis/stm32f4/stm-idf/components/stm32f4xx_hal_driver/stm32f4xx_hal_nor.c ****   *         NOR memory.
 590:/home/phong/Documents/thesis/stm32f4/stm-idf/components/stm32f4xx_hal_driver/stm32f4xx_hal_nor.c ****   * @param  uwBufferSize  number of Half word to read.
 591:/home/phong/Documents/thesis/stm32f4/stm-idf/components/stm32f4xx_hal_driver/stm32f4xx_hal_nor.c ****   * @retval HAL status
 592:/home/phong/Documents/thesis/stm32f4/stm-idf/components/stm32f4xx_hal_driver/stm32f4xx_hal_nor.c ****   */
ARM GAS  /tmp/ccYyp54X.s 			page 26


 593:/home/phong/Documents/thesis/stm32f4/stm-idf/components/stm32f4xx_hal_driver/stm32f4xx_hal_nor.c **** HAL_StatusTypeDef HAL_NOR_ReadBuffer(NOR_HandleTypeDef *hnor, uint32_t uwAddress, uint16_t *pData, 
 594:/home/phong/Documents/thesis/stm32f4/stm-idf/components/stm32f4xx_hal_driver/stm32f4xx_hal_nor.c **** {
 798              		.loc 1 594 0
 799              		.cfi_startproc
 800              		@ args = 0, pretend = 0, frame = 0
 801              		@ frame_needed = 0, uses_anonymous_args = 0
 802              	.LVL55:
 803 0000 F0B5     		push	{r4, r5, r6, r7, lr}
 804              	.LCFI15:
 805              		.cfi_def_cfa_offset 20
 806              		.cfi_offset 4, -20
 807              		.cfi_offset 5, -16
 808              		.cfi_offset 6, -12
 809              		.cfi_offset 7, -8
 810              		.cfi_offset 14, -4
 811              	.LVL56:
 595:/home/phong/Documents/thesis/stm32f4/stm-idf/components/stm32f4xx_hal_driver/stm32f4xx_hal_nor.c ****   uint32_t deviceaddress = 0U;
 596:/home/phong/Documents/thesis/stm32f4/stm-idf/components/stm32f4xx_hal_driver/stm32f4xx_hal_nor.c ****   
 597:/home/phong/Documents/thesis/stm32f4/stm-idf/components/stm32f4xx_hal_driver/stm32f4xx_hal_nor.c ****   /* Process Locked */
 598:/home/phong/Documents/thesis/stm32f4/stm-idf/components/stm32f4xx_hal_driver/stm32f4xx_hal_nor.c ****   __HAL_LOCK(hnor);
 812              		.loc 1 598 0
 813 0002 90F84840 		ldrb	r4, [r0, #72]	@ zero_extendqisi2
 814 0006 012C     		cmp	r4, #1
 815 0008 44D0     		beq	.L109
 816              		.loc 1 598 0 is_stmt 0 discriminator 2
 817 000a 0124     		movs	r4, #1
 818 000c 80F84840 		strb	r4, [r0, #72]
 599:/home/phong/Documents/thesis/stm32f4/stm-idf/components/stm32f4xx_hal_driver/stm32f4xx_hal_nor.c ****   
 600:/home/phong/Documents/thesis/stm32f4/stm-idf/components/stm32f4xx_hal_driver/stm32f4xx_hal_nor.c ****   /* Check the NOR controller state */
 601:/home/phong/Documents/thesis/stm32f4/stm-idf/components/stm32f4xx_hal_driver/stm32f4xx_hal_nor.c ****   if(hnor->State == HAL_NOR_STATE_BUSY)
 819              		.loc 1 601 0 is_stmt 1 discriminator 2
 820 0010 90F84940 		ldrb	r4, [r0, #73]	@ zero_extendqisi2
 821 0014 E4B2     		uxtb	r4, r4
 822 0016 022C     		cmp	r4, #2
 823 0018 3ED0     		beq	.L110
 602:/home/phong/Documents/thesis/stm32f4/stm-idf/components/stm32f4xx_hal_driver/stm32f4xx_hal_nor.c ****   {
 603:/home/phong/Documents/thesis/stm32f4/stm-idf/components/stm32f4xx_hal_driver/stm32f4xx_hal_nor.c ****      return HAL_BUSY;
 604:/home/phong/Documents/thesis/stm32f4/stm-idf/components/stm32f4xx_hal_driver/stm32f4xx_hal_nor.c ****   }
 605:/home/phong/Documents/thesis/stm32f4/stm-idf/components/stm32f4xx_hal_driver/stm32f4xx_hal_nor.c ****   
 606:/home/phong/Documents/thesis/stm32f4/stm-idf/components/stm32f4xx_hal_driver/stm32f4xx_hal_nor.c ****   /* Select the NOR device address */
 607:/home/phong/Documents/thesis/stm32f4/stm-idf/components/stm32f4xx_hal_driver/stm32f4xx_hal_nor.c ****   if (hnor->Init.NSBank == FMC_NORSRAM_BANK1)
 824              		.loc 1 607 0
 825 001a 8468     		ldr	r4, [r0, #8]
 826 001c 4CB1     		cbz	r4, .L111
 608:/home/phong/Documents/thesis/stm32f4/stm-idf/components/stm32f4xx_hal_driver/stm32f4xx_hal_nor.c ****   {
 609:/home/phong/Documents/thesis/stm32f4/stm-idf/components/stm32f4xx_hal_driver/stm32f4xx_hal_nor.c ****     deviceaddress = NOR_MEMORY_ADRESS1;
 610:/home/phong/Documents/thesis/stm32f4/stm-idf/components/stm32f4xx_hal_driver/stm32f4xx_hal_nor.c ****   }
 611:/home/phong/Documents/thesis/stm32f4/stm-idf/components/stm32f4xx_hal_driver/stm32f4xx_hal_nor.c ****   else if (hnor->Init.NSBank == FMC_NORSRAM_BANK2)
 827              		.loc 1 611 0
 828 001e 022C     		cmp	r4, #2
 829 0020 20D0     		beq	.L112
 612:/home/phong/Documents/thesis/stm32f4/stm-idf/components/stm32f4xx_hal_driver/stm32f4xx_hal_nor.c ****   {
 613:/home/phong/Documents/thesis/stm32f4/stm-idf/components/stm32f4xx_hal_driver/stm32f4xx_hal_nor.c ****     deviceaddress = NOR_MEMORY_ADRESS2;
 614:/home/phong/Documents/thesis/stm32f4/stm-idf/components/stm32f4xx_hal_driver/stm32f4xx_hal_nor.c ****   }
 615:/home/phong/Documents/thesis/stm32f4/stm-idf/components/stm32f4xx_hal_driver/stm32f4xx_hal_nor.c ****   else if (hnor->Init.NSBank == FMC_NORSRAM_BANK3)
 830              		.loc 1 615 0
 831 0022 042C     		cmp	r4, #4
ARM GAS  /tmp/ccYyp54X.s 			page 27


 832 0024 02D0     		beq	.L115
 616:/home/phong/Documents/thesis/stm32f4/stm-idf/components/stm32f4xx_hal_driver/stm32f4xx_hal_nor.c ****   {
 617:/home/phong/Documents/thesis/stm32f4/stm-idf/components/stm32f4xx_hal_driver/stm32f4xx_hal_nor.c ****     deviceaddress = NOR_MEMORY_ADRESS3;
 618:/home/phong/Documents/thesis/stm32f4/stm-idf/components/stm32f4xx_hal_driver/stm32f4xx_hal_nor.c ****   }
 619:/home/phong/Documents/thesis/stm32f4/stm-idf/components/stm32f4xx_hal_driver/stm32f4xx_hal_nor.c ****   else /* FMC_NORSRAM_BANK4 */
 620:/home/phong/Documents/thesis/stm32f4/stm-idf/components/stm32f4xx_hal_driver/stm32f4xx_hal_nor.c ****   {
 621:/home/phong/Documents/thesis/stm32f4/stm-idf/components/stm32f4xx_hal_driver/stm32f4xx_hal_nor.c ****     deviceaddress = NOR_MEMORY_ADRESS4;
 833              		.loc 1 621 0
 834 0026 4FF0D844 		mov	r4, #1811939328
 835 002a 04E0     		b	.L102
 836              	.L115:
 617:/home/phong/Documents/thesis/stm32f4/stm-idf/components/stm32f4xx_hal_driver/stm32f4xx_hal_nor.c ****   }
 837              		.loc 1 617 0
 838 002c 4FF0D044 		mov	r4, #1744830464
 839 0030 01E0     		b	.L102
 840              	.L111:
 609:/home/phong/Documents/thesis/stm32f4/stm-idf/components/stm32f4xx_hal_driver/stm32f4xx_hal_nor.c ****   }
 841              		.loc 1 609 0
 842 0032 4FF0C044 		mov	r4, #1610612736
 843              	.L102:
 844              	.LVL57:
 622:/home/phong/Documents/thesis/stm32f4/stm-idf/components/stm32f4xx_hal_driver/stm32f4xx_hal_nor.c ****   }  
 623:/home/phong/Documents/thesis/stm32f4/stm-idf/components/stm32f4xx_hal_driver/stm32f4xx_hal_nor.c ****     
 624:/home/phong/Documents/thesis/stm32f4/stm-idf/components/stm32f4xx_hal_driver/stm32f4xx_hal_nor.c ****   /* Update the NOR controller state */
 625:/home/phong/Documents/thesis/stm32f4/stm-idf/components/stm32f4xx_hal_driver/stm32f4xx_hal_nor.c ****   hnor->State = HAL_NOR_STATE_BUSY;
 845              		.loc 1 625 0
 846 0036 0225     		movs	r5, #2
 847 0038 80F84950 		strb	r5, [r0, #73]
 626:/home/phong/Documents/thesis/stm32f4/stm-idf/components/stm32f4xx_hal_driver/stm32f4xx_hal_nor.c ****   
 627:/home/phong/Documents/thesis/stm32f4/stm-idf/components/stm32f4xx_hal_driver/stm32f4xx_hal_nor.c ****   /* Send read data command */
 628:/home/phong/Documents/thesis/stm32f4/stm-idf/components/stm32f4xx_hal_driver/stm32f4xx_hal_nor.c ****   NOR_WRITE(NOR_ADDR_SHIFT(deviceaddress, uwNORMemoryDataWidth, NOR_CMD_ADDRESS_FIRST), NOR_CMD_DAT
 848              		.loc 1 628 0
 849 003c 174D     		ldr	r5, .L118
 850 003e 2D68     		ldr	r5, [r5]
 851 0040 012D     		cmp	r5, #1
 852 0042 12D0     		beq	.L116
 853              		.loc 1 628 0 is_stmt 0 discriminator 2
 854 0044 04F25556 		addw	r6, r4, #1365
 855              	.L104:
 856              		.loc 1 628 0 discriminator 4
 857 0048 3746     		mov	r7, r6
 858 004a 4FF0AA0E 		mov	lr, #170
 859 004e A6F800E0 		strh	lr, [r6]	@ movhi
 629:/home/phong/Documents/thesis/stm32f4/stm-idf/components/stm32f4xx_hal_driver/stm32f4xx_hal_nor.c ****   NOR_WRITE(NOR_ADDR_SHIFT(deviceaddress, uwNORMemoryDataWidth, NOR_CMD_ADDRESS_SECOND), NOR_CMD_DA
 860              		.loc 1 629 0 is_stmt 1 discriminator 4
 861 0052 012D     		cmp	r5, #1
 862 0054 0CD0     		beq	.L117
 863              		.loc 1 629 0 is_stmt 0 discriminator 2
 864 0056 04F2AA24 		addw	r4, r4, #682
 865              	.LVL58:
 866              	.L106:
 867              		.loc 1 629 0 discriminator 4
 868 005a 5525     		movs	r5, #85
 869 005c 2580     		strh	r5, [r4]	@ movhi
 630:/home/phong/Documents/thesis/stm32f4/stm-idf/components/stm32f4xx_hal_driver/stm32f4xx_hal_nor.c ****   NOR_WRITE(NOR_ADDR_SHIFT(deviceaddress, uwNORMemoryDataWidth, NOR_CMD_ADDRESS_THIRD), NOR_CMD_DAT
 870              		.loc 1 630 0 is_stmt 1 discriminator 4
 871 005e F024     		movs	r4, #240
ARM GAS  /tmp/ccYyp54X.s 			page 28


 872 0060 3C80     		strh	r4, [r7]	@ movhi
 631:/home/phong/Documents/thesis/stm32f4/stm-idf/components/stm32f4xx_hal_driver/stm32f4xx_hal_nor.c ****   
 632:/home/phong/Documents/thesis/stm32f4/stm-idf/components/stm32f4xx_hal_driver/stm32f4xx_hal_nor.c ****   /* Read buffer */
 633:/home/phong/Documents/thesis/stm32f4/stm-idf/components/stm32f4xx_hal_driver/stm32f4xx_hal_nor.c ****   while( uwBufferSize > 0U) 
 873              		.loc 1 633 0 discriminator 4
 874 0062 0DE0     		b	.L107
 875              	.LVL59:
 876              	.L112:
 613:/home/phong/Documents/thesis/stm32f4/stm-idf/components/stm32f4xx_hal_driver/stm32f4xx_hal_nor.c ****   }
 877              		.loc 1 613 0
 878 0064 4FF0C844 		mov	r4, #1677721600
 879 0068 E5E7     		b	.L102
 880              	.LVL60:
 881              	.L116:
 628:/home/phong/Documents/thesis/stm32f4/stm-idf/components/stm32f4xx_hal_driver/stm32f4xx_hal_nor.c ****   NOR_WRITE(NOR_ADDR_SHIFT(deviceaddress, uwNORMemoryDataWidth, NOR_CMD_ADDRESS_SECOND), NOR_CMD_DA
 882              		.loc 1 628 0 discriminator 1
 883 006a 04F6AA26 		addw	r6, r4, #2730
 884 006e EBE7     		b	.L104
 885              	.L117:
 629:/home/phong/Documents/thesis/stm32f4/stm-idf/components/stm32f4xx_hal_driver/stm32f4xx_hal_nor.c ****   NOR_WRITE(NOR_ADDR_SHIFT(deviceaddress, uwNORMemoryDataWidth, NOR_CMD_ADDRESS_THIRD), NOR_CMD_DAT
 886              		.loc 1 629 0 discriminator 1
 887 0070 04F25454 		addw	r4, r4, #1364
 888              	.LVL61:
 889 0074 F1E7     		b	.L106
 890              	.LVL62:
 891              	.L108:
 634:/home/phong/Documents/thesis/stm32f4/stm-idf/components/stm32f4xx_hal_driver/stm32f4xx_hal_nor.c ****   {
 635:/home/phong/Documents/thesis/stm32f4/stm-idf/components/stm32f4xx_hal_driver/stm32f4xx_hal_nor.c ****     *pData++ = *(__IO uint16_t *)uwAddress;
 892              		.loc 1 635 0
 893 0076 31F8024B 		ldrh	r4, [r1], #2
 894              	.LVL63:
 895 007a 1480     		strh	r4, [r2]	@ movhi
 896              	.LVL64:
 636:/home/phong/Documents/thesis/stm32f4/stm-idf/components/stm32f4xx_hal_driver/stm32f4xx_hal_nor.c ****     uwAddress += 2U;
 637:/home/phong/Documents/thesis/stm32f4/stm-idf/components/stm32f4xx_hal_driver/stm32f4xx_hal_nor.c ****     uwBufferSize--;
 897              		.loc 1 637 0
 898 007c 013B     		subs	r3, r3, #1
 899              	.LVL65:
 635:/home/phong/Documents/thesis/stm32f4/stm-idf/components/stm32f4xx_hal_driver/stm32f4xx_hal_nor.c ****     uwAddress += 2U;
 900              		.loc 1 635 0
 901 007e 0232     		adds	r2, r2, #2
 902              	.LVL66:
 903              	.L107:
 633:/home/phong/Documents/thesis/stm32f4/stm-idf/components/stm32f4xx_hal_driver/stm32f4xx_hal_nor.c ****   {
 904              		.loc 1 633 0
 905 0080 002B     		cmp	r3, #0
 906 0082 F8D1     		bne	.L108
 638:/home/phong/Documents/thesis/stm32f4/stm-idf/components/stm32f4xx_hal_driver/stm32f4xx_hal_nor.c ****   } 
 639:/home/phong/Documents/thesis/stm32f4/stm-idf/components/stm32f4xx_hal_driver/stm32f4xx_hal_nor.c ****   
 640:/home/phong/Documents/thesis/stm32f4/stm-idf/components/stm32f4xx_hal_driver/stm32f4xx_hal_nor.c ****   /* Check the NOR controller state */
 641:/home/phong/Documents/thesis/stm32f4/stm-idf/components/stm32f4xx_hal_driver/stm32f4xx_hal_nor.c ****   hnor->State = HAL_NOR_STATE_READY;
 907              		.loc 1 641 0
 908 0084 0123     		movs	r3, #1
 909              	.LVL67:
 910 0086 80F84930 		strb	r3, [r0, #73]
 642:/home/phong/Documents/thesis/stm32f4/stm-idf/components/stm32f4xx_hal_driver/stm32f4xx_hal_nor.c ****   
 643:/home/phong/Documents/thesis/stm32f4/stm-idf/components/stm32f4xx_hal_driver/stm32f4xx_hal_nor.c ****   /* Process unlocked */
ARM GAS  /tmp/ccYyp54X.s 			page 29


 644:/home/phong/Documents/thesis/stm32f4/stm-idf/components/stm32f4xx_hal_driver/stm32f4xx_hal_nor.c ****   __HAL_UNLOCK(hnor);
 911              		.loc 1 644 0
 912 008a 0023     		movs	r3, #0
 913 008c 80F84830 		strb	r3, [r0, #72]
 645:/home/phong/Documents/thesis/stm32f4/stm-idf/components/stm32f4xx_hal_driver/stm32f4xx_hal_nor.c ****   
 646:/home/phong/Documents/thesis/stm32f4/stm-idf/components/stm32f4xx_hal_driver/stm32f4xx_hal_nor.c ****   return HAL_OK;  
 914              		.loc 1 646 0
 915 0090 1846     		mov	r0, r3
 916              	.LVL68:
 917 0092 F0BD     		pop	{r4, r5, r6, r7, pc}
 918              	.LVL69:
 919              	.L109:
 598:/home/phong/Documents/thesis/stm32f4/stm-idf/components/stm32f4xx_hal_driver/stm32f4xx_hal_nor.c ****   
 920              		.loc 1 598 0
 921 0094 0220     		movs	r0, #2
 922              	.LVL70:
 923 0096 F0BD     		pop	{r4, r5, r6, r7, pc}
 924              	.LVL71:
 925              	.L110:
 603:/home/phong/Documents/thesis/stm32f4/stm-idf/components/stm32f4xx_hal_driver/stm32f4xx_hal_nor.c ****   }
 926              		.loc 1 603 0
 927 0098 0220     		movs	r0, #2
 928              	.LVL72:
 647:/home/phong/Documents/thesis/stm32f4/stm-idf/components/stm32f4xx_hal_driver/stm32f4xx_hal_nor.c **** }
 929              		.loc 1 647 0
 930 009a F0BD     		pop	{r4, r5, r6, r7, pc}
 931              	.L119:
 932              		.align	2
 933              	.L118:
 934 009c 00000000 		.word	.LANCHOR0
 935              		.cfi_endproc
 936              	.LFE139:
 938              		.section	.text.HAL_NOR_ProgramBuffer,"ax",%progbits
 939              		.align	1
 940              		.global	HAL_NOR_ProgramBuffer
 941              		.syntax unified
 942              		.thumb
 943              		.thumb_func
 944              		.fpu fpv4-sp-d16
 946              	HAL_NOR_ProgramBuffer:
 947              	.LFB140:
 648:/home/phong/Documents/thesis/stm32f4/stm-idf/components/stm32f4xx_hal_driver/stm32f4xx_hal_nor.c **** 
 649:/home/phong/Documents/thesis/stm32f4/stm-idf/components/stm32f4xx_hal_driver/stm32f4xx_hal_nor.c **** /**
 650:/home/phong/Documents/thesis/stm32f4/stm-idf/components/stm32f4xx_hal_driver/stm32f4xx_hal_nor.c ****   * @brief  Writes a half-word buffer to the NOR memory. This function must be used 
 651:/home/phong/Documents/thesis/stm32f4/stm-idf/components/stm32f4xx_hal_driver/stm32f4xx_hal_nor.c ****             only with S29GL128P NOR memory. 
 652:/home/phong/Documents/thesis/stm32f4/stm-idf/components/stm32f4xx_hal_driver/stm32f4xx_hal_nor.c ****   * @param  hnor pointer to the NOR handle
 653:/home/phong/Documents/thesis/stm32f4/stm-idf/components/stm32f4xx_hal_driver/stm32f4xx_hal_nor.c ****   * @param  uwAddress NOR memory internal start write address 
 654:/home/phong/Documents/thesis/stm32f4/stm-idf/components/stm32f4xx_hal_driver/stm32f4xx_hal_nor.c ****   * @param  pData pointer to source data buffer. 
 655:/home/phong/Documents/thesis/stm32f4/stm-idf/components/stm32f4xx_hal_driver/stm32f4xx_hal_nor.c ****   * @param  uwBufferSize Size of the buffer to write
 656:/home/phong/Documents/thesis/stm32f4/stm-idf/components/stm32f4xx_hal_driver/stm32f4xx_hal_nor.c ****   * @retval HAL status
 657:/home/phong/Documents/thesis/stm32f4/stm-idf/components/stm32f4xx_hal_driver/stm32f4xx_hal_nor.c ****   */ 
 658:/home/phong/Documents/thesis/stm32f4/stm-idf/components/stm32f4xx_hal_driver/stm32f4xx_hal_nor.c **** HAL_StatusTypeDef HAL_NOR_ProgramBuffer(NOR_HandleTypeDef *hnor, uint32_t uwAddress, uint16_t *pDat
 659:/home/phong/Documents/thesis/stm32f4/stm-idf/components/stm32f4xx_hal_driver/stm32f4xx_hal_nor.c **** {
 948              		.loc 1 659 0
 949              		.cfi_startproc
 950              		@ args = 0, pretend = 0, frame = 0
 951              		@ frame_needed = 0, uses_anonymous_args = 0
ARM GAS  /tmp/ccYyp54X.s 			page 30


 952              	.LVL73:
 953 0000 F0B5     		push	{r4, r5, r6, r7, lr}
 954              	.LCFI16:
 955              		.cfi_def_cfa_offset 20
 956              		.cfi_offset 4, -20
 957              		.cfi_offset 5, -16
 958              		.cfi_offset 6, -12
 959              		.cfi_offset 7, -8
 960              		.cfi_offset 14, -4
 961              	.LVL74:
 660:/home/phong/Documents/thesis/stm32f4/stm-idf/components/stm32f4xx_hal_driver/stm32f4xx_hal_nor.c ****   uint16_t * p_currentaddress = (uint16_t *)NULL;
 661:/home/phong/Documents/thesis/stm32f4/stm-idf/components/stm32f4xx_hal_driver/stm32f4xx_hal_nor.c ****   uint16_t * p_endaddress = (uint16_t *)NULL;
 662:/home/phong/Documents/thesis/stm32f4/stm-idf/components/stm32f4xx_hal_driver/stm32f4xx_hal_nor.c ****   uint32_t lastloadedaddress = 0U, deviceaddress = 0U;
 663:/home/phong/Documents/thesis/stm32f4/stm-idf/components/stm32f4xx_hal_driver/stm32f4xx_hal_nor.c ****   
 664:/home/phong/Documents/thesis/stm32f4/stm-idf/components/stm32f4xx_hal_driver/stm32f4xx_hal_nor.c ****   /* Process Locked */
 665:/home/phong/Documents/thesis/stm32f4/stm-idf/components/stm32f4xx_hal_driver/stm32f4xx_hal_nor.c ****   __HAL_LOCK(hnor);
 962              		.loc 1 665 0
 963 0002 90F84840 		ldrb	r4, [r0, #72]	@ zero_extendqisi2
 964 0006 012C     		cmp	r4, #1
 965 0008 56D0     		beq	.L131
 966              		.loc 1 665 0 is_stmt 0 discriminator 2
 967 000a 0124     		movs	r4, #1
 968 000c 80F84840 		strb	r4, [r0, #72]
 666:/home/phong/Documents/thesis/stm32f4/stm-idf/components/stm32f4xx_hal_driver/stm32f4xx_hal_nor.c ****   
 667:/home/phong/Documents/thesis/stm32f4/stm-idf/components/stm32f4xx_hal_driver/stm32f4xx_hal_nor.c ****   /* Check the NOR controller state */
 668:/home/phong/Documents/thesis/stm32f4/stm-idf/components/stm32f4xx_hal_driver/stm32f4xx_hal_nor.c ****   if(hnor->State == HAL_NOR_STATE_BUSY)
 969              		.loc 1 668 0 is_stmt 1 discriminator 2
 970 0010 90F84940 		ldrb	r4, [r0, #73]	@ zero_extendqisi2
 971 0014 E4B2     		uxtb	r4, r4
 972 0016 022C     		cmp	r4, #2
 973 0018 50D0     		beq	.L132
 669:/home/phong/Documents/thesis/stm32f4/stm-idf/components/stm32f4xx_hal_driver/stm32f4xx_hal_nor.c ****   {
 670:/home/phong/Documents/thesis/stm32f4/stm-idf/components/stm32f4xx_hal_driver/stm32f4xx_hal_nor.c ****      return HAL_BUSY;
 671:/home/phong/Documents/thesis/stm32f4/stm-idf/components/stm32f4xx_hal_driver/stm32f4xx_hal_nor.c ****   }
 672:/home/phong/Documents/thesis/stm32f4/stm-idf/components/stm32f4xx_hal_driver/stm32f4xx_hal_nor.c ****   
 673:/home/phong/Documents/thesis/stm32f4/stm-idf/components/stm32f4xx_hal_driver/stm32f4xx_hal_nor.c ****   /* Select the NOR device address */
 674:/home/phong/Documents/thesis/stm32f4/stm-idf/components/stm32f4xx_hal_driver/stm32f4xx_hal_nor.c ****   if (hnor->Init.NSBank == FMC_NORSRAM_BANK1)
 974              		.loc 1 674 0
 975 001a 8468     		ldr	r4, [r0, #8]
 976 001c 4CB1     		cbz	r4, .L133
 675:/home/phong/Documents/thesis/stm32f4/stm-idf/components/stm32f4xx_hal_driver/stm32f4xx_hal_nor.c ****   {
 676:/home/phong/Documents/thesis/stm32f4/stm-idf/components/stm32f4xx_hal_driver/stm32f4xx_hal_nor.c ****     deviceaddress = NOR_MEMORY_ADRESS1;
 677:/home/phong/Documents/thesis/stm32f4/stm-idf/components/stm32f4xx_hal_driver/stm32f4xx_hal_nor.c ****   }
 678:/home/phong/Documents/thesis/stm32f4/stm-idf/components/stm32f4xx_hal_driver/stm32f4xx_hal_nor.c ****   else if (hnor->Init.NSBank == FMC_NORSRAM_BANK2)
 977              		.loc 1 678 0
 978 001e 022C     		cmp	r4, #2
 979 0020 2DD0     		beq	.L134
 679:/home/phong/Documents/thesis/stm32f4/stm-idf/components/stm32f4xx_hal_driver/stm32f4xx_hal_nor.c ****   {
 680:/home/phong/Documents/thesis/stm32f4/stm-idf/components/stm32f4xx_hal_driver/stm32f4xx_hal_nor.c ****     deviceaddress = NOR_MEMORY_ADRESS2;
 681:/home/phong/Documents/thesis/stm32f4/stm-idf/components/stm32f4xx_hal_driver/stm32f4xx_hal_nor.c ****   }
 682:/home/phong/Documents/thesis/stm32f4/stm-idf/components/stm32f4xx_hal_driver/stm32f4xx_hal_nor.c ****   else if (hnor->Init.NSBank == FMC_NORSRAM_BANK3)
 980              		.loc 1 682 0
 981 0022 042C     		cmp	r4, #4
 982 0024 02D0     		beq	.L137
 683:/home/phong/Documents/thesis/stm32f4/stm-idf/components/stm32f4xx_hal_driver/stm32f4xx_hal_nor.c ****   {
 684:/home/phong/Documents/thesis/stm32f4/stm-idf/components/stm32f4xx_hal_driver/stm32f4xx_hal_nor.c ****     deviceaddress = NOR_MEMORY_ADRESS3;
 685:/home/phong/Documents/thesis/stm32f4/stm-idf/components/stm32f4xx_hal_driver/stm32f4xx_hal_nor.c ****   }
ARM GAS  /tmp/ccYyp54X.s 			page 31


 686:/home/phong/Documents/thesis/stm32f4/stm-idf/components/stm32f4xx_hal_driver/stm32f4xx_hal_nor.c ****   else /* FMC_NORSRAM_BANK4 */
 687:/home/phong/Documents/thesis/stm32f4/stm-idf/components/stm32f4xx_hal_driver/stm32f4xx_hal_nor.c ****   {
 688:/home/phong/Documents/thesis/stm32f4/stm-idf/components/stm32f4xx_hal_driver/stm32f4xx_hal_nor.c ****     deviceaddress = NOR_MEMORY_ADRESS4;
 983              		.loc 1 688 0
 984 0026 4FF0D846 		mov	r6, #1811939328
 985 002a 04E0     		b	.L122
 986              	.L137:
 684:/home/phong/Documents/thesis/stm32f4/stm-idf/components/stm32f4xx_hal_driver/stm32f4xx_hal_nor.c ****   }
 987              		.loc 1 684 0
 988 002c 4FF0D046 		mov	r6, #1744830464
 989 0030 01E0     		b	.L122
 990              	.L133:
 676:/home/phong/Documents/thesis/stm32f4/stm-idf/components/stm32f4xx_hal_driver/stm32f4xx_hal_nor.c ****   }
 991              		.loc 1 676 0
 992 0032 4FF0C046 		mov	r6, #1610612736
 993              	.L122:
 994              	.LVL75:
 689:/home/phong/Documents/thesis/stm32f4/stm-idf/components/stm32f4xx_hal_driver/stm32f4xx_hal_nor.c ****   }  
 690:/home/phong/Documents/thesis/stm32f4/stm-idf/components/stm32f4xx_hal_driver/stm32f4xx_hal_nor.c ****     
 691:/home/phong/Documents/thesis/stm32f4/stm-idf/components/stm32f4xx_hal_driver/stm32f4xx_hal_nor.c ****   /* Update the NOR controller state */
 692:/home/phong/Documents/thesis/stm32f4/stm-idf/components/stm32f4xx_hal_driver/stm32f4xx_hal_nor.c ****   hnor->State = HAL_NOR_STATE_BUSY;
 995              		.loc 1 692 0
 996 0036 0224     		movs	r4, #2
 997 0038 80F84940 		strb	r4, [r0, #73]
 693:/home/phong/Documents/thesis/stm32f4/stm-idf/components/stm32f4xx_hal_driver/stm32f4xx_hal_nor.c ****   
 694:/home/phong/Documents/thesis/stm32f4/stm-idf/components/stm32f4xx_hal_driver/stm32f4xx_hal_nor.c ****   /* Initialize variables */
 695:/home/phong/Documents/thesis/stm32f4/stm-idf/components/stm32f4xx_hal_driver/stm32f4xx_hal_nor.c ****   p_currentaddress  = (uint16_t*)((uint32_t)(uwAddress));
 998              		.loc 1 695 0
 999 003c 0C46     		mov	r4, r1
 1000              	.LVL76:
 696:/home/phong/Documents/thesis/stm32f4/stm-idf/components/stm32f4xx_hal_driver/stm32f4xx_hal_nor.c ****   p_endaddress      = p_currentaddress + (uwBufferSize-1U);
 1001              		.loc 1 696 0
 1002 003e 03F10045 		add	r5, r3, #-2147483648
 1003 0042 013D     		subs	r5, r5, #1
 1004 0044 01EB4505 		add	r5, r1, r5, lsl #1
 1005              	.LVL77:
 697:/home/phong/Documents/thesis/stm32f4/stm-idf/components/stm32f4xx_hal_driver/stm32f4xx_hal_nor.c ****   lastloadedaddress = (uint32_t)(uwAddress);
 698:/home/phong/Documents/thesis/stm32f4/stm-idf/components/stm32f4xx_hal_driver/stm32f4xx_hal_nor.c **** 
 699:/home/phong/Documents/thesis/stm32f4/stm-idf/components/stm32f4xx_hal_driver/stm32f4xx_hal_nor.c ****   /* Issue unlock command sequence */
 700:/home/phong/Documents/thesis/stm32f4/stm-idf/components/stm32f4xx_hal_driver/stm32f4xx_hal_nor.c ****   NOR_WRITE(NOR_ADDR_SHIFT(deviceaddress, uwNORMemoryDataWidth, NOR_CMD_ADDRESS_FIRST), NOR_CMD_DAT
 1006              		.loc 1 700 0
 1007 0048 1D4F     		ldr	r7, .L141
 1008 004a 3F68     		ldr	r7, [r7]
 1009 004c 012F     		cmp	r7, #1
 1010 004e 19D0     		beq	.L138
 1011              	.LVL78:
 1012              		.loc 1 700 0 is_stmt 0 discriminator 2
 1013 0050 06F2555C 		addw	ip, r6, #1365
 1014              	.L124:
 1015              		.loc 1 700 0 discriminator 4
 1016 0054 4FF0AA0E 		mov	lr, #170
 1017 0058 ACF800E0 		strh	lr, [ip]	@ movhi
 701:/home/phong/Documents/thesis/stm32f4/stm-idf/components/stm32f4xx_hal_driver/stm32f4xx_hal_nor.c ****   NOR_WRITE(NOR_ADDR_SHIFT(deviceaddress, uwNORMemoryDataWidth, NOR_CMD_ADDRESS_SECOND), NOR_CMD_DA
 1018              		.loc 1 701 0 is_stmt 1 discriminator 4
 1019 005c 012F     		cmp	r7, #1
 1020 005e 14D0     		beq	.L139
 1021              		.loc 1 701 0 is_stmt 0 discriminator 2
ARM GAS  /tmp/ccYyp54X.s 			page 32


 1022 0060 06F2AA2C 		addw	ip, r6, #682
 1023              	.L126:
 1024              		.loc 1 701 0 discriminator 4
 1025 0064 4FF0550E 		mov	lr, #85
 1026 0068 ACF800E0 		strh	lr, [ip]	@ movhi
 702:/home/phong/Documents/thesis/stm32f4/stm-idf/components/stm32f4xx_hal_driver/stm32f4xx_hal_nor.c **** 
 703:/home/phong/Documents/thesis/stm32f4/stm-idf/components/stm32f4xx_hal_driver/stm32f4xx_hal_nor.c ****   /* Write Buffer Load Command */
 704:/home/phong/Documents/thesis/stm32f4/stm-idf/components/stm32f4xx_hal_driver/stm32f4xx_hal_nor.c ****   NOR_WRITE(NOR_ADDR_SHIFT(deviceaddress, uwNORMemoryDataWidth, uwAddress), NOR_CMD_DATA_BUFFER_AND
 1027              		.loc 1 704 0 is_stmt 1 discriminator 4
 1028 006c 012F     		cmp	r7, #1
 1029 006e 0FD0     		beq	.L140
 1030              		.loc 1 704 0 is_stmt 0 discriminator 2
 1031 0070 0E44     		add	r6, r6, r1
 1032              	.LVL79:
 1033              	.L128:
 1034              		.loc 1 704 0 discriminator 4
 1035 0072 2527     		movs	r7, #37
 1036 0074 3780     		strh	r7, [r6]	@ movhi
 705:/home/phong/Documents/thesis/stm32f4/stm-idf/components/stm32f4xx_hal_driver/stm32f4xx_hal_nor.c ****   NOR_WRITE(NOR_ADDR_SHIFT(deviceaddress, uwNORMemoryDataWidth, uwAddress), (uwBufferSize - 1U)); 
 1037              		.loc 1 705 0 is_stmt 1 discriminator 4
 1038 0076 013B     		subs	r3, r3, #1
 1039              	.LVL80:
 1040 0078 9BB2     		uxth	r3, r3
 1041              	.LVL81:
 1042 007a 3380     		strh	r3, [r6]	@ movhi
 706:/home/phong/Documents/thesis/stm32f4/stm-idf/components/stm32f4xx_hal_driver/stm32f4xx_hal_nor.c **** 
 707:/home/phong/Documents/thesis/stm32f4/stm-idf/components/stm32f4xx_hal_driver/stm32f4xx_hal_nor.c ****   /* Load Data into NOR Buffer */
 708:/home/phong/Documents/thesis/stm32f4/stm-idf/components/stm32f4xx_hal_driver/stm32f4xx_hal_nor.c ****   while(p_currentaddress <= p_endaddress)
 1043              		.loc 1 708 0 discriminator 4
 1044 007c 10E0     		b	.L129
 1045              	.LVL82:
 1046              	.L134:
 680:/home/phong/Documents/thesis/stm32f4/stm-idf/components/stm32f4xx_hal_driver/stm32f4xx_hal_nor.c ****   }
 1047              		.loc 1 680 0
 1048 007e 4FF0C846 		mov	r6, #1677721600
 1049 0082 D8E7     		b	.L122
 1050              	.LVL83:
 1051              	.L138:
 700:/home/phong/Documents/thesis/stm32f4/stm-idf/components/stm32f4xx_hal_driver/stm32f4xx_hal_nor.c ****   NOR_WRITE(NOR_ADDR_SHIFT(deviceaddress, uwNORMemoryDataWidth, NOR_CMD_ADDRESS_SECOND), NOR_CMD_DA
 1052              		.loc 1 700 0 discriminator 1
 1053 0084 06F6AA2C 		addw	ip, r6, #2730
 1054 0088 E4E7     		b	.L124
 1055              	.L139:
 701:/home/phong/Documents/thesis/stm32f4/stm-idf/components/stm32f4xx_hal_driver/stm32f4xx_hal_nor.c **** 
 1056              		.loc 1 701 0 discriminator 1
 1057 008a 06F2545C 		addw	ip, r6, #1364
 1058 008e E9E7     		b	.L126
 1059              	.L140:
 704:/home/phong/Documents/thesis/stm32f4/stm-idf/components/stm32f4xx_hal_driver/stm32f4xx_hal_nor.c ****   NOR_WRITE(NOR_ADDR_SHIFT(deviceaddress, uwNORMemoryDataWidth, uwAddress), (uwBufferSize - 1U)); 
 1060              		.loc 1 704 0 discriminator 1
 1061 0090 06EB4106 		add	r6, r6, r1, lsl #1
 1062              	.LVL84:
 1063 0094 EDE7     		b	.L128
 1064              	.LVL85:
 1065              	.L130:
 709:/home/phong/Documents/thesis/stm32f4/stm-idf/components/stm32f4xx_hal_driver/stm32f4xx_hal_nor.c ****   {
 710:/home/phong/Documents/thesis/stm32f4/stm-idf/components/stm32f4xx_hal_driver/stm32f4xx_hal_nor.c ****     /* Store last loaded address & data value (for polling) */
ARM GAS  /tmp/ccYyp54X.s 			page 33


 711:/home/phong/Documents/thesis/stm32f4/stm-idf/components/stm32f4xx_hal_driver/stm32f4xx_hal_nor.c ****      lastloadedaddress = (uint32_t)p_currentaddress;
 1066              		.loc 1 711 0
 1067 0096 2146     		mov	r1, r4
 1068              	.LVL86:
 712:/home/phong/Documents/thesis/stm32f4/stm-idf/components/stm32f4xx_hal_driver/stm32f4xx_hal_nor.c ****  
 713:/home/phong/Documents/thesis/stm32f4/stm-idf/components/stm32f4xx_hal_driver/stm32f4xx_hal_nor.c ****     NOR_WRITE(p_currentaddress, *pData++);
 1069              		.loc 1 713 0
 1070 0098 1388     		ldrh	r3, [r2]
 1071 009a 24F8023B 		strh	r3, [r4], #2	@ movhi
 1072              	.LVL87:
 1073 009e 0232     		adds	r2, r2, #2
 1074              	.LVL88:
 1075              	.L129:
 708:/home/phong/Documents/thesis/stm32f4/stm-idf/components/stm32f4xx_hal_driver/stm32f4xx_hal_nor.c ****   {
 1076              		.loc 1 708 0
 1077 00a0 AC42     		cmp	r4, r5
 1078 00a2 F8D9     		bls	.L130
 714:/home/phong/Documents/thesis/stm32f4/stm-idf/components/stm32f4xx_hal_driver/stm32f4xx_hal_nor.c ****     
 715:/home/phong/Documents/thesis/stm32f4/stm-idf/components/stm32f4xx_hal_driver/stm32f4xx_hal_nor.c ****     p_currentaddress ++; 
 716:/home/phong/Documents/thesis/stm32f4/stm-idf/components/stm32f4xx_hal_driver/stm32f4xx_hal_nor.c ****   }
 717:/home/phong/Documents/thesis/stm32f4/stm-idf/components/stm32f4xx_hal_driver/stm32f4xx_hal_nor.c **** 
 718:/home/phong/Documents/thesis/stm32f4/stm-idf/components/stm32f4xx_hal_driver/stm32f4xx_hal_nor.c ****   NOR_WRITE((uint32_t)(lastloadedaddress), NOR_CMD_DATA_BUFFER_AND_PROG_CONFIRM);
 1079              		.loc 1 718 0
 1080 00a4 2923     		movs	r3, #41
 1081 00a6 0B80     		strh	r3, [r1]	@ movhi
 719:/home/phong/Documents/thesis/stm32f4/stm-idf/components/stm32f4xx_hal_driver/stm32f4xx_hal_nor.c ****   
 720:/home/phong/Documents/thesis/stm32f4/stm-idf/components/stm32f4xx_hal_driver/stm32f4xx_hal_nor.c ****   /* Check the NOR controller state */
 721:/home/phong/Documents/thesis/stm32f4/stm-idf/components/stm32f4xx_hal_driver/stm32f4xx_hal_nor.c ****   hnor->State = HAL_NOR_STATE_READY;
 1082              		.loc 1 721 0
 1083 00a8 0123     		movs	r3, #1
 1084 00aa 80F84930 		strb	r3, [r0, #73]
 722:/home/phong/Documents/thesis/stm32f4/stm-idf/components/stm32f4xx_hal_driver/stm32f4xx_hal_nor.c ****   
 723:/home/phong/Documents/thesis/stm32f4/stm-idf/components/stm32f4xx_hal_driver/stm32f4xx_hal_nor.c ****   /* Process unlocked */
 724:/home/phong/Documents/thesis/stm32f4/stm-idf/components/stm32f4xx_hal_driver/stm32f4xx_hal_nor.c ****   __HAL_UNLOCK(hnor);
 1085              		.loc 1 724 0
 1086 00ae 0023     		movs	r3, #0
 1087 00b0 80F84830 		strb	r3, [r0, #72]
 725:/home/phong/Documents/thesis/stm32f4/stm-idf/components/stm32f4xx_hal_driver/stm32f4xx_hal_nor.c ****   
 726:/home/phong/Documents/thesis/stm32f4/stm-idf/components/stm32f4xx_hal_driver/stm32f4xx_hal_nor.c ****   return HAL_OK; 
 1088              		.loc 1 726 0
 1089 00b4 1846     		mov	r0, r3
 1090              	.LVL89:
 1091 00b6 F0BD     		pop	{r4, r5, r6, r7, pc}
 1092              	.LVL90:
 1093              	.L131:
 665:/home/phong/Documents/thesis/stm32f4/stm-idf/components/stm32f4xx_hal_driver/stm32f4xx_hal_nor.c ****   
 1094              		.loc 1 665 0
 1095 00b8 0220     		movs	r0, #2
 1096              	.LVL91:
 1097 00ba F0BD     		pop	{r4, r5, r6, r7, pc}
 1098              	.LVL92:
 1099              	.L132:
 670:/home/phong/Documents/thesis/stm32f4/stm-idf/components/stm32f4xx_hal_driver/stm32f4xx_hal_nor.c ****   }
 1100              		.loc 1 670 0
 1101 00bc 0220     		movs	r0, #2
 1102              	.LVL93:
 727:/home/phong/Documents/thesis/stm32f4/stm-idf/components/stm32f4xx_hal_driver/stm32f4xx_hal_nor.c ****   
ARM GAS  /tmp/ccYyp54X.s 			page 34


 728:/home/phong/Documents/thesis/stm32f4/stm-idf/components/stm32f4xx_hal_driver/stm32f4xx_hal_nor.c **** }
 1103              		.loc 1 728 0
 1104 00be F0BD     		pop	{r4, r5, r6, r7, pc}
 1105              	.L142:
 1106              		.align	2
 1107              	.L141:
 1108 00c0 00000000 		.word	.LANCHOR0
 1109              		.cfi_endproc
 1110              	.LFE140:
 1112              		.section	.text.HAL_NOR_Erase_Block,"ax",%progbits
 1113              		.align	1
 1114              		.global	HAL_NOR_Erase_Block
 1115              		.syntax unified
 1116              		.thumb
 1117              		.thumb_func
 1118              		.fpu fpv4-sp-d16
 1120              	HAL_NOR_Erase_Block:
 1121              	.LFB141:
 729:/home/phong/Documents/thesis/stm32f4/stm-idf/components/stm32f4xx_hal_driver/stm32f4xx_hal_nor.c **** 
 730:/home/phong/Documents/thesis/stm32f4/stm-idf/components/stm32f4xx_hal_driver/stm32f4xx_hal_nor.c **** /**
 731:/home/phong/Documents/thesis/stm32f4/stm-idf/components/stm32f4xx_hal_driver/stm32f4xx_hal_nor.c ****   * @brief  Erase the specified block of the NOR memory 
 732:/home/phong/Documents/thesis/stm32f4/stm-idf/components/stm32f4xx_hal_driver/stm32f4xx_hal_nor.c ****   * @param  hnor pointer to a NOR_HandleTypeDef structure that contains
 733:/home/phong/Documents/thesis/stm32f4/stm-idf/components/stm32f4xx_hal_driver/stm32f4xx_hal_nor.c ****   *                the configuration information for NOR module.
 734:/home/phong/Documents/thesis/stm32f4/stm-idf/components/stm32f4xx_hal_driver/stm32f4xx_hal_nor.c ****   * @param  BlockAddress  Block to erase address 
 735:/home/phong/Documents/thesis/stm32f4/stm-idf/components/stm32f4xx_hal_driver/stm32f4xx_hal_nor.c ****   * @param  Address Device address
 736:/home/phong/Documents/thesis/stm32f4/stm-idf/components/stm32f4xx_hal_driver/stm32f4xx_hal_nor.c ****   * @retval HAL status
 737:/home/phong/Documents/thesis/stm32f4/stm-idf/components/stm32f4xx_hal_driver/stm32f4xx_hal_nor.c ****   */
 738:/home/phong/Documents/thesis/stm32f4/stm-idf/components/stm32f4xx_hal_driver/stm32f4xx_hal_nor.c **** HAL_StatusTypeDef HAL_NOR_Erase_Block(NOR_HandleTypeDef *hnor, uint32_t BlockAddress, uint32_t Addr
 739:/home/phong/Documents/thesis/stm32f4/stm-idf/components/stm32f4xx_hal_driver/stm32f4xx_hal_nor.c **** {
 1122              		.loc 1 739 0
 1123              		.cfi_startproc
 1124              		@ args = 0, pretend = 0, frame = 0
 1125              		@ frame_needed = 0, uses_anonymous_args = 0
 1126              		@ link register save eliminated.
 1127              	.LVL94:
 740:/home/phong/Documents/thesis/stm32f4/stm-idf/components/stm32f4xx_hal_driver/stm32f4xx_hal_nor.c ****   uint32_t deviceaddress = 0U;
 741:/home/phong/Documents/thesis/stm32f4/stm-idf/components/stm32f4xx_hal_driver/stm32f4xx_hal_nor.c **** 
 742:/home/phong/Documents/thesis/stm32f4/stm-idf/components/stm32f4xx_hal_driver/stm32f4xx_hal_nor.c ****   /* Process Locked */
 743:/home/phong/Documents/thesis/stm32f4/stm-idf/components/stm32f4xx_hal_driver/stm32f4xx_hal_nor.c ****   __HAL_LOCK(hnor);
 1128              		.loc 1 743 0
 1129 0000 90F84830 		ldrb	r3, [r0, #72]	@ zero_extendqisi2
 1130 0004 012B     		cmp	r3, #1
 1131 0006 41D0     		beq	.L150
 1132              		.loc 1 743 0 is_stmt 0 discriminator 2
 1133 0008 0123     		movs	r3, #1
 1134 000a 80F84830 		strb	r3, [r0, #72]
 744:/home/phong/Documents/thesis/stm32f4/stm-idf/components/stm32f4xx_hal_driver/stm32f4xx_hal_nor.c ****   
 745:/home/phong/Documents/thesis/stm32f4/stm-idf/components/stm32f4xx_hal_driver/stm32f4xx_hal_nor.c ****   /* Check the NOR controller state */
 746:/home/phong/Documents/thesis/stm32f4/stm-idf/components/stm32f4xx_hal_driver/stm32f4xx_hal_nor.c ****   if(hnor->State == HAL_NOR_STATE_BUSY)
 1135              		.loc 1 746 0 is_stmt 1 discriminator 2
 1136 000e 90F84930 		ldrb	r3, [r0, #73]	@ zero_extendqisi2
 1137 0012 DBB2     		uxtb	r3, r3
 1138 0014 022B     		cmp	r3, #2
 1139 0016 3BD0     		beq	.L151
 739:/home/phong/Documents/thesis/stm32f4/stm-idf/components/stm32f4xx_hal_driver/stm32f4xx_hal_nor.c ****   uint32_t deviceaddress = 0U;
 1140              		.loc 1 739 0
 1141 0018 F0B4     		push	{r4, r5, r6, r7}
ARM GAS  /tmp/ccYyp54X.s 			page 35


 1142              	.LCFI17:
 1143              		.cfi_def_cfa_offset 16
 1144              		.cfi_offset 4, -16
 1145              		.cfi_offset 5, -12
 1146              		.cfi_offset 6, -8
 1147              		.cfi_offset 7, -4
 747:/home/phong/Documents/thesis/stm32f4/stm-idf/components/stm32f4xx_hal_driver/stm32f4xx_hal_nor.c ****   {
 748:/home/phong/Documents/thesis/stm32f4/stm-idf/components/stm32f4xx_hal_driver/stm32f4xx_hal_nor.c ****      return HAL_BUSY;
 749:/home/phong/Documents/thesis/stm32f4/stm-idf/components/stm32f4xx_hal_driver/stm32f4xx_hal_nor.c ****   }
 750:/home/phong/Documents/thesis/stm32f4/stm-idf/components/stm32f4xx_hal_driver/stm32f4xx_hal_nor.c ****   
 751:/home/phong/Documents/thesis/stm32f4/stm-idf/components/stm32f4xx_hal_driver/stm32f4xx_hal_nor.c ****   /* Select the NOR device address */
 752:/home/phong/Documents/thesis/stm32f4/stm-idf/components/stm32f4xx_hal_driver/stm32f4xx_hal_nor.c ****   if (hnor->Init.NSBank == FMC_NORSRAM_BANK1)
 1148              		.loc 1 752 0
 1149 001a 8368     		ldr	r3, [r0, #8]
 1150 001c 4BB1     		cbz	r3, .L152
 753:/home/phong/Documents/thesis/stm32f4/stm-idf/components/stm32f4xx_hal_driver/stm32f4xx_hal_nor.c ****   {
 754:/home/phong/Documents/thesis/stm32f4/stm-idf/components/stm32f4xx_hal_driver/stm32f4xx_hal_nor.c ****     deviceaddress = NOR_MEMORY_ADRESS1;
 755:/home/phong/Documents/thesis/stm32f4/stm-idf/components/stm32f4xx_hal_driver/stm32f4xx_hal_nor.c ****   }
 756:/home/phong/Documents/thesis/stm32f4/stm-idf/components/stm32f4xx_hal_driver/stm32f4xx_hal_nor.c ****   else if (hnor->Init.NSBank == FMC_NORSRAM_BANK2)
 1151              		.loc 1 756 0
 1152 001e 022B     		cmp	r3, #2
 1153 0020 2BD0     		beq	.L153
 757:/home/phong/Documents/thesis/stm32f4/stm-idf/components/stm32f4xx_hal_driver/stm32f4xx_hal_nor.c ****   {
 758:/home/phong/Documents/thesis/stm32f4/stm-idf/components/stm32f4xx_hal_driver/stm32f4xx_hal_nor.c ****     deviceaddress = NOR_MEMORY_ADRESS2;
 759:/home/phong/Documents/thesis/stm32f4/stm-idf/components/stm32f4xx_hal_driver/stm32f4xx_hal_nor.c ****   }
 760:/home/phong/Documents/thesis/stm32f4/stm-idf/components/stm32f4xx_hal_driver/stm32f4xx_hal_nor.c ****   else if (hnor->Init.NSBank == FMC_NORSRAM_BANK3)
 1154              		.loc 1 760 0
 1155 0022 042B     		cmp	r3, #4
 1156 0024 02D0     		beq	.L159
 761:/home/phong/Documents/thesis/stm32f4/stm-idf/components/stm32f4xx_hal_driver/stm32f4xx_hal_nor.c ****   {
 762:/home/phong/Documents/thesis/stm32f4/stm-idf/components/stm32f4xx_hal_driver/stm32f4xx_hal_nor.c ****     deviceaddress = NOR_MEMORY_ADRESS3;
 763:/home/phong/Documents/thesis/stm32f4/stm-idf/components/stm32f4xx_hal_driver/stm32f4xx_hal_nor.c ****   }
 764:/home/phong/Documents/thesis/stm32f4/stm-idf/components/stm32f4xx_hal_driver/stm32f4xx_hal_nor.c ****   else /* FMC_NORSRAM_BANK4 */
 765:/home/phong/Documents/thesis/stm32f4/stm-idf/components/stm32f4xx_hal_driver/stm32f4xx_hal_nor.c ****   {
 766:/home/phong/Documents/thesis/stm32f4/stm-idf/components/stm32f4xx_hal_driver/stm32f4xx_hal_nor.c ****     deviceaddress = NOR_MEMORY_ADRESS4;
 1157              		.loc 1 766 0
 1158 0026 4FF0D843 		mov	r3, #1811939328
 1159 002a 04E0     		b	.L145
 1160              	.L159:
 762:/home/phong/Documents/thesis/stm32f4/stm-idf/components/stm32f4xx_hal_driver/stm32f4xx_hal_nor.c ****   }
 1161              		.loc 1 762 0
 1162 002c 4FF0D043 		mov	r3, #1744830464
 1163 0030 01E0     		b	.L145
 1164              	.L152:
 754:/home/phong/Documents/thesis/stm32f4/stm-idf/components/stm32f4xx_hal_driver/stm32f4xx_hal_nor.c ****   }
 1165              		.loc 1 754 0
 1166 0032 4FF0C043 		mov	r3, #1610612736
 1167              	.L145:
 1168              	.LVL95:
 767:/home/phong/Documents/thesis/stm32f4/stm-idf/components/stm32f4xx_hal_driver/stm32f4xx_hal_nor.c ****   }
 768:/home/phong/Documents/thesis/stm32f4/stm-idf/components/stm32f4xx_hal_driver/stm32f4xx_hal_nor.c ****     
 769:/home/phong/Documents/thesis/stm32f4/stm-idf/components/stm32f4xx_hal_driver/stm32f4xx_hal_nor.c ****   /* Update the NOR controller state */
 770:/home/phong/Documents/thesis/stm32f4/stm-idf/components/stm32f4xx_hal_driver/stm32f4xx_hal_nor.c ****   hnor->State = HAL_NOR_STATE_BUSY;
 1169              		.loc 1 770 0
 1170 0036 0224     		movs	r4, #2
 1171 0038 80F84940 		strb	r4, [r0, #73]
 771:/home/phong/Documents/thesis/stm32f4/stm-idf/components/stm32f4xx_hal_driver/stm32f4xx_hal_nor.c ****   
ARM GAS  /tmp/ccYyp54X.s 			page 36


 772:/home/phong/Documents/thesis/stm32f4/stm-idf/components/stm32f4xx_hal_driver/stm32f4xx_hal_nor.c ****   /* Send block erase command sequence */
 773:/home/phong/Documents/thesis/stm32f4/stm-idf/components/stm32f4xx_hal_driver/stm32f4xx_hal_nor.c ****   NOR_WRITE(NOR_ADDR_SHIFT(deviceaddress, uwNORMemoryDataWidth, NOR_CMD_ADDRESS_FIRST), NOR_CMD_DAT
 1172              		.loc 1 773 0
 1173 003c 154C     		ldr	r4, .L162
 1174 003e 2468     		ldr	r4, [r4]
 1175 0040 012C     		cmp	r4, #1
 1176 0042 1DD0     		beq	.L160
 1177              		.loc 1 773 0 is_stmt 0 discriminator 2
 1178 0044 03F25556 		addw	r6, r3, #1365
 1179              	.L147:
 1180              		.loc 1 773 0 discriminator 4
 1181 0048 3546     		mov	r5, r6
 1182 004a AA27     		movs	r7, #170
 1183 004c 3780     		strh	r7, [r6]	@ movhi
 774:/home/phong/Documents/thesis/stm32f4/stm-idf/components/stm32f4xx_hal_driver/stm32f4xx_hal_nor.c ****   NOR_WRITE(NOR_ADDR_SHIFT(deviceaddress, uwNORMemoryDataWidth, NOR_CMD_ADDRESS_SECOND), NOR_CMD_DA
 1184              		.loc 1 774 0 is_stmt 1 discriminator 4
 1185 004e 012C     		cmp	r4, #1
 1186 0050 19D0     		beq	.L161
 1187              		.loc 1 774 0 is_stmt 0 discriminator 2
 1188 0052 03F2AA23 		addw	r3, r3, #682
 1189              	.LVL96:
 1190              	.L149:
 1191              		.loc 1 774 0 discriminator 4
 1192 0056 5524     		movs	r4, #85
 1193 0058 1C80     		strh	r4, [r3]	@ movhi
 775:/home/phong/Documents/thesis/stm32f4/stm-idf/components/stm32f4xx_hal_driver/stm32f4xx_hal_nor.c ****   NOR_WRITE(NOR_ADDR_SHIFT(deviceaddress, uwNORMemoryDataWidth, NOR_CMD_ADDRESS_THIRD), NOR_CMD_DAT
 1194              		.loc 1 775 0 is_stmt 1 discriminator 4
 1195 005a 8026     		movs	r6, #128
 1196 005c 2E80     		strh	r6, [r5]	@ movhi
 776:/home/phong/Documents/thesis/stm32f4/stm-idf/components/stm32f4xx_hal_driver/stm32f4xx_hal_nor.c ****   NOR_WRITE(NOR_ADDR_SHIFT(deviceaddress, uwNORMemoryDataWidth, NOR_CMD_ADDRESS_FOURTH), NOR_CMD_DA
 1197              		.loc 1 776 0 discriminator 4
 1198 005e AA26     		movs	r6, #170
 1199 0060 2E80     		strh	r6, [r5]	@ movhi
 777:/home/phong/Documents/thesis/stm32f4/stm-idf/components/stm32f4xx_hal_driver/stm32f4xx_hal_nor.c ****   NOR_WRITE(NOR_ADDR_SHIFT(deviceaddress, uwNORMemoryDataWidth, NOR_CMD_ADDRESS_FIFTH), NOR_CMD_DAT
 1200              		.loc 1 777 0 discriminator 4
 1201 0062 1C80     		strh	r4, [r3]	@ movhi
 778:/home/phong/Documents/thesis/stm32f4/stm-idf/components/stm32f4xx_hal_driver/stm32f4xx_hal_nor.c ****   NOR_WRITE((uint32_t)(BlockAddress + Address), NOR_CMD_DATA_BLOCK_ERASE);
 1202              		.loc 1 778 0 discriminator 4
 1203 0064 3023     		movs	r3, #48
 1204 0066 8B52     		strh	r3, [r1, r2]	@ movhi
 779:/home/phong/Documents/thesis/stm32f4/stm-idf/components/stm32f4xx_hal_driver/stm32f4xx_hal_nor.c **** 
 780:/home/phong/Documents/thesis/stm32f4/stm-idf/components/stm32f4xx_hal_driver/stm32f4xx_hal_nor.c ****   /* Check the NOR memory status and update the controller state */
 781:/home/phong/Documents/thesis/stm32f4/stm-idf/components/stm32f4xx_hal_driver/stm32f4xx_hal_nor.c ****   hnor->State = HAL_NOR_STATE_READY;
 1205              		.loc 1 781 0 discriminator 4
 1206 0068 0123     		movs	r3, #1
 1207 006a 80F84930 		strb	r3, [r0, #73]
 782:/home/phong/Documents/thesis/stm32f4/stm-idf/components/stm32f4xx_hal_driver/stm32f4xx_hal_nor.c ****     
 783:/home/phong/Documents/thesis/stm32f4/stm-idf/components/stm32f4xx_hal_driver/stm32f4xx_hal_nor.c ****   /* Process unlocked */
 784:/home/phong/Documents/thesis/stm32f4/stm-idf/components/stm32f4xx_hal_driver/stm32f4xx_hal_nor.c ****   __HAL_UNLOCK(hnor);
 1208              		.loc 1 784 0 discriminator 4
 1209 006e 0023     		movs	r3, #0
 1210 0070 80F84830 		strb	r3, [r0, #72]
 785:/home/phong/Documents/thesis/stm32f4/stm-idf/components/stm32f4xx_hal_driver/stm32f4xx_hal_nor.c ****   
 786:/home/phong/Documents/thesis/stm32f4/stm-idf/components/stm32f4xx_hal_driver/stm32f4xx_hal_nor.c ****   return HAL_OK;
 1211              		.loc 1 786 0 discriminator 4
 1212 0074 1846     		mov	r0, r3
 1213              	.LVL97:
ARM GAS  /tmp/ccYyp54X.s 			page 37


 787:/home/phong/Documents/thesis/stm32f4/stm-idf/components/stm32f4xx_hal_driver/stm32f4xx_hal_nor.c ****  
 788:/home/phong/Documents/thesis/stm32f4/stm-idf/components/stm32f4xx_hal_driver/stm32f4xx_hal_nor.c **** }
 1214              		.loc 1 788 0 discriminator 4
 1215 0076 F0BC     		pop	{r4, r5, r6, r7}
 1216              	.LCFI18:
 1217              		.cfi_remember_state
 1218              		.cfi_restore 7
 1219              		.cfi_restore 6
 1220              		.cfi_restore 5
 1221              		.cfi_restore 4
 1222              		.cfi_def_cfa_offset 0
 1223 0078 7047     		bx	lr
 1224              	.LVL98:
 1225              	.L153:
 1226              	.LCFI19:
 1227              		.cfi_restore_state
 758:/home/phong/Documents/thesis/stm32f4/stm-idf/components/stm32f4xx_hal_driver/stm32f4xx_hal_nor.c ****   }
 1228              		.loc 1 758 0
 1229 007a 4FF0C843 		mov	r3, #1677721600
 1230 007e DAE7     		b	.L145
 1231              	.LVL99:
 1232              	.L160:
 773:/home/phong/Documents/thesis/stm32f4/stm-idf/components/stm32f4xx_hal_driver/stm32f4xx_hal_nor.c ****   NOR_WRITE(NOR_ADDR_SHIFT(deviceaddress, uwNORMemoryDataWidth, NOR_CMD_ADDRESS_SECOND), NOR_CMD_DA
 1233              		.loc 1 773 0 discriminator 1
 1234 0080 03F6AA26 		addw	r6, r3, #2730
 1235 0084 E0E7     		b	.L147
 1236              	.L161:
 774:/home/phong/Documents/thesis/stm32f4/stm-idf/components/stm32f4xx_hal_driver/stm32f4xx_hal_nor.c ****   NOR_WRITE(NOR_ADDR_SHIFT(deviceaddress, uwNORMemoryDataWidth, NOR_CMD_ADDRESS_THIRD), NOR_CMD_DAT
 1237              		.loc 1 774 0 discriminator 1
 1238 0086 03F25453 		addw	r3, r3, #1364
 1239              	.LVL100:
 1240 008a E4E7     		b	.L149
 1241              	.LVL101:
 1242              	.L150:
 1243              	.LCFI20:
 1244              		.cfi_def_cfa_offset 0
 1245              		.cfi_restore 4
 1246              		.cfi_restore 5
 1247              		.cfi_restore 6
 1248              		.cfi_restore 7
 743:/home/phong/Documents/thesis/stm32f4/stm-idf/components/stm32f4xx_hal_driver/stm32f4xx_hal_nor.c ****   
 1249              		.loc 1 743 0
 1250 008c 0220     		movs	r0, #2
 1251              	.LVL102:
 1252 008e 7047     		bx	lr
 1253              	.LVL103:
 1254              	.L151:
 748:/home/phong/Documents/thesis/stm32f4/stm-idf/components/stm32f4xx_hal_driver/stm32f4xx_hal_nor.c ****   }
 1255              		.loc 1 748 0
 1256 0090 0220     		movs	r0, #2
 1257              	.LVL104:
 1258 0092 7047     		bx	lr
 1259              	.L163:
 1260              		.align	2
 1261              	.L162:
 1262 0094 00000000 		.word	.LANCHOR0
 1263              		.cfi_endproc
ARM GAS  /tmp/ccYyp54X.s 			page 38


 1264              	.LFE141:
 1266              		.section	.text.HAL_NOR_Erase_Chip,"ax",%progbits
 1267              		.align	1
 1268              		.global	HAL_NOR_Erase_Chip
 1269              		.syntax unified
 1270              		.thumb
 1271              		.thumb_func
 1272              		.fpu fpv4-sp-d16
 1274              	HAL_NOR_Erase_Chip:
 1275              	.LFB142:
 789:/home/phong/Documents/thesis/stm32f4/stm-idf/components/stm32f4xx_hal_driver/stm32f4xx_hal_nor.c **** 
 790:/home/phong/Documents/thesis/stm32f4/stm-idf/components/stm32f4xx_hal_driver/stm32f4xx_hal_nor.c **** /**
 791:/home/phong/Documents/thesis/stm32f4/stm-idf/components/stm32f4xx_hal_driver/stm32f4xx_hal_nor.c ****   * @brief  Erase the entire NOR chip.
 792:/home/phong/Documents/thesis/stm32f4/stm-idf/components/stm32f4xx_hal_driver/stm32f4xx_hal_nor.c ****   * @param  hnor pointer to a NOR_HandleTypeDef structure that contains
 793:/home/phong/Documents/thesis/stm32f4/stm-idf/components/stm32f4xx_hal_driver/stm32f4xx_hal_nor.c ****   *                the configuration information for NOR module.
 794:/home/phong/Documents/thesis/stm32f4/stm-idf/components/stm32f4xx_hal_driver/stm32f4xx_hal_nor.c ****   * @param  Address  Device address  
 795:/home/phong/Documents/thesis/stm32f4/stm-idf/components/stm32f4xx_hal_driver/stm32f4xx_hal_nor.c ****   * @retval HAL status
 796:/home/phong/Documents/thesis/stm32f4/stm-idf/components/stm32f4xx_hal_driver/stm32f4xx_hal_nor.c ****   */
 797:/home/phong/Documents/thesis/stm32f4/stm-idf/components/stm32f4xx_hal_driver/stm32f4xx_hal_nor.c **** HAL_StatusTypeDef HAL_NOR_Erase_Chip(NOR_HandleTypeDef *hnor, uint32_t Address)
 798:/home/phong/Documents/thesis/stm32f4/stm-idf/components/stm32f4xx_hal_driver/stm32f4xx_hal_nor.c **** {
 1276              		.loc 1 798 0
 1277              		.cfi_startproc
 1278              		@ args = 0, pretend = 0, frame = 0
 1279              		@ frame_needed = 0, uses_anonymous_args = 0
 1280              		@ link register save eliminated.
 1281              	.LVL105:
 799:/home/phong/Documents/thesis/stm32f4/stm-idf/components/stm32f4xx_hal_driver/stm32f4xx_hal_nor.c ****   uint32_t deviceaddress = 0U;
 800:/home/phong/Documents/thesis/stm32f4/stm-idf/components/stm32f4xx_hal_driver/stm32f4xx_hal_nor.c ****   
 801:/home/phong/Documents/thesis/stm32f4/stm-idf/components/stm32f4xx_hal_driver/stm32f4xx_hal_nor.c ****   /* Prevent unused argument(s) compilation warning */
 802:/home/phong/Documents/thesis/stm32f4/stm-idf/components/stm32f4xx_hal_driver/stm32f4xx_hal_nor.c ****   UNUSED(Address);
 803:/home/phong/Documents/thesis/stm32f4/stm-idf/components/stm32f4xx_hal_driver/stm32f4xx_hal_nor.c ****   
 804:/home/phong/Documents/thesis/stm32f4/stm-idf/components/stm32f4xx_hal_driver/stm32f4xx_hal_nor.c ****   /* Process Locked */
 805:/home/phong/Documents/thesis/stm32f4/stm-idf/components/stm32f4xx_hal_driver/stm32f4xx_hal_nor.c ****   __HAL_LOCK(hnor);
 1282              		.loc 1 805 0
 1283 0000 90F84830 		ldrb	r3, [r0, #72]	@ zero_extendqisi2
 1284 0004 012B     		cmp	r3, #1
 1285 0006 41D0     		beq	.L171
 1286              		.loc 1 805 0 is_stmt 0 discriminator 2
 1287 0008 0123     		movs	r3, #1
 1288 000a 80F84830 		strb	r3, [r0, #72]
 806:/home/phong/Documents/thesis/stm32f4/stm-idf/components/stm32f4xx_hal_driver/stm32f4xx_hal_nor.c ****   
 807:/home/phong/Documents/thesis/stm32f4/stm-idf/components/stm32f4xx_hal_driver/stm32f4xx_hal_nor.c ****   /* Check the NOR controller state */
 808:/home/phong/Documents/thesis/stm32f4/stm-idf/components/stm32f4xx_hal_driver/stm32f4xx_hal_nor.c ****   if(hnor->State == HAL_NOR_STATE_BUSY)
 1289              		.loc 1 808 0 is_stmt 1 discriminator 2
 1290 000e 90F84930 		ldrb	r3, [r0, #73]	@ zero_extendqisi2
 1291 0012 DBB2     		uxtb	r3, r3
 1292 0014 022B     		cmp	r3, #2
 1293 0016 3BD0     		beq	.L172
 798:/home/phong/Documents/thesis/stm32f4/stm-idf/components/stm32f4xx_hal_driver/stm32f4xx_hal_nor.c ****   uint32_t deviceaddress = 0U;
 1294              		.loc 1 798 0
 1295 0018 30B4     		push	{r4, r5}
 1296              	.LCFI21:
 1297              		.cfi_def_cfa_offset 8
 1298              		.cfi_offset 4, -8
 1299              		.cfi_offset 5, -4
 809:/home/phong/Documents/thesis/stm32f4/stm-idf/components/stm32f4xx_hal_driver/stm32f4xx_hal_nor.c ****   {
 810:/home/phong/Documents/thesis/stm32f4/stm-idf/components/stm32f4xx_hal_driver/stm32f4xx_hal_nor.c ****      return HAL_BUSY;
ARM GAS  /tmp/ccYyp54X.s 			page 39


 811:/home/phong/Documents/thesis/stm32f4/stm-idf/components/stm32f4xx_hal_driver/stm32f4xx_hal_nor.c ****   }
 812:/home/phong/Documents/thesis/stm32f4/stm-idf/components/stm32f4xx_hal_driver/stm32f4xx_hal_nor.c ****   
 813:/home/phong/Documents/thesis/stm32f4/stm-idf/components/stm32f4xx_hal_driver/stm32f4xx_hal_nor.c ****   /* Select the NOR device address */
 814:/home/phong/Documents/thesis/stm32f4/stm-idf/components/stm32f4xx_hal_driver/stm32f4xx_hal_nor.c ****   if (hnor->Init.NSBank == FMC_NORSRAM_BANK1)
 1300              		.loc 1 814 0
 1301 001a 8368     		ldr	r3, [r0, #8]
 1302 001c 4BB1     		cbz	r3, .L173
 815:/home/phong/Documents/thesis/stm32f4/stm-idf/components/stm32f4xx_hal_driver/stm32f4xx_hal_nor.c ****   {
 816:/home/phong/Documents/thesis/stm32f4/stm-idf/components/stm32f4xx_hal_driver/stm32f4xx_hal_nor.c ****     deviceaddress = NOR_MEMORY_ADRESS1;
 817:/home/phong/Documents/thesis/stm32f4/stm-idf/components/stm32f4xx_hal_driver/stm32f4xx_hal_nor.c ****   }
 818:/home/phong/Documents/thesis/stm32f4/stm-idf/components/stm32f4xx_hal_driver/stm32f4xx_hal_nor.c ****   else if (hnor->Init.NSBank == FMC_NORSRAM_BANK2)
 1303              		.loc 1 818 0
 1304 001e 022B     		cmp	r3, #2
 1305 0020 2BD0     		beq	.L174
 819:/home/phong/Documents/thesis/stm32f4/stm-idf/components/stm32f4xx_hal_driver/stm32f4xx_hal_nor.c ****   {
 820:/home/phong/Documents/thesis/stm32f4/stm-idf/components/stm32f4xx_hal_driver/stm32f4xx_hal_nor.c ****     deviceaddress = NOR_MEMORY_ADRESS2;
 821:/home/phong/Documents/thesis/stm32f4/stm-idf/components/stm32f4xx_hal_driver/stm32f4xx_hal_nor.c ****   }
 822:/home/phong/Documents/thesis/stm32f4/stm-idf/components/stm32f4xx_hal_driver/stm32f4xx_hal_nor.c ****   else if (hnor->Init.NSBank == FMC_NORSRAM_BANK3)
 1306              		.loc 1 822 0
 1307 0022 042B     		cmp	r3, #4
 1308 0024 02D0     		beq	.L180
 823:/home/phong/Documents/thesis/stm32f4/stm-idf/components/stm32f4xx_hal_driver/stm32f4xx_hal_nor.c ****   {
 824:/home/phong/Documents/thesis/stm32f4/stm-idf/components/stm32f4xx_hal_driver/stm32f4xx_hal_nor.c ****     deviceaddress = NOR_MEMORY_ADRESS3;
 825:/home/phong/Documents/thesis/stm32f4/stm-idf/components/stm32f4xx_hal_driver/stm32f4xx_hal_nor.c ****   }
 826:/home/phong/Documents/thesis/stm32f4/stm-idf/components/stm32f4xx_hal_driver/stm32f4xx_hal_nor.c ****   else /* FMC_NORSRAM_BANK4 */
 827:/home/phong/Documents/thesis/stm32f4/stm-idf/components/stm32f4xx_hal_driver/stm32f4xx_hal_nor.c ****   {
 828:/home/phong/Documents/thesis/stm32f4/stm-idf/components/stm32f4xx_hal_driver/stm32f4xx_hal_nor.c ****     deviceaddress = NOR_MEMORY_ADRESS4;
 1309              		.loc 1 828 0
 1310 0026 4FF0D843 		mov	r3, #1811939328
 1311 002a 04E0     		b	.L166
 1312              	.L180:
 824:/home/phong/Documents/thesis/stm32f4/stm-idf/components/stm32f4xx_hal_driver/stm32f4xx_hal_nor.c ****   }
 1313              		.loc 1 824 0
 1314 002c 4FF0D043 		mov	r3, #1744830464
 1315 0030 01E0     		b	.L166
 1316              	.L173:
 816:/home/phong/Documents/thesis/stm32f4/stm-idf/components/stm32f4xx_hal_driver/stm32f4xx_hal_nor.c ****   }
 1317              		.loc 1 816 0
 1318 0032 4FF0C043 		mov	r3, #1610612736
 1319              	.L166:
 1320              	.LVL106:
 829:/home/phong/Documents/thesis/stm32f4/stm-idf/components/stm32f4xx_hal_driver/stm32f4xx_hal_nor.c ****   }
 830:/home/phong/Documents/thesis/stm32f4/stm-idf/components/stm32f4xx_hal_driver/stm32f4xx_hal_nor.c ****     
 831:/home/phong/Documents/thesis/stm32f4/stm-idf/components/stm32f4xx_hal_driver/stm32f4xx_hal_nor.c ****   /* Update the NOR controller state */
 832:/home/phong/Documents/thesis/stm32f4/stm-idf/components/stm32f4xx_hal_driver/stm32f4xx_hal_nor.c ****   hnor->State = HAL_NOR_STATE_BUSY;  
 1321              		.loc 1 832 0
 1322 0036 0222     		movs	r2, #2
 1323 0038 80F84920 		strb	r2, [r0, #73]
 833:/home/phong/Documents/thesis/stm32f4/stm-idf/components/stm32f4xx_hal_driver/stm32f4xx_hal_nor.c ****     
 834:/home/phong/Documents/thesis/stm32f4/stm-idf/components/stm32f4xx_hal_driver/stm32f4xx_hal_nor.c ****   /* Send NOR chip erase command sequence */
 835:/home/phong/Documents/thesis/stm32f4/stm-idf/components/stm32f4xx_hal_driver/stm32f4xx_hal_nor.c ****   NOR_WRITE(NOR_ADDR_SHIFT(deviceaddress, uwNORMemoryDataWidth, NOR_CMD_ADDRESS_FIRST), NOR_CMD_DAT
 1324              		.loc 1 835 0
 1325 003c 154A     		ldr	r2, .L183
 1326 003e 1168     		ldr	r1, [r2]
 1327              	.LVL107:
 1328 0040 0129     		cmp	r1, #1
 1329 0042 1DD0     		beq	.L181
ARM GAS  /tmp/ccYyp54X.s 			page 40


 1330              		.loc 1 835 0 is_stmt 0 discriminator 2
 1331 0044 03F25554 		addw	r4, r3, #1365
 1332              	.L168:
 1333              		.loc 1 835 0 discriminator 4
 1334 0048 2246     		mov	r2, r4
 1335 004a AA25     		movs	r5, #170
 1336 004c 2580     		strh	r5, [r4]	@ movhi
 836:/home/phong/Documents/thesis/stm32f4/stm-idf/components/stm32f4xx_hal_driver/stm32f4xx_hal_nor.c ****   NOR_WRITE(NOR_ADDR_SHIFT(deviceaddress, uwNORMemoryDataWidth, NOR_CMD_ADDRESS_SECOND), NOR_CMD_DA
 1337              		.loc 1 836 0 is_stmt 1 discriminator 4
 1338 004e 0129     		cmp	r1, #1
 1339 0050 19D0     		beq	.L182
 1340              		.loc 1 836 0 is_stmt 0 discriminator 2
 1341 0052 03F2AA23 		addw	r3, r3, #682
 1342              	.LVL108:
 1343              	.L170:
 1344              		.loc 1 836 0 discriminator 4
 1345 0056 5521     		movs	r1, #85
 1346 0058 1980     		strh	r1, [r3]	@ movhi
 837:/home/phong/Documents/thesis/stm32f4/stm-idf/components/stm32f4xx_hal_driver/stm32f4xx_hal_nor.c ****   NOR_WRITE(NOR_ADDR_SHIFT(deviceaddress, uwNORMemoryDataWidth, NOR_CMD_ADDRESS_THIRD), NOR_CMD_DAT
 1347              		.loc 1 837 0 is_stmt 1 discriminator 4
 1348 005a 8024     		movs	r4, #128
 1349 005c 1480     		strh	r4, [r2]	@ movhi
 838:/home/phong/Documents/thesis/stm32f4/stm-idf/components/stm32f4xx_hal_driver/stm32f4xx_hal_nor.c ****   NOR_WRITE(NOR_ADDR_SHIFT(deviceaddress, uwNORMemoryDataWidth, NOR_CMD_ADDRESS_FOURTH), NOR_CMD_DA
 1350              		.loc 1 838 0 discriminator 4
 1351 005e AA24     		movs	r4, #170
 1352 0060 1480     		strh	r4, [r2]	@ movhi
 839:/home/phong/Documents/thesis/stm32f4/stm-idf/components/stm32f4xx_hal_driver/stm32f4xx_hal_nor.c ****   NOR_WRITE(NOR_ADDR_SHIFT(deviceaddress, uwNORMemoryDataWidth, NOR_CMD_ADDRESS_FIFTH), NOR_CMD_DAT
 1353              		.loc 1 839 0 discriminator 4
 1354 0062 1980     		strh	r1, [r3]	@ movhi
 840:/home/phong/Documents/thesis/stm32f4/stm-idf/components/stm32f4xx_hal_driver/stm32f4xx_hal_nor.c ****   NOR_WRITE(NOR_ADDR_SHIFT(deviceaddress, uwNORMemoryDataWidth, NOR_CMD_ADDRESS_SIXTH), NOR_CMD_DAT
 1355              		.loc 1 840 0 discriminator 4
 1356 0064 1023     		movs	r3, #16
 1357 0066 1380     		strh	r3, [r2]	@ movhi
 841:/home/phong/Documents/thesis/stm32f4/stm-idf/components/stm32f4xx_hal_driver/stm32f4xx_hal_nor.c ****   
 842:/home/phong/Documents/thesis/stm32f4/stm-idf/components/stm32f4xx_hal_driver/stm32f4xx_hal_nor.c ****   /* Check the NOR memory status and update the controller state */
 843:/home/phong/Documents/thesis/stm32f4/stm-idf/components/stm32f4xx_hal_driver/stm32f4xx_hal_nor.c ****   hnor->State = HAL_NOR_STATE_READY;
 1358              		.loc 1 843 0 discriminator 4
 1359 0068 0123     		movs	r3, #1
 1360 006a 80F84930 		strb	r3, [r0, #73]
 844:/home/phong/Documents/thesis/stm32f4/stm-idf/components/stm32f4xx_hal_driver/stm32f4xx_hal_nor.c ****     
 845:/home/phong/Documents/thesis/stm32f4/stm-idf/components/stm32f4xx_hal_driver/stm32f4xx_hal_nor.c ****   /* Process unlocked */
 846:/home/phong/Documents/thesis/stm32f4/stm-idf/components/stm32f4xx_hal_driver/stm32f4xx_hal_nor.c ****   __HAL_UNLOCK(hnor);
 1361              		.loc 1 846 0 discriminator 4
 1362 006e 0023     		movs	r3, #0
 1363 0070 80F84830 		strb	r3, [r0, #72]
 847:/home/phong/Documents/thesis/stm32f4/stm-idf/components/stm32f4xx_hal_driver/stm32f4xx_hal_nor.c ****   
 848:/home/phong/Documents/thesis/stm32f4/stm-idf/components/stm32f4xx_hal_driver/stm32f4xx_hal_nor.c ****   return HAL_OK;  
 1364              		.loc 1 848 0 discriminator 4
 1365 0074 1846     		mov	r0, r3
 1366              	.LVL109:
 849:/home/phong/Documents/thesis/stm32f4/stm-idf/components/stm32f4xx_hal_driver/stm32f4xx_hal_nor.c **** }
 1367              		.loc 1 849 0 discriminator 4
 1368 0076 30BC     		pop	{r4, r5}
 1369              	.LCFI22:
 1370              		.cfi_remember_state
 1371              		.cfi_restore 5
 1372              		.cfi_restore 4
ARM GAS  /tmp/ccYyp54X.s 			page 41


 1373              		.cfi_def_cfa_offset 0
 1374 0078 7047     		bx	lr
 1375              	.LVL110:
 1376              	.L174:
 1377              	.LCFI23:
 1378              		.cfi_restore_state
 820:/home/phong/Documents/thesis/stm32f4/stm-idf/components/stm32f4xx_hal_driver/stm32f4xx_hal_nor.c ****   }
 1379              		.loc 1 820 0
 1380 007a 4FF0C843 		mov	r3, #1677721600
 1381 007e DAE7     		b	.L166
 1382              	.LVL111:
 1383              	.L181:
 835:/home/phong/Documents/thesis/stm32f4/stm-idf/components/stm32f4xx_hal_driver/stm32f4xx_hal_nor.c ****   NOR_WRITE(NOR_ADDR_SHIFT(deviceaddress, uwNORMemoryDataWidth, NOR_CMD_ADDRESS_SECOND), NOR_CMD_DA
 1384              		.loc 1 835 0 discriminator 1
 1385 0080 03F6AA24 		addw	r4, r3, #2730
 1386 0084 E0E7     		b	.L168
 1387              	.L182:
 836:/home/phong/Documents/thesis/stm32f4/stm-idf/components/stm32f4xx_hal_driver/stm32f4xx_hal_nor.c ****   NOR_WRITE(NOR_ADDR_SHIFT(deviceaddress, uwNORMemoryDataWidth, NOR_CMD_ADDRESS_THIRD), NOR_CMD_DAT
 1388              		.loc 1 836 0 discriminator 1
 1389 0086 03F25453 		addw	r3, r3, #1364
 1390              	.LVL112:
 1391 008a E4E7     		b	.L170
 1392              	.LVL113:
 1393              	.L171:
 1394              	.LCFI24:
 1395              		.cfi_def_cfa_offset 0
 1396              		.cfi_restore 4
 1397              		.cfi_restore 5
 805:/home/phong/Documents/thesis/stm32f4/stm-idf/components/stm32f4xx_hal_driver/stm32f4xx_hal_nor.c ****   
 1398              		.loc 1 805 0
 1399 008c 0220     		movs	r0, #2
 1400              	.LVL114:
 1401 008e 7047     		bx	lr
 1402              	.LVL115:
 1403              	.L172:
 810:/home/phong/Documents/thesis/stm32f4/stm-idf/components/stm32f4xx_hal_driver/stm32f4xx_hal_nor.c ****   }
 1404              		.loc 1 810 0
 1405 0090 0220     		movs	r0, #2
 1406              	.LVL116:
 1407 0092 7047     		bx	lr
 1408              	.L184:
 1409              		.align	2
 1410              	.L183:
 1411 0094 00000000 		.word	.LANCHOR0
 1412              		.cfi_endproc
 1413              	.LFE142:
 1415              		.section	.text.HAL_NOR_Read_CFI,"ax",%progbits
 1416              		.align	1
 1417              		.global	HAL_NOR_Read_CFI
 1418              		.syntax unified
 1419              		.thumb
 1420              		.thumb_func
 1421              		.fpu fpv4-sp-d16
 1423              	HAL_NOR_Read_CFI:
 1424              	.LFB143:
 850:/home/phong/Documents/thesis/stm32f4/stm-idf/components/stm32f4xx_hal_driver/stm32f4xx_hal_nor.c **** 
 851:/home/phong/Documents/thesis/stm32f4/stm-idf/components/stm32f4xx_hal_driver/stm32f4xx_hal_nor.c **** /**
ARM GAS  /tmp/ccYyp54X.s 			page 42


 852:/home/phong/Documents/thesis/stm32f4/stm-idf/components/stm32f4xx_hal_driver/stm32f4xx_hal_nor.c ****   * @brief  Read NOR flash CFI IDs
 853:/home/phong/Documents/thesis/stm32f4/stm-idf/components/stm32f4xx_hal_driver/stm32f4xx_hal_nor.c ****   * @param  hnor pointer to a NOR_HandleTypeDef structure that contains
 854:/home/phong/Documents/thesis/stm32f4/stm-idf/components/stm32f4xx_hal_driver/stm32f4xx_hal_nor.c ****   *                the configuration information for NOR module.
 855:/home/phong/Documents/thesis/stm32f4/stm-idf/components/stm32f4xx_hal_driver/stm32f4xx_hal_nor.c ****   * @param  pNOR_CFI  pointer to NOR CFI IDs structure  
 856:/home/phong/Documents/thesis/stm32f4/stm-idf/components/stm32f4xx_hal_driver/stm32f4xx_hal_nor.c ****   * @retval HAL status
 857:/home/phong/Documents/thesis/stm32f4/stm-idf/components/stm32f4xx_hal_driver/stm32f4xx_hal_nor.c ****   */
 858:/home/phong/Documents/thesis/stm32f4/stm-idf/components/stm32f4xx_hal_driver/stm32f4xx_hal_nor.c **** HAL_StatusTypeDef HAL_NOR_Read_CFI(NOR_HandleTypeDef *hnor, NOR_CFITypeDef *pNOR_CFI)
 859:/home/phong/Documents/thesis/stm32f4/stm-idf/components/stm32f4xx_hal_driver/stm32f4xx_hal_nor.c **** {
 1425              		.loc 1 859 0
 1426              		.cfi_startproc
 1427              		@ args = 0, pretend = 0, frame = 0
 1428              		@ frame_needed = 0, uses_anonymous_args = 0
 1429              		@ link register save eliminated.
 1430              	.LVL117:
 860:/home/phong/Documents/thesis/stm32f4/stm-idf/components/stm32f4xx_hal_driver/stm32f4xx_hal_nor.c ****   uint32_t deviceaddress = 0U;
 861:/home/phong/Documents/thesis/stm32f4/stm-idf/components/stm32f4xx_hal_driver/stm32f4xx_hal_nor.c ****   
 862:/home/phong/Documents/thesis/stm32f4/stm-idf/components/stm32f4xx_hal_driver/stm32f4xx_hal_nor.c ****   /* Process Locked */
 863:/home/phong/Documents/thesis/stm32f4/stm-idf/components/stm32f4xx_hal_driver/stm32f4xx_hal_nor.c ****   __HAL_LOCK(hnor);
 1431              		.loc 1 863 0
 1432 0000 90F84830 		ldrb	r3, [r0, #72]	@ zero_extendqisi2
 1433 0004 012B     		cmp	r3, #1
 1434 0006 52D0     		beq	.L198
 1435              		.loc 1 863 0 is_stmt 0 discriminator 2
 1436 0008 0123     		movs	r3, #1
 1437 000a 80F84830 		strb	r3, [r0, #72]
 864:/home/phong/Documents/thesis/stm32f4/stm-idf/components/stm32f4xx_hal_driver/stm32f4xx_hal_nor.c ****   
 865:/home/phong/Documents/thesis/stm32f4/stm-idf/components/stm32f4xx_hal_driver/stm32f4xx_hal_nor.c ****   /* Check the NOR controller state */
 866:/home/phong/Documents/thesis/stm32f4/stm-idf/components/stm32f4xx_hal_driver/stm32f4xx_hal_nor.c ****   if(hnor->State == HAL_NOR_STATE_BUSY)
 1438              		.loc 1 866 0 is_stmt 1 discriminator 2
 1439 000e 90F84930 		ldrb	r3, [r0, #73]	@ zero_extendqisi2
 1440 0012 DBB2     		uxtb	r3, r3
 1441 0014 022B     		cmp	r3, #2
 1442 0016 4CD0     		beq	.L199
 859:/home/phong/Documents/thesis/stm32f4/stm-idf/components/stm32f4xx_hal_driver/stm32f4xx_hal_nor.c ****   uint32_t deviceaddress = 0U;
 1443              		.loc 1 859 0
 1444 0018 30B4     		push	{r4, r5}
 1445              	.LCFI25:
 1446              		.cfi_def_cfa_offset 8
 1447              		.cfi_offset 4, -8
 1448              		.cfi_offset 5, -4
 867:/home/phong/Documents/thesis/stm32f4/stm-idf/components/stm32f4xx_hal_driver/stm32f4xx_hal_nor.c ****   {
 868:/home/phong/Documents/thesis/stm32f4/stm-idf/components/stm32f4xx_hal_driver/stm32f4xx_hal_nor.c ****      return HAL_BUSY;
 869:/home/phong/Documents/thesis/stm32f4/stm-idf/components/stm32f4xx_hal_driver/stm32f4xx_hal_nor.c ****   }
 870:/home/phong/Documents/thesis/stm32f4/stm-idf/components/stm32f4xx_hal_driver/stm32f4xx_hal_nor.c ****   
 871:/home/phong/Documents/thesis/stm32f4/stm-idf/components/stm32f4xx_hal_driver/stm32f4xx_hal_nor.c ****   /* Select the NOR device address */
 872:/home/phong/Documents/thesis/stm32f4/stm-idf/components/stm32f4xx_hal_driver/stm32f4xx_hal_nor.c ****   if (hnor->Init.NSBank == FMC_NORSRAM_BANK1)
 1449              		.loc 1 872 0
 1450 001a 8368     		ldr	r3, [r0, #8]
 1451 001c 4BB1     		cbz	r3, .L200
 873:/home/phong/Documents/thesis/stm32f4/stm-idf/components/stm32f4xx_hal_driver/stm32f4xx_hal_nor.c ****   {
 874:/home/phong/Documents/thesis/stm32f4/stm-idf/components/stm32f4xx_hal_driver/stm32f4xx_hal_nor.c ****     deviceaddress = NOR_MEMORY_ADRESS1;
 875:/home/phong/Documents/thesis/stm32f4/stm-idf/components/stm32f4xx_hal_driver/stm32f4xx_hal_nor.c ****   }
 876:/home/phong/Documents/thesis/stm32f4/stm-idf/components/stm32f4xx_hal_driver/stm32f4xx_hal_nor.c ****   else if (hnor->Init.NSBank == FMC_NORSRAM_BANK2)
 1452              		.loc 1 876 0
 1453 001e 022B     		cmp	r3, #2
 1454 0020 34D0     		beq	.L201
 877:/home/phong/Documents/thesis/stm32f4/stm-idf/components/stm32f4xx_hal_driver/stm32f4xx_hal_nor.c ****   {
ARM GAS  /tmp/ccYyp54X.s 			page 43


 878:/home/phong/Documents/thesis/stm32f4/stm-idf/components/stm32f4xx_hal_driver/stm32f4xx_hal_nor.c ****     deviceaddress = NOR_MEMORY_ADRESS2;
 879:/home/phong/Documents/thesis/stm32f4/stm-idf/components/stm32f4xx_hal_driver/stm32f4xx_hal_nor.c ****   }
 880:/home/phong/Documents/thesis/stm32f4/stm-idf/components/stm32f4xx_hal_driver/stm32f4xx_hal_nor.c ****   else if (hnor->Init.NSBank == FMC_NORSRAM_BANK3)
 1455              		.loc 1 880 0
 1456 0022 042B     		cmp	r3, #4
 1457 0024 02D0     		beq	.L207
 881:/home/phong/Documents/thesis/stm32f4/stm-idf/components/stm32f4xx_hal_driver/stm32f4xx_hal_nor.c ****   {
 882:/home/phong/Documents/thesis/stm32f4/stm-idf/components/stm32f4xx_hal_driver/stm32f4xx_hal_nor.c ****     deviceaddress = NOR_MEMORY_ADRESS3;
 883:/home/phong/Documents/thesis/stm32f4/stm-idf/components/stm32f4xx_hal_driver/stm32f4xx_hal_nor.c ****   }
 884:/home/phong/Documents/thesis/stm32f4/stm-idf/components/stm32f4xx_hal_driver/stm32f4xx_hal_nor.c ****   else /* FMC_NORSRAM_BANK4 */
 885:/home/phong/Documents/thesis/stm32f4/stm-idf/components/stm32f4xx_hal_driver/stm32f4xx_hal_nor.c ****   {
 886:/home/phong/Documents/thesis/stm32f4/stm-idf/components/stm32f4xx_hal_driver/stm32f4xx_hal_nor.c ****     deviceaddress = NOR_MEMORY_ADRESS4;
 1458              		.loc 1 886 0
 1459 0026 4FF0D843 		mov	r3, #1811939328
 1460 002a 04E0     		b	.L187
 1461              	.L207:
 882:/home/phong/Documents/thesis/stm32f4/stm-idf/components/stm32f4xx_hal_driver/stm32f4xx_hal_nor.c ****   }
 1462              		.loc 1 882 0
 1463 002c 4FF0D043 		mov	r3, #1744830464
 1464 0030 01E0     		b	.L187
 1465              	.L200:
 874:/home/phong/Documents/thesis/stm32f4/stm-idf/components/stm32f4xx_hal_driver/stm32f4xx_hal_nor.c ****   }
 1466              		.loc 1 874 0
 1467 0032 4FF0C043 		mov	r3, #1610612736
 1468              	.L187:
 1469              	.LVL118:
 887:/home/phong/Documents/thesis/stm32f4/stm-idf/components/stm32f4xx_hal_driver/stm32f4xx_hal_nor.c ****   }  
 888:/home/phong/Documents/thesis/stm32f4/stm-idf/components/stm32f4xx_hal_driver/stm32f4xx_hal_nor.c ****     
 889:/home/phong/Documents/thesis/stm32f4/stm-idf/components/stm32f4xx_hal_driver/stm32f4xx_hal_nor.c ****   /* Update the NOR controller state */
 890:/home/phong/Documents/thesis/stm32f4/stm-idf/components/stm32f4xx_hal_driver/stm32f4xx_hal_nor.c ****   hnor->State = HAL_NOR_STATE_BUSY;
 1470              		.loc 1 890 0
 1471 0036 0222     		movs	r2, #2
 1472 0038 80F84920 		strb	r2, [r0, #73]
 891:/home/phong/Documents/thesis/stm32f4/stm-idf/components/stm32f4xx_hal_driver/stm32f4xx_hal_nor.c ****   
 892:/home/phong/Documents/thesis/stm32f4/stm-idf/components/stm32f4xx_hal_driver/stm32f4xx_hal_nor.c ****   /* Send read CFI query command */
 893:/home/phong/Documents/thesis/stm32f4/stm-idf/components/stm32f4xx_hal_driver/stm32f4xx_hal_nor.c ****   NOR_WRITE(NOR_ADDR_SHIFT(deviceaddress, uwNORMemoryDataWidth, NOR_CMD_ADDRESS_FIRST_CFI), NOR_CMD
 1473              		.loc 1 893 0
 1474 003c 1E4A     		ldr	r2, .L213
 1475 003e 1268     		ldr	r2, [r2]
 1476 0040 012A     		cmp	r2, #1
 1477 0042 26D0     		beq	.L208
 1478              		.loc 1 893 0 is_stmt 0 discriminator 2
 1479 0044 03F15505 		add	r5, r3, #85
 1480              	.L189:
 1481              		.loc 1 893 0 discriminator 4
 1482 0048 9824     		movs	r4, #152
 1483 004a 2C80     		strh	r4, [r5]	@ movhi
 894:/home/phong/Documents/thesis/stm32f4/stm-idf/components/stm32f4xx_hal_driver/stm32f4xx_hal_nor.c **** 
 895:/home/phong/Documents/thesis/stm32f4/stm-idf/components/stm32f4xx_hal_driver/stm32f4xx_hal_nor.c ****   /* read the NOR CFI information */
 896:/home/phong/Documents/thesis/stm32f4/stm-idf/components/stm32f4xx_hal_driver/stm32f4xx_hal_nor.c ****   pNOR_CFI->CFI_1 = *(__IO uint16_t *) NOR_ADDR_SHIFT(deviceaddress, uwNORMemoryDataWidth, CFI1_ADD
 1484              		.loc 1 896 0 is_stmt 1 discriminator 4
 1485 004c 012A     		cmp	r2, #1
 1486 004e 23D0     		beq	.L209
 1487              		.loc 1 896 0 is_stmt 0 discriminator 2
 1488 0050 03F16104 		add	r4, r3, #97
 1489              	.L191:
 1490              		.loc 1 896 0 discriminator 4
ARM GAS  /tmp/ccYyp54X.s 			page 44


 1491 0054 2488     		ldrh	r4, [r4]
 1492 0056 0C80     		strh	r4, [r1]	@ movhi
 897:/home/phong/Documents/thesis/stm32f4/stm-idf/components/stm32f4xx_hal_driver/stm32f4xx_hal_nor.c ****   pNOR_CFI->CFI_2 = *(__IO uint16_t *) NOR_ADDR_SHIFT(deviceaddress, uwNORMemoryDataWidth, CFI2_ADD
 1493              		.loc 1 897 0 is_stmt 1 discriminator 4
 1494 0058 012A     		cmp	r2, #1
 1495 005a 20D0     		beq	.L210
 1496              		.loc 1 897 0 is_stmt 0 discriminator 2
 1497 005c 03F16204 		add	r4, r3, #98
 1498              	.L193:
 1499              		.loc 1 897 0 discriminator 4
 1500 0060 2488     		ldrh	r4, [r4]
 1501 0062 4C80     		strh	r4, [r1, #2]	@ movhi
 898:/home/phong/Documents/thesis/stm32f4/stm-idf/components/stm32f4xx_hal_driver/stm32f4xx_hal_nor.c ****   pNOR_CFI->CFI_3 = *(__IO uint16_t *) NOR_ADDR_SHIFT(deviceaddress, uwNORMemoryDataWidth, CFI3_ADD
 1502              		.loc 1 898 0 is_stmt 1 discriminator 4
 1503 0064 012A     		cmp	r2, #1
 1504 0066 1DD0     		beq	.L211
 1505              		.loc 1 898 0 is_stmt 0 discriminator 2
 1506 0068 03F16304 		add	r4, r3, #99
 1507              	.L195:
 1508              		.loc 1 898 0 discriminator 4
 1509 006c 2488     		ldrh	r4, [r4]
 1510 006e 8C80     		strh	r4, [r1, #4]	@ movhi
 899:/home/phong/Documents/thesis/stm32f4/stm-idf/components/stm32f4xx_hal_driver/stm32f4xx_hal_nor.c ****   pNOR_CFI->CFI_4 = *(__IO uint16_t *) NOR_ADDR_SHIFT(deviceaddress, uwNORMemoryDataWidth, CFI4_ADD
 1511              		.loc 1 899 0 is_stmt 1 discriminator 4
 1512 0070 012A     		cmp	r2, #1
 1513 0072 1AD0     		beq	.L212
 1514              		.loc 1 899 0 is_stmt 0 discriminator 2
 1515 0074 6433     		adds	r3, r3, #100
 1516              	.LVL119:
 1517              	.L197:
 1518              		.loc 1 899 0 discriminator 4
 1519 0076 1B88     		ldrh	r3, [r3]
 1520 0078 CB80     		strh	r3, [r1, #6]	@ movhi
 900:/home/phong/Documents/thesis/stm32f4/stm-idf/components/stm32f4xx_hal_driver/stm32f4xx_hal_nor.c **** 
 901:/home/phong/Documents/thesis/stm32f4/stm-idf/components/stm32f4xx_hal_driver/stm32f4xx_hal_nor.c ****   /* Check the NOR controller state */
 902:/home/phong/Documents/thesis/stm32f4/stm-idf/components/stm32f4xx_hal_driver/stm32f4xx_hal_nor.c ****   hnor->State = HAL_NOR_STATE_READY;
 1521              		.loc 1 902 0 is_stmt 1 discriminator 4
 1522 007a 0123     		movs	r3, #1
 1523 007c 80F84930 		strb	r3, [r0, #73]
 903:/home/phong/Documents/thesis/stm32f4/stm-idf/components/stm32f4xx_hal_driver/stm32f4xx_hal_nor.c ****   
 904:/home/phong/Documents/thesis/stm32f4/stm-idf/components/stm32f4xx_hal_driver/stm32f4xx_hal_nor.c ****   /* Process unlocked */
 905:/home/phong/Documents/thesis/stm32f4/stm-idf/components/stm32f4xx_hal_driver/stm32f4xx_hal_nor.c ****   __HAL_UNLOCK(hnor);
 1524              		.loc 1 905 0 discriminator 4
 1525 0080 0023     		movs	r3, #0
 1526 0082 80F84830 		strb	r3, [r0, #72]
 906:/home/phong/Documents/thesis/stm32f4/stm-idf/components/stm32f4xx_hal_driver/stm32f4xx_hal_nor.c ****   
 907:/home/phong/Documents/thesis/stm32f4/stm-idf/components/stm32f4xx_hal_driver/stm32f4xx_hal_nor.c ****   return HAL_OK;
 1527              		.loc 1 907 0 discriminator 4
 1528 0086 1846     		mov	r0, r3
 1529              	.LVL120:
 908:/home/phong/Documents/thesis/stm32f4/stm-idf/components/stm32f4xx_hal_driver/stm32f4xx_hal_nor.c **** }
 1530              		.loc 1 908 0 discriminator 4
 1531 0088 30BC     		pop	{r4, r5}
 1532              	.LCFI26:
 1533              		.cfi_remember_state
 1534              		.cfi_restore 5
 1535              		.cfi_restore 4
ARM GAS  /tmp/ccYyp54X.s 			page 45


 1536              		.cfi_def_cfa_offset 0
 1537 008a 7047     		bx	lr
 1538              	.LVL121:
 1539              	.L201:
 1540              	.LCFI27:
 1541              		.cfi_restore_state
 878:/home/phong/Documents/thesis/stm32f4/stm-idf/components/stm32f4xx_hal_driver/stm32f4xx_hal_nor.c ****   }
 1542              		.loc 1 878 0
 1543 008c 4FF0C843 		mov	r3, #1677721600
 1544 0090 D1E7     		b	.L187
 1545              	.LVL122:
 1546              	.L208:
 893:/home/phong/Documents/thesis/stm32f4/stm-idf/components/stm32f4xx_hal_driver/stm32f4xx_hal_nor.c **** 
 1547              		.loc 1 893 0 discriminator 1
 1548 0092 03F1AA05 		add	r5, r3, #170
 1549 0096 D7E7     		b	.L189
 1550              	.L209:
 896:/home/phong/Documents/thesis/stm32f4/stm-idf/components/stm32f4xx_hal_driver/stm32f4xx_hal_nor.c ****   pNOR_CFI->CFI_2 = *(__IO uint16_t *) NOR_ADDR_SHIFT(deviceaddress, uwNORMemoryDataWidth, CFI2_ADD
 1551              		.loc 1 896 0 discriminator 1
 1552 0098 03F1C204 		add	r4, r3, #194
 1553 009c DAE7     		b	.L191
 1554              	.L210:
 897:/home/phong/Documents/thesis/stm32f4/stm-idf/components/stm32f4xx_hal_driver/stm32f4xx_hal_nor.c ****   pNOR_CFI->CFI_3 = *(__IO uint16_t *) NOR_ADDR_SHIFT(deviceaddress, uwNORMemoryDataWidth, CFI3_ADD
 1555              		.loc 1 897 0 discriminator 1
 1556 009e 03F1C404 		add	r4, r3, #196
 1557 00a2 DDE7     		b	.L193
 1558              	.L211:
 898:/home/phong/Documents/thesis/stm32f4/stm-idf/components/stm32f4xx_hal_driver/stm32f4xx_hal_nor.c ****   pNOR_CFI->CFI_4 = *(__IO uint16_t *) NOR_ADDR_SHIFT(deviceaddress, uwNORMemoryDataWidth, CFI4_ADD
 1559              		.loc 1 898 0 discriminator 1
 1560 00a4 03F1C604 		add	r4, r3, #198
 1561 00a8 E0E7     		b	.L195
 1562              	.L212:
 899:/home/phong/Documents/thesis/stm32f4/stm-idf/components/stm32f4xx_hal_driver/stm32f4xx_hal_nor.c **** 
 1563              		.loc 1 899 0 discriminator 1
 1564 00aa C833     		adds	r3, r3, #200
 1565              	.LVL123:
 1566 00ac E3E7     		b	.L197
 1567              	.LVL124:
 1568              	.L198:
 1569              	.LCFI28:
 1570              		.cfi_def_cfa_offset 0
 1571              		.cfi_restore 4
 1572              		.cfi_restore 5
 863:/home/phong/Documents/thesis/stm32f4/stm-idf/components/stm32f4xx_hal_driver/stm32f4xx_hal_nor.c ****   
 1573              		.loc 1 863 0
 1574 00ae 0220     		movs	r0, #2
 1575              	.LVL125:
 1576 00b0 7047     		bx	lr
 1577              	.LVL126:
 1578              	.L199:
 868:/home/phong/Documents/thesis/stm32f4/stm-idf/components/stm32f4xx_hal_driver/stm32f4xx_hal_nor.c ****   }
 1579              		.loc 1 868 0
 1580 00b2 0220     		movs	r0, #2
 1581              	.LVL127:
 1582 00b4 7047     		bx	lr
 1583              	.L214:
 1584 00b6 00BF     		.align	2
ARM GAS  /tmp/ccYyp54X.s 			page 46


 1585              	.L213:
 1586 00b8 00000000 		.word	.LANCHOR0
 1587              		.cfi_endproc
 1588              	.LFE143:
 1590              		.section	.text.HAL_NOR_WriteOperation_Enable,"ax",%progbits
 1591              		.align	1
 1592              		.global	HAL_NOR_WriteOperation_Enable
 1593              		.syntax unified
 1594              		.thumb
 1595              		.thumb_func
 1596              		.fpu fpv4-sp-d16
 1598              	HAL_NOR_WriteOperation_Enable:
 1599              	.LFB144:
 909:/home/phong/Documents/thesis/stm32f4/stm-idf/components/stm32f4xx_hal_driver/stm32f4xx_hal_nor.c **** 
 910:/home/phong/Documents/thesis/stm32f4/stm-idf/components/stm32f4xx_hal_driver/stm32f4xx_hal_nor.c **** #if (USE_HAL_NOR_REGISTER_CALLBACKS == 1)
 911:/home/phong/Documents/thesis/stm32f4/stm-idf/components/stm32f4xx_hal_driver/stm32f4xx_hal_nor.c **** /**
 912:/home/phong/Documents/thesis/stm32f4/stm-idf/components/stm32f4xx_hal_driver/stm32f4xx_hal_nor.c ****   * @brief  Register a User NOR Callback
 913:/home/phong/Documents/thesis/stm32f4/stm-idf/components/stm32f4xx_hal_driver/stm32f4xx_hal_nor.c ****   *         To be used instead of the weak (surcharged) predefined callback
 914:/home/phong/Documents/thesis/stm32f4/stm-idf/components/stm32f4xx_hal_driver/stm32f4xx_hal_nor.c ****   * @param hnor : NOR handle
 915:/home/phong/Documents/thesis/stm32f4/stm-idf/components/stm32f4xx_hal_driver/stm32f4xx_hal_nor.c ****   * @param CallbackId : ID of the callback to be registered
 916:/home/phong/Documents/thesis/stm32f4/stm-idf/components/stm32f4xx_hal_driver/stm32f4xx_hal_nor.c ****   *        This parameter can be one of the following values:
 917:/home/phong/Documents/thesis/stm32f4/stm-idf/components/stm32f4xx_hal_driver/stm32f4xx_hal_nor.c ****   *          @arg @ref HAL_NOR_MSP_INIT_CB_ID       NOR MspInit callback ID
 918:/home/phong/Documents/thesis/stm32f4/stm-idf/components/stm32f4xx_hal_driver/stm32f4xx_hal_nor.c ****   *          @arg @ref HAL_NOR_MSP_DEINIT_CB_ID     NOR MspDeInit callback ID
 919:/home/phong/Documents/thesis/stm32f4/stm-idf/components/stm32f4xx_hal_driver/stm32f4xx_hal_nor.c ****   * @param pCallback : pointer to the Callback function
 920:/home/phong/Documents/thesis/stm32f4/stm-idf/components/stm32f4xx_hal_driver/stm32f4xx_hal_nor.c ****   * @retval status
 921:/home/phong/Documents/thesis/stm32f4/stm-idf/components/stm32f4xx_hal_driver/stm32f4xx_hal_nor.c ****   */
 922:/home/phong/Documents/thesis/stm32f4/stm-idf/components/stm32f4xx_hal_driver/stm32f4xx_hal_nor.c **** HAL_StatusTypeDef HAL_NOR_RegisterCallback (NOR_HandleTypeDef *hnor, HAL_NOR_CallbackIDTypeDef Call
 923:/home/phong/Documents/thesis/stm32f4/stm-idf/components/stm32f4xx_hal_driver/stm32f4xx_hal_nor.c **** {
 924:/home/phong/Documents/thesis/stm32f4/stm-idf/components/stm32f4xx_hal_driver/stm32f4xx_hal_nor.c ****   HAL_StatusTypeDef status = HAL_OK;
 925:/home/phong/Documents/thesis/stm32f4/stm-idf/components/stm32f4xx_hal_driver/stm32f4xx_hal_nor.c ****   HAL_NOR_StateTypeDef state;
 926:/home/phong/Documents/thesis/stm32f4/stm-idf/components/stm32f4xx_hal_driver/stm32f4xx_hal_nor.c **** 
 927:/home/phong/Documents/thesis/stm32f4/stm-idf/components/stm32f4xx_hal_driver/stm32f4xx_hal_nor.c ****   if(pCallback == NULL)
 928:/home/phong/Documents/thesis/stm32f4/stm-idf/components/stm32f4xx_hal_driver/stm32f4xx_hal_nor.c ****   {
 929:/home/phong/Documents/thesis/stm32f4/stm-idf/components/stm32f4xx_hal_driver/stm32f4xx_hal_nor.c ****     return HAL_ERROR;
 930:/home/phong/Documents/thesis/stm32f4/stm-idf/components/stm32f4xx_hal_driver/stm32f4xx_hal_nor.c ****   }
 931:/home/phong/Documents/thesis/stm32f4/stm-idf/components/stm32f4xx_hal_driver/stm32f4xx_hal_nor.c **** 
 932:/home/phong/Documents/thesis/stm32f4/stm-idf/components/stm32f4xx_hal_driver/stm32f4xx_hal_nor.c ****   /* Process locked */
 933:/home/phong/Documents/thesis/stm32f4/stm-idf/components/stm32f4xx_hal_driver/stm32f4xx_hal_nor.c ****   __HAL_LOCK(hnor);
 934:/home/phong/Documents/thesis/stm32f4/stm-idf/components/stm32f4xx_hal_driver/stm32f4xx_hal_nor.c **** 
 935:/home/phong/Documents/thesis/stm32f4/stm-idf/components/stm32f4xx_hal_driver/stm32f4xx_hal_nor.c ****   state = hnor->State;
 936:/home/phong/Documents/thesis/stm32f4/stm-idf/components/stm32f4xx_hal_driver/stm32f4xx_hal_nor.c ****   if((state == HAL_NOR_STATE_READY) || (state == HAL_NOR_STATE_RESET) || (state == HAL_NOR_STATE_PR
 937:/home/phong/Documents/thesis/stm32f4/stm-idf/components/stm32f4xx_hal_driver/stm32f4xx_hal_nor.c ****   {
 938:/home/phong/Documents/thesis/stm32f4/stm-idf/components/stm32f4xx_hal_driver/stm32f4xx_hal_nor.c ****     switch (CallbackId)
 939:/home/phong/Documents/thesis/stm32f4/stm-idf/components/stm32f4xx_hal_driver/stm32f4xx_hal_nor.c ****     {
 940:/home/phong/Documents/thesis/stm32f4/stm-idf/components/stm32f4xx_hal_driver/stm32f4xx_hal_nor.c ****     case HAL_NOR_MSP_INIT_CB_ID :
 941:/home/phong/Documents/thesis/stm32f4/stm-idf/components/stm32f4xx_hal_driver/stm32f4xx_hal_nor.c ****       hnor->MspInitCallback = pCallback;
 942:/home/phong/Documents/thesis/stm32f4/stm-idf/components/stm32f4xx_hal_driver/stm32f4xx_hal_nor.c ****       break;
 943:/home/phong/Documents/thesis/stm32f4/stm-idf/components/stm32f4xx_hal_driver/stm32f4xx_hal_nor.c ****     case HAL_NOR_MSP_DEINIT_CB_ID :
 944:/home/phong/Documents/thesis/stm32f4/stm-idf/components/stm32f4xx_hal_driver/stm32f4xx_hal_nor.c ****       hnor->MspDeInitCallback = pCallback;
 945:/home/phong/Documents/thesis/stm32f4/stm-idf/components/stm32f4xx_hal_driver/stm32f4xx_hal_nor.c ****       break;
 946:/home/phong/Documents/thesis/stm32f4/stm-idf/components/stm32f4xx_hal_driver/stm32f4xx_hal_nor.c ****     default :
 947:/home/phong/Documents/thesis/stm32f4/stm-idf/components/stm32f4xx_hal_driver/stm32f4xx_hal_nor.c ****       /* update return status */
 948:/home/phong/Documents/thesis/stm32f4/stm-idf/components/stm32f4xx_hal_driver/stm32f4xx_hal_nor.c ****       status =  HAL_ERROR;
 949:/home/phong/Documents/thesis/stm32f4/stm-idf/components/stm32f4xx_hal_driver/stm32f4xx_hal_nor.c ****       break;
 950:/home/phong/Documents/thesis/stm32f4/stm-idf/components/stm32f4xx_hal_driver/stm32f4xx_hal_nor.c ****     }
 951:/home/phong/Documents/thesis/stm32f4/stm-idf/components/stm32f4xx_hal_driver/stm32f4xx_hal_nor.c ****   }
 952:/home/phong/Documents/thesis/stm32f4/stm-idf/components/stm32f4xx_hal_driver/stm32f4xx_hal_nor.c ****   else
ARM GAS  /tmp/ccYyp54X.s 			page 47


 953:/home/phong/Documents/thesis/stm32f4/stm-idf/components/stm32f4xx_hal_driver/stm32f4xx_hal_nor.c ****   {
 954:/home/phong/Documents/thesis/stm32f4/stm-idf/components/stm32f4xx_hal_driver/stm32f4xx_hal_nor.c ****     /* update return status */
 955:/home/phong/Documents/thesis/stm32f4/stm-idf/components/stm32f4xx_hal_driver/stm32f4xx_hal_nor.c ****     status =  HAL_ERROR;
 956:/home/phong/Documents/thesis/stm32f4/stm-idf/components/stm32f4xx_hal_driver/stm32f4xx_hal_nor.c ****   }
 957:/home/phong/Documents/thesis/stm32f4/stm-idf/components/stm32f4xx_hal_driver/stm32f4xx_hal_nor.c **** 
 958:/home/phong/Documents/thesis/stm32f4/stm-idf/components/stm32f4xx_hal_driver/stm32f4xx_hal_nor.c ****   /* Release Lock */
 959:/home/phong/Documents/thesis/stm32f4/stm-idf/components/stm32f4xx_hal_driver/stm32f4xx_hal_nor.c ****   __HAL_UNLOCK(hnor);
 960:/home/phong/Documents/thesis/stm32f4/stm-idf/components/stm32f4xx_hal_driver/stm32f4xx_hal_nor.c ****   return status;
 961:/home/phong/Documents/thesis/stm32f4/stm-idf/components/stm32f4xx_hal_driver/stm32f4xx_hal_nor.c **** }
 962:/home/phong/Documents/thesis/stm32f4/stm-idf/components/stm32f4xx_hal_driver/stm32f4xx_hal_nor.c **** 
 963:/home/phong/Documents/thesis/stm32f4/stm-idf/components/stm32f4xx_hal_driver/stm32f4xx_hal_nor.c **** /**
 964:/home/phong/Documents/thesis/stm32f4/stm-idf/components/stm32f4xx_hal_driver/stm32f4xx_hal_nor.c ****   * @brief  Unregister a User NOR Callback
 965:/home/phong/Documents/thesis/stm32f4/stm-idf/components/stm32f4xx_hal_driver/stm32f4xx_hal_nor.c ****   *         NOR Callback is redirected to the weak (surcharged) predefined callback
 966:/home/phong/Documents/thesis/stm32f4/stm-idf/components/stm32f4xx_hal_driver/stm32f4xx_hal_nor.c ****   * @param hnor : NOR handle
 967:/home/phong/Documents/thesis/stm32f4/stm-idf/components/stm32f4xx_hal_driver/stm32f4xx_hal_nor.c ****   * @param CallbackId : ID of the callback to be unregistered
 968:/home/phong/Documents/thesis/stm32f4/stm-idf/components/stm32f4xx_hal_driver/stm32f4xx_hal_nor.c ****   *        This parameter can be one of the following values:
 969:/home/phong/Documents/thesis/stm32f4/stm-idf/components/stm32f4xx_hal_driver/stm32f4xx_hal_nor.c ****   *          @arg @ref HAL_NOR_MSP_INIT_CB_ID       NOR MspInit callback ID
 970:/home/phong/Documents/thesis/stm32f4/stm-idf/components/stm32f4xx_hal_driver/stm32f4xx_hal_nor.c ****   *          @arg @ref HAL_NOR_MSP_DEINIT_CB_ID     NOR MspDeInit callback ID
 971:/home/phong/Documents/thesis/stm32f4/stm-idf/components/stm32f4xx_hal_driver/stm32f4xx_hal_nor.c ****   * @retval status
 972:/home/phong/Documents/thesis/stm32f4/stm-idf/components/stm32f4xx_hal_driver/stm32f4xx_hal_nor.c ****   */
 973:/home/phong/Documents/thesis/stm32f4/stm-idf/components/stm32f4xx_hal_driver/stm32f4xx_hal_nor.c **** HAL_StatusTypeDef HAL_NOR_UnRegisterCallback (NOR_HandleTypeDef *hnor, HAL_NOR_CallbackIDTypeDef Ca
 974:/home/phong/Documents/thesis/stm32f4/stm-idf/components/stm32f4xx_hal_driver/stm32f4xx_hal_nor.c **** {
 975:/home/phong/Documents/thesis/stm32f4/stm-idf/components/stm32f4xx_hal_driver/stm32f4xx_hal_nor.c ****   HAL_StatusTypeDef status = HAL_OK;
 976:/home/phong/Documents/thesis/stm32f4/stm-idf/components/stm32f4xx_hal_driver/stm32f4xx_hal_nor.c ****   HAL_NOR_StateTypeDef state;
 977:/home/phong/Documents/thesis/stm32f4/stm-idf/components/stm32f4xx_hal_driver/stm32f4xx_hal_nor.c **** 
 978:/home/phong/Documents/thesis/stm32f4/stm-idf/components/stm32f4xx_hal_driver/stm32f4xx_hal_nor.c ****   /* Process locked */
 979:/home/phong/Documents/thesis/stm32f4/stm-idf/components/stm32f4xx_hal_driver/stm32f4xx_hal_nor.c ****   __HAL_LOCK(hnor);
 980:/home/phong/Documents/thesis/stm32f4/stm-idf/components/stm32f4xx_hal_driver/stm32f4xx_hal_nor.c **** 
 981:/home/phong/Documents/thesis/stm32f4/stm-idf/components/stm32f4xx_hal_driver/stm32f4xx_hal_nor.c ****   state = hnor->State;
 982:/home/phong/Documents/thesis/stm32f4/stm-idf/components/stm32f4xx_hal_driver/stm32f4xx_hal_nor.c ****   if((state == HAL_NOR_STATE_READY) || (state == HAL_NOR_STATE_RESET) || (state == HAL_NOR_STATE_PR
 983:/home/phong/Documents/thesis/stm32f4/stm-idf/components/stm32f4xx_hal_driver/stm32f4xx_hal_nor.c ****   {
 984:/home/phong/Documents/thesis/stm32f4/stm-idf/components/stm32f4xx_hal_driver/stm32f4xx_hal_nor.c ****     switch (CallbackId)
 985:/home/phong/Documents/thesis/stm32f4/stm-idf/components/stm32f4xx_hal_driver/stm32f4xx_hal_nor.c ****     {
 986:/home/phong/Documents/thesis/stm32f4/stm-idf/components/stm32f4xx_hal_driver/stm32f4xx_hal_nor.c ****     case HAL_NOR_MSP_INIT_CB_ID :
 987:/home/phong/Documents/thesis/stm32f4/stm-idf/components/stm32f4xx_hal_driver/stm32f4xx_hal_nor.c ****       hnor->MspInitCallback = HAL_NOR_MspInit;
 988:/home/phong/Documents/thesis/stm32f4/stm-idf/components/stm32f4xx_hal_driver/stm32f4xx_hal_nor.c ****       break;
 989:/home/phong/Documents/thesis/stm32f4/stm-idf/components/stm32f4xx_hal_driver/stm32f4xx_hal_nor.c ****     case HAL_NOR_MSP_DEINIT_CB_ID :
 990:/home/phong/Documents/thesis/stm32f4/stm-idf/components/stm32f4xx_hal_driver/stm32f4xx_hal_nor.c ****       hnor->MspDeInitCallback = HAL_NOR_MspDeInit;
 991:/home/phong/Documents/thesis/stm32f4/stm-idf/components/stm32f4xx_hal_driver/stm32f4xx_hal_nor.c ****       break;
 992:/home/phong/Documents/thesis/stm32f4/stm-idf/components/stm32f4xx_hal_driver/stm32f4xx_hal_nor.c ****     default :
 993:/home/phong/Documents/thesis/stm32f4/stm-idf/components/stm32f4xx_hal_driver/stm32f4xx_hal_nor.c ****       /* update return status */
 994:/home/phong/Documents/thesis/stm32f4/stm-idf/components/stm32f4xx_hal_driver/stm32f4xx_hal_nor.c ****       status =  HAL_ERROR;
 995:/home/phong/Documents/thesis/stm32f4/stm-idf/components/stm32f4xx_hal_driver/stm32f4xx_hal_nor.c ****       break;
 996:/home/phong/Documents/thesis/stm32f4/stm-idf/components/stm32f4xx_hal_driver/stm32f4xx_hal_nor.c ****     }
 997:/home/phong/Documents/thesis/stm32f4/stm-idf/components/stm32f4xx_hal_driver/stm32f4xx_hal_nor.c ****   }
 998:/home/phong/Documents/thesis/stm32f4/stm-idf/components/stm32f4xx_hal_driver/stm32f4xx_hal_nor.c ****   else
 999:/home/phong/Documents/thesis/stm32f4/stm-idf/components/stm32f4xx_hal_driver/stm32f4xx_hal_nor.c ****   {
1000:/home/phong/Documents/thesis/stm32f4/stm-idf/components/stm32f4xx_hal_driver/stm32f4xx_hal_nor.c ****     /* update return status */
1001:/home/phong/Documents/thesis/stm32f4/stm-idf/components/stm32f4xx_hal_driver/stm32f4xx_hal_nor.c ****     status =  HAL_ERROR;
1002:/home/phong/Documents/thesis/stm32f4/stm-idf/components/stm32f4xx_hal_driver/stm32f4xx_hal_nor.c ****   }
1003:/home/phong/Documents/thesis/stm32f4/stm-idf/components/stm32f4xx_hal_driver/stm32f4xx_hal_nor.c **** 
1004:/home/phong/Documents/thesis/stm32f4/stm-idf/components/stm32f4xx_hal_driver/stm32f4xx_hal_nor.c ****   /* Release Lock */
1005:/home/phong/Documents/thesis/stm32f4/stm-idf/components/stm32f4xx_hal_driver/stm32f4xx_hal_nor.c ****   __HAL_UNLOCK(hnor);
1006:/home/phong/Documents/thesis/stm32f4/stm-idf/components/stm32f4xx_hal_driver/stm32f4xx_hal_nor.c ****   return status;
1007:/home/phong/Documents/thesis/stm32f4/stm-idf/components/stm32f4xx_hal_driver/stm32f4xx_hal_nor.c **** }
1008:/home/phong/Documents/thesis/stm32f4/stm-idf/components/stm32f4xx_hal_driver/stm32f4xx_hal_nor.c **** #endif /* (USE_HAL_NOR_REGISTER_CALLBACKS) */
1009:/home/phong/Documents/thesis/stm32f4/stm-idf/components/stm32f4xx_hal_driver/stm32f4xx_hal_nor.c **** /**
ARM GAS  /tmp/ccYyp54X.s 			page 48


1010:/home/phong/Documents/thesis/stm32f4/stm-idf/components/stm32f4xx_hal_driver/stm32f4xx_hal_nor.c ****   * @}
1011:/home/phong/Documents/thesis/stm32f4/stm-idf/components/stm32f4xx_hal_driver/stm32f4xx_hal_nor.c ****   */
1012:/home/phong/Documents/thesis/stm32f4/stm-idf/components/stm32f4xx_hal_driver/stm32f4xx_hal_nor.c ****   
1013:/home/phong/Documents/thesis/stm32f4/stm-idf/components/stm32f4xx_hal_driver/stm32f4xx_hal_nor.c **** /** @defgroup NOR_Exported_Functions_Group3 NOR Control functions
1014:/home/phong/Documents/thesis/stm32f4/stm-idf/components/stm32f4xx_hal_driver/stm32f4xx_hal_nor.c ****  *  @brief   management functions 
1015:/home/phong/Documents/thesis/stm32f4/stm-idf/components/stm32f4xx_hal_driver/stm32f4xx_hal_nor.c ****  *
1016:/home/phong/Documents/thesis/stm32f4/stm-idf/components/stm32f4xx_hal_driver/stm32f4xx_hal_nor.c **** @verbatim   
1017:/home/phong/Documents/thesis/stm32f4/stm-idf/components/stm32f4xx_hal_driver/stm32f4xx_hal_nor.c ****   ==============================================================================
1018:/home/phong/Documents/thesis/stm32f4/stm-idf/components/stm32f4xx_hal_driver/stm32f4xx_hal_nor.c ****                         ##### NOR Control functions #####
1019:/home/phong/Documents/thesis/stm32f4/stm-idf/components/stm32f4xx_hal_driver/stm32f4xx_hal_nor.c ****   ==============================================================================
1020:/home/phong/Documents/thesis/stm32f4/stm-idf/components/stm32f4xx_hal_driver/stm32f4xx_hal_nor.c ****   [..]
1021:/home/phong/Documents/thesis/stm32f4/stm-idf/components/stm32f4xx_hal_driver/stm32f4xx_hal_nor.c ****     This subsection provides a set of functions allowing to control dynamically
1022:/home/phong/Documents/thesis/stm32f4/stm-idf/components/stm32f4xx_hal_driver/stm32f4xx_hal_nor.c ****     the NOR interface.
1023:/home/phong/Documents/thesis/stm32f4/stm-idf/components/stm32f4xx_hal_driver/stm32f4xx_hal_nor.c **** 
1024:/home/phong/Documents/thesis/stm32f4/stm-idf/components/stm32f4xx_hal_driver/stm32f4xx_hal_nor.c **** @endverbatim
1025:/home/phong/Documents/thesis/stm32f4/stm-idf/components/stm32f4xx_hal_driver/stm32f4xx_hal_nor.c ****   * @{
1026:/home/phong/Documents/thesis/stm32f4/stm-idf/components/stm32f4xx_hal_driver/stm32f4xx_hal_nor.c ****   */
1027:/home/phong/Documents/thesis/stm32f4/stm-idf/components/stm32f4xx_hal_driver/stm32f4xx_hal_nor.c ****     
1028:/home/phong/Documents/thesis/stm32f4/stm-idf/components/stm32f4xx_hal_driver/stm32f4xx_hal_nor.c **** /**
1029:/home/phong/Documents/thesis/stm32f4/stm-idf/components/stm32f4xx_hal_driver/stm32f4xx_hal_nor.c ****   * @brief  Enables dynamically NOR write operation.
1030:/home/phong/Documents/thesis/stm32f4/stm-idf/components/stm32f4xx_hal_driver/stm32f4xx_hal_nor.c ****   * @param  hnor pointer to a NOR_HandleTypeDef structure that contains
1031:/home/phong/Documents/thesis/stm32f4/stm-idf/components/stm32f4xx_hal_driver/stm32f4xx_hal_nor.c ****   *                the configuration information for NOR module.
1032:/home/phong/Documents/thesis/stm32f4/stm-idf/components/stm32f4xx_hal_driver/stm32f4xx_hal_nor.c ****   * @retval HAL status
1033:/home/phong/Documents/thesis/stm32f4/stm-idf/components/stm32f4xx_hal_driver/stm32f4xx_hal_nor.c ****   */
1034:/home/phong/Documents/thesis/stm32f4/stm-idf/components/stm32f4xx_hal_driver/stm32f4xx_hal_nor.c **** HAL_StatusTypeDef HAL_NOR_WriteOperation_Enable(NOR_HandleTypeDef *hnor)
1035:/home/phong/Documents/thesis/stm32f4/stm-idf/components/stm32f4xx_hal_driver/stm32f4xx_hal_nor.c **** {
 1600              		.loc 1 1035 0
 1601              		.cfi_startproc
 1602              		@ args = 0, pretend = 0, frame = 0
 1603              		@ frame_needed = 0, uses_anonymous_args = 0
 1604              	.LVL128:
 1605 0000 38B5     		push	{r3, r4, r5, lr}
 1606              	.LCFI29:
 1607              		.cfi_def_cfa_offset 16
 1608              		.cfi_offset 3, -16
 1609              		.cfi_offset 4, -12
 1610              		.cfi_offset 5, -8
 1611              		.cfi_offset 14, -4
1036:/home/phong/Documents/thesis/stm32f4/stm-idf/components/stm32f4xx_hal_driver/stm32f4xx_hal_nor.c ****   /* Process Locked */
1037:/home/phong/Documents/thesis/stm32f4/stm-idf/components/stm32f4xx_hal_driver/stm32f4xx_hal_nor.c ****   __HAL_LOCK(hnor);
 1612              		.loc 1 1037 0
 1613 0002 90F84830 		ldrb	r3, [r0, #72]	@ zero_extendqisi2
 1614 0006 012B     		cmp	r3, #1
 1615 0008 01D1     		bne	.L219
 1616 000a 0220     		movs	r0, #2
 1617              	.LVL129:
1038:/home/phong/Documents/thesis/stm32f4/stm-idf/components/stm32f4xx_hal_driver/stm32f4xx_hal_nor.c **** 
1039:/home/phong/Documents/thesis/stm32f4/stm-idf/components/stm32f4xx_hal_driver/stm32f4xx_hal_nor.c ****   /* Enable write operation */
1040:/home/phong/Documents/thesis/stm32f4/stm-idf/components/stm32f4xx_hal_driver/stm32f4xx_hal_nor.c ****   FMC_NORSRAM_WriteOperation_Enable(hnor->Instance, hnor->Init.NSBank); 
1041:/home/phong/Documents/thesis/stm32f4/stm-idf/components/stm32f4xx_hal_driver/stm32f4xx_hal_nor.c ****   
1042:/home/phong/Documents/thesis/stm32f4/stm-idf/components/stm32f4xx_hal_driver/stm32f4xx_hal_nor.c ****   /* Update the NOR controller state */
1043:/home/phong/Documents/thesis/stm32f4/stm-idf/components/stm32f4xx_hal_driver/stm32f4xx_hal_nor.c ****   hnor->State = HAL_NOR_STATE_READY;
1044:/home/phong/Documents/thesis/stm32f4/stm-idf/components/stm32f4xx_hal_driver/stm32f4xx_hal_nor.c ****   
1045:/home/phong/Documents/thesis/stm32f4/stm-idf/components/stm32f4xx_hal_driver/stm32f4xx_hal_nor.c ****   /* Process unlocked */
1046:/home/phong/Documents/thesis/stm32f4/stm-idf/components/stm32f4xx_hal_driver/stm32f4xx_hal_nor.c ****   __HAL_UNLOCK(hnor); 
1047:/home/phong/Documents/thesis/stm32f4/stm-idf/components/stm32f4xx_hal_driver/stm32f4xx_hal_nor.c ****   
1048:/home/phong/Documents/thesis/stm32f4/stm-idf/components/stm32f4xx_hal_driver/stm32f4xx_hal_nor.c ****   return HAL_OK;  
ARM GAS  /tmp/ccYyp54X.s 			page 49


1049:/home/phong/Documents/thesis/stm32f4/stm-idf/components/stm32f4xx_hal_driver/stm32f4xx_hal_nor.c **** }
 1618              		.loc 1 1049 0
 1619 000c 38BD     		pop	{r3, r4, r5, pc}
 1620              	.LVL130:
 1621              	.L219:
 1622 000e 0446     		mov	r4, r0
1037:/home/phong/Documents/thesis/stm32f4/stm-idf/components/stm32f4xx_hal_driver/stm32f4xx_hal_nor.c **** 
 1623              		.loc 1 1037 0 discriminator 2
 1624 0010 0125     		movs	r5, #1
 1625 0012 80F84850 		strb	r5, [r0, #72]
1040:/home/phong/Documents/thesis/stm32f4/stm-idf/components/stm32f4xx_hal_driver/stm32f4xx_hal_nor.c ****   
 1626              		.loc 1 1040 0 discriminator 2
 1627 0016 8168     		ldr	r1, [r0, #8]
 1628 0018 0068     		ldr	r0, [r0]
 1629              	.LVL131:
 1630 001a FFF7FEFF 		bl	FSMC_NORSRAM_WriteOperation_Enable
 1631              	.LVL132:
1043:/home/phong/Documents/thesis/stm32f4/stm-idf/components/stm32f4xx_hal_driver/stm32f4xx_hal_nor.c ****   
 1632              		.loc 1 1043 0 discriminator 2
 1633 001e 84F84950 		strb	r5, [r4, #73]
1046:/home/phong/Documents/thesis/stm32f4/stm-idf/components/stm32f4xx_hal_driver/stm32f4xx_hal_nor.c ****   
 1634              		.loc 1 1046 0 discriminator 2
 1635 0022 0020     		movs	r0, #0
 1636 0024 84F84800 		strb	r0, [r4, #72]
1048:/home/phong/Documents/thesis/stm32f4/stm-idf/components/stm32f4xx_hal_driver/stm32f4xx_hal_nor.c **** }
 1637              		.loc 1 1048 0 discriminator 2
 1638 0028 38BD     		pop	{r3, r4, r5, pc}
 1639              		.cfi_endproc
 1640              	.LFE144:
 1642              		.section	.text.HAL_NOR_WriteOperation_Disable,"ax",%progbits
 1643              		.align	1
 1644              		.global	HAL_NOR_WriteOperation_Disable
 1645              		.syntax unified
 1646              		.thumb
 1647              		.thumb_func
 1648              		.fpu fpv4-sp-d16
 1650              	HAL_NOR_WriteOperation_Disable:
 1651              	.LFB145:
1050:/home/phong/Documents/thesis/stm32f4/stm-idf/components/stm32f4xx_hal_driver/stm32f4xx_hal_nor.c **** 
1051:/home/phong/Documents/thesis/stm32f4/stm-idf/components/stm32f4xx_hal_driver/stm32f4xx_hal_nor.c **** /**
1052:/home/phong/Documents/thesis/stm32f4/stm-idf/components/stm32f4xx_hal_driver/stm32f4xx_hal_nor.c ****   * @brief  Disables dynamically NOR write operation.
1053:/home/phong/Documents/thesis/stm32f4/stm-idf/components/stm32f4xx_hal_driver/stm32f4xx_hal_nor.c ****   * @param  hnor pointer to a NOR_HandleTypeDef structure that contains
1054:/home/phong/Documents/thesis/stm32f4/stm-idf/components/stm32f4xx_hal_driver/stm32f4xx_hal_nor.c ****   *                the configuration information for NOR module.
1055:/home/phong/Documents/thesis/stm32f4/stm-idf/components/stm32f4xx_hal_driver/stm32f4xx_hal_nor.c ****   * @retval HAL status
1056:/home/phong/Documents/thesis/stm32f4/stm-idf/components/stm32f4xx_hal_driver/stm32f4xx_hal_nor.c ****   */
1057:/home/phong/Documents/thesis/stm32f4/stm-idf/components/stm32f4xx_hal_driver/stm32f4xx_hal_nor.c **** HAL_StatusTypeDef HAL_NOR_WriteOperation_Disable(NOR_HandleTypeDef *hnor)
1058:/home/phong/Documents/thesis/stm32f4/stm-idf/components/stm32f4xx_hal_driver/stm32f4xx_hal_nor.c **** {
 1652              		.loc 1 1058 0
 1653              		.cfi_startproc
 1654              		@ args = 0, pretend = 0, frame = 0
 1655              		@ frame_needed = 0, uses_anonymous_args = 0
 1656              	.LVL133:
1059:/home/phong/Documents/thesis/stm32f4/stm-idf/components/stm32f4xx_hal_driver/stm32f4xx_hal_nor.c ****   /* Process Locked */
1060:/home/phong/Documents/thesis/stm32f4/stm-idf/components/stm32f4xx_hal_driver/stm32f4xx_hal_nor.c ****   __HAL_LOCK(hnor);
 1657              		.loc 1 1060 0
 1658 0000 90F84830 		ldrb	r3, [r0, #72]	@ zero_extendqisi2
 1659 0004 012B     		cmp	r3, #1
ARM GAS  /tmp/ccYyp54X.s 			page 50


 1660 0006 01D1     		bne	.L227
 1661 0008 0220     		movs	r0, #2
 1662              	.LVL134:
 1663 000a 7047     		bx	lr
 1664              	.LVL135:
 1665              	.L227:
1058:/home/phong/Documents/thesis/stm32f4/stm-idf/components/stm32f4xx_hal_driver/stm32f4xx_hal_nor.c ****   /* Process Locked */
 1666              		.loc 1 1058 0 discriminator 2
 1667 000c 10B5     		push	{r4, lr}
 1668              	.LCFI30:
 1669              		.cfi_def_cfa_offset 8
 1670              		.cfi_offset 4, -8
 1671              		.cfi_offset 14, -4
 1672 000e 0446     		mov	r4, r0
 1673              		.loc 1 1060 0 discriminator 2
 1674 0010 0123     		movs	r3, #1
 1675 0012 80F84830 		strb	r3, [r0, #72]
1061:/home/phong/Documents/thesis/stm32f4/stm-idf/components/stm32f4xx_hal_driver/stm32f4xx_hal_nor.c **** 
1062:/home/phong/Documents/thesis/stm32f4/stm-idf/components/stm32f4xx_hal_driver/stm32f4xx_hal_nor.c ****   /* Update the SRAM controller state */
1063:/home/phong/Documents/thesis/stm32f4/stm-idf/components/stm32f4xx_hal_driver/stm32f4xx_hal_nor.c ****   hnor->State = HAL_NOR_STATE_BUSY;
 1676              		.loc 1 1063 0 discriminator 2
 1677 0016 0223     		movs	r3, #2
 1678 0018 80F84930 		strb	r3, [r0, #73]
1064:/home/phong/Documents/thesis/stm32f4/stm-idf/components/stm32f4xx_hal_driver/stm32f4xx_hal_nor.c ****     
1065:/home/phong/Documents/thesis/stm32f4/stm-idf/components/stm32f4xx_hal_driver/stm32f4xx_hal_nor.c ****   /* Disable write operation */
1066:/home/phong/Documents/thesis/stm32f4/stm-idf/components/stm32f4xx_hal_driver/stm32f4xx_hal_nor.c ****   FMC_NORSRAM_WriteOperation_Disable(hnor->Instance, hnor->Init.NSBank); 
 1679              		.loc 1 1066 0 discriminator 2
 1680 001c 8168     		ldr	r1, [r0, #8]
 1681 001e 0068     		ldr	r0, [r0]
 1682              	.LVL136:
 1683 0020 FFF7FEFF 		bl	FSMC_NORSRAM_WriteOperation_Disable
 1684              	.LVL137:
1067:/home/phong/Documents/thesis/stm32f4/stm-idf/components/stm32f4xx_hal_driver/stm32f4xx_hal_nor.c ****   
1068:/home/phong/Documents/thesis/stm32f4/stm-idf/components/stm32f4xx_hal_driver/stm32f4xx_hal_nor.c ****   /* Update the NOR controller state */
1069:/home/phong/Documents/thesis/stm32f4/stm-idf/components/stm32f4xx_hal_driver/stm32f4xx_hal_nor.c ****   hnor->State = HAL_NOR_STATE_PROTECTED;
 1685              		.loc 1 1069 0 discriminator 2
 1686 0024 0423     		movs	r3, #4
 1687 0026 84F84930 		strb	r3, [r4, #73]
1070:/home/phong/Documents/thesis/stm32f4/stm-idf/components/stm32f4xx_hal_driver/stm32f4xx_hal_nor.c ****   
1071:/home/phong/Documents/thesis/stm32f4/stm-idf/components/stm32f4xx_hal_driver/stm32f4xx_hal_nor.c ****   /* Process unlocked */
1072:/home/phong/Documents/thesis/stm32f4/stm-idf/components/stm32f4xx_hal_driver/stm32f4xx_hal_nor.c ****   __HAL_UNLOCK(hnor); 
 1688              		.loc 1 1072 0 discriminator 2
 1689 002a 0020     		movs	r0, #0
 1690 002c 84F84800 		strb	r0, [r4, #72]
1073:/home/phong/Documents/thesis/stm32f4/stm-idf/components/stm32f4xx_hal_driver/stm32f4xx_hal_nor.c ****   
1074:/home/phong/Documents/thesis/stm32f4/stm-idf/components/stm32f4xx_hal_driver/stm32f4xx_hal_nor.c ****   return HAL_OK;  
 1691              		.loc 1 1074 0 discriminator 2
 1692 0030 10BD     		pop	{r4, pc}
 1693              		.cfi_endproc
 1694              	.LFE145:
 1696              		.section	.text.HAL_NOR_GetState,"ax",%progbits
 1697              		.align	1
 1698              		.global	HAL_NOR_GetState
 1699              		.syntax unified
 1700              		.thumb
 1701              		.thumb_func
 1702              		.fpu fpv4-sp-d16
ARM GAS  /tmp/ccYyp54X.s 			page 51


 1704              	HAL_NOR_GetState:
 1705              	.LFB146:
1075:/home/phong/Documents/thesis/stm32f4/stm-idf/components/stm32f4xx_hal_driver/stm32f4xx_hal_nor.c **** }
1076:/home/phong/Documents/thesis/stm32f4/stm-idf/components/stm32f4xx_hal_driver/stm32f4xx_hal_nor.c **** 
1077:/home/phong/Documents/thesis/stm32f4/stm-idf/components/stm32f4xx_hal_driver/stm32f4xx_hal_nor.c **** /**
1078:/home/phong/Documents/thesis/stm32f4/stm-idf/components/stm32f4xx_hal_driver/stm32f4xx_hal_nor.c ****   * @}
1079:/home/phong/Documents/thesis/stm32f4/stm-idf/components/stm32f4xx_hal_driver/stm32f4xx_hal_nor.c ****   */  
1080:/home/phong/Documents/thesis/stm32f4/stm-idf/components/stm32f4xx_hal_driver/stm32f4xx_hal_nor.c ****   
1081:/home/phong/Documents/thesis/stm32f4/stm-idf/components/stm32f4xx_hal_driver/stm32f4xx_hal_nor.c **** /** @defgroup NOR_Exported_Functions_Group4 NOR State functions 
1082:/home/phong/Documents/thesis/stm32f4/stm-idf/components/stm32f4xx_hal_driver/stm32f4xx_hal_nor.c ****  *  @brief   Peripheral State functions 
1083:/home/phong/Documents/thesis/stm32f4/stm-idf/components/stm32f4xx_hal_driver/stm32f4xx_hal_nor.c ****  *
1084:/home/phong/Documents/thesis/stm32f4/stm-idf/components/stm32f4xx_hal_driver/stm32f4xx_hal_nor.c **** @verbatim   
1085:/home/phong/Documents/thesis/stm32f4/stm-idf/components/stm32f4xx_hal_driver/stm32f4xx_hal_nor.c ****   ==============================================================================
1086:/home/phong/Documents/thesis/stm32f4/stm-idf/components/stm32f4xx_hal_driver/stm32f4xx_hal_nor.c ****                       ##### NOR State functions #####
1087:/home/phong/Documents/thesis/stm32f4/stm-idf/components/stm32f4xx_hal_driver/stm32f4xx_hal_nor.c ****   ==============================================================================  
1088:/home/phong/Documents/thesis/stm32f4/stm-idf/components/stm32f4xx_hal_driver/stm32f4xx_hal_nor.c ****   [..]
1089:/home/phong/Documents/thesis/stm32f4/stm-idf/components/stm32f4xx_hal_driver/stm32f4xx_hal_nor.c ****     This subsection permits to get in run-time the status of the NOR controller 
1090:/home/phong/Documents/thesis/stm32f4/stm-idf/components/stm32f4xx_hal_driver/stm32f4xx_hal_nor.c ****     and the data flow.
1091:/home/phong/Documents/thesis/stm32f4/stm-idf/components/stm32f4xx_hal_driver/stm32f4xx_hal_nor.c **** 
1092:/home/phong/Documents/thesis/stm32f4/stm-idf/components/stm32f4xx_hal_driver/stm32f4xx_hal_nor.c **** @endverbatim
1093:/home/phong/Documents/thesis/stm32f4/stm-idf/components/stm32f4xx_hal_driver/stm32f4xx_hal_nor.c ****   * @{
1094:/home/phong/Documents/thesis/stm32f4/stm-idf/components/stm32f4xx_hal_driver/stm32f4xx_hal_nor.c ****   */
1095:/home/phong/Documents/thesis/stm32f4/stm-idf/components/stm32f4xx_hal_driver/stm32f4xx_hal_nor.c ****   
1096:/home/phong/Documents/thesis/stm32f4/stm-idf/components/stm32f4xx_hal_driver/stm32f4xx_hal_nor.c **** /**
1097:/home/phong/Documents/thesis/stm32f4/stm-idf/components/stm32f4xx_hal_driver/stm32f4xx_hal_nor.c ****   * @brief  return the NOR controller state
1098:/home/phong/Documents/thesis/stm32f4/stm-idf/components/stm32f4xx_hal_driver/stm32f4xx_hal_nor.c ****   * @param  hnor pointer to a NOR_HandleTypeDef structure that contains
1099:/home/phong/Documents/thesis/stm32f4/stm-idf/components/stm32f4xx_hal_driver/stm32f4xx_hal_nor.c ****   *                the configuration information for NOR module.
1100:/home/phong/Documents/thesis/stm32f4/stm-idf/components/stm32f4xx_hal_driver/stm32f4xx_hal_nor.c ****   * @retval NOR controller state
1101:/home/phong/Documents/thesis/stm32f4/stm-idf/components/stm32f4xx_hal_driver/stm32f4xx_hal_nor.c ****   */
1102:/home/phong/Documents/thesis/stm32f4/stm-idf/components/stm32f4xx_hal_driver/stm32f4xx_hal_nor.c **** HAL_NOR_StateTypeDef HAL_NOR_GetState(NOR_HandleTypeDef *hnor)
1103:/home/phong/Documents/thesis/stm32f4/stm-idf/components/stm32f4xx_hal_driver/stm32f4xx_hal_nor.c **** {
 1706              		.loc 1 1103 0
 1707              		.cfi_startproc
 1708              		@ args = 0, pretend = 0, frame = 0
 1709              		@ frame_needed = 0, uses_anonymous_args = 0
 1710              		@ link register save eliminated.
 1711              	.LVL138:
1104:/home/phong/Documents/thesis/stm32f4/stm-idf/components/stm32f4xx_hal_driver/stm32f4xx_hal_nor.c ****   return hnor->State;
 1712              		.loc 1 1104 0
 1713 0000 90F84900 		ldrb	r0, [r0, #73]	@ zero_extendqisi2
 1714              	.LVL139:
1105:/home/phong/Documents/thesis/stm32f4/stm-idf/components/stm32f4xx_hal_driver/stm32f4xx_hal_nor.c **** }
 1715              		.loc 1 1105 0
 1716 0004 7047     		bx	lr
 1717              		.cfi_endproc
 1718              	.LFE146:
 1720              		.section	.text.HAL_NOR_GetStatus,"ax",%progbits
 1721              		.align	1
 1722              		.global	HAL_NOR_GetStatus
 1723              		.syntax unified
 1724              		.thumb
 1725              		.thumb_func
 1726              		.fpu fpv4-sp-d16
 1728              	HAL_NOR_GetStatus:
 1729              	.LFB147:
1106:/home/phong/Documents/thesis/stm32f4/stm-idf/components/stm32f4xx_hal_driver/stm32f4xx_hal_nor.c **** 
1107:/home/phong/Documents/thesis/stm32f4/stm-idf/components/stm32f4xx_hal_driver/stm32f4xx_hal_nor.c **** /**
ARM GAS  /tmp/ccYyp54X.s 			page 52


1108:/home/phong/Documents/thesis/stm32f4/stm-idf/components/stm32f4xx_hal_driver/stm32f4xx_hal_nor.c ****   * @brief  Returns the NOR operation status.
1109:/home/phong/Documents/thesis/stm32f4/stm-idf/components/stm32f4xx_hal_driver/stm32f4xx_hal_nor.c ****   * @param  hnor pointer to a NOR_HandleTypeDef structure that contains
1110:/home/phong/Documents/thesis/stm32f4/stm-idf/components/stm32f4xx_hal_driver/stm32f4xx_hal_nor.c ****   *                the configuration information for NOR module.   
1111:/home/phong/Documents/thesis/stm32f4/stm-idf/components/stm32f4xx_hal_driver/stm32f4xx_hal_nor.c ****   * @param  Address Device address
1112:/home/phong/Documents/thesis/stm32f4/stm-idf/components/stm32f4xx_hal_driver/stm32f4xx_hal_nor.c ****   * @param  Timeout NOR programming Timeout
1113:/home/phong/Documents/thesis/stm32f4/stm-idf/components/stm32f4xx_hal_driver/stm32f4xx_hal_nor.c ****   * @retval NOR_Status: The returned value can be: HAL_NOR_STATUS_SUCCESS, HAL_NOR_STATUS_ERROR
1114:/home/phong/Documents/thesis/stm32f4/stm-idf/components/stm32f4xx_hal_driver/stm32f4xx_hal_nor.c ****   *         or HAL_NOR_STATUS_TIMEOUT
1115:/home/phong/Documents/thesis/stm32f4/stm-idf/components/stm32f4xx_hal_driver/stm32f4xx_hal_nor.c ****   */
1116:/home/phong/Documents/thesis/stm32f4/stm-idf/components/stm32f4xx_hal_driver/stm32f4xx_hal_nor.c **** HAL_NOR_StatusTypeDef HAL_NOR_GetStatus(NOR_HandleTypeDef *hnor, uint32_t Address, uint32_t Timeout
1117:/home/phong/Documents/thesis/stm32f4/stm-idf/components/stm32f4xx_hal_driver/stm32f4xx_hal_nor.c **** { 
 1730              		.loc 1 1117 0
 1731              		.cfi_startproc
 1732              		@ args = 0, pretend = 0, frame = 0
 1733              		@ frame_needed = 0, uses_anonymous_args = 0
 1734              	.LVL140:
 1735 0000 F8B5     		push	{r3, r4, r5, r6, r7, lr}
 1736              	.LCFI31:
 1737              		.cfi_def_cfa_offset 24
 1738              		.cfi_offset 3, -24
 1739              		.cfi_offset 4, -20
 1740              		.cfi_offset 5, -16
 1741              		.cfi_offset 6, -12
 1742              		.cfi_offset 7, -8
 1743              		.cfi_offset 14, -4
 1744 0002 0C46     		mov	r4, r1
 1745 0004 1646     		mov	r6, r2
 1746              	.LVL141:
1118:/home/phong/Documents/thesis/stm32f4/stm-idf/components/stm32f4xx_hal_driver/stm32f4xx_hal_nor.c ****   HAL_NOR_StatusTypeDef status = HAL_NOR_STATUS_ONGOING;
1119:/home/phong/Documents/thesis/stm32f4/stm-idf/components/stm32f4xx_hal_driver/stm32f4xx_hal_nor.c ****   uint16_t tmpSR1 = 0, tmpSR2 = 0;
1120:/home/phong/Documents/thesis/stm32f4/stm-idf/components/stm32f4xx_hal_driver/stm32f4xx_hal_nor.c ****   uint32_t tickstart = 0U;
1121:/home/phong/Documents/thesis/stm32f4/stm-idf/components/stm32f4xx_hal_driver/stm32f4xx_hal_nor.c **** 
1122:/home/phong/Documents/thesis/stm32f4/stm-idf/components/stm32f4xx_hal_driver/stm32f4xx_hal_nor.c ****   /* Poll on NOR memory Ready/Busy signal ------------------------------------*/
1123:/home/phong/Documents/thesis/stm32f4/stm-idf/components/stm32f4xx_hal_driver/stm32f4xx_hal_nor.c ****   HAL_NOR_MspWait(hnor, Timeout);
 1747              		.loc 1 1123 0
 1748 0006 1146     		mov	r1, r2
 1749              	.LVL142:
 1750 0008 FFF7FEFF 		bl	HAL_NOR_MspWait
 1751              	.LVL143:
1124:/home/phong/Documents/thesis/stm32f4/stm-idf/components/stm32f4xx_hal_driver/stm32f4xx_hal_nor.c ****   
1125:/home/phong/Documents/thesis/stm32f4/stm-idf/components/stm32f4xx_hal_driver/stm32f4xx_hal_nor.c ****   /* Get the NOR memory operation status -------------------------------------*/
1126:/home/phong/Documents/thesis/stm32f4/stm-idf/components/stm32f4xx_hal_driver/stm32f4xx_hal_nor.c ****   
1127:/home/phong/Documents/thesis/stm32f4/stm-idf/components/stm32f4xx_hal_driver/stm32f4xx_hal_nor.c ****   /* Get tick */
1128:/home/phong/Documents/thesis/stm32f4/stm-idf/components/stm32f4xx_hal_driver/stm32f4xx_hal_nor.c ****   tickstart = HAL_GetTick();
 1752              		.loc 1 1128 0
 1753 000c FFF7FEFF 		bl	HAL_GetTick
 1754              	.LVL144:
 1755 0010 0746     		mov	r7, r0
 1756              	.LVL145:
1118:/home/phong/Documents/thesis/stm32f4/stm-idf/components/stm32f4xx_hal_driver/stm32f4xx_hal_nor.c ****   HAL_NOR_StatusTypeDef status = HAL_NOR_STATUS_ONGOING;
 1757              		.loc 1 1118 0
 1758 0012 0125     		movs	r5, #1
1129:/home/phong/Documents/thesis/stm32f4/stm-idf/components/stm32f4xx_hal_driver/stm32f4xx_hal_nor.c ****   while((status != HAL_NOR_STATUS_SUCCESS ) && (status != HAL_NOR_STATUS_TIMEOUT))
 1759              		.loc 1 1129 0
 1760 0014 11E0     		b	.L230
 1761              	.LVL146:
 1762              	.L242:
1130:/home/phong/Documents/thesis/stm32f4/stm-idf/components/stm32f4xx_hal_driver/stm32f4xx_hal_nor.c ****   {
ARM GAS  /tmp/ccYyp54X.s 			page 53


1131:/home/phong/Documents/thesis/stm32f4/stm-idf/components/stm32f4xx_hal_driver/stm32f4xx_hal_nor.c ****     /* Check for the Timeout */
1132:/home/phong/Documents/thesis/stm32f4/stm-idf/components/stm32f4xx_hal_driver/stm32f4xx_hal_nor.c ****     if(Timeout != HAL_MAX_DELAY)
1133:/home/phong/Documents/thesis/stm32f4/stm-idf/components/stm32f4xx_hal_driver/stm32f4xx_hal_nor.c ****     {
1134:/home/phong/Documents/thesis/stm32f4/stm-idf/components/stm32f4xx_hal_driver/stm32f4xx_hal_nor.c ****       if((Timeout == 0U)||((HAL_GetTick() - tickstart ) > Timeout))
 1763              		.loc 1 1134 0 discriminator 1
 1764 0016 FFF7FEFF 		bl	HAL_GetTick
 1765              	.LVL147:
 1766 001a C01B     		subs	r0, r0, r7
 1767 001c 8642     		cmp	r6, r0
 1768 001e 15D2     		bcs	.L231
1135:/home/phong/Documents/thesis/stm32f4/stm-idf/components/stm32f4xx_hal_driver/stm32f4xx_hal_nor.c ****       {
1136:/home/phong/Documents/thesis/stm32f4/stm-idf/components/stm32f4xx_hal_driver/stm32f4xx_hal_nor.c ****         status = HAL_NOR_STATUS_TIMEOUT; 
 1769              		.loc 1 1136 0
 1770 0020 0325     		movs	r5, #3
 1771              	.LVL148:
 1772 0022 13E0     		b	.L231
 1773              	.LVL149:
 1774              	.L233:
1137:/home/phong/Documents/thesis/stm32f4/stm-idf/components/stm32f4xx_hal_driver/stm32f4xx_hal_nor.c ****       } 
1138:/home/phong/Documents/thesis/stm32f4/stm-idf/components/stm32f4xx_hal_driver/stm32f4xx_hal_nor.c ****     } 
1139:/home/phong/Documents/thesis/stm32f4/stm-idf/components/stm32f4xx_hal_driver/stm32f4xx_hal_nor.c **** 
1140:/home/phong/Documents/thesis/stm32f4/stm-idf/components/stm32f4xx_hal_driver/stm32f4xx_hal_nor.c ****     /* Read NOR status register (DQ6 and DQ5) */
1141:/home/phong/Documents/thesis/stm32f4/stm-idf/components/stm32f4xx_hal_driver/stm32f4xx_hal_nor.c ****     tmpSR1 = *(__IO uint16_t *)Address;
1142:/home/phong/Documents/thesis/stm32f4/stm-idf/components/stm32f4xx_hal_driver/stm32f4xx_hal_nor.c ****     tmpSR2 = *(__IO uint16_t *)Address;
1143:/home/phong/Documents/thesis/stm32f4/stm-idf/components/stm32f4xx_hal_driver/stm32f4xx_hal_nor.c **** 
1144:/home/phong/Documents/thesis/stm32f4/stm-idf/components/stm32f4xx_hal_driver/stm32f4xx_hal_nor.c ****     /* If DQ6 did not toggle between the two reads then return HAL_NOR_STATUS_SUCCESS  */
1145:/home/phong/Documents/thesis/stm32f4/stm-idf/components/stm32f4xx_hal_driver/stm32f4xx_hal_nor.c ****     if((tmpSR1 & NOR_MASK_STATUS_DQ6) == (tmpSR2 & NOR_MASK_STATUS_DQ6)) 
1146:/home/phong/Documents/thesis/stm32f4/stm-idf/components/stm32f4xx_hal_driver/stm32f4xx_hal_nor.c ****     {
1147:/home/phong/Documents/thesis/stm32f4/stm-idf/components/stm32f4xx_hal_driver/stm32f4xx_hal_nor.c ****       return HAL_NOR_STATUS_SUCCESS ;
1148:/home/phong/Documents/thesis/stm32f4/stm-idf/components/stm32f4xx_hal_driver/stm32f4xx_hal_nor.c ****     }
1149:/home/phong/Documents/thesis/stm32f4/stm-idf/components/stm32f4xx_hal_driver/stm32f4xx_hal_nor.c ****     
1150:/home/phong/Documents/thesis/stm32f4/stm-idf/components/stm32f4xx_hal_driver/stm32f4xx_hal_nor.c ****     if((tmpSR1 & NOR_MASK_STATUS_DQ5) == NOR_MASK_STATUS_DQ5)
1151:/home/phong/Documents/thesis/stm32f4/stm-idf/components/stm32f4xx_hal_driver/stm32f4xx_hal_nor.c ****     {
1152:/home/phong/Documents/thesis/stm32f4/stm-idf/components/stm32f4xx_hal_driver/stm32f4xx_hal_nor.c ****       status = HAL_NOR_STATUS_ONGOING;
1153:/home/phong/Documents/thesis/stm32f4/stm-idf/components/stm32f4xx_hal_driver/stm32f4xx_hal_nor.c ****     }
1154:/home/phong/Documents/thesis/stm32f4/stm-idf/components/stm32f4xx_hal_driver/stm32f4xx_hal_nor.c ****     
1155:/home/phong/Documents/thesis/stm32f4/stm-idf/components/stm32f4xx_hal_driver/stm32f4xx_hal_nor.c ****     tmpSR1 = *(__IO uint16_t *)Address;
 1775              		.loc 1 1155 0
 1776 0024 2288     		ldrh	r2, [r4]
 1777              	.LVL150:
 1778 0026 92B2     		uxth	r2, r2
 1779              	.LVL151:
1156:/home/phong/Documents/thesis/stm32f4/stm-idf/components/stm32f4xx_hal_driver/stm32f4xx_hal_nor.c ****     tmpSR2 = *(__IO uint16_t *)Address;
 1780              		.loc 1 1156 0
 1781 0028 2388     		ldrh	r3, [r4]
 1782 002a 9BB2     		uxth	r3, r3
 1783              	.LVL152:
1157:/home/phong/Documents/thesis/stm32f4/stm-idf/components/stm32f4xx_hal_driver/stm32f4xx_hal_nor.c **** 
1158:/home/phong/Documents/thesis/stm32f4/stm-idf/components/stm32f4xx_hal_driver/stm32f4xx_hal_nor.c ****     /* If DQ6 did not toggle between the two reads then return HAL_NOR_STATUS_SUCCESS  */
1159:/home/phong/Documents/thesis/stm32f4/stm-idf/components/stm32f4xx_hal_driver/stm32f4xx_hal_nor.c ****     if((tmpSR1 & NOR_MASK_STATUS_DQ6) == (tmpSR2 & NOR_MASK_STATUS_DQ6)) 
 1784              		.loc 1 1159 0
 1785 002c 5340     		eors	r3, r3, r2
 1786              	.LVL153:
 1787 002e 13F0400F 		tst	r3, #64
 1788 0032 1BD0     		beq	.L239
1160:/home/phong/Documents/thesis/stm32f4/stm-idf/components/stm32f4xx_hal_driver/stm32f4xx_hal_nor.c ****     {
1161:/home/phong/Documents/thesis/stm32f4/stm-idf/components/stm32f4xx_hal_driver/stm32f4xx_hal_nor.c ****       return HAL_NOR_STATUS_SUCCESS;
ARM GAS  /tmp/ccYyp54X.s 			page 54


1162:/home/phong/Documents/thesis/stm32f4/stm-idf/components/stm32f4xx_hal_driver/stm32f4xx_hal_nor.c ****     }
1163:/home/phong/Documents/thesis/stm32f4/stm-idf/components/stm32f4xx_hal_driver/stm32f4xx_hal_nor.c ****     if((tmpSR1 & NOR_MASK_STATUS_DQ5) == NOR_MASK_STATUS_DQ5)
 1789              		.loc 1 1163 0
 1790 0034 12F0200F 		tst	r2, #32
 1791 0038 1AD1     		bne	.L240
 1792              	.LVL154:
 1793              	.L230:
1129:/home/phong/Documents/thesis/stm32f4/stm-idf/components/stm32f4xx_hal_driver/stm32f4xx_hal_nor.c ****   {
 1794              		.loc 1 1129 0
 1795 003a ADB1     		cbz	r5, .L232
1129:/home/phong/Documents/thesis/stm32f4/stm-idf/components/stm32f4xx_hal_driver/stm32f4xx_hal_nor.c ****   {
 1796              		.loc 1 1129 0 is_stmt 0 discriminator 1
 1797 003c 032D     		cmp	r5, #3
 1798 003e 13D0     		beq	.L232
1132:/home/phong/Documents/thesis/stm32f4/stm-idf/components/stm32f4xx_hal_driver/stm32f4xx_hal_nor.c ****     {
 1799              		.loc 1 1132 0 is_stmt 1
 1800 0040 B6F1FF3F 		cmp	r6, #-1
 1801 0044 02D0     		beq	.L231
1134:/home/phong/Documents/thesis/stm32f4/stm-idf/components/stm32f4xx_hal_driver/stm32f4xx_hal_nor.c ****       {
 1802              		.loc 1 1134 0
 1803 0046 002E     		cmp	r6, #0
 1804 0048 E5D1     		bne	.L242
1136:/home/phong/Documents/thesis/stm32f4/stm-idf/components/stm32f4xx_hal_driver/stm32f4xx_hal_nor.c ****       } 
 1805              		.loc 1 1136 0
 1806 004a 0325     		movs	r5, #3
 1807              	.LVL155:
 1808              	.L231:
1141:/home/phong/Documents/thesis/stm32f4/stm-idf/components/stm32f4xx_hal_driver/stm32f4xx_hal_nor.c ****     tmpSR2 = *(__IO uint16_t *)Address;
 1809              		.loc 1 1141 0
 1810 004c 2288     		ldrh	r2, [r4]
 1811 004e 92B2     		uxth	r2, r2
 1812              	.LVL156:
1142:/home/phong/Documents/thesis/stm32f4/stm-idf/components/stm32f4xx_hal_driver/stm32f4xx_hal_nor.c **** 
 1813              		.loc 1 1142 0
 1814 0050 2388     		ldrh	r3, [r4]
 1815 0052 9BB2     		uxth	r3, r3
 1816              	.LVL157:
1145:/home/phong/Documents/thesis/stm32f4/stm-idf/components/stm32f4xx_hal_driver/stm32f4xx_hal_nor.c ****     {
 1817              		.loc 1 1145 0
 1818 0054 5340     		eors	r3, r3, r2
 1819              	.LVL158:
 1820 0056 13F0400F 		tst	r3, #64
 1821 005a 04D0     		beq	.L237
1150:/home/phong/Documents/thesis/stm32f4/stm-idf/components/stm32f4xx_hal_driver/stm32f4xx_hal_nor.c ****     {
 1822              		.loc 1 1150 0
 1823 005c 12F0200F 		tst	r2, #32
 1824 0060 E0D0     		beq	.L233
1152:/home/phong/Documents/thesis/stm32f4/stm-idf/components/stm32f4xx_hal_driver/stm32f4xx_hal_nor.c ****     }
 1825              		.loc 1 1152 0
 1826 0062 0125     		movs	r5, #1
 1827              	.LVL159:
 1828 0064 DEE7     		b	.L233
 1829              	.LVL160:
 1830              	.L237:
1147:/home/phong/Documents/thesis/stm32f4/stm-idf/components/stm32f4xx_hal_driver/stm32f4xx_hal_nor.c ****     }
 1831              		.loc 1 1147 0
 1832 0066 0025     		movs	r5, #0
ARM GAS  /tmp/ccYyp54X.s 			page 55


 1833              	.LVL161:
 1834              	.L232:
1164:/home/phong/Documents/thesis/stm32f4/stm-idf/components/stm32f4xx_hal_driver/stm32f4xx_hal_nor.c ****     {
1165:/home/phong/Documents/thesis/stm32f4/stm-idf/components/stm32f4xx_hal_driver/stm32f4xx_hal_nor.c ****       return HAL_NOR_STATUS_ERROR;
1166:/home/phong/Documents/thesis/stm32f4/stm-idf/components/stm32f4xx_hal_driver/stm32f4xx_hal_nor.c ****     } 
1167:/home/phong/Documents/thesis/stm32f4/stm-idf/components/stm32f4xx_hal_driver/stm32f4xx_hal_nor.c ****   }
1168:/home/phong/Documents/thesis/stm32f4/stm-idf/components/stm32f4xx_hal_driver/stm32f4xx_hal_nor.c **** 
1169:/home/phong/Documents/thesis/stm32f4/stm-idf/components/stm32f4xx_hal_driver/stm32f4xx_hal_nor.c ****   /* Return the operation status */
1170:/home/phong/Documents/thesis/stm32f4/stm-idf/components/stm32f4xx_hal_driver/stm32f4xx_hal_nor.c ****   return status;
1171:/home/phong/Documents/thesis/stm32f4/stm-idf/components/stm32f4xx_hal_driver/stm32f4xx_hal_nor.c **** }
 1835              		.loc 1 1171 0
 1836 0068 2846     		mov	r0, r5
 1837 006a F8BD     		pop	{r3, r4, r5, r6, r7, pc}
 1838              	.LVL162:
 1839              	.L239:
1161:/home/phong/Documents/thesis/stm32f4/stm-idf/components/stm32f4xx_hal_driver/stm32f4xx_hal_nor.c ****     }
 1840              		.loc 1 1161 0
 1841 006c 0025     		movs	r5, #0
 1842              	.LVL163:
 1843 006e FBE7     		b	.L232
 1844              	.LVL164:
 1845              	.L240:
1165:/home/phong/Documents/thesis/stm32f4/stm-idf/components/stm32f4xx_hal_driver/stm32f4xx_hal_nor.c ****     } 
 1846              		.loc 1 1165 0
 1847 0070 0225     		movs	r5, #2
 1848              	.LVL165:
 1849 0072 F9E7     		b	.L232
 1850              		.cfi_endproc
 1851              	.LFE147:
 1853              		.section	.bss.uwNORMemoryDataWidth,"aw",%nobits
 1854              		.align	2
 1855              		.set	.LANCHOR0,. + 0
 1858              	uwNORMemoryDataWidth:
 1859 0000 00000000 		.space	4
 1860              		.text
 1861              	.Letext0:
 1862              		.file 2 "/home/phong/Documents/thesis/stm32f4/stm-idf/components/newlib/include/machine/_default_t
 1863              		.file 3 "/home/phong/Documents/thesis/stm32f4/stm-idf/components/newlib/include/sys/_stdint.h"
 1864              		.file 4 "/home/phong/Documents/thesis/stm32f4/stm-idf/components/cmsis/include/core_cm4.h"
 1865              		.file 5 "/home/phong/Documents/thesis/stm32f4/stm-idf/components/cmsis/device/stm32/stm32f4xx/incl
 1866              		.file 6 "/home/phong/Documents/thesis/stm32f4/stm-idf/components/cmsis/device/stm32/stm32f4xx/incl
 1867              		.file 7 "/home/phong/Documents/thesis/stm32f4/stm-idf/components/stm32f4xx_hal_driver/include/stm3
 1868              		.file 8 "/home/phong/Documents/thesis/stm32f4/stm-idf/components/stm32f4xx_hal_driver/include/stm3
 1869              		.file 9 "/home/phong/Documents/thesis/stm32f4/stm-idf/components/stm32f4xx_hal_driver/include/stm3
 1870              		.file 10 "/home/phong/Documents/thesis/stm32f4/stm-idf/components/stm32f4xx_hal_driver/include/stm
ARM GAS  /tmp/ccYyp54X.s 			page 56

