ARM GAS  /tmp/ccW24XdO.s 			page 1


   1              		.cpu cortex-m4
   2              		.eabi_attribute 27, 1
   3              		.eabi_attribute 28, 1
   4              		.eabi_attribute 20, 1
   5              		.eabi_attribute 21, 1
   6              		.eabi_attribute 23, 3
   7              		.eabi_attribute 24, 1
   8              		.eabi_attribute 25, 1
   9              		.eabi_attribute 26, 1
  10              		.eabi_attribute 30, 1
  11              		.eabi_attribute 34, 1
  12              		.eabi_attribute 18, 4
  13              		.file	"stm32f4xx_hal_can.c"
  14              		.text
  15              	.Ltext0:
  16              		.cfi_sections	.debug_frame
  17              		.section	.text.HAL_CAN_MspInit,"ax",%progbits
  18              		.align	1
  19              		.weak	HAL_CAN_MspInit
  20              		.syntax unified
  21              		.thumb
  22              		.thumb_func
  23              		.fpu fpv4-sp-d16
  25              	HAL_CAN_MspInit:
  26              	.LFB132:
  27              		.file 1 "/home/phong/Documents/thesis/stm32f4/stm-idf/components/stm32f4xx_hal_driver/stm32f4xx_ha
   1:/home/phong/Documents/thesis/stm32f4/stm-idf/components/stm32f4xx_hal_driver/stm32f4xx_hal_can.c **** /**
   2:/home/phong/Documents/thesis/stm32f4/stm-idf/components/stm32f4xx_hal_driver/stm32f4xx_hal_can.c ****   ******************************************************************************
   3:/home/phong/Documents/thesis/stm32f4/stm-idf/components/stm32f4xx_hal_driver/stm32f4xx_hal_can.c ****   * @file    stm32f4xx_hal_can.c
   4:/home/phong/Documents/thesis/stm32f4/stm-idf/components/stm32f4xx_hal_driver/stm32f4xx_hal_can.c ****   * @author  MCD Application Team
   5:/home/phong/Documents/thesis/stm32f4/stm-idf/components/stm32f4xx_hal_driver/stm32f4xx_hal_can.c ****   * @brief   CAN HAL module driver.
   6:/home/phong/Documents/thesis/stm32f4/stm-idf/components/stm32f4xx_hal_driver/stm32f4xx_hal_can.c ****   *          This file provides firmware functions to manage the following
   7:/home/phong/Documents/thesis/stm32f4/stm-idf/components/stm32f4xx_hal_driver/stm32f4xx_hal_can.c ****   *          functionalities of the Controller Area Network (CAN) peripheral:
   8:/home/phong/Documents/thesis/stm32f4/stm-idf/components/stm32f4xx_hal_driver/stm32f4xx_hal_can.c ****   *           + Initialization and de-initialization functions
   9:/home/phong/Documents/thesis/stm32f4/stm-idf/components/stm32f4xx_hal_driver/stm32f4xx_hal_can.c ****   *           + Configuration functions
  10:/home/phong/Documents/thesis/stm32f4/stm-idf/components/stm32f4xx_hal_driver/stm32f4xx_hal_can.c ****   *           + Control functions
  11:/home/phong/Documents/thesis/stm32f4/stm-idf/components/stm32f4xx_hal_driver/stm32f4xx_hal_can.c ****   *           + Interrupts management
  12:/home/phong/Documents/thesis/stm32f4/stm-idf/components/stm32f4xx_hal_driver/stm32f4xx_hal_can.c ****   *           + Callbacks functions
  13:/home/phong/Documents/thesis/stm32f4/stm-idf/components/stm32f4xx_hal_driver/stm32f4xx_hal_can.c ****   *           + Peripheral State and Error functions
  14:/home/phong/Documents/thesis/stm32f4/stm-idf/components/stm32f4xx_hal_driver/stm32f4xx_hal_can.c ****   *
  15:/home/phong/Documents/thesis/stm32f4/stm-idf/components/stm32f4xx_hal_driver/stm32f4xx_hal_can.c ****   @verbatim
  16:/home/phong/Documents/thesis/stm32f4/stm-idf/components/stm32f4xx_hal_driver/stm32f4xx_hal_can.c ****   ==============================================================================
  17:/home/phong/Documents/thesis/stm32f4/stm-idf/components/stm32f4xx_hal_driver/stm32f4xx_hal_can.c ****                         ##### How to use this driver #####
  18:/home/phong/Documents/thesis/stm32f4/stm-idf/components/stm32f4xx_hal_driver/stm32f4xx_hal_can.c ****   ==============================================================================
  19:/home/phong/Documents/thesis/stm32f4/stm-idf/components/stm32f4xx_hal_driver/stm32f4xx_hal_can.c ****     [..]
  20:/home/phong/Documents/thesis/stm32f4/stm-idf/components/stm32f4xx_hal_driver/stm32f4xx_hal_can.c ****       (#) Initialize the CAN low level resources by implementing the
  21:/home/phong/Documents/thesis/stm32f4/stm-idf/components/stm32f4xx_hal_driver/stm32f4xx_hal_can.c ****           HAL_CAN_MspInit():
  22:/home/phong/Documents/thesis/stm32f4/stm-idf/components/stm32f4xx_hal_driver/stm32f4xx_hal_can.c ****          (++) Enable the CAN interface clock using __HAL_RCC_CANx_CLK_ENABLE()
  23:/home/phong/Documents/thesis/stm32f4/stm-idf/components/stm32f4xx_hal_driver/stm32f4xx_hal_can.c ****          (++) Configure CAN pins
  24:/home/phong/Documents/thesis/stm32f4/stm-idf/components/stm32f4xx_hal_driver/stm32f4xx_hal_can.c ****              (+++) Enable the clock for the CAN GPIOs
  25:/home/phong/Documents/thesis/stm32f4/stm-idf/components/stm32f4xx_hal_driver/stm32f4xx_hal_can.c ****              (+++) Configure CAN pins as alternate function open-drain
  26:/home/phong/Documents/thesis/stm32f4/stm-idf/components/stm32f4xx_hal_driver/stm32f4xx_hal_can.c ****          (++) In case of using interrupts (e.g. HAL_CAN_ActivateNotification())
  27:/home/phong/Documents/thesis/stm32f4/stm-idf/components/stm32f4xx_hal_driver/stm32f4xx_hal_can.c ****              (+++) Configure the CAN interrupt priority using
  28:/home/phong/Documents/thesis/stm32f4/stm-idf/components/stm32f4xx_hal_driver/stm32f4xx_hal_can.c ****                    HAL_NVIC_SetPriority()
  29:/home/phong/Documents/thesis/stm32f4/stm-idf/components/stm32f4xx_hal_driver/stm32f4xx_hal_can.c ****              (+++) Enable the CAN IRQ handler using HAL_NVIC_EnableIRQ()
  30:/home/phong/Documents/thesis/stm32f4/stm-idf/components/stm32f4xx_hal_driver/stm32f4xx_hal_can.c ****              (+++) In CAN IRQ handler, call HAL_CAN_IRQHandler()
  31:/home/phong/Documents/thesis/stm32f4/stm-idf/components/stm32f4xx_hal_driver/stm32f4xx_hal_can.c **** 
ARM GAS  /tmp/ccW24XdO.s 			page 2


  32:/home/phong/Documents/thesis/stm32f4/stm-idf/components/stm32f4xx_hal_driver/stm32f4xx_hal_can.c ****       (#) Initialize the CAN peripheral using HAL_CAN_Init() function. This
  33:/home/phong/Documents/thesis/stm32f4/stm-idf/components/stm32f4xx_hal_driver/stm32f4xx_hal_can.c ****           function resorts to HAL_CAN_MspInit() for low-level initialization.
  34:/home/phong/Documents/thesis/stm32f4/stm-idf/components/stm32f4xx_hal_driver/stm32f4xx_hal_can.c **** 
  35:/home/phong/Documents/thesis/stm32f4/stm-idf/components/stm32f4xx_hal_driver/stm32f4xx_hal_can.c ****       (#) Configure the reception filters using the following configuration
  36:/home/phong/Documents/thesis/stm32f4/stm-idf/components/stm32f4xx_hal_driver/stm32f4xx_hal_can.c ****           functions:
  37:/home/phong/Documents/thesis/stm32f4/stm-idf/components/stm32f4xx_hal_driver/stm32f4xx_hal_can.c ****             (++) HAL_CAN_ConfigFilter()
  38:/home/phong/Documents/thesis/stm32f4/stm-idf/components/stm32f4xx_hal_driver/stm32f4xx_hal_can.c **** 
  39:/home/phong/Documents/thesis/stm32f4/stm-idf/components/stm32f4xx_hal_driver/stm32f4xx_hal_can.c ****       (#) Start the CAN module using HAL_CAN_Start() function. At this level
  40:/home/phong/Documents/thesis/stm32f4/stm-idf/components/stm32f4xx_hal_driver/stm32f4xx_hal_can.c ****           the node is active on the bus: it receive messages, and can send
  41:/home/phong/Documents/thesis/stm32f4/stm-idf/components/stm32f4xx_hal_driver/stm32f4xx_hal_can.c ****           messages.
  42:/home/phong/Documents/thesis/stm32f4/stm-idf/components/stm32f4xx_hal_driver/stm32f4xx_hal_can.c **** 
  43:/home/phong/Documents/thesis/stm32f4/stm-idf/components/stm32f4xx_hal_driver/stm32f4xx_hal_can.c ****       (#) To manage messages transmission, the following Tx control functions
  44:/home/phong/Documents/thesis/stm32f4/stm-idf/components/stm32f4xx_hal_driver/stm32f4xx_hal_can.c ****           can be used:
  45:/home/phong/Documents/thesis/stm32f4/stm-idf/components/stm32f4xx_hal_driver/stm32f4xx_hal_can.c ****             (++) HAL_CAN_AddTxMessage() to request transmission of a new
  46:/home/phong/Documents/thesis/stm32f4/stm-idf/components/stm32f4xx_hal_driver/stm32f4xx_hal_can.c ****                  message.
  47:/home/phong/Documents/thesis/stm32f4/stm-idf/components/stm32f4xx_hal_driver/stm32f4xx_hal_can.c ****             (++) HAL_CAN_AbortTxRequest() to abort transmission of a pending
  48:/home/phong/Documents/thesis/stm32f4/stm-idf/components/stm32f4xx_hal_driver/stm32f4xx_hal_can.c ****                  message.
  49:/home/phong/Documents/thesis/stm32f4/stm-idf/components/stm32f4xx_hal_driver/stm32f4xx_hal_can.c ****             (++) HAL_CAN_GetTxMailboxesFreeLevel() to get the number of free Tx
  50:/home/phong/Documents/thesis/stm32f4/stm-idf/components/stm32f4xx_hal_driver/stm32f4xx_hal_can.c ****                  mailboxes.
  51:/home/phong/Documents/thesis/stm32f4/stm-idf/components/stm32f4xx_hal_driver/stm32f4xx_hal_can.c ****             (++) HAL_CAN_IsTxMessagePending() to check if a message is pending
  52:/home/phong/Documents/thesis/stm32f4/stm-idf/components/stm32f4xx_hal_driver/stm32f4xx_hal_can.c ****                  in a Tx mailbox.
  53:/home/phong/Documents/thesis/stm32f4/stm-idf/components/stm32f4xx_hal_driver/stm32f4xx_hal_can.c ****             (++) HAL_CAN_GetTxTimestamp() to get the timestamp of Tx message
  54:/home/phong/Documents/thesis/stm32f4/stm-idf/components/stm32f4xx_hal_driver/stm32f4xx_hal_can.c ****                  sent, if time triggered communication mode is enabled.
  55:/home/phong/Documents/thesis/stm32f4/stm-idf/components/stm32f4xx_hal_driver/stm32f4xx_hal_can.c **** 
  56:/home/phong/Documents/thesis/stm32f4/stm-idf/components/stm32f4xx_hal_driver/stm32f4xx_hal_can.c ****       (#) When a message is received into the CAN Rx FIFOs, it can be retrieved
  57:/home/phong/Documents/thesis/stm32f4/stm-idf/components/stm32f4xx_hal_driver/stm32f4xx_hal_can.c ****           using the HAL_CAN_GetRxMessage() function. The function
  58:/home/phong/Documents/thesis/stm32f4/stm-idf/components/stm32f4xx_hal_driver/stm32f4xx_hal_can.c ****           HAL_CAN_GetRxFifoFillLevel() allows to know how many Rx message are
  59:/home/phong/Documents/thesis/stm32f4/stm-idf/components/stm32f4xx_hal_driver/stm32f4xx_hal_can.c ****           stored in the Rx Fifo.
  60:/home/phong/Documents/thesis/stm32f4/stm-idf/components/stm32f4xx_hal_driver/stm32f4xx_hal_can.c **** 
  61:/home/phong/Documents/thesis/stm32f4/stm-idf/components/stm32f4xx_hal_driver/stm32f4xx_hal_can.c ****       (#) Calling the HAL_CAN_Stop() function stops the CAN module.
  62:/home/phong/Documents/thesis/stm32f4/stm-idf/components/stm32f4xx_hal_driver/stm32f4xx_hal_can.c **** 
  63:/home/phong/Documents/thesis/stm32f4/stm-idf/components/stm32f4xx_hal_driver/stm32f4xx_hal_can.c ****       (#) The deinitialization is achieved with HAL_CAN_DeInit() function.
  64:/home/phong/Documents/thesis/stm32f4/stm-idf/components/stm32f4xx_hal_driver/stm32f4xx_hal_can.c **** 
  65:/home/phong/Documents/thesis/stm32f4/stm-idf/components/stm32f4xx_hal_driver/stm32f4xx_hal_can.c **** 
  66:/home/phong/Documents/thesis/stm32f4/stm-idf/components/stm32f4xx_hal_driver/stm32f4xx_hal_can.c ****       *** Polling mode operation ***
  67:/home/phong/Documents/thesis/stm32f4/stm-idf/components/stm32f4xx_hal_driver/stm32f4xx_hal_can.c ****       ==============================
  68:/home/phong/Documents/thesis/stm32f4/stm-idf/components/stm32f4xx_hal_driver/stm32f4xx_hal_can.c ****     [..]
  69:/home/phong/Documents/thesis/stm32f4/stm-idf/components/stm32f4xx_hal_driver/stm32f4xx_hal_can.c ****       (#) Reception:
  70:/home/phong/Documents/thesis/stm32f4/stm-idf/components/stm32f4xx_hal_driver/stm32f4xx_hal_can.c ****             (++) Monitor reception of message using HAL_CAN_GetRxFifoFillLevel()
  71:/home/phong/Documents/thesis/stm32f4/stm-idf/components/stm32f4xx_hal_driver/stm32f4xx_hal_can.c ****                  until at least one message is received.
  72:/home/phong/Documents/thesis/stm32f4/stm-idf/components/stm32f4xx_hal_driver/stm32f4xx_hal_can.c ****             (++) Then get the message using HAL_CAN_GetRxMessage().
  73:/home/phong/Documents/thesis/stm32f4/stm-idf/components/stm32f4xx_hal_driver/stm32f4xx_hal_can.c **** 
  74:/home/phong/Documents/thesis/stm32f4/stm-idf/components/stm32f4xx_hal_driver/stm32f4xx_hal_can.c ****       (#) Transmission:
  75:/home/phong/Documents/thesis/stm32f4/stm-idf/components/stm32f4xx_hal_driver/stm32f4xx_hal_can.c ****             (++) Monitor the Tx mailboxes availability until at least one Tx
  76:/home/phong/Documents/thesis/stm32f4/stm-idf/components/stm32f4xx_hal_driver/stm32f4xx_hal_can.c ****                  mailbox is free, using HAL_CAN_GetTxMailboxesFreeLevel().
  77:/home/phong/Documents/thesis/stm32f4/stm-idf/components/stm32f4xx_hal_driver/stm32f4xx_hal_can.c ****             (++) Then request transmission of a message using
  78:/home/phong/Documents/thesis/stm32f4/stm-idf/components/stm32f4xx_hal_driver/stm32f4xx_hal_can.c ****                  HAL_CAN_AddTxMessage().
  79:/home/phong/Documents/thesis/stm32f4/stm-idf/components/stm32f4xx_hal_driver/stm32f4xx_hal_can.c **** 
  80:/home/phong/Documents/thesis/stm32f4/stm-idf/components/stm32f4xx_hal_driver/stm32f4xx_hal_can.c **** 
  81:/home/phong/Documents/thesis/stm32f4/stm-idf/components/stm32f4xx_hal_driver/stm32f4xx_hal_can.c ****       *** Interrupt mode operation ***
  82:/home/phong/Documents/thesis/stm32f4/stm-idf/components/stm32f4xx_hal_driver/stm32f4xx_hal_can.c ****       ================================
  83:/home/phong/Documents/thesis/stm32f4/stm-idf/components/stm32f4xx_hal_driver/stm32f4xx_hal_can.c ****     [..]
  84:/home/phong/Documents/thesis/stm32f4/stm-idf/components/stm32f4xx_hal_driver/stm32f4xx_hal_can.c ****       (#) Notifications are activated using HAL_CAN_ActivateNotification()
  85:/home/phong/Documents/thesis/stm32f4/stm-idf/components/stm32f4xx_hal_driver/stm32f4xx_hal_can.c ****           function. Then, the process can be controlled through the
  86:/home/phong/Documents/thesis/stm32f4/stm-idf/components/stm32f4xx_hal_driver/stm32f4xx_hal_can.c ****           available user callbacks: HAL_CAN_xxxCallback(), using same APIs
  87:/home/phong/Documents/thesis/stm32f4/stm-idf/components/stm32f4xx_hal_driver/stm32f4xx_hal_can.c ****           HAL_CAN_GetRxMessage() and HAL_CAN_AddTxMessage().
  88:/home/phong/Documents/thesis/stm32f4/stm-idf/components/stm32f4xx_hal_driver/stm32f4xx_hal_can.c **** 
ARM GAS  /tmp/ccW24XdO.s 			page 3


  89:/home/phong/Documents/thesis/stm32f4/stm-idf/components/stm32f4xx_hal_driver/stm32f4xx_hal_can.c ****       (#) Notifications can be deactivated using
  90:/home/phong/Documents/thesis/stm32f4/stm-idf/components/stm32f4xx_hal_driver/stm32f4xx_hal_can.c ****           HAL_CAN_DeactivateNotification() function.
  91:/home/phong/Documents/thesis/stm32f4/stm-idf/components/stm32f4xx_hal_driver/stm32f4xx_hal_can.c **** 
  92:/home/phong/Documents/thesis/stm32f4/stm-idf/components/stm32f4xx_hal_driver/stm32f4xx_hal_can.c ****       (#) Special care should be taken for CAN_IT_RX_FIFO0_MSG_PENDING and
  93:/home/phong/Documents/thesis/stm32f4/stm-idf/components/stm32f4xx_hal_driver/stm32f4xx_hal_can.c ****           CAN_IT_RX_FIFO1_MSG_PENDING notifications. These notifications trig
  94:/home/phong/Documents/thesis/stm32f4/stm-idf/components/stm32f4xx_hal_driver/stm32f4xx_hal_can.c ****           the callbacks HAL_CAN_RxFIFO0MsgPendingCallback() and
  95:/home/phong/Documents/thesis/stm32f4/stm-idf/components/stm32f4xx_hal_driver/stm32f4xx_hal_can.c ****           HAL_CAN_RxFIFO1MsgPendingCallback(). User has two possible options
  96:/home/phong/Documents/thesis/stm32f4/stm-idf/components/stm32f4xx_hal_driver/stm32f4xx_hal_can.c ****           here.
  97:/home/phong/Documents/thesis/stm32f4/stm-idf/components/stm32f4xx_hal_driver/stm32f4xx_hal_can.c ****             (++) Directly get the Rx message in the callback, using
  98:/home/phong/Documents/thesis/stm32f4/stm-idf/components/stm32f4xx_hal_driver/stm32f4xx_hal_can.c ****                  HAL_CAN_GetRxMessage().
  99:/home/phong/Documents/thesis/stm32f4/stm-idf/components/stm32f4xx_hal_driver/stm32f4xx_hal_can.c ****             (++) Or deactivate the notification in the callback without
 100:/home/phong/Documents/thesis/stm32f4/stm-idf/components/stm32f4xx_hal_driver/stm32f4xx_hal_can.c ****                  getting the Rx message. The Rx message can then be got later
 101:/home/phong/Documents/thesis/stm32f4/stm-idf/components/stm32f4xx_hal_driver/stm32f4xx_hal_can.c ****                  using HAL_CAN_GetRxMessage(). Once the Rx message have been
 102:/home/phong/Documents/thesis/stm32f4/stm-idf/components/stm32f4xx_hal_driver/stm32f4xx_hal_can.c ****                  read, the notification can be activated again.
 103:/home/phong/Documents/thesis/stm32f4/stm-idf/components/stm32f4xx_hal_driver/stm32f4xx_hal_can.c **** 
 104:/home/phong/Documents/thesis/stm32f4/stm-idf/components/stm32f4xx_hal_driver/stm32f4xx_hal_can.c **** 
 105:/home/phong/Documents/thesis/stm32f4/stm-idf/components/stm32f4xx_hal_driver/stm32f4xx_hal_can.c ****       *** Sleep mode ***
 106:/home/phong/Documents/thesis/stm32f4/stm-idf/components/stm32f4xx_hal_driver/stm32f4xx_hal_can.c ****       ==================
 107:/home/phong/Documents/thesis/stm32f4/stm-idf/components/stm32f4xx_hal_driver/stm32f4xx_hal_can.c ****     [..]
 108:/home/phong/Documents/thesis/stm32f4/stm-idf/components/stm32f4xx_hal_driver/stm32f4xx_hal_can.c ****       (#) The CAN peripheral can be put in sleep mode (low power), using
 109:/home/phong/Documents/thesis/stm32f4/stm-idf/components/stm32f4xx_hal_driver/stm32f4xx_hal_can.c ****           HAL_CAN_RequestSleep(). The sleep mode will be entered as soon as the
 110:/home/phong/Documents/thesis/stm32f4/stm-idf/components/stm32f4xx_hal_driver/stm32f4xx_hal_can.c ****           current CAN activity (transmission or reception of a CAN frame) will
 111:/home/phong/Documents/thesis/stm32f4/stm-idf/components/stm32f4xx_hal_driver/stm32f4xx_hal_can.c ****           be completed.
 112:/home/phong/Documents/thesis/stm32f4/stm-idf/components/stm32f4xx_hal_driver/stm32f4xx_hal_can.c **** 
 113:/home/phong/Documents/thesis/stm32f4/stm-idf/components/stm32f4xx_hal_driver/stm32f4xx_hal_can.c ****       (#) A notification can be activated to be informed when the sleep mode
 114:/home/phong/Documents/thesis/stm32f4/stm-idf/components/stm32f4xx_hal_driver/stm32f4xx_hal_can.c ****           will be entered.
 115:/home/phong/Documents/thesis/stm32f4/stm-idf/components/stm32f4xx_hal_driver/stm32f4xx_hal_can.c **** 
 116:/home/phong/Documents/thesis/stm32f4/stm-idf/components/stm32f4xx_hal_driver/stm32f4xx_hal_can.c ****       (#) It can be checked if the sleep mode is entered using
 117:/home/phong/Documents/thesis/stm32f4/stm-idf/components/stm32f4xx_hal_driver/stm32f4xx_hal_can.c ****           HAL_CAN_IsSleepActive().
 118:/home/phong/Documents/thesis/stm32f4/stm-idf/components/stm32f4xx_hal_driver/stm32f4xx_hal_can.c ****           Note that the CAN state (accessible from the API HAL_CAN_GetState())
 119:/home/phong/Documents/thesis/stm32f4/stm-idf/components/stm32f4xx_hal_driver/stm32f4xx_hal_can.c ****           is HAL_CAN_STATE_SLEEP_PENDING as soon as the sleep mode request is
 120:/home/phong/Documents/thesis/stm32f4/stm-idf/components/stm32f4xx_hal_driver/stm32f4xx_hal_can.c ****           submitted (the sleep mode is not yet entered), and become
 121:/home/phong/Documents/thesis/stm32f4/stm-idf/components/stm32f4xx_hal_driver/stm32f4xx_hal_can.c ****           HAL_CAN_STATE_SLEEP_ACTIVE when the sleep mode is effective.
 122:/home/phong/Documents/thesis/stm32f4/stm-idf/components/stm32f4xx_hal_driver/stm32f4xx_hal_can.c **** 
 123:/home/phong/Documents/thesis/stm32f4/stm-idf/components/stm32f4xx_hal_driver/stm32f4xx_hal_can.c ****       (#) The wake-up from sleep mode can be trigged by two ways:
 124:/home/phong/Documents/thesis/stm32f4/stm-idf/components/stm32f4xx_hal_driver/stm32f4xx_hal_can.c ****             (++) Using HAL_CAN_WakeUp(). When returning from this function,
 125:/home/phong/Documents/thesis/stm32f4/stm-idf/components/stm32f4xx_hal_driver/stm32f4xx_hal_can.c ****                  the sleep mode is exited (if return status is HAL_OK).
 126:/home/phong/Documents/thesis/stm32f4/stm-idf/components/stm32f4xx_hal_driver/stm32f4xx_hal_can.c ****             (++) When a start of Rx CAN frame is detected by the CAN peripheral,
 127:/home/phong/Documents/thesis/stm32f4/stm-idf/components/stm32f4xx_hal_driver/stm32f4xx_hal_can.c ****                  if automatic wake up mode is enabled.
 128:/home/phong/Documents/thesis/stm32f4/stm-idf/components/stm32f4xx_hal_driver/stm32f4xx_hal_can.c **** 
 129:/home/phong/Documents/thesis/stm32f4/stm-idf/components/stm32f4xx_hal_driver/stm32f4xx_hal_can.c ****   *** Callback registration ***
 130:/home/phong/Documents/thesis/stm32f4/stm-idf/components/stm32f4xx_hal_driver/stm32f4xx_hal_can.c ****   =============================================
 131:/home/phong/Documents/thesis/stm32f4/stm-idf/components/stm32f4xx_hal_driver/stm32f4xx_hal_can.c **** 
 132:/home/phong/Documents/thesis/stm32f4/stm-idf/components/stm32f4xx_hal_driver/stm32f4xx_hal_can.c ****   The compilation define  USE_HAL_CAN_REGISTER_CALLBACKS when set to 1
 133:/home/phong/Documents/thesis/stm32f4/stm-idf/components/stm32f4xx_hal_driver/stm32f4xx_hal_can.c ****   allows the user to configure dynamically the driver callbacks.
 134:/home/phong/Documents/thesis/stm32f4/stm-idf/components/stm32f4xx_hal_driver/stm32f4xx_hal_can.c ****   Use Function @ref HAL_CAN_RegisterCallback() to register an interrupt callback.
 135:/home/phong/Documents/thesis/stm32f4/stm-idf/components/stm32f4xx_hal_driver/stm32f4xx_hal_can.c **** 
 136:/home/phong/Documents/thesis/stm32f4/stm-idf/components/stm32f4xx_hal_driver/stm32f4xx_hal_can.c ****   Function @ref HAL_CAN_RegisterCallback() allows to register following callbacks:
 137:/home/phong/Documents/thesis/stm32f4/stm-idf/components/stm32f4xx_hal_driver/stm32f4xx_hal_can.c ****     (+) TxMailbox0CompleteCallback   : Tx Mailbox 0 Complete Callback.
 138:/home/phong/Documents/thesis/stm32f4/stm-idf/components/stm32f4xx_hal_driver/stm32f4xx_hal_can.c ****     (+) TxMailbox1CompleteCallback   : Tx Mailbox 1 Complete Callback.
 139:/home/phong/Documents/thesis/stm32f4/stm-idf/components/stm32f4xx_hal_driver/stm32f4xx_hal_can.c ****     (+) TxMailbox2CompleteCallback   : Tx Mailbox 2 Complete Callback.
 140:/home/phong/Documents/thesis/stm32f4/stm-idf/components/stm32f4xx_hal_driver/stm32f4xx_hal_can.c ****     (+) TxMailbox0AbortCallback      : Tx Mailbox 0 Abort Callback.
 141:/home/phong/Documents/thesis/stm32f4/stm-idf/components/stm32f4xx_hal_driver/stm32f4xx_hal_can.c ****     (+) TxMailbox1AbortCallback      : Tx Mailbox 1 Abort Callback.
 142:/home/phong/Documents/thesis/stm32f4/stm-idf/components/stm32f4xx_hal_driver/stm32f4xx_hal_can.c ****     (+) TxMailbox2AbortCallback      : Tx Mailbox 2 Abort Callback.
 143:/home/phong/Documents/thesis/stm32f4/stm-idf/components/stm32f4xx_hal_driver/stm32f4xx_hal_can.c ****     (+) RxFifo0MsgPendingCallback    : Rx Fifo 0 Message Pending Callback.
 144:/home/phong/Documents/thesis/stm32f4/stm-idf/components/stm32f4xx_hal_driver/stm32f4xx_hal_can.c ****     (+) RxFifo0FullCallback          : Rx Fifo 0 Full Callback.
 145:/home/phong/Documents/thesis/stm32f4/stm-idf/components/stm32f4xx_hal_driver/stm32f4xx_hal_can.c ****     (+) RxFifo1MsgPendingCallback    : Rx Fifo 1 Message Pending Callback.
ARM GAS  /tmp/ccW24XdO.s 			page 4


 146:/home/phong/Documents/thesis/stm32f4/stm-idf/components/stm32f4xx_hal_driver/stm32f4xx_hal_can.c ****     (+) RxFifo1FullCallback          : Rx Fifo 1 Full Callback.
 147:/home/phong/Documents/thesis/stm32f4/stm-idf/components/stm32f4xx_hal_driver/stm32f4xx_hal_can.c ****     (+) SleepCallback                : Sleep Callback.
 148:/home/phong/Documents/thesis/stm32f4/stm-idf/components/stm32f4xx_hal_driver/stm32f4xx_hal_can.c ****     (+) WakeUpFromRxMsgCallback      : Wake Up From Rx Message Callback.
 149:/home/phong/Documents/thesis/stm32f4/stm-idf/components/stm32f4xx_hal_driver/stm32f4xx_hal_can.c ****     (+) ErrorCallback                : Error Callback.
 150:/home/phong/Documents/thesis/stm32f4/stm-idf/components/stm32f4xx_hal_driver/stm32f4xx_hal_can.c ****     (+) MspInitCallback              : CAN MspInit.
 151:/home/phong/Documents/thesis/stm32f4/stm-idf/components/stm32f4xx_hal_driver/stm32f4xx_hal_can.c ****     (+) MspDeInitCallback            : CAN MspDeInit.
 152:/home/phong/Documents/thesis/stm32f4/stm-idf/components/stm32f4xx_hal_driver/stm32f4xx_hal_can.c ****   This function takes as parameters the HAL peripheral handle, the Callback ID
 153:/home/phong/Documents/thesis/stm32f4/stm-idf/components/stm32f4xx_hal_driver/stm32f4xx_hal_can.c ****   and a pointer to the user callback function.
 154:/home/phong/Documents/thesis/stm32f4/stm-idf/components/stm32f4xx_hal_driver/stm32f4xx_hal_can.c **** 
 155:/home/phong/Documents/thesis/stm32f4/stm-idf/components/stm32f4xx_hal_driver/stm32f4xx_hal_can.c ****   Use function @ref HAL_CAN_UnRegisterCallback() to reset a callback to the default
 156:/home/phong/Documents/thesis/stm32f4/stm-idf/components/stm32f4xx_hal_driver/stm32f4xx_hal_can.c ****   weak function.
 157:/home/phong/Documents/thesis/stm32f4/stm-idf/components/stm32f4xx_hal_driver/stm32f4xx_hal_can.c ****   @ref HAL_CAN_UnRegisterCallback takes as parameters the HAL peripheral handle,
 158:/home/phong/Documents/thesis/stm32f4/stm-idf/components/stm32f4xx_hal_driver/stm32f4xx_hal_can.c ****   and the Callback ID.
 159:/home/phong/Documents/thesis/stm32f4/stm-idf/components/stm32f4xx_hal_driver/stm32f4xx_hal_can.c ****   This function allows to reset following callbacks:
 160:/home/phong/Documents/thesis/stm32f4/stm-idf/components/stm32f4xx_hal_driver/stm32f4xx_hal_can.c ****     (+) TxMailbox0CompleteCallback   : Tx Mailbox 0 Complete Callback.
 161:/home/phong/Documents/thesis/stm32f4/stm-idf/components/stm32f4xx_hal_driver/stm32f4xx_hal_can.c ****     (+) TxMailbox1CompleteCallback   : Tx Mailbox 1 Complete Callback.
 162:/home/phong/Documents/thesis/stm32f4/stm-idf/components/stm32f4xx_hal_driver/stm32f4xx_hal_can.c ****     (+) TxMailbox2CompleteCallback   : Tx Mailbox 2 Complete Callback.
 163:/home/phong/Documents/thesis/stm32f4/stm-idf/components/stm32f4xx_hal_driver/stm32f4xx_hal_can.c ****     (+) TxMailbox0AbortCallback      : Tx Mailbox 0 Abort Callback.
 164:/home/phong/Documents/thesis/stm32f4/stm-idf/components/stm32f4xx_hal_driver/stm32f4xx_hal_can.c ****     (+) TxMailbox1AbortCallback      : Tx Mailbox 1 Abort Callback.
 165:/home/phong/Documents/thesis/stm32f4/stm-idf/components/stm32f4xx_hal_driver/stm32f4xx_hal_can.c ****     (+) TxMailbox2AbortCallback      : Tx Mailbox 2 Abort Callback.
 166:/home/phong/Documents/thesis/stm32f4/stm-idf/components/stm32f4xx_hal_driver/stm32f4xx_hal_can.c ****     (+) RxFifo0MsgPendingCallback    : Rx Fifo 0 Message Pending Callback.
 167:/home/phong/Documents/thesis/stm32f4/stm-idf/components/stm32f4xx_hal_driver/stm32f4xx_hal_can.c ****     (+) RxFifo0FullCallback          : Rx Fifo 0 Full Callback.
 168:/home/phong/Documents/thesis/stm32f4/stm-idf/components/stm32f4xx_hal_driver/stm32f4xx_hal_can.c ****     (+) RxFifo1MsgPendingCallback    : Rx Fifo 1 Message Pending Callback.
 169:/home/phong/Documents/thesis/stm32f4/stm-idf/components/stm32f4xx_hal_driver/stm32f4xx_hal_can.c ****     (+) RxFifo1FullCallback          : Rx Fifo 1 Full Callback.
 170:/home/phong/Documents/thesis/stm32f4/stm-idf/components/stm32f4xx_hal_driver/stm32f4xx_hal_can.c ****     (+) SleepCallback                : Sleep Callback.
 171:/home/phong/Documents/thesis/stm32f4/stm-idf/components/stm32f4xx_hal_driver/stm32f4xx_hal_can.c ****     (+) WakeUpFromRxMsgCallback      : Wake Up From Rx Message Callback.
 172:/home/phong/Documents/thesis/stm32f4/stm-idf/components/stm32f4xx_hal_driver/stm32f4xx_hal_can.c ****     (+) ErrorCallback                : Error Callback.
 173:/home/phong/Documents/thesis/stm32f4/stm-idf/components/stm32f4xx_hal_driver/stm32f4xx_hal_can.c ****     (+) MspInitCallback              : CAN MspInit.
 174:/home/phong/Documents/thesis/stm32f4/stm-idf/components/stm32f4xx_hal_driver/stm32f4xx_hal_can.c ****     (+) MspDeInitCallback            : CAN MspDeInit.
 175:/home/phong/Documents/thesis/stm32f4/stm-idf/components/stm32f4xx_hal_driver/stm32f4xx_hal_can.c **** 
 176:/home/phong/Documents/thesis/stm32f4/stm-idf/components/stm32f4xx_hal_driver/stm32f4xx_hal_can.c ****   By default, after the @ref HAL_CAN_Init() and when the state is HAL_CAN_STATE_RESET,
 177:/home/phong/Documents/thesis/stm32f4/stm-idf/components/stm32f4xx_hal_driver/stm32f4xx_hal_can.c ****   all callbacks are set to the corresponding weak functions:
 178:/home/phong/Documents/thesis/stm32f4/stm-idf/components/stm32f4xx_hal_driver/stm32f4xx_hal_can.c ****   example @ref HAL_CAN_ErrorCallback().
 179:/home/phong/Documents/thesis/stm32f4/stm-idf/components/stm32f4xx_hal_driver/stm32f4xx_hal_can.c ****   Exception done for MspInit and MspDeInit functions that are
 180:/home/phong/Documents/thesis/stm32f4/stm-idf/components/stm32f4xx_hal_driver/stm32f4xx_hal_can.c ****   reset to the legacy weak function in the @ref HAL_CAN_Init()/ @ref HAL_CAN_DeInit() only when
 181:/home/phong/Documents/thesis/stm32f4/stm-idf/components/stm32f4xx_hal_driver/stm32f4xx_hal_can.c ****   these callbacks are null (not registered beforehand).
 182:/home/phong/Documents/thesis/stm32f4/stm-idf/components/stm32f4xx_hal_driver/stm32f4xx_hal_can.c ****   if not, MspInit or MspDeInit are not null, the @ref HAL_CAN_Init()/ @ref HAL_CAN_DeInit()
 183:/home/phong/Documents/thesis/stm32f4/stm-idf/components/stm32f4xx_hal_driver/stm32f4xx_hal_can.c ****   keep and use the user MspInit/MspDeInit callbacks (registered beforehand)
 184:/home/phong/Documents/thesis/stm32f4/stm-idf/components/stm32f4xx_hal_driver/stm32f4xx_hal_can.c **** 
 185:/home/phong/Documents/thesis/stm32f4/stm-idf/components/stm32f4xx_hal_driver/stm32f4xx_hal_can.c ****   Callbacks can be registered/unregistered in HAL_CAN_STATE_READY state only.
 186:/home/phong/Documents/thesis/stm32f4/stm-idf/components/stm32f4xx_hal_driver/stm32f4xx_hal_can.c ****   Exception done MspInit/MspDeInit that can be registered/unregistered
 187:/home/phong/Documents/thesis/stm32f4/stm-idf/components/stm32f4xx_hal_driver/stm32f4xx_hal_can.c ****   in HAL_CAN_STATE_READY or HAL_CAN_STATE_RESET state,
 188:/home/phong/Documents/thesis/stm32f4/stm-idf/components/stm32f4xx_hal_driver/stm32f4xx_hal_can.c ****   thus registered (user) MspInit/DeInit callbacks can be used during the Init/DeInit.
 189:/home/phong/Documents/thesis/stm32f4/stm-idf/components/stm32f4xx_hal_driver/stm32f4xx_hal_can.c ****   In that case first register the MspInit/MspDeInit user callbacks
 190:/home/phong/Documents/thesis/stm32f4/stm-idf/components/stm32f4xx_hal_driver/stm32f4xx_hal_can.c ****   using @ref HAL_CAN_RegisterCallback() before calling @ref HAL_CAN_DeInit()
 191:/home/phong/Documents/thesis/stm32f4/stm-idf/components/stm32f4xx_hal_driver/stm32f4xx_hal_can.c ****   or @ref HAL_CAN_Init() function.
 192:/home/phong/Documents/thesis/stm32f4/stm-idf/components/stm32f4xx_hal_driver/stm32f4xx_hal_can.c **** 
 193:/home/phong/Documents/thesis/stm32f4/stm-idf/components/stm32f4xx_hal_driver/stm32f4xx_hal_can.c ****   When The compilation define USE_HAL_CAN_REGISTER_CALLBACKS is set to 0 or
 194:/home/phong/Documents/thesis/stm32f4/stm-idf/components/stm32f4xx_hal_driver/stm32f4xx_hal_can.c ****   not defined, the callback registration feature is not available and all callbacks
 195:/home/phong/Documents/thesis/stm32f4/stm-idf/components/stm32f4xx_hal_driver/stm32f4xx_hal_can.c ****   are set to the corresponding weak functions.
 196:/home/phong/Documents/thesis/stm32f4/stm-idf/components/stm32f4xx_hal_driver/stm32f4xx_hal_can.c **** 
 197:/home/phong/Documents/thesis/stm32f4/stm-idf/components/stm32f4xx_hal_driver/stm32f4xx_hal_can.c ****   @endverbatim
 198:/home/phong/Documents/thesis/stm32f4/stm-idf/components/stm32f4xx_hal_driver/stm32f4xx_hal_can.c ****   ******************************************************************************
 199:/home/phong/Documents/thesis/stm32f4/stm-idf/components/stm32f4xx_hal_driver/stm32f4xx_hal_can.c ****   * @attention
 200:/home/phong/Documents/thesis/stm32f4/stm-idf/components/stm32f4xx_hal_driver/stm32f4xx_hal_can.c ****   *
 201:/home/phong/Documents/thesis/stm32f4/stm-idf/components/stm32f4xx_hal_driver/stm32f4xx_hal_can.c ****   * <h2><center>&copy; Copyright (c) 2016 STMicroelectronics.
 202:/home/phong/Documents/thesis/stm32f4/stm-idf/components/stm32f4xx_hal_driver/stm32f4xx_hal_can.c ****   * All rights reserved.</center></h2>
ARM GAS  /tmp/ccW24XdO.s 			page 5


 203:/home/phong/Documents/thesis/stm32f4/stm-idf/components/stm32f4xx_hal_driver/stm32f4xx_hal_can.c ****   *
 204:/home/phong/Documents/thesis/stm32f4/stm-idf/components/stm32f4xx_hal_driver/stm32f4xx_hal_can.c ****   * This software component is licensed by ST under BSD 3-Clause license,
 205:/home/phong/Documents/thesis/stm32f4/stm-idf/components/stm32f4xx_hal_driver/stm32f4xx_hal_can.c ****   * the "License"; You may not use this file except in compliance with the
 206:/home/phong/Documents/thesis/stm32f4/stm-idf/components/stm32f4xx_hal_driver/stm32f4xx_hal_can.c ****   * License. You may obtain a copy of the License at:
 207:/home/phong/Documents/thesis/stm32f4/stm-idf/components/stm32f4xx_hal_driver/stm32f4xx_hal_can.c ****   *                        opensource.org/licenses/BSD-3-Clause
 208:/home/phong/Documents/thesis/stm32f4/stm-idf/components/stm32f4xx_hal_driver/stm32f4xx_hal_can.c ****   *
 209:/home/phong/Documents/thesis/stm32f4/stm-idf/components/stm32f4xx_hal_driver/stm32f4xx_hal_can.c ****   ******************************************************************************
 210:/home/phong/Documents/thesis/stm32f4/stm-idf/components/stm32f4xx_hal_driver/stm32f4xx_hal_can.c ****   */
 211:/home/phong/Documents/thesis/stm32f4/stm-idf/components/stm32f4xx_hal_driver/stm32f4xx_hal_can.c **** 
 212:/home/phong/Documents/thesis/stm32f4/stm-idf/components/stm32f4xx_hal_driver/stm32f4xx_hal_can.c **** /* Includes ------------------------------------------------------------------*/
 213:/home/phong/Documents/thesis/stm32f4/stm-idf/components/stm32f4xx_hal_driver/stm32f4xx_hal_can.c **** #include "stm32f4xx_hal.h"
 214:/home/phong/Documents/thesis/stm32f4/stm-idf/components/stm32f4xx_hal_driver/stm32f4xx_hal_can.c **** 
 215:/home/phong/Documents/thesis/stm32f4/stm-idf/components/stm32f4xx_hal_driver/stm32f4xx_hal_can.c **** /** @addtogroup STM32F4xx_HAL_Driver
 216:/home/phong/Documents/thesis/stm32f4/stm-idf/components/stm32f4xx_hal_driver/stm32f4xx_hal_can.c ****   * @{
 217:/home/phong/Documents/thesis/stm32f4/stm-idf/components/stm32f4xx_hal_driver/stm32f4xx_hal_can.c ****   */
 218:/home/phong/Documents/thesis/stm32f4/stm-idf/components/stm32f4xx_hal_driver/stm32f4xx_hal_can.c **** 
 219:/home/phong/Documents/thesis/stm32f4/stm-idf/components/stm32f4xx_hal_driver/stm32f4xx_hal_can.c **** #if defined(CAN1)
 220:/home/phong/Documents/thesis/stm32f4/stm-idf/components/stm32f4xx_hal_driver/stm32f4xx_hal_can.c **** 
 221:/home/phong/Documents/thesis/stm32f4/stm-idf/components/stm32f4xx_hal_driver/stm32f4xx_hal_can.c **** /** @defgroup CAN CAN
 222:/home/phong/Documents/thesis/stm32f4/stm-idf/components/stm32f4xx_hal_driver/stm32f4xx_hal_can.c ****   * @brief CAN driver modules
 223:/home/phong/Documents/thesis/stm32f4/stm-idf/components/stm32f4xx_hal_driver/stm32f4xx_hal_can.c ****   * @{
 224:/home/phong/Documents/thesis/stm32f4/stm-idf/components/stm32f4xx_hal_driver/stm32f4xx_hal_can.c ****   */
 225:/home/phong/Documents/thesis/stm32f4/stm-idf/components/stm32f4xx_hal_driver/stm32f4xx_hal_can.c **** 
 226:/home/phong/Documents/thesis/stm32f4/stm-idf/components/stm32f4xx_hal_driver/stm32f4xx_hal_can.c **** #ifdef HAL_CAN_MODULE_ENABLED
 227:/home/phong/Documents/thesis/stm32f4/stm-idf/components/stm32f4xx_hal_driver/stm32f4xx_hal_can.c **** 
 228:/home/phong/Documents/thesis/stm32f4/stm-idf/components/stm32f4xx_hal_driver/stm32f4xx_hal_can.c **** #ifdef HAL_CAN_LEGACY_MODULE_ENABLED
 229:/home/phong/Documents/thesis/stm32f4/stm-idf/components/stm32f4xx_hal_driver/stm32f4xx_hal_can.c ****   #error "The CAN driver cannot be used with its legacy, Please enable only one CAN module at once"
 230:/home/phong/Documents/thesis/stm32f4/stm-idf/components/stm32f4xx_hal_driver/stm32f4xx_hal_can.c **** #endif
 231:/home/phong/Documents/thesis/stm32f4/stm-idf/components/stm32f4xx_hal_driver/stm32f4xx_hal_can.c **** 
 232:/home/phong/Documents/thesis/stm32f4/stm-idf/components/stm32f4xx_hal_driver/stm32f4xx_hal_can.c **** /* Private typedef -----------------------------------------------------------*/
 233:/home/phong/Documents/thesis/stm32f4/stm-idf/components/stm32f4xx_hal_driver/stm32f4xx_hal_can.c **** /* Private define ------------------------------------------------------------*/
 234:/home/phong/Documents/thesis/stm32f4/stm-idf/components/stm32f4xx_hal_driver/stm32f4xx_hal_can.c **** /** @defgroup CAN_Private_Constants CAN Private Constants
 235:/home/phong/Documents/thesis/stm32f4/stm-idf/components/stm32f4xx_hal_driver/stm32f4xx_hal_can.c ****   * @{
 236:/home/phong/Documents/thesis/stm32f4/stm-idf/components/stm32f4xx_hal_driver/stm32f4xx_hal_can.c ****   */
 237:/home/phong/Documents/thesis/stm32f4/stm-idf/components/stm32f4xx_hal_driver/stm32f4xx_hal_can.c **** #define CAN_TIMEOUT_VALUE 10U
 238:/home/phong/Documents/thesis/stm32f4/stm-idf/components/stm32f4xx_hal_driver/stm32f4xx_hal_can.c **** /**
 239:/home/phong/Documents/thesis/stm32f4/stm-idf/components/stm32f4xx_hal_driver/stm32f4xx_hal_can.c ****   * @}
 240:/home/phong/Documents/thesis/stm32f4/stm-idf/components/stm32f4xx_hal_driver/stm32f4xx_hal_can.c ****   */
 241:/home/phong/Documents/thesis/stm32f4/stm-idf/components/stm32f4xx_hal_driver/stm32f4xx_hal_can.c **** /* Private macro -------------------------------------------------------------*/
 242:/home/phong/Documents/thesis/stm32f4/stm-idf/components/stm32f4xx_hal_driver/stm32f4xx_hal_can.c **** /* Private variables ---------------------------------------------------------*/
 243:/home/phong/Documents/thesis/stm32f4/stm-idf/components/stm32f4xx_hal_driver/stm32f4xx_hal_can.c **** /* Private function prototypes -----------------------------------------------*/
 244:/home/phong/Documents/thesis/stm32f4/stm-idf/components/stm32f4xx_hal_driver/stm32f4xx_hal_can.c **** /* Exported functions --------------------------------------------------------*/
 245:/home/phong/Documents/thesis/stm32f4/stm-idf/components/stm32f4xx_hal_driver/stm32f4xx_hal_can.c **** 
 246:/home/phong/Documents/thesis/stm32f4/stm-idf/components/stm32f4xx_hal_driver/stm32f4xx_hal_can.c **** /** @defgroup CAN_Exported_Functions CAN Exported Functions
 247:/home/phong/Documents/thesis/stm32f4/stm-idf/components/stm32f4xx_hal_driver/stm32f4xx_hal_can.c ****   * @{
 248:/home/phong/Documents/thesis/stm32f4/stm-idf/components/stm32f4xx_hal_driver/stm32f4xx_hal_can.c ****   */
 249:/home/phong/Documents/thesis/stm32f4/stm-idf/components/stm32f4xx_hal_driver/stm32f4xx_hal_can.c **** 
 250:/home/phong/Documents/thesis/stm32f4/stm-idf/components/stm32f4xx_hal_driver/stm32f4xx_hal_can.c **** /** @defgroup CAN_Exported_Functions_Group1 Initialization and de-initialization functions
 251:/home/phong/Documents/thesis/stm32f4/stm-idf/components/stm32f4xx_hal_driver/stm32f4xx_hal_can.c ****  *  @brief    Initialization and Configuration functions
 252:/home/phong/Documents/thesis/stm32f4/stm-idf/components/stm32f4xx_hal_driver/stm32f4xx_hal_can.c ****  *
 253:/home/phong/Documents/thesis/stm32f4/stm-idf/components/stm32f4xx_hal_driver/stm32f4xx_hal_can.c **** @verbatim
 254:/home/phong/Documents/thesis/stm32f4/stm-idf/components/stm32f4xx_hal_driver/stm32f4xx_hal_can.c ****   ==============================================================================
 255:/home/phong/Documents/thesis/stm32f4/stm-idf/components/stm32f4xx_hal_driver/stm32f4xx_hal_can.c ****               ##### Initialization and de-initialization functions #####
 256:/home/phong/Documents/thesis/stm32f4/stm-idf/components/stm32f4xx_hal_driver/stm32f4xx_hal_can.c ****   ==============================================================================
 257:/home/phong/Documents/thesis/stm32f4/stm-idf/components/stm32f4xx_hal_driver/stm32f4xx_hal_can.c ****     [..]  This section provides functions allowing to:
 258:/home/phong/Documents/thesis/stm32f4/stm-idf/components/stm32f4xx_hal_driver/stm32f4xx_hal_can.c ****       (+) HAL_CAN_Init                       : Initialize and configure the CAN.
 259:/home/phong/Documents/thesis/stm32f4/stm-idf/components/stm32f4xx_hal_driver/stm32f4xx_hal_can.c ****       (+) HAL_CAN_DeInit                     : De-initialize the CAN.
ARM GAS  /tmp/ccW24XdO.s 			page 6


 260:/home/phong/Documents/thesis/stm32f4/stm-idf/components/stm32f4xx_hal_driver/stm32f4xx_hal_can.c ****       (+) HAL_CAN_MspInit                    : Initialize the CAN MSP.
 261:/home/phong/Documents/thesis/stm32f4/stm-idf/components/stm32f4xx_hal_driver/stm32f4xx_hal_can.c ****       (+) HAL_CAN_MspDeInit                  : DeInitialize the CAN MSP.
 262:/home/phong/Documents/thesis/stm32f4/stm-idf/components/stm32f4xx_hal_driver/stm32f4xx_hal_can.c **** 
 263:/home/phong/Documents/thesis/stm32f4/stm-idf/components/stm32f4xx_hal_driver/stm32f4xx_hal_can.c **** @endverbatim
 264:/home/phong/Documents/thesis/stm32f4/stm-idf/components/stm32f4xx_hal_driver/stm32f4xx_hal_can.c ****   * @{
 265:/home/phong/Documents/thesis/stm32f4/stm-idf/components/stm32f4xx_hal_driver/stm32f4xx_hal_can.c ****   */
 266:/home/phong/Documents/thesis/stm32f4/stm-idf/components/stm32f4xx_hal_driver/stm32f4xx_hal_can.c **** 
 267:/home/phong/Documents/thesis/stm32f4/stm-idf/components/stm32f4xx_hal_driver/stm32f4xx_hal_can.c **** /**
 268:/home/phong/Documents/thesis/stm32f4/stm-idf/components/stm32f4xx_hal_driver/stm32f4xx_hal_can.c ****   * @brief  Initializes the CAN peripheral according to the specified
 269:/home/phong/Documents/thesis/stm32f4/stm-idf/components/stm32f4xx_hal_driver/stm32f4xx_hal_can.c ****   *         parameters in the CAN_InitStruct.
 270:/home/phong/Documents/thesis/stm32f4/stm-idf/components/stm32f4xx_hal_driver/stm32f4xx_hal_can.c ****   * @param  hcan pointer to a CAN_HandleTypeDef structure that contains
 271:/home/phong/Documents/thesis/stm32f4/stm-idf/components/stm32f4xx_hal_driver/stm32f4xx_hal_can.c ****   *         the configuration information for the specified CAN.
 272:/home/phong/Documents/thesis/stm32f4/stm-idf/components/stm32f4xx_hal_driver/stm32f4xx_hal_can.c ****   * @retval HAL status
 273:/home/phong/Documents/thesis/stm32f4/stm-idf/components/stm32f4xx_hal_driver/stm32f4xx_hal_can.c ****   */
 274:/home/phong/Documents/thesis/stm32f4/stm-idf/components/stm32f4xx_hal_driver/stm32f4xx_hal_can.c **** HAL_StatusTypeDef HAL_CAN_Init(CAN_HandleTypeDef *hcan)
 275:/home/phong/Documents/thesis/stm32f4/stm-idf/components/stm32f4xx_hal_driver/stm32f4xx_hal_can.c **** {
 276:/home/phong/Documents/thesis/stm32f4/stm-idf/components/stm32f4xx_hal_driver/stm32f4xx_hal_can.c ****   uint32_t tickstart;
 277:/home/phong/Documents/thesis/stm32f4/stm-idf/components/stm32f4xx_hal_driver/stm32f4xx_hal_can.c **** 
 278:/home/phong/Documents/thesis/stm32f4/stm-idf/components/stm32f4xx_hal_driver/stm32f4xx_hal_can.c ****   /* Check CAN handle */
 279:/home/phong/Documents/thesis/stm32f4/stm-idf/components/stm32f4xx_hal_driver/stm32f4xx_hal_can.c ****   if (hcan == NULL)
 280:/home/phong/Documents/thesis/stm32f4/stm-idf/components/stm32f4xx_hal_driver/stm32f4xx_hal_can.c ****   {
 281:/home/phong/Documents/thesis/stm32f4/stm-idf/components/stm32f4xx_hal_driver/stm32f4xx_hal_can.c ****     return HAL_ERROR;
 282:/home/phong/Documents/thesis/stm32f4/stm-idf/components/stm32f4xx_hal_driver/stm32f4xx_hal_can.c ****   }
 283:/home/phong/Documents/thesis/stm32f4/stm-idf/components/stm32f4xx_hal_driver/stm32f4xx_hal_can.c **** 
 284:/home/phong/Documents/thesis/stm32f4/stm-idf/components/stm32f4xx_hal_driver/stm32f4xx_hal_can.c ****   /* Check the parameters */
 285:/home/phong/Documents/thesis/stm32f4/stm-idf/components/stm32f4xx_hal_driver/stm32f4xx_hal_can.c ****   assert_param(IS_CAN_ALL_INSTANCE(hcan->Instance));
 286:/home/phong/Documents/thesis/stm32f4/stm-idf/components/stm32f4xx_hal_driver/stm32f4xx_hal_can.c ****   assert_param(IS_FUNCTIONAL_STATE(hcan->Init.TimeTriggeredMode));
 287:/home/phong/Documents/thesis/stm32f4/stm-idf/components/stm32f4xx_hal_driver/stm32f4xx_hal_can.c ****   assert_param(IS_FUNCTIONAL_STATE(hcan->Init.AutoBusOff));
 288:/home/phong/Documents/thesis/stm32f4/stm-idf/components/stm32f4xx_hal_driver/stm32f4xx_hal_can.c ****   assert_param(IS_FUNCTIONAL_STATE(hcan->Init.AutoWakeUp));
 289:/home/phong/Documents/thesis/stm32f4/stm-idf/components/stm32f4xx_hal_driver/stm32f4xx_hal_can.c ****   assert_param(IS_FUNCTIONAL_STATE(hcan->Init.AutoRetransmission));
 290:/home/phong/Documents/thesis/stm32f4/stm-idf/components/stm32f4xx_hal_driver/stm32f4xx_hal_can.c ****   assert_param(IS_FUNCTIONAL_STATE(hcan->Init.ReceiveFifoLocked));
 291:/home/phong/Documents/thesis/stm32f4/stm-idf/components/stm32f4xx_hal_driver/stm32f4xx_hal_can.c ****   assert_param(IS_FUNCTIONAL_STATE(hcan->Init.TransmitFifoPriority));
 292:/home/phong/Documents/thesis/stm32f4/stm-idf/components/stm32f4xx_hal_driver/stm32f4xx_hal_can.c ****   assert_param(IS_CAN_MODE(hcan->Init.Mode));
 293:/home/phong/Documents/thesis/stm32f4/stm-idf/components/stm32f4xx_hal_driver/stm32f4xx_hal_can.c ****   assert_param(IS_CAN_SJW(hcan->Init.SyncJumpWidth));
 294:/home/phong/Documents/thesis/stm32f4/stm-idf/components/stm32f4xx_hal_driver/stm32f4xx_hal_can.c ****   assert_param(IS_CAN_BS1(hcan->Init.TimeSeg1));
 295:/home/phong/Documents/thesis/stm32f4/stm-idf/components/stm32f4xx_hal_driver/stm32f4xx_hal_can.c ****   assert_param(IS_CAN_BS2(hcan->Init.TimeSeg2));
 296:/home/phong/Documents/thesis/stm32f4/stm-idf/components/stm32f4xx_hal_driver/stm32f4xx_hal_can.c ****   assert_param(IS_CAN_PRESCALER(hcan->Init.Prescaler));
 297:/home/phong/Documents/thesis/stm32f4/stm-idf/components/stm32f4xx_hal_driver/stm32f4xx_hal_can.c **** 
 298:/home/phong/Documents/thesis/stm32f4/stm-idf/components/stm32f4xx_hal_driver/stm32f4xx_hal_can.c **** #if USE_HAL_CAN_REGISTER_CALLBACKS == 1
 299:/home/phong/Documents/thesis/stm32f4/stm-idf/components/stm32f4xx_hal_driver/stm32f4xx_hal_can.c ****   if (hcan->State == HAL_CAN_STATE_RESET)
 300:/home/phong/Documents/thesis/stm32f4/stm-idf/components/stm32f4xx_hal_driver/stm32f4xx_hal_can.c ****   {
 301:/home/phong/Documents/thesis/stm32f4/stm-idf/components/stm32f4xx_hal_driver/stm32f4xx_hal_can.c ****     /* Reset callbacks to legacy functions */
 302:/home/phong/Documents/thesis/stm32f4/stm-idf/components/stm32f4xx_hal_driver/stm32f4xx_hal_can.c ****     hcan->RxFifo0MsgPendingCallback  =  HAL_CAN_RxFifo0MsgPendingCallback;  /* Legacy weak RxFifo0M
 303:/home/phong/Documents/thesis/stm32f4/stm-idf/components/stm32f4xx_hal_driver/stm32f4xx_hal_can.c ****     hcan->RxFifo0FullCallback        =  HAL_CAN_RxFifo0FullCallback;        /* Legacy weak RxFifo0F
 304:/home/phong/Documents/thesis/stm32f4/stm-idf/components/stm32f4xx_hal_driver/stm32f4xx_hal_can.c ****     hcan->RxFifo1MsgPendingCallback  =  HAL_CAN_RxFifo1MsgPendingCallback;  /* Legacy weak RxFifo1M
 305:/home/phong/Documents/thesis/stm32f4/stm-idf/components/stm32f4xx_hal_driver/stm32f4xx_hal_can.c ****     hcan->RxFifo1FullCallback        =  HAL_CAN_RxFifo1FullCallback;        /* Legacy weak RxFifo1F
 306:/home/phong/Documents/thesis/stm32f4/stm-idf/components/stm32f4xx_hal_driver/stm32f4xx_hal_can.c ****     hcan->TxMailbox0CompleteCallback =  HAL_CAN_TxMailbox0CompleteCallback; /* Legacy weak TxMailbo
 307:/home/phong/Documents/thesis/stm32f4/stm-idf/components/stm32f4xx_hal_driver/stm32f4xx_hal_can.c ****     hcan->TxMailbox1CompleteCallback =  HAL_CAN_TxMailbox1CompleteCallback; /* Legacy weak TxMailbo
 308:/home/phong/Documents/thesis/stm32f4/stm-idf/components/stm32f4xx_hal_driver/stm32f4xx_hal_can.c ****     hcan->TxMailbox2CompleteCallback =  HAL_CAN_TxMailbox2CompleteCallback; /* Legacy weak TxMailbo
 309:/home/phong/Documents/thesis/stm32f4/stm-idf/components/stm32f4xx_hal_driver/stm32f4xx_hal_can.c ****     hcan->TxMailbox0AbortCallback    =  HAL_CAN_TxMailbox0AbortCallback;    /* Legacy weak TxMailbo
 310:/home/phong/Documents/thesis/stm32f4/stm-idf/components/stm32f4xx_hal_driver/stm32f4xx_hal_can.c ****     hcan->TxMailbox1AbortCallback    =  HAL_CAN_TxMailbox1AbortCallback;    /* Legacy weak TxMailbo
 311:/home/phong/Documents/thesis/stm32f4/stm-idf/components/stm32f4xx_hal_driver/stm32f4xx_hal_can.c ****     hcan->TxMailbox2AbortCallback    =  HAL_CAN_TxMailbox2AbortCallback;    /* Legacy weak TxMailbo
 312:/home/phong/Documents/thesis/stm32f4/stm-idf/components/stm32f4xx_hal_driver/stm32f4xx_hal_can.c ****     hcan->SleepCallback              =  HAL_CAN_SleepCallback;              /* Legacy weak SleepCal
 313:/home/phong/Documents/thesis/stm32f4/stm-idf/components/stm32f4xx_hal_driver/stm32f4xx_hal_can.c ****     hcan->WakeUpFromRxMsgCallback    =  HAL_CAN_WakeUpFromRxMsgCallback;    /* Legacy weak WakeUpFr
 314:/home/phong/Documents/thesis/stm32f4/stm-idf/components/stm32f4xx_hal_driver/stm32f4xx_hal_can.c ****     hcan->ErrorCallback              =  HAL_CAN_ErrorCallback;              /* Legacy weak ErrorCal
 315:/home/phong/Documents/thesis/stm32f4/stm-idf/components/stm32f4xx_hal_driver/stm32f4xx_hal_can.c **** 
 316:/home/phong/Documents/thesis/stm32f4/stm-idf/components/stm32f4xx_hal_driver/stm32f4xx_hal_can.c ****     if (hcan->MspInitCallback == NULL)
ARM GAS  /tmp/ccW24XdO.s 			page 7


 317:/home/phong/Documents/thesis/stm32f4/stm-idf/components/stm32f4xx_hal_driver/stm32f4xx_hal_can.c ****     {
 318:/home/phong/Documents/thesis/stm32f4/stm-idf/components/stm32f4xx_hal_driver/stm32f4xx_hal_can.c ****       hcan->MspInitCallback = HAL_CAN_MspInit; /* Legacy weak MspInit */
 319:/home/phong/Documents/thesis/stm32f4/stm-idf/components/stm32f4xx_hal_driver/stm32f4xx_hal_can.c ****     }
 320:/home/phong/Documents/thesis/stm32f4/stm-idf/components/stm32f4xx_hal_driver/stm32f4xx_hal_can.c **** 
 321:/home/phong/Documents/thesis/stm32f4/stm-idf/components/stm32f4xx_hal_driver/stm32f4xx_hal_can.c ****     /* Init the low level hardware: CLOCK, NVIC */
 322:/home/phong/Documents/thesis/stm32f4/stm-idf/components/stm32f4xx_hal_driver/stm32f4xx_hal_can.c ****     hcan->MspInitCallback(hcan);
 323:/home/phong/Documents/thesis/stm32f4/stm-idf/components/stm32f4xx_hal_driver/stm32f4xx_hal_can.c ****   }
 324:/home/phong/Documents/thesis/stm32f4/stm-idf/components/stm32f4xx_hal_driver/stm32f4xx_hal_can.c **** 
 325:/home/phong/Documents/thesis/stm32f4/stm-idf/components/stm32f4xx_hal_driver/stm32f4xx_hal_can.c **** #else
 326:/home/phong/Documents/thesis/stm32f4/stm-idf/components/stm32f4xx_hal_driver/stm32f4xx_hal_can.c ****   if (hcan->State == HAL_CAN_STATE_RESET)
 327:/home/phong/Documents/thesis/stm32f4/stm-idf/components/stm32f4xx_hal_driver/stm32f4xx_hal_can.c ****   {
 328:/home/phong/Documents/thesis/stm32f4/stm-idf/components/stm32f4xx_hal_driver/stm32f4xx_hal_can.c ****     /* Init the low level hardware: CLOCK, NVIC */
 329:/home/phong/Documents/thesis/stm32f4/stm-idf/components/stm32f4xx_hal_driver/stm32f4xx_hal_can.c ****     HAL_CAN_MspInit(hcan);
 330:/home/phong/Documents/thesis/stm32f4/stm-idf/components/stm32f4xx_hal_driver/stm32f4xx_hal_can.c ****   }
 331:/home/phong/Documents/thesis/stm32f4/stm-idf/components/stm32f4xx_hal_driver/stm32f4xx_hal_can.c **** #endif /* (USE_HAL_CAN_REGISTER_CALLBACKS) */
 332:/home/phong/Documents/thesis/stm32f4/stm-idf/components/stm32f4xx_hal_driver/stm32f4xx_hal_can.c **** 
 333:/home/phong/Documents/thesis/stm32f4/stm-idf/components/stm32f4xx_hal_driver/stm32f4xx_hal_can.c ****   /* Exit from sleep mode */
 334:/home/phong/Documents/thesis/stm32f4/stm-idf/components/stm32f4xx_hal_driver/stm32f4xx_hal_can.c ****   CLEAR_BIT(hcan->Instance->MCR, CAN_MCR_SLEEP);
 335:/home/phong/Documents/thesis/stm32f4/stm-idf/components/stm32f4xx_hal_driver/stm32f4xx_hal_can.c **** 
 336:/home/phong/Documents/thesis/stm32f4/stm-idf/components/stm32f4xx_hal_driver/stm32f4xx_hal_can.c ****   /* Get tick */
 337:/home/phong/Documents/thesis/stm32f4/stm-idf/components/stm32f4xx_hal_driver/stm32f4xx_hal_can.c ****   tickstart = HAL_GetTick();
 338:/home/phong/Documents/thesis/stm32f4/stm-idf/components/stm32f4xx_hal_driver/stm32f4xx_hal_can.c **** 
 339:/home/phong/Documents/thesis/stm32f4/stm-idf/components/stm32f4xx_hal_driver/stm32f4xx_hal_can.c ****   /* Check Sleep mode leave acknowledge */
 340:/home/phong/Documents/thesis/stm32f4/stm-idf/components/stm32f4xx_hal_driver/stm32f4xx_hal_can.c ****   while ((hcan->Instance->MSR & CAN_MSR_SLAK) != 0U)
 341:/home/phong/Documents/thesis/stm32f4/stm-idf/components/stm32f4xx_hal_driver/stm32f4xx_hal_can.c ****   {
 342:/home/phong/Documents/thesis/stm32f4/stm-idf/components/stm32f4xx_hal_driver/stm32f4xx_hal_can.c ****     if ((HAL_GetTick() - tickstart) > CAN_TIMEOUT_VALUE)
 343:/home/phong/Documents/thesis/stm32f4/stm-idf/components/stm32f4xx_hal_driver/stm32f4xx_hal_can.c ****     {
 344:/home/phong/Documents/thesis/stm32f4/stm-idf/components/stm32f4xx_hal_driver/stm32f4xx_hal_can.c ****       /* Update error code */
 345:/home/phong/Documents/thesis/stm32f4/stm-idf/components/stm32f4xx_hal_driver/stm32f4xx_hal_can.c ****       hcan->ErrorCode |= HAL_CAN_ERROR_TIMEOUT;
 346:/home/phong/Documents/thesis/stm32f4/stm-idf/components/stm32f4xx_hal_driver/stm32f4xx_hal_can.c **** 
 347:/home/phong/Documents/thesis/stm32f4/stm-idf/components/stm32f4xx_hal_driver/stm32f4xx_hal_can.c ****       /* Change CAN state */
 348:/home/phong/Documents/thesis/stm32f4/stm-idf/components/stm32f4xx_hal_driver/stm32f4xx_hal_can.c ****       hcan->State = HAL_CAN_STATE_ERROR;
 349:/home/phong/Documents/thesis/stm32f4/stm-idf/components/stm32f4xx_hal_driver/stm32f4xx_hal_can.c **** 
 350:/home/phong/Documents/thesis/stm32f4/stm-idf/components/stm32f4xx_hal_driver/stm32f4xx_hal_can.c ****       return HAL_ERROR;
 351:/home/phong/Documents/thesis/stm32f4/stm-idf/components/stm32f4xx_hal_driver/stm32f4xx_hal_can.c ****     }
 352:/home/phong/Documents/thesis/stm32f4/stm-idf/components/stm32f4xx_hal_driver/stm32f4xx_hal_can.c ****   }
 353:/home/phong/Documents/thesis/stm32f4/stm-idf/components/stm32f4xx_hal_driver/stm32f4xx_hal_can.c **** 
 354:/home/phong/Documents/thesis/stm32f4/stm-idf/components/stm32f4xx_hal_driver/stm32f4xx_hal_can.c ****   /* Request initialisation */
 355:/home/phong/Documents/thesis/stm32f4/stm-idf/components/stm32f4xx_hal_driver/stm32f4xx_hal_can.c ****   SET_BIT(hcan->Instance->MCR, CAN_MCR_INRQ);
 356:/home/phong/Documents/thesis/stm32f4/stm-idf/components/stm32f4xx_hal_driver/stm32f4xx_hal_can.c **** 
 357:/home/phong/Documents/thesis/stm32f4/stm-idf/components/stm32f4xx_hal_driver/stm32f4xx_hal_can.c ****   /* Get tick */
 358:/home/phong/Documents/thesis/stm32f4/stm-idf/components/stm32f4xx_hal_driver/stm32f4xx_hal_can.c ****   tickstart = HAL_GetTick();
 359:/home/phong/Documents/thesis/stm32f4/stm-idf/components/stm32f4xx_hal_driver/stm32f4xx_hal_can.c **** 
 360:/home/phong/Documents/thesis/stm32f4/stm-idf/components/stm32f4xx_hal_driver/stm32f4xx_hal_can.c ****   /* Wait initialisation acknowledge */
 361:/home/phong/Documents/thesis/stm32f4/stm-idf/components/stm32f4xx_hal_driver/stm32f4xx_hal_can.c ****   while ((hcan->Instance->MSR & CAN_MSR_INAK) == 0U)
 362:/home/phong/Documents/thesis/stm32f4/stm-idf/components/stm32f4xx_hal_driver/stm32f4xx_hal_can.c ****   {
 363:/home/phong/Documents/thesis/stm32f4/stm-idf/components/stm32f4xx_hal_driver/stm32f4xx_hal_can.c ****     if ((HAL_GetTick() - tickstart) > CAN_TIMEOUT_VALUE)
 364:/home/phong/Documents/thesis/stm32f4/stm-idf/components/stm32f4xx_hal_driver/stm32f4xx_hal_can.c ****     {
 365:/home/phong/Documents/thesis/stm32f4/stm-idf/components/stm32f4xx_hal_driver/stm32f4xx_hal_can.c ****       /* Update error code */
 366:/home/phong/Documents/thesis/stm32f4/stm-idf/components/stm32f4xx_hal_driver/stm32f4xx_hal_can.c ****       hcan->ErrorCode |= HAL_CAN_ERROR_TIMEOUT;
 367:/home/phong/Documents/thesis/stm32f4/stm-idf/components/stm32f4xx_hal_driver/stm32f4xx_hal_can.c **** 
 368:/home/phong/Documents/thesis/stm32f4/stm-idf/components/stm32f4xx_hal_driver/stm32f4xx_hal_can.c ****       /* Change CAN state */
 369:/home/phong/Documents/thesis/stm32f4/stm-idf/components/stm32f4xx_hal_driver/stm32f4xx_hal_can.c ****       hcan->State = HAL_CAN_STATE_ERROR;
 370:/home/phong/Documents/thesis/stm32f4/stm-idf/components/stm32f4xx_hal_driver/stm32f4xx_hal_can.c **** 
 371:/home/phong/Documents/thesis/stm32f4/stm-idf/components/stm32f4xx_hal_driver/stm32f4xx_hal_can.c ****       return HAL_ERROR;
 372:/home/phong/Documents/thesis/stm32f4/stm-idf/components/stm32f4xx_hal_driver/stm32f4xx_hal_can.c ****     }
 373:/home/phong/Documents/thesis/stm32f4/stm-idf/components/stm32f4xx_hal_driver/stm32f4xx_hal_can.c ****   }
ARM GAS  /tmp/ccW24XdO.s 			page 8


 374:/home/phong/Documents/thesis/stm32f4/stm-idf/components/stm32f4xx_hal_driver/stm32f4xx_hal_can.c **** 
 375:/home/phong/Documents/thesis/stm32f4/stm-idf/components/stm32f4xx_hal_driver/stm32f4xx_hal_can.c ****   /* Set the time triggered communication mode */
 376:/home/phong/Documents/thesis/stm32f4/stm-idf/components/stm32f4xx_hal_driver/stm32f4xx_hal_can.c ****   if (hcan->Init.TimeTriggeredMode == ENABLE)
 377:/home/phong/Documents/thesis/stm32f4/stm-idf/components/stm32f4xx_hal_driver/stm32f4xx_hal_can.c ****   {
 378:/home/phong/Documents/thesis/stm32f4/stm-idf/components/stm32f4xx_hal_driver/stm32f4xx_hal_can.c ****     SET_BIT(hcan->Instance->MCR, CAN_MCR_TTCM);
 379:/home/phong/Documents/thesis/stm32f4/stm-idf/components/stm32f4xx_hal_driver/stm32f4xx_hal_can.c ****   }
 380:/home/phong/Documents/thesis/stm32f4/stm-idf/components/stm32f4xx_hal_driver/stm32f4xx_hal_can.c ****   else
 381:/home/phong/Documents/thesis/stm32f4/stm-idf/components/stm32f4xx_hal_driver/stm32f4xx_hal_can.c ****   {
 382:/home/phong/Documents/thesis/stm32f4/stm-idf/components/stm32f4xx_hal_driver/stm32f4xx_hal_can.c ****     CLEAR_BIT(hcan->Instance->MCR, CAN_MCR_TTCM);
 383:/home/phong/Documents/thesis/stm32f4/stm-idf/components/stm32f4xx_hal_driver/stm32f4xx_hal_can.c ****   }
 384:/home/phong/Documents/thesis/stm32f4/stm-idf/components/stm32f4xx_hal_driver/stm32f4xx_hal_can.c **** 
 385:/home/phong/Documents/thesis/stm32f4/stm-idf/components/stm32f4xx_hal_driver/stm32f4xx_hal_can.c ****   /* Set the automatic bus-off management */
 386:/home/phong/Documents/thesis/stm32f4/stm-idf/components/stm32f4xx_hal_driver/stm32f4xx_hal_can.c ****   if (hcan->Init.AutoBusOff == ENABLE)
 387:/home/phong/Documents/thesis/stm32f4/stm-idf/components/stm32f4xx_hal_driver/stm32f4xx_hal_can.c ****   {
 388:/home/phong/Documents/thesis/stm32f4/stm-idf/components/stm32f4xx_hal_driver/stm32f4xx_hal_can.c ****     SET_BIT(hcan->Instance->MCR, CAN_MCR_ABOM);
 389:/home/phong/Documents/thesis/stm32f4/stm-idf/components/stm32f4xx_hal_driver/stm32f4xx_hal_can.c ****   }
 390:/home/phong/Documents/thesis/stm32f4/stm-idf/components/stm32f4xx_hal_driver/stm32f4xx_hal_can.c ****   else
 391:/home/phong/Documents/thesis/stm32f4/stm-idf/components/stm32f4xx_hal_driver/stm32f4xx_hal_can.c ****   {
 392:/home/phong/Documents/thesis/stm32f4/stm-idf/components/stm32f4xx_hal_driver/stm32f4xx_hal_can.c ****     CLEAR_BIT(hcan->Instance->MCR, CAN_MCR_ABOM);
 393:/home/phong/Documents/thesis/stm32f4/stm-idf/components/stm32f4xx_hal_driver/stm32f4xx_hal_can.c ****   }
 394:/home/phong/Documents/thesis/stm32f4/stm-idf/components/stm32f4xx_hal_driver/stm32f4xx_hal_can.c **** 
 395:/home/phong/Documents/thesis/stm32f4/stm-idf/components/stm32f4xx_hal_driver/stm32f4xx_hal_can.c ****   /* Set the automatic wake-up mode */
 396:/home/phong/Documents/thesis/stm32f4/stm-idf/components/stm32f4xx_hal_driver/stm32f4xx_hal_can.c ****   if (hcan->Init.AutoWakeUp == ENABLE)
 397:/home/phong/Documents/thesis/stm32f4/stm-idf/components/stm32f4xx_hal_driver/stm32f4xx_hal_can.c ****   {
 398:/home/phong/Documents/thesis/stm32f4/stm-idf/components/stm32f4xx_hal_driver/stm32f4xx_hal_can.c ****     SET_BIT(hcan->Instance->MCR, CAN_MCR_AWUM);
 399:/home/phong/Documents/thesis/stm32f4/stm-idf/components/stm32f4xx_hal_driver/stm32f4xx_hal_can.c ****   }
 400:/home/phong/Documents/thesis/stm32f4/stm-idf/components/stm32f4xx_hal_driver/stm32f4xx_hal_can.c ****   else
 401:/home/phong/Documents/thesis/stm32f4/stm-idf/components/stm32f4xx_hal_driver/stm32f4xx_hal_can.c ****   {
 402:/home/phong/Documents/thesis/stm32f4/stm-idf/components/stm32f4xx_hal_driver/stm32f4xx_hal_can.c ****     CLEAR_BIT(hcan->Instance->MCR, CAN_MCR_AWUM);
 403:/home/phong/Documents/thesis/stm32f4/stm-idf/components/stm32f4xx_hal_driver/stm32f4xx_hal_can.c ****   }
 404:/home/phong/Documents/thesis/stm32f4/stm-idf/components/stm32f4xx_hal_driver/stm32f4xx_hal_can.c **** 
 405:/home/phong/Documents/thesis/stm32f4/stm-idf/components/stm32f4xx_hal_driver/stm32f4xx_hal_can.c ****   /* Set the automatic retransmission */
 406:/home/phong/Documents/thesis/stm32f4/stm-idf/components/stm32f4xx_hal_driver/stm32f4xx_hal_can.c ****   if (hcan->Init.AutoRetransmission == ENABLE)
 407:/home/phong/Documents/thesis/stm32f4/stm-idf/components/stm32f4xx_hal_driver/stm32f4xx_hal_can.c ****   {
 408:/home/phong/Documents/thesis/stm32f4/stm-idf/components/stm32f4xx_hal_driver/stm32f4xx_hal_can.c ****     CLEAR_BIT(hcan->Instance->MCR, CAN_MCR_NART);
 409:/home/phong/Documents/thesis/stm32f4/stm-idf/components/stm32f4xx_hal_driver/stm32f4xx_hal_can.c ****   }
 410:/home/phong/Documents/thesis/stm32f4/stm-idf/components/stm32f4xx_hal_driver/stm32f4xx_hal_can.c ****   else
 411:/home/phong/Documents/thesis/stm32f4/stm-idf/components/stm32f4xx_hal_driver/stm32f4xx_hal_can.c ****   {
 412:/home/phong/Documents/thesis/stm32f4/stm-idf/components/stm32f4xx_hal_driver/stm32f4xx_hal_can.c ****     SET_BIT(hcan->Instance->MCR, CAN_MCR_NART);
 413:/home/phong/Documents/thesis/stm32f4/stm-idf/components/stm32f4xx_hal_driver/stm32f4xx_hal_can.c ****   }
 414:/home/phong/Documents/thesis/stm32f4/stm-idf/components/stm32f4xx_hal_driver/stm32f4xx_hal_can.c **** 
 415:/home/phong/Documents/thesis/stm32f4/stm-idf/components/stm32f4xx_hal_driver/stm32f4xx_hal_can.c ****   /* Set the receive FIFO locked mode */
 416:/home/phong/Documents/thesis/stm32f4/stm-idf/components/stm32f4xx_hal_driver/stm32f4xx_hal_can.c ****   if (hcan->Init.ReceiveFifoLocked == ENABLE)
 417:/home/phong/Documents/thesis/stm32f4/stm-idf/components/stm32f4xx_hal_driver/stm32f4xx_hal_can.c ****   {
 418:/home/phong/Documents/thesis/stm32f4/stm-idf/components/stm32f4xx_hal_driver/stm32f4xx_hal_can.c ****     SET_BIT(hcan->Instance->MCR, CAN_MCR_RFLM);
 419:/home/phong/Documents/thesis/stm32f4/stm-idf/components/stm32f4xx_hal_driver/stm32f4xx_hal_can.c ****   }
 420:/home/phong/Documents/thesis/stm32f4/stm-idf/components/stm32f4xx_hal_driver/stm32f4xx_hal_can.c ****   else
 421:/home/phong/Documents/thesis/stm32f4/stm-idf/components/stm32f4xx_hal_driver/stm32f4xx_hal_can.c ****   {
 422:/home/phong/Documents/thesis/stm32f4/stm-idf/components/stm32f4xx_hal_driver/stm32f4xx_hal_can.c ****     CLEAR_BIT(hcan->Instance->MCR, CAN_MCR_RFLM);
 423:/home/phong/Documents/thesis/stm32f4/stm-idf/components/stm32f4xx_hal_driver/stm32f4xx_hal_can.c ****   }
 424:/home/phong/Documents/thesis/stm32f4/stm-idf/components/stm32f4xx_hal_driver/stm32f4xx_hal_can.c **** 
 425:/home/phong/Documents/thesis/stm32f4/stm-idf/components/stm32f4xx_hal_driver/stm32f4xx_hal_can.c ****   /* Set the transmit FIFO priority */
 426:/home/phong/Documents/thesis/stm32f4/stm-idf/components/stm32f4xx_hal_driver/stm32f4xx_hal_can.c ****   if (hcan->Init.TransmitFifoPriority == ENABLE)
 427:/home/phong/Documents/thesis/stm32f4/stm-idf/components/stm32f4xx_hal_driver/stm32f4xx_hal_can.c ****   {
 428:/home/phong/Documents/thesis/stm32f4/stm-idf/components/stm32f4xx_hal_driver/stm32f4xx_hal_can.c ****     SET_BIT(hcan->Instance->MCR, CAN_MCR_TXFP);
 429:/home/phong/Documents/thesis/stm32f4/stm-idf/components/stm32f4xx_hal_driver/stm32f4xx_hal_can.c ****   }
 430:/home/phong/Documents/thesis/stm32f4/stm-idf/components/stm32f4xx_hal_driver/stm32f4xx_hal_can.c ****   else
ARM GAS  /tmp/ccW24XdO.s 			page 9


 431:/home/phong/Documents/thesis/stm32f4/stm-idf/components/stm32f4xx_hal_driver/stm32f4xx_hal_can.c ****   {
 432:/home/phong/Documents/thesis/stm32f4/stm-idf/components/stm32f4xx_hal_driver/stm32f4xx_hal_can.c ****     CLEAR_BIT(hcan->Instance->MCR, CAN_MCR_TXFP);
 433:/home/phong/Documents/thesis/stm32f4/stm-idf/components/stm32f4xx_hal_driver/stm32f4xx_hal_can.c ****   }
 434:/home/phong/Documents/thesis/stm32f4/stm-idf/components/stm32f4xx_hal_driver/stm32f4xx_hal_can.c **** 
 435:/home/phong/Documents/thesis/stm32f4/stm-idf/components/stm32f4xx_hal_driver/stm32f4xx_hal_can.c ****   /* Set the bit timing register */
 436:/home/phong/Documents/thesis/stm32f4/stm-idf/components/stm32f4xx_hal_driver/stm32f4xx_hal_can.c ****   WRITE_REG(hcan->Instance->BTR, (uint32_t)(hcan->Init.Mode           |
 437:/home/phong/Documents/thesis/stm32f4/stm-idf/components/stm32f4xx_hal_driver/stm32f4xx_hal_can.c ****                                             hcan->Init.SyncJumpWidth  |
 438:/home/phong/Documents/thesis/stm32f4/stm-idf/components/stm32f4xx_hal_driver/stm32f4xx_hal_can.c ****                                             hcan->Init.TimeSeg1       |
 439:/home/phong/Documents/thesis/stm32f4/stm-idf/components/stm32f4xx_hal_driver/stm32f4xx_hal_can.c ****                                             hcan->Init.TimeSeg2       |
 440:/home/phong/Documents/thesis/stm32f4/stm-idf/components/stm32f4xx_hal_driver/stm32f4xx_hal_can.c ****                                             (hcan->Init.Prescaler - 1U)));
 441:/home/phong/Documents/thesis/stm32f4/stm-idf/components/stm32f4xx_hal_driver/stm32f4xx_hal_can.c **** 
 442:/home/phong/Documents/thesis/stm32f4/stm-idf/components/stm32f4xx_hal_driver/stm32f4xx_hal_can.c ****   /* Initialize the error code */
 443:/home/phong/Documents/thesis/stm32f4/stm-idf/components/stm32f4xx_hal_driver/stm32f4xx_hal_can.c ****   hcan->ErrorCode = HAL_CAN_ERROR_NONE;
 444:/home/phong/Documents/thesis/stm32f4/stm-idf/components/stm32f4xx_hal_driver/stm32f4xx_hal_can.c **** 
 445:/home/phong/Documents/thesis/stm32f4/stm-idf/components/stm32f4xx_hal_driver/stm32f4xx_hal_can.c ****   /* Initialize the CAN state */
 446:/home/phong/Documents/thesis/stm32f4/stm-idf/components/stm32f4xx_hal_driver/stm32f4xx_hal_can.c ****   hcan->State = HAL_CAN_STATE_READY;
 447:/home/phong/Documents/thesis/stm32f4/stm-idf/components/stm32f4xx_hal_driver/stm32f4xx_hal_can.c **** 
 448:/home/phong/Documents/thesis/stm32f4/stm-idf/components/stm32f4xx_hal_driver/stm32f4xx_hal_can.c ****   /* Return function status */
 449:/home/phong/Documents/thesis/stm32f4/stm-idf/components/stm32f4xx_hal_driver/stm32f4xx_hal_can.c ****   return HAL_OK;
 450:/home/phong/Documents/thesis/stm32f4/stm-idf/components/stm32f4xx_hal_driver/stm32f4xx_hal_can.c **** }
 451:/home/phong/Documents/thesis/stm32f4/stm-idf/components/stm32f4xx_hal_driver/stm32f4xx_hal_can.c **** 
 452:/home/phong/Documents/thesis/stm32f4/stm-idf/components/stm32f4xx_hal_driver/stm32f4xx_hal_can.c **** /**
 453:/home/phong/Documents/thesis/stm32f4/stm-idf/components/stm32f4xx_hal_driver/stm32f4xx_hal_can.c ****   * @brief  Deinitializes the CAN peripheral registers to their default
 454:/home/phong/Documents/thesis/stm32f4/stm-idf/components/stm32f4xx_hal_driver/stm32f4xx_hal_can.c ****   *         reset values.
 455:/home/phong/Documents/thesis/stm32f4/stm-idf/components/stm32f4xx_hal_driver/stm32f4xx_hal_can.c ****   * @param  hcan pointer to a CAN_HandleTypeDef structure that contains
 456:/home/phong/Documents/thesis/stm32f4/stm-idf/components/stm32f4xx_hal_driver/stm32f4xx_hal_can.c ****   *         the configuration information for the specified CAN.
 457:/home/phong/Documents/thesis/stm32f4/stm-idf/components/stm32f4xx_hal_driver/stm32f4xx_hal_can.c ****   * @retval HAL status
 458:/home/phong/Documents/thesis/stm32f4/stm-idf/components/stm32f4xx_hal_driver/stm32f4xx_hal_can.c ****   */
 459:/home/phong/Documents/thesis/stm32f4/stm-idf/components/stm32f4xx_hal_driver/stm32f4xx_hal_can.c **** HAL_StatusTypeDef HAL_CAN_DeInit(CAN_HandleTypeDef *hcan)
 460:/home/phong/Documents/thesis/stm32f4/stm-idf/components/stm32f4xx_hal_driver/stm32f4xx_hal_can.c **** {
 461:/home/phong/Documents/thesis/stm32f4/stm-idf/components/stm32f4xx_hal_driver/stm32f4xx_hal_can.c ****   /* Check CAN handle */
 462:/home/phong/Documents/thesis/stm32f4/stm-idf/components/stm32f4xx_hal_driver/stm32f4xx_hal_can.c ****   if (hcan == NULL)
 463:/home/phong/Documents/thesis/stm32f4/stm-idf/components/stm32f4xx_hal_driver/stm32f4xx_hal_can.c ****   {
 464:/home/phong/Documents/thesis/stm32f4/stm-idf/components/stm32f4xx_hal_driver/stm32f4xx_hal_can.c ****     return HAL_ERROR;
 465:/home/phong/Documents/thesis/stm32f4/stm-idf/components/stm32f4xx_hal_driver/stm32f4xx_hal_can.c ****   }
 466:/home/phong/Documents/thesis/stm32f4/stm-idf/components/stm32f4xx_hal_driver/stm32f4xx_hal_can.c **** 
 467:/home/phong/Documents/thesis/stm32f4/stm-idf/components/stm32f4xx_hal_driver/stm32f4xx_hal_can.c ****   /* Check the parameters */
 468:/home/phong/Documents/thesis/stm32f4/stm-idf/components/stm32f4xx_hal_driver/stm32f4xx_hal_can.c ****   assert_param(IS_CAN_ALL_INSTANCE(hcan->Instance));
 469:/home/phong/Documents/thesis/stm32f4/stm-idf/components/stm32f4xx_hal_driver/stm32f4xx_hal_can.c **** 
 470:/home/phong/Documents/thesis/stm32f4/stm-idf/components/stm32f4xx_hal_driver/stm32f4xx_hal_can.c ****   /* Stop the CAN module */
 471:/home/phong/Documents/thesis/stm32f4/stm-idf/components/stm32f4xx_hal_driver/stm32f4xx_hal_can.c ****   (void)HAL_CAN_Stop(hcan);
 472:/home/phong/Documents/thesis/stm32f4/stm-idf/components/stm32f4xx_hal_driver/stm32f4xx_hal_can.c **** 
 473:/home/phong/Documents/thesis/stm32f4/stm-idf/components/stm32f4xx_hal_driver/stm32f4xx_hal_can.c **** #if USE_HAL_CAN_REGISTER_CALLBACKS == 1
 474:/home/phong/Documents/thesis/stm32f4/stm-idf/components/stm32f4xx_hal_driver/stm32f4xx_hal_can.c ****   if (hcan->MspDeInitCallback == NULL)
 475:/home/phong/Documents/thesis/stm32f4/stm-idf/components/stm32f4xx_hal_driver/stm32f4xx_hal_can.c ****   {
 476:/home/phong/Documents/thesis/stm32f4/stm-idf/components/stm32f4xx_hal_driver/stm32f4xx_hal_can.c ****     hcan->MspDeInitCallback = HAL_CAN_MspDeInit; /* Legacy weak MspDeInit */
 477:/home/phong/Documents/thesis/stm32f4/stm-idf/components/stm32f4xx_hal_driver/stm32f4xx_hal_can.c ****   }
 478:/home/phong/Documents/thesis/stm32f4/stm-idf/components/stm32f4xx_hal_driver/stm32f4xx_hal_can.c **** 
 479:/home/phong/Documents/thesis/stm32f4/stm-idf/components/stm32f4xx_hal_driver/stm32f4xx_hal_can.c ****   /* DeInit the low level hardware: CLOCK, NVIC */
 480:/home/phong/Documents/thesis/stm32f4/stm-idf/components/stm32f4xx_hal_driver/stm32f4xx_hal_can.c ****   hcan->MspDeInitCallback(hcan);
 481:/home/phong/Documents/thesis/stm32f4/stm-idf/components/stm32f4xx_hal_driver/stm32f4xx_hal_can.c **** 
 482:/home/phong/Documents/thesis/stm32f4/stm-idf/components/stm32f4xx_hal_driver/stm32f4xx_hal_can.c **** #else
 483:/home/phong/Documents/thesis/stm32f4/stm-idf/components/stm32f4xx_hal_driver/stm32f4xx_hal_can.c ****   /* DeInit the low level hardware: CLOCK, NVIC */
 484:/home/phong/Documents/thesis/stm32f4/stm-idf/components/stm32f4xx_hal_driver/stm32f4xx_hal_can.c ****   HAL_CAN_MspDeInit(hcan);
 485:/home/phong/Documents/thesis/stm32f4/stm-idf/components/stm32f4xx_hal_driver/stm32f4xx_hal_can.c **** #endif /* (USE_HAL_CAN_REGISTER_CALLBACKS) */
 486:/home/phong/Documents/thesis/stm32f4/stm-idf/components/stm32f4xx_hal_driver/stm32f4xx_hal_can.c **** 
 487:/home/phong/Documents/thesis/stm32f4/stm-idf/components/stm32f4xx_hal_driver/stm32f4xx_hal_can.c ****   /* Reset the CAN peripheral */
ARM GAS  /tmp/ccW24XdO.s 			page 10


 488:/home/phong/Documents/thesis/stm32f4/stm-idf/components/stm32f4xx_hal_driver/stm32f4xx_hal_can.c ****   SET_BIT(hcan->Instance->MCR, CAN_MCR_RESET);
 489:/home/phong/Documents/thesis/stm32f4/stm-idf/components/stm32f4xx_hal_driver/stm32f4xx_hal_can.c **** 
 490:/home/phong/Documents/thesis/stm32f4/stm-idf/components/stm32f4xx_hal_driver/stm32f4xx_hal_can.c ****   /* Reset the CAN ErrorCode */
 491:/home/phong/Documents/thesis/stm32f4/stm-idf/components/stm32f4xx_hal_driver/stm32f4xx_hal_can.c ****   hcan->ErrorCode = HAL_CAN_ERROR_NONE;
 492:/home/phong/Documents/thesis/stm32f4/stm-idf/components/stm32f4xx_hal_driver/stm32f4xx_hal_can.c **** 
 493:/home/phong/Documents/thesis/stm32f4/stm-idf/components/stm32f4xx_hal_driver/stm32f4xx_hal_can.c ****   /* Change CAN state */
 494:/home/phong/Documents/thesis/stm32f4/stm-idf/components/stm32f4xx_hal_driver/stm32f4xx_hal_can.c ****   hcan->State = HAL_CAN_STATE_RESET;
 495:/home/phong/Documents/thesis/stm32f4/stm-idf/components/stm32f4xx_hal_driver/stm32f4xx_hal_can.c **** 
 496:/home/phong/Documents/thesis/stm32f4/stm-idf/components/stm32f4xx_hal_driver/stm32f4xx_hal_can.c ****   /* Return function status */
 497:/home/phong/Documents/thesis/stm32f4/stm-idf/components/stm32f4xx_hal_driver/stm32f4xx_hal_can.c ****   return HAL_OK;
 498:/home/phong/Documents/thesis/stm32f4/stm-idf/components/stm32f4xx_hal_driver/stm32f4xx_hal_can.c **** }
 499:/home/phong/Documents/thesis/stm32f4/stm-idf/components/stm32f4xx_hal_driver/stm32f4xx_hal_can.c **** 
 500:/home/phong/Documents/thesis/stm32f4/stm-idf/components/stm32f4xx_hal_driver/stm32f4xx_hal_can.c **** /**
 501:/home/phong/Documents/thesis/stm32f4/stm-idf/components/stm32f4xx_hal_driver/stm32f4xx_hal_can.c ****   * @brief  Initializes the CAN MSP.
 502:/home/phong/Documents/thesis/stm32f4/stm-idf/components/stm32f4xx_hal_driver/stm32f4xx_hal_can.c ****   * @param  hcan pointer to a CAN_HandleTypeDef structure that contains
 503:/home/phong/Documents/thesis/stm32f4/stm-idf/components/stm32f4xx_hal_driver/stm32f4xx_hal_can.c ****   *         the configuration information for the specified CAN.
 504:/home/phong/Documents/thesis/stm32f4/stm-idf/components/stm32f4xx_hal_driver/stm32f4xx_hal_can.c ****   * @retval None
 505:/home/phong/Documents/thesis/stm32f4/stm-idf/components/stm32f4xx_hal_driver/stm32f4xx_hal_can.c ****   */
 506:/home/phong/Documents/thesis/stm32f4/stm-idf/components/stm32f4xx_hal_driver/stm32f4xx_hal_can.c **** __weak void HAL_CAN_MspInit(CAN_HandleTypeDef *hcan)
 507:/home/phong/Documents/thesis/stm32f4/stm-idf/components/stm32f4xx_hal_driver/stm32f4xx_hal_can.c **** {
  28              		.loc 1 507 0
  29              		.cfi_startproc
  30              		@ args = 0, pretend = 0, frame = 0
  31              		@ frame_needed = 0, uses_anonymous_args = 0
  32              		@ link register save eliminated.
  33              	.LVL0:
  34 0000 7047     		bx	lr
  35              		.cfi_endproc
  36              	.LFE132:
  38              		.section	.text.HAL_CAN_Init,"ax",%progbits
  39              		.align	1
  40              		.global	HAL_CAN_Init
  41              		.syntax unified
  42              		.thumb
  43              		.thumb_func
  44              		.fpu fpv4-sp-d16
  46              	HAL_CAN_Init:
  47              	.LFB130:
 275:/home/phong/Documents/thesis/stm32f4/stm-idf/components/stm32f4xx_hal_driver/stm32f4xx_hal_can.c ****   uint32_t tickstart;
  48              		.loc 1 275 0
  49              		.cfi_startproc
  50              		@ args = 0, pretend = 0, frame = 0
  51              		@ frame_needed = 0, uses_anonymous_args = 0
  52              	.LVL1:
 279:/home/phong/Documents/thesis/stm32f4/stm-idf/components/stm32f4xx_hal_driver/stm32f4xx_hal_can.c ****   {
  53              		.loc 1 279 0
  54 0000 0028     		cmp	r0, #0
  55 0002 00F0A180 		beq	.L21
 275:/home/phong/Documents/thesis/stm32f4/stm-idf/components/stm32f4xx_hal_driver/stm32f4xx_hal_can.c ****   uint32_t tickstart;
  56              		.loc 1 275 0
  57 0006 38B5     		push	{r3, r4, r5, lr}
  58              	.LCFI0:
  59              		.cfi_def_cfa_offset 16
  60              		.cfi_offset 3, -16
  61              		.cfi_offset 4, -12
  62              		.cfi_offset 5, -8
  63              		.cfi_offset 14, -4
ARM GAS  /tmp/ccW24XdO.s 			page 11


  64 0008 0446     		mov	r4, r0
 326:/home/phong/Documents/thesis/stm32f4/stm-idf/components/stm32f4xx_hal_driver/stm32f4xx_hal_can.c ****   {
  65              		.loc 1 326 0
  66 000a 90F82030 		ldrb	r3, [r0, #32]	@ zero_extendqisi2
  67 000e D3B1     		cbz	r3, .L26
  68              	.LVL2:
  69              	.L4:
 334:/home/phong/Documents/thesis/stm32f4/stm-idf/components/stm32f4xx_hal_driver/stm32f4xx_hal_can.c **** 
  70              		.loc 1 334 0
  71 0010 2268     		ldr	r2, [r4]
  72 0012 1368     		ldr	r3, [r2]
  73 0014 23F00203 		bic	r3, r3, #2
  74 0018 1360     		str	r3, [r2]
 337:/home/phong/Documents/thesis/stm32f4/stm-idf/components/stm32f4xx_hal_driver/stm32f4xx_hal_can.c **** 
  75              		.loc 1 337 0
  76 001a FFF7FEFF 		bl	HAL_GetTick
  77              	.LVL3:
  78 001e 0546     		mov	r5, r0
  79              	.LVL4:
  80              	.L5:
 340:/home/phong/Documents/thesis/stm32f4/stm-idf/components/stm32f4xx_hal_driver/stm32f4xx_hal_can.c ****   {
  81              		.loc 1 340 0
  82 0020 2368     		ldr	r3, [r4]
  83 0022 5A68     		ldr	r2, [r3, #4]
  84 0024 12F0020F 		tst	r2, #2
  85 0028 10D0     		beq	.L27
 342:/home/phong/Documents/thesis/stm32f4/stm-idf/components/stm32f4xx_hal_driver/stm32f4xx_hal_can.c ****     {
  86              		.loc 1 342 0
  87 002a FFF7FEFF 		bl	HAL_GetTick
  88              	.LVL5:
  89 002e 401B     		subs	r0, r0, r5
  90 0030 0A28     		cmp	r0, #10
  91 0032 F5D9     		bls	.L5
 345:/home/phong/Documents/thesis/stm32f4/stm-idf/components/stm32f4xx_hal_driver/stm32f4xx_hal_can.c **** 
  92              		.loc 1 345 0
  93 0034 636A     		ldr	r3, [r4, #36]
  94 0036 43F40033 		orr	r3, r3, #131072
  95 003a 6362     		str	r3, [r4, #36]
 348:/home/phong/Documents/thesis/stm32f4/stm-idf/components/stm32f4xx_hal_driver/stm32f4xx_hal_can.c **** 
  96              		.loc 1 348 0
  97 003c 0523     		movs	r3, #5
  98 003e 84F82030 		strb	r3, [r4, #32]
 350:/home/phong/Documents/thesis/stm32f4/stm-idf/components/stm32f4xx_hal_driver/stm32f4xx_hal_can.c ****     }
  99              		.loc 1 350 0
 100 0042 0120     		movs	r0, #1
 101 0044 38BD     		pop	{r3, r4, r5, pc}
 102              	.LVL6:
 103              	.L26:
 329:/home/phong/Documents/thesis/stm32f4/stm-idf/components/stm32f4xx_hal_driver/stm32f4xx_hal_can.c ****   }
 104              		.loc 1 329 0
 105 0046 FFF7FEFF 		bl	HAL_CAN_MspInit
 106              	.LVL7:
 107 004a E1E7     		b	.L4
 108              	.LVL8:
 109              	.L27:
 355:/home/phong/Documents/thesis/stm32f4/stm-idf/components/stm32f4xx_hal_driver/stm32f4xx_hal_can.c **** 
 110              		.loc 1 355 0
ARM GAS  /tmp/ccW24XdO.s 			page 12


 111 004c 1A68     		ldr	r2, [r3]
 112 004e 42F00102 		orr	r2, r2, #1
 113 0052 1A60     		str	r2, [r3]
 358:/home/phong/Documents/thesis/stm32f4/stm-idf/components/stm32f4xx_hal_driver/stm32f4xx_hal_can.c **** 
 114              		.loc 1 358 0
 115 0054 FFF7FEFF 		bl	HAL_GetTick
 116              	.LVL9:
 117 0058 0546     		mov	r5, r0
 118              	.LVL10:
 119              	.L7:
 361:/home/phong/Documents/thesis/stm32f4/stm-idf/components/stm32f4xx_hal_driver/stm32f4xx_hal_can.c ****   {
 120              		.loc 1 361 0
 121 005a 2368     		ldr	r3, [r4]
 122 005c 5A68     		ldr	r2, [r3, #4]
 123 005e 12F0010F 		tst	r2, #1
 124 0062 0DD1     		bne	.L28
 363:/home/phong/Documents/thesis/stm32f4/stm-idf/components/stm32f4xx_hal_driver/stm32f4xx_hal_can.c ****     {
 125              		.loc 1 363 0
 126 0064 FFF7FEFF 		bl	HAL_GetTick
 127              	.LVL11:
 128 0068 401B     		subs	r0, r0, r5
 129 006a 0A28     		cmp	r0, #10
 130 006c F5D9     		bls	.L7
 366:/home/phong/Documents/thesis/stm32f4/stm-idf/components/stm32f4xx_hal_driver/stm32f4xx_hal_can.c **** 
 131              		.loc 1 366 0
 132 006e 636A     		ldr	r3, [r4, #36]
 133 0070 43F40033 		orr	r3, r3, #131072
 134 0074 6362     		str	r3, [r4, #36]
 369:/home/phong/Documents/thesis/stm32f4/stm-idf/components/stm32f4xx_hal_driver/stm32f4xx_hal_can.c **** 
 135              		.loc 1 369 0
 136 0076 0523     		movs	r3, #5
 137 0078 84F82030 		strb	r3, [r4, #32]
 371:/home/phong/Documents/thesis/stm32f4/stm-idf/components/stm32f4xx_hal_driver/stm32f4xx_hal_can.c ****     }
 138              		.loc 1 371 0
 139 007c 0120     		movs	r0, #1
 140 007e 38BD     		pop	{r3, r4, r5, pc}
 141              	.LVL12:
 142              	.L28:
 376:/home/phong/Documents/thesis/stm32f4/stm-idf/components/stm32f4xx_hal_driver/stm32f4xx_hal_can.c ****   {
 143              		.loc 1 376 0
 144 0080 227E     		ldrb	r2, [r4, #24]	@ zero_extendqisi2
 145 0082 012A     		cmp	r2, #1
 146 0084 3DD0     		beq	.L29
 382:/home/phong/Documents/thesis/stm32f4/stm-idf/components/stm32f4xx_hal_driver/stm32f4xx_hal_can.c ****   }
 147              		.loc 1 382 0
 148 0086 1A68     		ldr	r2, [r3]
 149 0088 22F08002 		bic	r2, r2, #128
 150 008c 1A60     		str	r2, [r3]
 151              	.L10:
 386:/home/phong/Documents/thesis/stm32f4/stm-idf/components/stm32f4xx_hal_driver/stm32f4xx_hal_can.c ****   {
 152              		.loc 1 386 0
 153 008e 637E     		ldrb	r3, [r4, #25]	@ zero_extendqisi2
 154 0090 012B     		cmp	r3, #1
 155 0092 3BD0     		beq	.L30
 392:/home/phong/Documents/thesis/stm32f4/stm-idf/components/stm32f4xx_hal_driver/stm32f4xx_hal_can.c ****   }
 156              		.loc 1 392 0
 157 0094 2268     		ldr	r2, [r4]
ARM GAS  /tmp/ccW24XdO.s 			page 13


 158 0096 1368     		ldr	r3, [r2]
 159 0098 23F04003 		bic	r3, r3, #64
 160 009c 1360     		str	r3, [r2]
 161              	.L12:
 396:/home/phong/Documents/thesis/stm32f4/stm-idf/components/stm32f4xx_hal_driver/stm32f4xx_hal_can.c ****   {
 162              		.loc 1 396 0
 163 009e A37E     		ldrb	r3, [r4, #26]	@ zero_extendqisi2
 164 00a0 012B     		cmp	r3, #1
 165 00a2 39D0     		beq	.L31
 402:/home/phong/Documents/thesis/stm32f4/stm-idf/components/stm32f4xx_hal_driver/stm32f4xx_hal_can.c ****   }
 166              		.loc 1 402 0
 167 00a4 2268     		ldr	r2, [r4]
 168 00a6 1368     		ldr	r3, [r2]
 169 00a8 23F02003 		bic	r3, r3, #32
 170 00ac 1360     		str	r3, [r2]
 171              	.L14:
 406:/home/phong/Documents/thesis/stm32f4/stm-idf/components/stm32f4xx_hal_driver/stm32f4xx_hal_can.c ****   {
 172              		.loc 1 406 0
 173 00ae E37E     		ldrb	r3, [r4, #27]	@ zero_extendqisi2
 174 00b0 012B     		cmp	r3, #1
 175 00b2 37D0     		beq	.L32
 412:/home/phong/Documents/thesis/stm32f4/stm-idf/components/stm32f4xx_hal_driver/stm32f4xx_hal_can.c ****   }
 176              		.loc 1 412 0
 177 00b4 2268     		ldr	r2, [r4]
 178 00b6 1368     		ldr	r3, [r2]
 179 00b8 43F01003 		orr	r3, r3, #16
 180 00bc 1360     		str	r3, [r2]
 181              	.L16:
 416:/home/phong/Documents/thesis/stm32f4/stm-idf/components/stm32f4xx_hal_driver/stm32f4xx_hal_can.c ****   {
 182              		.loc 1 416 0
 183 00be 237F     		ldrb	r3, [r4, #28]	@ zero_extendqisi2
 184 00c0 012B     		cmp	r3, #1
 185 00c2 35D0     		beq	.L33
 422:/home/phong/Documents/thesis/stm32f4/stm-idf/components/stm32f4xx_hal_driver/stm32f4xx_hal_can.c ****   }
 186              		.loc 1 422 0
 187 00c4 2268     		ldr	r2, [r4]
 188 00c6 1368     		ldr	r3, [r2]
 189 00c8 23F00803 		bic	r3, r3, #8
 190 00cc 1360     		str	r3, [r2]
 191              	.L18:
 426:/home/phong/Documents/thesis/stm32f4/stm-idf/components/stm32f4xx_hal_driver/stm32f4xx_hal_can.c ****   {
 192              		.loc 1 426 0
 193 00ce 637F     		ldrb	r3, [r4, #29]	@ zero_extendqisi2
 194 00d0 012B     		cmp	r3, #1
 195 00d2 33D0     		beq	.L34
 432:/home/phong/Documents/thesis/stm32f4/stm-idf/components/stm32f4xx_hal_driver/stm32f4xx_hal_can.c ****   }
 196              		.loc 1 432 0
 197 00d4 2268     		ldr	r2, [r4]
 198 00d6 1368     		ldr	r3, [r2]
 199 00d8 23F00403 		bic	r3, r3, #4
 200 00dc 1360     		str	r3, [r2]
 201              	.L20:
 436:/home/phong/Documents/thesis/stm32f4/stm-idf/components/stm32f4xx_hal_driver/stm32f4xx_hal_can.c ****                                             hcan->Init.SyncJumpWidth  |
 202              		.loc 1 436 0
 203 00de 2168     		ldr	r1, [r4]
 204 00e0 A368     		ldr	r3, [r4, #8]
 205 00e2 E268     		ldr	r2, [r4, #12]
ARM GAS  /tmp/ccW24XdO.s 			page 14


 206 00e4 1343     		orrs	r3, r3, r2
 207 00e6 2269     		ldr	r2, [r4, #16]
 208 00e8 1343     		orrs	r3, r3, r2
 209 00ea 6269     		ldr	r2, [r4, #20]
 210 00ec 1343     		orrs	r3, r3, r2
 211 00ee 6268     		ldr	r2, [r4, #4]
 212 00f0 013A     		subs	r2, r2, #1
 213 00f2 1343     		orrs	r3, r3, r2
 214 00f4 CB61     		str	r3, [r1, #28]
 443:/home/phong/Documents/thesis/stm32f4/stm-idf/components/stm32f4xx_hal_driver/stm32f4xx_hal_can.c **** 
 215              		.loc 1 443 0
 216 00f6 0020     		movs	r0, #0
 217 00f8 6062     		str	r0, [r4, #36]
 446:/home/phong/Documents/thesis/stm32f4/stm-idf/components/stm32f4xx_hal_driver/stm32f4xx_hal_can.c **** 
 218              		.loc 1 446 0
 219 00fa 0123     		movs	r3, #1
 220 00fc 84F82030 		strb	r3, [r4, #32]
 449:/home/phong/Documents/thesis/stm32f4/stm-idf/components/stm32f4xx_hal_driver/stm32f4xx_hal_can.c **** }
 221              		.loc 1 449 0
 222 0100 38BD     		pop	{r3, r4, r5, pc}
 223              	.LVL13:
 224              	.L29:
 378:/home/phong/Documents/thesis/stm32f4/stm-idf/components/stm32f4xx_hal_driver/stm32f4xx_hal_can.c ****   }
 225              		.loc 1 378 0
 226 0102 1A68     		ldr	r2, [r3]
 227 0104 42F08002 		orr	r2, r2, #128
 228 0108 1A60     		str	r2, [r3]
 229 010a C0E7     		b	.L10
 230              	.L30:
 388:/home/phong/Documents/thesis/stm32f4/stm-idf/components/stm32f4xx_hal_driver/stm32f4xx_hal_can.c ****   }
 231              		.loc 1 388 0
 232 010c 2268     		ldr	r2, [r4]
 233 010e 1368     		ldr	r3, [r2]
 234 0110 43F04003 		orr	r3, r3, #64
 235 0114 1360     		str	r3, [r2]
 236 0116 C2E7     		b	.L12
 237              	.L31:
 398:/home/phong/Documents/thesis/stm32f4/stm-idf/components/stm32f4xx_hal_driver/stm32f4xx_hal_can.c ****   }
 238              		.loc 1 398 0
 239 0118 2268     		ldr	r2, [r4]
 240 011a 1368     		ldr	r3, [r2]
 241 011c 43F02003 		orr	r3, r3, #32
 242 0120 1360     		str	r3, [r2]
 243 0122 C4E7     		b	.L14
 244              	.L32:
 408:/home/phong/Documents/thesis/stm32f4/stm-idf/components/stm32f4xx_hal_driver/stm32f4xx_hal_can.c ****   }
 245              		.loc 1 408 0
 246 0124 2268     		ldr	r2, [r4]
 247 0126 1368     		ldr	r3, [r2]
 248 0128 23F01003 		bic	r3, r3, #16
 249 012c 1360     		str	r3, [r2]
 250 012e C6E7     		b	.L16
 251              	.L33:
 418:/home/phong/Documents/thesis/stm32f4/stm-idf/components/stm32f4xx_hal_driver/stm32f4xx_hal_can.c ****   }
 252              		.loc 1 418 0
 253 0130 2268     		ldr	r2, [r4]
 254 0132 1368     		ldr	r3, [r2]
ARM GAS  /tmp/ccW24XdO.s 			page 15


 255 0134 43F00803 		orr	r3, r3, #8
 256 0138 1360     		str	r3, [r2]
 257 013a C8E7     		b	.L18
 258              	.L34:
 428:/home/phong/Documents/thesis/stm32f4/stm-idf/components/stm32f4xx_hal_driver/stm32f4xx_hal_can.c ****   }
 259              		.loc 1 428 0
 260 013c 2268     		ldr	r2, [r4]
 261 013e 1368     		ldr	r3, [r2]
 262 0140 43F00403 		orr	r3, r3, #4
 263 0144 1360     		str	r3, [r2]
 264 0146 CAE7     		b	.L20
 265              	.LVL14:
 266              	.L21:
 267              	.LCFI1:
 268              		.cfi_def_cfa_offset 0
 269              		.cfi_restore 3
 270              		.cfi_restore 4
 271              		.cfi_restore 5
 272              		.cfi_restore 14
 281:/home/phong/Documents/thesis/stm32f4/stm-idf/components/stm32f4xx_hal_driver/stm32f4xx_hal_can.c ****   }
 273              		.loc 1 281 0
 274 0148 0120     		movs	r0, #1
 275              	.LVL15:
 276 014a 7047     		bx	lr
 277              		.cfi_endproc
 278              	.LFE130:
 280              		.section	.text.HAL_CAN_MspDeInit,"ax",%progbits
 281              		.align	1
 282              		.weak	HAL_CAN_MspDeInit
 283              		.syntax unified
 284              		.thumb
 285              		.thumb_func
 286              		.fpu fpv4-sp-d16
 288              	HAL_CAN_MspDeInit:
 289              	.LFB133:
 508:/home/phong/Documents/thesis/stm32f4/stm-idf/components/stm32f4xx_hal_driver/stm32f4xx_hal_can.c ****   /* Prevent unused argument(s) compilation warning */
 509:/home/phong/Documents/thesis/stm32f4/stm-idf/components/stm32f4xx_hal_driver/stm32f4xx_hal_can.c ****   UNUSED(hcan);
 510:/home/phong/Documents/thesis/stm32f4/stm-idf/components/stm32f4xx_hal_driver/stm32f4xx_hal_can.c **** 
 511:/home/phong/Documents/thesis/stm32f4/stm-idf/components/stm32f4xx_hal_driver/stm32f4xx_hal_can.c ****   /* NOTE : This function Should not be modified, when the callback is needed,
 512:/home/phong/Documents/thesis/stm32f4/stm-idf/components/stm32f4xx_hal_driver/stm32f4xx_hal_can.c ****             the HAL_CAN_MspInit could be implemented in the user file
 513:/home/phong/Documents/thesis/stm32f4/stm-idf/components/stm32f4xx_hal_driver/stm32f4xx_hal_can.c ****    */
 514:/home/phong/Documents/thesis/stm32f4/stm-idf/components/stm32f4xx_hal_driver/stm32f4xx_hal_can.c **** }
 515:/home/phong/Documents/thesis/stm32f4/stm-idf/components/stm32f4xx_hal_driver/stm32f4xx_hal_can.c **** 
 516:/home/phong/Documents/thesis/stm32f4/stm-idf/components/stm32f4xx_hal_driver/stm32f4xx_hal_can.c **** /**
 517:/home/phong/Documents/thesis/stm32f4/stm-idf/components/stm32f4xx_hal_driver/stm32f4xx_hal_can.c ****   * @brief  DeInitializes the CAN MSP.
 518:/home/phong/Documents/thesis/stm32f4/stm-idf/components/stm32f4xx_hal_driver/stm32f4xx_hal_can.c ****   * @param  hcan pointer to a CAN_HandleTypeDef structure that contains
 519:/home/phong/Documents/thesis/stm32f4/stm-idf/components/stm32f4xx_hal_driver/stm32f4xx_hal_can.c ****   *         the configuration information for the specified CAN.
 520:/home/phong/Documents/thesis/stm32f4/stm-idf/components/stm32f4xx_hal_driver/stm32f4xx_hal_can.c ****   * @retval None
 521:/home/phong/Documents/thesis/stm32f4/stm-idf/components/stm32f4xx_hal_driver/stm32f4xx_hal_can.c ****   */
 522:/home/phong/Documents/thesis/stm32f4/stm-idf/components/stm32f4xx_hal_driver/stm32f4xx_hal_can.c **** __weak void HAL_CAN_MspDeInit(CAN_HandleTypeDef *hcan)
 523:/home/phong/Documents/thesis/stm32f4/stm-idf/components/stm32f4xx_hal_driver/stm32f4xx_hal_can.c **** {
 290              		.loc 1 523 0
 291              		.cfi_startproc
 292              		@ args = 0, pretend = 0, frame = 0
 293              		@ frame_needed = 0, uses_anonymous_args = 0
 294              		@ link register save eliminated.
 295              	.LVL16:
ARM GAS  /tmp/ccW24XdO.s 			page 16


 296 0000 7047     		bx	lr
 297              		.cfi_endproc
 298              	.LFE133:
 300              		.section	.text.HAL_CAN_ConfigFilter,"ax",%progbits
 301              		.align	1
 302              		.global	HAL_CAN_ConfigFilter
 303              		.syntax unified
 304              		.thumb
 305              		.thumb_func
 306              		.fpu fpv4-sp-d16
 308              	HAL_CAN_ConfigFilter:
 309              	.LFB134:
 524:/home/phong/Documents/thesis/stm32f4/stm-idf/components/stm32f4xx_hal_driver/stm32f4xx_hal_can.c ****   /* Prevent unused argument(s) compilation warning */
 525:/home/phong/Documents/thesis/stm32f4/stm-idf/components/stm32f4xx_hal_driver/stm32f4xx_hal_can.c ****   UNUSED(hcan);
 526:/home/phong/Documents/thesis/stm32f4/stm-idf/components/stm32f4xx_hal_driver/stm32f4xx_hal_can.c **** 
 527:/home/phong/Documents/thesis/stm32f4/stm-idf/components/stm32f4xx_hal_driver/stm32f4xx_hal_can.c ****   /* NOTE : This function Should not be modified, when the callback is needed,
 528:/home/phong/Documents/thesis/stm32f4/stm-idf/components/stm32f4xx_hal_driver/stm32f4xx_hal_can.c ****             the HAL_CAN_MspDeInit could be implemented in the user file
 529:/home/phong/Documents/thesis/stm32f4/stm-idf/components/stm32f4xx_hal_driver/stm32f4xx_hal_can.c ****    */
 530:/home/phong/Documents/thesis/stm32f4/stm-idf/components/stm32f4xx_hal_driver/stm32f4xx_hal_can.c **** }
 531:/home/phong/Documents/thesis/stm32f4/stm-idf/components/stm32f4xx_hal_driver/stm32f4xx_hal_can.c **** 
 532:/home/phong/Documents/thesis/stm32f4/stm-idf/components/stm32f4xx_hal_driver/stm32f4xx_hal_can.c **** #if USE_HAL_CAN_REGISTER_CALLBACKS == 1
 533:/home/phong/Documents/thesis/stm32f4/stm-idf/components/stm32f4xx_hal_driver/stm32f4xx_hal_can.c **** /**
 534:/home/phong/Documents/thesis/stm32f4/stm-idf/components/stm32f4xx_hal_driver/stm32f4xx_hal_can.c ****   * @brief  Register a CAN CallBack.
 535:/home/phong/Documents/thesis/stm32f4/stm-idf/components/stm32f4xx_hal_driver/stm32f4xx_hal_can.c ****   *         To be used instead of the weak predefined callback
 536:/home/phong/Documents/thesis/stm32f4/stm-idf/components/stm32f4xx_hal_driver/stm32f4xx_hal_can.c ****   * @param  hcan pointer to a CAN_HandleTypeDef structure that contains
 537:/home/phong/Documents/thesis/stm32f4/stm-idf/components/stm32f4xx_hal_driver/stm32f4xx_hal_can.c ****   *         the configuration information for CAN module
 538:/home/phong/Documents/thesis/stm32f4/stm-idf/components/stm32f4xx_hal_driver/stm32f4xx_hal_can.c ****   * @param  CallbackID ID of the callback to be registered
 539:/home/phong/Documents/thesis/stm32f4/stm-idf/components/stm32f4xx_hal_driver/stm32f4xx_hal_can.c ****   *         This parameter can be one of the following values:
 540:/home/phong/Documents/thesis/stm32f4/stm-idf/components/stm32f4xx_hal_driver/stm32f4xx_hal_can.c ****   *           @arg @ref HAL_CAN_TX_MAILBOX0_COMPLETE_CALLBACK_CB_ID Tx Mailbox 0 Complete callback 
 541:/home/phong/Documents/thesis/stm32f4/stm-idf/components/stm32f4xx_hal_driver/stm32f4xx_hal_can.c ****   *           @arg @ref HAL_CAN_TX_MAILBOX1_COMPLETE_CALLBACK_CB_ID Tx Mailbox 1 Complete callback 
 542:/home/phong/Documents/thesis/stm32f4/stm-idf/components/stm32f4xx_hal_driver/stm32f4xx_hal_can.c ****   *           @arg @ref HAL_CAN_TX_MAILBOX2_COMPLETE_CALLBACK_CB_ID Tx Mailbox 2 Complete callback 
 543:/home/phong/Documents/thesis/stm32f4/stm-idf/components/stm32f4xx_hal_driver/stm32f4xx_hal_can.c ****   *           @arg @ref HAL_CAN_TX_MAILBOX0_ABORT_CALLBACK_CB_ID Tx Mailbox 0 Abort callback ID
 544:/home/phong/Documents/thesis/stm32f4/stm-idf/components/stm32f4xx_hal_driver/stm32f4xx_hal_can.c ****   *           @arg @ref HAL_CAN_TX_MAILBOX1_ABORT_CALLBACK_CB_ID Tx Mailbox 1 Abort callback ID
 545:/home/phong/Documents/thesis/stm32f4/stm-idf/components/stm32f4xx_hal_driver/stm32f4xx_hal_can.c ****   *           @arg @ref HAL_CAN_TX_MAILBOX2_ABORT_CALLBACK_CB_ID Tx Mailbox 2 Abort callback ID
 546:/home/phong/Documents/thesis/stm32f4/stm-idf/components/stm32f4xx_hal_driver/stm32f4xx_hal_can.c ****   *           @arg @ref HAL_CAN_RX_FIFO0_MSG_PENDING_CALLBACK_CB_ID Rx Fifo 0 message pending callb
 547:/home/phong/Documents/thesis/stm32f4/stm-idf/components/stm32f4xx_hal_driver/stm32f4xx_hal_can.c ****   *           @arg @ref HAL_CAN_RX_FIFO0_FULL_CALLBACK_CB_ID Rx Fifo 0 full callback ID
 548:/home/phong/Documents/thesis/stm32f4/stm-idf/components/stm32f4xx_hal_driver/stm32f4xx_hal_can.c ****   *           @arg @ref HAL_CAN_RX_FIFO1_MSGPENDING_CALLBACK_CB_ID Rx Fifo 1 message pending callba
 549:/home/phong/Documents/thesis/stm32f4/stm-idf/components/stm32f4xx_hal_driver/stm32f4xx_hal_can.c ****   *           @arg @ref HAL_CAN_RX_FIFO1_FULL_CALLBACK_CB_ID Rx Fifo 1 full callback ID
 550:/home/phong/Documents/thesis/stm32f4/stm-idf/components/stm32f4xx_hal_driver/stm32f4xx_hal_can.c ****   *           @arg @ref HAL_CAN_SLEEP_CALLBACK_CB_ID Sleep callback ID
 551:/home/phong/Documents/thesis/stm32f4/stm-idf/components/stm32f4xx_hal_driver/stm32f4xx_hal_can.c ****   *           @arg @ref HAL_CAN_WAKEUP_FROM_RX_MSG_CALLBACK_CB_ID Wake Up from Rx message callback 
 552:/home/phong/Documents/thesis/stm32f4/stm-idf/components/stm32f4xx_hal_driver/stm32f4xx_hal_can.c ****   *           @arg @ref HAL_CAN_ERROR_CALLBACK_CB_ID Error callback ID
 553:/home/phong/Documents/thesis/stm32f4/stm-idf/components/stm32f4xx_hal_driver/stm32f4xx_hal_can.c ****   *           @arg @ref HAL_CAN_MSPINIT_CB_ID MspInit callback ID
 554:/home/phong/Documents/thesis/stm32f4/stm-idf/components/stm32f4xx_hal_driver/stm32f4xx_hal_can.c ****   *           @arg @ref HAL_CAN_MSPDEINIT_CB_ID MspDeInit callback ID
 555:/home/phong/Documents/thesis/stm32f4/stm-idf/components/stm32f4xx_hal_driver/stm32f4xx_hal_can.c ****   * @param  pCallback pointer to the Callback function
 556:/home/phong/Documents/thesis/stm32f4/stm-idf/components/stm32f4xx_hal_driver/stm32f4xx_hal_can.c ****   * @retval HAL status
 557:/home/phong/Documents/thesis/stm32f4/stm-idf/components/stm32f4xx_hal_driver/stm32f4xx_hal_can.c ****   */
 558:/home/phong/Documents/thesis/stm32f4/stm-idf/components/stm32f4xx_hal_driver/stm32f4xx_hal_can.c **** HAL_StatusTypeDef HAL_CAN_RegisterCallback(CAN_HandleTypeDef *hcan, HAL_CAN_CallbackIDTypeDef Callb
 559:/home/phong/Documents/thesis/stm32f4/stm-idf/components/stm32f4xx_hal_driver/stm32f4xx_hal_can.c **** {
 560:/home/phong/Documents/thesis/stm32f4/stm-idf/components/stm32f4xx_hal_driver/stm32f4xx_hal_can.c ****   HAL_StatusTypeDef status = HAL_OK;
 561:/home/phong/Documents/thesis/stm32f4/stm-idf/components/stm32f4xx_hal_driver/stm32f4xx_hal_can.c **** 
 562:/home/phong/Documents/thesis/stm32f4/stm-idf/components/stm32f4xx_hal_driver/stm32f4xx_hal_can.c ****   if (pCallback == NULL)
 563:/home/phong/Documents/thesis/stm32f4/stm-idf/components/stm32f4xx_hal_driver/stm32f4xx_hal_can.c ****   {
 564:/home/phong/Documents/thesis/stm32f4/stm-idf/components/stm32f4xx_hal_driver/stm32f4xx_hal_can.c ****     /* Update the error code */
 565:/home/phong/Documents/thesis/stm32f4/stm-idf/components/stm32f4xx_hal_driver/stm32f4xx_hal_can.c ****     hcan->ErrorCode |= HAL_CAN_ERROR_INVALID_CALLBACK;
 566:/home/phong/Documents/thesis/stm32f4/stm-idf/components/stm32f4xx_hal_driver/stm32f4xx_hal_can.c **** 
 567:/home/phong/Documents/thesis/stm32f4/stm-idf/components/stm32f4xx_hal_driver/stm32f4xx_hal_can.c ****     return HAL_ERROR;
 568:/home/phong/Documents/thesis/stm32f4/stm-idf/components/stm32f4xx_hal_driver/stm32f4xx_hal_can.c ****   }
ARM GAS  /tmp/ccW24XdO.s 			page 17


 569:/home/phong/Documents/thesis/stm32f4/stm-idf/components/stm32f4xx_hal_driver/stm32f4xx_hal_can.c **** 
 570:/home/phong/Documents/thesis/stm32f4/stm-idf/components/stm32f4xx_hal_driver/stm32f4xx_hal_can.c ****   if (hcan->State == HAL_CAN_STATE_READY)
 571:/home/phong/Documents/thesis/stm32f4/stm-idf/components/stm32f4xx_hal_driver/stm32f4xx_hal_can.c ****   {
 572:/home/phong/Documents/thesis/stm32f4/stm-idf/components/stm32f4xx_hal_driver/stm32f4xx_hal_can.c ****     switch (CallbackID)
 573:/home/phong/Documents/thesis/stm32f4/stm-idf/components/stm32f4xx_hal_driver/stm32f4xx_hal_can.c ****     {
 574:/home/phong/Documents/thesis/stm32f4/stm-idf/components/stm32f4xx_hal_driver/stm32f4xx_hal_can.c ****       case HAL_CAN_TX_MAILBOX0_COMPLETE_CB_ID :
 575:/home/phong/Documents/thesis/stm32f4/stm-idf/components/stm32f4xx_hal_driver/stm32f4xx_hal_can.c ****         hcan->TxMailbox0CompleteCallback = pCallback;
 576:/home/phong/Documents/thesis/stm32f4/stm-idf/components/stm32f4xx_hal_driver/stm32f4xx_hal_can.c ****         break;
 577:/home/phong/Documents/thesis/stm32f4/stm-idf/components/stm32f4xx_hal_driver/stm32f4xx_hal_can.c **** 
 578:/home/phong/Documents/thesis/stm32f4/stm-idf/components/stm32f4xx_hal_driver/stm32f4xx_hal_can.c ****       case HAL_CAN_TX_MAILBOX1_COMPLETE_CB_ID :
 579:/home/phong/Documents/thesis/stm32f4/stm-idf/components/stm32f4xx_hal_driver/stm32f4xx_hal_can.c ****         hcan->TxMailbox1CompleteCallback = pCallback;
 580:/home/phong/Documents/thesis/stm32f4/stm-idf/components/stm32f4xx_hal_driver/stm32f4xx_hal_can.c ****         break;
 581:/home/phong/Documents/thesis/stm32f4/stm-idf/components/stm32f4xx_hal_driver/stm32f4xx_hal_can.c **** 
 582:/home/phong/Documents/thesis/stm32f4/stm-idf/components/stm32f4xx_hal_driver/stm32f4xx_hal_can.c ****       case HAL_CAN_TX_MAILBOX2_COMPLETE_CB_ID :
 583:/home/phong/Documents/thesis/stm32f4/stm-idf/components/stm32f4xx_hal_driver/stm32f4xx_hal_can.c ****         hcan->TxMailbox2CompleteCallback = pCallback;
 584:/home/phong/Documents/thesis/stm32f4/stm-idf/components/stm32f4xx_hal_driver/stm32f4xx_hal_can.c ****         break;
 585:/home/phong/Documents/thesis/stm32f4/stm-idf/components/stm32f4xx_hal_driver/stm32f4xx_hal_can.c **** 
 586:/home/phong/Documents/thesis/stm32f4/stm-idf/components/stm32f4xx_hal_driver/stm32f4xx_hal_can.c ****       case HAL_CAN_TX_MAILBOX0_ABORT_CB_ID :
 587:/home/phong/Documents/thesis/stm32f4/stm-idf/components/stm32f4xx_hal_driver/stm32f4xx_hal_can.c ****         hcan->TxMailbox0AbortCallback = pCallback;
 588:/home/phong/Documents/thesis/stm32f4/stm-idf/components/stm32f4xx_hal_driver/stm32f4xx_hal_can.c ****         break;
 589:/home/phong/Documents/thesis/stm32f4/stm-idf/components/stm32f4xx_hal_driver/stm32f4xx_hal_can.c **** 
 590:/home/phong/Documents/thesis/stm32f4/stm-idf/components/stm32f4xx_hal_driver/stm32f4xx_hal_can.c ****       case HAL_CAN_TX_MAILBOX1_ABORT_CB_ID :
 591:/home/phong/Documents/thesis/stm32f4/stm-idf/components/stm32f4xx_hal_driver/stm32f4xx_hal_can.c ****         hcan->TxMailbox1AbortCallback = pCallback;
 592:/home/phong/Documents/thesis/stm32f4/stm-idf/components/stm32f4xx_hal_driver/stm32f4xx_hal_can.c ****         break;
 593:/home/phong/Documents/thesis/stm32f4/stm-idf/components/stm32f4xx_hal_driver/stm32f4xx_hal_can.c **** 
 594:/home/phong/Documents/thesis/stm32f4/stm-idf/components/stm32f4xx_hal_driver/stm32f4xx_hal_can.c ****       case HAL_CAN_TX_MAILBOX2_ABORT_CB_ID :
 595:/home/phong/Documents/thesis/stm32f4/stm-idf/components/stm32f4xx_hal_driver/stm32f4xx_hal_can.c ****         hcan->TxMailbox2AbortCallback = pCallback;
 596:/home/phong/Documents/thesis/stm32f4/stm-idf/components/stm32f4xx_hal_driver/stm32f4xx_hal_can.c ****         break;
 597:/home/phong/Documents/thesis/stm32f4/stm-idf/components/stm32f4xx_hal_driver/stm32f4xx_hal_can.c **** 
 598:/home/phong/Documents/thesis/stm32f4/stm-idf/components/stm32f4xx_hal_driver/stm32f4xx_hal_can.c ****       case HAL_CAN_RX_FIFO0_MSG_PENDING_CB_ID :
 599:/home/phong/Documents/thesis/stm32f4/stm-idf/components/stm32f4xx_hal_driver/stm32f4xx_hal_can.c ****         hcan->RxFifo0MsgPendingCallback = pCallback;
 600:/home/phong/Documents/thesis/stm32f4/stm-idf/components/stm32f4xx_hal_driver/stm32f4xx_hal_can.c ****         break;
 601:/home/phong/Documents/thesis/stm32f4/stm-idf/components/stm32f4xx_hal_driver/stm32f4xx_hal_can.c **** 
 602:/home/phong/Documents/thesis/stm32f4/stm-idf/components/stm32f4xx_hal_driver/stm32f4xx_hal_can.c ****       case HAL_CAN_RX_FIFO0_FULL_CB_ID :
 603:/home/phong/Documents/thesis/stm32f4/stm-idf/components/stm32f4xx_hal_driver/stm32f4xx_hal_can.c ****         hcan->RxFifo0FullCallback = pCallback;
 604:/home/phong/Documents/thesis/stm32f4/stm-idf/components/stm32f4xx_hal_driver/stm32f4xx_hal_can.c ****         break;
 605:/home/phong/Documents/thesis/stm32f4/stm-idf/components/stm32f4xx_hal_driver/stm32f4xx_hal_can.c **** 
 606:/home/phong/Documents/thesis/stm32f4/stm-idf/components/stm32f4xx_hal_driver/stm32f4xx_hal_can.c ****       case HAL_CAN_RX_FIFO1_MSG_PENDING_CB_ID :
 607:/home/phong/Documents/thesis/stm32f4/stm-idf/components/stm32f4xx_hal_driver/stm32f4xx_hal_can.c ****         hcan->RxFifo1MsgPendingCallback = pCallback;
 608:/home/phong/Documents/thesis/stm32f4/stm-idf/components/stm32f4xx_hal_driver/stm32f4xx_hal_can.c ****         break;
 609:/home/phong/Documents/thesis/stm32f4/stm-idf/components/stm32f4xx_hal_driver/stm32f4xx_hal_can.c **** 
 610:/home/phong/Documents/thesis/stm32f4/stm-idf/components/stm32f4xx_hal_driver/stm32f4xx_hal_can.c ****       case HAL_CAN_RX_FIFO1_FULL_CB_ID :
 611:/home/phong/Documents/thesis/stm32f4/stm-idf/components/stm32f4xx_hal_driver/stm32f4xx_hal_can.c ****         hcan->RxFifo1FullCallback = pCallback;
 612:/home/phong/Documents/thesis/stm32f4/stm-idf/components/stm32f4xx_hal_driver/stm32f4xx_hal_can.c ****         break;
 613:/home/phong/Documents/thesis/stm32f4/stm-idf/components/stm32f4xx_hal_driver/stm32f4xx_hal_can.c **** 
 614:/home/phong/Documents/thesis/stm32f4/stm-idf/components/stm32f4xx_hal_driver/stm32f4xx_hal_can.c ****       case HAL_CAN_SLEEP_CB_ID :
 615:/home/phong/Documents/thesis/stm32f4/stm-idf/components/stm32f4xx_hal_driver/stm32f4xx_hal_can.c ****         hcan->SleepCallback = pCallback;
 616:/home/phong/Documents/thesis/stm32f4/stm-idf/components/stm32f4xx_hal_driver/stm32f4xx_hal_can.c ****         break;
 617:/home/phong/Documents/thesis/stm32f4/stm-idf/components/stm32f4xx_hal_driver/stm32f4xx_hal_can.c **** 
 618:/home/phong/Documents/thesis/stm32f4/stm-idf/components/stm32f4xx_hal_driver/stm32f4xx_hal_can.c ****       case HAL_CAN_WAKEUP_FROM_RX_MSG_CB_ID :
 619:/home/phong/Documents/thesis/stm32f4/stm-idf/components/stm32f4xx_hal_driver/stm32f4xx_hal_can.c ****         hcan->WakeUpFromRxMsgCallback = pCallback;
 620:/home/phong/Documents/thesis/stm32f4/stm-idf/components/stm32f4xx_hal_driver/stm32f4xx_hal_can.c ****         break;
 621:/home/phong/Documents/thesis/stm32f4/stm-idf/components/stm32f4xx_hal_driver/stm32f4xx_hal_can.c **** 
 622:/home/phong/Documents/thesis/stm32f4/stm-idf/components/stm32f4xx_hal_driver/stm32f4xx_hal_can.c ****       case HAL_CAN_ERROR_CB_ID :
 623:/home/phong/Documents/thesis/stm32f4/stm-idf/components/stm32f4xx_hal_driver/stm32f4xx_hal_can.c ****         hcan->ErrorCallback = pCallback;
 624:/home/phong/Documents/thesis/stm32f4/stm-idf/components/stm32f4xx_hal_driver/stm32f4xx_hal_can.c ****         break;
 625:/home/phong/Documents/thesis/stm32f4/stm-idf/components/stm32f4xx_hal_driver/stm32f4xx_hal_can.c **** 
ARM GAS  /tmp/ccW24XdO.s 			page 18


 626:/home/phong/Documents/thesis/stm32f4/stm-idf/components/stm32f4xx_hal_driver/stm32f4xx_hal_can.c ****       case HAL_CAN_MSPINIT_CB_ID :
 627:/home/phong/Documents/thesis/stm32f4/stm-idf/components/stm32f4xx_hal_driver/stm32f4xx_hal_can.c ****         hcan->MspInitCallback = pCallback;
 628:/home/phong/Documents/thesis/stm32f4/stm-idf/components/stm32f4xx_hal_driver/stm32f4xx_hal_can.c ****         break;
 629:/home/phong/Documents/thesis/stm32f4/stm-idf/components/stm32f4xx_hal_driver/stm32f4xx_hal_can.c **** 
 630:/home/phong/Documents/thesis/stm32f4/stm-idf/components/stm32f4xx_hal_driver/stm32f4xx_hal_can.c ****       case HAL_CAN_MSPDEINIT_CB_ID :
 631:/home/phong/Documents/thesis/stm32f4/stm-idf/components/stm32f4xx_hal_driver/stm32f4xx_hal_can.c ****         hcan->MspDeInitCallback = pCallback;
 632:/home/phong/Documents/thesis/stm32f4/stm-idf/components/stm32f4xx_hal_driver/stm32f4xx_hal_can.c ****         break;
 633:/home/phong/Documents/thesis/stm32f4/stm-idf/components/stm32f4xx_hal_driver/stm32f4xx_hal_can.c **** 
 634:/home/phong/Documents/thesis/stm32f4/stm-idf/components/stm32f4xx_hal_driver/stm32f4xx_hal_can.c ****       default :
 635:/home/phong/Documents/thesis/stm32f4/stm-idf/components/stm32f4xx_hal_driver/stm32f4xx_hal_can.c ****         /* Update the error code */
 636:/home/phong/Documents/thesis/stm32f4/stm-idf/components/stm32f4xx_hal_driver/stm32f4xx_hal_can.c ****         hcan->ErrorCode |= HAL_CAN_ERROR_INVALID_CALLBACK;
 637:/home/phong/Documents/thesis/stm32f4/stm-idf/components/stm32f4xx_hal_driver/stm32f4xx_hal_can.c **** 
 638:/home/phong/Documents/thesis/stm32f4/stm-idf/components/stm32f4xx_hal_driver/stm32f4xx_hal_can.c ****         /* Return error status */
 639:/home/phong/Documents/thesis/stm32f4/stm-idf/components/stm32f4xx_hal_driver/stm32f4xx_hal_can.c ****         status =  HAL_ERROR;
 640:/home/phong/Documents/thesis/stm32f4/stm-idf/components/stm32f4xx_hal_driver/stm32f4xx_hal_can.c ****         break;
 641:/home/phong/Documents/thesis/stm32f4/stm-idf/components/stm32f4xx_hal_driver/stm32f4xx_hal_can.c ****     }
 642:/home/phong/Documents/thesis/stm32f4/stm-idf/components/stm32f4xx_hal_driver/stm32f4xx_hal_can.c ****   }
 643:/home/phong/Documents/thesis/stm32f4/stm-idf/components/stm32f4xx_hal_driver/stm32f4xx_hal_can.c ****   else if (hcan->State == HAL_CAN_STATE_RESET)
 644:/home/phong/Documents/thesis/stm32f4/stm-idf/components/stm32f4xx_hal_driver/stm32f4xx_hal_can.c ****   {
 645:/home/phong/Documents/thesis/stm32f4/stm-idf/components/stm32f4xx_hal_driver/stm32f4xx_hal_can.c ****     switch (CallbackID)
 646:/home/phong/Documents/thesis/stm32f4/stm-idf/components/stm32f4xx_hal_driver/stm32f4xx_hal_can.c ****     {
 647:/home/phong/Documents/thesis/stm32f4/stm-idf/components/stm32f4xx_hal_driver/stm32f4xx_hal_can.c ****       case HAL_CAN_MSPINIT_CB_ID :
 648:/home/phong/Documents/thesis/stm32f4/stm-idf/components/stm32f4xx_hal_driver/stm32f4xx_hal_can.c ****         hcan->MspInitCallback = pCallback;
 649:/home/phong/Documents/thesis/stm32f4/stm-idf/components/stm32f4xx_hal_driver/stm32f4xx_hal_can.c ****         break;
 650:/home/phong/Documents/thesis/stm32f4/stm-idf/components/stm32f4xx_hal_driver/stm32f4xx_hal_can.c **** 
 651:/home/phong/Documents/thesis/stm32f4/stm-idf/components/stm32f4xx_hal_driver/stm32f4xx_hal_can.c ****       case HAL_CAN_MSPDEINIT_CB_ID :
 652:/home/phong/Documents/thesis/stm32f4/stm-idf/components/stm32f4xx_hal_driver/stm32f4xx_hal_can.c ****         hcan->MspDeInitCallback = pCallback;
 653:/home/phong/Documents/thesis/stm32f4/stm-idf/components/stm32f4xx_hal_driver/stm32f4xx_hal_can.c ****         break;
 654:/home/phong/Documents/thesis/stm32f4/stm-idf/components/stm32f4xx_hal_driver/stm32f4xx_hal_can.c **** 
 655:/home/phong/Documents/thesis/stm32f4/stm-idf/components/stm32f4xx_hal_driver/stm32f4xx_hal_can.c ****       default :
 656:/home/phong/Documents/thesis/stm32f4/stm-idf/components/stm32f4xx_hal_driver/stm32f4xx_hal_can.c ****         /* Update the error code */
 657:/home/phong/Documents/thesis/stm32f4/stm-idf/components/stm32f4xx_hal_driver/stm32f4xx_hal_can.c ****         hcan->ErrorCode |= HAL_CAN_ERROR_INVALID_CALLBACK;
 658:/home/phong/Documents/thesis/stm32f4/stm-idf/components/stm32f4xx_hal_driver/stm32f4xx_hal_can.c **** 
 659:/home/phong/Documents/thesis/stm32f4/stm-idf/components/stm32f4xx_hal_driver/stm32f4xx_hal_can.c ****         /* Return error status */
 660:/home/phong/Documents/thesis/stm32f4/stm-idf/components/stm32f4xx_hal_driver/stm32f4xx_hal_can.c ****         status =  HAL_ERROR;
 661:/home/phong/Documents/thesis/stm32f4/stm-idf/components/stm32f4xx_hal_driver/stm32f4xx_hal_can.c ****         break;
 662:/home/phong/Documents/thesis/stm32f4/stm-idf/components/stm32f4xx_hal_driver/stm32f4xx_hal_can.c ****     }
 663:/home/phong/Documents/thesis/stm32f4/stm-idf/components/stm32f4xx_hal_driver/stm32f4xx_hal_can.c ****   }
 664:/home/phong/Documents/thesis/stm32f4/stm-idf/components/stm32f4xx_hal_driver/stm32f4xx_hal_can.c ****   else
 665:/home/phong/Documents/thesis/stm32f4/stm-idf/components/stm32f4xx_hal_driver/stm32f4xx_hal_can.c ****   {
 666:/home/phong/Documents/thesis/stm32f4/stm-idf/components/stm32f4xx_hal_driver/stm32f4xx_hal_can.c ****     /* Update the error code */
 667:/home/phong/Documents/thesis/stm32f4/stm-idf/components/stm32f4xx_hal_driver/stm32f4xx_hal_can.c ****     hcan->ErrorCode |= HAL_CAN_ERROR_INVALID_CALLBACK;
 668:/home/phong/Documents/thesis/stm32f4/stm-idf/components/stm32f4xx_hal_driver/stm32f4xx_hal_can.c **** 
 669:/home/phong/Documents/thesis/stm32f4/stm-idf/components/stm32f4xx_hal_driver/stm32f4xx_hal_can.c ****     /* Return error status */
 670:/home/phong/Documents/thesis/stm32f4/stm-idf/components/stm32f4xx_hal_driver/stm32f4xx_hal_can.c ****     status =  HAL_ERROR;
 671:/home/phong/Documents/thesis/stm32f4/stm-idf/components/stm32f4xx_hal_driver/stm32f4xx_hal_can.c ****   }
 672:/home/phong/Documents/thesis/stm32f4/stm-idf/components/stm32f4xx_hal_driver/stm32f4xx_hal_can.c **** 
 673:/home/phong/Documents/thesis/stm32f4/stm-idf/components/stm32f4xx_hal_driver/stm32f4xx_hal_can.c ****   return status;
 674:/home/phong/Documents/thesis/stm32f4/stm-idf/components/stm32f4xx_hal_driver/stm32f4xx_hal_can.c **** }
 675:/home/phong/Documents/thesis/stm32f4/stm-idf/components/stm32f4xx_hal_driver/stm32f4xx_hal_can.c **** 
 676:/home/phong/Documents/thesis/stm32f4/stm-idf/components/stm32f4xx_hal_driver/stm32f4xx_hal_can.c **** /**
 677:/home/phong/Documents/thesis/stm32f4/stm-idf/components/stm32f4xx_hal_driver/stm32f4xx_hal_can.c ****   * @brief  Unregister a CAN CallBack.
 678:/home/phong/Documents/thesis/stm32f4/stm-idf/components/stm32f4xx_hal_driver/stm32f4xx_hal_can.c ****   *         CAN callabck is redirected to the weak predefined callback
 679:/home/phong/Documents/thesis/stm32f4/stm-idf/components/stm32f4xx_hal_driver/stm32f4xx_hal_can.c ****   * @param  hcan pointer to a CAN_HandleTypeDef structure that contains
 680:/home/phong/Documents/thesis/stm32f4/stm-idf/components/stm32f4xx_hal_driver/stm32f4xx_hal_can.c ****   *         the configuration information for CAN module
 681:/home/phong/Documents/thesis/stm32f4/stm-idf/components/stm32f4xx_hal_driver/stm32f4xx_hal_can.c ****   * @param  CallbackID ID of the callback to be unregistered
 682:/home/phong/Documents/thesis/stm32f4/stm-idf/components/stm32f4xx_hal_driver/stm32f4xx_hal_can.c ****   *         This parameter can be one of the following values:
ARM GAS  /tmp/ccW24XdO.s 			page 19


 683:/home/phong/Documents/thesis/stm32f4/stm-idf/components/stm32f4xx_hal_driver/stm32f4xx_hal_can.c ****   *           @arg @ref HAL_CAN_TX_MAILBOX0_COMPLETE_CALLBACK_CB_ID Tx Mailbox 0 Complete callback 
 684:/home/phong/Documents/thesis/stm32f4/stm-idf/components/stm32f4xx_hal_driver/stm32f4xx_hal_can.c ****   *           @arg @ref HAL_CAN_TX_MAILBOX1_COMPLETE_CALLBACK_CB_ID Tx Mailbox 1 Complete callback 
 685:/home/phong/Documents/thesis/stm32f4/stm-idf/components/stm32f4xx_hal_driver/stm32f4xx_hal_can.c ****   *           @arg @ref HAL_CAN_TX_MAILBOX2_COMPLETE_CALLBACK_CB_ID Tx Mailbox 2 Complete callback 
 686:/home/phong/Documents/thesis/stm32f4/stm-idf/components/stm32f4xx_hal_driver/stm32f4xx_hal_can.c ****   *           @arg @ref HAL_CAN_TX_MAILBOX0_ABORT_CALLBACK_CB_ID Tx Mailbox 0 Abort callback ID
 687:/home/phong/Documents/thesis/stm32f4/stm-idf/components/stm32f4xx_hal_driver/stm32f4xx_hal_can.c ****   *           @arg @ref HAL_CAN_TX_MAILBOX1_ABORT_CALLBACK_CB_ID Tx Mailbox 1 Abort callback ID
 688:/home/phong/Documents/thesis/stm32f4/stm-idf/components/stm32f4xx_hal_driver/stm32f4xx_hal_can.c ****   *           @arg @ref HAL_CAN_TX_MAILBOX2_ABORT_CALLBACK_CB_ID Tx Mailbox 2 Abort callback ID
 689:/home/phong/Documents/thesis/stm32f4/stm-idf/components/stm32f4xx_hal_driver/stm32f4xx_hal_can.c ****   *           @arg @ref HAL_CAN_RX_FIFO0_MSG_PENDING_CALLBACK_CB_ID Rx Fifo 0 message pending callb
 690:/home/phong/Documents/thesis/stm32f4/stm-idf/components/stm32f4xx_hal_driver/stm32f4xx_hal_can.c ****   *           @arg @ref HAL_CAN_RX_FIFO0_FULL_CALLBACK_CB_ID Rx Fifo 0 full callback ID
 691:/home/phong/Documents/thesis/stm32f4/stm-idf/components/stm32f4xx_hal_driver/stm32f4xx_hal_can.c ****   *           @arg @ref HAL_CAN_RX_FIFO1_MSGPENDING_CALLBACK_CB_ID Rx Fifo 1 message pending callba
 692:/home/phong/Documents/thesis/stm32f4/stm-idf/components/stm32f4xx_hal_driver/stm32f4xx_hal_can.c ****   *           @arg @ref HAL_CAN_RX_FIFO1_FULL_CALLBACK_CB_ID Rx Fifo 1 full callback ID
 693:/home/phong/Documents/thesis/stm32f4/stm-idf/components/stm32f4xx_hal_driver/stm32f4xx_hal_can.c ****   *           @arg @ref HAL_CAN_SLEEP_CALLBACK_CB_ID Sleep callback ID
 694:/home/phong/Documents/thesis/stm32f4/stm-idf/components/stm32f4xx_hal_driver/stm32f4xx_hal_can.c ****   *           @arg @ref HAL_CAN_WAKEUP_FROM_RX_MSG_CALLBACK_CB_ID Wake Up from Rx message callback 
 695:/home/phong/Documents/thesis/stm32f4/stm-idf/components/stm32f4xx_hal_driver/stm32f4xx_hal_can.c ****   *           @arg @ref HAL_CAN_ERROR_CALLBACK_CB_ID Error callback ID
 696:/home/phong/Documents/thesis/stm32f4/stm-idf/components/stm32f4xx_hal_driver/stm32f4xx_hal_can.c ****   *           @arg @ref HAL_CAN_MSPINIT_CB_ID MspInit callback ID
 697:/home/phong/Documents/thesis/stm32f4/stm-idf/components/stm32f4xx_hal_driver/stm32f4xx_hal_can.c ****   *           @arg @ref HAL_CAN_MSPDEINIT_CB_ID MspDeInit callback ID
 698:/home/phong/Documents/thesis/stm32f4/stm-idf/components/stm32f4xx_hal_driver/stm32f4xx_hal_can.c ****   * @retval HAL status
 699:/home/phong/Documents/thesis/stm32f4/stm-idf/components/stm32f4xx_hal_driver/stm32f4xx_hal_can.c ****   */
 700:/home/phong/Documents/thesis/stm32f4/stm-idf/components/stm32f4xx_hal_driver/stm32f4xx_hal_can.c **** HAL_StatusTypeDef HAL_CAN_UnRegisterCallback(CAN_HandleTypeDef *hcan, HAL_CAN_CallbackIDTypeDef Cal
 701:/home/phong/Documents/thesis/stm32f4/stm-idf/components/stm32f4xx_hal_driver/stm32f4xx_hal_can.c **** {
 702:/home/phong/Documents/thesis/stm32f4/stm-idf/components/stm32f4xx_hal_driver/stm32f4xx_hal_can.c ****   HAL_StatusTypeDef status = HAL_OK;
 703:/home/phong/Documents/thesis/stm32f4/stm-idf/components/stm32f4xx_hal_driver/stm32f4xx_hal_can.c **** 
 704:/home/phong/Documents/thesis/stm32f4/stm-idf/components/stm32f4xx_hal_driver/stm32f4xx_hal_can.c ****   if (hcan->State == HAL_CAN_STATE_READY)
 705:/home/phong/Documents/thesis/stm32f4/stm-idf/components/stm32f4xx_hal_driver/stm32f4xx_hal_can.c ****   {
 706:/home/phong/Documents/thesis/stm32f4/stm-idf/components/stm32f4xx_hal_driver/stm32f4xx_hal_can.c ****     switch (CallbackID)
 707:/home/phong/Documents/thesis/stm32f4/stm-idf/components/stm32f4xx_hal_driver/stm32f4xx_hal_can.c ****     {
 708:/home/phong/Documents/thesis/stm32f4/stm-idf/components/stm32f4xx_hal_driver/stm32f4xx_hal_can.c ****       case HAL_CAN_TX_MAILBOX0_COMPLETE_CB_ID :
 709:/home/phong/Documents/thesis/stm32f4/stm-idf/components/stm32f4xx_hal_driver/stm32f4xx_hal_can.c ****         hcan->TxMailbox0CompleteCallback = HAL_CAN_TxMailbox0CompleteCallback;
 710:/home/phong/Documents/thesis/stm32f4/stm-idf/components/stm32f4xx_hal_driver/stm32f4xx_hal_can.c ****         break;
 711:/home/phong/Documents/thesis/stm32f4/stm-idf/components/stm32f4xx_hal_driver/stm32f4xx_hal_can.c **** 
 712:/home/phong/Documents/thesis/stm32f4/stm-idf/components/stm32f4xx_hal_driver/stm32f4xx_hal_can.c ****       case HAL_CAN_TX_MAILBOX1_COMPLETE_CB_ID :
 713:/home/phong/Documents/thesis/stm32f4/stm-idf/components/stm32f4xx_hal_driver/stm32f4xx_hal_can.c ****         hcan->TxMailbox1CompleteCallback = HAL_CAN_TxMailbox1CompleteCallback;
 714:/home/phong/Documents/thesis/stm32f4/stm-idf/components/stm32f4xx_hal_driver/stm32f4xx_hal_can.c ****         break;
 715:/home/phong/Documents/thesis/stm32f4/stm-idf/components/stm32f4xx_hal_driver/stm32f4xx_hal_can.c **** 
 716:/home/phong/Documents/thesis/stm32f4/stm-idf/components/stm32f4xx_hal_driver/stm32f4xx_hal_can.c ****       case HAL_CAN_TX_MAILBOX2_COMPLETE_CB_ID :
 717:/home/phong/Documents/thesis/stm32f4/stm-idf/components/stm32f4xx_hal_driver/stm32f4xx_hal_can.c ****         hcan->TxMailbox2CompleteCallback = HAL_CAN_TxMailbox2CompleteCallback;
 718:/home/phong/Documents/thesis/stm32f4/stm-idf/components/stm32f4xx_hal_driver/stm32f4xx_hal_can.c ****         break;
 719:/home/phong/Documents/thesis/stm32f4/stm-idf/components/stm32f4xx_hal_driver/stm32f4xx_hal_can.c **** 
 720:/home/phong/Documents/thesis/stm32f4/stm-idf/components/stm32f4xx_hal_driver/stm32f4xx_hal_can.c ****       case HAL_CAN_TX_MAILBOX0_ABORT_CB_ID :
 721:/home/phong/Documents/thesis/stm32f4/stm-idf/components/stm32f4xx_hal_driver/stm32f4xx_hal_can.c ****         hcan->TxMailbox0AbortCallback = HAL_CAN_TxMailbox0AbortCallback;
 722:/home/phong/Documents/thesis/stm32f4/stm-idf/components/stm32f4xx_hal_driver/stm32f4xx_hal_can.c ****         break;
 723:/home/phong/Documents/thesis/stm32f4/stm-idf/components/stm32f4xx_hal_driver/stm32f4xx_hal_can.c **** 
 724:/home/phong/Documents/thesis/stm32f4/stm-idf/components/stm32f4xx_hal_driver/stm32f4xx_hal_can.c ****       case HAL_CAN_TX_MAILBOX1_ABORT_CB_ID :
 725:/home/phong/Documents/thesis/stm32f4/stm-idf/components/stm32f4xx_hal_driver/stm32f4xx_hal_can.c ****         hcan->TxMailbox1AbortCallback = HAL_CAN_TxMailbox1AbortCallback;
 726:/home/phong/Documents/thesis/stm32f4/stm-idf/components/stm32f4xx_hal_driver/stm32f4xx_hal_can.c ****         break;
 727:/home/phong/Documents/thesis/stm32f4/stm-idf/components/stm32f4xx_hal_driver/stm32f4xx_hal_can.c **** 
 728:/home/phong/Documents/thesis/stm32f4/stm-idf/components/stm32f4xx_hal_driver/stm32f4xx_hal_can.c ****       case HAL_CAN_TX_MAILBOX2_ABORT_CB_ID :
 729:/home/phong/Documents/thesis/stm32f4/stm-idf/components/stm32f4xx_hal_driver/stm32f4xx_hal_can.c ****         hcan->TxMailbox2AbortCallback = HAL_CAN_TxMailbox2AbortCallback;
 730:/home/phong/Documents/thesis/stm32f4/stm-idf/components/stm32f4xx_hal_driver/stm32f4xx_hal_can.c ****         break;
 731:/home/phong/Documents/thesis/stm32f4/stm-idf/components/stm32f4xx_hal_driver/stm32f4xx_hal_can.c **** 
 732:/home/phong/Documents/thesis/stm32f4/stm-idf/components/stm32f4xx_hal_driver/stm32f4xx_hal_can.c ****       case HAL_CAN_RX_FIFO0_MSG_PENDING_CB_ID :
 733:/home/phong/Documents/thesis/stm32f4/stm-idf/components/stm32f4xx_hal_driver/stm32f4xx_hal_can.c ****         hcan->RxFifo0MsgPendingCallback = HAL_CAN_RxFifo0MsgPendingCallback;
 734:/home/phong/Documents/thesis/stm32f4/stm-idf/components/stm32f4xx_hal_driver/stm32f4xx_hal_can.c ****         break;
 735:/home/phong/Documents/thesis/stm32f4/stm-idf/components/stm32f4xx_hal_driver/stm32f4xx_hal_can.c **** 
 736:/home/phong/Documents/thesis/stm32f4/stm-idf/components/stm32f4xx_hal_driver/stm32f4xx_hal_can.c ****       case HAL_CAN_RX_FIFO0_FULL_CB_ID :
 737:/home/phong/Documents/thesis/stm32f4/stm-idf/components/stm32f4xx_hal_driver/stm32f4xx_hal_can.c ****         hcan->RxFifo0FullCallback = HAL_CAN_RxFifo0FullCallback;
 738:/home/phong/Documents/thesis/stm32f4/stm-idf/components/stm32f4xx_hal_driver/stm32f4xx_hal_can.c ****         break;
 739:/home/phong/Documents/thesis/stm32f4/stm-idf/components/stm32f4xx_hal_driver/stm32f4xx_hal_can.c **** 
ARM GAS  /tmp/ccW24XdO.s 			page 20


 740:/home/phong/Documents/thesis/stm32f4/stm-idf/components/stm32f4xx_hal_driver/stm32f4xx_hal_can.c ****       case HAL_CAN_RX_FIFO1_MSG_PENDING_CB_ID :
 741:/home/phong/Documents/thesis/stm32f4/stm-idf/components/stm32f4xx_hal_driver/stm32f4xx_hal_can.c ****         hcan->RxFifo1MsgPendingCallback = HAL_CAN_RxFifo1MsgPendingCallback;
 742:/home/phong/Documents/thesis/stm32f4/stm-idf/components/stm32f4xx_hal_driver/stm32f4xx_hal_can.c ****         break;
 743:/home/phong/Documents/thesis/stm32f4/stm-idf/components/stm32f4xx_hal_driver/stm32f4xx_hal_can.c **** 
 744:/home/phong/Documents/thesis/stm32f4/stm-idf/components/stm32f4xx_hal_driver/stm32f4xx_hal_can.c ****       case HAL_CAN_RX_FIFO1_FULL_CB_ID :
 745:/home/phong/Documents/thesis/stm32f4/stm-idf/components/stm32f4xx_hal_driver/stm32f4xx_hal_can.c ****         hcan->RxFifo1FullCallback = HAL_CAN_RxFifo1FullCallback;
 746:/home/phong/Documents/thesis/stm32f4/stm-idf/components/stm32f4xx_hal_driver/stm32f4xx_hal_can.c ****         break;
 747:/home/phong/Documents/thesis/stm32f4/stm-idf/components/stm32f4xx_hal_driver/stm32f4xx_hal_can.c **** 
 748:/home/phong/Documents/thesis/stm32f4/stm-idf/components/stm32f4xx_hal_driver/stm32f4xx_hal_can.c ****       case HAL_CAN_SLEEP_CB_ID :
 749:/home/phong/Documents/thesis/stm32f4/stm-idf/components/stm32f4xx_hal_driver/stm32f4xx_hal_can.c ****         hcan->SleepCallback = HAL_CAN_SleepCallback;
 750:/home/phong/Documents/thesis/stm32f4/stm-idf/components/stm32f4xx_hal_driver/stm32f4xx_hal_can.c ****         break;
 751:/home/phong/Documents/thesis/stm32f4/stm-idf/components/stm32f4xx_hal_driver/stm32f4xx_hal_can.c **** 
 752:/home/phong/Documents/thesis/stm32f4/stm-idf/components/stm32f4xx_hal_driver/stm32f4xx_hal_can.c ****       case HAL_CAN_WAKEUP_FROM_RX_MSG_CB_ID :
 753:/home/phong/Documents/thesis/stm32f4/stm-idf/components/stm32f4xx_hal_driver/stm32f4xx_hal_can.c ****         hcan->WakeUpFromRxMsgCallback = HAL_CAN_WakeUpFromRxMsgCallback;
 754:/home/phong/Documents/thesis/stm32f4/stm-idf/components/stm32f4xx_hal_driver/stm32f4xx_hal_can.c ****         break;
 755:/home/phong/Documents/thesis/stm32f4/stm-idf/components/stm32f4xx_hal_driver/stm32f4xx_hal_can.c **** 
 756:/home/phong/Documents/thesis/stm32f4/stm-idf/components/stm32f4xx_hal_driver/stm32f4xx_hal_can.c ****       case HAL_CAN_ERROR_CB_ID :
 757:/home/phong/Documents/thesis/stm32f4/stm-idf/components/stm32f4xx_hal_driver/stm32f4xx_hal_can.c ****         hcan->ErrorCallback = HAL_CAN_ErrorCallback;
 758:/home/phong/Documents/thesis/stm32f4/stm-idf/components/stm32f4xx_hal_driver/stm32f4xx_hal_can.c ****         break;
 759:/home/phong/Documents/thesis/stm32f4/stm-idf/components/stm32f4xx_hal_driver/stm32f4xx_hal_can.c **** 
 760:/home/phong/Documents/thesis/stm32f4/stm-idf/components/stm32f4xx_hal_driver/stm32f4xx_hal_can.c ****       case HAL_CAN_MSPINIT_CB_ID :
 761:/home/phong/Documents/thesis/stm32f4/stm-idf/components/stm32f4xx_hal_driver/stm32f4xx_hal_can.c ****         hcan->MspInitCallback = HAL_CAN_MspInit;
 762:/home/phong/Documents/thesis/stm32f4/stm-idf/components/stm32f4xx_hal_driver/stm32f4xx_hal_can.c ****         break;
 763:/home/phong/Documents/thesis/stm32f4/stm-idf/components/stm32f4xx_hal_driver/stm32f4xx_hal_can.c **** 
 764:/home/phong/Documents/thesis/stm32f4/stm-idf/components/stm32f4xx_hal_driver/stm32f4xx_hal_can.c ****       case HAL_CAN_MSPDEINIT_CB_ID :
 765:/home/phong/Documents/thesis/stm32f4/stm-idf/components/stm32f4xx_hal_driver/stm32f4xx_hal_can.c ****         hcan->MspDeInitCallback = HAL_CAN_MspDeInit;
 766:/home/phong/Documents/thesis/stm32f4/stm-idf/components/stm32f4xx_hal_driver/stm32f4xx_hal_can.c ****         break;
 767:/home/phong/Documents/thesis/stm32f4/stm-idf/components/stm32f4xx_hal_driver/stm32f4xx_hal_can.c **** 
 768:/home/phong/Documents/thesis/stm32f4/stm-idf/components/stm32f4xx_hal_driver/stm32f4xx_hal_can.c ****       default :
 769:/home/phong/Documents/thesis/stm32f4/stm-idf/components/stm32f4xx_hal_driver/stm32f4xx_hal_can.c ****         /* Update the error code */
 770:/home/phong/Documents/thesis/stm32f4/stm-idf/components/stm32f4xx_hal_driver/stm32f4xx_hal_can.c ****         hcan->ErrorCode |= HAL_CAN_ERROR_INVALID_CALLBACK;
 771:/home/phong/Documents/thesis/stm32f4/stm-idf/components/stm32f4xx_hal_driver/stm32f4xx_hal_can.c **** 
 772:/home/phong/Documents/thesis/stm32f4/stm-idf/components/stm32f4xx_hal_driver/stm32f4xx_hal_can.c ****         /* Return error status */
 773:/home/phong/Documents/thesis/stm32f4/stm-idf/components/stm32f4xx_hal_driver/stm32f4xx_hal_can.c ****         status =  HAL_ERROR;
 774:/home/phong/Documents/thesis/stm32f4/stm-idf/components/stm32f4xx_hal_driver/stm32f4xx_hal_can.c ****         break;
 775:/home/phong/Documents/thesis/stm32f4/stm-idf/components/stm32f4xx_hal_driver/stm32f4xx_hal_can.c ****     }
 776:/home/phong/Documents/thesis/stm32f4/stm-idf/components/stm32f4xx_hal_driver/stm32f4xx_hal_can.c ****   }
 777:/home/phong/Documents/thesis/stm32f4/stm-idf/components/stm32f4xx_hal_driver/stm32f4xx_hal_can.c ****   else if (hcan->State == HAL_CAN_STATE_RESET)
 778:/home/phong/Documents/thesis/stm32f4/stm-idf/components/stm32f4xx_hal_driver/stm32f4xx_hal_can.c ****   {
 779:/home/phong/Documents/thesis/stm32f4/stm-idf/components/stm32f4xx_hal_driver/stm32f4xx_hal_can.c ****     switch (CallbackID)
 780:/home/phong/Documents/thesis/stm32f4/stm-idf/components/stm32f4xx_hal_driver/stm32f4xx_hal_can.c ****     {
 781:/home/phong/Documents/thesis/stm32f4/stm-idf/components/stm32f4xx_hal_driver/stm32f4xx_hal_can.c ****       case HAL_CAN_MSPINIT_CB_ID :
 782:/home/phong/Documents/thesis/stm32f4/stm-idf/components/stm32f4xx_hal_driver/stm32f4xx_hal_can.c ****         hcan->MspInitCallback = HAL_CAN_MspInit;
 783:/home/phong/Documents/thesis/stm32f4/stm-idf/components/stm32f4xx_hal_driver/stm32f4xx_hal_can.c ****         break;
 784:/home/phong/Documents/thesis/stm32f4/stm-idf/components/stm32f4xx_hal_driver/stm32f4xx_hal_can.c **** 
 785:/home/phong/Documents/thesis/stm32f4/stm-idf/components/stm32f4xx_hal_driver/stm32f4xx_hal_can.c ****       case HAL_CAN_MSPDEINIT_CB_ID :
 786:/home/phong/Documents/thesis/stm32f4/stm-idf/components/stm32f4xx_hal_driver/stm32f4xx_hal_can.c ****         hcan->MspDeInitCallback = HAL_CAN_MspDeInit;
 787:/home/phong/Documents/thesis/stm32f4/stm-idf/components/stm32f4xx_hal_driver/stm32f4xx_hal_can.c ****         break;
 788:/home/phong/Documents/thesis/stm32f4/stm-idf/components/stm32f4xx_hal_driver/stm32f4xx_hal_can.c **** 
 789:/home/phong/Documents/thesis/stm32f4/stm-idf/components/stm32f4xx_hal_driver/stm32f4xx_hal_can.c ****       default :
 790:/home/phong/Documents/thesis/stm32f4/stm-idf/components/stm32f4xx_hal_driver/stm32f4xx_hal_can.c ****         /* Update the error code */
 791:/home/phong/Documents/thesis/stm32f4/stm-idf/components/stm32f4xx_hal_driver/stm32f4xx_hal_can.c ****         hcan->ErrorCode |= HAL_CAN_ERROR_INVALID_CALLBACK;
 792:/home/phong/Documents/thesis/stm32f4/stm-idf/components/stm32f4xx_hal_driver/stm32f4xx_hal_can.c **** 
 793:/home/phong/Documents/thesis/stm32f4/stm-idf/components/stm32f4xx_hal_driver/stm32f4xx_hal_can.c ****         /* Return error status */
 794:/home/phong/Documents/thesis/stm32f4/stm-idf/components/stm32f4xx_hal_driver/stm32f4xx_hal_can.c ****         status =  HAL_ERROR;
 795:/home/phong/Documents/thesis/stm32f4/stm-idf/components/stm32f4xx_hal_driver/stm32f4xx_hal_can.c ****         break;
 796:/home/phong/Documents/thesis/stm32f4/stm-idf/components/stm32f4xx_hal_driver/stm32f4xx_hal_can.c ****     }
ARM GAS  /tmp/ccW24XdO.s 			page 21


 797:/home/phong/Documents/thesis/stm32f4/stm-idf/components/stm32f4xx_hal_driver/stm32f4xx_hal_can.c ****   }
 798:/home/phong/Documents/thesis/stm32f4/stm-idf/components/stm32f4xx_hal_driver/stm32f4xx_hal_can.c ****   else
 799:/home/phong/Documents/thesis/stm32f4/stm-idf/components/stm32f4xx_hal_driver/stm32f4xx_hal_can.c ****   {
 800:/home/phong/Documents/thesis/stm32f4/stm-idf/components/stm32f4xx_hal_driver/stm32f4xx_hal_can.c ****     /* Update the error code */
 801:/home/phong/Documents/thesis/stm32f4/stm-idf/components/stm32f4xx_hal_driver/stm32f4xx_hal_can.c ****     hcan->ErrorCode |= HAL_CAN_ERROR_INVALID_CALLBACK;
 802:/home/phong/Documents/thesis/stm32f4/stm-idf/components/stm32f4xx_hal_driver/stm32f4xx_hal_can.c **** 
 803:/home/phong/Documents/thesis/stm32f4/stm-idf/components/stm32f4xx_hal_driver/stm32f4xx_hal_can.c ****     /* Return error status */
 804:/home/phong/Documents/thesis/stm32f4/stm-idf/components/stm32f4xx_hal_driver/stm32f4xx_hal_can.c ****     status =  HAL_ERROR;
 805:/home/phong/Documents/thesis/stm32f4/stm-idf/components/stm32f4xx_hal_driver/stm32f4xx_hal_can.c ****   }
 806:/home/phong/Documents/thesis/stm32f4/stm-idf/components/stm32f4xx_hal_driver/stm32f4xx_hal_can.c **** 
 807:/home/phong/Documents/thesis/stm32f4/stm-idf/components/stm32f4xx_hal_driver/stm32f4xx_hal_can.c ****   return status;
 808:/home/phong/Documents/thesis/stm32f4/stm-idf/components/stm32f4xx_hal_driver/stm32f4xx_hal_can.c **** }
 809:/home/phong/Documents/thesis/stm32f4/stm-idf/components/stm32f4xx_hal_driver/stm32f4xx_hal_can.c **** #endif /* USE_HAL_CAN_REGISTER_CALLBACKS */
 810:/home/phong/Documents/thesis/stm32f4/stm-idf/components/stm32f4xx_hal_driver/stm32f4xx_hal_can.c **** 
 811:/home/phong/Documents/thesis/stm32f4/stm-idf/components/stm32f4xx_hal_driver/stm32f4xx_hal_can.c **** /**
 812:/home/phong/Documents/thesis/stm32f4/stm-idf/components/stm32f4xx_hal_driver/stm32f4xx_hal_can.c ****   * @}
 813:/home/phong/Documents/thesis/stm32f4/stm-idf/components/stm32f4xx_hal_driver/stm32f4xx_hal_can.c ****   */
 814:/home/phong/Documents/thesis/stm32f4/stm-idf/components/stm32f4xx_hal_driver/stm32f4xx_hal_can.c **** 
 815:/home/phong/Documents/thesis/stm32f4/stm-idf/components/stm32f4xx_hal_driver/stm32f4xx_hal_can.c **** /** @defgroup CAN_Exported_Functions_Group2 Configuration functions
 816:/home/phong/Documents/thesis/stm32f4/stm-idf/components/stm32f4xx_hal_driver/stm32f4xx_hal_can.c ****  *  @brief    Configuration functions.
 817:/home/phong/Documents/thesis/stm32f4/stm-idf/components/stm32f4xx_hal_driver/stm32f4xx_hal_can.c ****  *
 818:/home/phong/Documents/thesis/stm32f4/stm-idf/components/stm32f4xx_hal_driver/stm32f4xx_hal_can.c **** @verbatim
 819:/home/phong/Documents/thesis/stm32f4/stm-idf/components/stm32f4xx_hal_driver/stm32f4xx_hal_can.c ****   ==============================================================================
 820:/home/phong/Documents/thesis/stm32f4/stm-idf/components/stm32f4xx_hal_driver/stm32f4xx_hal_can.c ****               ##### Configuration functions #####
 821:/home/phong/Documents/thesis/stm32f4/stm-idf/components/stm32f4xx_hal_driver/stm32f4xx_hal_can.c ****   ==============================================================================
 822:/home/phong/Documents/thesis/stm32f4/stm-idf/components/stm32f4xx_hal_driver/stm32f4xx_hal_can.c ****     [..]  This section provides functions allowing to:
 823:/home/phong/Documents/thesis/stm32f4/stm-idf/components/stm32f4xx_hal_driver/stm32f4xx_hal_can.c ****       (+) HAL_CAN_ConfigFilter            : Configure the CAN reception filters
 824:/home/phong/Documents/thesis/stm32f4/stm-idf/components/stm32f4xx_hal_driver/stm32f4xx_hal_can.c **** 
 825:/home/phong/Documents/thesis/stm32f4/stm-idf/components/stm32f4xx_hal_driver/stm32f4xx_hal_can.c **** @endverbatim
 826:/home/phong/Documents/thesis/stm32f4/stm-idf/components/stm32f4xx_hal_driver/stm32f4xx_hal_can.c ****   * @{
 827:/home/phong/Documents/thesis/stm32f4/stm-idf/components/stm32f4xx_hal_driver/stm32f4xx_hal_can.c ****   */
 828:/home/phong/Documents/thesis/stm32f4/stm-idf/components/stm32f4xx_hal_driver/stm32f4xx_hal_can.c **** 
 829:/home/phong/Documents/thesis/stm32f4/stm-idf/components/stm32f4xx_hal_driver/stm32f4xx_hal_can.c **** /**
 830:/home/phong/Documents/thesis/stm32f4/stm-idf/components/stm32f4xx_hal_driver/stm32f4xx_hal_can.c ****   * @brief  Configures the CAN reception filter according to the specified
 831:/home/phong/Documents/thesis/stm32f4/stm-idf/components/stm32f4xx_hal_driver/stm32f4xx_hal_can.c ****   *         parameters in the CAN_FilterInitStruct.
 832:/home/phong/Documents/thesis/stm32f4/stm-idf/components/stm32f4xx_hal_driver/stm32f4xx_hal_can.c ****   * @param  hcan pointer to a CAN_HandleTypeDef structure that contains
 833:/home/phong/Documents/thesis/stm32f4/stm-idf/components/stm32f4xx_hal_driver/stm32f4xx_hal_can.c ****   *         the configuration information for the specified CAN.
 834:/home/phong/Documents/thesis/stm32f4/stm-idf/components/stm32f4xx_hal_driver/stm32f4xx_hal_can.c ****   * @param  sFilterConfig pointer to a CAN_FilterTypeDef structure that
 835:/home/phong/Documents/thesis/stm32f4/stm-idf/components/stm32f4xx_hal_driver/stm32f4xx_hal_can.c ****   *         contains the filter configuration information.
 836:/home/phong/Documents/thesis/stm32f4/stm-idf/components/stm32f4xx_hal_driver/stm32f4xx_hal_can.c ****   * @retval None
 837:/home/phong/Documents/thesis/stm32f4/stm-idf/components/stm32f4xx_hal_driver/stm32f4xx_hal_can.c ****   */
 838:/home/phong/Documents/thesis/stm32f4/stm-idf/components/stm32f4xx_hal_driver/stm32f4xx_hal_can.c **** HAL_StatusTypeDef HAL_CAN_ConfigFilter(CAN_HandleTypeDef *hcan, CAN_FilterTypeDef *sFilterConfig)
 839:/home/phong/Documents/thesis/stm32f4/stm-idf/components/stm32f4xx_hal_driver/stm32f4xx_hal_can.c **** {
 310              		.loc 1 839 0
 311              		.cfi_startproc
 312              		@ args = 0, pretend = 0, frame = 0
 313              		@ frame_needed = 0, uses_anonymous_args = 0
 314              		@ link register save eliminated.
 315              	.LVL17:
 840:/home/phong/Documents/thesis/stm32f4/stm-idf/components/stm32f4xx_hal_driver/stm32f4xx_hal_can.c ****   uint32_t filternbrbitpos;
 841:/home/phong/Documents/thesis/stm32f4/stm-idf/components/stm32f4xx_hal_driver/stm32f4xx_hal_can.c ****   CAN_TypeDef *can_ip = hcan->Instance;
 842:/home/phong/Documents/thesis/stm32f4/stm-idf/components/stm32f4xx_hal_driver/stm32f4xx_hal_can.c ****   HAL_CAN_StateTypeDef state = hcan->State;
 316              		.loc 1 842 0
 317 0000 90F82030 		ldrb	r3, [r0, #32]	@ zero_extendqisi2
 318              	.LVL18:
 843:/home/phong/Documents/thesis/stm32f4/stm-idf/components/stm32f4xx_hal_driver/stm32f4xx_hal_can.c **** 
 844:/home/phong/Documents/thesis/stm32f4/stm-idf/components/stm32f4xx_hal_driver/stm32f4xx_hal_can.c ****   if ((state == HAL_CAN_STATE_READY) ||
ARM GAS  /tmp/ccW24XdO.s 			page 22


 319              		.loc 1 844 0
 320 0004 013B     		subs	r3, r3, #1
 321              	.LVL19:
 322 0006 DBB2     		uxtb	r3, r3
 323 0008 012B     		cmp	r3, #1
 324 000a 05D9     		bls	.L50
 845:/home/phong/Documents/thesis/stm32f4/stm-idf/components/stm32f4xx_hal_driver/stm32f4xx_hal_can.c ****       (state == HAL_CAN_STATE_LISTENING))
 846:/home/phong/Documents/thesis/stm32f4/stm-idf/components/stm32f4xx_hal_driver/stm32f4xx_hal_can.c ****   {
 847:/home/phong/Documents/thesis/stm32f4/stm-idf/components/stm32f4xx_hal_driver/stm32f4xx_hal_can.c ****     /* Check the parameters */
 848:/home/phong/Documents/thesis/stm32f4/stm-idf/components/stm32f4xx_hal_driver/stm32f4xx_hal_can.c ****     assert_param(IS_CAN_FILTER_ID_HALFWORD(sFilterConfig->FilterIdHigh));
 849:/home/phong/Documents/thesis/stm32f4/stm-idf/components/stm32f4xx_hal_driver/stm32f4xx_hal_can.c ****     assert_param(IS_CAN_FILTER_ID_HALFWORD(sFilterConfig->FilterIdLow));
 850:/home/phong/Documents/thesis/stm32f4/stm-idf/components/stm32f4xx_hal_driver/stm32f4xx_hal_can.c ****     assert_param(IS_CAN_FILTER_ID_HALFWORD(sFilterConfig->FilterMaskIdHigh));
 851:/home/phong/Documents/thesis/stm32f4/stm-idf/components/stm32f4xx_hal_driver/stm32f4xx_hal_can.c ****     assert_param(IS_CAN_FILTER_ID_HALFWORD(sFilterConfig->FilterMaskIdLow));
 852:/home/phong/Documents/thesis/stm32f4/stm-idf/components/stm32f4xx_hal_driver/stm32f4xx_hal_can.c ****     assert_param(IS_CAN_FILTER_MODE(sFilterConfig->FilterMode));
 853:/home/phong/Documents/thesis/stm32f4/stm-idf/components/stm32f4xx_hal_driver/stm32f4xx_hal_can.c ****     assert_param(IS_CAN_FILTER_SCALE(sFilterConfig->FilterScale));
 854:/home/phong/Documents/thesis/stm32f4/stm-idf/components/stm32f4xx_hal_driver/stm32f4xx_hal_can.c ****     assert_param(IS_CAN_FILTER_FIFO(sFilterConfig->FilterFIFOAssignment));
 855:/home/phong/Documents/thesis/stm32f4/stm-idf/components/stm32f4xx_hal_driver/stm32f4xx_hal_can.c ****     assert_param(IS_CAN_FILTER_ACTIVATION(sFilterConfig->FilterActivation));
 856:/home/phong/Documents/thesis/stm32f4/stm-idf/components/stm32f4xx_hal_driver/stm32f4xx_hal_can.c **** 
 857:/home/phong/Documents/thesis/stm32f4/stm-idf/components/stm32f4xx_hal_driver/stm32f4xx_hal_can.c **** #if defined(CAN3)
 858:/home/phong/Documents/thesis/stm32f4/stm-idf/components/stm32f4xx_hal_driver/stm32f4xx_hal_can.c ****     /* Check the CAN instance */
 859:/home/phong/Documents/thesis/stm32f4/stm-idf/components/stm32f4xx_hal_driver/stm32f4xx_hal_can.c ****     if (hcan->Instance == CAN3)
 860:/home/phong/Documents/thesis/stm32f4/stm-idf/components/stm32f4xx_hal_driver/stm32f4xx_hal_can.c ****     {
 861:/home/phong/Documents/thesis/stm32f4/stm-idf/components/stm32f4xx_hal_driver/stm32f4xx_hal_can.c ****       /* CAN3 is single instance with 14 dedicated filters banks */
 862:/home/phong/Documents/thesis/stm32f4/stm-idf/components/stm32f4xx_hal_driver/stm32f4xx_hal_can.c **** 
 863:/home/phong/Documents/thesis/stm32f4/stm-idf/components/stm32f4xx_hal_driver/stm32f4xx_hal_can.c ****       /* Check the parameters */
 864:/home/phong/Documents/thesis/stm32f4/stm-idf/components/stm32f4xx_hal_driver/stm32f4xx_hal_can.c ****       assert_param(IS_CAN_FILTER_BANK_SINGLE(sFilterConfig->FilterBank));
 865:/home/phong/Documents/thesis/stm32f4/stm-idf/components/stm32f4xx_hal_driver/stm32f4xx_hal_can.c ****     }
 866:/home/phong/Documents/thesis/stm32f4/stm-idf/components/stm32f4xx_hal_driver/stm32f4xx_hal_can.c ****     else
 867:/home/phong/Documents/thesis/stm32f4/stm-idf/components/stm32f4xx_hal_driver/stm32f4xx_hal_can.c ****     {
 868:/home/phong/Documents/thesis/stm32f4/stm-idf/components/stm32f4xx_hal_driver/stm32f4xx_hal_can.c ****       /* CAN1 and CAN2 are dual instances with 28 common filters banks */
 869:/home/phong/Documents/thesis/stm32f4/stm-idf/components/stm32f4xx_hal_driver/stm32f4xx_hal_can.c ****       /* Select master instance to access the filter banks */
 870:/home/phong/Documents/thesis/stm32f4/stm-idf/components/stm32f4xx_hal_driver/stm32f4xx_hal_can.c ****       can_ip = CAN1;
 871:/home/phong/Documents/thesis/stm32f4/stm-idf/components/stm32f4xx_hal_driver/stm32f4xx_hal_can.c **** 
 872:/home/phong/Documents/thesis/stm32f4/stm-idf/components/stm32f4xx_hal_driver/stm32f4xx_hal_can.c ****       /* Check the parameters */
 873:/home/phong/Documents/thesis/stm32f4/stm-idf/components/stm32f4xx_hal_driver/stm32f4xx_hal_can.c ****       assert_param(IS_CAN_FILTER_BANK_DUAL(sFilterConfig->FilterBank));
 874:/home/phong/Documents/thesis/stm32f4/stm-idf/components/stm32f4xx_hal_driver/stm32f4xx_hal_can.c ****       assert_param(IS_CAN_FILTER_BANK_DUAL(sFilterConfig->SlaveStartFilterBank));
 875:/home/phong/Documents/thesis/stm32f4/stm-idf/components/stm32f4xx_hal_driver/stm32f4xx_hal_can.c ****     }
 876:/home/phong/Documents/thesis/stm32f4/stm-idf/components/stm32f4xx_hal_driver/stm32f4xx_hal_can.c **** #elif defined(CAN2)
 877:/home/phong/Documents/thesis/stm32f4/stm-idf/components/stm32f4xx_hal_driver/stm32f4xx_hal_can.c ****     /* CAN1 and CAN2 are dual instances with 28 common filters banks */
 878:/home/phong/Documents/thesis/stm32f4/stm-idf/components/stm32f4xx_hal_driver/stm32f4xx_hal_can.c ****     /* Select master instance to access the filter banks */
 879:/home/phong/Documents/thesis/stm32f4/stm-idf/components/stm32f4xx_hal_driver/stm32f4xx_hal_can.c ****     can_ip = CAN1;
 880:/home/phong/Documents/thesis/stm32f4/stm-idf/components/stm32f4xx_hal_driver/stm32f4xx_hal_can.c **** 
 881:/home/phong/Documents/thesis/stm32f4/stm-idf/components/stm32f4xx_hal_driver/stm32f4xx_hal_can.c ****     /* Check the parameters */
 882:/home/phong/Documents/thesis/stm32f4/stm-idf/components/stm32f4xx_hal_driver/stm32f4xx_hal_can.c ****     assert_param(IS_CAN_FILTER_BANK_DUAL(sFilterConfig->FilterBank));
 883:/home/phong/Documents/thesis/stm32f4/stm-idf/components/stm32f4xx_hal_driver/stm32f4xx_hal_can.c ****     assert_param(IS_CAN_FILTER_BANK_DUAL(sFilterConfig->SlaveStartFilterBank));
 884:/home/phong/Documents/thesis/stm32f4/stm-idf/components/stm32f4xx_hal_driver/stm32f4xx_hal_can.c **** #else
 885:/home/phong/Documents/thesis/stm32f4/stm-idf/components/stm32f4xx_hal_driver/stm32f4xx_hal_can.c ****     /* CAN1 is single instance with 14 dedicated filters banks */
 886:/home/phong/Documents/thesis/stm32f4/stm-idf/components/stm32f4xx_hal_driver/stm32f4xx_hal_can.c **** 
 887:/home/phong/Documents/thesis/stm32f4/stm-idf/components/stm32f4xx_hal_driver/stm32f4xx_hal_can.c ****     /* Check the parameters */
 888:/home/phong/Documents/thesis/stm32f4/stm-idf/components/stm32f4xx_hal_driver/stm32f4xx_hal_can.c ****     assert_param(IS_CAN_FILTER_BANK_SINGLE(sFilterConfig->FilterBank));
 889:/home/phong/Documents/thesis/stm32f4/stm-idf/components/stm32f4xx_hal_driver/stm32f4xx_hal_can.c **** #endif
 890:/home/phong/Documents/thesis/stm32f4/stm-idf/components/stm32f4xx_hal_driver/stm32f4xx_hal_can.c **** 
 891:/home/phong/Documents/thesis/stm32f4/stm-idf/components/stm32f4xx_hal_driver/stm32f4xx_hal_can.c ****     /* Initialisation mode for the filter */
 892:/home/phong/Documents/thesis/stm32f4/stm-idf/components/stm32f4xx_hal_driver/stm32f4xx_hal_can.c ****     SET_BIT(can_ip->FMR, CAN_FMR_FINIT);
 893:/home/phong/Documents/thesis/stm32f4/stm-idf/components/stm32f4xx_hal_driver/stm32f4xx_hal_can.c **** 
 894:/home/phong/Documents/thesis/stm32f4/stm-idf/components/stm32f4xx_hal_driver/stm32f4xx_hal_can.c **** #if defined(CAN3)
 895:/home/phong/Documents/thesis/stm32f4/stm-idf/components/stm32f4xx_hal_driver/stm32f4xx_hal_can.c ****     /* Check the CAN instance */
ARM GAS  /tmp/ccW24XdO.s 			page 23


 896:/home/phong/Documents/thesis/stm32f4/stm-idf/components/stm32f4xx_hal_driver/stm32f4xx_hal_can.c ****     if (can_ip == CAN1)
 897:/home/phong/Documents/thesis/stm32f4/stm-idf/components/stm32f4xx_hal_driver/stm32f4xx_hal_can.c ****     {
 898:/home/phong/Documents/thesis/stm32f4/stm-idf/components/stm32f4xx_hal_driver/stm32f4xx_hal_can.c ****       /* Select the start filter number of CAN2 slave instance */
 899:/home/phong/Documents/thesis/stm32f4/stm-idf/components/stm32f4xx_hal_driver/stm32f4xx_hal_can.c ****       CLEAR_BIT(can_ip->FMR, CAN_FMR_CAN2SB);
 900:/home/phong/Documents/thesis/stm32f4/stm-idf/components/stm32f4xx_hal_driver/stm32f4xx_hal_can.c ****       SET_BIT(can_ip->FMR, sFilterConfig->SlaveStartFilterBank << CAN_FMR_CAN2SB_Pos);
 901:/home/phong/Documents/thesis/stm32f4/stm-idf/components/stm32f4xx_hal_driver/stm32f4xx_hal_can.c ****     }
 902:/home/phong/Documents/thesis/stm32f4/stm-idf/components/stm32f4xx_hal_driver/stm32f4xx_hal_can.c **** 
 903:/home/phong/Documents/thesis/stm32f4/stm-idf/components/stm32f4xx_hal_driver/stm32f4xx_hal_can.c **** #elif defined(CAN2)
 904:/home/phong/Documents/thesis/stm32f4/stm-idf/components/stm32f4xx_hal_driver/stm32f4xx_hal_can.c ****     /* Select the start filter number of CAN2 slave instance */
 905:/home/phong/Documents/thesis/stm32f4/stm-idf/components/stm32f4xx_hal_driver/stm32f4xx_hal_can.c ****     CLEAR_BIT(can_ip->FMR, CAN_FMR_CAN2SB);
 906:/home/phong/Documents/thesis/stm32f4/stm-idf/components/stm32f4xx_hal_driver/stm32f4xx_hal_can.c ****     SET_BIT(can_ip->FMR, sFilterConfig->SlaveStartFilterBank << CAN_FMR_CAN2SB_Pos);
 907:/home/phong/Documents/thesis/stm32f4/stm-idf/components/stm32f4xx_hal_driver/stm32f4xx_hal_can.c **** 
 908:/home/phong/Documents/thesis/stm32f4/stm-idf/components/stm32f4xx_hal_driver/stm32f4xx_hal_can.c **** #endif
 909:/home/phong/Documents/thesis/stm32f4/stm-idf/components/stm32f4xx_hal_driver/stm32f4xx_hal_can.c ****     /* Convert filter number into bit position */
 910:/home/phong/Documents/thesis/stm32f4/stm-idf/components/stm32f4xx_hal_driver/stm32f4xx_hal_can.c ****     filternbrbitpos = (uint32_t)1 << (sFilterConfig->FilterBank & 0x1FU);
 911:/home/phong/Documents/thesis/stm32f4/stm-idf/components/stm32f4xx_hal_driver/stm32f4xx_hal_can.c **** 
 912:/home/phong/Documents/thesis/stm32f4/stm-idf/components/stm32f4xx_hal_driver/stm32f4xx_hal_can.c ****     /* Filter Deactivation */
 913:/home/phong/Documents/thesis/stm32f4/stm-idf/components/stm32f4xx_hal_driver/stm32f4xx_hal_can.c ****     CLEAR_BIT(can_ip->FA1R, filternbrbitpos);
 914:/home/phong/Documents/thesis/stm32f4/stm-idf/components/stm32f4xx_hal_driver/stm32f4xx_hal_can.c **** 
 915:/home/phong/Documents/thesis/stm32f4/stm-idf/components/stm32f4xx_hal_driver/stm32f4xx_hal_can.c ****     /* Filter Scale */
 916:/home/phong/Documents/thesis/stm32f4/stm-idf/components/stm32f4xx_hal_driver/stm32f4xx_hal_can.c ****     if (sFilterConfig->FilterScale == CAN_FILTERSCALE_16BIT)
 917:/home/phong/Documents/thesis/stm32f4/stm-idf/components/stm32f4xx_hal_driver/stm32f4xx_hal_can.c ****     {
 918:/home/phong/Documents/thesis/stm32f4/stm-idf/components/stm32f4xx_hal_driver/stm32f4xx_hal_can.c ****       /* 16-bit scale for the filter */
 919:/home/phong/Documents/thesis/stm32f4/stm-idf/components/stm32f4xx_hal_driver/stm32f4xx_hal_can.c ****       CLEAR_BIT(can_ip->FS1R, filternbrbitpos);
 920:/home/phong/Documents/thesis/stm32f4/stm-idf/components/stm32f4xx_hal_driver/stm32f4xx_hal_can.c **** 
 921:/home/phong/Documents/thesis/stm32f4/stm-idf/components/stm32f4xx_hal_driver/stm32f4xx_hal_can.c ****       /* First 16-bit identifier and First 16-bit mask */
 922:/home/phong/Documents/thesis/stm32f4/stm-idf/components/stm32f4xx_hal_driver/stm32f4xx_hal_can.c ****       /* Or First 16-bit identifier and Second 16-bit identifier */
 923:/home/phong/Documents/thesis/stm32f4/stm-idf/components/stm32f4xx_hal_driver/stm32f4xx_hal_can.c ****       can_ip->sFilterRegister[sFilterConfig->FilterBank].FR1 =
 924:/home/phong/Documents/thesis/stm32f4/stm-idf/components/stm32f4xx_hal_driver/stm32f4xx_hal_can.c ****         ((0x0000FFFFU & (uint32_t)sFilterConfig->FilterMaskIdLow) << 16U) |
 925:/home/phong/Documents/thesis/stm32f4/stm-idf/components/stm32f4xx_hal_driver/stm32f4xx_hal_can.c ****         (0x0000FFFFU & (uint32_t)sFilterConfig->FilterIdLow);
 926:/home/phong/Documents/thesis/stm32f4/stm-idf/components/stm32f4xx_hal_driver/stm32f4xx_hal_can.c **** 
 927:/home/phong/Documents/thesis/stm32f4/stm-idf/components/stm32f4xx_hal_driver/stm32f4xx_hal_can.c ****       /* Second 16-bit identifier and Second 16-bit mask */
 928:/home/phong/Documents/thesis/stm32f4/stm-idf/components/stm32f4xx_hal_driver/stm32f4xx_hal_can.c ****       /* Or Third 16-bit identifier and Fourth 16-bit identifier */
 929:/home/phong/Documents/thesis/stm32f4/stm-idf/components/stm32f4xx_hal_driver/stm32f4xx_hal_can.c ****       can_ip->sFilterRegister[sFilterConfig->FilterBank].FR2 =
 930:/home/phong/Documents/thesis/stm32f4/stm-idf/components/stm32f4xx_hal_driver/stm32f4xx_hal_can.c ****         ((0x0000FFFFU & (uint32_t)sFilterConfig->FilterMaskIdHigh) << 16U) |
 931:/home/phong/Documents/thesis/stm32f4/stm-idf/components/stm32f4xx_hal_driver/stm32f4xx_hal_can.c ****         (0x0000FFFFU & (uint32_t)sFilterConfig->FilterIdHigh);
 932:/home/phong/Documents/thesis/stm32f4/stm-idf/components/stm32f4xx_hal_driver/stm32f4xx_hal_can.c ****     }
 933:/home/phong/Documents/thesis/stm32f4/stm-idf/components/stm32f4xx_hal_driver/stm32f4xx_hal_can.c **** 
 934:/home/phong/Documents/thesis/stm32f4/stm-idf/components/stm32f4xx_hal_driver/stm32f4xx_hal_can.c ****     if (sFilterConfig->FilterScale == CAN_FILTERSCALE_32BIT)
 935:/home/phong/Documents/thesis/stm32f4/stm-idf/components/stm32f4xx_hal_driver/stm32f4xx_hal_can.c ****     {
 936:/home/phong/Documents/thesis/stm32f4/stm-idf/components/stm32f4xx_hal_driver/stm32f4xx_hal_can.c ****       /* 32-bit scale for the filter */
 937:/home/phong/Documents/thesis/stm32f4/stm-idf/components/stm32f4xx_hal_driver/stm32f4xx_hal_can.c ****       SET_BIT(can_ip->FS1R, filternbrbitpos);
 938:/home/phong/Documents/thesis/stm32f4/stm-idf/components/stm32f4xx_hal_driver/stm32f4xx_hal_can.c **** 
 939:/home/phong/Documents/thesis/stm32f4/stm-idf/components/stm32f4xx_hal_driver/stm32f4xx_hal_can.c ****       /* 32-bit identifier or First 32-bit identifier */
 940:/home/phong/Documents/thesis/stm32f4/stm-idf/components/stm32f4xx_hal_driver/stm32f4xx_hal_can.c ****       can_ip->sFilterRegister[sFilterConfig->FilterBank].FR1 =
 941:/home/phong/Documents/thesis/stm32f4/stm-idf/components/stm32f4xx_hal_driver/stm32f4xx_hal_can.c ****         ((0x0000FFFFU & (uint32_t)sFilterConfig->FilterIdHigh) << 16U) |
 942:/home/phong/Documents/thesis/stm32f4/stm-idf/components/stm32f4xx_hal_driver/stm32f4xx_hal_can.c ****         (0x0000FFFFU & (uint32_t)sFilterConfig->FilterIdLow);
 943:/home/phong/Documents/thesis/stm32f4/stm-idf/components/stm32f4xx_hal_driver/stm32f4xx_hal_can.c **** 
 944:/home/phong/Documents/thesis/stm32f4/stm-idf/components/stm32f4xx_hal_driver/stm32f4xx_hal_can.c ****       /* 32-bit mask or Second 32-bit identifier */
 945:/home/phong/Documents/thesis/stm32f4/stm-idf/components/stm32f4xx_hal_driver/stm32f4xx_hal_can.c ****       can_ip->sFilterRegister[sFilterConfig->FilterBank].FR2 =
 946:/home/phong/Documents/thesis/stm32f4/stm-idf/components/stm32f4xx_hal_driver/stm32f4xx_hal_can.c ****         ((0x0000FFFFU & (uint32_t)sFilterConfig->FilterMaskIdHigh) << 16U) |
 947:/home/phong/Documents/thesis/stm32f4/stm-idf/components/stm32f4xx_hal_driver/stm32f4xx_hal_can.c ****         (0x0000FFFFU & (uint32_t)sFilterConfig->FilterMaskIdLow);
 948:/home/phong/Documents/thesis/stm32f4/stm-idf/components/stm32f4xx_hal_driver/stm32f4xx_hal_can.c ****     }
 949:/home/phong/Documents/thesis/stm32f4/stm-idf/components/stm32f4xx_hal_driver/stm32f4xx_hal_can.c **** 
 950:/home/phong/Documents/thesis/stm32f4/stm-idf/components/stm32f4xx_hal_driver/stm32f4xx_hal_can.c ****     /* Filter Mode */
 951:/home/phong/Documents/thesis/stm32f4/stm-idf/components/stm32f4xx_hal_driver/stm32f4xx_hal_can.c ****     if (sFilterConfig->FilterMode == CAN_FILTERMODE_IDMASK)
 952:/home/phong/Documents/thesis/stm32f4/stm-idf/components/stm32f4xx_hal_driver/stm32f4xx_hal_can.c ****     {
ARM GAS  /tmp/ccW24XdO.s 			page 24


 953:/home/phong/Documents/thesis/stm32f4/stm-idf/components/stm32f4xx_hal_driver/stm32f4xx_hal_can.c ****       /* Id/Mask mode for the filter*/
 954:/home/phong/Documents/thesis/stm32f4/stm-idf/components/stm32f4xx_hal_driver/stm32f4xx_hal_can.c ****       CLEAR_BIT(can_ip->FM1R, filternbrbitpos);
 955:/home/phong/Documents/thesis/stm32f4/stm-idf/components/stm32f4xx_hal_driver/stm32f4xx_hal_can.c ****     }
 956:/home/phong/Documents/thesis/stm32f4/stm-idf/components/stm32f4xx_hal_driver/stm32f4xx_hal_can.c ****     else /* CAN_FilterInitStruct->CAN_FilterMode == CAN_FilterMode_IdList */
 957:/home/phong/Documents/thesis/stm32f4/stm-idf/components/stm32f4xx_hal_driver/stm32f4xx_hal_can.c ****     {
 958:/home/phong/Documents/thesis/stm32f4/stm-idf/components/stm32f4xx_hal_driver/stm32f4xx_hal_can.c ****       /* Identifier list mode for the filter*/
 959:/home/phong/Documents/thesis/stm32f4/stm-idf/components/stm32f4xx_hal_driver/stm32f4xx_hal_can.c ****       SET_BIT(can_ip->FM1R, filternbrbitpos);
 960:/home/phong/Documents/thesis/stm32f4/stm-idf/components/stm32f4xx_hal_driver/stm32f4xx_hal_can.c ****     }
 961:/home/phong/Documents/thesis/stm32f4/stm-idf/components/stm32f4xx_hal_driver/stm32f4xx_hal_can.c **** 
 962:/home/phong/Documents/thesis/stm32f4/stm-idf/components/stm32f4xx_hal_driver/stm32f4xx_hal_can.c ****     /* Filter FIFO assignment */
 963:/home/phong/Documents/thesis/stm32f4/stm-idf/components/stm32f4xx_hal_driver/stm32f4xx_hal_can.c ****     if (sFilterConfig->FilterFIFOAssignment == CAN_FILTER_FIFO0)
 964:/home/phong/Documents/thesis/stm32f4/stm-idf/components/stm32f4xx_hal_driver/stm32f4xx_hal_can.c ****     {
 965:/home/phong/Documents/thesis/stm32f4/stm-idf/components/stm32f4xx_hal_driver/stm32f4xx_hal_can.c ****       /* FIFO 0 assignation for the filter */
 966:/home/phong/Documents/thesis/stm32f4/stm-idf/components/stm32f4xx_hal_driver/stm32f4xx_hal_can.c ****       CLEAR_BIT(can_ip->FFA1R, filternbrbitpos);
 967:/home/phong/Documents/thesis/stm32f4/stm-idf/components/stm32f4xx_hal_driver/stm32f4xx_hal_can.c ****     }
 968:/home/phong/Documents/thesis/stm32f4/stm-idf/components/stm32f4xx_hal_driver/stm32f4xx_hal_can.c ****     else
 969:/home/phong/Documents/thesis/stm32f4/stm-idf/components/stm32f4xx_hal_driver/stm32f4xx_hal_can.c ****     {
 970:/home/phong/Documents/thesis/stm32f4/stm-idf/components/stm32f4xx_hal_driver/stm32f4xx_hal_can.c ****       /* FIFO 1 assignation for the filter */
 971:/home/phong/Documents/thesis/stm32f4/stm-idf/components/stm32f4xx_hal_driver/stm32f4xx_hal_can.c ****       SET_BIT(can_ip->FFA1R, filternbrbitpos);
 972:/home/phong/Documents/thesis/stm32f4/stm-idf/components/stm32f4xx_hal_driver/stm32f4xx_hal_can.c ****     }
 973:/home/phong/Documents/thesis/stm32f4/stm-idf/components/stm32f4xx_hal_driver/stm32f4xx_hal_can.c **** 
 974:/home/phong/Documents/thesis/stm32f4/stm-idf/components/stm32f4xx_hal_driver/stm32f4xx_hal_can.c ****     /* Filter activation */
 975:/home/phong/Documents/thesis/stm32f4/stm-idf/components/stm32f4xx_hal_driver/stm32f4xx_hal_can.c ****     if (sFilterConfig->FilterActivation == CAN_FILTER_ENABLE)
 976:/home/phong/Documents/thesis/stm32f4/stm-idf/components/stm32f4xx_hal_driver/stm32f4xx_hal_can.c ****     {
 977:/home/phong/Documents/thesis/stm32f4/stm-idf/components/stm32f4xx_hal_driver/stm32f4xx_hal_can.c ****       SET_BIT(can_ip->FA1R, filternbrbitpos);
 978:/home/phong/Documents/thesis/stm32f4/stm-idf/components/stm32f4xx_hal_driver/stm32f4xx_hal_can.c ****     }
 979:/home/phong/Documents/thesis/stm32f4/stm-idf/components/stm32f4xx_hal_driver/stm32f4xx_hal_can.c **** 
 980:/home/phong/Documents/thesis/stm32f4/stm-idf/components/stm32f4xx_hal_driver/stm32f4xx_hal_can.c ****     /* Leave the initialisation mode for the filter */
 981:/home/phong/Documents/thesis/stm32f4/stm-idf/components/stm32f4xx_hal_driver/stm32f4xx_hal_can.c ****     CLEAR_BIT(can_ip->FMR, CAN_FMR_FINIT);
 982:/home/phong/Documents/thesis/stm32f4/stm-idf/components/stm32f4xx_hal_driver/stm32f4xx_hal_can.c **** 
 983:/home/phong/Documents/thesis/stm32f4/stm-idf/components/stm32f4xx_hal_driver/stm32f4xx_hal_can.c ****     /* Return function status */
 984:/home/phong/Documents/thesis/stm32f4/stm-idf/components/stm32f4xx_hal_driver/stm32f4xx_hal_can.c ****     return HAL_OK;
 985:/home/phong/Documents/thesis/stm32f4/stm-idf/components/stm32f4xx_hal_driver/stm32f4xx_hal_can.c ****   }
 986:/home/phong/Documents/thesis/stm32f4/stm-idf/components/stm32f4xx_hal_driver/stm32f4xx_hal_can.c ****   else
 987:/home/phong/Documents/thesis/stm32f4/stm-idf/components/stm32f4xx_hal_driver/stm32f4xx_hal_can.c ****   {
 988:/home/phong/Documents/thesis/stm32f4/stm-idf/components/stm32f4xx_hal_driver/stm32f4xx_hal_can.c ****     /* Update error code */
 989:/home/phong/Documents/thesis/stm32f4/stm-idf/components/stm32f4xx_hal_driver/stm32f4xx_hal_can.c ****     hcan->ErrorCode |= HAL_CAN_ERROR_NOT_INITIALIZED;
 325              		.loc 1 989 0
 326 000c 436A     		ldr	r3, [r0, #36]
 327 000e 43F48023 		orr	r3, r3, #262144
 328 0012 4362     		str	r3, [r0, #36]
 990:/home/phong/Documents/thesis/stm32f4/stm-idf/components/stm32f4xx_hal_driver/stm32f4xx_hal_can.c **** 
 991:/home/phong/Documents/thesis/stm32f4/stm-idf/components/stm32f4xx_hal_driver/stm32f4xx_hal_can.c ****     return HAL_ERROR;
 329              		.loc 1 991 0
 330 0014 0120     		movs	r0, #1
 331              	.LVL20:
 332 0016 7047     		bx	lr
 333              	.LVL21:
 334              	.L50:
 839:/home/phong/Documents/thesis/stm32f4/stm-idf/components/stm32f4xx_hal_driver/stm32f4xx_hal_can.c ****   uint32_t filternbrbitpos;
 335              		.loc 1 839 0
 336 0018 70B4     		push	{r4, r5, r6}
 337              	.LCFI2:
 338              		.cfi_def_cfa_offset 12
 339              		.cfi_offset 4, -12
 340              		.cfi_offset 5, -8
 341              		.cfi_offset 6, -4
ARM GAS  /tmp/ccW24XdO.s 			page 25


 342              	.LVL22:
 892:/home/phong/Documents/thesis/stm32f4/stm-idf/components/stm32f4xx_hal_driver/stm32f4xx_hal_can.c **** 
 343              		.loc 1 892 0
 344 001a 434B     		ldr	r3, .L53
 345 001c D3F80022 		ldr	r2, [r3, #512]
 346 0020 42F00102 		orr	r2, r2, #1
 347 0024 C3F80022 		str	r2, [r3, #512]
 905:/home/phong/Documents/thesis/stm32f4/stm-idf/components/stm32f4xx_hal_driver/stm32f4xx_hal_can.c ****     SET_BIT(can_ip->FMR, sFilterConfig->SlaveStartFilterBank << CAN_FMR_CAN2SB_Pos);
 348              		.loc 1 905 0
 349 0028 D3F80022 		ldr	r2, [r3, #512]
 350 002c 22F47C52 		bic	r2, r2, #16128
 351 0030 C3F80022 		str	r2, [r3, #512]
 906:/home/phong/Documents/thesis/stm32f4/stm-idf/components/stm32f4xx_hal_driver/stm32f4xx_hal_can.c **** 
 352              		.loc 1 906 0
 353 0034 D3F80022 		ldr	r2, [r3, #512]
 354 0038 486A     		ldr	r0, [r1, #36]
 355              	.LVL23:
 356 003a 42EA0022 		orr	r2, r2, r0, lsl #8
 357 003e C3F80022 		str	r2, [r3, #512]
 910:/home/phong/Documents/thesis/stm32f4/stm-idf/components/stm32f4xx_hal_driver/stm32f4xx_hal_can.c **** 
 358              		.loc 1 910 0
 359 0042 4A69     		ldr	r2, [r1, #20]
 360 0044 02F01F02 		and	r2, r2, #31
 361 0048 0120     		movs	r0, #1
 362 004a 00FA02F2 		lsl	r2, r0, r2
 363              	.LVL24:
 913:/home/phong/Documents/thesis/stm32f4/stm-idf/components/stm32f4xx_hal_driver/stm32f4xx_hal_can.c **** 
 364              		.loc 1 913 0
 365 004e D3F81C42 		ldr	r4, [r3, #540]
 366 0052 D043     		mvns	r0, r2
 367 0054 0440     		ands	r4, r4, r0
 368 0056 C3F81C42 		str	r4, [r3, #540]
 916:/home/phong/Documents/thesis/stm32f4/stm-idf/components/stm32f4xx_hal_driver/stm32f4xx_hal_can.c ****     {
 369              		.loc 1 916 0
 370 005a CB69     		ldr	r3, [r1, #28]
 371 005c B3B9     		cbnz	r3, .L38
 919:/home/phong/Documents/thesis/stm32f4/stm-idf/components/stm32f4xx_hal_driver/stm32f4xx_hal_can.c **** 
 372              		.loc 1 919 0
 373 005e 324B     		ldr	r3, .L53
 374 0060 D3F80C42 		ldr	r4, [r3, #524]
 375 0064 0440     		ands	r4, r4, r0
 376 0066 C3F80C42 		str	r4, [r3, #524]
 923:/home/phong/Documents/thesis/stm32f4/stm-idf/components/stm32f4xx_hal_driver/stm32f4xx_hal_can.c ****         ((0x0000FFFFU & (uint32_t)sFilterConfig->FilterMaskIdLow) << 16U) |
 377              		.loc 1 923 0
 378 006a 4C69     		ldr	r4, [r1, #20]
 924:/home/phong/Documents/thesis/stm32f4/stm-idf/components/stm32f4xx_hal_driver/stm32f4xx_hal_can.c ****         (0x0000FFFFU & (uint32_t)sFilterConfig->FilterIdLow);
 379              		.loc 1 924 0
 380 006c CE68     		ldr	r6, [r1, #12]
 925:/home/phong/Documents/thesis/stm32f4/stm-idf/components/stm32f4xx_hal_driver/stm32f4xx_hal_can.c **** 
 381              		.loc 1 925 0
 382 006e 8D88     		ldrh	r5, [r1, #4]
 924:/home/phong/Documents/thesis/stm32f4/stm-idf/components/stm32f4xx_hal_driver/stm32f4xx_hal_can.c ****         (0x0000FFFFU & (uint32_t)sFilterConfig->FilterIdLow);
 383              		.loc 1 924 0
 384 0070 45EA0645 		orr	r5, r5, r6, lsl #16
 923:/home/phong/Documents/thesis/stm32f4/stm-idf/components/stm32f4xx_hal_driver/stm32f4xx_hal_can.c ****         ((0x0000FFFFU & (uint32_t)sFilterConfig->FilterMaskIdLow) << 16U) |
 385              		.loc 1 923 0
 386 0074 4834     		adds	r4, r4, #72
ARM GAS  /tmp/ccW24XdO.s 			page 26


 387 0076 43F83450 		str	r5, [r3, r4, lsl #3]
 929:/home/phong/Documents/thesis/stm32f4/stm-idf/components/stm32f4xx_hal_driver/stm32f4xx_hal_can.c ****         ((0x0000FFFFU & (uint32_t)sFilterConfig->FilterMaskIdHigh) << 16U) |
 388              		.loc 1 929 0
 389 007a 4D69     		ldr	r5, [r1, #20]
 930:/home/phong/Documents/thesis/stm32f4/stm-idf/components/stm32f4xx_hal_driver/stm32f4xx_hal_can.c ****         (0x0000FFFFU & (uint32_t)sFilterConfig->FilterIdHigh);
 390              		.loc 1 930 0
 391 007c 8E68     		ldr	r6, [r1, #8]
 931:/home/phong/Documents/thesis/stm32f4/stm-idf/components/stm32f4xx_hal_driver/stm32f4xx_hal_can.c ****     }
 392              		.loc 1 931 0
 393 007e 0C88     		ldrh	r4, [r1]
 930:/home/phong/Documents/thesis/stm32f4/stm-idf/components/stm32f4xx_hal_driver/stm32f4xx_hal_can.c ****         (0x0000FFFFU & (uint32_t)sFilterConfig->FilterIdHigh);
 394              		.loc 1 930 0
 395 0080 44EA0644 		orr	r4, r4, r6, lsl #16
 929:/home/phong/Documents/thesis/stm32f4/stm-idf/components/stm32f4xx_hal_driver/stm32f4xx_hal_can.c ****         ((0x0000FFFFU & (uint32_t)sFilterConfig->FilterMaskIdHigh) << 16U) |
 396              		.loc 1 929 0
 397 0084 4835     		adds	r5, r5, #72
 398 0086 03EBC503 		add	r3, r3, r5, lsl #3
 399 008a 5C60     		str	r4, [r3, #4]
 400              	.L38:
 934:/home/phong/Documents/thesis/stm32f4/stm-idf/components/stm32f4xx_hal_driver/stm32f4xx_hal_can.c ****     {
 401              		.loc 1 934 0
 402 008c CB69     		ldr	r3, [r1, #28]
 403 008e 012B     		cmp	r3, #1
 404 0090 1DD0     		beq	.L51
 405              	.L39:
 951:/home/phong/Documents/thesis/stm32f4/stm-idf/components/stm32f4xx_hal_driver/stm32f4xx_hal_can.c ****     {
 406              		.loc 1 951 0
 407 0092 8B69     		ldr	r3, [r1, #24]
 408 0094 002B     		cmp	r3, #0
 409 0096 32D1     		bne	.L40
 954:/home/phong/Documents/thesis/stm32f4/stm-idf/components/stm32f4xx_hal_driver/stm32f4xx_hal_can.c ****     }
 410              		.loc 1 954 0
 411 0098 234C     		ldr	r4, .L53
 412 009a D4F80432 		ldr	r3, [r4, #516]
 413 009e 0340     		ands	r3, r3, r0
 414 00a0 C4F80432 		str	r3, [r4, #516]
 415              	.L41:
 963:/home/phong/Documents/thesis/stm32f4/stm-idf/components/stm32f4xx_hal_driver/stm32f4xx_hal_can.c ****     {
 416              		.loc 1 963 0
 417 00a4 0B69     		ldr	r3, [r1, #16]
 418 00a6 8BBB     		cbnz	r3, .L42
 966:/home/phong/Documents/thesis/stm32f4/stm-idf/components/stm32f4xx_hal_driver/stm32f4xx_hal_can.c ****     }
 419              		.loc 1 966 0
 420 00a8 1F4B     		ldr	r3, .L53
 421 00aa D3F81442 		ldr	r4, [r3, #532]
 422 00ae 2040     		ands	r0, r0, r4
 423 00b0 C3F81402 		str	r0, [r3, #532]
 424              	.L43:
 975:/home/phong/Documents/thesis/stm32f4/stm-idf/components/stm32f4xx_hal_driver/stm32f4xx_hal_can.c ****     {
 425              		.loc 1 975 0
 426 00b4 0B6A     		ldr	r3, [r1, #32]
 427 00b6 012B     		cmp	r3, #1
 428 00b8 2FD0     		beq	.L52
 429              	.LVL25:
 430              	.L44:
 981:/home/phong/Documents/thesis/stm32f4/stm-idf/components/stm32f4xx_hal_driver/stm32f4xx_hal_can.c **** 
 431              		.loc 1 981 0
ARM GAS  /tmp/ccW24XdO.s 			page 27


 432 00ba 1B4A     		ldr	r2, .L53
 433 00bc D2F80032 		ldr	r3, [r2, #512]
 434 00c0 23F00103 		bic	r3, r3, #1
 435 00c4 C2F80032 		str	r3, [r2, #512]
 984:/home/phong/Documents/thesis/stm32f4/stm-idf/components/stm32f4xx_hal_driver/stm32f4xx_hal_can.c ****   }
 436              		.loc 1 984 0
 437 00c8 0020     		movs	r0, #0
 992:/home/phong/Documents/thesis/stm32f4/stm-idf/components/stm32f4xx_hal_driver/stm32f4xx_hal_can.c ****   }
 993:/home/phong/Documents/thesis/stm32f4/stm-idf/components/stm32f4xx_hal_driver/stm32f4xx_hal_can.c **** }
 438              		.loc 1 993 0
 439 00ca 70BC     		pop	{r4, r5, r6}
 440              	.LCFI3:
 441              		.cfi_remember_state
 442              		.cfi_restore 6
 443              		.cfi_restore 5
 444              		.cfi_restore 4
 445              		.cfi_def_cfa_offset 0
 446 00cc 7047     		bx	lr
 447              	.LVL26:
 448              	.L51:
 449              	.LCFI4:
 450              		.cfi_restore_state
 937:/home/phong/Documents/thesis/stm32f4/stm-idf/components/stm32f4xx_hal_driver/stm32f4xx_hal_can.c **** 
 451              		.loc 1 937 0
 452 00ce 164B     		ldr	r3, .L53
 453 00d0 D3F80C42 		ldr	r4, [r3, #524]
 454 00d4 1443     		orrs	r4, r4, r2
 455 00d6 C3F80C42 		str	r4, [r3, #524]
 940:/home/phong/Documents/thesis/stm32f4/stm-idf/components/stm32f4xx_hal_driver/stm32f4xx_hal_can.c ****         ((0x0000FFFFU & (uint32_t)sFilterConfig->FilterIdHigh) << 16U) |
 456              		.loc 1 940 0
 457 00da 4C69     		ldr	r4, [r1, #20]
 941:/home/phong/Documents/thesis/stm32f4/stm-idf/components/stm32f4xx_hal_driver/stm32f4xx_hal_can.c ****         (0x0000FFFFU & (uint32_t)sFilterConfig->FilterIdLow);
 458              		.loc 1 941 0
 459 00dc 0E68     		ldr	r6, [r1]
 942:/home/phong/Documents/thesis/stm32f4/stm-idf/components/stm32f4xx_hal_driver/stm32f4xx_hal_can.c **** 
 460              		.loc 1 942 0
 461 00de 8D88     		ldrh	r5, [r1, #4]
 941:/home/phong/Documents/thesis/stm32f4/stm-idf/components/stm32f4xx_hal_driver/stm32f4xx_hal_can.c ****         (0x0000FFFFU & (uint32_t)sFilterConfig->FilterIdLow);
 462              		.loc 1 941 0
 463 00e0 45EA0645 		orr	r5, r5, r6, lsl #16
 940:/home/phong/Documents/thesis/stm32f4/stm-idf/components/stm32f4xx_hal_driver/stm32f4xx_hal_can.c ****         ((0x0000FFFFU & (uint32_t)sFilterConfig->FilterIdHigh) << 16U) |
 464              		.loc 1 940 0
 465 00e4 4834     		adds	r4, r4, #72
 466 00e6 43F83450 		str	r5, [r3, r4, lsl #3]
 945:/home/phong/Documents/thesis/stm32f4/stm-idf/components/stm32f4xx_hal_driver/stm32f4xx_hal_can.c ****         ((0x0000FFFFU & (uint32_t)sFilterConfig->FilterMaskIdHigh) << 16U) |
 467              		.loc 1 945 0
 468 00ea 4D69     		ldr	r5, [r1, #20]
 946:/home/phong/Documents/thesis/stm32f4/stm-idf/components/stm32f4xx_hal_driver/stm32f4xx_hal_can.c ****         (0x0000FFFFU & (uint32_t)sFilterConfig->FilterMaskIdLow);
 469              		.loc 1 946 0
 470 00ec 8E68     		ldr	r6, [r1, #8]
 947:/home/phong/Documents/thesis/stm32f4/stm-idf/components/stm32f4xx_hal_driver/stm32f4xx_hal_can.c ****     }
 471              		.loc 1 947 0
 472 00ee 8C89     		ldrh	r4, [r1, #12]
 946:/home/phong/Documents/thesis/stm32f4/stm-idf/components/stm32f4xx_hal_driver/stm32f4xx_hal_can.c ****         (0x0000FFFFU & (uint32_t)sFilterConfig->FilterMaskIdLow);
 473              		.loc 1 946 0
 474 00f0 44EA0644 		orr	r4, r4, r6, lsl #16
 945:/home/phong/Documents/thesis/stm32f4/stm-idf/components/stm32f4xx_hal_driver/stm32f4xx_hal_can.c ****         ((0x0000FFFFU & (uint32_t)sFilterConfig->FilterMaskIdHigh) << 16U) |
ARM GAS  /tmp/ccW24XdO.s 			page 28


 475              		.loc 1 945 0
 476 00f4 4835     		adds	r5, r5, #72
 477 00f6 03EBC503 		add	r3, r3, r5, lsl #3
 478 00fa 5C60     		str	r4, [r3, #4]
 479 00fc C9E7     		b	.L39
 480              	.L40:
 959:/home/phong/Documents/thesis/stm32f4/stm-idf/components/stm32f4xx_hal_driver/stm32f4xx_hal_can.c ****     }
 481              		.loc 1 959 0
 482 00fe 0A4C     		ldr	r4, .L53
 483 0100 D4F80432 		ldr	r3, [r4, #516]
 484 0104 1343     		orrs	r3, r3, r2
 485 0106 C4F80432 		str	r3, [r4, #516]
 486 010a CBE7     		b	.L41
 487              	.L42:
 971:/home/phong/Documents/thesis/stm32f4/stm-idf/components/stm32f4xx_hal_driver/stm32f4xx_hal_can.c ****     }
 488              		.loc 1 971 0
 489 010c 0648     		ldr	r0, .L53
 490 010e D0F81432 		ldr	r3, [r0, #532]
 491 0112 1343     		orrs	r3, r3, r2
 492 0114 C0F81432 		str	r3, [r0, #532]
 493 0118 CCE7     		b	.L43
 494              	.L52:
 977:/home/phong/Documents/thesis/stm32f4/stm-idf/components/stm32f4xx_hal_driver/stm32f4xx_hal_can.c ****     }
 495              		.loc 1 977 0
 496 011a 034B     		ldr	r3, .L53
 497 011c D3F81C12 		ldr	r1, [r3, #540]
 498              	.LVL27:
 499 0120 0A43     		orrs	r2, r2, r1
 500              	.LVL28:
 501 0122 C3F81C22 		str	r2, [r3, #540]
 502 0126 C8E7     		b	.L44
 503              	.L54:
 504              		.align	2
 505              	.L53:
 506 0128 00640040 		.word	1073767424
 507              		.cfi_endproc
 508              	.LFE134:
 510              		.section	.text.HAL_CAN_Start,"ax",%progbits
 511              		.align	1
 512              		.global	HAL_CAN_Start
 513              		.syntax unified
 514              		.thumb
 515              		.thumb_func
 516              		.fpu fpv4-sp-d16
 518              	HAL_CAN_Start:
 519              	.LFB135:
 994:/home/phong/Documents/thesis/stm32f4/stm-idf/components/stm32f4xx_hal_driver/stm32f4xx_hal_can.c **** 
 995:/home/phong/Documents/thesis/stm32f4/stm-idf/components/stm32f4xx_hal_driver/stm32f4xx_hal_can.c **** /**
 996:/home/phong/Documents/thesis/stm32f4/stm-idf/components/stm32f4xx_hal_driver/stm32f4xx_hal_can.c ****   * @}
 997:/home/phong/Documents/thesis/stm32f4/stm-idf/components/stm32f4xx_hal_driver/stm32f4xx_hal_can.c ****   */
 998:/home/phong/Documents/thesis/stm32f4/stm-idf/components/stm32f4xx_hal_driver/stm32f4xx_hal_can.c **** 
 999:/home/phong/Documents/thesis/stm32f4/stm-idf/components/stm32f4xx_hal_driver/stm32f4xx_hal_can.c **** /** @defgroup CAN_Exported_Functions_Group3 Control functions
1000:/home/phong/Documents/thesis/stm32f4/stm-idf/components/stm32f4xx_hal_driver/stm32f4xx_hal_can.c ****  *  @brief    Control functions
1001:/home/phong/Documents/thesis/stm32f4/stm-idf/components/stm32f4xx_hal_driver/stm32f4xx_hal_can.c ****  *
1002:/home/phong/Documents/thesis/stm32f4/stm-idf/components/stm32f4xx_hal_driver/stm32f4xx_hal_can.c **** @verbatim
1003:/home/phong/Documents/thesis/stm32f4/stm-idf/components/stm32f4xx_hal_driver/stm32f4xx_hal_can.c ****   ==============================================================================
1004:/home/phong/Documents/thesis/stm32f4/stm-idf/components/stm32f4xx_hal_driver/stm32f4xx_hal_can.c ****                       ##### Control functions #####
ARM GAS  /tmp/ccW24XdO.s 			page 29


1005:/home/phong/Documents/thesis/stm32f4/stm-idf/components/stm32f4xx_hal_driver/stm32f4xx_hal_can.c ****   ==============================================================================
1006:/home/phong/Documents/thesis/stm32f4/stm-idf/components/stm32f4xx_hal_driver/stm32f4xx_hal_can.c ****     [..]  This section provides functions allowing to:
1007:/home/phong/Documents/thesis/stm32f4/stm-idf/components/stm32f4xx_hal_driver/stm32f4xx_hal_can.c ****       (+) HAL_CAN_Start                    : Start the CAN module
1008:/home/phong/Documents/thesis/stm32f4/stm-idf/components/stm32f4xx_hal_driver/stm32f4xx_hal_can.c ****       (+) HAL_CAN_Stop                     : Stop the CAN module
1009:/home/phong/Documents/thesis/stm32f4/stm-idf/components/stm32f4xx_hal_driver/stm32f4xx_hal_can.c ****       (+) HAL_CAN_RequestSleep             : Request sleep mode entry.
1010:/home/phong/Documents/thesis/stm32f4/stm-idf/components/stm32f4xx_hal_driver/stm32f4xx_hal_can.c ****       (+) HAL_CAN_WakeUp                   : Wake up from sleep mode.
1011:/home/phong/Documents/thesis/stm32f4/stm-idf/components/stm32f4xx_hal_driver/stm32f4xx_hal_can.c ****       (+) HAL_CAN_IsSleepActive            : Check is sleep mode is active.
1012:/home/phong/Documents/thesis/stm32f4/stm-idf/components/stm32f4xx_hal_driver/stm32f4xx_hal_can.c ****       (+) HAL_CAN_AddTxMessage             : Add a message to the Tx mailboxes
1013:/home/phong/Documents/thesis/stm32f4/stm-idf/components/stm32f4xx_hal_driver/stm32f4xx_hal_can.c ****                                              and activate the corresponding
1014:/home/phong/Documents/thesis/stm32f4/stm-idf/components/stm32f4xx_hal_driver/stm32f4xx_hal_can.c ****                                              transmission request
1015:/home/phong/Documents/thesis/stm32f4/stm-idf/components/stm32f4xx_hal_driver/stm32f4xx_hal_can.c ****       (+) HAL_CAN_AbortTxRequest           : Abort transmission request
1016:/home/phong/Documents/thesis/stm32f4/stm-idf/components/stm32f4xx_hal_driver/stm32f4xx_hal_can.c ****       (+) HAL_CAN_GetTxMailboxesFreeLevel  : Return Tx mailboxes free level
1017:/home/phong/Documents/thesis/stm32f4/stm-idf/components/stm32f4xx_hal_driver/stm32f4xx_hal_can.c ****       (+) HAL_CAN_IsTxMessagePending       : Check if a transmission request is
1018:/home/phong/Documents/thesis/stm32f4/stm-idf/components/stm32f4xx_hal_driver/stm32f4xx_hal_can.c ****                                              pending on the selected Tx mailbox
1019:/home/phong/Documents/thesis/stm32f4/stm-idf/components/stm32f4xx_hal_driver/stm32f4xx_hal_can.c ****       (+) HAL_CAN_GetRxMessage             : Get a CAN frame from the Rx FIFO
1020:/home/phong/Documents/thesis/stm32f4/stm-idf/components/stm32f4xx_hal_driver/stm32f4xx_hal_can.c ****       (+) HAL_CAN_GetRxFifoFillLevel       : Return Rx FIFO fill level
1021:/home/phong/Documents/thesis/stm32f4/stm-idf/components/stm32f4xx_hal_driver/stm32f4xx_hal_can.c **** 
1022:/home/phong/Documents/thesis/stm32f4/stm-idf/components/stm32f4xx_hal_driver/stm32f4xx_hal_can.c **** @endverbatim
1023:/home/phong/Documents/thesis/stm32f4/stm-idf/components/stm32f4xx_hal_driver/stm32f4xx_hal_can.c ****   * @{
1024:/home/phong/Documents/thesis/stm32f4/stm-idf/components/stm32f4xx_hal_driver/stm32f4xx_hal_can.c ****   */
1025:/home/phong/Documents/thesis/stm32f4/stm-idf/components/stm32f4xx_hal_driver/stm32f4xx_hal_can.c **** 
1026:/home/phong/Documents/thesis/stm32f4/stm-idf/components/stm32f4xx_hal_driver/stm32f4xx_hal_can.c **** /**
1027:/home/phong/Documents/thesis/stm32f4/stm-idf/components/stm32f4xx_hal_driver/stm32f4xx_hal_can.c ****   * @brief  Start the CAN module.
1028:/home/phong/Documents/thesis/stm32f4/stm-idf/components/stm32f4xx_hal_driver/stm32f4xx_hal_can.c ****   * @param  hcan pointer to an CAN_HandleTypeDef structure that contains
1029:/home/phong/Documents/thesis/stm32f4/stm-idf/components/stm32f4xx_hal_driver/stm32f4xx_hal_can.c ****   *         the configuration information for the specified CAN.
1030:/home/phong/Documents/thesis/stm32f4/stm-idf/components/stm32f4xx_hal_driver/stm32f4xx_hal_can.c ****   * @retval HAL status
1031:/home/phong/Documents/thesis/stm32f4/stm-idf/components/stm32f4xx_hal_driver/stm32f4xx_hal_can.c ****   */
1032:/home/phong/Documents/thesis/stm32f4/stm-idf/components/stm32f4xx_hal_driver/stm32f4xx_hal_can.c **** HAL_StatusTypeDef HAL_CAN_Start(CAN_HandleTypeDef *hcan)
1033:/home/phong/Documents/thesis/stm32f4/stm-idf/components/stm32f4xx_hal_driver/stm32f4xx_hal_can.c **** {
 520              		.loc 1 1033 0
 521              		.cfi_startproc
 522              		@ args = 0, pretend = 0, frame = 0
 523              		@ frame_needed = 0, uses_anonymous_args = 0
 524              	.LVL29:
 525 0000 38B5     		push	{r3, r4, r5, lr}
 526              	.LCFI5:
 527              		.cfi_def_cfa_offset 16
 528              		.cfi_offset 3, -16
 529              		.cfi_offset 4, -12
 530              		.cfi_offset 5, -8
 531              		.cfi_offset 14, -4
1034:/home/phong/Documents/thesis/stm32f4/stm-idf/components/stm32f4xx_hal_driver/stm32f4xx_hal_can.c ****   uint32_t tickstart;
1035:/home/phong/Documents/thesis/stm32f4/stm-idf/components/stm32f4xx_hal_driver/stm32f4xx_hal_can.c **** 
1036:/home/phong/Documents/thesis/stm32f4/stm-idf/components/stm32f4xx_hal_driver/stm32f4xx_hal_can.c ****   if (hcan->State == HAL_CAN_STATE_READY)
 532              		.loc 1 1036 0
 533 0002 90F82030 		ldrb	r3, [r0, #32]	@ zero_extendqisi2
 534 0006 DBB2     		uxtb	r3, r3
 535 0008 012B     		cmp	r3, #1
 536 000a 05D0     		beq	.L61
1037:/home/phong/Documents/thesis/stm32f4/stm-idf/components/stm32f4xx_hal_driver/stm32f4xx_hal_can.c ****   {
1038:/home/phong/Documents/thesis/stm32f4/stm-idf/components/stm32f4xx_hal_driver/stm32f4xx_hal_can.c ****     /* Change CAN peripheral state */
1039:/home/phong/Documents/thesis/stm32f4/stm-idf/components/stm32f4xx_hal_driver/stm32f4xx_hal_can.c ****     hcan->State = HAL_CAN_STATE_LISTENING;
1040:/home/phong/Documents/thesis/stm32f4/stm-idf/components/stm32f4xx_hal_driver/stm32f4xx_hal_can.c **** 
1041:/home/phong/Documents/thesis/stm32f4/stm-idf/components/stm32f4xx_hal_driver/stm32f4xx_hal_can.c ****     /* Request leave initialisation */
1042:/home/phong/Documents/thesis/stm32f4/stm-idf/components/stm32f4xx_hal_driver/stm32f4xx_hal_can.c ****     CLEAR_BIT(hcan->Instance->MCR, CAN_MCR_INRQ);
1043:/home/phong/Documents/thesis/stm32f4/stm-idf/components/stm32f4xx_hal_driver/stm32f4xx_hal_can.c **** 
1044:/home/phong/Documents/thesis/stm32f4/stm-idf/components/stm32f4xx_hal_driver/stm32f4xx_hal_can.c ****     /* Get tick */
ARM GAS  /tmp/ccW24XdO.s 			page 30


1045:/home/phong/Documents/thesis/stm32f4/stm-idf/components/stm32f4xx_hal_driver/stm32f4xx_hal_can.c ****     tickstart = HAL_GetTick();
1046:/home/phong/Documents/thesis/stm32f4/stm-idf/components/stm32f4xx_hal_driver/stm32f4xx_hal_can.c **** 
1047:/home/phong/Documents/thesis/stm32f4/stm-idf/components/stm32f4xx_hal_driver/stm32f4xx_hal_can.c ****     /* Wait the acknowledge */
1048:/home/phong/Documents/thesis/stm32f4/stm-idf/components/stm32f4xx_hal_driver/stm32f4xx_hal_can.c ****     while ((hcan->Instance->MSR & CAN_MSR_INAK) != 0U)
1049:/home/phong/Documents/thesis/stm32f4/stm-idf/components/stm32f4xx_hal_driver/stm32f4xx_hal_can.c ****     {
1050:/home/phong/Documents/thesis/stm32f4/stm-idf/components/stm32f4xx_hal_driver/stm32f4xx_hal_can.c ****       /* Check for the Timeout */
1051:/home/phong/Documents/thesis/stm32f4/stm-idf/components/stm32f4xx_hal_driver/stm32f4xx_hal_can.c ****       if ((HAL_GetTick() - tickstart) > CAN_TIMEOUT_VALUE)
1052:/home/phong/Documents/thesis/stm32f4/stm-idf/components/stm32f4xx_hal_driver/stm32f4xx_hal_can.c ****       {
1053:/home/phong/Documents/thesis/stm32f4/stm-idf/components/stm32f4xx_hal_driver/stm32f4xx_hal_can.c ****         /* Update error code */
1054:/home/phong/Documents/thesis/stm32f4/stm-idf/components/stm32f4xx_hal_driver/stm32f4xx_hal_can.c ****         hcan->ErrorCode |= HAL_CAN_ERROR_TIMEOUT;
1055:/home/phong/Documents/thesis/stm32f4/stm-idf/components/stm32f4xx_hal_driver/stm32f4xx_hal_can.c **** 
1056:/home/phong/Documents/thesis/stm32f4/stm-idf/components/stm32f4xx_hal_driver/stm32f4xx_hal_can.c ****         /* Change CAN state */
1057:/home/phong/Documents/thesis/stm32f4/stm-idf/components/stm32f4xx_hal_driver/stm32f4xx_hal_can.c ****         hcan->State = HAL_CAN_STATE_ERROR;
1058:/home/phong/Documents/thesis/stm32f4/stm-idf/components/stm32f4xx_hal_driver/stm32f4xx_hal_can.c **** 
1059:/home/phong/Documents/thesis/stm32f4/stm-idf/components/stm32f4xx_hal_driver/stm32f4xx_hal_can.c ****         return HAL_ERROR;
1060:/home/phong/Documents/thesis/stm32f4/stm-idf/components/stm32f4xx_hal_driver/stm32f4xx_hal_can.c ****       }
1061:/home/phong/Documents/thesis/stm32f4/stm-idf/components/stm32f4xx_hal_driver/stm32f4xx_hal_can.c ****     }
1062:/home/phong/Documents/thesis/stm32f4/stm-idf/components/stm32f4xx_hal_driver/stm32f4xx_hal_can.c **** 
1063:/home/phong/Documents/thesis/stm32f4/stm-idf/components/stm32f4xx_hal_driver/stm32f4xx_hal_can.c ****     /* Reset the CAN ErrorCode */
1064:/home/phong/Documents/thesis/stm32f4/stm-idf/components/stm32f4xx_hal_driver/stm32f4xx_hal_can.c ****     hcan->ErrorCode = HAL_CAN_ERROR_NONE;
1065:/home/phong/Documents/thesis/stm32f4/stm-idf/components/stm32f4xx_hal_driver/stm32f4xx_hal_can.c **** 
1066:/home/phong/Documents/thesis/stm32f4/stm-idf/components/stm32f4xx_hal_driver/stm32f4xx_hal_can.c ****     /* Return function status */
1067:/home/phong/Documents/thesis/stm32f4/stm-idf/components/stm32f4xx_hal_driver/stm32f4xx_hal_can.c ****     return HAL_OK;
1068:/home/phong/Documents/thesis/stm32f4/stm-idf/components/stm32f4xx_hal_driver/stm32f4xx_hal_can.c ****   }
1069:/home/phong/Documents/thesis/stm32f4/stm-idf/components/stm32f4xx_hal_driver/stm32f4xx_hal_can.c ****   else
1070:/home/phong/Documents/thesis/stm32f4/stm-idf/components/stm32f4xx_hal_driver/stm32f4xx_hal_can.c ****   {
1071:/home/phong/Documents/thesis/stm32f4/stm-idf/components/stm32f4xx_hal_driver/stm32f4xx_hal_can.c ****     /* Update error code */
1072:/home/phong/Documents/thesis/stm32f4/stm-idf/components/stm32f4xx_hal_driver/stm32f4xx_hal_can.c ****     hcan->ErrorCode |= HAL_CAN_ERROR_NOT_READY;
 537              		.loc 1 1072 0
 538 000c 436A     		ldr	r3, [r0, #36]
 539 000e 43F40023 		orr	r3, r3, #524288
 540 0012 4362     		str	r3, [r0, #36]
1073:/home/phong/Documents/thesis/stm32f4/stm-idf/components/stm32f4xx_hal_driver/stm32f4xx_hal_can.c **** 
1074:/home/phong/Documents/thesis/stm32f4/stm-idf/components/stm32f4xx_hal_driver/stm32f4xx_hal_can.c ****     return HAL_ERROR;
 541              		.loc 1 1074 0
 542 0014 0120     		movs	r0, #1
 543              	.LVL30:
1075:/home/phong/Documents/thesis/stm32f4/stm-idf/components/stm32f4xx_hal_driver/stm32f4xx_hal_can.c ****   }
1076:/home/phong/Documents/thesis/stm32f4/stm-idf/components/stm32f4xx_hal_driver/stm32f4xx_hal_can.c **** }
 544              		.loc 1 1076 0
 545 0016 38BD     		pop	{r3, r4, r5, pc}
 546              	.LVL31:
 547              	.L61:
 548 0018 0446     		mov	r4, r0
1039:/home/phong/Documents/thesis/stm32f4/stm-idf/components/stm32f4xx_hal_driver/stm32f4xx_hal_can.c **** 
 549              		.loc 1 1039 0
 550 001a 0223     		movs	r3, #2
 551 001c 80F82030 		strb	r3, [r0, #32]
1042:/home/phong/Documents/thesis/stm32f4/stm-idf/components/stm32f4xx_hal_driver/stm32f4xx_hal_can.c **** 
 552              		.loc 1 1042 0
 553 0020 0268     		ldr	r2, [r0]
 554 0022 1368     		ldr	r3, [r2]
 555 0024 23F00103 		bic	r3, r3, #1
 556 0028 1360     		str	r3, [r2]
1045:/home/phong/Documents/thesis/stm32f4/stm-idf/components/stm32f4xx_hal_driver/stm32f4xx_hal_can.c **** 
 557              		.loc 1 1045 0
 558 002a FFF7FEFF 		bl	HAL_GetTick
ARM GAS  /tmp/ccW24XdO.s 			page 31


 559              	.LVL32:
 560 002e 0546     		mov	r5, r0
 561              	.LVL33:
 562              	.L57:
1048:/home/phong/Documents/thesis/stm32f4/stm-idf/components/stm32f4xx_hal_driver/stm32f4xx_hal_can.c ****     {
 563              		.loc 1 1048 0
 564 0030 2368     		ldr	r3, [r4]
 565 0032 5B68     		ldr	r3, [r3, #4]
 566 0034 13F0010F 		tst	r3, #1
 567 0038 0DD0     		beq	.L62
1051:/home/phong/Documents/thesis/stm32f4/stm-idf/components/stm32f4xx_hal_driver/stm32f4xx_hal_can.c ****       {
 568              		.loc 1 1051 0
 569 003a FFF7FEFF 		bl	HAL_GetTick
 570              	.LVL34:
 571 003e 401B     		subs	r0, r0, r5
 572 0040 0A28     		cmp	r0, #10
 573 0042 F5D9     		bls	.L57
1054:/home/phong/Documents/thesis/stm32f4/stm-idf/components/stm32f4xx_hal_driver/stm32f4xx_hal_can.c **** 
 574              		.loc 1 1054 0
 575 0044 636A     		ldr	r3, [r4, #36]
 576 0046 43F40033 		orr	r3, r3, #131072
 577 004a 6362     		str	r3, [r4, #36]
1057:/home/phong/Documents/thesis/stm32f4/stm-idf/components/stm32f4xx_hal_driver/stm32f4xx_hal_can.c **** 
 578              		.loc 1 1057 0
 579 004c 0523     		movs	r3, #5
 580 004e 84F82030 		strb	r3, [r4, #32]
1059:/home/phong/Documents/thesis/stm32f4/stm-idf/components/stm32f4xx_hal_driver/stm32f4xx_hal_can.c ****       }
 581              		.loc 1 1059 0
 582 0052 0120     		movs	r0, #1
 583 0054 38BD     		pop	{r3, r4, r5, pc}
 584              	.LVL35:
 585              	.L62:
1064:/home/phong/Documents/thesis/stm32f4/stm-idf/components/stm32f4xx_hal_driver/stm32f4xx_hal_can.c **** 
 586              		.loc 1 1064 0
 587 0056 0020     		movs	r0, #0
 588 0058 6062     		str	r0, [r4, #36]
1067:/home/phong/Documents/thesis/stm32f4/stm-idf/components/stm32f4xx_hal_driver/stm32f4xx_hal_can.c ****   }
 589              		.loc 1 1067 0
 590 005a 38BD     		pop	{r3, r4, r5, pc}
 591              		.cfi_endproc
 592              	.LFE135:
 594              		.section	.text.HAL_CAN_Stop,"ax",%progbits
 595              		.align	1
 596              		.global	HAL_CAN_Stop
 597              		.syntax unified
 598              		.thumb
 599              		.thumb_func
 600              		.fpu fpv4-sp-d16
 602              	HAL_CAN_Stop:
 603              	.LFB136:
1077:/home/phong/Documents/thesis/stm32f4/stm-idf/components/stm32f4xx_hal_driver/stm32f4xx_hal_can.c **** 
1078:/home/phong/Documents/thesis/stm32f4/stm-idf/components/stm32f4xx_hal_driver/stm32f4xx_hal_can.c **** /**
1079:/home/phong/Documents/thesis/stm32f4/stm-idf/components/stm32f4xx_hal_driver/stm32f4xx_hal_can.c ****   * @brief  Stop the CAN module and enable access to configuration registers.
1080:/home/phong/Documents/thesis/stm32f4/stm-idf/components/stm32f4xx_hal_driver/stm32f4xx_hal_can.c ****   * @param  hcan pointer to an CAN_HandleTypeDef structure that contains
1081:/home/phong/Documents/thesis/stm32f4/stm-idf/components/stm32f4xx_hal_driver/stm32f4xx_hal_can.c ****   *         the configuration information for the specified CAN.
1082:/home/phong/Documents/thesis/stm32f4/stm-idf/components/stm32f4xx_hal_driver/stm32f4xx_hal_can.c ****   * @retval HAL status
1083:/home/phong/Documents/thesis/stm32f4/stm-idf/components/stm32f4xx_hal_driver/stm32f4xx_hal_can.c ****   */
ARM GAS  /tmp/ccW24XdO.s 			page 32


1084:/home/phong/Documents/thesis/stm32f4/stm-idf/components/stm32f4xx_hal_driver/stm32f4xx_hal_can.c **** HAL_StatusTypeDef HAL_CAN_Stop(CAN_HandleTypeDef *hcan)
1085:/home/phong/Documents/thesis/stm32f4/stm-idf/components/stm32f4xx_hal_driver/stm32f4xx_hal_can.c **** {
 604              		.loc 1 1085 0
 605              		.cfi_startproc
 606              		@ args = 0, pretend = 0, frame = 0
 607              		@ frame_needed = 0, uses_anonymous_args = 0
 608              	.LVL36:
 609 0000 38B5     		push	{r3, r4, r5, lr}
 610              	.LCFI6:
 611              		.cfi_def_cfa_offset 16
 612              		.cfi_offset 3, -16
 613              		.cfi_offset 4, -12
 614              		.cfi_offset 5, -8
 615              		.cfi_offset 14, -4
1086:/home/phong/Documents/thesis/stm32f4/stm-idf/components/stm32f4xx_hal_driver/stm32f4xx_hal_can.c ****   uint32_t tickstart;
1087:/home/phong/Documents/thesis/stm32f4/stm-idf/components/stm32f4xx_hal_driver/stm32f4xx_hal_can.c **** 
1088:/home/phong/Documents/thesis/stm32f4/stm-idf/components/stm32f4xx_hal_driver/stm32f4xx_hal_can.c ****   if (hcan->State == HAL_CAN_STATE_LISTENING)
 616              		.loc 1 1088 0
 617 0002 90F82030 		ldrb	r3, [r0, #32]	@ zero_extendqisi2
 618 0006 DBB2     		uxtb	r3, r3
 619 0008 022B     		cmp	r3, #2
 620 000a 05D0     		beq	.L69
1089:/home/phong/Documents/thesis/stm32f4/stm-idf/components/stm32f4xx_hal_driver/stm32f4xx_hal_can.c ****   {
1090:/home/phong/Documents/thesis/stm32f4/stm-idf/components/stm32f4xx_hal_driver/stm32f4xx_hal_can.c ****     /* Request initialisation */
1091:/home/phong/Documents/thesis/stm32f4/stm-idf/components/stm32f4xx_hal_driver/stm32f4xx_hal_can.c ****     SET_BIT(hcan->Instance->MCR, CAN_MCR_INRQ);
1092:/home/phong/Documents/thesis/stm32f4/stm-idf/components/stm32f4xx_hal_driver/stm32f4xx_hal_can.c **** 
1093:/home/phong/Documents/thesis/stm32f4/stm-idf/components/stm32f4xx_hal_driver/stm32f4xx_hal_can.c ****     /* Get tick */
1094:/home/phong/Documents/thesis/stm32f4/stm-idf/components/stm32f4xx_hal_driver/stm32f4xx_hal_can.c ****     tickstart = HAL_GetTick();
1095:/home/phong/Documents/thesis/stm32f4/stm-idf/components/stm32f4xx_hal_driver/stm32f4xx_hal_can.c **** 
1096:/home/phong/Documents/thesis/stm32f4/stm-idf/components/stm32f4xx_hal_driver/stm32f4xx_hal_can.c ****     /* Wait the acknowledge */
1097:/home/phong/Documents/thesis/stm32f4/stm-idf/components/stm32f4xx_hal_driver/stm32f4xx_hal_can.c ****     while ((hcan->Instance->MSR & CAN_MSR_INAK) == 0U)
1098:/home/phong/Documents/thesis/stm32f4/stm-idf/components/stm32f4xx_hal_driver/stm32f4xx_hal_can.c ****     {
1099:/home/phong/Documents/thesis/stm32f4/stm-idf/components/stm32f4xx_hal_driver/stm32f4xx_hal_can.c ****       /* Check for the Timeout */
1100:/home/phong/Documents/thesis/stm32f4/stm-idf/components/stm32f4xx_hal_driver/stm32f4xx_hal_can.c ****       if ((HAL_GetTick() - tickstart) > CAN_TIMEOUT_VALUE)
1101:/home/phong/Documents/thesis/stm32f4/stm-idf/components/stm32f4xx_hal_driver/stm32f4xx_hal_can.c ****       {
1102:/home/phong/Documents/thesis/stm32f4/stm-idf/components/stm32f4xx_hal_driver/stm32f4xx_hal_can.c ****         /* Update error code */
1103:/home/phong/Documents/thesis/stm32f4/stm-idf/components/stm32f4xx_hal_driver/stm32f4xx_hal_can.c ****         hcan->ErrorCode |= HAL_CAN_ERROR_TIMEOUT;
1104:/home/phong/Documents/thesis/stm32f4/stm-idf/components/stm32f4xx_hal_driver/stm32f4xx_hal_can.c **** 
1105:/home/phong/Documents/thesis/stm32f4/stm-idf/components/stm32f4xx_hal_driver/stm32f4xx_hal_can.c ****         /* Change CAN state */
1106:/home/phong/Documents/thesis/stm32f4/stm-idf/components/stm32f4xx_hal_driver/stm32f4xx_hal_can.c ****         hcan->State = HAL_CAN_STATE_ERROR;
1107:/home/phong/Documents/thesis/stm32f4/stm-idf/components/stm32f4xx_hal_driver/stm32f4xx_hal_can.c **** 
1108:/home/phong/Documents/thesis/stm32f4/stm-idf/components/stm32f4xx_hal_driver/stm32f4xx_hal_can.c ****         return HAL_ERROR;
1109:/home/phong/Documents/thesis/stm32f4/stm-idf/components/stm32f4xx_hal_driver/stm32f4xx_hal_can.c ****       }
1110:/home/phong/Documents/thesis/stm32f4/stm-idf/components/stm32f4xx_hal_driver/stm32f4xx_hal_can.c ****     }
1111:/home/phong/Documents/thesis/stm32f4/stm-idf/components/stm32f4xx_hal_driver/stm32f4xx_hal_can.c **** 
1112:/home/phong/Documents/thesis/stm32f4/stm-idf/components/stm32f4xx_hal_driver/stm32f4xx_hal_can.c ****     /* Exit from sleep mode */
1113:/home/phong/Documents/thesis/stm32f4/stm-idf/components/stm32f4xx_hal_driver/stm32f4xx_hal_can.c ****     CLEAR_BIT(hcan->Instance->MCR, CAN_MCR_SLEEP);
1114:/home/phong/Documents/thesis/stm32f4/stm-idf/components/stm32f4xx_hal_driver/stm32f4xx_hal_can.c **** 
1115:/home/phong/Documents/thesis/stm32f4/stm-idf/components/stm32f4xx_hal_driver/stm32f4xx_hal_can.c ****     /* Change CAN peripheral state */
1116:/home/phong/Documents/thesis/stm32f4/stm-idf/components/stm32f4xx_hal_driver/stm32f4xx_hal_can.c ****     hcan->State = HAL_CAN_STATE_READY;
1117:/home/phong/Documents/thesis/stm32f4/stm-idf/components/stm32f4xx_hal_driver/stm32f4xx_hal_can.c **** 
1118:/home/phong/Documents/thesis/stm32f4/stm-idf/components/stm32f4xx_hal_driver/stm32f4xx_hal_can.c ****     /* Return function status */
1119:/home/phong/Documents/thesis/stm32f4/stm-idf/components/stm32f4xx_hal_driver/stm32f4xx_hal_can.c ****     return HAL_OK;
1120:/home/phong/Documents/thesis/stm32f4/stm-idf/components/stm32f4xx_hal_driver/stm32f4xx_hal_can.c ****   }
1121:/home/phong/Documents/thesis/stm32f4/stm-idf/components/stm32f4xx_hal_driver/stm32f4xx_hal_can.c ****   else
1122:/home/phong/Documents/thesis/stm32f4/stm-idf/components/stm32f4xx_hal_driver/stm32f4xx_hal_can.c ****   {
1123:/home/phong/Documents/thesis/stm32f4/stm-idf/components/stm32f4xx_hal_driver/stm32f4xx_hal_can.c ****     /* Update error code */
ARM GAS  /tmp/ccW24XdO.s 			page 33


1124:/home/phong/Documents/thesis/stm32f4/stm-idf/components/stm32f4xx_hal_driver/stm32f4xx_hal_can.c ****     hcan->ErrorCode |= HAL_CAN_ERROR_NOT_STARTED;
 621              		.loc 1 1124 0
 622 000c 436A     		ldr	r3, [r0, #36]
 623 000e 43F48013 		orr	r3, r3, #1048576
 624 0012 4362     		str	r3, [r0, #36]
1125:/home/phong/Documents/thesis/stm32f4/stm-idf/components/stm32f4xx_hal_driver/stm32f4xx_hal_can.c **** 
1126:/home/phong/Documents/thesis/stm32f4/stm-idf/components/stm32f4xx_hal_driver/stm32f4xx_hal_can.c ****     return HAL_ERROR;
 625              		.loc 1 1126 0
 626 0014 0120     		movs	r0, #1
 627              	.LVL37:
1127:/home/phong/Documents/thesis/stm32f4/stm-idf/components/stm32f4xx_hal_driver/stm32f4xx_hal_can.c ****   }
1128:/home/phong/Documents/thesis/stm32f4/stm-idf/components/stm32f4xx_hal_driver/stm32f4xx_hal_can.c **** }
 628              		.loc 1 1128 0
 629 0016 38BD     		pop	{r3, r4, r5, pc}
 630              	.LVL38:
 631              	.L69:
 632 0018 0446     		mov	r4, r0
1091:/home/phong/Documents/thesis/stm32f4/stm-idf/components/stm32f4xx_hal_driver/stm32f4xx_hal_can.c **** 
 633              		.loc 1 1091 0
 634 001a 0268     		ldr	r2, [r0]
 635 001c 1368     		ldr	r3, [r2]
 636 001e 43F00103 		orr	r3, r3, #1
 637 0022 1360     		str	r3, [r2]
1094:/home/phong/Documents/thesis/stm32f4/stm-idf/components/stm32f4xx_hal_driver/stm32f4xx_hal_can.c **** 
 638              		.loc 1 1094 0
 639 0024 FFF7FEFF 		bl	HAL_GetTick
 640              	.LVL39:
 641 0028 0546     		mov	r5, r0
 642              	.LVL40:
 643              	.L65:
1097:/home/phong/Documents/thesis/stm32f4/stm-idf/components/stm32f4xx_hal_driver/stm32f4xx_hal_can.c ****     {
 644              		.loc 1 1097 0
 645 002a 2368     		ldr	r3, [r4]
 646 002c 5A68     		ldr	r2, [r3, #4]
 647 002e 12F0010F 		tst	r2, #1
 648 0032 0DD1     		bne	.L70
1100:/home/phong/Documents/thesis/stm32f4/stm-idf/components/stm32f4xx_hal_driver/stm32f4xx_hal_can.c ****       {
 649              		.loc 1 1100 0
 650 0034 FFF7FEFF 		bl	HAL_GetTick
 651              	.LVL41:
 652 0038 401B     		subs	r0, r0, r5
 653 003a 0A28     		cmp	r0, #10
 654 003c F5D9     		bls	.L65
1103:/home/phong/Documents/thesis/stm32f4/stm-idf/components/stm32f4xx_hal_driver/stm32f4xx_hal_can.c **** 
 655              		.loc 1 1103 0
 656 003e 636A     		ldr	r3, [r4, #36]
 657 0040 43F40033 		orr	r3, r3, #131072
 658 0044 6362     		str	r3, [r4, #36]
1106:/home/phong/Documents/thesis/stm32f4/stm-idf/components/stm32f4xx_hal_driver/stm32f4xx_hal_can.c **** 
 659              		.loc 1 1106 0
 660 0046 0523     		movs	r3, #5
 661 0048 84F82030 		strb	r3, [r4, #32]
1108:/home/phong/Documents/thesis/stm32f4/stm-idf/components/stm32f4xx_hal_driver/stm32f4xx_hal_can.c ****       }
 662              		.loc 1 1108 0
 663 004c 0120     		movs	r0, #1
 664 004e 38BD     		pop	{r3, r4, r5, pc}
 665              	.LVL42:
ARM GAS  /tmp/ccW24XdO.s 			page 34


 666              	.L70:
1113:/home/phong/Documents/thesis/stm32f4/stm-idf/components/stm32f4xx_hal_driver/stm32f4xx_hal_can.c **** 
 667              		.loc 1 1113 0
 668 0050 1A68     		ldr	r2, [r3]
 669 0052 22F00202 		bic	r2, r2, #2
 670 0056 1A60     		str	r2, [r3]
1116:/home/phong/Documents/thesis/stm32f4/stm-idf/components/stm32f4xx_hal_driver/stm32f4xx_hal_can.c **** 
 671              		.loc 1 1116 0
 672 0058 0123     		movs	r3, #1
 673 005a 84F82030 		strb	r3, [r4, #32]
1119:/home/phong/Documents/thesis/stm32f4/stm-idf/components/stm32f4xx_hal_driver/stm32f4xx_hal_can.c ****   }
 674              		.loc 1 1119 0
 675 005e 0020     		movs	r0, #0
 676 0060 38BD     		pop	{r3, r4, r5, pc}
 677              		.cfi_endproc
 678              	.LFE136:
 680              		.section	.text.HAL_CAN_DeInit,"ax",%progbits
 681              		.align	1
 682              		.global	HAL_CAN_DeInit
 683              		.syntax unified
 684              		.thumb
 685              		.thumb_func
 686              		.fpu fpv4-sp-d16
 688              	HAL_CAN_DeInit:
 689              	.LFB131:
 460:/home/phong/Documents/thesis/stm32f4/stm-idf/components/stm32f4xx_hal_driver/stm32f4xx_hal_can.c ****   /* Check CAN handle */
 690              		.loc 1 460 0
 691              		.cfi_startproc
 692              		@ args = 0, pretend = 0, frame = 0
 693              		@ frame_needed = 0, uses_anonymous_args = 0
 694              	.LVL43:
 462:/home/phong/Documents/thesis/stm32f4/stm-idf/components/stm32f4xx_hal_driver/stm32f4xx_hal_can.c ****   {
 695              		.loc 1 462 0
 696 0000 80B1     		cbz	r0, .L73
 460:/home/phong/Documents/thesis/stm32f4/stm-idf/components/stm32f4xx_hal_driver/stm32f4xx_hal_can.c ****   /* Check CAN handle */
 697              		.loc 1 460 0
 698 0002 10B5     		push	{r4, lr}
 699              	.LCFI7:
 700              		.cfi_def_cfa_offset 8
 701              		.cfi_offset 4, -8
 702              		.cfi_offset 14, -4
 703 0004 0446     		mov	r4, r0
 471:/home/phong/Documents/thesis/stm32f4/stm-idf/components/stm32f4xx_hal_driver/stm32f4xx_hal_can.c **** 
 704              		.loc 1 471 0
 705 0006 FFF7FEFF 		bl	HAL_CAN_Stop
 706              	.LVL44:
 484:/home/phong/Documents/thesis/stm32f4/stm-idf/components/stm32f4xx_hal_driver/stm32f4xx_hal_can.c **** #endif /* (USE_HAL_CAN_REGISTER_CALLBACKS) */
 707              		.loc 1 484 0
 708 000a 2046     		mov	r0, r4
 709 000c FFF7FEFF 		bl	HAL_CAN_MspDeInit
 710              	.LVL45:
 488:/home/phong/Documents/thesis/stm32f4/stm-idf/components/stm32f4xx_hal_driver/stm32f4xx_hal_can.c **** 
 711              		.loc 1 488 0
 712 0010 2268     		ldr	r2, [r4]
 713 0012 1368     		ldr	r3, [r2]
 714 0014 43F40043 		orr	r3, r3, #32768
 715 0018 1360     		str	r3, [r2]
ARM GAS  /tmp/ccW24XdO.s 			page 35


 491:/home/phong/Documents/thesis/stm32f4/stm-idf/components/stm32f4xx_hal_driver/stm32f4xx_hal_can.c **** 
 716              		.loc 1 491 0
 717 001a 0020     		movs	r0, #0
 718 001c 6062     		str	r0, [r4, #36]
 494:/home/phong/Documents/thesis/stm32f4/stm-idf/components/stm32f4xx_hal_driver/stm32f4xx_hal_can.c **** 
 719              		.loc 1 494 0
 720 001e 84F82000 		strb	r0, [r4, #32]
 497:/home/phong/Documents/thesis/stm32f4/stm-idf/components/stm32f4xx_hal_driver/stm32f4xx_hal_can.c **** }
 721              		.loc 1 497 0
 722 0022 10BD     		pop	{r4, pc}
 723              	.LVL46:
 724              	.L73:
 725              	.LCFI8:
 726              		.cfi_def_cfa_offset 0
 727              		.cfi_restore 4
 728              		.cfi_restore 14
 464:/home/phong/Documents/thesis/stm32f4/stm-idf/components/stm32f4xx_hal_driver/stm32f4xx_hal_can.c ****   }
 729              		.loc 1 464 0
 730 0024 0120     		movs	r0, #1
 731              	.LVL47:
 732 0026 7047     		bx	lr
 733              		.cfi_endproc
 734              	.LFE131:
 736              		.section	.text.HAL_CAN_RequestSleep,"ax",%progbits
 737              		.align	1
 738              		.global	HAL_CAN_RequestSleep
 739              		.syntax unified
 740              		.thumb
 741              		.thumb_func
 742              		.fpu fpv4-sp-d16
 744              	HAL_CAN_RequestSleep:
 745              	.LFB137:
1129:/home/phong/Documents/thesis/stm32f4/stm-idf/components/stm32f4xx_hal_driver/stm32f4xx_hal_can.c **** 
1130:/home/phong/Documents/thesis/stm32f4/stm-idf/components/stm32f4xx_hal_driver/stm32f4xx_hal_can.c **** /**
1131:/home/phong/Documents/thesis/stm32f4/stm-idf/components/stm32f4xx_hal_driver/stm32f4xx_hal_can.c ****   * @brief  Request the sleep mode (low power) entry.
1132:/home/phong/Documents/thesis/stm32f4/stm-idf/components/stm32f4xx_hal_driver/stm32f4xx_hal_can.c ****   *         When returning from this function, Sleep mode will be entered
1133:/home/phong/Documents/thesis/stm32f4/stm-idf/components/stm32f4xx_hal_driver/stm32f4xx_hal_can.c ****   *         as soon as the current CAN activity (transmission or reception
1134:/home/phong/Documents/thesis/stm32f4/stm-idf/components/stm32f4xx_hal_driver/stm32f4xx_hal_can.c ****   *         of a CAN frame) has been completed.
1135:/home/phong/Documents/thesis/stm32f4/stm-idf/components/stm32f4xx_hal_driver/stm32f4xx_hal_can.c ****   * @param  hcan pointer to a CAN_HandleTypeDef structure that contains
1136:/home/phong/Documents/thesis/stm32f4/stm-idf/components/stm32f4xx_hal_driver/stm32f4xx_hal_can.c ****   *         the configuration information for the specified CAN.
1137:/home/phong/Documents/thesis/stm32f4/stm-idf/components/stm32f4xx_hal_driver/stm32f4xx_hal_can.c ****   * @retval HAL status.
1138:/home/phong/Documents/thesis/stm32f4/stm-idf/components/stm32f4xx_hal_driver/stm32f4xx_hal_can.c ****   */
1139:/home/phong/Documents/thesis/stm32f4/stm-idf/components/stm32f4xx_hal_driver/stm32f4xx_hal_can.c **** HAL_StatusTypeDef HAL_CAN_RequestSleep(CAN_HandleTypeDef *hcan)
1140:/home/phong/Documents/thesis/stm32f4/stm-idf/components/stm32f4xx_hal_driver/stm32f4xx_hal_can.c **** {
 746              		.loc 1 1140 0
 747              		.cfi_startproc
 748              		@ args = 0, pretend = 0, frame = 0
 749              		@ frame_needed = 0, uses_anonymous_args = 0
 750              		@ link register save eliminated.
 751              	.LVL48:
1141:/home/phong/Documents/thesis/stm32f4/stm-idf/components/stm32f4xx_hal_driver/stm32f4xx_hal_can.c ****   HAL_CAN_StateTypeDef state = hcan->State;
 752              		.loc 1 1141 0
 753 0000 90F82030 		ldrb	r3, [r0, #32]	@ zero_extendqisi2
 754              	.LVL49:
1142:/home/phong/Documents/thesis/stm32f4/stm-idf/components/stm32f4xx_hal_driver/stm32f4xx_hal_can.c **** 
1143:/home/phong/Documents/thesis/stm32f4/stm-idf/components/stm32f4xx_hal_driver/stm32f4xx_hal_can.c ****   if ((state == HAL_CAN_STATE_READY) ||
 755              		.loc 1 1143 0
ARM GAS  /tmp/ccW24XdO.s 			page 36


 756 0004 013B     		subs	r3, r3, #1
 757              	.LVL50:
 758 0006 DBB2     		uxtb	r3, r3
 759 0008 012B     		cmp	r3, #1
 760 000a 05D9     		bls	.L81
1144:/home/phong/Documents/thesis/stm32f4/stm-idf/components/stm32f4xx_hal_driver/stm32f4xx_hal_can.c ****       (state == HAL_CAN_STATE_LISTENING))
1145:/home/phong/Documents/thesis/stm32f4/stm-idf/components/stm32f4xx_hal_driver/stm32f4xx_hal_can.c ****   {
1146:/home/phong/Documents/thesis/stm32f4/stm-idf/components/stm32f4xx_hal_driver/stm32f4xx_hal_can.c ****     /* Request Sleep mode */
1147:/home/phong/Documents/thesis/stm32f4/stm-idf/components/stm32f4xx_hal_driver/stm32f4xx_hal_can.c ****     SET_BIT(hcan->Instance->MCR, CAN_MCR_SLEEP);
1148:/home/phong/Documents/thesis/stm32f4/stm-idf/components/stm32f4xx_hal_driver/stm32f4xx_hal_can.c **** 
1149:/home/phong/Documents/thesis/stm32f4/stm-idf/components/stm32f4xx_hal_driver/stm32f4xx_hal_can.c ****     /* Return function status */
1150:/home/phong/Documents/thesis/stm32f4/stm-idf/components/stm32f4xx_hal_driver/stm32f4xx_hal_can.c ****     return HAL_OK;
1151:/home/phong/Documents/thesis/stm32f4/stm-idf/components/stm32f4xx_hal_driver/stm32f4xx_hal_can.c ****   }
1152:/home/phong/Documents/thesis/stm32f4/stm-idf/components/stm32f4xx_hal_driver/stm32f4xx_hal_can.c ****   else
1153:/home/phong/Documents/thesis/stm32f4/stm-idf/components/stm32f4xx_hal_driver/stm32f4xx_hal_can.c ****   {
1154:/home/phong/Documents/thesis/stm32f4/stm-idf/components/stm32f4xx_hal_driver/stm32f4xx_hal_can.c ****     /* Update error code */
1155:/home/phong/Documents/thesis/stm32f4/stm-idf/components/stm32f4xx_hal_driver/stm32f4xx_hal_can.c ****     hcan->ErrorCode |= HAL_CAN_ERROR_NOT_INITIALIZED;
 761              		.loc 1 1155 0
 762 000c 436A     		ldr	r3, [r0, #36]
 763 000e 43F48023 		orr	r3, r3, #262144
 764 0012 4362     		str	r3, [r0, #36]
1156:/home/phong/Documents/thesis/stm32f4/stm-idf/components/stm32f4xx_hal_driver/stm32f4xx_hal_can.c **** 
1157:/home/phong/Documents/thesis/stm32f4/stm-idf/components/stm32f4xx_hal_driver/stm32f4xx_hal_can.c ****     /* Return function status */
1158:/home/phong/Documents/thesis/stm32f4/stm-idf/components/stm32f4xx_hal_driver/stm32f4xx_hal_can.c ****     return HAL_ERROR;
 765              		.loc 1 1158 0
 766 0014 0120     		movs	r0, #1
 767              	.LVL51:
1159:/home/phong/Documents/thesis/stm32f4/stm-idf/components/stm32f4xx_hal_driver/stm32f4xx_hal_can.c ****   }
1160:/home/phong/Documents/thesis/stm32f4/stm-idf/components/stm32f4xx_hal_driver/stm32f4xx_hal_can.c **** }
 768              		.loc 1 1160 0
 769 0016 7047     		bx	lr
 770              	.LVL52:
 771              	.L81:
1147:/home/phong/Documents/thesis/stm32f4/stm-idf/components/stm32f4xx_hal_driver/stm32f4xx_hal_can.c **** 
 772              		.loc 1 1147 0
 773 0018 0268     		ldr	r2, [r0]
 774 001a 1368     		ldr	r3, [r2]
 775 001c 43F00203 		orr	r3, r3, #2
 776 0020 1360     		str	r3, [r2]
1150:/home/phong/Documents/thesis/stm32f4/stm-idf/components/stm32f4xx_hal_driver/stm32f4xx_hal_can.c ****   }
 777              		.loc 1 1150 0
 778 0022 0020     		movs	r0, #0
 779              	.LVL53:
 780 0024 7047     		bx	lr
 781              		.cfi_endproc
 782              	.LFE137:
 784              		.section	.text.HAL_CAN_WakeUp,"ax",%progbits
 785              		.align	1
 786              		.global	HAL_CAN_WakeUp
 787              		.syntax unified
 788              		.thumb
 789              		.thumb_func
 790              		.fpu fpv4-sp-d16
 792              	HAL_CAN_WakeUp:
 793              	.LFB138:
1161:/home/phong/Documents/thesis/stm32f4/stm-idf/components/stm32f4xx_hal_driver/stm32f4xx_hal_can.c **** 
1162:/home/phong/Documents/thesis/stm32f4/stm-idf/components/stm32f4xx_hal_driver/stm32f4xx_hal_can.c **** /**
ARM GAS  /tmp/ccW24XdO.s 			page 37


1163:/home/phong/Documents/thesis/stm32f4/stm-idf/components/stm32f4xx_hal_driver/stm32f4xx_hal_can.c ****   * @brief  Wake up from sleep mode.
1164:/home/phong/Documents/thesis/stm32f4/stm-idf/components/stm32f4xx_hal_driver/stm32f4xx_hal_can.c ****   *         When returning with HAL_OK status from this function, Sleep mode
1165:/home/phong/Documents/thesis/stm32f4/stm-idf/components/stm32f4xx_hal_driver/stm32f4xx_hal_can.c ****   *         is exited.
1166:/home/phong/Documents/thesis/stm32f4/stm-idf/components/stm32f4xx_hal_driver/stm32f4xx_hal_can.c ****   * @param  hcan pointer to a CAN_HandleTypeDef structure that contains
1167:/home/phong/Documents/thesis/stm32f4/stm-idf/components/stm32f4xx_hal_driver/stm32f4xx_hal_can.c ****   *         the configuration information for the specified CAN.
1168:/home/phong/Documents/thesis/stm32f4/stm-idf/components/stm32f4xx_hal_driver/stm32f4xx_hal_can.c ****   * @retval HAL status.
1169:/home/phong/Documents/thesis/stm32f4/stm-idf/components/stm32f4xx_hal_driver/stm32f4xx_hal_can.c ****   */
1170:/home/phong/Documents/thesis/stm32f4/stm-idf/components/stm32f4xx_hal_driver/stm32f4xx_hal_can.c **** HAL_StatusTypeDef HAL_CAN_WakeUp(CAN_HandleTypeDef *hcan)
1171:/home/phong/Documents/thesis/stm32f4/stm-idf/components/stm32f4xx_hal_driver/stm32f4xx_hal_can.c **** {
 794              		.loc 1 1171 0
 795              		.cfi_startproc
 796              		@ args = 0, pretend = 0, frame = 8
 797              		@ frame_needed = 0, uses_anonymous_args = 0
 798              		@ link register save eliminated.
 799              	.LVL54:
 800 0000 82B0     		sub	sp, sp, #8
 801              	.LCFI9:
 802              		.cfi_def_cfa_offset 8
1172:/home/phong/Documents/thesis/stm32f4/stm-idf/components/stm32f4xx_hal_driver/stm32f4xx_hal_can.c ****   __IO uint32_t count = 0;
 803              		.loc 1 1172 0
 804 0002 0023     		movs	r3, #0
 805 0004 0193     		str	r3, [sp, #4]
 806              	.LVL55:
1173:/home/phong/Documents/thesis/stm32f4/stm-idf/components/stm32f4xx_hal_driver/stm32f4xx_hal_can.c ****   uint32_t timeout = 1000000U;
1174:/home/phong/Documents/thesis/stm32f4/stm-idf/components/stm32f4xx_hal_driver/stm32f4xx_hal_can.c ****   HAL_CAN_StateTypeDef state = hcan->State;
 807              		.loc 1 1174 0
 808 0006 90F82030 		ldrb	r3, [r0, #32]	@ zero_extendqisi2
 809              	.LVL56:
1175:/home/phong/Documents/thesis/stm32f4/stm-idf/components/stm32f4xx_hal_driver/stm32f4xx_hal_can.c **** 
1176:/home/phong/Documents/thesis/stm32f4/stm-idf/components/stm32f4xx_hal_driver/stm32f4xx_hal_can.c ****   if ((state == HAL_CAN_STATE_READY) ||
 810              		.loc 1 1176 0
 811 000a 013B     		subs	r3, r3, #1
 812              	.LVL57:
 813 000c DBB2     		uxtb	r3, r3
 814 000e 012B     		cmp	r3, #1
 815 0010 06D9     		bls	.L88
1177:/home/phong/Documents/thesis/stm32f4/stm-idf/components/stm32f4xx_hal_driver/stm32f4xx_hal_can.c ****       (state == HAL_CAN_STATE_LISTENING))
1178:/home/phong/Documents/thesis/stm32f4/stm-idf/components/stm32f4xx_hal_driver/stm32f4xx_hal_can.c ****   {
1179:/home/phong/Documents/thesis/stm32f4/stm-idf/components/stm32f4xx_hal_driver/stm32f4xx_hal_can.c ****     /* Wake up request */
1180:/home/phong/Documents/thesis/stm32f4/stm-idf/components/stm32f4xx_hal_driver/stm32f4xx_hal_can.c ****     CLEAR_BIT(hcan->Instance->MCR, CAN_MCR_SLEEP);
1181:/home/phong/Documents/thesis/stm32f4/stm-idf/components/stm32f4xx_hal_driver/stm32f4xx_hal_can.c **** 
1182:/home/phong/Documents/thesis/stm32f4/stm-idf/components/stm32f4xx_hal_driver/stm32f4xx_hal_can.c ****     /* Wait sleep mode is exited */
1183:/home/phong/Documents/thesis/stm32f4/stm-idf/components/stm32f4xx_hal_driver/stm32f4xx_hal_can.c ****     do
1184:/home/phong/Documents/thesis/stm32f4/stm-idf/components/stm32f4xx_hal_driver/stm32f4xx_hal_can.c ****     {
1185:/home/phong/Documents/thesis/stm32f4/stm-idf/components/stm32f4xx_hal_driver/stm32f4xx_hal_can.c ****       /* Increment counter */
1186:/home/phong/Documents/thesis/stm32f4/stm-idf/components/stm32f4xx_hal_driver/stm32f4xx_hal_can.c ****       count++;
1187:/home/phong/Documents/thesis/stm32f4/stm-idf/components/stm32f4xx_hal_driver/stm32f4xx_hal_can.c **** 
1188:/home/phong/Documents/thesis/stm32f4/stm-idf/components/stm32f4xx_hal_driver/stm32f4xx_hal_can.c ****       /* Check if timeout is reached */
1189:/home/phong/Documents/thesis/stm32f4/stm-idf/components/stm32f4xx_hal_driver/stm32f4xx_hal_can.c ****       if (count > timeout)
1190:/home/phong/Documents/thesis/stm32f4/stm-idf/components/stm32f4xx_hal_driver/stm32f4xx_hal_can.c ****       {
1191:/home/phong/Documents/thesis/stm32f4/stm-idf/components/stm32f4xx_hal_driver/stm32f4xx_hal_can.c ****         /* Update error code */
1192:/home/phong/Documents/thesis/stm32f4/stm-idf/components/stm32f4xx_hal_driver/stm32f4xx_hal_can.c ****         hcan->ErrorCode |= HAL_CAN_ERROR_TIMEOUT;
1193:/home/phong/Documents/thesis/stm32f4/stm-idf/components/stm32f4xx_hal_driver/stm32f4xx_hal_can.c **** 
1194:/home/phong/Documents/thesis/stm32f4/stm-idf/components/stm32f4xx_hal_driver/stm32f4xx_hal_can.c ****         return HAL_ERROR;
1195:/home/phong/Documents/thesis/stm32f4/stm-idf/components/stm32f4xx_hal_driver/stm32f4xx_hal_can.c ****       }
1196:/home/phong/Documents/thesis/stm32f4/stm-idf/components/stm32f4xx_hal_driver/stm32f4xx_hal_can.c ****     }
1197:/home/phong/Documents/thesis/stm32f4/stm-idf/components/stm32f4xx_hal_driver/stm32f4xx_hal_can.c ****     while ((hcan->Instance->MSR & CAN_MSR_SLAK) != 0U);
ARM GAS  /tmp/ccW24XdO.s 			page 38


1198:/home/phong/Documents/thesis/stm32f4/stm-idf/components/stm32f4xx_hal_driver/stm32f4xx_hal_can.c **** 
1199:/home/phong/Documents/thesis/stm32f4/stm-idf/components/stm32f4xx_hal_driver/stm32f4xx_hal_can.c ****     /* Return function status */
1200:/home/phong/Documents/thesis/stm32f4/stm-idf/components/stm32f4xx_hal_driver/stm32f4xx_hal_can.c ****     return HAL_OK;
1201:/home/phong/Documents/thesis/stm32f4/stm-idf/components/stm32f4xx_hal_driver/stm32f4xx_hal_can.c ****   }
1202:/home/phong/Documents/thesis/stm32f4/stm-idf/components/stm32f4xx_hal_driver/stm32f4xx_hal_can.c ****   else
1203:/home/phong/Documents/thesis/stm32f4/stm-idf/components/stm32f4xx_hal_driver/stm32f4xx_hal_can.c ****   {
1204:/home/phong/Documents/thesis/stm32f4/stm-idf/components/stm32f4xx_hal_driver/stm32f4xx_hal_can.c ****     /* Update error code */
1205:/home/phong/Documents/thesis/stm32f4/stm-idf/components/stm32f4xx_hal_driver/stm32f4xx_hal_can.c ****     hcan->ErrorCode |= HAL_CAN_ERROR_NOT_INITIALIZED;
 816              		.loc 1 1205 0
 817 0012 436A     		ldr	r3, [r0, #36]
 818 0014 43F48023 		orr	r3, r3, #262144
 819 0018 4362     		str	r3, [r0, #36]
1206:/home/phong/Documents/thesis/stm32f4/stm-idf/components/stm32f4xx_hal_driver/stm32f4xx_hal_can.c **** 
1207:/home/phong/Documents/thesis/stm32f4/stm-idf/components/stm32f4xx_hal_driver/stm32f4xx_hal_can.c ****     return HAL_ERROR;
 820              		.loc 1 1207 0
 821 001a 0120     		movs	r0, #1
 822              	.LVL58:
 823              	.L85:
1208:/home/phong/Documents/thesis/stm32f4/stm-idf/components/stm32f4xx_hal_driver/stm32f4xx_hal_can.c ****   }
1209:/home/phong/Documents/thesis/stm32f4/stm-idf/components/stm32f4xx_hal_driver/stm32f4xx_hal_can.c **** }
 824              		.loc 1 1209 0
 825 001c 02B0     		add	sp, sp, #8
 826              	.LCFI10:
 827              		.cfi_remember_state
 828              		.cfi_def_cfa_offset 0
 829              		@ sp needed
 830 001e 7047     		bx	lr
 831              	.LVL59:
 832              	.L88:
 833              	.LCFI11:
 834              		.cfi_restore_state
1180:/home/phong/Documents/thesis/stm32f4/stm-idf/components/stm32f4xx_hal_driver/stm32f4xx_hal_can.c **** 
 835              		.loc 1 1180 0
 836 0020 0268     		ldr	r2, [r0]
 837 0022 1368     		ldr	r3, [r2]
 838 0024 23F00203 		bic	r3, r3, #2
 839 0028 1360     		str	r3, [r2]
 840              	.L86:
1186:/home/phong/Documents/thesis/stm32f4/stm-idf/components/stm32f4xx_hal_driver/stm32f4xx_hal_can.c **** 
 841              		.loc 1 1186 0
 842 002a 019B     		ldr	r3, [sp, #4]
 843 002c 0133     		adds	r3, r3, #1
 844 002e 0193     		str	r3, [sp, #4]
1189:/home/phong/Documents/thesis/stm32f4/stm-idf/components/stm32f4xx_hal_driver/stm32f4xx_hal_can.c ****       {
 845              		.loc 1 1189 0
 846 0030 019A     		ldr	r2, [sp, #4]
 847 0032 084B     		ldr	r3, .L90
 848 0034 9A42     		cmp	r2, r3
 849 0036 06D8     		bhi	.L89
1197:/home/phong/Documents/thesis/stm32f4/stm-idf/components/stm32f4xx_hal_driver/stm32f4xx_hal_can.c **** 
 850              		.loc 1 1197 0
 851 0038 0368     		ldr	r3, [r0]
 852 003a 5B68     		ldr	r3, [r3, #4]
 853 003c 13F0020F 		tst	r3, #2
 854 0040 F3D1     		bne	.L86
1200:/home/phong/Documents/thesis/stm32f4/stm-idf/components/stm32f4xx_hal_driver/stm32f4xx_hal_can.c ****   }
 855              		.loc 1 1200 0
ARM GAS  /tmp/ccW24XdO.s 			page 39


 856 0042 0020     		movs	r0, #0
 857              	.LVL60:
 858 0044 EAE7     		b	.L85
 859              	.LVL61:
 860              	.L89:
1192:/home/phong/Documents/thesis/stm32f4/stm-idf/components/stm32f4xx_hal_driver/stm32f4xx_hal_can.c **** 
 861              		.loc 1 1192 0
 862 0046 436A     		ldr	r3, [r0, #36]
 863 0048 43F40033 		orr	r3, r3, #131072
 864 004c 4362     		str	r3, [r0, #36]
1194:/home/phong/Documents/thesis/stm32f4/stm-idf/components/stm32f4xx_hal_driver/stm32f4xx_hal_can.c ****       }
 865              		.loc 1 1194 0
 866 004e 0120     		movs	r0, #1
 867              	.LVL62:
 868 0050 E4E7     		b	.L85
 869              	.L91:
 870 0052 00BF     		.align	2
 871              	.L90:
 872 0054 40420F00 		.word	1000000
 873              		.cfi_endproc
 874              	.LFE138:
 876              		.section	.text.HAL_CAN_IsSleepActive,"ax",%progbits
 877              		.align	1
 878              		.global	HAL_CAN_IsSleepActive
 879              		.syntax unified
 880              		.thumb
 881              		.thumb_func
 882              		.fpu fpv4-sp-d16
 884              	HAL_CAN_IsSleepActive:
 885              	.LFB139:
1210:/home/phong/Documents/thesis/stm32f4/stm-idf/components/stm32f4xx_hal_driver/stm32f4xx_hal_can.c **** 
1211:/home/phong/Documents/thesis/stm32f4/stm-idf/components/stm32f4xx_hal_driver/stm32f4xx_hal_can.c **** /**
1212:/home/phong/Documents/thesis/stm32f4/stm-idf/components/stm32f4xx_hal_driver/stm32f4xx_hal_can.c ****   * @brief  Check is sleep mode is active.
1213:/home/phong/Documents/thesis/stm32f4/stm-idf/components/stm32f4xx_hal_driver/stm32f4xx_hal_can.c ****   * @param  hcan pointer to a CAN_HandleTypeDef structure that contains
1214:/home/phong/Documents/thesis/stm32f4/stm-idf/components/stm32f4xx_hal_driver/stm32f4xx_hal_can.c ****   *         the configuration information for the specified CAN.
1215:/home/phong/Documents/thesis/stm32f4/stm-idf/components/stm32f4xx_hal_driver/stm32f4xx_hal_can.c ****   * @retval Status
1216:/home/phong/Documents/thesis/stm32f4/stm-idf/components/stm32f4xx_hal_driver/stm32f4xx_hal_can.c ****   *          - 0 : Sleep mode is not active.
1217:/home/phong/Documents/thesis/stm32f4/stm-idf/components/stm32f4xx_hal_driver/stm32f4xx_hal_can.c ****   *          - 1 : Sleep mode is active.
1218:/home/phong/Documents/thesis/stm32f4/stm-idf/components/stm32f4xx_hal_driver/stm32f4xx_hal_can.c ****   */
1219:/home/phong/Documents/thesis/stm32f4/stm-idf/components/stm32f4xx_hal_driver/stm32f4xx_hal_can.c **** uint32_t HAL_CAN_IsSleepActive(CAN_HandleTypeDef *hcan)
1220:/home/phong/Documents/thesis/stm32f4/stm-idf/components/stm32f4xx_hal_driver/stm32f4xx_hal_can.c **** {
 886              		.loc 1 1220 0
 887              		.cfi_startproc
 888              		@ args = 0, pretend = 0, frame = 0
 889              		@ frame_needed = 0, uses_anonymous_args = 0
 890              		@ link register save eliminated.
 891              	.LVL63:
1221:/home/phong/Documents/thesis/stm32f4/stm-idf/components/stm32f4xx_hal_driver/stm32f4xx_hal_can.c ****   uint32_t status = 0U;
1222:/home/phong/Documents/thesis/stm32f4/stm-idf/components/stm32f4xx_hal_driver/stm32f4xx_hal_can.c ****   HAL_CAN_StateTypeDef state = hcan->State;
 892              		.loc 1 1222 0
 893 0000 90F82030 		ldrb	r3, [r0, #32]	@ zero_extendqisi2
 894              	.LVL64:
1223:/home/phong/Documents/thesis/stm32f4/stm-idf/components/stm32f4xx_hal_driver/stm32f4xx_hal_can.c **** 
1224:/home/phong/Documents/thesis/stm32f4/stm-idf/components/stm32f4xx_hal_driver/stm32f4xx_hal_can.c ****   if ((state == HAL_CAN_STATE_READY) ||
 895              		.loc 1 1224 0
 896 0004 013B     		subs	r3, r3, #1
 897              	.LVL65:
ARM GAS  /tmp/ccW24XdO.s 			page 40


 898 0006 DBB2     		uxtb	r3, r3
 899 0008 012B     		cmp	r3, #1
 900 000a 01D9     		bls	.L96
1221:/home/phong/Documents/thesis/stm32f4/stm-idf/components/stm32f4xx_hal_driver/stm32f4xx_hal_can.c ****   uint32_t status = 0U;
 901              		.loc 1 1221 0
 902 000c 0020     		movs	r0, #0
 903              	.LVL66:
 904 000e 7047     		bx	lr
 905              	.LVL67:
 906              	.L96:
1225:/home/phong/Documents/thesis/stm32f4/stm-idf/components/stm32f4xx_hal_driver/stm32f4xx_hal_can.c ****       (state == HAL_CAN_STATE_LISTENING))
1226:/home/phong/Documents/thesis/stm32f4/stm-idf/components/stm32f4xx_hal_driver/stm32f4xx_hal_can.c ****   {
1227:/home/phong/Documents/thesis/stm32f4/stm-idf/components/stm32f4xx_hal_driver/stm32f4xx_hal_can.c ****     /* Check Sleep mode */
1228:/home/phong/Documents/thesis/stm32f4/stm-idf/components/stm32f4xx_hal_driver/stm32f4xx_hal_can.c ****     if ((hcan->Instance->MSR & CAN_MSR_SLAK) != 0U)
 907              		.loc 1 1228 0
 908 0010 0368     		ldr	r3, [r0]
 909 0012 5B68     		ldr	r3, [r3, #4]
 910 0014 13F0020F 		tst	r3, #2
 911 0018 01D0     		beq	.L97
1229:/home/phong/Documents/thesis/stm32f4/stm-idf/components/stm32f4xx_hal_driver/stm32f4xx_hal_can.c ****     {
1230:/home/phong/Documents/thesis/stm32f4/stm-idf/components/stm32f4xx_hal_driver/stm32f4xx_hal_can.c ****       status = 1U;
 912              		.loc 1 1230 0
 913 001a 0120     		movs	r0, #1
 914              	.LVL68:
1231:/home/phong/Documents/thesis/stm32f4/stm-idf/components/stm32f4xx_hal_driver/stm32f4xx_hal_can.c ****     }
1232:/home/phong/Documents/thesis/stm32f4/stm-idf/components/stm32f4xx_hal_driver/stm32f4xx_hal_can.c ****   }
1233:/home/phong/Documents/thesis/stm32f4/stm-idf/components/stm32f4xx_hal_driver/stm32f4xx_hal_can.c **** 
1234:/home/phong/Documents/thesis/stm32f4/stm-idf/components/stm32f4xx_hal_driver/stm32f4xx_hal_can.c ****   /* Return function status */
1235:/home/phong/Documents/thesis/stm32f4/stm-idf/components/stm32f4xx_hal_driver/stm32f4xx_hal_can.c ****   return status;
1236:/home/phong/Documents/thesis/stm32f4/stm-idf/components/stm32f4xx_hal_driver/stm32f4xx_hal_can.c **** }
 915              		.loc 1 1236 0
 916 001c 7047     		bx	lr
 917              	.LVL69:
 918              	.L97:
1221:/home/phong/Documents/thesis/stm32f4/stm-idf/components/stm32f4xx_hal_driver/stm32f4xx_hal_can.c ****   HAL_CAN_StateTypeDef state = hcan->State;
 919              		.loc 1 1221 0
 920 001e 0020     		movs	r0, #0
 921              	.LVL70:
 922 0020 7047     		bx	lr
 923              		.cfi_endproc
 924              	.LFE139:
 926              		.section	.text.HAL_CAN_AddTxMessage,"ax",%progbits
 927              		.align	1
 928              		.global	HAL_CAN_AddTxMessage
 929              		.syntax unified
 930              		.thumb
 931              		.thumb_func
 932              		.fpu fpv4-sp-d16
 934              	HAL_CAN_AddTxMessage:
 935              	.LFB140:
1237:/home/phong/Documents/thesis/stm32f4/stm-idf/components/stm32f4xx_hal_driver/stm32f4xx_hal_can.c **** 
1238:/home/phong/Documents/thesis/stm32f4/stm-idf/components/stm32f4xx_hal_driver/stm32f4xx_hal_can.c **** /**
1239:/home/phong/Documents/thesis/stm32f4/stm-idf/components/stm32f4xx_hal_driver/stm32f4xx_hal_can.c ****   * @brief  Add a message to the first free Tx mailbox and activate the
1240:/home/phong/Documents/thesis/stm32f4/stm-idf/components/stm32f4xx_hal_driver/stm32f4xx_hal_can.c ****   *         corresponding transmission request.
1241:/home/phong/Documents/thesis/stm32f4/stm-idf/components/stm32f4xx_hal_driver/stm32f4xx_hal_can.c ****   * @param  hcan pointer to a CAN_HandleTypeDef structure that contains
1242:/home/phong/Documents/thesis/stm32f4/stm-idf/components/stm32f4xx_hal_driver/stm32f4xx_hal_can.c ****   *         the configuration information for the specified CAN.
1243:/home/phong/Documents/thesis/stm32f4/stm-idf/components/stm32f4xx_hal_driver/stm32f4xx_hal_can.c ****   * @param  pHeader pointer to a CAN_TxHeaderTypeDef structure.
ARM GAS  /tmp/ccW24XdO.s 			page 41


1244:/home/phong/Documents/thesis/stm32f4/stm-idf/components/stm32f4xx_hal_driver/stm32f4xx_hal_can.c ****   * @param  aData array containing the payload of the Tx frame.
1245:/home/phong/Documents/thesis/stm32f4/stm-idf/components/stm32f4xx_hal_driver/stm32f4xx_hal_can.c ****   * @param  pTxMailbox pointer to a variable where the function will return
1246:/home/phong/Documents/thesis/stm32f4/stm-idf/components/stm32f4xx_hal_driver/stm32f4xx_hal_can.c ****   *         the TxMailbox used to store the Tx message.
1247:/home/phong/Documents/thesis/stm32f4/stm-idf/components/stm32f4xx_hal_driver/stm32f4xx_hal_can.c ****   *         This parameter can be a value of @arg CAN_Tx_Mailboxes.
1248:/home/phong/Documents/thesis/stm32f4/stm-idf/components/stm32f4xx_hal_driver/stm32f4xx_hal_can.c ****   * @retval HAL status
1249:/home/phong/Documents/thesis/stm32f4/stm-idf/components/stm32f4xx_hal_driver/stm32f4xx_hal_can.c ****   */
1250:/home/phong/Documents/thesis/stm32f4/stm-idf/components/stm32f4xx_hal_driver/stm32f4xx_hal_can.c **** HAL_StatusTypeDef HAL_CAN_AddTxMessage(CAN_HandleTypeDef *hcan, CAN_TxHeaderTypeDef *pHeader, uint8
1251:/home/phong/Documents/thesis/stm32f4/stm-idf/components/stm32f4xx_hal_driver/stm32f4xx_hal_can.c **** {
 936              		.loc 1 1251 0
 937              		.cfi_startproc
 938              		@ args = 0, pretend = 0, frame = 0
 939              		@ frame_needed = 0, uses_anonymous_args = 0
 940              		@ link register save eliminated.
 941              	.LVL71:
 942 0000 70B4     		push	{r4, r5, r6}
 943              	.LCFI12:
 944              		.cfi_def_cfa_offset 12
 945              		.cfi_offset 4, -12
 946              		.cfi_offset 5, -8
 947              		.cfi_offset 6, -4
1252:/home/phong/Documents/thesis/stm32f4/stm-idf/components/stm32f4xx_hal_driver/stm32f4xx_hal_can.c ****   uint32_t transmitmailbox;
1253:/home/phong/Documents/thesis/stm32f4/stm-idf/components/stm32f4xx_hal_driver/stm32f4xx_hal_can.c ****   HAL_CAN_StateTypeDef state = hcan->State;
 948              		.loc 1 1253 0
 949 0002 90F82040 		ldrb	r4, [r0, #32]	@ zero_extendqisi2
 950              	.LVL72:
1254:/home/phong/Documents/thesis/stm32f4/stm-idf/components/stm32f4xx_hal_driver/stm32f4xx_hal_can.c ****   uint32_t tsr = READ_REG(hcan->Instance->TSR);
 951              		.loc 1 1254 0
 952 0006 0568     		ldr	r5, [r0]
 953 0008 AD68     		ldr	r5, [r5, #8]
 954              	.LVL73:
1255:/home/phong/Documents/thesis/stm32f4/stm-idf/components/stm32f4xx_hal_driver/stm32f4xx_hal_can.c **** 
1256:/home/phong/Documents/thesis/stm32f4/stm-idf/components/stm32f4xx_hal_driver/stm32f4xx_hal_can.c ****   /* Check the parameters */
1257:/home/phong/Documents/thesis/stm32f4/stm-idf/components/stm32f4xx_hal_driver/stm32f4xx_hal_can.c ****   assert_param(IS_CAN_IDTYPE(pHeader->IDE));
1258:/home/phong/Documents/thesis/stm32f4/stm-idf/components/stm32f4xx_hal_driver/stm32f4xx_hal_can.c ****   assert_param(IS_CAN_RTR(pHeader->RTR));
1259:/home/phong/Documents/thesis/stm32f4/stm-idf/components/stm32f4xx_hal_driver/stm32f4xx_hal_can.c ****   assert_param(IS_CAN_DLC(pHeader->DLC));
1260:/home/phong/Documents/thesis/stm32f4/stm-idf/components/stm32f4xx_hal_driver/stm32f4xx_hal_can.c ****   if (pHeader->IDE == CAN_ID_STD)
1261:/home/phong/Documents/thesis/stm32f4/stm-idf/components/stm32f4xx_hal_driver/stm32f4xx_hal_can.c ****   {
1262:/home/phong/Documents/thesis/stm32f4/stm-idf/components/stm32f4xx_hal_driver/stm32f4xx_hal_can.c ****     assert_param(IS_CAN_STDID(pHeader->StdId));
1263:/home/phong/Documents/thesis/stm32f4/stm-idf/components/stm32f4xx_hal_driver/stm32f4xx_hal_can.c ****   }
1264:/home/phong/Documents/thesis/stm32f4/stm-idf/components/stm32f4xx_hal_driver/stm32f4xx_hal_can.c ****   else
1265:/home/phong/Documents/thesis/stm32f4/stm-idf/components/stm32f4xx_hal_driver/stm32f4xx_hal_can.c ****   {
1266:/home/phong/Documents/thesis/stm32f4/stm-idf/components/stm32f4xx_hal_driver/stm32f4xx_hal_can.c ****     assert_param(IS_CAN_EXTID(pHeader->ExtId));
1267:/home/phong/Documents/thesis/stm32f4/stm-idf/components/stm32f4xx_hal_driver/stm32f4xx_hal_can.c ****   }
1268:/home/phong/Documents/thesis/stm32f4/stm-idf/components/stm32f4xx_hal_driver/stm32f4xx_hal_can.c ****   assert_param(IS_FUNCTIONAL_STATE(pHeader->TransmitGlobalTime));
1269:/home/phong/Documents/thesis/stm32f4/stm-idf/components/stm32f4xx_hal_driver/stm32f4xx_hal_can.c **** 
1270:/home/phong/Documents/thesis/stm32f4/stm-idf/components/stm32f4xx_hal_driver/stm32f4xx_hal_can.c ****   if ((state == HAL_CAN_STATE_READY) ||
 955              		.loc 1 1270 0
 956 000a 013C     		subs	r4, r4, #1
 957              	.LVL74:
 958 000c E4B2     		uxtb	r4, r4
 959 000e 012C     		cmp	r4, #1
 960 0010 06D9     		bls	.L107
1271:/home/phong/Documents/thesis/stm32f4/stm-idf/components/stm32f4xx_hal_driver/stm32f4xx_hal_can.c ****       (state == HAL_CAN_STATE_LISTENING))
1272:/home/phong/Documents/thesis/stm32f4/stm-idf/components/stm32f4xx_hal_driver/stm32f4xx_hal_can.c ****   {
1273:/home/phong/Documents/thesis/stm32f4/stm-idf/components/stm32f4xx_hal_driver/stm32f4xx_hal_can.c ****     /* Check that all the Tx mailboxes are not full */
1274:/home/phong/Documents/thesis/stm32f4/stm-idf/components/stm32f4xx_hal_driver/stm32f4xx_hal_can.c ****     if (((tsr & CAN_TSR_TME0) != 0U) ||
1275:/home/phong/Documents/thesis/stm32f4/stm-idf/components/stm32f4xx_hal_driver/stm32f4xx_hal_can.c ****         ((tsr & CAN_TSR_TME1) != 0U) ||
ARM GAS  /tmp/ccW24XdO.s 			page 42


1276:/home/phong/Documents/thesis/stm32f4/stm-idf/components/stm32f4xx_hal_driver/stm32f4xx_hal_can.c ****         ((tsr & CAN_TSR_TME2) != 0U))
1277:/home/phong/Documents/thesis/stm32f4/stm-idf/components/stm32f4xx_hal_driver/stm32f4xx_hal_can.c ****     {
1278:/home/phong/Documents/thesis/stm32f4/stm-idf/components/stm32f4xx_hal_driver/stm32f4xx_hal_can.c ****       /* Select an empty transmit mailbox */
1279:/home/phong/Documents/thesis/stm32f4/stm-idf/components/stm32f4xx_hal_driver/stm32f4xx_hal_can.c ****       transmitmailbox = (tsr & CAN_TSR_CODE) >> CAN_TSR_CODE_Pos;
1280:/home/phong/Documents/thesis/stm32f4/stm-idf/components/stm32f4xx_hal_driver/stm32f4xx_hal_can.c **** 
1281:/home/phong/Documents/thesis/stm32f4/stm-idf/components/stm32f4xx_hal_driver/stm32f4xx_hal_can.c ****       /* Check transmit mailbox value */
1282:/home/phong/Documents/thesis/stm32f4/stm-idf/components/stm32f4xx_hal_driver/stm32f4xx_hal_can.c ****       if (transmitmailbox > 2U)
1283:/home/phong/Documents/thesis/stm32f4/stm-idf/components/stm32f4xx_hal_driver/stm32f4xx_hal_can.c ****       {
1284:/home/phong/Documents/thesis/stm32f4/stm-idf/components/stm32f4xx_hal_driver/stm32f4xx_hal_can.c ****         /* Update error code */
1285:/home/phong/Documents/thesis/stm32f4/stm-idf/components/stm32f4xx_hal_driver/stm32f4xx_hal_can.c ****         hcan->ErrorCode |= HAL_CAN_ERROR_INTERNAL;
1286:/home/phong/Documents/thesis/stm32f4/stm-idf/components/stm32f4xx_hal_driver/stm32f4xx_hal_can.c **** 
1287:/home/phong/Documents/thesis/stm32f4/stm-idf/components/stm32f4xx_hal_driver/stm32f4xx_hal_can.c ****         return HAL_ERROR;
1288:/home/phong/Documents/thesis/stm32f4/stm-idf/components/stm32f4xx_hal_driver/stm32f4xx_hal_can.c ****       }
1289:/home/phong/Documents/thesis/stm32f4/stm-idf/components/stm32f4xx_hal_driver/stm32f4xx_hal_can.c **** 
1290:/home/phong/Documents/thesis/stm32f4/stm-idf/components/stm32f4xx_hal_driver/stm32f4xx_hal_can.c ****       /* Store the Tx mailbox */
1291:/home/phong/Documents/thesis/stm32f4/stm-idf/components/stm32f4xx_hal_driver/stm32f4xx_hal_can.c ****       *pTxMailbox = (uint32_t)1 << transmitmailbox;
1292:/home/phong/Documents/thesis/stm32f4/stm-idf/components/stm32f4xx_hal_driver/stm32f4xx_hal_can.c **** 
1293:/home/phong/Documents/thesis/stm32f4/stm-idf/components/stm32f4xx_hal_driver/stm32f4xx_hal_can.c ****       /* Set up the Id */
1294:/home/phong/Documents/thesis/stm32f4/stm-idf/components/stm32f4xx_hal_driver/stm32f4xx_hal_can.c ****       if (pHeader->IDE == CAN_ID_STD)
1295:/home/phong/Documents/thesis/stm32f4/stm-idf/components/stm32f4xx_hal_driver/stm32f4xx_hal_can.c ****       {
1296:/home/phong/Documents/thesis/stm32f4/stm-idf/components/stm32f4xx_hal_driver/stm32f4xx_hal_can.c ****         hcan->Instance->sTxMailBox[transmitmailbox].TIR = ((pHeader->StdId << CAN_TI0R_STID_Pos) |
1297:/home/phong/Documents/thesis/stm32f4/stm-idf/components/stm32f4xx_hal_driver/stm32f4xx_hal_can.c ****                                                            pHeader->RTR);
1298:/home/phong/Documents/thesis/stm32f4/stm-idf/components/stm32f4xx_hal_driver/stm32f4xx_hal_can.c ****       }
1299:/home/phong/Documents/thesis/stm32f4/stm-idf/components/stm32f4xx_hal_driver/stm32f4xx_hal_can.c ****       else
1300:/home/phong/Documents/thesis/stm32f4/stm-idf/components/stm32f4xx_hal_driver/stm32f4xx_hal_can.c ****       {
1301:/home/phong/Documents/thesis/stm32f4/stm-idf/components/stm32f4xx_hal_driver/stm32f4xx_hal_can.c ****         hcan->Instance->sTxMailBox[transmitmailbox].TIR = ((pHeader->ExtId << CAN_TI0R_EXID_Pos) |
1302:/home/phong/Documents/thesis/stm32f4/stm-idf/components/stm32f4xx_hal_driver/stm32f4xx_hal_can.c ****                                                            pHeader->IDE |
1303:/home/phong/Documents/thesis/stm32f4/stm-idf/components/stm32f4xx_hal_driver/stm32f4xx_hal_can.c ****                                                            pHeader->RTR);
1304:/home/phong/Documents/thesis/stm32f4/stm-idf/components/stm32f4xx_hal_driver/stm32f4xx_hal_can.c ****       }
1305:/home/phong/Documents/thesis/stm32f4/stm-idf/components/stm32f4xx_hal_driver/stm32f4xx_hal_can.c **** 
1306:/home/phong/Documents/thesis/stm32f4/stm-idf/components/stm32f4xx_hal_driver/stm32f4xx_hal_can.c ****       /* Set up the DLC */
1307:/home/phong/Documents/thesis/stm32f4/stm-idf/components/stm32f4xx_hal_driver/stm32f4xx_hal_can.c ****       hcan->Instance->sTxMailBox[transmitmailbox].TDTR = (pHeader->DLC);
1308:/home/phong/Documents/thesis/stm32f4/stm-idf/components/stm32f4xx_hal_driver/stm32f4xx_hal_can.c **** 
1309:/home/phong/Documents/thesis/stm32f4/stm-idf/components/stm32f4xx_hal_driver/stm32f4xx_hal_can.c ****       /* Set up the Transmit Global Time mode */
1310:/home/phong/Documents/thesis/stm32f4/stm-idf/components/stm32f4xx_hal_driver/stm32f4xx_hal_can.c ****       if (pHeader->TransmitGlobalTime == ENABLE)
1311:/home/phong/Documents/thesis/stm32f4/stm-idf/components/stm32f4xx_hal_driver/stm32f4xx_hal_can.c ****       {
1312:/home/phong/Documents/thesis/stm32f4/stm-idf/components/stm32f4xx_hal_driver/stm32f4xx_hal_can.c ****         SET_BIT(hcan->Instance->sTxMailBox[transmitmailbox].TDTR, CAN_TDT0R_TGT);
1313:/home/phong/Documents/thesis/stm32f4/stm-idf/components/stm32f4xx_hal_driver/stm32f4xx_hal_can.c ****       }
1314:/home/phong/Documents/thesis/stm32f4/stm-idf/components/stm32f4xx_hal_driver/stm32f4xx_hal_can.c **** 
1315:/home/phong/Documents/thesis/stm32f4/stm-idf/components/stm32f4xx_hal_driver/stm32f4xx_hal_can.c ****       /* Set up the data field */
1316:/home/phong/Documents/thesis/stm32f4/stm-idf/components/stm32f4xx_hal_driver/stm32f4xx_hal_can.c ****       WRITE_REG(hcan->Instance->sTxMailBox[transmitmailbox].TDHR,
1317:/home/phong/Documents/thesis/stm32f4/stm-idf/components/stm32f4xx_hal_driver/stm32f4xx_hal_can.c ****                 ((uint32_t)aData[7] << CAN_TDH0R_DATA7_Pos) |
1318:/home/phong/Documents/thesis/stm32f4/stm-idf/components/stm32f4xx_hal_driver/stm32f4xx_hal_can.c ****                 ((uint32_t)aData[6] << CAN_TDH0R_DATA6_Pos) |
1319:/home/phong/Documents/thesis/stm32f4/stm-idf/components/stm32f4xx_hal_driver/stm32f4xx_hal_can.c ****                 ((uint32_t)aData[5] << CAN_TDH0R_DATA5_Pos) |
1320:/home/phong/Documents/thesis/stm32f4/stm-idf/components/stm32f4xx_hal_driver/stm32f4xx_hal_can.c ****                 ((uint32_t)aData[4] << CAN_TDH0R_DATA4_Pos));
1321:/home/phong/Documents/thesis/stm32f4/stm-idf/components/stm32f4xx_hal_driver/stm32f4xx_hal_can.c ****       WRITE_REG(hcan->Instance->sTxMailBox[transmitmailbox].TDLR,
1322:/home/phong/Documents/thesis/stm32f4/stm-idf/components/stm32f4xx_hal_driver/stm32f4xx_hal_can.c ****                 ((uint32_t)aData[3] << CAN_TDL0R_DATA3_Pos) |
1323:/home/phong/Documents/thesis/stm32f4/stm-idf/components/stm32f4xx_hal_driver/stm32f4xx_hal_can.c ****                 ((uint32_t)aData[2] << CAN_TDL0R_DATA2_Pos) |
1324:/home/phong/Documents/thesis/stm32f4/stm-idf/components/stm32f4xx_hal_driver/stm32f4xx_hal_can.c ****                 ((uint32_t)aData[1] << CAN_TDL0R_DATA1_Pos) |
1325:/home/phong/Documents/thesis/stm32f4/stm-idf/components/stm32f4xx_hal_driver/stm32f4xx_hal_can.c ****                 ((uint32_t)aData[0] << CAN_TDL0R_DATA0_Pos));
1326:/home/phong/Documents/thesis/stm32f4/stm-idf/components/stm32f4xx_hal_driver/stm32f4xx_hal_can.c **** 
1327:/home/phong/Documents/thesis/stm32f4/stm-idf/components/stm32f4xx_hal_driver/stm32f4xx_hal_can.c ****       /* Request transmission */
1328:/home/phong/Documents/thesis/stm32f4/stm-idf/components/stm32f4xx_hal_driver/stm32f4xx_hal_can.c ****       SET_BIT(hcan->Instance->sTxMailBox[transmitmailbox].TIR, CAN_TI0R_TXRQ);
1329:/home/phong/Documents/thesis/stm32f4/stm-idf/components/stm32f4xx_hal_driver/stm32f4xx_hal_can.c **** 
1330:/home/phong/Documents/thesis/stm32f4/stm-idf/components/stm32f4xx_hal_driver/stm32f4xx_hal_can.c ****       /* Return function status */
1331:/home/phong/Documents/thesis/stm32f4/stm-idf/components/stm32f4xx_hal_driver/stm32f4xx_hal_can.c ****       return HAL_OK;
1332:/home/phong/Documents/thesis/stm32f4/stm-idf/components/stm32f4xx_hal_driver/stm32f4xx_hal_can.c ****     }
ARM GAS  /tmp/ccW24XdO.s 			page 43


1333:/home/phong/Documents/thesis/stm32f4/stm-idf/components/stm32f4xx_hal_driver/stm32f4xx_hal_can.c ****     else
1334:/home/phong/Documents/thesis/stm32f4/stm-idf/components/stm32f4xx_hal_driver/stm32f4xx_hal_can.c ****     {
1335:/home/phong/Documents/thesis/stm32f4/stm-idf/components/stm32f4xx_hal_driver/stm32f4xx_hal_can.c ****       /* Update error code */
1336:/home/phong/Documents/thesis/stm32f4/stm-idf/components/stm32f4xx_hal_driver/stm32f4xx_hal_can.c ****       hcan->ErrorCode |= HAL_CAN_ERROR_PARAM;
1337:/home/phong/Documents/thesis/stm32f4/stm-idf/components/stm32f4xx_hal_driver/stm32f4xx_hal_can.c **** 
1338:/home/phong/Documents/thesis/stm32f4/stm-idf/components/stm32f4xx_hal_driver/stm32f4xx_hal_can.c ****       return HAL_ERROR;
1339:/home/phong/Documents/thesis/stm32f4/stm-idf/components/stm32f4xx_hal_driver/stm32f4xx_hal_can.c ****     }
1340:/home/phong/Documents/thesis/stm32f4/stm-idf/components/stm32f4xx_hal_driver/stm32f4xx_hal_can.c ****   }
1341:/home/phong/Documents/thesis/stm32f4/stm-idf/components/stm32f4xx_hal_driver/stm32f4xx_hal_can.c ****   else
1342:/home/phong/Documents/thesis/stm32f4/stm-idf/components/stm32f4xx_hal_driver/stm32f4xx_hal_can.c ****   {
1343:/home/phong/Documents/thesis/stm32f4/stm-idf/components/stm32f4xx_hal_driver/stm32f4xx_hal_can.c ****     /* Update error code */
1344:/home/phong/Documents/thesis/stm32f4/stm-idf/components/stm32f4xx_hal_driver/stm32f4xx_hal_can.c ****     hcan->ErrorCode |= HAL_CAN_ERROR_NOT_INITIALIZED;
 961              		.loc 1 1344 0
 962 0012 436A     		ldr	r3, [r0, #36]
 963              	.LVL75:
 964 0014 43F48023 		orr	r3, r3, #262144
 965 0018 4362     		str	r3, [r0, #36]
1345:/home/phong/Documents/thesis/stm32f4/stm-idf/components/stm32f4xx_hal_driver/stm32f4xx_hal_can.c **** 
1346:/home/phong/Documents/thesis/stm32f4/stm-idf/components/stm32f4xx_hal_driver/stm32f4xx_hal_can.c ****     return HAL_ERROR;
 966              		.loc 1 1346 0
 967 001a 0120     		movs	r0, #1
 968              	.LVL76:
 969              	.L102:
1347:/home/phong/Documents/thesis/stm32f4/stm-idf/components/stm32f4xx_hal_driver/stm32f4xx_hal_can.c ****   }
1348:/home/phong/Documents/thesis/stm32f4/stm-idf/components/stm32f4xx_hal_driver/stm32f4xx_hal_can.c **** }
 970              		.loc 1 1348 0
 971 001c 70BC     		pop	{r4, r5, r6}
 972              	.LCFI13:
 973              		.cfi_remember_state
 974              		.cfi_restore 6
 975              		.cfi_restore 5
 976              		.cfi_restore 4
 977              		.cfi_def_cfa_offset 0
 978 001e 7047     		bx	lr
 979              	.LVL77:
 980              	.L107:
 981              	.LCFI14:
 982              		.cfi_restore_state
1274:/home/phong/Documents/thesis/stm32f4/stm-idf/components/stm32f4xx_hal_driver/stm32f4xx_hal_can.c ****         ((tsr & CAN_TSR_TME1) != 0U) ||
 983              		.loc 1 1274 0
 984 0020 15F0E05F 		tst	r5, #469762048
 985 0024 5BD0     		beq	.L100
1279:/home/phong/Documents/thesis/stm32f4/stm-idf/components/stm32f4xx_hal_driver/stm32f4xx_hal_can.c **** 
 986              		.loc 1 1279 0
 987 0026 C5F30165 		ubfx	r5, r5, #24, #2
 988              	.LVL78:
1282:/home/phong/Documents/thesis/stm32f4/stm-idf/components/stm32f4xx_hal_driver/stm32f4xx_hal_can.c ****       {
 989              		.loc 1 1282 0
 990 002a 022D     		cmp	r5, #2
 991 002c 3ED8     		bhi	.L108
1291:/home/phong/Documents/thesis/stm32f4/stm-idf/components/stm32f4xx_hal_driver/stm32f4xx_hal_can.c **** 
 992              		.loc 1 1291 0
 993 002e 0124     		movs	r4, #1
 994 0030 AC40     		lsls	r4, r4, r5
 995 0032 1C60     		str	r4, [r3]
1294:/home/phong/Documents/thesis/stm32f4/stm-idf/components/stm32f4xx_hal_driver/stm32f4xx_hal_can.c ****       {
 996              		.loc 1 1294 0
ARM GAS  /tmp/ccW24XdO.s 			page 44


 997 0034 8B68     		ldr	r3, [r1, #8]
 998              	.LVL79:
 999 0036 002B     		cmp	r3, #0
 1000 0038 3ED1     		bne	.L103
1296:/home/phong/Documents/thesis/stm32f4/stm-idf/components/stm32f4xx_hal_driver/stm32f4xx_hal_can.c ****                                                            pHeader->RTR);
 1001              		.loc 1 1296 0
 1002 003a 0468     		ldr	r4, [r0]
 1003 003c 0E68     		ldr	r6, [r1]
1297:/home/phong/Documents/thesis/stm32f4/stm-idf/components/stm32f4xx_hal_driver/stm32f4xx_hal_can.c ****       }
 1004              		.loc 1 1297 0
 1005 003e CB68     		ldr	r3, [r1, #12]
1296:/home/phong/Documents/thesis/stm32f4/stm-idf/components/stm32f4xx_hal_driver/stm32f4xx_hal_can.c ****                                                            pHeader->RTR);
 1006              		.loc 1 1296 0
 1007 0040 43EA4656 		orr	r6, r3, r6, lsl #21
 1008 0044 05F11803 		add	r3, r5, #24
 1009 0048 1B01     		lsls	r3, r3, #4
 1010 004a E650     		str	r6, [r4, r3]
 1011              	.L104:
1307:/home/phong/Documents/thesis/stm32f4/stm-idf/components/stm32f4xx_hal_driver/stm32f4xx_hal_can.c **** 
 1012              		.loc 1 1307 0
 1013 004c 0368     		ldr	r3, [r0]
 1014 004e 0C69     		ldr	r4, [r1, #16]
 1015 0050 05F11806 		add	r6, r5, #24
 1016 0054 03EB0613 		add	r3, r3, r6, lsl #4
 1017 0058 5C60     		str	r4, [r3, #4]
1310:/home/phong/Documents/thesis/stm32f4/stm-idf/components/stm32f4xx_hal_driver/stm32f4xx_hal_can.c ****       {
 1018              		.loc 1 1310 0
 1019 005a 0B7D     		ldrb	r3, [r1, #20]	@ zero_extendqisi2
 1020 005c 012B     		cmp	r3, #1
 1021 005e 36D0     		beq	.L109
 1022              	.LVL80:
 1023              	.L105:
1316:/home/phong/Documents/thesis/stm32f4/stm-idf/components/stm32f4xx_hal_driver/stm32f4xx_hal_can.c ****                 ((uint32_t)aData[7] << CAN_TDH0R_DATA7_Pos) |
 1024              		.loc 1 1316 0
 1025 0060 0468     		ldr	r4, [r0]
 1026 0062 D179     		ldrb	r1, [r2, #7]	@ zero_extendqisi2
 1027 0064 9379     		ldrb	r3, [r2, #6]	@ zero_extendqisi2
 1028 0066 1B04     		lsls	r3, r3, #16
 1029 0068 43EA0163 		orr	r3, r3, r1, lsl #24
 1030 006c 5179     		ldrb	r1, [r2, #5]	@ zero_extendqisi2
 1031 006e 43EA0123 		orr	r3, r3, r1, lsl #8
 1032 0072 1179     		ldrb	r1, [r2, #4]	@ zero_extendqisi2
 1033 0074 0B43     		orrs	r3, r3, r1
 1034 0076 2E01     		lsls	r6, r5, #4
 1035 0078 3444     		add	r4, r4, r6
 1036 007a C4F88C31 		str	r3, [r4, #396]
1321:/home/phong/Documents/thesis/stm32f4/stm-idf/components/stm32f4xx_hal_driver/stm32f4xx_hal_can.c ****                 ((uint32_t)aData[3] << CAN_TDL0R_DATA3_Pos) |
 1037              		.loc 1 1321 0
 1038 007e 0168     		ldr	r1, [r0]
 1039 0080 D478     		ldrb	r4, [r2, #3]	@ zero_extendqisi2
 1040 0082 9378     		ldrb	r3, [r2, #2]	@ zero_extendqisi2
 1041 0084 1B04     		lsls	r3, r3, #16
 1042 0086 43EA0463 		orr	r3, r3, r4, lsl #24
 1043 008a 5478     		ldrb	r4, [r2, #1]	@ zero_extendqisi2
 1044 008c 43EA0423 		orr	r3, r3, r4, lsl #8
 1045 0090 1278     		ldrb	r2, [r2]	@ zero_extendqisi2
 1046              	.LVL81:
ARM GAS  /tmp/ccW24XdO.s 			page 45


 1047 0092 1343     		orrs	r3, r3, r2
 1048 0094 3144     		add	r1, r1, r6
 1049 0096 C1F88831 		str	r3, [r1, #392]
1328:/home/phong/Documents/thesis/stm32f4/stm-idf/components/stm32f4xx_hal_driver/stm32f4xx_hal_can.c **** 
 1050              		.loc 1 1328 0
 1051 009a 0268     		ldr	r2, [r0]
 1052 009c 1835     		adds	r5, r5, #24
 1053              	.LVL82:
 1054 009e 2D01     		lsls	r5, r5, #4
 1055              	.LVL83:
 1056 00a0 5359     		ldr	r3, [r2, r5]
 1057 00a2 43F00103 		orr	r3, r3, #1
 1058 00a6 5351     		str	r3, [r2, r5]
1331:/home/phong/Documents/thesis/stm32f4/stm-idf/components/stm32f4xx_hal_driver/stm32f4xx_hal_can.c ****     }
 1059              		.loc 1 1331 0
 1060 00a8 0020     		movs	r0, #0
 1061              	.LVL84:
 1062 00aa B7E7     		b	.L102
 1063              	.LVL85:
 1064              	.L108:
1285:/home/phong/Documents/thesis/stm32f4/stm-idf/components/stm32f4xx_hal_driver/stm32f4xx_hal_can.c **** 
 1065              		.loc 1 1285 0
 1066 00ac 436A     		ldr	r3, [r0, #36]
 1067              	.LVL86:
 1068 00ae 43F40003 		orr	r3, r3, #8388608
 1069 00b2 4362     		str	r3, [r0, #36]
1287:/home/phong/Documents/thesis/stm32f4/stm-idf/components/stm32f4xx_hal_driver/stm32f4xx_hal_can.c ****       }
 1070              		.loc 1 1287 0
 1071 00b4 0120     		movs	r0, #1
 1072              	.LVL87:
 1073 00b6 B1E7     		b	.L102
 1074              	.LVL88:
 1075              	.L103:
1301:/home/phong/Documents/thesis/stm32f4/stm-idf/components/stm32f4xx_hal_driver/stm32f4xx_hal_can.c ****                                                            pHeader->IDE |
 1076              		.loc 1 1301 0
 1077 00b8 0468     		ldr	r4, [r0]
 1078 00ba 4E68     		ldr	r6, [r1, #4]
 1079 00bc 43EAC603 		orr	r3, r3, r6, lsl #3
1303:/home/phong/Documents/thesis/stm32f4/stm-idf/components/stm32f4xx_hal_driver/stm32f4xx_hal_can.c ****       }
 1080              		.loc 1 1303 0
 1081 00c0 CE68     		ldr	r6, [r1, #12]
1302:/home/phong/Documents/thesis/stm32f4/stm-idf/components/stm32f4xx_hal_driver/stm32f4xx_hal_can.c ****                                                            pHeader->RTR);
 1082              		.loc 1 1302 0
 1083 00c2 3343     		orrs	r3, r3, r6
1301:/home/phong/Documents/thesis/stm32f4/stm-idf/components/stm32f4xx_hal_driver/stm32f4xx_hal_can.c ****                                                            pHeader->IDE |
 1084              		.loc 1 1301 0
 1085 00c4 05F11806 		add	r6, r5, #24
 1086 00c8 3601     		lsls	r6, r6, #4
 1087 00ca A351     		str	r3, [r4, r6]
 1088 00cc BEE7     		b	.L104
 1089              	.L109:
1312:/home/phong/Documents/thesis/stm32f4/stm-idf/components/stm32f4xx_hal_driver/stm32f4xx_hal_can.c ****       }
 1090              		.loc 1 1312 0
 1091 00ce 0368     		ldr	r3, [r0]
 1092 00d0 03EB0613 		add	r3, r3, r6, lsl #4
 1093 00d4 5968     		ldr	r1, [r3, #4]
 1094              	.LVL89:
ARM GAS  /tmp/ccW24XdO.s 			page 46


 1095 00d6 41F48071 		orr	r1, r1, #256
 1096 00da 5960     		str	r1, [r3, #4]
 1097 00dc C0E7     		b	.L105
 1098              	.LVL90:
 1099              	.L100:
1336:/home/phong/Documents/thesis/stm32f4/stm-idf/components/stm32f4xx_hal_driver/stm32f4xx_hal_can.c **** 
 1100              		.loc 1 1336 0
 1101 00de 436A     		ldr	r3, [r0, #36]
 1102              	.LVL91:
 1103 00e0 43F40013 		orr	r3, r3, #2097152
 1104 00e4 4362     		str	r3, [r0, #36]
1338:/home/phong/Documents/thesis/stm32f4/stm-idf/components/stm32f4xx_hal_driver/stm32f4xx_hal_can.c ****     }
 1105              		.loc 1 1338 0
 1106 00e6 0120     		movs	r0, #1
 1107              	.LVL92:
 1108 00e8 98E7     		b	.L102
 1109              		.cfi_endproc
 1110              	.LFE140:
 1112              		.section	.text.HAL_CAN_AbortTxRequest,"ax",%progbits
 1113              		.align	1
 1114              		.global	HAL_CAN_AbortTxRequest
 1115              		.syntax unified
 1116              		.thumb
 1117              		.thumb_func
 1118              		.fpu fpv4-sp-d16
 1120              	HAL_CAN_AbortTxRequest:
 1121              	.LFB141:
1349:/home/phong/Documents/thesis/stm32f4/stm-idf/components/stm32f4xx_hal_driver/stm32f4xx_hal_can.c **** 
1350:/home/phong/Documents/thesis/stm32f4/stm-idf/components/stm32f4xx_hal_driver/stm32f4xx_hal_can.c **** /**
1351:/home/phong/Documents/thesis/stm32f4/stm-idf/components/stm32f4xx_hal_driver/stm32f4xx_hal_can.c ****   * @brief  Abort transmission requests
1352:/home/phong/Documents/thesis/stm32f4/stm-idf/components/stm32f4xx_hal_driver/stm32f4xx_hal_can.c ****   * @param  hcan pointer to an CAN_HandleTypeDef structure that contains
1353:/home/phong/Documents/thesis/stm32f4/stm-idf/components/stm32f4xx_hal_driver/stm32f4xx_hal_can.c ****   *         the configuration information for the specified CAN.
1354:/home/phong/Documents/thesis/stm32f4/stm-idf/components/stm32f4xx_hal_driver/stm32f4xx_hal_can.c ****   * @param  TxMailboxes List of the Tx Mailboxes to abort.
1355:/home/phong/Documents/thesis/stm32f4/stm-idf/components/stm32f4xx_hal_driver/stm32f4xx_hal_can.c ****   *         This parameter can be any combination of @arg CAN_Tx_Mailboxes.
1356:/home/phong/Documents/thesis/stm32f4/stm-idf/components/stm32f4xx_hal_driver/stm32f4xx_hal_can.c ****   * @retval HAL status
1357:/home/phong/Documents/thesis/stm32f4/stm-idf/components/stm32f4xx_hal_driver/stm32f4xx_hal_can.c ****   */
1358:/home/phong/Documents/thesis/stm32f4/stm-idf/components/stm32f4xx_hal_driver/stm32f4xx_hal_can.c **** HAL_StatusTypeDef HAL_CAN_AbortTxRequest(CAN_HandleTypeDef *hcan, uint32_t TxMailboxes)
1359:/home/phong/Documents/thesis/stm32f4/stm-idf/components/stm32f4xx_hal_driver/stm32f4xx_hal_can.c **** {
 1122              		.loc 1 1359 0
 1123              		.cfi_startproc
 1124              		@ args = 0, pretend = 0, frame = 0
 1125              		@ frame_needed = 0, uses_anonymous_args = 0
 1126              		@ link register save eliminated.
 1127              	.LVL93:
1360:/home/phong/Documents/thesis/stm32f4/stm-idf/components/stm32f4xx_hal_driver/stm32f4xx_hal_can.c ****   HAL_CAN_StateTypeDef state = hcan->State;
 1128              		.loc 1 1360 0
 1129 0000 90F82030 		ldrb	r3, [r0, #32]	@ zero_extendqisi2
 1130              	.LVL94:
1361:/home/phong/Documents/thesis/stm32f4/stm-idf/components/stm32f4xx_hal_driver/stm32f4xx_hal_can.c **** 
1362:/home/phong/Documents/thesis/stm32f4/stm-idf/components/stm32f4xx_hal_driver/stm32f4xx_hal_can.c ****   /* Check function parameters */
1363:/home/phong/Documents/thesis/stm32f4/stm-idf/components/stm32f4xx_hal_driver/stm32f4xx_hal_can.c ****   assert_param(IS_CAN_TX_MAILBOX_LIST(TxMailboxes));
1364:/home/phong/Documents/thesis/stm32f4/stm-idf/components/stm32f4xx_hal_driver/stm32f4xx_hal_can.c **** 
1365:/home/phong/Documents/thesis/stm32f4/stm-idf/components/stm32f4xx_hal_driver/stm32f4xx_hal_can.c ****   if ((state == HAL_CAN_STATE_READY) ||
 1131              		.loc 1 1365 0
 1132 0004 013B     		subs	r3, r3, #1
 1133              	.LVL95:
 1134 0006 DBB2     		uxtb	r3, r3
ARM GAS  /tmp/ccW24XdO.s 			page 47


 1135 0008 012B     		cmp	r3, #1
 1136 000a 05D9     		bls	.L116
1366:/home/phong/Documents/thesis/stm32f4/stm-idf/components/stm32f4xx_hal_driver/stm32f4xx_hal_can.c ****       (state == HAL_CAN_STATE_LISTENING))
1367:/home/phong/Documents/thesis/stm32f4/stm-idf/components/stm32f4xx_hal_driver/stm32f4xx_hal_can.c ****   {
1368:/home/phong/Documents/thesis/stm32f4/stm-idf/components/stm32f4xx_hal_driver/stm32f4xx_hal_can.c ****     /* Check Tx Mailbox 0 */
1369:/home/phong/Documents/thesis/stm32f4/stm-idf/components/stm32f4xx_hal_driver/stm32f4xx_hal_can.c ****     if ((TxMailboxes & CAN_TX_MAILBOX0) != 0U)
1370:/home/phong/Documents/thesis/stm32f4/stm-idf/components/stm32f4xx_hal_driver/stm32f4xx_hal_can.c ****     {
1371:/home/phong/Documents/thesis/stm32f4/stm-idf/components/stm32f4xx_hal_driver/stm32f4xx_hal_can.c ****       /* Add cancellation request for Tx Mailbox 0 */
1372:/home/phong/Documents/thesis/stm32f4/stm-idf/components/stm32f4xx_hal_driver/stm32f4xx_hal_can.c ****       SET_BIT(hcan->Instance->TSR, CAN_TSR_ABRQ0);
1373:/home/phong/Documents/thesis/stm32f4/stm-idf/components/stm32f4xx_hal_driver/stm32f4xx_hal_can.c ****     }
1374:/home/phong/Documents/thesis/stm32f4/stm-idf/components/stm32f4xx_hal_driver/stm32f4xx_hal_can.c **** 
1375:/home/phong/Documents/thesis/stm32f4/stm-idf/components/stm32f4xx_hal_driver/stm32f4xx_hal_can.c ****     /* Check Tx Mailbox 1 */
1376:/home/phong/Documents/thesis/stm32f4/stm-idf/components/stm32f4xx_hal_driver/stm32f4xx_hal_can.c ****     if ((TxMailboxes & CAN_TX_MAILBOX1) != 0U)
1377:/home/phong/Documents/thesis/stm32f4/stm-idf/components/stm32f4xx_hal_driver/stm32f4xx_hal_can.c ****     {
1378:/home/phong/Documents/thesis/stm32f4/stm-idf/components/stm32f4xx_hal_driver/stm32f4xx_hal_can.c ****       /* Add cancellation request for Tx Mailbox 1 */
1379:/home/phong/Documents/thesis/stm32f4/stm-idf/components/stm32f4xx_hal_driver/stm32f4xx_hal_can.c ****       SET_BIT(hcan->Instance->TSR, CAN_TSR_ABRQ1);
1380:/home/phong/Documents/thesis/stm32f4/stm-idf/components/stm32f4xx_hal_driver/stm32f4xx_hal_can.c ****     }
1381:/home/phong/Documents/thesis/stm32f4/stm-idf/components/stm32f4xx_hal_driver/stm32f4xx_hal_can.c **** 
1382:/home/phong/Documents/thesis/stm32f4/stm-idf/components/stm32f4xx_hal_driver/stm32f4xx_hal_can.c ****     /* Check Tx Mailbox 2 */
1383:/home/phong/Documents/thesis/stm32f4/stm-idf/components/stm32f4xx_hal_driver/stm32f4xx_hal_can.c ****     if ((TxMailboxes & CAN_TX_MAILBOX2) != 0U)
1384:/home/phong/Documents/thesis/stm32f4/stm-idf/components/stm32f4xx_hal_driver/stm32f4xx_hal_can.c ****     {
1385:/home/phong/Documents/thesis/stm32f4/stm-idf/components/stm32f4xx_hal_driver/stm32f4xx_hal_can.c ****       /* Add cancellation request for Tx Mailbox 2 */
1386:/home/phong/Documents/thesis/stm32f4/stm-idf/components/stm32f4xx_hal_driver/stm32f4xx_hal_can.c ****       SET_BIT(hcan->Instance->TSR, CAN_TSR_ABRQ2);
1387:/home/phong/Documents/thesis/stm32f4/stm-idf/components/stm32f4xx_hal_driver/stm32f4xx_hal_can.c ****     }
1388:/home/phong/Documents/thesis/stm32f4/stm-idf/components/stm32f4xx_hal_driver/stm32f4xx_hal_can.c **** 
1389:/home/phong/Documents/thesis/stm32f4/stm-idf/components/stm32f4xx_hal_driver/stm32f4xx_hal_can.c ****     /* Return function status */
1390:/home/phong/Documents/thesis/stm32f4/stm-idf/components/stm32f4xx_hal_driver/stm32f4xx_hal_can.c ****     return HAL_OK;
1391:/home/phong/Documents/thesis/stm32f4/stm-idf/components/stm32f4xx_hal_driver/stm32f4xx_hal_can.c ****   }
1392:/home/phong/Documents/thesis/stm32f4/stm-idf/components/stm32f4xx_hal_driver/stm32f4xx_hal_can.c ****   else
1393:/home/phong/Documents/thesis/stm32f4/stm-idf/components/stm32f4xx_hal_driver/stm32f4xx_hal_can.c ****   {
1394:/home/phong/Documents/thesis/stm32f4/stm-idf/components/stm32f4xx_hal_driver/stm32f4xx_hal_can.c ****     /* Update error code */
1395:/home/phong/Documents/thesis/stm32f4/stm-idf/components/stm32f4xx_hal_driver/stm32f4xx_hal_can.c ****     hcan->ErrorCode |= HAL_CAN_ERROR_NOT_INITIALIZED;
 1137              		.loc 1 1395 0
 1138 000c 436A     		ldr	r3, [r0, #36]
 1139 000e 43F48023 		orr	r3, r3, #262144
 1140 0012 4362     		str	r3, [r0, #36]
1396:/home/phong/Documents/thesis/stm32f4/stm-idf/components/stm32f4xx_hal_driver/stm32f4xx_hal_can.c **** 
1397:/home/phong/Documents/thesis/stm32f4/stm-idf/components/stm32f4xx_hal_driver/stm32f4xx_hal_can.c ****     return HAL_ERROR;
 1141              		.loc 1 1397 0
 1142 0014 0120     		movs	r0, #1
 1143              	.LVL96:
 1144 0016 7047     		bx	lr
 1145              	.LVL97:
 1146              	.L116:
1369:/home/phong/Documents/thesis/stm32f4/stm-idf/components/stm32f4xx_hal_driver/stm32f4xx_hal_can.c ****     {
 1147              		.loc 1 1369 0
 1148 0018 11F0010F 		tst	r1, #1
 1149 001c 04D0     		beq	.L112
1372:/home/phong/Documents/thesis/stm32f4/stm-idf/components/stm32f4xx_hal_driver/stm32f4xx_hal_can.c ****     }
 1150              		.loc 1 1372 0
 1151 001e 0268     		ldr	r2, [r0]
 1152 0020 9368     		ldr	r3, [r2, #8]
 1153 0022 43F08003 		orr	r3, r3, #128
 1154 0026 9360     		str	r3, [r2, #8]
 1155              	.L112:
1376:/home/phong/Documents/thesis/stm32f4/stm-idf/components/stm32f4xx_hal_driver/stm32f4xx_hal_can.c ****     {
 1156              		.loc 1 1376 0
ARM GAS  /tmp/ccW24XdO.s 			page 48


 1157 0028 11F0020F 		tst	r1, #2
 1158 002c 04D0     		beq	.L113
1379:/home/phong/Documents/thesis/stm32f4/stm-idf/components/stm32f4xx_hal_driver/stm32f4xx_hal_can.c ****     }
 1159              		.loc 1 1379 0
 1160 002e 0268     		ldr	r2, [r0]
 1161 0030 9368     		ldr	r3, [r2, #8]
 1162 0032 43F40043 		orr	r3, r3, #32768
 1163 0036 9360     		str	r3, [r2, #8]
 1164              	.L113:
1383:/home/phong/Documents/thesis/stm32f4/stm-idf/components/stm32f4xx_hal_driver/stm32f4xx_hal_can.c ****     {
 1165              		.loc 1 1383 0
 1166 0038 11F0040F 		tst	r1, #4
 1167 003c 06D0     		beq	.L115
1386:/home/phong/Documents/thesis/stm32f4/stm-idf/components/stm32f4xx_hal_driver/stm32f4xx_hal_can.c ****     }
 1168              		.loc 1 1386 0
 1169 003e 0268     		ldr	r2, [r0]
 1170 0040 9368     		ldr	r3, [r2, #8]
 1171 0042 43F40003 		orr	r3, r3, #8388608
 1172 0046 9360     		str	r3, [r2, #8]
1390:/home/phong/Documents/thesis/stm32f4/stm-idf/components/stm32f4xx_hal_driver/stm32f4xx_hal_can.c ****   }
 1173              		.loc 1 1390 0
 1174 0048 0020     		movs	r0, #0
 1175              	.LVL98:
 1176 004a 7047     		bx	lr
 1177              	.LVL99:
 1178              	.L115:
 1179 004c 0020     		movs	r0, #0
 1180              	.LVL100:
1398:/home/phong/Documents/thesis/stm32f4/stm-idf/components/stm32f4xx_hal_driver/stm32f4xx_hal_can.c ****   }
1399:/home/phong/Documents/thesis/stm32f4/stm-idf/components/stm32f4xx_hal_driver/stm32f4xx_hal_can.c **** }
 1181              		.loc 1 1399 0
 1182 004e 7047     		bx	lr
 1183              		.cfi_endproc
 1184              	.LFE141:
 1186              		.section	.text.HAL_CAN_GetTxMailboxesFreeLevel,"ax",%progbits
 1187              		.align	1
 1188              		.global	HAL_CAN_GetTxMailboxesFreeLevel
 1189              		.syntax unified
 1190              		.thumb
 1191              		.thumb_func
 1192              		.fpu fpv4-sp-d16
 1194              	HAL_CAN_GetTxMailboxesFreeLevel:
 1195              	.LFB142:
1400:/home/phong/Documents/thesis/stm32f4/stm-idf/components/stm32f4xx_hal_driver/stm32f4xx_hal_can.c **** 
1401:/home/phong/Documents/thesis/stm32f4/stm-idf/components/stm32f4xx_hal_driver/stm32f4xx_hal_can.c **** /**
1402:/home/phong/Documents/thesis/stm32f4/stm-idf/components/stm32f4xx_hal_driver/stm32f4xx_hal_can.c ****   * @brief  Return Tx Mailboxes free level: number of free Tx Mailboxes.
1403:/home/phong/Documents/thesis/stm32f4/stm-idf/components/stm32f4xx_hal_driver/stm32f4xx_hal_can.c ****   * @param  hcan pointer to a CAN_HandleTypeDef structure that contains
1404:/home/phong/Documents/thesis/stm32f4/stm-idf/components/stm32f4xx_hal_driver/stm32f4xx_hal_can.c ****   *         the configuration information for the specified CAN.
1405:/home/phong/Documents/thesis/stm32f4/stm-idf/components/stm32f4xx_hal_driver/stm32f4xx_hal_can.c ****   * @retval Number of free Tx Mailboxes.
1406:/home/phong/Documents/thesis/stm32f4/stm-idf/components/stm32f4xx_hal_driver/stm32f4xx_hal_can.c ****   */
1407:/home/phong/Documents/thesis/stm32f4/stm-idf/components/stm32f4xx_hal_driver/stm32f4xx_hal_can.c **** uint32_t HAL_CAN_GetTxMailboxesFreeLevel(CAN_HandleTypeDef *hcan)
1408:/home/phong/Documents/thesis/stm32f4/stm-idf/components/stm32f4xx_hal_driver/stm32f4xx_hal_can.c **** {
 1196              		.loc 1 1408 0
 1197              		.cfi_startproc
 1198              		@ args = 0, pretend = 0, frame = 0
 1199              		@ frame_needed = 0, uses_anonymous_args = 0
 1200              		@ link register save eliminated.
ARM GAS  /tmp/ccW24XdO.s 			page 49


 1201              	.LVL101:
1409:/home/phong/Documents/thesis/stm32f4/stm-idf/components/stm32f4xx_hal_driver/stm32f4xx_hal_can.c ****   uint32_t freelevel = 0U;
1410:/home/phong/Documents/thesis/stm32f4/stm-idf/components/stm32f4xx_hal_driver/stm32f4xx_hal_can.c ****   HAL_CAN_StateTypeDef state = hcan->State;
 1202              		.loc 1 1410 0
 1203 0000 90F82030 		ldrb	r3, [r0, #32]	@ zero_extendqisi2
 1204              	.LVL102:
1411:/home/phong/Documents/thesis/stm32f4/stm-idf/components/stm32f4xx_hal_driver/stm32f4xx_hal_can.c **** 
1412:/home/phong/Documents/thesis/stm32f4/stm-idf/components/stm32f4xx_hal_driver/stm32f4xx_hal_can.c ****   if ((state == HAL_CAN_STATE_READY) ||
 1205              		.loc 1 1412 0
 1206 0004 013B     		subs	r3, r3, #1
 1207              	.LVL103:
 1208 0006 DBB2     		uxtb	r3, r3
 1209 0008 012B     		cmp	r3, #1
 1210 000a 01D9     		bls	.L123
1409:/home/phong/Documents/thesis/stm32f4/stm-idf/components/stm32f4xx_hal_driver/stm32f4xx_hal_can.c ****   uint32_t freelevel = 0U;
 1211              		.loc 1 1409 0
 1212 000c 0020     		movs	r0, #0
 1213              	.LVL104:
 1214              	.L117:
1413:/home/phong/Documents/thesis/stm32f4/stm-idf/components/stm32f4xx_hal_driver/stm32f4xx_hal_can.c ****       (state == HAL_CAN_STATE_LISTENING))
1414:/home/phong/Documents/thesis/stm32f4/stm-idf/components/stm32f4xx_hal_driver/stm32f4xx_hal_can.c ****   {
1415:/home/phong/Documents/thesis/stm32f4/stm-idf/components/stm32f4xx_hal_driver/stm32f4xx_hal_can.c ****     /* Check Tx Mailbox 0 status */
1416:/home/phong/Documents/thesis/stm32f4/stm-idf/components/stm32f4xx_hal_driver/stm32f4xx_hal_can.c ****     if ((hcan->Instance->TSR & CAN_TSR_TME0) != 0U)
1417:/home/phong/Documents/thesis/stm32f4/stm-idf/components/stm32f4xx_hal_driver/stm32f4xx_hal_can.c ****     {
1418:/home/phong/Documents/thesis/stm32f4/stm-idf/components/stm32f4xx_hal_driver/stm32f4xx_hal_can.c ****       freelevel++;
1419:/home/phong/Documents/thesis/stm32f4/stm-idf/components/stm32f4xx_hal_driver/stm32f4xx_hal_can.c ****     }
1420:/home/phong/Documents/thesis/stm32f4/stm-idf/components/stm32f4xx_hal_driver/stm32f4xx_hal_can.c **** 
1421:/home/phong/Documents/thesis/stm32f4/stm-idf/components/stm32f4xx_hal_driver/stm32f4xx_hal_can.c ****     /* Check Tx Mailbox 1 status */
1422:/home/phong/Documents/thesis/stm32f4/stm-idf/components/stm32f4xx_hal_driver/stm32f4xx_hal_can.c ****     if ((hcan->Instance->TSR & CAN_TSR_TME1) != 0U)
1423:/home/phong/Documents/thesis/stm32f4/stm-idf/components/stm32f4xx_hal_driver/stm32f4xx_hal_can.c ****     {
1424:/home/phong/Documents/thesis/stm32f4/stm-idf/components/stm32f4xx_hal_driver/stm32f4xx_hal_can.c ****       freelevel++;
1425:/home/phong/Documents/thesis/stm32f4/stm-idf/components/stm32f4xx_hal_driver/stm32f4xx_hal_can.c ****     }
1426:/home/phong/Documents/thesis/stm32f4/stm-idf/components/stm32f4xx_hal_driver/stm32f4xx_hal_can.c **** 
1427:/home/phong/Documents/thesis/stm32f4/stm-idf/components/stm32f4xx_hal_driver/stm32f4xx_hal_can.c ****     /* Check Tx Mailbox 2 status */
1428:/home/phong/Documents/thesis/stm32f4/stm-idf/components/stm32f4xx_hal_driver/stm32f4xx_hal_can.c ****     if ((hcan->Instance->TSR & CAN_TSR_TME2) != 0U)
1429:/home/phong/Documents/thesis/stm32f4/stm-idf/components/stm32f4xx_hal_driver/stm32f4xx_hal_can.c ****     {
1430:/home/phong/Documents/thesis/stm32f4/stm-idf/components/stm32f4xx_hal_driver/stm32f4xx_hal_can.c ****       freelevel++;
1431:/home/phong/Documents/thesis/stm32f4/stm-idf/components/stm32f4xx_hal_driver/stm32f4xx_hal_can.c ****     }
1432:/home/phong/Documents/thesis/stm32f4/stm-idf/components/stm32f4xx_hal_driver/stm32f4xx_hal_can.c ****   }
1433:/home/phong/Documents/thesis/stm32f4/stm-idf/components/stm32f4xx_hal_driver/stm32f4xx_hal_can.c **** 
1434:/home/phong/Documents/thesis/stm32f4/stm-idf/components/stm32f4xx_hal_driver/stm32f4xx_hal_can.c ****   /* Return Tx Mailboxes free level */
1435:/home/phong/Documents/thesis/stm32f4/stm-idf/components/stm32f4xx_hal_driver/stm32f4xx_hal_can.c ****   return freelevel;
1436:/home/phong/Documents/thesis/stm32f4/stm-idf/components/stm32f4xx_hal_driver/stm32f4xx_hal_can.c **** }
 1215              		.loc 1 1436 0
 1216 000e 7047     		bx	lr
 1217              	.LVL105:
 1218              	.L123:
1416:/home/phong/Documents/thesis/stm32f4/stm-idf/components/stm32f4xx_hal_driver/stm32f4xx_hal_can.c ****     {
 1219              		.loc 1 1416 0
 1220 0010 0368     		ldr	r3, [r0]
 1221 0012 9A68     		ldr	r2, [r3, #8]
 1222 0014 12F0806F 		tst	r2, #67108864
 1223 0018 0BD1     		bne	.L122
1409:/home/phong/Documents/thesis/stm32f4/stm-idf/components/stm32f4xx_hal_driver/stm32f4xx_hal_can.c ****   HAL_CAN_StateTypeDef state = hcan->State;
 1224              		.loc 1 1409 0
 1225 001a 0020     		movs	r0, #0
 1226              	.LVL106:
ARM GAS  /tmp/ccW24XdO.s 			page 50


 1227              	.L119:
1422:/home/phong/Documents/thesis/stm32f4/stm-idf/components/stm32f4xx_hal_driver/stm32f4xx_hal_can.c ****     {
 1228              		.loc 1 1422 0
 1229 001c 9A68     		ldr	r2, [r3, #8]
 1230 001e 12F0006F 		tst	r2, #134217728
 1231 0022 00D0     		beq	.L120
1424:/home/phong/Documents/thesis/stm32f4/stm-idf/components/stm32f4xx_hal_driver/stm32f4xx_hal_can.c ****     }
 1232              		.loc 1 1424 0
 1233 0024 0130     		adds	r0, r0, #1
 1234              	.LVL107:
 1235              	.L120:
1428:/home/phong/Documents/thesis/stm32f4/stm-idf/components/stm32f4xx_hal_driver/stm32f4xx_hal_can.c ****     {
 1236              		.loc 1 1428 0
 1237 0026 9B68     		ldr	r3, [r3, #8]
 1238 0028 13F0805F 		tst	r3, #268435456
 1239 002c EFD0     		beq	.L117
1430:/home/phong/Documents/thesis/stm32f4/stm-idf/components/stm32f4xx_hal_driver/stm32f4xx_hal_can.c ****     }
 1240              		.loc 1 1430 0
 1241 002e 0130     		adds	r0, r0, #1
 1242              	.LVL108:
 1243 0030 7047     		bx	lr
 1244              	.LVL109:
 1245              	.L122:
1418:/home/phong/Documents/thesis/stm32f4/stm-idf/components/stm32f4xx_hal_driver/stm32f4xx_hal_can.c ****     }
 1246              		.loc 1 1418 0
 1247 0032 0120     		movs	r0, #1
 1248              	.LVL110:
 1249 0034 F2E7     		b	.L119
 1250              		.cfi_endproc
 1251              	.LFE142:
 1253              		.section	.text.HAL_CAN_IsTxMessagePending,"ax",%progbits
 1254              		.align	1
 1255              		.global	HAL_CAN_IsTxMessagePending
 1256              		.syntax unified
 1257              		.thumb
 1258              		.thumb_func
 1259              		.fpu fpv4-sp-d16
 1261              	HAL_CAN_IsTxMessagePending:
 1262              	.LFB143:
1437:/home/phong/Documents/thesis/stm32f4/stm-idf/components/stm32f4xx_hal_driver/stm32f4xx_hal_can.c **** 
1438:/home/phong/Documents/thesis/stm32f4/stm-idf/components/stm32f4xx_hal_driver/stm32f4xx_hal_can.c **** /**
1439:/home/phong/Documents/thesis/stm32f4/stm-idf/components/stm32f4xx_hal_driver/stm32f4xx_hal_can.c ****   * @brief  Check if a transmission request is pending on the selected Tx
1440:/home/phong/Documents/thesis/stm32f4/stm-idf/components/stm32f4xx_hal_driver/stm32f4xx_hal_can.c ****   *         Mailboxes.
1441:/home/phong/Documents/thesis/stm32f4/stm-idf/components/stm32f4xx_hal_driver/stm32f4xx_hal_can.c ****   * @param  hcan pointer to an CAN_HandleTypeDef structure that contains
1442:/home/phong/Documents/thesis/stm32f4/stm-idf/components/stm32f4xx_hal_driver/stm32f4xx_hal_can.c ****   *         the configuration information for the specified CAN.
1443:/home/phong/Documents/thesis/stm32f4/stm-idf/components/stm32f4xx_hal_driver/stm32f4xx_hal_can.c ****   * @param  TxMailboxes List of Tx Mailboxes to check.
1444:/home/phong/Documents/thesis/stm32f4/stm-idf/components/stm32f4xx_hal_driver/stm32f4xx_hal_can.c ****   *         This parameter can be any combination of @arg CAN_Tx_Mailboxes.
1445:/home/phong/Documents/thesis/stm32f4/stm-idf/components/stm32f4xx_hal_driver/stm32f4xx_hal_can.c ****   * @retval Status
1446:/home/phong/Documents/thesis/stm32f4/stm-idf/components/stm32f4xx_hal_driver/stm32f4xx_hal_can.c ****   *          - 0 : No pending transmission request on any selected Tx Mailboxes.
1447:/home/phong/Documents/thesis/stm32f4/stm-idf/components/stm32f4xx_hal_driver/stm32f4xx_hal_can.c ****   *          - 1 : Pending transmission request on at least one of the selected
1448:/home/phong/Documents/thesis/stm32f4/stm-idf/components/stm32f4xx_hal_driver/stm32f4xx_hal_can.c ****   *                Tx Mailbox.
1449:/home/phong/Documents/thesis/stm32f4/stm-idf/components/stm32f4xx_hal_driver/stm32f4xx_hal_can.c ****   */
1450:/home/phong/Documents/thesis/stm32f4/stm-idf/components/stm32f4xx_hal_driver/stm32f4xx_hal_can.c **** uint32_t HAL_CAN_IsTxMessagePending(CAN_HandleTypeDef *hcan, uint32_t TxMailboxes)
1451:/home/phong/Documents/thesis/stm32f4/stm-idf/components/stm32f4xx_hal_driver/stm32f4xx_hal_can.c **** {
 1263              		.loc 1 1451 0
 1264              		.cfi_startproc
 1265              		@ args = 0, pretend = 0, frame = 0
ARM GAS  /tmp/ccW24XdO.s 			page 51


 1266              		@ frame_needed = 0, uses_anonymous_args = 0
 1267              		@ link register save eliminated.
 1268              	.LVL111:
1452:/home/phong/Documents/thesis/stm32f4/stm-idf/components/stm32f4xx_hal_driver/stm32f4xx_hal_can.c ****   uint32_t status = 0U;
1453:/home/phong/Documents/thesis/stm32f4/stm-idf/components/stm32f4xx_hal_driver/stm32f4xx_hal_can.c ****   HAL_CAN_StateTypeDef state = hcan->State;
 1269              		.loc 1 1453 0
 1270 0000 90F82030 		ldrb	r3, [r0, #32]	@ zero_extendqisi2
 1271              	.LVL112:
1454:/home/phong/Documents/thesis/stm32f4/stm-idf/components/stm32f4xx_hal_driver/stm32f4xx_hal_can.c **** 
1455:/home/phong/Documents/thesis/stm32f4/stm-idf/components/stm32f4xx_hal_driver/stm32f4xx_hal_can.c ****   /* Check function parameters */
1456:/home/phong/Documents/thesis/stm32f4/stm-idf/components/stm32f4xx_hal_driver/stm32f4xx_hal_can.c ****   assert_param(IS_CAN_TX_MAILBOX_LIST(TxMailboxes));
1457:/home/phong/Documents/thesis/stm32f4/stm-idf/components/stm32f4xx_hal_driver/stm32f4xx_hal_can.c **** 
1458:/home/phong/Documents/thesis/stm32f4/stm-idf/components/stm32f4xx_hal_driver/stm32f4xx_hal_can.c ****   if ((state == HAL_CAN_STATE_READY) ||
 1272              		.loc 1 1458 0
 1273 0004 013B     		subs	r3, r3, #1
 1274              	.LVL113:
 1275 0006 DBB2     		uxtb	r3, r3
 1276 0008 012B     		cmp	r3, #1
 1277 000a 01D9     		bls	.L128
1452:/home/phong/Documents/thesis/stm32f4/stm-idf/components/stm32f4xx_hal_driver/stm32f4xx_hal_can.c ****   uint32_t status = 0U;
 1278              		.loc 1 1452 0
 1279 000c 0020     		movs	r0, #0
 1280              	.LVL114:
 1281 000e 7047     		bx	lr
 1282              	.LVL115:
 1283              	.L128:
1459:/home/phong/Documents/thesis/stm32f4/stm-idf/components/stm32f4xx_hal_driver/stm32f4xx_hal_can.c ****       (state == HAL_CAN_STATE_LISTENING))
1460:/home/phong/Documents/thesis/stm32f4/stm-idf/components/stm32f4xx_hal_driver/stm32f4xx_hal_can.c ****   {
1461:/home/phong/Documents/thesis/stm32f4/stm-idf/components/stm32f4xx_hal_driver/stm32f4xx_hal_can.c ****     /* Check pending transmission request on the selected Tx Mailboxes */
1462:/home/phong/Documents/thesis/stm32f4/stm-idf/components/stm32f4xx_hal_driver/stm32f4xx_hal_can.c ****     if ((hcan->Instance->TSR & (TxMailboxes << CAN_TSR_TME0_Pos)) != (TxMailboxes << CAN_TSR_TME0_P
 1284              		.loc 1 1462 0
 1285 0010 0368     		ldr	r3, [r0]
 1286 0012 9B68     		ldr	r3, [r3, #8]
 1287 0014 8906     		lsls	r1, r1, #26
 1288              	.LVL116:
 1289 0016 31EA0303 		bics	r3, r1, r3
 1290 001a 01D0     		beq	.L129
1463:/home/phong/Documents/thesis/stm32f4/stm-idf/components/stm32f4xx_hal_driver/stm32f4xx_hal_can.c ****     {
1464:/home/phong/Documents/thesis/stm32f4/stm-idf/components/stm32f4xx_hal_driver/stm32f4xx_hal_can.c ****       status = 1U;
 1291              		.loc 1 1464 0
 1292 001c 0120     		movs	r0, #1
 1293              	.LVL117:
1465:/home/phong/Documents/thesis/stm32f4/stm-idf/components/stm32f4xx_hal_driver/stm32f4xx_hal_can.c ****     }
1466:/home/phong/Documents/thesis/stm32f4/stm-idf/components/stm32f4xx_hal_driver/stm32f4xx_hal_can.c ****   }
1467:/home/phong/Documents/thesis/stm32f4/stm-idf/components/stm32f4xx_hal_driver/stm32f4xx_hal_can.c **** 
1468:/home/phong/Documents/thesis/stm32f4/stm-idf/components/stm32f4xx_hal_driver/stm32f4xx_hal_can.c ****   /* Return status */
1469:/home/phong/Documents/thesis/stm32f4/stm-idf/components/stm32f4xx_hal_driver/stm32f4xx_hal_can.c ****   return status;
1470:/home/phong/Documents/thesis/stm32f4/stm-idf/components/stm32f4xx_hal_driver/stm32f4xx_hal_can.c **** }
 1294              		.loc 1 1470 0
 1295 001e 7047     		bx	lr
 1296              	.LVL118:
 1297              	.L129:
1452:/home/phong/Documents/thesis/stm32f4/stm-idf/components/stm32f4xx_hal_driver/stm32f4xx_hal_can.c ****   HAL_CAN_StateTypeDef state = hcan->State;
 1298              		.loc 1 1452 0
 1299 0020 0020     		movs	r0, #0
 1300              	.LVL119:
 1301 0022 7047     		bx	lr
ARM GAS  /tmp/ccW24XdO.s 			page 52


 1302              		.cfi_endproc
 1303              	.LFE143:
 1305              		.section	.text.HAL_CAN_GetTxTimestamp,"ax",%progbits
 1306              		.align	1
 1307              		.global	HAL_CAN_GetTxTimestamp
 1308              		.syntax unified
 1309              		.thumb
 1310              		.thumb_func
 1311              		.fpu fpv4-sp-d16
 1313              	HAL_CAN_GetTxTimestamp:
 1314              	.LFB144:
1471:/home/phong/Documents/thesis/stm32f4/stm-idf/components/stm32f4xx_hal_driver/stm32f4xx_hal_can.c **** 
1472:/home/phong/Documents/thesis/stm32f4/stm-idf/components/stm32f4xx_hal_driver/stm32f4xx_hal_can.c **** /**
1473:/home/phong/Documents/thesis/stm32f4/stm-idf/components/stm32f4xx_hal_driver/stm32f4xx_hal_can.c ****   * @brief  Return timestamp of Tx message sent, if time triggered communication
1474:/home/phong/Documents/thesis/stm32f4/stm-idf/components/stm32f4xx_hal_driver/stm32f4xx_hal_can.c ****             mode is enabled.
1475:/home/phong/Documents/thesis/stm32f4/stm-idf/components/stm32f4xx_hal_driver/stm32f4xx_hal_can.c ****   * @param  hcan pointer to a CAN_HandleTypeDef structure that contains
1476:/home/phong/Documents/thesis/stm32f4/stm-idf/components/stm32f4xx_hal_driver/stm32f4xx_hal_can.c ****   *         the configuration information for the specified CAN.
1477:/home/phong/Documents/thesis/stm32f4/stm-idf/components/stm32f4xx_hal_driver/stm32f4xx_hal_can.c ****   * @param  TxMailbox Tx Mailbox where the timestamp of message sent will be
1478:/home/phong/Documents/thesis/stm32f4/stm-idf/components/stm32f4xx_hal_driver/stm32f4xx_hal_can.c ****   *         read.
1479:/home/phong/Documents/thesis/stm32f4/stm-idf/components/stm32f4xx_hal_driver/stm32f4xx_hal_can.c ****   *         This parameter can be one value of @arg CAN_Tx_Mailboxes.
1480:/home/phong/Documents/thesis/stm32f4/stm-idf/components/stm32f4xx_hal_driver/stm32f4xx_hal_can.c ****   * @retval Timestamp of message sent from Tx Mailbox.
1481:/home/phong/Documents/thesis/stm32f4/stm-idf/components/stm32f4xx_hal_driver/stm32f4xx_hal_can.c ****   */
1482:/home/phong/Documents/thesis/stm32f4/stm-idf/components/stm32f4xx_hal_driver/stm32f4xx_hal_can.c **** uint32_t HAL_CAN_GetTxTimestamp(CAN_HandleTypeDef *hcan, uint32_t TxMailbox)
1483:/home/phong/Documents/thesis/stm32f4/stm-idf/components/stm32f4xx_hal_driver/stm32f4xx_hal_can.c **** {
 1315              		.loc 1 1483 0
 1316              		.cfi_startproc
 1317              		@ args = 0, pretend = 0, frame = 0
 1318              		@ frame_needed = 0, uses_anonymous_args = 0
 1319              		@ link register save eliminated.
 1320              	.LVL120:
1484:/home/phong/Documents/thesis/stm32f4/stm-idf/components/stm32f4xx_hal_driver/stm32f4xx_hal_can.c ****   uint32_t timestamp = 0U;
1485:/home/phong/Documents/thesis/stm32f4/stm-idf/components/stm32f4xx_hal_driver/stm32f4xx_hal_can.c ****   uint32_t transmitmailbox;
1486:/home/phong/Documents/thesis/stm32f4/stm-idf/components/stm32f4xx_hal_driver/stm32f4xx_hal_can.c ****   HAL_CAN_StateTypeDef state = hcan->State;
 1321              		.loc 1 1486 0
 1322 0000 90F82030 		ldrb	r3, [r0, #32]	@ zero_extendqisi2
 1323              	.LVL121:
1487:/home/phong/Documents/thesis/stm32f4/stm-idf/components/stm32f4xx_hal_driver/stm32f4xx_hal_can.c **** 
1488:/home/phong/Documents/thesis/stm32f4/stm-idf/components/stm32f4xx_hal_driver/stm32f4xx_hal_can.c ****   /* Check function parameters */
1489:/home/phong/Documents/thesis/stm32f4/stm-idf/components/stm32f4xx_hal_driver/stm32f4xx_hal_can.c ****   assert_param(IS_CAN_TX_MAILBOX(TxMailbox));
1490:/home/phong/Documents/thesis/stm32f4/stm-idf/components/stm32f4xx_hal_driver/stm32f4xx_hal_can.c **** 
1491:/home/phong/Documents/thesis/stm32f4/stm-idf/components/stm32f4xx_hal_driver/stm32f4xx_hal_can.c ****   if ((state == HAL_CAN_STATE_READY) ||
 1324              		.loc 1 1491 0
 1325 0004 013B     		subs	r3, r3, #1
 1326              	.LVL122:
 1327 0006 DBB2     		uxtb	r3, r3
 1328 0008 012B     		cmp	r3, #1
 1329 000a 01D9     		bls	.L133
1484:/home/phong/Documents/thesis/stm32f4/stm-idf/components/stm32f4xx_hal_driver/stm32f4xx_hal_can.c ****   uint32_t timestamp = 0U;
 1330              		.loc 1 1484 0
 1331 000c 0020     		movs	r0, #0
 1332              	.LVL123:
1492:/home/phong/Documents/thesis/stm32f4/stm-idf/components/stm32f4xx_hal_driver/stm32f4xx_hal_can.c ****       (state == HAL_CAN_STATE_LISTENING))
1493:/home/phong/Documents/thesis/stm32f4/stm-idf/components/stm32f4xx_hal_driver/stm32f4xx_hal_can.c ****   {
1494:/home/phong/Documents/thesis/stm32f4/stm-idf/components/stm32f4xx_hal_driver/stm32f4xx_hal_can.c ****     /* Select the Tx mailbox */
1495:/home/phong/Documents/thesis/stm32f4/stm-idf/components/stm32f4xx_hal_driver/stm32f4xx_hal_can.c ****     transmitmailbox = POSITION_VAL(TxMailbox);
1496:/home/phong/Documents/thesis/stm32f4/stm-idf/components/stm32f4xx_hal_driver/stm32f4xx_hal_can.c **** 
1497:/home/phong/Documents/thesis/stm32f4/stm-idf/components/stm32f4xx_hal_driver/stm32f4xx_hal_can.c ****     /* Get timestamp */
ARM GAS  /tmp/ccW24XdO.s 			page 53


1498:/home/phong/Documents/thesis/stm32f4/stm-idf/components/stm32f4xx_hal_driver/stm32f4xx_hal_can.c ****     timestamp = (hcan->Instance->sTxMailBox[transmitmailbox].TDTR & CAN_TDT0R_TIME) >> CAN_TDT0R_TI
1499:/home/phong/Documents/thesis/stm32f4/stm-idf/components/stm32f4xx_hal_driver/stm32f4xx_hal_can.c ****   }
1500:/home/phong/Documents/thesis/stm32f4/stm-idf/components/stm32f4xx_hal_driver/stm32f4xx_hal_can.c **** 
1501:/home/phong/Documents/thesis/stm32f4/stm-idf/components/stm32f4xx_hal_driver/stm32f4xx_hal_can.c ****   /* Return the timestamp */
1502:/home/phong/Documents/thesis/stm32f4/stm-idf/components/stm32f4xx_hal_driver/stm32f4xx_hal_can.c ****   return timestamp;
1503:/home/phong/Documents/thesis/stm32f4/stm-idf/components/stm32f4xx_hal_driver/stm32f4xx_hal_can.c **** }
 1333              		.loc 1 1503 0
 1334 000e 7047     		bx	lr
 1335              	.LVL124:
 1336              	.L133:
 1337              	.LBB4:
 1338              	.LBB5:
 1339              		.file 2 "/home/phong/Documents/thesis/stm32f4/stm-idf/components/cmsis/include/cmsis_gcc.h"
   1:/home/phong/Documents/thesis/stm32f4/stm-idf/components/cmsis/include/cmsis_gcc.h **** /**************************************************************************//**
   2:/home/phong/Documents/thesis/stm32f4/stm-idf/components/cmsis/include/cmsis_gcc.h ****  * @file     cmsis_gcc.h
   3:/home/phong/Documents/thesis/stm32f4/stm-idf/components/cmsis/include/cmsis_gcc.h ****  * @brief    CMSIS compiler GCC header file
   4:/home/phong/Documents/thesis/stm32f4/stm-idf/components/cmsis/include/cmsis_gcc.h ****  * @version  V5.0.4
   5:/home/phong/Documents/thesis/stm32f4/stm-idf/components/cmsis/include/cmsis_gcc.h ****  * @date     09. April 2018
   6:/home/phong/Documents/thesis/stm32f4/stm-idf/components/cmsis/include/cmsis_gcc.h ****  ******************************************************************************/
   7:/home/phong/Documents/thesis/stm32f4/stm-idf/components/cmsis/include/cmsis_gcc.h **** /*
   8:/home/phong/Documents/thesis/stm32f4/stm-idf/components/cmsis/include/cmsis_gcc.h ****  * Copyright (c) 2009-2018 Arm Limited. All rights reserved.
   9:/home/phong/Documents/thesis/stm32f4/stm-idf/components/cmsis/include/cmsis_gcc.h ****  *
  10:/home/phong/Documents/thesis/stm32f4/stm-idf/components/cmsis/include/cmsis_gcc.h ****  * SPDX-License-Identifier: Apache-2.0
  11:/home/phong/Documents/thesis/stm32f4/stm-idf/components/cmsis/include/cmsis_gcc.h ****  *
  12:/home/phong/Documents/thesis/stm32f4/stm-idf/components/cmsis/include/cmsis_gcc.h ****  * Licensed under the Apache License, Version 2.0 (the License); you may
  13:/home/phong/Documents/thesis/stm32f4/stm-idf/components/cmsis/include/cmsis_gcc.h ****  * not use this file except in compliance with the License.
  14:/home/phong/Documents/thesis/stm32f4/stm-idf/components/cmsis/include/cmsis_gcc.h ****  * You may obtain a copy of the License at
  15:/home/phong/Documents/thesis/stm32f4/stm-idf/components/cmsis/include/cmsis_gcc.h ****  *
  16:/home/phong/Documents/thesis/stm32f4/stm-idf/components/cmsis/include/cmsis_gcc.h ****  * www.apache.org/licenses/LICENSE-2.0
  17:/home/phong/Documents/thesis/stm32f4/stm-idf/components/cmsis/include/cmsis_gcc.h ****  *
  18:/home/phong/Documents/thesis/stm32f4/stm-idf/components/cmsis/include/cmsis_gcc.h ****  * Unless required by applicable law or agreed to in writing, software
  19:/home/phong/Documents/thesis/stm32f4/stm-idf/components/cmsis/include/cmsis_gcc.h ****  * distributed under the License is distributed on an AS IS BASIS, WITHOUT
  20:/home/phong/Documents/thesis/stm32f4/stm-idf/components/cmsis/include/cmsis_gcc.h ****  * WARRANTIES OR CONDITIONS OF ANY KIND, either express or implied.
  21:/home/phong/Documents/thesis/stm32f4/stm-idf/components/cmsis/include/cmsis_gcc.h ****  * See the License for the specific language governing permissions and
  22:/home/phong/Documents/thesis/stm32f4/stm-idf/components/cmsis/include/cmsis_gcc.h ****  * limitations under the License.
  23:/home/phong/Documents/thesis/stm32f4/stm-idf/components/cmsis/include/cmsis_gcc.h ****  */
  24:/home/phong/Documents/thesis/stm32f4/stm-idf/components/cmsis/include/cmsis_gcc.h **** 
  25:/home/phong/Documents/thesis/stm32f4/stm-idf/components/cmsis/include/cmsis_gcc.h **** #ifndef __CMSIS_GCC_H
  26:/home/phong/Documents/thesis/stm32f4/stm-idf/components/cmsis/include/cmsis_gcc.h **** #define __CMSIS_GCC_H
  27:/home/phong/Documents/thesis/stm32f4/stm-idf/components/cmsis/include/cmsis_gcc.h **** 
  28:/home/phong/Documents/thesis/stm32f4/stm-idf/components/cmsis/include/cmsis_gcc.h **** /* ignore some GCC warnings */
  29:/home/phong/Documents/thesis/stm32f4/stm-idf/components/cmsis/include/cmsis_gcc.h **** #pragma GCC diagnostic push
  30:/home/phong/Documents/thesis/stm32f4/stm-idf/components/cmsis/include/cmsis_gcc.h **** #pragma GCC diagnostic ignored "-Wsign-conversion"
  31:/home/phong/Documents/thesis/stm32f4/stm-idf/components/cmsis/include/cmsis_gcc.h **** #pragma GCC diagnostic ignored "-Wconversion"
  32:/home/phong/Documents/thesis/stm32f4/stm-idf/components/cmsis/include/cmsis_gcc.h **** #pragma GCC diagnostic ignored "-Wunused-parameter"
  33:/home/phong/Documents/thesis/stm32f4/stm-idf/components/cmsis/include/cmsis_gcc.h **** 
  34:/home/phong/Documents/thesis/stm32f4/stm-idf/components/cmsis/include/cmsis_gcc.h **** /* Fallback for __has_builtin */
  35:/home/phong/Documents/thesis/stm32f4/stm-idf/components/cmsis/include/cmsis_gcc.h **** #ifndef __has_builtin
  36:/home/phong/Documents/thesis/stm32f4/stm-idf/components/cmsis/include/cmsis_gcc.h ****   #define __has_builtin(x) (0)
  37:/home/phong/Documents/thesis/stm32f4/stm-idf/components/cmsis/include/cmsis_gcc.h **** #endif
  38:/home/phong/Documents/thesis/stm32f4/stm-idf/components/cmsis/include/cmsis_gcc.h **** 
  39:/home/phong/Documents/thesis/stm32f4/stm-idf/components/cmsis/include/cmsis_gcc.h **** /* CMSIS compiler specific defines */
  40:/home/phong/Documents/thesis/stm32f4/stm-idf/components/cmsis/include/cmsis_gcc.h **** #ifndef   __ASM
  41:/home/phong/Documents/thesis/stm32f4/stm-idf/components/cmsis/include/cmsis_gcc.h ****   #define __ASM                                  __asm
  42:/home/phong/Documents/thesis/stm32f4/stm-idf/components/cmsis/include/cmsis_gcc.h **** #endif
  43:/home/phong/Documents/thesis/stm32f4/stm-idf/components/cmsis/include/cmsis_gcc.h **** #ifndef   __INLINE
  44:/home/phong/Documents/thesis/stm32f4/stm-idf/components/cmsis/include/cmsis_gcc.h ****   #define __INLINE                               inline
ARM GAS  /tmp/ccW24XdO.s 			page 54


  45:/home/phong/Documents/thesis/stm32f4/stm-idf/components/cmsis/include/cmsis_gcc.h **** #endif
  46:/home/phong/Documents/thesis/stm32f4/stm-idf/components/cmsis/include/cmsis_gcc.h **** #ifndef   __STATIC_INLINE
  47:/home/phong/Documents/thesis/stm32f4/stm-idf/components/cmsis/include/cmsis_gcc.h ****   #define __STATIC_INLINE                        static inline
  48:/home/phong/Documents/thesis/stm32f4/stm-idf/components/cmsis/include/cmsis_gcc.h **** #endif
  49:/home/phong/Documents/thesis/stm32f4/stm-idf/components/cmsis/include/cmsis_gcc.h **** #ifndef   __STATIC_FORCEINLINE                 
  50:/home/phong/Documents/thesis/stm32f4/stm-idf/components/cmsis/include/cmsis_gcc.h ****   #define __STATIC_FORCEINLINE                   __attribute__((always_inline)) static inline
  51:/home/phong/Documents/thesis/stm32f4/stm-idf/components/cmsis/include/cmsis_gcc.h **** #endif                                           
  52:/home/phong/Documents/thesis/stm32f4/stm-idf/components/cmsis/include/cmsis_gcc.h **** #ifndef   __NO_RETURN
  53:/home/phong/Documents/thesis/stm32f4/stm-idf/components/cmsis/include/cmsis_gcc.h ****   #define __NO_RETURN                            __attribute__((__noreturn__))
  54:/home/phong/Documents/thesis/stm32f4/stm-idf/components/cmsis/include/cmsis_gcc.h **** #endif
  55:/home/phong/Documents/thesis/stm32f4/stm-idf/components/cmsis/include/cmsis_gcc.h **** #ifndef   __USED
  56:/home/phong/Documents/thesis/stm32f4/stm-idf/components/cmsis/include/cmsis_gcc.h ****   #define __USED                                 __attribute__((used))
  57:/home/phong/Documents/thesis/stm32f4/stm-idf/components/cmsis/include/cmsis_gcc.h **** #endif
  58:/home/phong/Documents/thesis/stm32f4/stm-idf/components/cmsis/include/cmsis_gcc.h **** #ifndef   __WEAK
  59:/home/phong/Documents/thesis/stm32f4/stm-idf/components/cmsis/include/cmsis_gcc.h ****   #define __WEAK                                 __attribute__((weak))
  60:/home/phong/Documents/thesis/stm32f4/stm-idf/components/cmsis/include/cmsis_gcc.h **** #endif
  61:/home/phong/Documents/thesis/stm32f4/stm-idf/components/cmsis/include/cmsis_gcc.h **** #ifndef   __PACKED
  62:/home/phong/Documents/thesis/stm32f4/stm-idf/components/cmsis/include/cmsis_gcc.h ****   #define __PACKED                               __attribute__((packed, aligned(1)))
  63:/home/phong/Documents/thesis/stm32f4/stm-idf/components/cmsis/include/cmsis_gcc.h **** #endif
  64:/home/phong/Documents/thesis/stm32f4/stm-idf/components/cmsis/include/cmsis_gcc.h **** #ifndef   __PACKED_STRUCT
  65:/home/phong/Documents/thesis/stm32f4/stm-idf/components/cmsis/include/cmsis_gcc.h ****   #define __PACKED_STRUCT                        struct __attribute__((packed, aligned(1)))
  66:/home/phong/Documents/thesis/stm32f4/stm-idf/components/cmsis/include/cmsis_gcc.h **** #endif
  67:/home/phong/Documents/thesis/stm32f4/stm-idf/components/cmsis/include/cmsis_gcc.h **** #ifndef   __PACKED_UNION
  68:/home/phong/Documents/thesis/stm32f4/stm-idf/components/cmsis/include/cmsis_gcc.h ****   #define __PACKED_UNION                         union __attribute__((packed, aligned(1)))
  69:/home/phong/Documents/thesis/stm32f4/stm-idf/components/cmsis/include/cmsis_gcc.h **** #endif
  70:/home/phong/Documents/thesis/stm32f4/stm-idf/components/cmsis/include/cmsis_gcc.h **** #ifndef   __UNALIGNED_UINT32        /* deprecated */
  71:/home/phong/Documents/thesis/stm32f4/stm-idf/components/cmsis/include/cmsis_gcc.h ****   #pragma GCC diagnostic push
  72:/home/phong/Documents/thesis/stm32f4/stm-idf/components/cmsis/include/cmsis_gcc.h ****   #pragma GCC diagnostic ignored "-Wpacked"
  73:/home/phong/Documents/thesis/stm32f4/stm-idf/components/cmsis/include/cmsis_gcc.h ****   #pragma GCC diagnostic ignored "-Wattributes"
  74:/home/phong/Documents/thesis/stm32f4/stm-idf/components/cmsis/include/cmsis_gcc.h ****   struct __attribute__((packed)) T_UINT32 { uint32_t v; };
  75:/home/phong/Documents/thesis/stm32f4/stm-idf/components/cmsis/include/cmsis_gcc.h ****   #pragma GCC diagnostic pop
  76:/home/phong/Documents/thesis/stm32f4/stm-idf/components/cmsis/include/cmsis_gcc.h ****   #define __UNALIGNED_UINT32(x)                  (((struct T_UINT32 *)(x))->v)
  77:/home/phong/Documents/thesis/stm32f4/stm-idf/components/cmsis/include/cmsis_gcc.h **** #endif
  78:/home/phong/Documents/thesis/stm32f4/stm-idf/components/cmsis/include/cmsis_gcc.h **** #ifndef   __UNALIGNED_UINT16_WRITE
  79:/home/phong/Documents/thesis/stm32f4/stm-idf/components/cmsis/include/cmsis_gcc.h ****   #pragma GCC diagnostic push
  80:/home/phong/Documents/thesis/stm32f4/stm-idf/components/cmsis/include/cmsis_gcc.h ****   #pragma GCC diagnostic ignored "-Wpacked"
  81:/home/phong/Documents/thesis/stm32f4/stm-idf/components/cmsis/include/cmsis_gcc.h ****   #pragma GCC diagnostic ignored "-Wattributes"
  82:/home/phong/Documents/thesis/stm32f4/stm-idf/components/cmsis/include/cmsis_gcc.h ****   __PACKED_STRUCT T_UINT16_WRITE { uint16_t v; };
  83:/home/phong/Documents/thesis/stm32f4/stm-idf/components/cmsis/include/cmsis_gcc.h ****   #pragma GCC diagnostic pop
  84:/home/phong/Documents/thesis/stm32f4/stm-idf/components/cmsis/include/cmsis_gcc.h ****   #define __UNALIGNED_UINT16_WRITE(addr, val)    (void)((((struct T_UINT16_WRITE *)(void *)(addr))-
  85:/home/phong/Documents/thesis/stm32f4/stm-idf/components/cmsis/include/cmsis_gcc.h **** #endif
  86:/home/phong/Documents/thesis/stm32f4/stm-idf/components/cmsis/include/cmsis_gcc.h **** #ifndef   __UNALIGNED_UINT16_READ
  87:/home/phong/Documents/thesis/stm32f4/stm-idf/components/cmsis/include/cmsis_gcc.h ****   #pragma GCC diagnostic push
  88:/home/phong/Documents/thesis/stm32f4/stm-idf/components/cmsis/include/cmsis_gcc.h ****   #pragma GCC diagnostic ignored "-Wpacked"
  89:/home/phong/Documents/thesis/stm32f4/stm-idf/components/cmsis/include/cmsis_gcc.h ****   #pragma GCC diagnostic ignored "-Wattributes"
  90:/home/phong/Documents/thesis/stm32f4/stm-idf/components/cmsis/include/cmsis_gcc.h ****   __PACKED_STRUCT T_UINT16_READ { uint16_t v; };
  91:/home/phong/Documents/thesis/stm32f4/stm-idf/components/cmsis/include/cmsis_gcc.h ****   #pragma GCC diagnostic pop
  92:/home/phong/Documents/thesis/stm32f4/stm-idf/components/cmsis/include/cmsis_gcc.h ****   #define __UNALIGNED_UINT16_READ(addr)          (((const struct T_UINT16_READ *)(const void *)(add
  93:/home/phong/Documents/thesis/stm32f4/stm-idf/components/cmsis/include/cmsis_gcc.h **** #endif
  94:/home/phong/Documents/thesis/stm32f4/stm-idf/components/cmsis/include/cmsis_gcc.h **** #ifndef   __UNALIGNED_UINT32_WRITE
  95:/home/phong/Documents/thesis/stm32f4/stm-idf/components/cmsis/include/cmsis_gcc.h ****   #pragma GCC diagnostic push
  96:/home/phong/Documents/thesis/stm32f4/stm-idf/components/cmsis/include/cmsis_gcc.h ****   #pragma GCC diagnostic ignored "-Wpacked"
  97:/home/phong/Documents/thesis/stm32f4/stm-idf/components/cmsis/include/cmsis_gcc.h ****   #pragma GCC diagnostic ignored "-Wattributes"
  98:/home/phong/Documents/thesis/stm32f4/stm-idf/components/cmsis/include/cmsis_gcc.h ****   __PACKED_STRUCT T_UINT32_WRITE { uint32_t v; };
  99:/home/phong/Documents/thesis/stm32f4/stm-idf/components/cmsis/include/cmsis_gcc.h ****   #pragma GCC diagnostic pop
 100:/home/phong/Documents/thesis/stm32f4/stm-idf/components/cmsis/include/cmsis_gcc.h ****   #define __UNALIGNED_UINT32_WRITE(addr, val)    (void)((((struct T_UINT32_WRITE *)(void *)(addr))-
 101:/home/phong/Documents/thesis/stm32f4/stm-idf/components/cmsis/include/cmsis_gcc.h **** #endif
ARM GAS  /tmp/ccW24XdO.s 			page 55


 102:/home/phong/Documents/thesis/stm32f4/stm-idf/components/cmsis/include/cmsis_gcc.h **** #ifndef   __UNALIGNED_UINT32_READ
 103:/home/phong/Documents/thesis/stm32f4/stm-idf/components/cmsis/include/cmsis_gcc.h ****   #pragma GCC diagnostic push
 104:/home/phong/Documents/thesis/stm32f4/stm-idf/components/cmsis/include/cmsis_gcc.h ****   #pragma GCC diagnostic ignored "-Wpacked"
 105:/home/phong/Documents/thesis/stm32f4/stm-idf/components/cmsis/include/cmsis_gcc.h ****   #pragma GCC diagnostic ignored "-Wattributes"
 106:/home/phong/Documents/thesis/stm32f4/stm-idf/components/cmsis/include/cmsis_gcc.h ****   __PACKED_STRUCT T_UINT32_READ { uint32_t v; };
 107:/home/phong/Documents/thesis/stm32f4/stm-idf/components/cmsis/include/cmsis_gcc.h ****   #pragma GCC diagnostic pop
 108:/home/phong/Documents/thesis/stm32f4/stm-idf/components/cmsis/include/cmsis_gcc.h ****   #define __UNALIGNED_UINT32_READ(addr)          (((const struct T_UINT32_READ *)(const void *)(add
 109:/home/phong/Documents/thesis/stm32f4/stm-idf/components/cmsis/include/cmsis_gcc.h **** #endif
 110:/home/phong/Documents/thesis/stm32f4/stm-idf/components/cmsis/include/cmsis_gcc.h **** #ifndef   __ALIGNED
 111:/home/phong/Documents/thesis/stm32f4/stm-idf/components/cmsis/include/cmsis_gcc.h ****   #define __ALIGNED(x)                           __attribute__((aligned(x)))
 112:/home/phong/Documents/thesis/stm32f4/stm-idf/components/cmsis/include/cmsis_gcc.h **** #endif
 113:/home/phong/Documents/thesis/stm32f4/stm-idf/components/cmsis/include/cmsis_gcc.h **** #ifndef   __RESTRICT
 114:/home/phong/Documents/thesis/stm32f4/stm-idf/components/cmsis/include/cmsis_gcc.h ****   #define __RESTRICT                             __restrict
 115:/home/phong/Documents/thesis/stm32f4/stm-idf/components/cmsis/include/cmsis_gcc.h **** #endif
 116:/home/phong/Documents/thesis/stm32f4/stm-idf/components/cmsis/include/cmsis_gcc.h **** 
 117:/home/phong/Documents/thesis/stm32f4/stm-idf/components/cmsis/include/cmsis_gcc.h **** 
 118:/home/phong/Documents/thesis/stm32f4/stm-idf/components/cmsis/include/cmsis_gcc.h **** /* ###########################  Core Function Access  ########################### */
 119:/home/phong/Documents/thesis/stm32f4/stm-idf/components/cmsis/include/cmsis_gcc.h **** /** \ingroup  CMSIS_Core_FunctionInterface
 120:/home/phong/Documents/thesis/stm32f4/stm-idf/components/cmsis/include/cmsis_gcc.h ****     \defgroup CMSIS_Core_RegAccFunctions CMSIS Core Register Access Functions
 121:/home/phong/Documents/thesis/stm32f4/stm-idf/components/cmsis/include/cmsis_gcc.h ****   @{
 122:/home/phong/Documents/thesis/stm32f4/stm-idf/components/cmsis/include/cmsis_gcc.h ****  */
 123:/home/phong/Documents/thesis/stm32f4/stm-idf/components/cmsis/include/cmsis_gcc.h **** 
 124:/home/phong/Documents/thesis/stm32f4/stm-idf/components/cmsis/include/cmsis_gcc.h **** /**
 125:/home/phong/Documents/thesis/stm32f4/stm-idf/components/cmsis/include/cmsis_gcc.h ****   \brief   Enable IRQ Interrupts
 126:/home/phong/Documents/thesis/stm32f4/stm-idf/components/cmsis/include/cmsis_gcc.h ****   \details Enables IRQ interrupts by clearing the I-bit in the CPSR.
 127:/home/phong/Documents/thesis/stm32f4/stm-idf/components/cmsis/include/cmsis_gcc.h ****            Can only be executed in Privileged modes.
 128:/home/phong/Documents/thesis/stm32f4/stm-idf/components/cmsis/include/cmsis_gcc.h ****  */
 129:/home/phong/Documents/thesis/stm32f4/stm-idf/components/cmsis/include/cmsis_gcc.h **** __STATIC_FORCEINLINE void __enable_irq(void)
 130:/home/phong/Documents/thesis/stm32f4/stm-idf/components/cmsis/include/cmsis_gcc.h **** {
 131:/home/phong/Documents/thesis/stm32f4/stm-idf/components/cmsis/include/cmsis_gcc.h ****   __ASM volatile ("cpsie i" : : : "memory");
 132:/home/phong/Documents/thesis/stm32f4/stm-idf/components/cmsis/include/cmsis_gcc.h **** }
 133:/home/phong/Documents/thesis/stm32f4/stm-idf/components/cmsis/include/cmsis_gcc.h **** 
 134:/home/phong/Documents/thesis/stm32f4/stm-idf/components/cmsis/include/cmsis_gcc.h **** 
 135:/home/phong/Documents/thesis/stm32f4/stm-idf/components/cmsis/include/cmsis_gcc.h **** /**
 136:/home/phong/Documents/thesis/stm32f4/stm-idf/components/cmsis/include/cmsis_gcc.h ****   \brief   Disable IRQ Interrupts
 137:/home/phong/Documents/thesis/stm32f4/stm-idf/components/cmsis/include/cmsis_gcc.h ****   \details Disables IRQ interrupts by setting the I-bit in the CPSR.
 138:/home/phong/Documents/thesis/stm32f4/stm-idf/components/cmsis/include/cmsis_gcc.h ****            Can only be executed in Privileged modes.
 139:/home/phong/Documents/thesis/stm32f4/stm-idf/components/cmsis/include/cmsis_gcc.h ****  */
 140:/home/phong/Documents/thesis/stm32f4/stm-idf/components/cmsis/include/cmsis_gcc.h **** __STATIC_FORCEINLINE void __disable_irq(void)
 141:/home/phong/Documents/thesis/stm32f4/stm-idf/components/cmsis/include/cmsis_gcc.h **** {
 142:/home/phong/Documents/thesis/stm32f4/stm-idf/components/cmsis/include/cmsis_gcc.h ****   __ASM volatile ("cpsid i" : : : "memory");
 143:/home/phong/Documents/thesis/stm32f4/stm-idf/components/cmsis/include/cmsis_gcc.h **** }
 144:/home/phong/Documents/thesis/stm32f4/stm-idf/components/cmsis/include/cmsis_gcc.h **** 
 145:/home/phong/Documents/thesis/stm32f4/stm-idf/components/cmsis/include/cmsis_gcc.h **** 
 146:/home/phong/Documents/thesis/stm32f4/stm-idf/components/cmsis/include/cmsis_gcc.h **** /**
 147:/home/phong/Documents/thesis/stm32f4/stm-idf/components/cmsis/include/cmsis_gcc.h ****   \brief   Get Control Register
 148:/home/phong/Documents/thesis/stm32f4/stm-idf/components/cmsis/include/cmsis_gcc.h ****   \details Returns the content of the Control Register.
 149:/home/phong/Documents/thesis/stm32f4/stm-idf/components/cmsis/include/cmsis_gcc.h ****   \return               Control Register value
 150:/home/phong/Documents/thesis/stm32f4/stm-idf/components/cmsis/include/cmsis_gcc.h ****  */
 151:/home/phong/Documents/thesis/stm32f4/stm-idf/components/cmsis/include/cmsis_gcc.h **** __STATIC_FORCEINLINE uint32_t __get_CONTROL(void)
 152:/home/phong/Documents/thesis/stm32f4/stm-idf/components/cmsis/include/cmsis_gcc.h **** {
 153:/home/phong/Documents/thesis/stm32f4/stm-idf/components/cmsis/include/cmsis_gcc.h ****   uint32_t result;
 154:/home/phong/Documents/thesis/stm32f4/stm-idf/components/cmsis/include/cmsis_gcc.h **** 
 155:/home/phong/Documents/thesis/stm32f4/stm-idf/components/cmsis/include/cmsis_gcc.h ****   __ASM volatile ("MRS %0, control" : "=r" (result) );
 156:/home/phong/Documents/thesis/stm32f4/stm-idf/components/cmsis/include/cmsis_gcc.h ****   return(result);
 157:/home/phong/Documents/thesis/stm32f4/stm-idf/components/cmsis/include/cmsis_gcc.h **** }
 158:/home/phong/Documents/thesis/stm32f4/stm-idf/components/cmsis/include/cmsis_gcc.h **** 
ARM GAS  /tmp/ccW24XdO.s 			page 56


 159:/home/phong/Documents/thesis/stm32f4/stm-idf/components/cmsis/include/cmsis_gcc.h **** 
 160:/home/phong/Documents/thesis/stm32f4/stm-idf/components/cmsis/include/cmsis_gcc.h **** #if (defined (__ARM_FEATURE_CMSE ) && (__ARM_FEATURE_CMSE == 3))
 161:/home/phong/Documents/thesis/stm32f4/stm-idf/components/cmsis/include/cmsis_gcc.h **** /**
 162:/home/phong/Documents/thesis/stm32f4/stm-idf/components/cmsis/include/cmsis_gcc.h ****   \brief   Get Control Register (non-secure)
 163:/home/phong/Documents/thesis/stm32f4/stm-idf/components/cmsis/include/cmsis_gcc.h ****   \details Returns the content of the non-secure Control Register when in secure mode.
 164:/home/phong/Documents/thesis/stm32f4/stm-idf/components/cmsis/include/cmsis_gcc.h ****   \return               non-secure Control Register value
 165:/home/phong/Documents/thesis/stm32f4/stm-idf/components/cmsis/include/cmsis_gcc.h ****  */
 166:/home/phong/Documents/thesis/stm32f4/stm-idf/components/cmsis/include/cmsis_gcc.h **** __STATIC_FORCEINLINE uint32_t __TZ_get_CONTROL_NS(void)
 167:/home/phong/Documents/thesis/stm32f4/stm-idf/components/cmsis/include/cmsis_gcc.h **** {
 168:/home/phong/Documents/thesis/stm32f4/stm-idf/components/cmsis/include/cmsis_gcc.h ****   uint32_t result;
 169:/home/phong/Documents/thesis/stm32f4/stm-idf/components/cmsis/include/cmsis_gcc.h **** 
 170:/home/phong/Documents/thesis/stm32f4/stm-idf/components/cmsis/include/cmsis_gcc.h ****   __ASM volatile ("MRS %0, control_ns" : "=r" (result) );
 171:/home/phong/Documents/thesis/stm32f4/stm-idf/components/cmsis/include/cmsis_gcc.h ****   return(result);
 172:/home/phong/Documents/thesis/stm32f4/stm-idf/components/cmsis/include/cmsis_gcc.h **** }
 173:/home/phong/Documents/thesis/stm32f4/stm-idf/components/cmsis/include/cmsis_gcc.h **** #endif
 174:/home/phong/Documents/thesis/stm32f4/stm-idf/components/cmsis/include/cmsis_gcc.h **** 
 175:/home/phong/Documents/thesis/stm32f4/stm-idf/components/cmsis/include/cmsis_gcc.h **** 
 176:/home/phong/Documents/thesis/stm32f4/stm-idf/components/cmsis/include/cmsis_gcc.h **** /**
 177:/home/phong/Documents/thesis/stm32f4/stm-idf/components/cmsis/include/cmsis_gcc.h ****   \brief   Set Control Register
 178:/home/phong/Documents/thesis/stm32f4/stm-idf/components/cmsis/include/cmsis_gcc.h ****   \details Writes the given value to the Control Register.
 179:/home/phong/Documents/thesis/stm32f4/stm-idf/components/cmsis/include/cmsis_gcc.h ****   \param [in]    control  Control Register value to set
 180:/home/phong/Documents/thesis/stm32f4/stm-idf/components/cmsis/include/cmsis_gcc.h ****  */
 181:/home/phong/Documents/thesis/stm32f4/stm-idf/components/cmsis/include/cmsis_gcc.h **** __STATIC_FORCEINLINE void __set_CONTROL(uint32_t control)
 182:/home/phong/Documents/thesis/stm32f4/stm-idf/components/cmsis/include/cmsis_gcc.h **** {
 183:/home/phong/Documents/thesis/stm32f4/stm-idf/components/cmsis/include/cmsis_gcc.h ****   __ASM volatile ("MSR control, %0" : : "r" (control) : "memory");
 184:/home/phong/Documents/thesis/stm32f4/stm-idf/components/cmsis/include/cmsis_gcc.h **** }
 185:/home/phong/Documents/thesis/stm32f4/stm-idf/components/cmsis/include/cmsis_gcc.h **** 
 186:/home/phong/Documents/thesis/stm32f4/stm-idf/components/cmsis/include/cmsis_gcc.h **** 
 187:/home/phong/Documents/thesis/stm32f4/stm-idf/components/cmsis/include/cmsis_gcc.h **** #if (defined (__ARM_FEATURE_CMSE ) && (__ARM_FEATURE_CMSE == 3))
 188:/home/phong/Documents/thesis/stm32f4/stm-idf/components/cmsis/include/cmsis_gcc.h **** /**
 189:/home/phong/Documents/thesis/stm32f4/stm-idf/components/cmsis/include/cmsis_gcc.h ****   \brief   Set Control Register (non-secure)
 190:/home/phong/Documents/thesis/stm32f4/stm-idf/components/cmsis/include/cmsis_gcc.h ****   \details Writes the given value to the non-secure Control Register when in secure state.
 191:/home/phong/Documents/thesis/stm32f4/stm-idf/components/cmsis/include/cmsis_gcc.h ****   \param [in]    control  Control Register value to set
 192:/home/phong/Documents/thesis/stm32f4/stm-idf/components/cmsis/include/cmsis_gcc.h ****  */
 193:/home/phong/Documents/thesis/stm32f4/stm-idf/components/cmsis/include/cmsis_gcc.h **** __STATIC_FORCEINLINE void __TZ_set_CONTROL_NS(uint32_t control)
 194:/home/phong/Documents/thesis/stm32f4/stm-idf/components/cmsis/include/cmsis_gcc.h **** {
 195:/home/phong/Documents/thesis/stm32f4/stm-idf/components/cmsis/include/cmsis_gcc.h ****   __ASM volatile ("MSR control_ns, %0" : : "r" (control) : "memory");
 196:/home/phong/Documents/thesis/stm32f4/stm-idf/components/cmsis/include/cmsis_gcc.h **** }
 197:/home/phong/Documents/thesis/stm32f4/stm-idf/components/cmsis/include/cmsis_gcc.h **** #endif
 198:/home/phong/Documents/thesis/stm32f4/stm-idf/components/cmsis/include/cmsis_gcc.h **** 
 199:/home/phong/Documents/thesis/stm32f4/stm-idf/components/cmsis/include/cmsis_gcc.h **** 
 200:/home/phong/Documents/thesis/stm32f4/stm-idf/components/cmsis/include/cmsis_gcc.h **** /**
 201:/home/phong/Documents/thesis/stm32f4/stm-idf/components/cmsis/include/cmsis_gcc.h ****   \brief   Get IPSR Register
 202:/home/phong/Documents/thesis/stm32f4/stm-idf/components/cmsis/include/cmsis_gcc.h ****   \details Returns the content of the IPSR Register.
 203:/home/phong/Documents/thesis/stm32f4/stm-idf/components/cmsis/include/cmsis_gcc.h ****   \return               IPSR Register value
 204:/home/phong/Documents/thesis/stm32f4/stm-idf/components/cmsis/include/cmsis_gcc.h ****  */
 205:/home/phong/Documents/thesis/stm32f4/stm-idf/components/cmsis/include/cmsis_gcc.h **** __STATIC_FORCEINLINE uint32_t __get_IPSR(void)
 206:/home/phong/Documents/thesis/stm32f4/stm-idf/components/cmsis/include/cmsis_gcc.h **** {
 207:/home/phong/Documents/thesis/stm32f4/stm-idf/components/cmsis/include/cmsis_gcc.h ****   uint32_t result;
 208:/home/phong/Documents/thesis/stm32f4/stm-idf/components/cmsis/include/cmsis_gcc.h **** 
 209:/home/phong/Documents/thesis/stm32f4/stm-idf/components/cmsis/include/cmsis_gcc.h ****   __ASM volatile ("MRS %0, ipsr" : "=r" (result) );
 210:/home/phong/Documents/thesis/stm32f4/stm-idf/components/cmsis/include/cmsis_gcc.h ****   return(result);
 211:/home/phong/Documents/thesis/stm32f4/stm-idf/components/cmsis/include/cmsis_gcc.h **** }
 212:/home/phong/Documents/thesis/stm32f4/stm-idf/components/cmsis/include/cmsis_gcc.h **** 
 213:/home/phong/Documents/thesis/stm32f4/stm-idf/components/cmsis/include/cmsis_gcc.h **** 
 214:/home/phong/Documents/thesis/stm32f4/stm-idf/components/cmsis/include/cmsis_gcc.h **** /**
 215:/home/phong/Documents/thesis/stm32f4/stm-idf/components/cmsis/include/cmsis_gcc.h ****   \brief   Get APSR Register
ARM GAS  /tmp/ccW24XdO.s 			page 57


 216:/home/phong/Documents/thesis/stm32f4/stm-idf/components/cmsis/include/cmsis_gcc.h ****   \details Returns the content of the APSR Register.
 217:/home/phong/Documents/thesis/stm32f4/stm-idf/components/cmsis/include/cmsis_gcc.h ****   \return               APSR Register value
 218:/home/phong/Documents/thesis/stm32f4/stm-idf/components/cmsis/include/cmsis_gcc.h ****  */
 219:/home/phong/Documents/thesis/stm32f4/stm-idf/components/cmsis/include/cmsis_gcc.h **** __STATIC_FORCEINLINE uint32_t __get_APSR(void)
 220:/home/phong/Documents/thesis/stm32f4/stm-idf/components/cmsis/include/cmsis_gcc.h **** {
 221:/home/phong/Documents/thesis/stm32f4/stm-idf/components/cmsis/include/cmsis_gcc.h ****   uint32_t result;
 222:/home/phong/Documents/thesis/stm32f4/stm-idf/components/cmsis/include/cmsis_gcc.h **** 
 223:/home/phong/Documents/thesis/stm32f4/stm-idf/components/cmsis/include/cmsis_gcc.h ****   __ASM volatile ("MRS %0, apsr" : "=r" (result) );
 224:/home/phong/Documents/thesis/stm32f4/stm-idf/components/cmsis/include/cmsis_gcc.h ****   return(result);
 225:/home/phong/Documents/thesis/stm32f4/stm-idf/components/cmsis/include/cmsis_gcc.h **** }
 226:/home/phong/Documents/thesis/stm32f4/stm-idf/components/cmsis/include/cmsis_gcc.h **** 
 227:/home/phong/Documents/thesis/stm32f4/stm-idf/components/cmsis/include/cmsis_gcc.h **** 
 228:/home/phong/Documents/thesis/stm32f4/stm-idf/components/cmsis/include/cmsis_gcc.h **** /**
 229:/home/phong/Documents/thesis/stm32f4/stm-idf/components/cmsis/include/cmsis_gcc.h ****   \brief   Get xPSR Register
 230:/home/phong/Documents/thesis/stm32f4/stm-idf/components/cmsis/include/cmsis_gcc.h ****   \details Returns the content of the xPSR Register.
 231:/home/phong/Documents/thesis/stm32f4/stm-idf/components/cmsis/include/cmsis_gcc.h ****   \return               xPSR Register value
 232:/home/phong/Documents/thesis/stm32f4/stm-idf/components/cmsis/include/cmsis_gcc.h ****  */
 233:/home/phong/Documents/thesis/stm32f4/stm-idf/components/cmsis/include/cmsis_gcc.h **** __STATIC_FORCEINLINE uint32_t __get_xPSR(void)
 234:/home/phong/Documents/thesis/stm32f4/stm-idf/components/cmsis/include/cmsis_gcc.h **** {
 235:/home/phong/Documents/thesis/stm32f4/stm-idf/components/cmsis/include/cmsis_gcc.h ****   uint32_t result;
 236:/home/phong/Documents/thesis/stm32f4/stm-idf/components/cmsis/include/cmsis_gcc.h **** 
 237:/home/phong/Documents/thesis/stm32f4/stm-idf/components/cmsis/include/cmsis_gcc.h ****   __ASM volatile ("MRS %0, xpsr" : "=r" (result) );
 238:/home/phong/Documents/thesis/stm32f4/stm-idf/components/cmsis/include/cmsis_gcc.h ****   return(result);
 239:/home/phong/Documents/thesis/stm32f4/stm-idf/components/cmsis/include/cmsis_gcc.h **** }
 240:/home/phong/Documents/thesis/stm32f4/stm-idf/components/cmsis/include/cmsis_gcc.h **** 
 241:/home/phong/Documents/thesis/stm32f4/stm-idf/components/cmsis/include/cmsis_gcc.h **** 
 242:/home/phong/Documents/thesis/stm32f4/stm-idf/components/cmsis/include/cmsis_gcc.h **** /**
 243:/home/phong/Documents/thesis/stm32f4/stm-idf/components/cmsis/include/cmsis_gcc.h ****   \brief   Get Process Stack Pointer
 244:/home/phong/Documents/thesis/stm32f4/stm-idf/components/cmsis/include/cmsis_gcc.h ****   \details Returns the current value of the Process Stack Pointer (PSP).
 245:/home/phong/Documents/thesis/stm32f4/stm-idf/components/cmsis/include/cmsis_gcc.h ****   \return               PSP Register value
 246:/home/phong/Documents/thesis/stm32f4/stm-idf/components/cmsis/include/cmsis_gcc.h ****  */
 247:/home/phong/Documents/thesis/stm32f4/stm-idf/components/cmsis/include/cmsis_gcc.h **** __STATIC_FORCEINLINE uint32_t __get_PSP(void)
 248:/home/phong/Documents/thesis/stm32f4/stm-idf/components/cmsis/include/cmsis_gcc.h **** {
 249:/home/phong/Documents/thesis/stm32f4/stm-idf/components/cmsis/include/cmsis_gcc.h ****   uint32_t result;
 250:/home/phong/Documents/thesis/stm32f4/stm-idf/components/cmsis/include/cmsis_gcc.h **** 
 251:/home/phong/Documents/thesis/stm32f4/stm-idf/components/cmsis/include/cmsis_gcc.h ****   __ASM volatile ("MRS %0, psp"  : "=r" (result) );
 252:/home/phong/Documents/thesis/stm32f4/stm-idf/components/cmsis/include/cmsis_gcc.h ****   return(result);
 253:/home/phong/Documents/thesis/stm32f4/stm-idf/components/cmsis/include/cmsis_gcc.h **** }
 254:/home/phong/Documents/thesis/stm32f4/stm-idf/components/cmsis/include/cmsis_gcc.h **** 
 255:/home/phong/Documents/thesis/stm32f4/stm-idf/components/cmsis/include/cmsis_gcc.h **** 
 256:/home/phong/Documents/thesis/stm32f4/stm-idf/components/cmsis/include/cmsis_gcc.h **** #if (defined (__ARM_FEATURE_CMSE ) && (__ARM_FEATURE_CMSE == 3))
 257:/home/phong/Documents/thesis/stm32f4/stm-idf/components/cmsis/include/cmsis_gcc.h **** /**
 258:/home/phong/Documents/thesis/stm32f4/stm-idf/components/cmsis/include/cmsis_gcc.h ****   \brief   Get Process Stack Pointer (non-secure)
 259:/home/phong/Documents/thesis/stm32f4/stm-idf/components/cmsis/include/cmsis_gcc.h ****   \details Returns the current value of the non-secure Process Stack Pointer (PSP) when in secure s
 260:/home/phong/Documents/thesis/stm32f4/stm-idf/components/cmsis/include/cmsis_gcc.h ****   \return               PSP Register value
 261:/home/phong/Documents/thesis/stm32f4/stm-idf/components/cmsis/include/cmsis_gcc.h ****  */
 262:/home/phong/Documents/thesis/stm32f4/stm-idf/components/cmsis/include/cmsis_gcc.h **** __STATIC_FORCEINLINE uint32_t __TZ_get_PSP_NS(void)
 263:/home/phong/Documents/thesis/stm32f4/stm-idf/components/cmsis/include/cmsis_gcc.h **** {
 264:/home/phong/Documents/thesis/stm32f4/stm-idf/components/cmsis/include/cmsis_gcc.h ****   uint32_t result;
 265:/home/phong/Documents/thesis/stm32f4/stm-idf/components/cmsis/include/cmsis_gcc.h **** 
 266:/home/phong/Documents/thesis/stm32f4/stm-idf/components/cmsis/include/cmsis_gcc.h ****   __ASM volatile ("MRS %0, psp_ns"  : "=r" (result) );
 267:/home/phong/Documents/thesis/stm32f4/stm-idf/components/cmsis/include/cmsis_gcc.h ****   return(result);
 268:/home/phong/Documents/thesis/stm32f4/stm-idf/components/cmsis/include/cmsis_gcc.h **** }
 269:/home/phong/Documents/thesis/stm32f4/stm-idf/components/cmsis/include/cmsis_gcc.h **** #endif
 270:/home/phong/Documents/thesis/stm32f4/stm-idf/components/cmsis/include/cmsis_gcc.h **** 
 271:/home/phong/Documents/thesis/stm32f4/stm-idf/components/cmsis/include/cmsis_gcc.h **** 
 272:/home/phong/Documents/thesis/stm32f4/stm-idf/components/cmsis/include/cmsis_gcc.h **** /**
ARM GAS  /tmp/ccW24XdO.s 			page 58


 273:/home/phong/Documents/thesis/stm32f4/stm-idf/components/cmsis/include/cmsis_gcc.h ****   \brief   Set Process Stack Pointer
 274:/home/phong/Documents/thesis/stm32f4/stm-idf/components/cmsis/include/cmsis_gcc.h ****   \details Assigns the given value to the Process Stack Pointer (PSP).
 275:/home/phong/Documents/thesis/stm32f4/stm-idf/components/cmsis/include/cmsis_gcc.h ****   \param [in]    topOfProcStack  Process Stack Pointer value to set
 276:/home/phong/Documents/thesis/stm32f4/stm-idf/components/cmsis/include/cmsis_gcc.h ****  */
 277:/home/phong/Documents/thesis/stm32f4/stm-idf/components/cmsis/include/cmsis_gcc.h **** __STATIC_FORCEINLINE void __set_PSP(uint32_t topOfProcStack)
 278:/home/phong/Documents/thesis/stm32f4/stm-idf/components/cmsis/include/cmsis_gcc.h **** {
 279:/home/phong/Documents/thesis/stm32f4/stm-idf/components/cmsis/include/cmsis_gcc.h ****   __ASM volatile ("MSR psp, %0" : : "r" (topOfProcStack) : );
 280:/home/phong/Documents/thesis/stm32f4/stm-idf/components/cmsis/include/cmsis_gcc.h **** }
 281:/home/phong/Documents/thesis/stm32f4/stm-idf/components/cmsis/include/cmsis_gcc.h **** 
 282:/home/phong/Documents/thesis/stm32f4/stm-idf/components/cmsis/include/cmsis_gcc.h **** 
 283:/home/phong/Documents/thesis/stm32f4/stm-idf/components/cmsis/include/cmsis_gcc.h **** #if (defined (__ARM_FEATURE_CMSE ) && (__ARM_FEATURE_CMSE == 3))
 284:/home/phong/Documents/thesis/stm32f4/stm-idf/components/cmsis/include/cmsis_gcc.h **** /**
 285:/home/phong/Documents/thesis/stm32f4/stm-idf/components/cmsis/include/cmsis_gcc.h ****   \brief   Set Process Stack Pointer (non-secure)
 286:/home/phong/Documents/thesis/stm32f4/stm-idf/components/cmsis/include/cmsis_gcc.h ****   \details Assigns the given value to the non-secure Process Stack Pointer (PSP) when in secure sta
 287:/home/phong/Documents/thesis/stm32f4/stm-idf/components/cmsis/include/cmsis_gcc.h ****   \param [in]    topOfProcStack  Process Stack Pointer value to set
 288:/home/phong/Documents/thesis/stm32f4/stm-idf/components/cmsis/include/cmsis_gcc.h ****  */
 289:/home/phong/Documents/thesis/stm32f4/stm-idf/components/cmsis/include/cmsis_gcc.h **** __STATIC_FORCEINLINE void __TZ_set_PSP_NS(uint32_t topOfProcStack)
 290:/home/phong/Documents/thesis/stm32f4/stm-idf/components/cmsis/include/cmsis_gcc.h **** {
 291:/home/phong/Documents/thesis/stm32f4/stm-idf/components/cmsis/include/cmsis_gcc.h ****   __ASM volatile ("MSR psp_ns, %0" : : "r" (topOfProcStack) : );
 292:/home/phong/Documents/thesis/stm32f4/stm-idf/components/cmsis/include/cmsis_gcc.h **** }
 293:/home/phong/Documents/thesis/stm32f4/stm-idf/components/cmsis/include/cmsis_gcc.h **** #endif
 294:/home/phong/Documents/thesis/stm32f4/stm-idf/components/cmsis/include/cmsis_gcc.h **** 
 295:/home/phong/Documents/thesis/stm32f4/stm-idf/components/cmsis/include/cmsis_gcc.h **** 
 296:/home/phong/Documents/thesis/stm32f4/stm-idf/components/cmsis/include/cmsis_gcc.h **** /**
 297:/home/phong/Documents/thesis/stm32f4/stm-idf/components/cmsis/include/cmsis_gcc.h ****   \brief   Get Main Stack Pointer
 298:/home/phong/Documents/thesis/stm32f4/stm-idf/components/cmsis/include/cmsis_gcc.h ****   \details Returns the current value of the Main Stack Pointer (MSP).
 299:/home/phong/Documents/thesis/stm32f4/stm-idf/components/cmsis/include/cmsis_gcc.h ****   \return               MSP Register value
 300:/home/phong/Documents/thesis/stm32f4/stm-idf/components/cmsis/include/cmsis_gcc.h ****  */
 301:/home/phong/Documents/thesis/stm32f4/stm-idf/components/cmsis/include/cmsis_gcc.h **** __STATIC_FORCEINLINE uint32_t __get_MSP(void)
 302:/home/phong/Documents/thesis/stm32f4/stm-idf/components/cmsis/include/cmsis_gcc.h **** {
 303:/home/phong/Documents/thesis/stm32f4/stm-idf/components/cmsis/include/cmsis_gcc.h ****   uint32_t result;
 304:/home/phong/Documents/thesis/stm32f4/stm-idf/components/cmsis/include/cmsis_gcc.h **** 
 305:/home/phong/Documents/thesis/stm32f4/stm-idf/components/cmsis/include/cmsis_gcc.h ****   __ASM volatile ("MRS %0, msp" : "=r" (result) );
 306:/home/phong/Documents/thesis/stm32f4/stm-idf/components/cmsis/include/cmsis_gcc.h ****   return(result);
 307:/home/phong/Documents/thesis/stm32f4/stm-idf/components/cmsis/include/cmsis_gcc.h **** }
 308:/home/phong/Documents/thesis/stm32f4/stm-idf/components/cmsis/include/cmsis_gcc.h **** 
 309:/home/phong/Documents/thesis/stm32f4/stm-idf/components/cmsis/include/cmsis_gcc.h **** 
 310:/home/phong/Documents/thesis/stm32f4/stm-idf/components/cmsis/include/cmsis_gcc.h **** #if (defined (__ARM_FEATURE_CMSE ) && (__ARM_FEATURE_CMSE == 3))
 311:/home/phong/Documents/thesis/stm32f4/stm-idf/components/cmsis/include/cmsis_gcc.h **** /**
 312:/home/phong/Documents/thesis/stm32f4/stm-idf/components/cmsis/include/cmsis_gcc.h ****   \brief   Get Main Stack Pointer (non-secure)
 313:/home/phong/Documents/thesis/stm32f4/stm-idf/components/cmsis/include/cmsis_gcc.h ****   \details Returns the current value of the non-secure Main Stack Pointer (MSP) when in secure stat
 314:/home/phong/Documents/thesis/stm32f4/stm-idf/components/cmsis/include/cmsis_gcc.h ****   \return               MSP Register value
 315:/home/phong/Documents/thesis/stm32f4/stm-idf/components/cmsis/include/cmsis_gcc.h ****  */
 316:/home/phong/Documents/thesis/stm32f4/stm-idf/components/cmsis/include/cmsis_gcc.h **** __STATIC_FORCEINLINE uint32_t __TZ_get_MSP_NS(void)
 317:/home/phong/Documents/thesis/stm32f4/stm-idf/components/cmsis/include/cmsis_gcc.h **** {
 318:/home/phong/Documents/thesis/stm32f4/stm-idf/components/cmsis/include/cmsis_gcc.h ****   uint32_t result;
 319:/home/phong/Documents/thesis/stm32f4/stm-idf/components/cmsis/include/cmsis_gcc.h **** 
 320:/home/phong/Documents/thesis/stm32f4/stm-idf/components/cmsis/include/cmsis_gcc.h ****   __ASM volatile ("MRS %0, msp_ns" : "=r" (result) );
 321:/home/phong/Documents/thesis/stm32f4/stm-idf/components/cmsis/include/cmsis_gcc.h ****   return(result);
 322:/home/phong/Documents/thesis/stm32f4/stm-idf/components/cmsis/include/cmsis_gcc.h **** }
 323:/home/phong/Documents/thesis/stm32f4/stm-idf/components/cmsis/include/cmsis_gcc.h **** #endif
 324:/home/phong/Documents/thesis/stm32f4/stm-idf/components/cmsis/include/cmsis_gcc.h **** 
 325:/home/phong/Documents/thesis/stm32f4/stm-idf/components/cmsis/include/cmsis_gcc.h **** 
 326:/home/phong/Documents/thesis/stm32f4/stm-idf/components/cmsis/include/cmsis_gcc.h **** /**
 327:/home/phong/Documents/thesis/stm32f4/stm-idf/components/cmsis/include/cmsis_gcc.h ****   \brief   Set Main Stack Pointer
 328:/home/phong/Documents/thesis/stm32f4/stm-idf/components/cmsis/include/cmsis_gcc.h ****   \details Assigns the given value to the Main Stack Pointer (MSP).
 329:/home/phong/Documents/thesis/stm32f4/stm-idf/components/cmsis/include/cmsis_gcc.h ****   \param [in]    topOfMainStack  Main Stack Pointer value to set
ARM GAS  /tmp/ccW24XdO.s 			page 59


 330:/home/phong/Documents/thesis/stm32f4/stm-idf/components/cmsis/include/cmsis_gcc.h ****  */
 331:/home/phong/Documents/thesis/stm32f4/stm-idf/components/cmsis/include/cmsis_gcc.h **** __STATIC_FORCEINLINE void __set_MSP(uint32_t topOfMainStack)
 332:/home/phong/Documents/thesis/stm32f4/stm-idf/components/cmsis/include/cmsis_gcc.h **** {
 333:/home/phong/Documents/thesis/stm32f4/stm-idf/components/cmsis/include/cmsis_gcc.h ****   __ASM volatile ("MSR msp, %0" : : "r" (topOfMainStack) : );
 334:/home/phong/Documents/thesis/stm32f4/stm-idf/components/cmsis/include/cmsis_gcc.h **** }
 335:/home/phong/Documents/thesis/stm32f4/stm-idf/components/cmsis/include/cmsis_gcc.h **** 
 336:/home/phong/Documents/thesis/stm32f4/stm-idf/components/cmsis/include/cmsis_gcc.h **** 
 337:/home/phong/Documents/thesis/stm32f4/stm-idf/components/cmsis/include/cmsis_gcc.h **** #if (defined (__ARM_FEATURE_CMSE ) && (__ARM_FEATURE_CMSE == 3))
 338:/home/phong/Documents/thesis/stm32f4/stm-idf/components/cmsis/include/cmsis_gcc.h **** /**
 339:/home/phong/Documents/thesis/stm32f4/stm-idf/components/cmsis/include/cmsis_gcc.h ****   \brief   Set Main Stack Pointer (non-secure)
 340:/home/phong/Documents/thesis/stm32f4/stm-idf/components/cmsis/include/cmsis_gcc.h ****   \details Assigns the given value to the non-secure Main Stack Pointer (MSP) when in secure state.
 341:/home/phong/Documents/thesis/stm32f4/stm-idf/components/cmsis/include/cmsis_gcc.h ****   \param [in]    topOfMainStack  Main Stack Pointer value to set
 342:/home/phong/Documents/thesis/stm32f4/stm-idf/components/cmsis/include/cmsis_gcc.h ****  */
 343:/home/phong/Documents/thesis/stm32f4/stm-idf/components/cmsis/include/cmsis_gcc.h **** __STATIC_FORCEINLINE void __TZ_set_MSP_NS(uint32_t topOfMainStack)
 344:/home/phong/Documents/thesis/stm32f4/stm-idf/components/cmsis/include/cmsis_gcc.h **** {
 345:/home/phong/Documents/thesis/stm32f4/stm-idf/components/cmsis/include/cmsis_gcc.h ****   __ASM volatile ("MSR msp_ns, %0" : : "r" (topOfMainStack) : );
 346:/home/phong/Documents/thesis/stm32f4/stm-idf/components/cmsis/include/cmsis_gcc.h **** }
 347:/home/phong/Documents/thesis/stm32f4/stm-idf/components/cmsis/include/cmsis_gcc.h **** #endif
 348:/home/phong/Documents/thesis/stm32f4/stm-idf/components/cmsis/include/cmsis_gcc.h **** 
 349:/home/phong/Documents/thesis/stm32f4/stm-idf/components/cmsis/include/cmsis_gcc.h **** 
 350:/home/phong/Documents/thesis/stm32f4/stm-idf/components/cmsis/include/cmsis_gcc.h **** #if (defined (__ARM_FEATURE_CMSE ) && (__ARM_FEATURE_CMSE == 3))
 351:/home/phong/Documents/thesis/stm32f4/stm-idf/components/cmsis/include/cmsis_gcc.h **** /**
 352:/home/phong/Documents/thesis/stm32f4/stm-idf/components/cmsis/include/cmsis_gcc.h ****   \brief   Get Stack Pointer (non-secure)
 353:/home/phong/Documents/thesis/stm32f4/stm-idf/components/cmsis/include/cmsis_gcc.h ****   \details Returns the current value of the non-secure Stack Pointer (SP) when in secure state.
 354:/home/phong/Documents/thesis/stm32f4/stm-idf/components/cmsis/include/cmsis_gcc.h ****   \return               SP Register value
 355:/home/phong/Documents/thesis/stm32f4/stm-idf/components/cmsis/include/cmsis_gcc.h ****  */
 356:/home/phong/Documents/thesis/stm32f4/stm-idf/components/cmsis/include/cmsis_gcc.h **** __STATIC_FORCEINLINE uint32_t __TZ_get_SP_NS(void)
 357:/home/phong/Documents/thesis/stm32f4/stm-idf/components/cmsis/include/cmsis_gcc.h **** {
 358:/home/phong/Documents/thesis/stm32f4/stm-idf/components/cmsis/include/cmsis_gcc.h ****   uint32_t result;
 359:/home/phong/Documents/thesis/stm32f4/stm-idf/components/cmsis/include/cmsis_gcc.h **** 
 360:/home/phong/Documents/thesis/stm32f4/stm-idf/components/cmsis/include/cmsis_gcc.h ****   __ASM volatile ("MRS %0, sp_ns" : "=r" (result) );
 361:/home/phong/Documents/thesis/stm32f4/stm-idf/components/cmsis/include/cmsis_gcc.h ****   return(result);
 362:/home/phong/Documents/thesis/stm32f4/stm-idf/components/cmsis/include/cmsis_gcc.h **** }
 363:/home/phong/Documents/thesis/stm32f4/stm-idf/components/cmsis/include/cmsis_gcc.h **** 
 364:/home/phong/Documents/thesis/stm32f4/stm-idf/components/cmsis/include/cmsis_gcc.h **** 
 365:/home/phong/Documents/thesis/stm32f4/stm-idf/components/cmsis/include/cmsis_gcc.h **** /**
 366:/home/phong/Documents/thesis/stm32f4/stm-idf/components/cmsis/include/cmsis_gcc.h ****   \brief   Set Stack Pointer (non-secure)
 367:/home/phong/Documents/thesis/stm32f4/stm-idf/components/cmsis/include/cmsis_gcc.h ****   \details Assigns the given value to the non-secure Stack Pointer (SP) when in secure state.
 368:/home/phong/Documents/thesis/stm32f4/stm-idf/components/cmsis/include/cmsis_gcc.h ****   \param [in]    topOfStack  Stack Pointer value to set
 369:/home/phong/Documents/thesis/stm32f4/stm-idf/components/cmsis/include/cmsis_gcc.h ****  */
 370:/home/phong/Documents/thesis/stm32f4/stm-idf/components/cmsis/include/cmsis_gcc.h **** __STATIC_FORCEINLINE void __TZ_set_SP_NS(uint32_t topOfStack)
 371:/home/phong/Documents/thesis/stm32f4/stm-idf/components/cmsis/include/cmsis_gcc.h **** {
 372:/home/phong/Documents/thesis/stm32f4/stm-idf/components/cmsis/include/cmsis_gcc.h ****   __ASM volatile ("MSR sp_ns, %0" : : "r" (topOfStack) : );
 373:/home/phong/Documents/thesis/stm32f4/stm-idf/components/cmsis/include/cmsis_gcc.h **** }
 374:/home/phong/Documents/thesis/stm32f4/stm-idf/components/cmsis/include/cmsis_gcc.h **** #endif
 375:/home/phong/Documents/thesis/stm32f4/stm-idf/components/cmsis/include/cmsis_gcc.h **** 
 376:/home/phong/Documents/thesis/stm32f4/stm-idf/components/cmsis/include/cmsis_gcc.h **** 
 377:/home/phong/Documents/thesis/stm32f4/stm-idf/components/cmsis/include/cmsis_gcc.h **** /**
 378:/home/phong/Documents/thesis/stm32f4/stm-idf/components/cmsis/include/cmsis_gcc.h ****   \brief   Get Priority Mask
 379:/home/phong/Documents/thesis/stm32f4/stm-idf/components/cmsis/include/cmsis_gcc.h ****   \details Returns the current state of the priority mask bit from the Priority Mask Register.
 380:/home/phong/Documents/thesis/stm32f4/stm-idf/components/cmsis/include/cmsis_gcc.h ****   \return               Priority Mask value
 381:/home/phong/Documents/thesis/stm32f4/stm-idf/components/cmsis/include/cmsis_gcc.h ****  */
 382:/home/phong/Documents/thesis/stm32f4/stm-idf/components/cmsis/include/cmsis_gcc.h **** __STATIC_FORCEINLINE uint32_t __get_PRIMASK(void)
 383:/home/phong/Documents/thesis/stm32f4/stm-idf/components/cmsis/include/cmsis_gcc.h **** {
 384:/home/phong/Documents/thesis/stm32f4/stm-idf/components/cmsis/include/cmsis_gcc.h ****   uint32_t result;
 385:/home/phong/Documents/thesis/stm32f4/stm-idf/components/cmsis/include/cmsis_gcc.h **** 
 386:/home/phong/Documents/thesis/stm32f4/stm-idf/components/cmsis/include/cmsis_gcc.h ****   __ASM volatile ("MRS %0, primask" : "=r" (result) :: "memory");
ARM GAS  /tmp/ccW24XdO.s 			page 60


 387:/home/phong/Documents/thesis/stm32f4/stm-idf/components/cmsis/include/cmsis_gcc.h ****   return(result);
 388:/home/phong/Documents/thesis/stm32f4/stm-idf/components/cmsis/include/cmsis_gcc.h **** }
 389:/home/phong/Documents/thesis/stm32f4/stm-idf/components/cmsis/include/cmsis_gcc.h **** 
 390:/home/phong/Documents/thesis/stm32f4/stm-idf/components/cmsis/include/cmsis_gcc.h **** 
 391:/home/phong/Documents/thesis/stm32f4/stm-idf/components/cmsis/include/cmsis_gcc.h **** #if (defined (__ARM_FEATURE_CMSE ) && (__ARM_FEATURE_CMSE == 3))
 392:/home/phong/Documents/thesis/stm32f4/stm-idf/components/cmsis/include/cmsis_gcc.h **** /**
 393:/home/phong/Documents/thesis/stm32f4/stm-idf/components/cmsis/include/cmsis_gcc.h ****   \brief   Get Priority Mask (non-secure)
 394:/home/phong/Documents/thesis/stm32f4/stm-idf/components/cmsis/include/cmsis_gcc.h ****   \details Returns the current state of the non-secure priority mask bit from the Priority Mask Reg
 395:/home/phong/Documents/thesis/stm32f4/stm-idf/components/cmsis/include/cmsis_gcc.h ****   \return               Priority Mask value
 396:/home/phong/Documents/thesis/stm32f4/stm-idf/components/cmsis/include/cmsis_gcc.h ****  */
 397:/home/phong/Documents/thesis/stm32f4/stm-idf/components/cmsis/include/cmsis_gcc.h **** __STATIC_FORCEINLINE uint32_t __TZ_get_PRIMASK_NS(void)
 398:/home/phong/Documents/thesis/stm32f4/stm-idf/components/cmsis/include/cmsis_gcc.h **** {
 399:/home/phong/Documents/thesis/stm32f4/stm-idf/components/cmsis/include/cmsis_gcc.h ****   uint32_t result;
 400:/home/phong/Documents/thesis/stm32f4/stm-idf/components/cmsis/include/cmsis_gcc.h **** 
 401:/home/phong/Documents/thesis/stm32f4/stm-idf/components/cmsis/include/cmsis_gcc.h ****   __ASM volatile ("MRS %0, primask_ns" : "=r" (result) :: "memory");
 402:/home/phong/Documents/thesis/stm32f4/stm-idf/components/cmsis/include/cmsis_gcc.h ****   return(result);
 403:/home/phong/Documents/thesis/stm32f4/stm-idf/components/cmsis/include/cmsis_gcc.h **** }
 404:/home/phong/Documents/thesis/stm32f4/stm-idf/components/cmsis/include/cmsis_gcc.h **** #endif
 405:/home/phong/Documents/thesis/stm32f4/stm-idf/components/cmsis/include/cmsis_gcc.h **** 
 406:/home/phong/Documents/thesis/stm32f4/stm-idf/components/cmsis/include/cmsis_gcc.h **** 
 407:/home/phong/Documents/thesis/stm32f4/stm-idf/components/cmsis/include/cmsis_gcc.h **** /**
 408:/home/phong/Documents/thesis/stm32f4/stm-idf/components/cmsis/include/cmsis_gcc.h ****   \brief   Set Priority Mask
 409:/home/phong/Documents/thesis/stm32f4/stm-idf/components/cmsis/include/cmsis_gcc.h ****   \details Assigns the given value to the Priority Mask Register.
 410:/home/phong/Documents/thesis/stm32f4/stm-idf/components/cmsis/include/cmsis_gcc.h ****   \param [in]    priMask  Priority Mask
 411:/home/phong/Documents/thesis/stm32f4/stm-idf/components/cmsis/include/cmsis_gcc.h ****  */
 412:/home/phong/Documents/thesis/stm32f4/stm-idf/components/cmsis/include/cmsis_gcc.h **** __STATIC_FORCEINLINE void __set_PRIMASK(uint32_t priMask)
 413:/home/phong/Documents/thesis/stm32f4/stm-idf/components/cmsis/include/cmsis_gcc.h **** {
 414:/home/phong/Documents/thesis/stm32f4/stm-idf/components/cmsis/include/cmsis_gcc.h ****   __ASM volatile ("MSR primask, %0" : : "r" (priMask) : "memory");
 415:/home/phong/Documents/thesis/stm32f4/stm-idf/components/cmsis/include/cmsis_gcc.h **** }
 416:/home/phong/Documents/thesis/stm32f4/stm-idf/components/cmsis/include/cmsis_gcc.h **** 
 417:/home/phong/Documents/thesis/stm32f4/stm-idf/components/cmsis/include/cmsis_gcc.h **** 
 418:/home/phong/Documents/thesis/stm32f4/stm-idf/components/cmsis/include/cmsis_gcc.h **** #if (defined (__ARM_FEATURE_CMSE ) && (__ARM_FEATURE_CMSE == 3))
 419:/home/phong/Documents/thesis/stm32f4/stm-idf/components/cmsis/include/cmsis_gcc.h **** /**
 420:/home/phong/Documents/thesis/stm32f4/stm-idf/components/cmsis/include/cmsis_gcc.h ****   \brief   Set Priority Mask (non-secure)
 421:/home/phong/Documents/thesis/stm32f4/stm-idf/components/cmsis/include/cmsis_gcc.h ****   \details Assigns the given value to the non-secure Priority Mask Register when in secure state.
 422:/home/phong/Documents/thesis/stm32f4/stm-idf/components/cmsis/include/cmsis_gcc.h ****   \param [in]    priMask  Priority Mask
 423:/home/phong/Documents/thesis/stm32f4/stm-idf/components/cmsis/include/cmsis_gcc.h ****  */
 424:/home/phong/Documents/thesis/stm32f4/stm-idf/components/cmsis/include/cmsis_gcc.h **** __STATIC_FORCEINLINE void __TZ_set_PRIMASK_NS(uint32_t priMask)
 425:/home/phong/Documents/thesis/stm32f4/stm-idf/components/cmsis/include/cmsis_gcc.h **** {
 426:/home/phong/Documents/thesis/stm32f4/stm-idf/components/cmsis/include/cmsis_gcc.h ****   __ASM volatile ("MSR primask_ns, %0" : : "r" (priMask) : "memory");
 427:/home/phong/Documents/thesis/stm32f4/stm-idf/components/cmsis/include/cmsis_gcc.h **** }
 428:/home/phong/Documents/thesis/stm32f4/stm-idf/components/cmsis/include/cmsis_gcc.h **** #endif
 429:/home/phong/Documents/thesis/stm32f4/stm-idf/components/cmsis/include/cmsis_gcc.h **** 
 430:/home/phong/Documents/thesis/stm32f4/stm-idf/components/cmsis/include/cmsis_gcc.h **** 
 431:/home/phong/Documents/thesis/stm32f4/stm-idf/components/cmsis/include/cmsis_gcc.h **** #if ((defined (__ARM_ARCH_7M__      ) && (__ARM_ARCH_7M__      == 1)) || \
 432:/home/phong/Documents/thesis/stm32f4/stm-idf/components/cmsis/include/cmsis_gcc.h ****      (defined (__ARM_ARCH_7EM__     ) && (__ARM_ARCH_7EM__     == 1)) || \
 433:/home/phong/Documents/thesis/stm32f4/stm-idf/components/cmsis/include/cmsis_gcc.h ****      (defined (__ARM_ARCH_8M_MAIN__ ) && (__ARM_ARCH_8M_MAIN__ == 1))    )
 434:/home/phong/Documents/thesis/stm32f4/stm-idf/components/cmsis/include/cmsis_gcc.h **** /**
 435:/home/phong/Documents/thesis/stm32f4/stm-idf/components/cmsis/include/cmsis_gcc.h ****   \brief   Enable FIQ
 436:/home/phong/Documents/thesis/stm32f4/stm-idf/components/cmsis/include/cmsis_gcc.h ****   \details Enables FIQ interrupts by clearing the F-bit in the CPSR.
 437:/home/phong/Documents/thesis/stm32f4/stm-idf/components/cmsis/include/cmsis_gcc.h ****            Can only be executed in Privileged modes.
 438:/home/phong/Documents/thesis/stm32f4/stm-idf/components/cmsis/include/cmsis_gcc.h ****  */
 439:/home/phong/Documents/thesis/stm32f4/stm-idf/components/cmsis/include/cmsis_gcc.h **** __STATIC_FORCEINLINE void __enable_fault_irq(void)
 440:/home/phong/Documents/thesis/stm32f4/stm-idf/components/cmsis/include/cmsis_gcc.h **** {
 441:/home/phong/Documents/thesis/stm32f4/stm-idf/components/cmsis/include/cmsis_gcc.h ****   __ASM volatile ("cpsie f" : : : "memory");
 442:/home/phong/Documents/thesis/stm32f4/stm-idf/components/cmsis/include/cmsis_gcc.h **** }
 443:/home/phong/Documents/thesis/stm32f4/stm-idf/components/cmsis/include/cmsis_gcc.h **** 
ARM GAS  /tmp/ccW24XdO.s 			page 61


 444:/home/phong/Documents/thesis/stm32f4/stm-idf/components/cmsis/include/cmsis_gcc.h **** 
 445:/home/phong/Documents/thesis/stm32f4/stm-idf/components/cmsis/include/cmsis_gcc.h **** /**
 446:/home/phong/Documents/thesis/stm32f4/stm-idf/components/cmsis/include/cmsis_gcc.h ****   \brief   Disable FIQ
 447:/home/phong/Documents/thesis/stm32f4/stm-idf/components/cmsis/include/cmsis_gcc.h ****   \details Disables FIQ interrupts by setting the F-bit in the CPSR.
 448:/home/phong/Documents/thesis/stm32f4/stm-idf/components/cmsis/include/cmsis_gcc.h ****            Can only be executed in Privileged modes.
 449:/home/phong/Documents/thesis/stm32f4/stm-idf/components/cmsis/include/cmsis_gcc.h ****  */
 450:/home/phong/Documents/thesis/stm32f4/stm-idf/components/cmsis/include/cmsis_gcc.h **** __STATIC_FORCEINLINE void __disable_fault_irq(void)
 451:/home/phong/Documents/thesis/stm32f4/stm-idf/components/cmsis/include/cmsis_gcc.h **** {
 452:/home/phong/Documents/thesis/stm32f4/stm-idf/components/cmsis/include/cmsis_gcc.h ****   __ASM volatile ("cpsid f" : : : "memory");
 453:/home/phong/Documents/thesis/stm32f4/stm-idf/components/cmsis/include/cmsis_gcc.h **** }
 454:/home/phong/Documents/thesis/stm32f4/stm-idf/components/cmsis/include/cmsis_gcc.h **** 
 455:/home/phong/Documents/thesis/stm32f4/stm-idf/components/cmsis/include/cmsis_gcc.h **** 
 456:/home/phong/Documents/thesis/stm32f4/stm-idf/components/cmsis/include/cmsis_gcc.h **** /**
 457:/home/phong/Documents/thesis/stm32f4/stm-idf/components/cmsis/include/cmsis_gcc.h ****   \brief   Get Base Priority
 458:/home/phong/Documents/thesis/stm32f4/stm-idf/components/cmsis/include/cmsis_gcc.h ****   \details Returns the current value of the Base Priority register.
 459:/home/phong/Documents/thesis/stm32f4/stm-idf/components/cmsis/include/cmsis_gcc.h ****   \return               Base Priority register value
 460:/home/phong/Documents/thesis/stm32f4/stm-idf/components/cmsis/include/cmsis_gcc.h ****  */
 461:/home/phong/Documents/thesis/stm32f4/stm-idf/components/cmsis/include/cmsis_gcc.h **** __STATIC_FORCEINLINE uint32_t __get_BASEPRI(void)
 462:/home/phong/Documents/thesis/stm32f4/stm-idf/components/cmsis/include/cmsis_gcc.h **** {
 463:/home/phong/Documents/thesis/stm32f4/stm-idf/components/cmsis/include/cmsis_gcc.h ****   uint32_t result;
 464:/home/phong/Documents/thesis/stm32f4/stm-idf/components/cmsis/include/cmsis_gcc.h **** 
 465:/home/phong/Documents/thesis/stm32f4/stm-idf/components/cmsis/include/cmsis_gcc.h ****   __ASM volatile ("MRS %0, basepri" : "=r" (result) );
 466:/home/phong/Documents/thesis/stm32f4/stm-idf/components/cmsis/include/cmsis_gcc.h ****   return(result);
 467:/home/phong/Documents/thesis/stm32f4/stm-idf/components/cmsis/include/cmsis_gcc.h **** }
 468:/home/phong/Documents/thesis/stm32f4/stm-idf/components/cmsis/include/cmsis_gcc.h **** 
 469:/home/phong/Documents/thesis/stm32f4/stm-idf/components/cmsis/include/cmsis_gcc.h **** 
 470:/home/phong/Documents/thesis/stm32f4/stm-idf/components/cmsis/include/cmsis_gcc.h **** #if (defined (__ARM_FEATURE_CMSE ) && (__ARM_FEATURE_CMSE == 3))
 471:/home/phong/Documents/thesis/stm32f4/stm-idf/components/cmsis/include/cmsis_gcc.h **** /**
 472:/home/phong/Documents/thesis/stm32f4/stm-idf/components/cmsis/include/cmsis_gcc.h ****   \brief   Get Base Priority (non-secure)
 473:/home/phong/Documents/thesis/stm32f4/stm-idf/components/cmsis/include/cmsis_gcc.h ****   \details Returns the current value of the non-secure Base Priority register when in secure state.
 474:/home/phong/Documents/thesis/stm32f4/stm-idf/components/cmsis/include/cmsis_gcc.h ****   \return               Base Priority register value
 475:/home/phong/Documents/thesis/stm32f4/stm-idf/components/cmsis/include/cmsis_gcc.h ****  */
 476:/home/phong/Documents/thesis/stm32f4/stm-idf/components/cmsis/include/cmsis_gcc.h **** __STATIC_FORCEINLINE uint32_t __TZ_get_BASEPRI_NS(void)
 477:/home/phong/Documents/thesis/stm32f4/stm-idf/components/cmsis/include/cmsis_gcc.h **** {
 478:/home/phong/Documents/thesis/stm32f4/stm-idf/components/cmsis/include/cmsis_gcc.h ****   uint32_t result;
 479:/home/phong/Documents/thesis/stm32f4/stm-idf/components/cmsis/include/cmsis_gcc.h **** 
 480:/home/phong/Documents/thesis/stm32f4/stm-idf/components/cmsis/include/cmsis_gcc.h ****   __ASM volatile ("MRS %0, basepri_ns" : "=r" (result) );
 481:/home/phong/Documents/thesis/stm32f4/stm-idf/components/cmsis/include/cmsis_gcc.h ****   return(result);
 482:/home/phong/Documents/thesis/stm32f4/stm-idf/components/cmsis/include/cmsis_gcc.h **** }
 483:/home/phong/Documents/thesis/stm32f4/stm-idf/components/cmsis/include/cmsis_gcc.h **** #endif
 484:/home/phong/Documents/thesis/stm32f4/stm-idf/components/cmsis/include/cmsis_gcc.h **** 
 485:/home/phong/Documents/thesis/stm32f4/stm-idf/components/cmsis/include/cmsis_gcc.h **** 
 486:/home/phong/Documents/thesis/stm32f4/stm-idf/components/cmsis/include/cmsis_gcc.h **** /**
 487:/home/phong/Documents/thesis/stm32f4/stm-idf/components/cmsis/include/cmsis_gcc.h ****   \brief   Set Base Priority
 488:/home/phong/Documents/thesis/stm32f4/stm-idf/components/cmsis/include/cmsis_gcc.h ****   \details Assigns the given value to the Base Priority register.
 489:/home/phong/Documents/thesis/stm32f4/stm-idf/components/cmsis/include/cmsis_gcc.h ****   \param [in]    basePri  Base Priority value to set
 490:/home/phong/Documents/thesis/stm32f4/stm-idf/components/cmsis/include/cmsis_gcc.h ****  */
 491:/home/phong/Documents/thesis/stm32f4/stm-idf/components/cmsis/include/cmsis_gcc.h **** __STATIC_FORCEINLINE void __set_BASEPRI(uint32_t basePri)
 492:/home/phong/Documents/thesis/stm32f4/stm-idf/components/cmsis/include/cmsis_gcc.h **** {
 493:/home/phong/Documents/thesis/stm32f4/stm-idf/components/cmsis/include/cmsis_gcc.h ****   __ASM volatile ("MSR basepri, %0" : : "r" (basePri) : "memory");
 494:/home/phong/Documents/thesis/stm32f4/stm-idf/components/cmsis/include/cmsis_gcc.h **** }
 495:/home/phong/Documents/thesis/stm32f4/stm-idf/components/cmsis/include/cmsis_gcc.h **** 
 496:/home/phong/Documents/thesis/stm32f4/stm-idf/components/cmsis/include/cmsis_gcc.h **** 
 497:/home/phong/Documents/thesis/stm32f4/stm-idf/components/cmsis/include/cmsis_gcc.h **** #if (defined (__ARM_FEATURE_CMSE ) && (__ARM_FEATURE_CMSE == 3))
 498:/home/phong/Documents/thesis/stm32f4/stm-idf/components/cmsis/include/cmsis_gcc.h **** /**
 499:/home/phong/Documents/thesis/stm32f4/stm-idf/components/cmsis/include/cmsis_gcc.h ****   \brief   Set Base Priority (non-secure)
 500:/home/phong/Documents/thesis/stm32f4/stm-idf/components/cmsis/include/cmsis_gcc.h ****   \details Assigns the given value to the non-secure Base Priority register when in secure state.
ARM GAS  /tmp/ccW24XdO.s 			page 62


 501:/home/phong/Documents/thesis/stm32f4/stm-idf/components/cmsis/include/cmsis_gcc.h ****   \param [in]    basePri  Base Priority value to set
 502:/home/phong/Documents/thesis/stm32f4/stm-idf/components/cmsis/include/cmsis_gcc.h ****  */
 503:/home/phong/Documents/thesis/stm32f4/stm-idf/components/cmsis/include/cmsis_gcc.h **** __STATIC_FORCEINLINE void __TZ_set_BASEPRI_NS(uint32_t basePri)
 504:/home/phong/Documents/thesis/stm32f4/stm-idf/components/cmsis/include/cmsis_gcc.h **** {
 505:/home/phong/Documents/thesis/stm32f4/stm-idf/components/cmsis/include/cmsis_gcc.h ****   __ASM volatile ("MSR basepri_ns, %0" : : "r" (basePri) : "memory");
 506:/home/phong/Documents/thesis/stm32f4/stm-idf/components/cmsis/include/cmsis_gcc.h **** }
 507:/home/phong/Documents/thesis/stm32f4/stm-idf/components/cmsis/include/cmsis_gcc.h **** #endif
 508:/home/phong/Documents/thesis/stm32f4/stm-idf/components/cmsis/include/cmsis_gcc.h **** 
 509:/home/phong/Documents/thesis/stm32f4/stm-idf/components/cmsis/include/cmsis_gcc.h **** 
 510:/home/phong/Documents/thesis/stm32f4/stm-idf/components/cmsis/include/cmsis_gcc.h **** /**
 511:/home/phong/Documents/thesis/stm32f4/stm-idf/components/cmsis/include/cmsis_gcc.h ****   \brief   Set Base Priority with condition
 512:/home/phong/Documents/thesis/stm32f4/stm-idf/components/cmsis/include/cmsis_gcc.h ****   \details Assigns the given value to the Base Priority register only if BASEPRI masking is disable
 513:/home/phong/Documents/thesis/stm32f4/stm-idf/components/cmsis/include/cmsis_gcc.h ****            or the new value increases the BASEPRI priority level.
 514:/home/phong/Documents/thesis/stm32f4/stm-idf/components/cmsis/include/cmsis_gcc.h ****   \param [in]    basePri  Base Priority value to set
 515:/home/phong/Documents/thesis/stm32f4/stm-idf/components/cmsis/include/cmsis_gcc.h ****  */
 516:/home/phong/Documents/thesis/stm32f4/stm-idf/components/cmsis/include/cmsis_gcc.h **** __STATIC_FORCEINLINE void __set_BASEPRI_MAX(uint32_t basePri)
 517:/home/phong/Documents/thesis/stm32f4/stm-idf/components/cmsis/include/cmsis_gcc.h **** {
 518:/home/phong/Documents/thesis/stm32f4/stm-idf/components/cmsis/include/cmsis_gcc.h ****   __ASM volatile ("MSR basepri_max, %0" : : "r" (basePri) : "memory");
 519:/home/phong/Documents/thesis/stm32f4/stm-idf/components/cmsis/include/cmsis_gcc.h **** }
 520:/home/phong/Documents/thesis/stm32f4/stm-idf/components/cmsis/include/cmsis_gcc.h **** 
 521:/home/phong/Documents/thesis/stm32f4/stm-idf/components/cmsis/include/cmsis_gcc.h **** 
 522:/home/phong/Documents/thesis/stm32f4/stm-idf/components/cmsis/include/cmsis_gcc.h **** /**
 523:/home/phong/Documents/thesis/stm32f4/stm-idf/components/cmsis/include/cmsis_gcc.h ****   \brief   Get Fault Mask
 524:/home/phong/Documents/thesis/stm32f4/stm-idf/components/cmsis/include/cmsis_gcc.h ****   \details Returns the current value of the Fault Mask register.
 525:/home/phong/Documents/thesis/stm32f4/stm-idf/components/cmsis/include/cmsis_gcc.h ****   \return               Fault Mask register value
 526:/home/phong/Documents/thesis/stm32f4/stm-idf/components/cmsis/include/cmsis_gcc.h ****  */
 527:/home/phong/Documents/thesis/stm32f4/stm-idf/components/cmsis/include/cmsis_gcc.h **** __STATIC_FORCEINLINE uint32_t __get_FAULTMASK(void)
 528:/home/phong/Documents/thesis/stm32f4/stm-idf/components/cmsis/include/cmsis_gcc.h **** {
 529:/home/phong/Documents/thesis/stm32f4/stm-idf/components/cmsis/include/cmsis_gcc.h ****   uint32_t result;
 530:/home/phong/Documents/thesis/stm32f4/stm-idf/components/cmsis/include/cmsis_gcc.h **** 
 531:/home/phong/Documents/thesis/stm32f4/stm-idf/components/cmsis/include/cmsis_gcc.h ****   __ASM volatile ("MRS %0, faultmask" : "=r" (result) );
 532:/home/phong/Documents/thesis/stm32f4/stm-idf/components/cmsis/include/cmsis_gcc.h ****   return(result);
 533:/home/phong/Documents/thesis/stm32f4/stm-idf/components/cmsis/include/cmsis_gcc.h **** }
 534:/home/phong/Documents/thesis/stm32f4/stm-idf/components/cmsis/include/cmsis_gcc.h **** 
 535:/home/phong/Documents/thesis/stm32f4/stm-idf/components/cmsis/include/cmsis_gcc.h **** 
 536:/home/phong/Documents/thesis/stm32f4/stm-idf/components/cmsis/include/cmsis_gcc.h **** #if (defined (__ARM_FEATURE_CMSE ) && (__ARM_FEATURE_CMSE == 3))
 537:/home/phong/Documents/thesis/stm32f4/stm-idf/components/cmsis/include/cmsis_gcc.h **** /**
 538:/home/phong/Documents/thesis/stm32f4/stm-idf/components/cmsis/include/cmsis_gcc.h ****   \brief   Get Fault Mask (non-secure)
 539:/home/phong/Documents/thesis/stm32f4/stm-idf/components/cmsis/include/cmsis_gcc.h ****   \details Returns the current value of the non-secure Fault Mask register when in secure state.
 540:/home/phong/Documents/thesis/stm32f4/stm-idf/components/cmsis/include/cmsis_gcc.h ****   \return               Fault Mask register value
 541:/home/phong/Documents/thesis/stm32f4/stm-idf/components/cmsis/include/cmsis_gcc.h ****  */
 542:/home/phong/Documents/thesis/stm32f4/stm-idf/components/cmsis/include/cmsis_gcc.h **** __STATIC_FORCEINLINE uint32_t __TZ_get_FAULTMASK_NS(void)
 543:/home/phong/Documents/thesis/stm32f4/stm-idf/components/cmsis/include/cmsis_gcc.h **** {
 544:/home/phong/Documents/thesis/stm32f4/stm-idf/components/cmsis/include/cmsis_gcc.h ****   uint32_t result;
 545:/home/phong/Documents/thesis/stm32f4/stm-idf/components/cmsis/include/cmsis_gcc.h **** 
 546:/home/phong/Documents/thesis/stm32f4/stm-idf/components/cmsis/include/cmsis_gcc.h ****   __ASM volatile ("MRS %0, faultmask_ns" : "=r" (result) );
 547:/home/phong/Documents/thesis/stm32f4/stm-idf/components/cmsis/include/cmsis_gcc.h ****   return(result);
 548:/home/phong/Documents/thesis/stm32f4/stm-idf/components/cmsis/include/cmsis_gcc.h **** }
 549:/home/phong/Documents/thesis/stm32f4/stm-idf/components/cmsis/include/cmsis_gcc.h **** #endif
 550:/home/phong/Documents/thesis/stm32f4/stm-idf/components/cmsis/include/cmsis_gcc.h **** 
 551:/home/phong/Documents/thesis/stm32f4/stm-idf/components/cmsis/include/cmsis_gcc.h **** 
 552:/home/phong/Documents/thesis/stm32f4/stm-idf/components/cmsis/include/cmsis_gcc.h **** /**
 553:/home/phong/Documents/thesis/stm32f4/stm-idf/components/cmsis/include/cmsis_gcc.h ****   \brief   Set Fault Mask
 554:/home/phong/Documents/thesis/stm32f4/stm-idf/components/cmsis/include/cmsis_gcc.h ****   \details Assigns the given value to the Fault Mask register.
 555:/home/phong/Documents/thesis/stm32f4/stm-idf/components/cmsis/include/cmsis_gcc.h ****   \param [in]    faultMask  Fault Mask value to set
 556:/home/phong/Documents/thesis/stm32f4/stm-idf/components/cmsis/include/cmsis_gcc.h ****  */
 557:/home/phong/Documents/thesis/stm32f4/stm-idf/components/cmsis/include/cmsis_gcc.h **** __STATIC_FORCEINLINE void __set_FAULTMASK(uint32_t faultMask)
ARM GAS  /tmp/ccW24XdO.s 			page 63


 558:/home/phong/Documents/thesis/stm32f4/stm-idf/components/cmsis/include/cmsis_gcc.h **** {
 559:/home/phong/Documents/thesis/stm32f4/stm-idf/components/cmsis/include/cmsis_gcc.h ****   __ASM volatile ("MSR faultmask, %0" : : "r" (faultMask) : "memory");
 560:/home/phong/Documents/thesis/stm32f4/stm-idf/components/cmsis/include/cmsis_gcc.h **** }
 561:/home/phong/Documents/thesis/stm32f4/stm-idf/components/cmsis/include/cmsis_gcc.h **** 
 562:/home/phong/Documents/thesis/stm32f4/stm-idf/components/cmsis/include/cmsis_gcc.h **** 
 563:/home/phong/Documents/thesis/stm32f4/stm-idf/components/cmsis/include/cmsis_gcc.h **** #if (defined (__ARM_FEATURE_CMSE ) && (__ARM_FEATURE_CMSE == 3))
 564:/home/phong/Documents/thesis/stm32f4/stm-idf/components/cmsis/include/cmsis_gcc.h **** /**
 565:/home/phong/Documents/thesis/stm32f4/stm-idf/components/cmsis/include/cmsis_gcc.h ****   \brief   Set Fault Mask (non-secure)
 566:/home/phong/Documents/thesis/stm32f4/stm-idf/components/cmsis/include/cmsis_gcc.h ****   \details Assigns the given value to the non-secure Fault Mask register when in secure state.
 567:/home/phong/Documents/thesis/stm32f4/stm-idf/components/cmsis/include/cmsis_gcc.h ****   \param [in]    faultMask  Fault Mask value to set
 568:/home/phong/Documents/thesis/stm32f4/stm-idf/components/cmsis/include/cmsis_gcc.h ****  */
 569:/home/phong/Documents/thesis/stm32f4/stm-idf/components/cmsis/include/cmsis_gcc.h **** __STATIC_FORCEINLINE void __TZ_set_FAULTMASK_NS(uint32_t faultMask)
 570:/home/phong/Documents/thesis/stm32f4/stm-idf/components/cmsis/include/cmsis_gcc.h **** {
 571:/home/phong/Documents/thesis/stm32f4/stm-idf/components/cmsis/include/cmsis_gcc.h ****   __ASM volatile ("MSR faultmask_ns, %0" : : "r" (faultMask) : "memory");
 572:/home/phong/Documents/thesis/stm32f4/stm-idf/components/cmsis/include/cmsis_gcc.h **** }
 573:/home/phong/Documents/thesis/stm32f4/stm-idf/components/cmsis/include/cmsis_gcc.h **** #endif
 574:/home/phong/Documents/thesis/stm32f4/stm-idf/components/cmsis/include/cmsis_gcc.h **** 
 575:/home/phong/Documents/thesis/stm32f4/stm-idf/components/cmsis/include/cmsis_gcc.h **** #endif /* ((defined (__ARM_ARCH_7M__      ) && (__ARM_ARCH_7M__      == 1)) || \
 576:/home/phong/Documents/thesis/stm32f4/stm-idf/components/cmsis/include/cmsis_gcc.h ****            (defined (__ARM_ARCH_7EM__     ) && (__ARM_ARCH_7EM__     == 1)) || \
 577:/home/phong/Documents/thesis/stm32f4/stm-idf/components/cmsis/include/cmsis_gcc.h ****            (defined (__ARM_ARCH_8M_MAIN__ ) && (__ARM_ARCH_8M_MAIN__ == 1))    ) */
 578:/home/phong/Documents/thesis/stm32f4/stm-idf/components/cmsis/include/cmsis_gcc.h **** 
 579:/home/phong/Documents/thesis/stm32f4/stm-idf/components/cmsis/include/cmsis_gcc.h **** 
 580:/home/phong/Documents/thesis/stm32f4/stm-idf/components/cmsis/include/cmsis_gcc.h **** #if ((defined (__ARM_ARCH_8M_MAIN__ ) && (__ARM_ARCH_8M_MAIN__ == 1)) || \
 581:/home/phong/Documents/thesis/stm32f4/stm-idf/components/cmsis/include/cmsis_gcc.h ****      (defined (__ARM_ARCH_8M_BASE__ ) && (__ARM_ARCH_8M_BASE__ == 1))    )
 582:/home/phong/Documents/thesis/stm32f4/stm-idf/components/cmsis/include/cmsis_gcc.h **** 
 583:/home/phong/Documents/thesis/stm32f4/stm-idf/components/cmsis/include/cmsis_gcc.h **** /**
 584:/home/phong/Documents/thesis/stm32f4/stm-idf/components/cmsis/include/cmsis_gcc.h ****   \brief   Get Process Stack Pointer Limit
 585:/home/phong/Documents/thesis/stm32f4/stm-idf/components/cmsis/include/cmsis_gcc.h ****   Devices without ARMv8-M Main Extensions (i.e. Cortex-M23) lack the non-secure
 586:/home/phong/Documents/thesis/stm32f4/stm-idf/components/cmsis/include/cmsis_gcc.h ****   Stack Pointer Limit register hence zero is returned always in non-secure
 587:/home/phong/Documents/thesis/stm32f4/stm-idf/components/cmsis/include/cmsis_gcc.h ****   mode.
 588:/home/phong/Documents/thesis/stm32f4/stm-idf/components/cmsis/include/cmsis_gcc.h ****   
 589:/home/phong/Documents/thesis/stm32f4/stm-idf/components/cmsis/include/cmsis_gcc.h ****   \details Returns the current value of the Process Stack Pointer Limit (PSPLIM).
 590:/home/phong/Documents/thesis/stm32f4/stm-idf/components/cmsis/include/cmsis_gcc.h ****   \return               PSPLIM Register value
 591:/home/phong/Documents/thesis/stm32f4/stm-idf/components/cmsis/include/cmsis_gcc.h ****  */
 592:/home/phong/Documents/thesis/stm32f4/stm-idf/components/cmsis/include/cmsis_gcc.h **** __STATIC_FORCEINLINE uint32_t __get_PSPLIM(void)
 593:/home/phong/Documents/thesis/stm32f4/stm-idf/components/cmsis/include/cmsis_gcc.h **** {
 594:/home/phong/Documents/thesis/stm32f4/stm-idf/components/cmsis/include/cmsis_gcc.h **** #if (!(defined (__ARM_ARCH_8M_MAIN__ ) && (__ARM_ARCH_8M_MAIN__ == 1)) && \
 595:/home/phong/Documents/thesis/stm32f4/stm-idf/components/cmsis/include/cmsis_gcc.h ****     (!defined (__ARM_FEATURE_CMSE) || (__ARM_FEATURE_CMSE < 3)))
 596:/home/phong/Documents/thesis/stm32f4/stm-idf/components/cmsis/include/cmsis_gcc.h ****     // without main extensions, the non-secure PSPLIM is RAZ/WI
 597:/home/phong/Documents/thesis/stm32f4/stm-idf/components/cmsis/include/cmsis_gcc.h ****   return 0U;
 598:/home/phong/Documents/thesis/stm32f4/stm-idf/components/cmsis/include/cmsis_gcc.h **** #else
 599:/home/phong/Documents/thesis/stm32f4/stm-idf/components/cmsis/include/cmsis_gcc.h ****   uint32_t result;
 600:/home/phong/Documents/thesis/stm32f4/stm-idf/components/cmsis/include/cmsis_gcc.h ****   __ASM volatile ("MRS %0, psplim"  : "=r" (result) );
 601:/home/phong/Documents/thesis/stm32f4/stm-idf/components/cmsis/include/cmsis_gcc.h ****   return result;
 602:/home/phong/Documents/thesis/stm32f4/stm-idf/components/cmsis/include/cmsis_gcc.h **** #endif
 603:/home/phong/Documents/thesis/stm32f4/stm-idf/components/cmsis/include/cmsis_gcc.h **** }
 604:/home/phong/Documents/thesis/stm32f4/stm-idf/components/cmsis/include/cmsis_gcc.h **** 
 605:/home/phong/Documents/thesis/stm32f4/stm-idf/components/cmsis/include/cmsis_gcc.h **** #if (defined (__ARM_FEATURE_CMSE) && (__ARM_FEATURE_CMSE == 3))
 606:/home/phong/Documents/thesis/stm32f4/stm-idf/components/cmsis/include/cmsis_gcc.h **** /**
 607:/home/phong/Documents/thesis/stm32f4/stm-idf/components/cmsis/include/cmsis_gcc.h ****   \brief   Get Process Stack Pointer Limit (non-secure)
 608:/home/phong/Documents/thesis/stm32f4/stm-idf/components/cmsis/include/cmsis_gcc.h ****   Devices without ARMv8-M Main Extensions (i.e. Cortex-M23) lack the non-secure
 609:/home/phong/Documents/thesis/stm32f4/stm-idf/components/cmsis/include/cmsis_gcc.h ****   Stack Pointer Limit register hence zero is returned always.
 610:/home/phong/Documents/thesis/stm32f4/stm-idf/components/cmsis/include/cmsis_gcc.h **** 
 611:/home/phong/Documents/thesis/stm32f4/stm-idf/components/cmsis/include/cmsis_gcc.h ****   \details Returns the current value of the non-secure Process Stack Pointer Limit (PSPLIM) when in
 612:/home/phong/Documents/thesis/stm32f4/stm-idf/components/cmsis/include/cmsis_gcc.h ****   \return               PSPLIM Register value
 613:/home/phong/Documents/thesis/stm32f4/stm-idf/components/cmsis/include/cmsis_gcc.h ****  */
 614:/home/phong/Documents/thesis/stm32f4/stm-idf/components/cmsis/include/cmsis_gcc.h **** __STATIC_FORCEINLINE uint32_t __TZ_get_PSPLIM_NS(void)
ARM GAS  /tmp/ccW24XdO.s 			page 64


 615:/home/phong/Documents/thesis/stm32f4/stm-idf/components/cmsis/include/cmsis_gcc.h **** {
 616:/home/phong/Documents/thesis/stm32f4/stm-idf/components/cmsis/include/cmsis_gcc.h **** #if (!(defined (__ARM_ARCH_8M_MAIN__ ) && (__ARM_ARCH_8M_MAIN__ == 1)))
 617:/home/phong/Documents/thesis/stm32f4/stm-idf/components/cmsis/include/cmsis_gcc.h ****   // without main extensions, the non-secure PSPLIM is RAZ/WI
 618:/home/phong/Documents/thesis/stm32f4/stm-idf/components/cmsis/include/cmsis_gcc.h ****   return 0U;
 619:/home/phong/Documents/thesis/stm32f4/stm-idf/components/cmsis/include/cmsis_gcc.h **** #else
 620:/home/phong/Documents/thesis/stm32f4/stm-idf/components/cmsis/include/cmsis_gcc.h ****   uint32_t result;
 621:/home/phong/Documents/thesis/stm32f4/stm-idf/components/cmsis/include/cmsis_gcc.h ****   __ASM volatile ("MRS %0, psplim_ns"  : "=r" (result) );
 622:/home/phong/Documents/thesis/stm32f4/stm-idf/components/cmsis/include/cmsis_gcc.h ****   return result;
 623:/home/phong/Documents/thesis/stm32f4/stm-idf/components/cmsis/include/cmsis_gcc.h **** #endif
 624:/home/phong/Documents/thesis/stm32f4/stm-idf/components/cmsis/include/cmsis_gcc.h **** }
 625:/home/phong/Documents/thesis/stm32f4/stm-idf/components/cmsis/include/cmsis_gcc.h **** #endif
 626:/home/phong/Documents/thesis/stm32f4/stm-idf/components/cmsis/include/cmsis_gcc.h **** 
 627:/home/phong/Documents/thesis/stm32f4/stm-idf/components/cmsis/include/cmsis_gcc.h **** 
 628:/home/phong/Documents/thesis/stm32f4/stm-idf/components/cmsis/include/cmsis_gcc.h **** /**
 629:/home/phong/Documents/thesis/stm32f4/stm-idf/components/cmsis/include/cmsis_gcc.h ****   \brief   Set Process Stack Pointer Limit
 630:/home/phong/Documents/thesis/stm32f4/stm-idf/components/cmsis/include/cmsis_gcc.h ****   Devices without ARMv8-M Main Extensions (i.e. Cortex-M23) lack the non-secure
 631:/home/phong/Documents/thesis/stm32f4/stm-idf/components/cmsis/include/cmsis_gcc.h ****   Stack Pointer Limit register hence the write is silently ignored in non-secure
 632:/home/phong/Documents/thesis/stm32f4/stm-idf/components/cmsis/include/cmsis_gcc.h ****   mode.
 633:/home/phong/Documents/thesis/stm32f4/stm-idf/components/cmsis/include/cmsis_gcc.h ****   
 634:/home/phong/Documents/thesis/stm32f4/stm-idf/components/cmsis/include/cmsis_gcc.h ****   \details Assigns the given value to the Process Stack Pointer Limit (PSPLIM).
 635:/home/phong/Documents/thesis/stm32f4/stm-idf/components/cmsis/include/cmsis_gcc.h ****   \param [in]    ProcStackPtrLimit  Process Stack Pointer Limit value to set
 636:/home/phong/Documents/thesis/stm32f4/stm-idf/components/cmsis/include/cmsis_gcc.h ****  */
 637:/home/phong/Documents/thesis/stm32f4/stm-idf/components/cmsis/include/cmsis_gcc.h **** __STATIC_FORCEINLINE void __set_PSPLIM(uint32_t ProcStackPtrLimit)
 638:/home/phong/Documents/thesis/stm32f4/stm-idf/components/cmsis/include/cmsis_gcc.h **** {
 639:/home/phong/Documents/thesis/stm32f4/stm-idf/components/cmsis/include/cmsis_gcc.h **** #if (!(defined (__ARM_ARCH_8M_MAIN__ ) && (__ARM_ARCH_8M_MAIN__ == 1)) && \
 640:/home/phong/Documents/thesis/stm32f4/stm-idf/components/cmsis/include/cmsis_gcc.h ****     (!defined (__ARM_FEATURE_CMSE) || (__ARM_FEATURE_CMSE < 3)))
 641:/home/phong/Documents/thesis/stm32f4/stm-idf/components/cmsis/include/cmsis_gcc.h ****   // without main extensions, the non-secure PSPLIM is RAZ/WI
 642:/home/phong/Documents/thesis/stm32f4/stm-idf/components/cmsis/include/cmsis_gcc.h ****   (void)ProcStackPtrLimit;
 643:/home/phong/Documents/thesis/stm32f4/stm-idf/components/cmsis/include/cmsis_gcc.h **** #else
 644:/home/phong/Documents/thesis/stm32f4/stm-idf/components/cmsis/include/cmsis_gcc.h ****   __ASM volatile ("MSR psplim, %0" : : "r" (ProcStackPtrLimit));
 645:/home/phong/Documents/thesis/stm32f4/stm-idf/components/cmsis/include/cmsis_gcc.h **** #endif
 646:/home/phong/Documents/thesis/stm32f4/stm-idf/components/cmsis/include/cmsis_gcc.h **** }
 647:/home/phong/Documents/thesis/stm32f4/stm-idf/components/cmsis/include/cmsis_gcc.h **** 
 648:/home/phong/Documents/thesis/stm32f4/stm-idf/components/cmsis/include/cmsis_gcc.h **** 
 649:/home/phong/Documents/thesis/stm32f4/stm-idf/components/cmsis/include/cmsis_gcc.h **** #if (defined (__ARM_FEATURE_CMSE  ) && (__ARM_FEATURE_CMSE   == 3))
 650:/home/phong/Documents/thesis/stm32f4/stm-idf/components/cmsis/include/cmsis_gcc.h **** /**
 651:/home/phong/Documents/thesis/stm32f4/stm-idf/components/cmsis/include/cmsis_gcc.h ****   \brief   Set Process Stack Pointer (non-secure)
 652:/home/phong/Documents/thesis/stm32f4/stm-idf/components/cmsis/include/cmsis_gcc.h ****   Devices without ARMv8-M Main Extensions (i.e. Cortex-M23) lack the non-secure
 653:/home/phong/Documents/thesis/stm32f4/stm-idf/components/cmsis/include/cmsis_gcc.h ****   Stack Pointer Limit register hence the write is silently ignored.
 654:/home/phong/Documents/thesis/stm32f4/stm-idf/components/cmsis/include/cmsis_gcc.h **** 
 655:/home/phong/Documents/thesis/stm32f4/stm-idf/components/cmsis/include/cmsis_gcc.h ****   \details Assigns the given value to the non-secure Process Stack Pointer Limit (PSPLIM) when in s
 656:/home/phong/Documents/thesis/stm32f4/stm-idf/components/cmsis/include/cmsis_gcc.h ****   \param [in]    ProcStackPtrLimit  Process Stack Pointer Limit value to set
 657:/home/phong/Documents/thesis/stm32f4/stm-idf/components/cmsis/include/cmsis_gcc.h ****  */
 658:/home/phong/Documents/thesis/stm32f4/stm-idf/components/cmsis/include/cmsis_gcc.h **** __STATIC_FORCEINLINE void __TZ_set_PSPLIM_NS(uint32_t ProcStackPtrLimit)
 659:/home/phong/Documents/thesis/stm32f4/stm-idf/components/cmsis/include/cmsis_gcc.h **** {
 660:/home/phong/Documents/thesis/stm32f4/stm-idf/components/cmsis/include/cmsis_gcc.h **** #if (!(defined (__ARM_ARCH_8M_MAIN__ ) && (__ARM_ARCH_8M_MAIN__ == 1)))
 661:/home/phong/Documents/thesis/stm32f4/stm-idf/components/cmsis/include/cmsis_gcc.h ****   // without main extensions, the non-secure PSPLIM is RAZ/WI
 662:/home/phong/Documents/thesis/stm32f4/stm-idf/components/cmsis/include/cmsis_gcc.h ****   (void)ProcStackPtrLimit;
 663:/home/phong/Documents/thesis/stm32f4/stm-idf/components/cmsis/include/cmsis_gcc.h **** #else
 664:/home/phong/Documents/thesis/stm32f4/stm-idf/components/cmsis/include/cmsis_gcc.h ****   __ASM volatile ("MSR psplim_ns, %0\n" : : "r" (ProcStackPtrLimit));
 665:/home/phong/Documents/thesis/stm32f4/stm-idf/components/cmsis/include/cmsis_gcc.h **** #endif
 666:/home/phong/Documents/thesis/stm32f4/stm-idf/components/cmsis/include/cmsis_gcc.h **** }
 667:/home/phong/Documents/thesis/stm32f4/stm-idf/components/cmsis/include/cmsis_gcc.h **** #endif
 668:/home/phong/Documents/thesis/stm32f4/stm-idf/components/cmsis/include/cmsis_gcc.h **** 
 669:/home/phong/Documents/thesis/stm32f4/stm-idf/components/cmsis/include/cmsis_gcc.h **** 
 670:/home/phong/Documents/thesis/stm32f4/stm-idf/components/cmsis/include/cmsis_gcc.h **** /**
 671:/home/phong/Documents/thesis/stm32f4/stm-idf/components/cmsis/include/cmsis_gcc.h ****   \brief   Get Main Stack Pointer Limit
ARM GAS  /tmp/ccW24XdO.s 			page 65


 672:/home/phong/Documents/thesis/stm32f4/stm-idf/components/cmsis/include/cmsis_gcc.h ****   Devices without ARMv8-M Main Extensions (i.e. Cortex-M23) lack the non-secure
 673:/home/phong/Documents/thesis/stm32f4/stm-idf/components/cmsis/include/cmsis_gcc.h ****   Stack Pointer Limit register hence zero is returned always in non-secure
 674:/home/phong/Documents/thesis/stm32f4/stm-idf/components/cmsis/include/cmsis_gcc.h ****   mode.
 675:/home/phong/Documents/thesis/stm32f4/stm-idf/components/cmsis/include/cmsis_gcc.h **** 
 676:/home/phong/Documents/thesis/stm32f4/stm-idf/components/cmsis/include/cmsis_gcc.h ****   \details Returns the current value of the Main Stack Pointer Limit (MSPLIM).
 677:/home/phong/Documents/thesis/stm32f4/stm-idf/components/cmsis/include/cmsis_gcc.h ****   \return               MSPLIM Register value
 678:/home/phong/Documents/thesis/stm32f4/stm-idf/components/cmsis/include/cmsis_gcc.h ****  */
 679:/home/phong/Documents/thesis/stm32f4/stm-idf/components/cmsis/include/cmsis_gcc.h **** __STATIC_FORCEINLINE uint32_t __get_MSPLIM(void)
 680:/home/phong/Documents/thesis/stm32f4/stm-idf/components/cmsis/include/cmsis_gcc.h **** {
 681:/home/phong/Documents/thesis/stm32f4/stm-idf/components/cmsis/include/cmsis_gcc.h **** #if (!(defined (__ARM_ARCH_8M_MAIN__ ) && (__ARM_ARCH_8M_MAIN__ == 1)) && \
 682:/home/phong/Documents/thesis/stm32f4/stm-idf/components/cmsis/include/cmsis_gcc.h ****     (!defined (__ARM_FEATURE_CMSE) || (__ARM_FEATURE_CMSE < 3)))
 683:/home/phong/Documents/thesis/stm32f4/stm-idf/components/cmsis/include/cmsis_gcc.h ****   // without main extensions, the non-secure MSPLIM is RAZ/WI
 684:/home/phong/Documents/thesis/stm32f4/stm-idf/components/cmsis/include/cmsis_gcc.h ****   return 0U;
 685:/home/phong/Documents/thesis/stm32f4/stm-idf/components/cmsis/include/cmsis_gcc.h **** #else
 686:/home/phong/Documents/thesis/stm32f4/stm-idf/components/cmsis/include/cmsis_gcc.h ****   uint32_t result;
 687:/home/phong/Documents/thesis/stm32f4/stm-idf/components/cmsis/include/cmsis_gcc.h ****   __ASM volatile ("MRS %0, msplim" : "=r" (result) );
 688:/home/phong/Documents/thesis/stm32f4/stm-idf/components/cmsis/include/cmsis_gcc.h ****   return result;
 689:/home/phong/Documents/thesis/stm32f4/stm-idf/components/cmsis/include/cmsis_gcc.h **** #endif
 690:/home/phong/Documents/thesis/stm32f4/stm-idf/components/cmsis/include/cmsis_gcc.h **** }
 691:/home/phong/Documents/thesis/stm32f4/stm-idf/components/cmsis/include/cmsis_gcc.h **** 
 692:/home/phong/Documents/thesis/stm32f4/stm-idf/components/cmsis/include/cmsis_gcc.h **** 
 693:/home/phong/Documents/thesis/stm32f4/stm-idf/components/cmsis/include/cmsis_gcc.h **** #if (defined (__ARM_FEATURE_CMSE  ) && (__ARM_FEATURE_CMSE   == 3))
 694:/home/phong/Documents/thesis/stm32f4/stm-idf/components/cmsis/include/cmsis_gcc.h **** /**
 695:/home/phong/Documents/thesis/stm32f4/stm-idf/components/cmsis/include/cmsis_gcc.h ****   \brief   Get Main Stack Pointer Limit (non-secure)
 696:/home/phong/Documents/thesis/stm32f4/stm-idf/components/cmsis/include/cmsis_gcc.h ****   Devices without ARMv8-M Main Extensions (i.e. Cortex-M23) lack the non-secure
 697:/home/phong/Documents/thesis/stm32f4/stm-idf/components/cmsis/include/cmsis_gcc.h ****   Stack Pointer Limit register hence zero is returned always.
 698:/home/phong/Documents/thesis/stm32f4/stm-idf/components/cmsis/include/cmsis_gcc.h **** 
 699:/home/phong/Documents/thesis/stm32f4/stm-idf/components/cmsis/include/cmsis_gcc.h ****   \details Returns the current value of the non-secure Main Stack Pointer Limit(MSPLIM) when in sec
 700:/home/phong/Documents/thesis/stm32f4/stm-idf/components/cmsis/include/cmsis_gcc.h ****   \return               MSPLIM Register value
 701:/home/phong/Documents/thesis/stm32f4/stm-idf/components/cmsis/include/cmsis_gcc.h ****  */
 702:/home/phong/Documents/thesis/stm32f4/stm-idf/components/cmsis/include/cmsis_gcc.h **** __STATIC_FORCEINLINE uint32_t __TZ_get_MSPLIM_NS(void)
 703:/home/phong/Documents/thesis/stm32f4/stm-idf/components/cmsis/include/cmsis_gcc.h **** {
 704:/home/phong/Documents/thesis/stm32f4/stm-idf/components/cmsis/include/cmsis_gcc.h **** #if (!(defined (__ARM_ARCH_8M_MAIN__ ) && (__ARM_ARCH_8M_MAIN__ == 1)))
 705:/home/phong/Documents/thesis/stm32f4/stm-idf/components/cmsis/include/cmsis_gcc.h ****   // without main extensions, the non-secure MSPLIM is RAZ/WI
 706:/home/phong/Documents/thesis/stm32f4/stm-idf/components/cmsis/include/cmsis_gcc.h ****   return 0U;
 707:/home/phong/Documents/thesis/stm32f4/stm-idf/components/cmsis/include/cmsis_gcc.h **** #else
 708:/home/phong/Documents/thesis/stm32f4/stm-idf/components/cmsis/include/cmsis_gcc.h ****   uint32_t result;
 709:/home/phong/Documents/thesis/stm32f4/stm-idf/components/cmsis/include/cmsis_gcc.h ****   __ASM volatile ("MRS %0, msplim_ns" : "=r" (result) );
 710:/home/phong/Documents/thesis/stm32f4/stm-idf/components/cmsis/include/cmsis_gcc.h ****   return result;
 711:/home/phong/Documents/thesis/stm32f4/stm-idf/components/cmsis/include/cmsis_gcc.h **** #endif
 712:/home/phong/Documents/thesis/stm32f4/stm-idf/components/cmsis/include/cmsis_gcc.h **** }
 713:/home/phong/Documents/thesis/stm32f4/stm-idf/components/cmsis/include/cmsis_gcc.h **** #endif
 714:/home/phong/Documents/thesis/stm32f4/stm-idf/components/cmsis/include/cmsis_gcc.h **** 
 715:/home/phong/Documents/thesis/stm32f4/stm-idf/components/cmsis/include/cmsis_gcc.h **** 
 716:/home/phong/Documents/thesis/stm32f4/stm-idf/components/cmsis/include/cmsis_gcc.h **** /**
 717:/home/phong/Documents/thesis/stm32f4/stm-idf/components/cmsis/include/cmsis_gcc.h ****   \brief   Set Main Stack Pointer Limit
 718:/home/phong/Documents/thesis/stm32f4/stm-idf/components/cmsis/include/cmsis_gcc.h ****   Devices without ARMv8-M Main Extensions (i.e. Cortex-M23) lack the non-secure
 719:/home/phong/Documents/thesis/stm32f4/stm-idf/components/cmsis/include/cmsis_gcc.h ****   Stack Pointer Limit register hence the write is silently ignored in non-secure
 720:/home/phong/Documents/thesis/stm32f4/stm-idf/components/cmsis/include/cmsis_gcc.h ****   mode.
 721:/home/phong/Documents/thesis/stm32f4/stm-idf/components/cmsis/include/cmsis_gcc.h **** 
 722:/home/phong/Documents/thesis/stm32f4/stm-idf/components/cmsis/include/cmsis_gcc.h ****   \details Assigns the given value to the Main Stack Pointer Limit (MSPLIM).
 723:/home/phong/Documents/thesis/stm32f4/stm-idf/components/cmsis/include/cmsis_gcc.h ****   \param [in]    MainStackPtrLimit  Main Stack Pointer Limit value to set
 724:/home/phong/Documents/thesis/stm32f4/stm-idf/components/cmsis/include/cmsis_gcc.h ****  */
 725:/home/phong/Documents/thesis/stm32f4/stm-idf/components/cmsis/include/cmsis_gcc.h **** __STATIC_FORCEINLINE void __set_MSPLIM(uint32_t MainStackPtrLimit)
 726:/home/phong/Documents/thesis/stm32f4/stm-idf/components/cmsis/include/cmsis_gcc.h **** {
 727:/home/phong/Documents/thesis/stm32f4/stm-idf/components/cmsis/include/cmsis_gcc.h **** #if (!(defined (__ARM_ARCH_8M_MAIN__ ) && (__ARM_ARCH_8M_MAIN__ == 1)) && \
 728:/home/phong/Documents/thesis/stm32f4/stm-idf/components/cmsis/include/cmsis_gcc.h ****     (!defined (__ARM_FEATURE_CMSE) || (__ARM_FEATURE_CMSE < 3)))
ARM GAS  /tmp/ccW24XdO.s 			page 66


 729:/home/phong/Documents/thesis/stm32f4/stm-idf/components/cmsis/include/cmsis_gcc.h ****   // without main extensions, the non-secure MSPLIM is RAZ/WI
 730:/home/phong/Documents/thesis/stm32f4/stm-idf/components/cmsis/include/cmsis_gcc.h ****   (void)MainStackPtrLimit;
 731:/home/phong/Documents/thesis/stm32f4/stm-idf/components/cmsis/include/cmsis_gcc.h **** #else
 732:/home/phong/Documents/thesis/stm32f4/stm-idf/components/cmsis/include/cmsis_gcc.h ****   __ASM volatile ("MSR msplim, %0" : : "r" (MainStackPtrLimit));
 733:/home/phong/Documents/thesis/stm32f4/stm-idf/components/cmsis/include/cmsis_gcc.h **** #endif
 734:/home/phong/Documents/thesis/stm32f4/stm-idf/components/cmsis/include/cmsis_gcc.h **** }
 735:/home/phong/Documents/thesis/stm32f4/stm-idf/components/cmsis/include/cmsis_gcc.h **** 
 736:/home/phong/Documents/thesis/stm32f4/stm-idf/components/cmsis/include/cmsis_gcc.h **** 
 737:/home/phong/Documents/thesis/stm32f4/stm-idf/components/cmsis/include/cmsis_gcc.h **** #if (defined (__ARM_FEATURE_CMSE  ) && (__ARM_FEATURE_CMSE   == 3))
 738:/home/phong/Documents/thesis/stm32f4/stm-idf/components/cmsis/include/cmsis_gcc.h **** /**
 739:/home/phong/Documents/thesis/stm32f4/stm-idf/components/cmsis/include/cmsis_gcc.h ****   \brief   Set Main Stack Pointer Limit (non-secure)
 740:/home/phong/Documents/thesis/stm32f4/stm-idf/components/cmsis/include/cmsis_gcc.h ****   Devices without ARMv8-M Main Extensions (i.e. Cortex-M23) lack the non-secure
 741:/home/phong/Documents/thesis/stm32f4/stm-idf/components/cmsis/include/cmsis_gcc.h ****   Stack Pointer Limit register hence the write is silently ignored.
 742:/home/phong/Documents/thesis/stm32f4/stm-idf/components/cmsis/include/cmsis_gcc.h **** 
 743:/home/phong/Documents/thesis/stm32f4/stm-idf/components/cmsis/include/cmsis_gcc.h ****   \details Assigns the given value to the non-secure Main Stack Pointer Limit (MSPLIM) when in secu
 744:/home/phong/Documents/thesis/stm32f4/stm-idf/components/cmsis/include/cmsis_gcc.h ****   \param [in]    MainStackPtrLimit  Main Stack Pointer value to set
 745:/home/phong/Documents/thesis/stm32f4/stm-idf/components/cmsis/include/cmsis_gcc.h ****  */
 746:/home/phong/Documents/thesis/stm32f4/stm-idf/components/cmsis/include/cmsis_gcc.h **** __STATIC_FORCEINLINE void __TZ_set_MSPLIM_NS(uint32_t MainStackPtrLimit)
 747:/home/phong/Documents/thesis/stm32f4/stm-idf/components/cmsis/include/cmsis_gcc.h **** {
 748:/home/phong/Documents/thesis/stm32f4/stm-idf/components/cmsis/include/cmsis_gcc.h **** #if (!(defined (__ARM_ARCH_8M_MAIN__ ) && (__ARM_ARCH_8M_MAIN__ == 1)))
 749:/home/phong/Documents/thesis/stm32f4/stm-idf/components/cmsis/include/cmsis_gcc.h ****   // without main extensions, the non-secure MSPLIM is RAZ/WI
 750:/home/phong/Documents/thesis/stm32f4/stm-idf/components/cmsis/include/cmsis_gcc.h ****   (void)MainStackPtrLimit;
 751:/home/phong/Documents/thesis/stm32f4/stm-idf/components/cmsis/include/cmsis_gcc.h **** #else
 752:/home/phong/Documents/thesis/stm32f4/stm-idf/components/cmsis/include/cmsis_gcc.h ****   __ASM volatile ("MSR msplim_ns, %0" : : "r" (MainStackPtrLimit));
 753:/home/phong/Documents/thesis/stm32f4/stm-idf/components/cmsis/include/cmsis_gcc.h **** #endif
 754:/home/phong/Documents/thesis/stm32f4/stm-idf/components/cmsis/include/cmsis_gcc.h **** }
 755:/home/phong/Documents/thesis/stm32f4/stm-idf/components/cmsis/include/cmsis_gcc.h **** #endif
 756:/home/phong/Documents/thesis/stm32f4/stm-idf/components/cmsis/include/cmsis_gcc.h **** 
 757:/home/phong/Documents/thesis/stm32f4/stm-idf/components/cmsis/include/cmsis_gcc.h **** #endif /* ((defined (__ARM_ARCH_8M_MAIN__ ) && (__ARM_ARCH_8M_MAIN__ == 1)) || \
 758:/home/phong/Documents/thesis/stm32f4/stm-idf/components/cmsis/include/cmsis_gcc.h ****            (defined (__ARM_ARCH_8M_BASE__ ) && (__ARM_ARCH_8M_BASE__ == 1))    ) */
 759:/home/phong/Documents/thesis/stm32f4/stm-idf/components/cmsis/include/cmsis_gcc.h **** 
 760:/home/phong/Documents/thesis/stm32f4/stm-idf/components/cmsis/include/cmsis_gcc.h **** 
 761:/home/phong/Documents/thesis/stm32f4/stm-idf/components/cmsis/include/cmsis_gcc.h **** /**
 762:/home/phong/Documents/thesis/stm32f4/stm-idf/components/cmsis/include/cmsis_gcc.h ****   \brief   Get FPSCR
 763:/home/phong/Documents/thesis/stm32f4/stm-idf/components/cmsis/include/cmsis_gcc.h ****   \details Returns the current value of the Floating Point Status/Control register.
 764:/home/phong/Documents/thesis/stm32f4/stm-idf/components/cmsis/include/cmsis_gcc.h ****   \return               Floating Point Status/Control register value
 765:/home/phong/Documents/thesis/stm32f4/stm-idf/components/cmsis/include/cmsis_gcc.h ****  */
 766:/home/phong/Documents/thesis/stm32f4/stm-idf/components/cmsis/include/cmsis_gcc.h **** __STATIC_FORCEINLINE uint32_t __get_FPSCR(void)
 767:/home/phong/Documents/thesis/stm32f4/stm-idf/components/cmsis/include/cmsis_gcc.h **** {
 768:/home/phong/Documents/thesis/stm32f4/stm-idf/components/cmsis/include/cmsis_gcc.h **** #if ((defined (__FPU_PRESENT) && (__FPU_PRESENT == 1U)) && \
 769:/home/phong/Documents/thesis/stm32f4/stm-idf/components/cmsis/include/cmsis_gcc.h ****      (defined (__FPU_USED   ) && (__FPU_USED    == 1U))     )
 770:/home/phong/Documents/thesis/stm32f4/stm-idf/components/cmsis/include/cmsis_gcc.h **** #if __has_builtin(__builtin_arm_get_fpscr) 
 771:/home/phong/Documents/thesis/stm32f4/stm-idf/components/cmsis/include/cmsis_gcc.h **** // Re-enable using built-in when GCC has been fixed
 772:/home/phong/Documents/thesis/stm32f4/stm-idf/components/cmsis/include/cmsis_gcc.h **** // || (__GNUC__ > 7) || (__GNUC__ == 7 && __GNUC_MINOR__ >= 2)
 773:/home/phong/Documents/thesis/stm32f4/stm-idf/components/cmsis/include/cmsis_gcc.h ****   /* see https://gcc.gnu.org/ml/gcc-patches/2017-04/msg00443.html */
 774:/home/phong/Documents/thesis/stm32f4/stm-idf/components/cmsis/include/cmsis_gcc.h ****   return __builtin_arm_get_fpscr();
 775:/home/phong/Documents/thesis/stm32f4/stm-idf/components/cmsis/include/cmsis_gcc.h **** #else
 776:/home/phong/Documents/thesis/stm32f4/stm-idf/components/cmsis/include/cmsis_gcc.h ****   uint32_t result;
 777:/home/phong/Documents/thesis/stm32f4/stm-idf/components/cmsis/include/cmsis_gcc.h **** 
 778:/home/phong/Documents/thesis/stm32f4/stm-idf/components/cmsis/include/cmsis_gcc.h ****   __ASM volatile ("VMRS %0, fpscr" : "=r" (result) );
 779:/home/phong/Documents/thesis/stm32f4/stm-idf/components/cmsis/include/cmsis_gcc.h ****   return(result);
 780:/home/phong/Documents/thesis/stm32f4/stm-idf/components/cmsis/include/cmsis_gcc.h **** #endif
 781:/home/phong/Documents/thesis/stm32f4/stm-idf/components/cmsis/include/cmsis_gcc.h **** #else
 782:/home/phong/Documents/thesis/stm32f4/stm-idf/components/cmsis/include/cmsis_gcc.h ****   return(0U);
 783:/home/phong/Documents/thesis/stm32f4/stm-idf/components/cmsis/include/cmsis_gcc.h **** #endif
 784:/home/phong/Documents/thesis/stm32f4/stm-idf/components/cmsis/include/cmsis_gcc.h **** }
 785:/home/phong/Documents/thesis/stm32f4/stm-idf/components/cmsis/include/cmsis_gcc.h **** 
ARM GAS  /tmp/ccW24XdO.s 			page 67


 786:/home/phong/Documents/thesis/stm32f4/stm-idf/components/cmsis/include/cmsis_gcc.h **** 
 787:/home/phong/Documents/thesis/stm32f4/stm-idf/components/cmsis/include/cmsis_gcc.h **** /**
 788:/home/phong/Documents/thesis/stm32f4/stm-idf/components/cmsis/include/cmsis_gcc.h ****   \brief   Set FPSCR
 789:/home/phong/Documents/thesis/stm32f4/stm-idf/components/cmsis/include/cmsis_gcc.h ****   \details Assigns the given value to the Floating Point Status/Control register.
 790:/home/phong/Documents/thesis/stm32f4/stm-idf/components/cmsis/include/cmsis_gcc.h ****   \param [in]    fpscr  Floating Point Status/Control value to set
 791:/home/phong/Documents/thesis/stm32f4/stm-idf/components/cmsis/include/cmsis_gcc.h ****  */
 792:/home/phong/Documents/thesis/stm32f4/stm-idf/components/cmsis/include/cmsis_gcc.h **** __STATIC_FORCEINLINE void __set_FPSCR(uint32_t fpscr)
 793:/home/phong/Documents/thesis/stm32f4/stm-idf/components/cmsis/include/cmsis_gcc.h **** {
 794:/home/phong/Documents/thesis/stm32f4/stm-idf/components/cmsis/include/cmsis_gcc.h **** #if ((defined (__FPU_PRESENT) && (__FPU_PRESENT == 1U)) && \
 795:/home/phong/Documents/thesis/stm32f4/stm-idf/components/cmsis/include/cmsis_gcc.h ****      (defined (__FPU_USED   ) && (__FPU_USED    == 1U))     )
 796:/home/phong/Documents/thesis/stm32f4/stm-idf/components/cmsis/include/cmsis_gcc.h **** #if __has_builtin(__builtin_arm_set_fpscr)
 797:/home/phong/Documents/thesis/stm32f4/stm-idf/components/cmsis/include/cmsis_gcc.h **** // Re-enable using built-in when GCC has been fixed
 798:/home/phong/Documents/thesis/stm32f4/stm-idf/components/cmsis/include/cmsis_gcc.h **** // || (__GNUC__ > 7) || (__GNUC__ == 7 && __GNUC_MINOR__ >= 2)
 799:/home/phong/Documents/thesis/stm32f4/stm-idf/components/cmsis/include/cmsis_gcc.h ****   /* see https://gcc.gnu.org/ml/gcc-patches/2017-04/msg00443.html */
 800:/home/phong/Documents/thesis/stm32f4/stm-idf/components/cmsis/include/cmsis_gcc.h ****   __builtin_arm_set_fpscr(fpscr);
 801:/home/phong/Documents/thesis/stm32f4/stm-idf/components/cmsis/include/cmsis_gcc.h **** #else
 802:/home/phong/Documents/thesis/stm32f4/stm-idf/components/cmsis/include/cmsis_gcc.h ****   __ASM volatile ("VMSR fpscr, %0" : : "r" (fpscr) : "vfpcc", "memory");
 803:/home/phong/Documents/thesis/stm32f4/stm-idf/components/cmsis/include/cmsis_gcc.h **** #endif
 804:/home/phong/Documents/thesis/stm32f4/stm-idf/components/cmsis/include/cmsis_gcc.h **** #else
 805:/home/phong/Documents/thesis/stm32f4/stm-idf/components/cmsis/include/cmsis_gcc.h ****   (void)fpscr;
 806:/home/phong/Documents/thesis/stm32f4/stm-idf/components/cmsis/include/cmsis_gcc.h **** #endif
 807:/home/phong/Documents/thesis/stm32f4/stm-idf/components/cmsis/include/cmsis_gcc.h **** }
 808:/home/phong/Documents/thesis/stm32f4/stm-idf/components/cmsis/include/cmsis_gcc.h **** 
 809:/home/phong/Documents/thesis/stm32f4/stm-idf/components/cmsis/include/cmsis_gcc.h **** 
 810:/home/phong/Documents/thesis/stm32f4/stm-idf/components/cmsis/include/cmsis_gcc.h **** /*@} end of CMSIS_Core_RegAccFunctions */
 811:/home/phong/Documents/thesis/stm32f4/stm-idf/components/cmsis/include/cmsis_gcc.h **** 
 812:/home/phong/Documents/thesis/stm32f4/stm-idf/components/cmsis/include/cmsis_gcc.h **** 
 813:/home/phong/Documents/thesis/stm32f4/stm-idf/components/cmsis/include/cmsis_gcc.h **** /* ##########################  Core Instruction Access  ######################### */
 814:/home/phong/Documents/thesis/stm32f4/stm-idf/components/cmsis/include/cmsis_gcc.h **** /** \defgroup CMSIS_Core_InstructionInterface CMSIS Core Instruction Interface
 815:/home/phong/Documents/thesis/stm32f4/stm-idf/components/cmsis/include/cmsis_gcc.h ****   Access to dedicated instructions
 816:/home/phong/Documents/thesis/stm32f4/stm-idf/components/cmsis/include/cmsis_gcc.h ****   @{
 817:/home/phong/Documents/thesis/stm32f4/stm-idf/components/cmsis/include/cmsis_gcc.h **** */
 818:/home/phong/Documents/thesis/stm32f4/stm-idf/components/cmsis/include/cmsis_gcc.h **** 
 819:/home/phong/Documents/thesis/stm32f4/stm-idf/components/cmsis/include/cmsis_gcc.h **** /* Define macros for porting to both thumb1 and thumb2.
 820:/home/phong/Documents/thesis/stm32f4/stm-idf/components/cmsis/include/cmsis_gcc.h ****  * For thumb1, use low register (r0-r7), specified by constraint "l"
 821:/home/phong/Documents/thesis/stm32f4/stm-idf/components/cmsis/include/cmsis_gcc.h ****  * Otherwise, use general registers, specified by constraint "r" */
 822:/home/phong/Documents/thesis/stm32f4/stm-idf/components/cmsis/include/cmsis_gcc.h **** #if defined (__thumb__) && !defined (__thumb2__)
 823:/home/phong/Documents/thesis/stm32f4/stm-idf/components/cmsis/include/cmsis_gcc.h **** #define __CMSIS_GCC_OUT_REG(r) "=l" (r)
 824:/home/phong/Documents/thesis/stm32f4/stm-idf/components/cmsis/include/cmsis_gcc.h **** #define __CMSIS_GCC_RW_REG(r) "+l" (r)
 825:/home/phong/Documents/thesis/stm32f4/stm-idf/components/cmsis/include/cmsis_gcc.h **** #define __CMSIS_GCC_USE_REG(r) "l" (r)
 826:/home/phong/Documents/thesis/stm32f4/stm-idf/components/cmsis/include/cmsis_gcc.h **** #else
 827:/home/phong/Documents/thesis/stm32f4/stm-idf/components/cmsis/include/cmsis_gcc.h **** #define __CMSIS_GCC_OUT_REG(r) "=r" (r)
 828:/home/phong/Documents/thesis/stm32f4/stm-idf/components/cmsis/include/cmsis_gcc.h **** #define __CMSIS_GCC_RW_REG(r) "+r" (r)
 829:/home/phong/Documents/thesis/stm32f4/stm-idf/components/cmsis/include/cmsis_gcc.h **** #define __CMSIS_GCC_USE_REG(r) "r" (r)
 830:/home/phong/Documents/thesis/stm32f4/stm-idf/components/cmsis/include/cmsis_gcc.h **** #endif
 831:/home/phong/Documents/thesis/stm32f4/stm-idf/components/cmsis/include/cmsis_gcc.h **** 
 832:/home/phong/Documents/thesis/stm32f4/stm-idf/components/cmsis/include/cmsis_gcc.h **** /**
 833:/home/phong/Documents/thesis/stm32f4/stm-idf/components/cmsis/include/cmsis_gcc.h ****   \brief   No Operation
 834:/home/phong/Documents/thesis/stm32f4/stm-idf/components/cmsis/include/cmsis_gcc.h ****   \details No Operation does nothing. This instruction can be used for code alignment purposes.
 835:/home/phong/Documents/thesis/stm32f4/stm-idf/components/cmsis/include/cmsis_gcc.h ****  */
 836:/home/phong/Documents/thesis/stm32f4/stm-idf/components/cmsis/include/cmsis_gcc.h **** #define __NOP()                             __ASM volatile ("nop")
 837:/home/phong/Documents/thesis/stm32f4/stm-idf/components/cmsis/include/cmsis_gcc.h **** 
 838:/home/phong/Documents/thesis/stm32f4/stm-idf/components/cmsis/include/cmsis_gcc.h **** /**
 839:/home/phong/Documents/thesis/stm32f4/stm-idf/components/cmsis/include/cmsis_gcc.h ****   \brief   Wait For Interrupt
 840:/home/phong/Documents/thesis/stm32f4/stm-idf/components/cmsis/include/cmsis_gcc.h ****   \details Wait For Interrupt is a hint instruction that suspends execution until one of a number o
 841:/home/phong/Documents/thesis/stm32f4/stm-idf/components/cmsis/include/cmsis_gcc.h ****  */
 842:/home/phong/Documents/thesis/stm32f4/stm-idf/components/cmsis/include/cmsis_gcc.h **** #define __WFI()                             __ASM volatile ("wfi")
ARM GAS  /tmp/ccW24XdO.s 			page 68


 843:/home/phong/Documents/thesis/stm32f4/stm-idf/components/cmsis/include/cmsis_gcc.h **** 
 844:/home/phong/Documents/thesis/stm32f4/stm-idf/components/cmsis/include/cmsis_gcc.h **** 
 845:/home/phong/Documents/thesis/stm32f4/stm-idf/components/cmsis/include/cmsis_gcc.h **** /**
 846:/home/phong/Documents/thesis/stm32f4/stm-idf/components/cmsis/include/cmsis_gcc.h ****   \brief   Wait For Event
 847:/home/phong/Documents/thesis/stm32f4/stm-idf/components/cmsis/include/cmsis_gcc.h ****   \details Wait For Event is a hint instruction that permits the processor to enter
 848:/home/phong/Documents/thesis/stm32f4/stm-idf/components/cmsis/include/cmsis_gcc.h ****            a low-power state until one of a number of events occurs.
 849:/home/phong/Documents/thesis/stm32f4/stm-idf/components/cmsis/include/cmsis_gcc.h ****  */
 850:/home/phong/Documents/thesis/stm32f4/stm-idf/components/cmsis/include/cmsis_gcc.h **** #define __WFE()                             __ASM volatile ("wfe")
 851:/home/phong/Documents/thesis/stm32f4/stm-idf/components/cmsis/include/cmsis_gcc.h **** 
 852:/home/phong/Documents/thesis/stm32f4/stm-idf/components/cmsis/include/cmsis_gcc.h **** 
 853:/home/phong/Documents/thesis/stm32f4/stm-idf/components/cmsis/include/cmsis_gcc.h **** /**
 854:/home/phong/Documents/thesis/stm32f4/stm-idf/components/cmsis/include/cmsis_gcc.h ****   \brief   Send Event
 855:/home/phong/Documents/thesis/stm32f4/stm-idf/components/cmsis/include/cmsis_gcc.h ****   \details Send Event is a hint instruction. It causes an event to be signaled to the CPU.
 856:/home/phong/Documents/thesis/stm32f4/stm-idf/components/cmsis/include/cmsis_gcc.h ****  */
 857:/home/phong/Documents/thesis/stm32f4/stm-idf/components/cmsis/include/cmsis_gcc.h **** #define __SEV()                             __ASM volatile ("sev")
 858:/home/phong/Documents/thesis/stm32f4/stm-idf/components/cmsis/include/cmsis_gcc.h **** 
 859:/home/phong/Documents/thesis/stm32f4/stm-idf/components/cmsis/include/cmsis_gcc.h **** 
 860:/home/phong/Documents/thesis/stm32f4/stm-idf/components/cmsis/include/cmsis_gcc.h **** /**
 861:/home/phong/Documents/thesis/stm32f4/stm-idf/components/cmsis/include/cmsis_gcc.h ****   \brief   Instruction Synchronization Barrier
 862:/home/phong/Documents/thesis/stm32f4/stm-idf/components/cmsis/include/cmsis_gcc.h ****   \details Instruction Synchronization Barrier flushes the pipeline in the processor,
 863:/home/phong/Documents/thesis/stm32f4/stm-idf/components/cmsis/include/cmsis_gcc.h ****            so that all instructions following the ISB are fetched from cache or memory,
 864:/home/phong/Documents/thesis/stm32f4/stm-idf/components/cmsis/include/cmsis_gcc.h ****            after the instruction has been completed.
 865:/home/phong/Documents/thesis/stm32f4/stm-idf/components/cmsis/include/cmsis_gcc.h ****  */
 866:/home/phong/Documents/thesis/stm32f4/stm-idf/components/cmsis/include/cmsis_gcc.h **** __STATIC_FORCEINLINE void __ISB(void)
 867:/home/phong/Documents/thesis/stm32f4/stm-idf/components/cmsis/include/cmsis_gcc.h **** {
 868:/home/phong/Documents/thesis/stm32f4/stm-idf/components/cmsis/include/cmsis_gcc.h ****   __ASM volatile ("isb 0xF":::"memory");
 869:/home/phong/Documents/thesis/stm32f4/stm-idf/components/cmsis/include/cmsis_gcc.h **** }
 870:/home/phong/Documents/thesis/stm32f4/stm-idf/components/cmsis/include/cmsis_gcc.h **** 
 871:/home/phong/Documents/thesis/stm32f4/stm-idf/components/cmsis/include/cmsis_gcc.h **** 
 872:/home/phong/Documents/thesis/stm32f4/stm-idf/components/cmsis/include/cmsis_gcc.h **** /**
 873:/home/phong/Documents/thesis/stm32f4/stm-idf/components/cmsis/include/cmsis_gcc.h ****   \brief   Data Synchronization Barrier
 874:/home/phong/Documents/thesis/stm32f4/stm-idf/components/cmsis/include/cmsis_gcc.h ****   \details Acts as a special kind of Data Memory Barrier.
 875:/home/phong/Documents/thesis/stm32f4/stm-idf/components/cmsis/include/cmsis_gcc.h ****            It completes when all explicit memory accesses before this instruction complete.
 876:/home/phong/Documents/thesis/stm32f4/stm-idf/components/cmsis/include/cmsis_gcc.h ****  */
 877:/home/phong/Documents/thesis/stm32f4/stm-idf/components/cmsis/include/cmsis_gcc.h **** __STATIC_FORCEINLINE void __DSB(void)
 878:/home/phong/Documents/thesis/stm32f4/stm-idf/components/cmsis/include/cmsis_gcc.h **** {
 879:/home/phong/Documents/thesis/stm32f4/stm-idf/components/cmsis/include/cmsis_gcc.h ****   __ASM volatile ("dsb 0xF":::"memory");
 880:/home/phong/Documents/thesis/stm32f4/stm-idf/components/cmsis/include/cmsis_gcc.h **** }
 881:/home/phong/Documents/thesis/stm32f4/stm-idf/components/cmsis/include/cmsis_gcc.h **** 
 882:/home/phong/Documents/thesis/stm32f4/stm-idf/components/cmsis/include/cmsis_gcc.h **** 
 883:/home/phong/Documents/thesis/stm32f4/stm-idf/components/cmsis/include/cmsis_gcc.h **** /**
 884:/home/phong/Documents/thesis/stm32f4/stm-idf/components/cmsis/include/cmsis_gcc.h ****   \brief   Data Memory Barrier
 885:/home/phong/Documents/thesis/stm32f4/stm-idf/components/cmsis/include/cmsis_gcc.h ****   \details Ensures the apparent order of the explicit memory operations before
 886:/home/phong/Documents/thesis/stm32f4/stm-idf/components/cmsis/include/cmsis_gcc.h ****            and after the instruction, without ensuring their completion.
 887:/home/phong/Documents/thesis/stm32f4/stm-idf/components/cmsis/include/cmsis_gcc.h ****  */
 888:/home/phong/Documents/thesis/stm32f4/stm-idf/components/cmsis/include/cmsis_gcc.h **** __STATIC_FORCEINLINE void __DMB(void)
 889:/home/phong/Documents/thesis/stm32f4/stm-idf/components/cmsis/include/cmsis_gcc.h **** {
 890:/home/phong/Documents/thesis/stm32f4/stm-idf/components/cmsis/include/cmsis_gcc.h ****   __ASM volatile ("dmb 0xF":::"memory");
 891:/home/phong/Documents/thesis/stm32f4/stm-idf/components/cmsis/include/cmsis_gcc.h **** }
 892:/home/phong/Documents/thesis/stm32f4/stm-idf/components/cmsis/include/cmsis_gcc.h **** 
 893:/home/phong/Documents/thesis/stm32f4/stm-idf/components/cmsis/include/cmsis_gcc.h **** 
 894:/home/phong/Documents/thesis/stm32f4/stm-idf/components/cmsis/include/cmsis_gcc.h **** /**
 895:/home/phong/Documents/thesis/stm32f4/stm-idf/components/cmsis/include/cmsis_gcc.h ****   \brief   Reverse byte order (32 bit)
 896:/home/phong/Documents/thesis/stm32f4/stm-idf/components/cmsis/include/cmsis_gcc.h ****   \details Reverses the byte order in unsigned integer value. For example, 0x12345678 becomes 0x785
 897:/home/phong/Documents/thesis/stm32f4/stm-idf/components/cmsis/include/cmsis_gcc.h ****   \param [in]    value  Value to reverse
 898:/home/phong/Documents/thesis/stm32f4/stm-idf/components/cmsis/include/cmsis_gcc.h ****   \return               Reversed value
 899:/home/phong/Documents/thesis/stm32f4/stm-idf/components/cmsis/include/cmsis_gcc.h ****  */
ARM GAS  /tmp/ccW24XdO.s 			page 69


 900:/home/phong/Documents/thesis/stm32f4/stm-idf/components/cmsis/include/cmsis_gcc.h **** __STATIC_FORCEINLINE uint32_t __REV(uint32_t value)
 901:/home/phong/Documents/thesis/stm32f4/stm-idf/components/cmsis/include/cmsis_gcc.h **** {
 902:/home/phong/Documents/thesis/stm32f4/stm-idf/components/cmsis/include/cmsis_gcc.h **** #if (__GNUC__ > 4) || (__GNUC__ == 4 && __GNUC_MINOR__ >= 5)
 903:/home/phong/Documents/thesis/stm32f4/stm-idf/components/cmsis/include/cmsis_gcc.h ****   return __builtin_bswap32(value);
 904:/home/phong/Documents/thesis/stm32f4/stm-idf/components/cmsis/include/cmsis_gcc.h **** #else
 905:/home/phong/Documents/thesis/stm32f4/stm-idf/components/cmsis/include/cmsis_gcc.h ****   uint32_t result;
 906:/home/phong/Documents/thesis/stm32f4/stm-idf/components/cmsis/include/cmsis_gcc.h **** 
 907:/home/phong/Documents/thesis/stm32f4/stm-idf/components/cmsis/include/cmsis_gcc.h ****   __ASM volatile ("rev %0, %1" : __CMSIS_GCC_OUT_REG (result) : __CMSIS_GCC_USE_REG (value) );
 908:/home/phong/Documents/thesis/stm32f4/stm-idf/components/cmsis/include/cmsis_gcc.h ****   return result;
 909:/home/phong/Documents/thesis/stm32f4/stm-idf/components/cmsis/include/cmsis_gcc.h **** #endif
 910:/home/phong/Documents/thesis/stm32f4/stm-idf/components/cmsis/include/cmsis_gcc.h **** }
 911:/home/phong/Documents/thesis/stm32f4/stm-idf/components/cmsis/include/cmsis_gcc.h **** 
 912:/home/phong/Documents/thesis/stm32f4/stm-idf/components/cmsis/include/cmsis_gcc.h **** 
 913:/home/phong/Documents/thesis/stm32f4/stm-idf/components/cmsis/include/cmsis_gcc.h **** /**
 914:/home/phong/Documents/thesis/stm32f4/stm-idf/components/cmsis/include/cmsis_gcc.h ****   \brief   Reverse byte order (16 bit)
 915:/home/phong/Documents/thesis/stm32f4/stm-idf/components/cmsis/include/cmsis_gcc.h ****   \details Reverses the byte order within each halfword of a word. For example, 0x12345678 becomes 
 916:/home/phong/Documents/thesis/stm32f4/stm-idf/components/cmsis/include/cmsis_gcc.h ****   \param [in]    value  Value to reverse
 917:/home/phong/Documents/thesis/stm32f4/stm-idf/components/cmsis/include/cmsis_gcc.h ****   \return               Reversed value
 918:/home/phong/Documents/thesis/stm32f4/stm-idf/components/cmsis/include/cmsis_gcc.h ****  */
 919:/home/phong/Documents/thesis/stm32f4/stm-idf/components/cmsis/include/cmsis_gcc.h **** __STATIC_FORCEINLINE uint32_t __REV16(uint32_t value)
 920:/home/phong/Documents/thesis/stm32f4/stm-idf/components/cmsis/include/cmsis_gcc.h **** {
 921:/home/phong/Documents/thesis/stm32f4/stm-idf/components/cmsis/include/cmsis_gcc.h ****   uint32_t result;
 922:/home/phong/Documents/thesis/stm32f4/stm-idf/components/cmsis/include/cmsis_gcc.h **** 
 923:/home/phong/Documents/thesis/stm32f4/stm-idf/components/cmsis/include/cmsis_gcc.h ****   __ASM volatile ("rev16 %0, %1" : __CMSIS_GCC_OUT_REG (result) : __CMSIS_GCC_USE_REG (value) );
 924:/home/phong/Documents/thesis/stm32f4/stm-idf/components/cmsis/include/cmsis_gcc.h ****   return result;
 925:/home/phong/Documents/thesis/stm32f4/stm-idf/components/cmsis/include/cmsis_gcc.h **** }
 926:/home/phong/Documents/thesis/stm32f4/stm-idf/components/cmsis/include/cmsis_gcc.h **** 
 927:/home/phong/Documents/thesis/stm32f4/stm-idf/components/cmsis/include/cmsis_gcc.h **** 
 928:/home/phong/Documents/thesis/stm32f4/stm-idf/components/cmsis/include/cmsis_gcc.h **** /**
 929:/home/phong/Documents/thesis/stm32f4/stm-idf/components/cmsis/include/cmsis_gcc.h ****   \brief   Reverse byte order (16 bit)
 930:/home/phong/Documents/thesis/stm32f4/stm-idf/components/cmsis/include/cmsis_gcc.h ****   \details Reverses the byte order in a 16-bit value and returns the signed 16-bit result. For exam
 931:/home/phong/Documents/thesis/stm32f4/stm-idf/components/cmsis/include/cmsis_gcc.h ****   \param [in]    value  Value to reverse
 932:/home/phong/Documents/thesis/stm32f4/stm-idf/components/cmsis/include/cmsis_gcc.h ****   \return               Reversed value
 933:/home/phong/Documents/thesis/stm32f4/stm-idf/components/cmsis/include/cmsis_gcc.h ****  */
 934:/home/phong/Documents/thesis/stm32f4/stm-idf/components/cmsis/include/cmsis_gcc.h **** __STATIC_FORCEINLINE int16_t __REVSH(int16_t value)
 935:/home/phong/Documents/thesis/stm32f4/stm-idf/components/cmsis/include/cmsis_gcc.h **** {
 936:/home/phong/Documents/thesis/stm32f4/stm-idf/components/cmsis/include/cmsis_gcc.h **** #if (__GNUC__ > 4) || (__GNUC__ == 4 && __GNUC_MINOR__ >= 8)
 937:/home/phong/Documents/thesis/stm32f4/stm-idf/components/cmsis/include/cmsis_gcc.h ****   return (int16_t)__builtin_bswap16(value);
 938:/home/phong/Documents/thesis/stm32f4/stm-idf/components/cmsis/include/cmsis_gcc.h **** #else
 939:/home/phong/Documents/thesis/stm32f4/stm-idf/components/cmsis/include/cmsis_gcc.h ****   int16_t result;
 940:/home/phong/Documents/thesis/stm32f4/stm-idf/components/cmsis/include/cmsis_gcc.h **** 
 941:/home/phong/Documents/thesis/stm32f4/stm-idf/components/cmsis/include/cmsis_gcc.h ****   __ASM volatile ("revsh %0, %1" : __CMSIS_GCC_OUT_REG (result) : __CMSIS_GCC_USE_REG (value) );
 942:/home/phong/Documents/thesis/stm32f4/stm-idf/components/cmsis/include/cmsis_gcc.h ****   return result;
 943:/home/phong/Documents/thesis/stm32f4/stm-idf/components/cmsis/include/cmsis_gcc.h **** #endif
 944:/home/phong/Documents/thesis/stm32f4/stm-idf/components/cmsis/include/cmsis_gcc.h **** }
 945:/home/phong/Documents/thesis/stm32f4/stm-idf/components/cmsis/include/cmsis_gcc.h **** 
 946:/home/phong/Documents/thesis/stm32f4/stm-idf/components/cmsis/include/cmsis_gcc.h **** 
 947:/home/phong/Documents/thesis/stm32f4/stm-idf/components/cmsis/include/cmsis_gcc.h **** /**
 948:/home/phong/Documents/thesis/stm32f4/stm-idf/components/cmsis/include/cmsis_gcc.h ****   \brief   Rotate Right in unsigned value (32 bit)
 949:/home/phong/Documents/thesis/stm32f4/stm-idf/components/cmsis/include/cmsis_gcc.h ****   \details Rotate Right (immediate) provides the value of the contents of a register rotated by a v
 950:/home/phong/Documents/thesis/stm32f4/stm-idf/components/cmsis/include/cmsis_gcc.h ****   \param [in]    op1  Value to rotate
 951:/home/phong/Documents/thesis/stm32f4/stm-idf/components/cmsis/include/cmsis_gcc.h ****   \param [in]    op2  Number of Bits to rotate
 952:/home/phong/Documents/thesis/stm32f4/stm-idf/components/cmsis/include/cmsis_gcc.h ****   \return               Rotated value
 953:/home/phong/Documents/thesis/stm32f4/stm-idf/components/cmsis/include/cmsis_gcc.h ****  */
 954:/home/phong/Documents/thesis/stm32f4/stm-idf/components/cmsis/include/cmsis_gcc.h **** __STATIC_FORCEINLINE uint32_t __ROR(uint32_t op1, uint32_t op2)
 955:/home/phong/Documents/thesis/stm32f4/stm-idf/components/cmsis/include/cmsis_gcc.h **** {
 956:/home/phong/Documents/thesis/stm32f4/stm-idf/components/cmsis/include/cmsis_gcc.h ****   op2 %= 32U;
ARM GAS  /tmp/ccW24XdO.s 			page 70


 957:/home/phong/Documents/thesis/stm32f4/stm-idf/components/cmsis/include/cmsis_gcc.h ****   if (op2 == 0U)
 958:/home/phong/Documents/thesis/stm32f4/stm-idf/components/cmsis/include/cmsis_gcc.h ****   {
 959:/home/phong/Documents/thesis/stm32f4/stm-idf/components/cmsis/include/cmsis_gcc.h ****     return op1;
 960:/home/phong/Documents/thesis/stm32f4/stm-idf/components/cmsis/include/cmsis_gcc.h ****   }
 961:/home/phong/Documents/thesis/stm32f4/stm-idf/components/cmsis/include/cmsis_gcc.h ****   return (op1 >> op2) | (op1 << (32U - op2));
 962:/home/phong/Documents/thesis/stm32f4/stm-idf/components/cmsis/include/cmsis_gcc.h **** }
 963:/home/phong/Documents/thesis/stm32f4/stm-idf/components/cmsis/include/cmsis_gcc.h **** 
 964:/home/phong/Documents/thesis/stm32f4/stm-idf/components/cmsis/include/cmsis_gcc.h **** 
 965:/home/phong/Documents/thesis/stm32f4/stm-idf/components/cmsis/include/cmsis_gcc.h **** /**
 966:/home/phong/Documents/thesis/stm32f4/stm-idf/components/cmsis/include/cmsis_gcc.h ****   \brief   Breakpoint
 967:/home/phong/Documents/thesis/stm32f4/stm-idf/components/cmsis/include/cmsis_gcc.h ****   \details Causes the processor to enter Debug state.
 968:/home/phong/Documents/thesis/stm32f4/stm-idf/components/cmsis/include/cmsis_gcc.h ****            Debug tools can use this to investigate system state when the instruction at a particula
 969:/home/phong/Documents/thesis/stm32f4/stm-idf/components/cmsis/include/cmsis_gcc.h ****   \param [in]    value  is ignored by the processor.
 970:/home/phong/Documents/thesis/stm32f4/stm-idf/components/cmsis/include/cmsis_gcc.h ****                  If required, a debugger can use it to store additional information about the break
 971:/home/phong/Documents/thesis/stm32f4/stm-idf/components/cmsis/include/cmsis_gcc.h ****  */
 972:/home/phong/Documents/thesis/stm32f4/stm-idf/components/cmsis/include/cmsis_gcc.h **** #define __BKPT(value)                       __ASM volatile ("bkpt "#value)
 973:/home/phong/Documents/thesis/stm32f4/stm-idf/components/cmsis/include/cmsis_gcc.h **** 
 974:/home/phong/Documents/thesis/stm32f4/stm-idf/components/cmsis/include/cmsis_gcc.h **** 
 975:/home/phong/Documents/thesis/stm32f4/stm-idf/components/cmsis/include/cmsis_gcc.h **** /**
 976:/home/phong/Documents/thesis/stm32f4/stm-idf/components/cmsis/include/cmsis_gcc.h ****   \brief   Reverse bit order of value
 977:/home/phong/Documents/thesis/stm32f4/stm-idf/components/cmsis/include/cmsis_gcc.h ****   \details Reverses the bit order of the given value.
 978:/home/phong/Documents/thesis/stm32f4/stm-idf/components/cmsis/include/cmsis_gcc.h ****   \param [in]    value  Value to reverse
 979:/home/phong/Documents/thesis/stm32f4/stm-idf/components/cmsis/include/cmsis_gcc.h ****   \return               Reversed value
 980:/home/phong/Documents/thesis/stm32f4/stm-idf/components/cmsis/include/cmsis_gcc.h ****  */
 981:/home/phong/Documents/thesis/stm32f4/stm-idf/components/cmsis/include/cmsis_gcc.h **** __STATIC_FORCEINLINE uint32_t __RBIT(uint32_t value)
 982:/home/phong/Documents/thesis/stm32f4/stm-idf/components/cmsis/include/cmsis_gcc.h **** {
 983:/home/phong/Documents/thesis/stm32f4/stm-idf/components/cmsis/include/cmsis_gcc.h ****   uint32_t result;
 984:/home/phong/Documents/thesis/stm32f4/stm-idf/components/cmsis/include/cmsis_gcc.h **** 
 985:/home/phong/Documents/thesis/stm32f4/stm-idf/components/cmsis/include/cmsis_gcc.h **** #if ((defined (__ARM_ARCH_7M__      ) && (__ARM_ARCH_7M__      == 1)) || \
 986:/home/phong/Documents/thesis/stm32f4/stm-idf/components/cmsis/include/cmsis_gcc.h ****      (defined (__ARM_ARCH_7EM__     ) && (__ARM_ARCH_7EM__     == 1)) || \
 987:/home/phong/Documents/thesis/stm32f4/stm-idf/components/cmsis/include/cmsis_gcc.h ****      (defined (__ARM_ARCH_8M_MAIN__ ) && (__ARM_ARCH_8M_MAIN__ == 1))    )
 988:/home/phong/Documents/thesis/stm32f4/stm-idf/components/cmsis/include/cmsis_gcc.h ****    __ASM volatile ("rbit %0, %1" : "=r" (result) : "r" (value) );
 1340              		.loc 2 988 0
 1341              		.syntax unified
 1342              	@ 988 "/home/phong/Documents/thesis/stm32f4/stm-idf/components/cmsis/include/cmsis_gcc.h" 1
 1343 0010 91FAA1F1 		rbit r1, r1
 1344              	@ 0 "" 2
 1345              	.LVL125:
 1346              		.thumb
 1347              		.syntax unified
 1348              	.LBE5:
 1349              	.LBE4:
1495:/home/phong/Documents/thesis/stm32f4/stm-idf/components/stm32f4xx_hal_driver/stm32f4xx_hal_can.c **** 
 1350              		.loc 1 1495 0
 1351 0014 B1FA81F1 		clz	r1, r1
 1352              	.LVL126:
1498:/home/phong/Documents/thesis/stm32f4/stm-idf/components/stm32f4xx_hal_driver/stm32f4xx_hal_can.c ****   }
 1353              		.loc 1 1498 0
 1354 0018 0368     		ldr	r3, [r0]
 1355 001a 1831     		adds	r1, r1, #24
 1356              	.LVL127:
 1357 001c 03EB0111 		add	r1, r3, r1, lsl #4
 1358              	.LVL128:
 1359 0020 4868     		ldr	r0, [r1, #4]
 1360              	.LVL129:
 1361 0022 000C     		lsrs	r0, r0, #16
 1362              	.LVL130:
ARM GAS  /tmp/ccW24XdO.s 			page 71


 1363 0024 7047     		bx	lr
 1364              		.cfi_endproc
 1365              	.LFE144:
 1367              		.section	.text.HAL_CAN_GetRxMessage,"ax",%progbits
 1368              		.align	1
 1369              		.global	HAL_CAN_GetRxMessage
 1370              		.syntax unified
 1371              		.thumb
 1372              		.thumb_func
 1373              		.fpu fpv4-sp-d16
 1375              	HAL_CAN_GetRxMessage:
 1376              	.LFB145:
1504:/home/phong/Documents/thesis/stm32f4/stm-idf/components/stm32f4xx_hal_driver/stm32f4xx_hal_can.c **** 
1505:/home/phong/Documents/thesis/stm32f4/stm-idf/components/stm32f4xx_hal_driver/stm32f4xx_hal_can.c **** /**
1506:/home/phong/Documents/thesis/stm32f4/stm-idf/components/stm32f4xx_hal_driver/stm32f4xx_hal_can.c ****   * @brief  Get an CAN frame from the Rx FIFO zone into the message RAM.
1507:/home/phong/Documents/thesis/stm32f4/stm-idf/components/stm32f4xx_hal_driver/stm32f4xx_hal_can.c ****   * @param  hcan pointer to an CAN_HandleTypeDef structure that contains
1508:/home/phong/Documents/thesis/stm32f4/stm-idf/components/stm32f4xx_hal_driver/stm32f4xx_hal_can.c ****   *         the configuration information for the specified CAN.
1509:/home/phong/Documents/thesis/stm32f4/stm-idf/components/stm32f4xx_hal_driver/stm32f4xx_hal_can.c ****   * @param  RxFifo Fifo number of the received message to be read.
1510:/home/phong/Documents/thesis/stm32f4/stm-idf/components/stm32f4xx_hal_driver/stm32f4xx_hal_can.c ****   *         This parameter can be a value of @arg CAN_receive_FIFO_number.
1511:/home/phong/Documents/thesis/stm32f4/stm-idf/components/stm32f4xx_hal_driver/stm32f4xx_hal_can.c ****   * @param  pHeader pointer to a CAN_RxHeaderTypeDef structure where the header
1512:/home/phong/Documents/thesis/stm32f4/stm-idf/components/stm32f4xx_hal_driver/stm32f4xx_hal_can.c ****   *         of the Rx frame will be stored.
1513:/home/phong/Documents/thesis/stm32f4/stm-idf/components/stm32f4xx_hal_driver/stm32f4xx_hal_can.c ****   * @param  aData array where the payload of the Rx frame will be stored.
1514:/home/phong/Documents/thesis/stm32f4/stm-idf/components/stm32f4xx_hal_driver/stm32f4xx_hal_can.c ****   * @retval HAL status
1515:/home/phong/Documents/thesis/stm32f4/stm-idf/components/stm32f4xx_hal_driver/stm32f4xx_hal_can.c ****   */
1516:/home/phong/Documents/thesis/stm32f4/stm-idf/components/stm32f4xx_hal_driver/stm32f4xx_hal_can.c **** HAL_StatusTypeDef HAL_CAN_GetRxMessage(CAN_HandleTypeDef *hcan, uint32_t RxFifo, CAN_RxHeaderTypeDe
1517:/home/phong/Documents/thesis/stm32f4/stm-idf/components/stm32f4xx_hal_driver/stm32f4xx_hal_can.c **** {
 1377              		.loc 1 1517 0
 1378              		.cfi_startproc
 1379              		@ args = 0, pretend = 0, frame = 0
 1380              		@ frame_needed = 0, uses_anonymous_args = 0
 1381              		@ link register save eliminated.
 1382              	.LVL131:
 1383 0000 30B4     		push	{r4, r5}
 1384              	.LCFI15:
 1385              		.cfi_def_cfa_offset 8
 1386              		.cfi_offset 4, -8
 1387              		.cfi_offset 5, -4
1518:/home/phong/Documents/thesis/stm32f4/stm-idf/components/stm32f4xx_hal_driver/stm32f4xx_hal_can.c ****   HAL_CAN_StateTypeDef state = hcan->State;
 1388              		.loc 1 1518 0
 1389 0002 90F82040 		ldrb	r4, [r0, #32]	@ zero_extendqisi2
 1390              	.LVL132:
1519:/home/phong/Documents/thesis/stm32f4/stm-idf/components/stm32f4xx_hal_driver/stm32f4xx_hal_can.c **** 
1520:/home/phong/Documents/thesis/stm32f4/stm-idf/components/stm32f4xx_hal_driver/stm32f4xx_hal_can.c ****   assert_param(IS_CAN_RX_FIFO(RxFifo));
1521:/home/phong/Documents/thesis/stm32f4/stm-idf/components/stm32f4xx_hal_driver/stm32f4xx_hal_can.c **** 
1522:/home/phong/Documents/thesis/stm32f4/stm-idf/components/stm32f4xx_hal_driver/stm32f4xx_hal_can.c ****   if ((state == HAL_CAN_STATE_READY) ||
 1391              		.loc 1 1522 0
 1392 0006 013C     		subs	r4, r4, #1
 1393              	.LVL133:
 1394 0008 E4B2     		uxtb	r4, r4
 1395 000a 012C     		cmp	r4, #1
 1396 000c 06D9     		bls	.L143
1523:/home/phong/Documents/thesis/stm32f4/stm-idf/components/stm32f4xx_hal_driver/stm32f4xx_hal_can.c ****       (state == HAL_CAN_STATE_LISTENING))
1524:/home/phong/Documents/thesis/stm32f4/stm-idf/components/stm32f4xx_hal_driver/stm32f4xx_hal_can.c ****   {
1525:/home/phong/Documents/thesis/stm32f4/stm-idf/components/stm32f4xx_hal_driver/stm32f4xx_hal_can.c ****     /* Check the Rx FIFO */
1526:/home/phong/Documents/thesis/stm32f4/stm-idf/components/stm32f4xx_hal_driver/stm32f4xx_hal_can.c ****     if (RxFifo == CAN_RX_FIFO0) /* Rx element is assigned to Rx FIFO 0 */
1527:/home/phong/Documents/thesis/stm32f4/stm-idf/components/stm32f4xx_hal_driver/stm32f4xx_hal_can.c ****     {
1528:/home/phong/Documents/thesis/stm32f4/stm-idf/components/stm32f4xx_hal_driver/stm32f4xx_hal_can.c ****       /* Check that the Rx FIFO 0 is not empty */
ARM GAS  /tmp/ccW24XdO.s 			page 72


1529:/home/phong/Documents/thesis/stm32f4/stm-idf/components/stm32f4xx_hal_driver/stm32f4xx_hal_can.c ****       if ((hcan->Instance->RF0R & CAN_RF0R_FMP0) == 0U)
1530:/home/phong/Documents/thesis/stm32f4/stm-idf/components/stm32f4xx_hal_driver/stm32f4xx_hal_can.c ****       {
1531:/home/phong/Documents/thesis/stm32f4/stm-idf/components/stm32f4xx_hal_driver/stm32f4xx_hal_can.c ****         /* Update error code */
1532:/home/phong/Documents/thesis/stm32f4/stm-idf/components/stm32f4xx_hal_driver/stm32f4xx_hal_can.c ****         hcan->ErrorCode |= HAL_CAN_ERROR_PARAM;
1533:/home/phong/Documents/thesis/stm32f4/stm-idf/components/stm32f4xx_hal_driver/stm32f4xx_hal_can.c **** 
1534:/home/phong/Documents/thesis/stm32f4/stm-idf/components/stm32f4xx_hal_driver/stm32f4xx_hal_can.c ****         return HAL_ERROR;
1535:/home/phong/Documents/thesis/stm32f4/stm-idf/components/stm32f4xx_hal_driver/stm32f4xx_hal_can.c ****       }
1536:/home/phong/Documents/thesis/stm32f4/stm-idf/components/stm32f4xx_hal_driver/stm32f4xx_hal_can.c ****     }
1537:/home/phong/Documents/thesis/stm32f4/stm-idf/components/stm32f4xx_hal_driver/stm32f4xx_hal_can.c ****     else /* Rx element is assigned to Rx FIFO 1 */
1538:/home/phong/Documents/thesis/stm32f4/stm-idf/components/stm32f4xx_hal_driver/stm32f4xx_hal_can.c ****     {
1539:/home/phong/Documents/thesis/stm32f4/stm-idf/components/stm32f4xx_hal_driver/stm32f4xx_hal_can.c ****       /* Check that the Rx FIFO 1 is not empty */
1540:/home/phong/Documents/thesis/stm32f4/stm-idf/components/stm32f4xx_hal_driver/stm32f4xx_hal_can.c ****       if ((hcan->Instance->RF1R & CAN_RF1R_FMP1) == 0U)
1541:/home/phong/Documents/thesis/stm32f4/stm-idf/components/stm32f4xx_hal_driver/stm32f4xx_hal_can.c ****       {
1542:/home/phong/Documents/thesis/stm32f4/stm-idf/components/stm32f4xx_hal_driver/stm32f4xx_hal_can.c ****         /* Update error code */
1543:/home/phong/Documents/thesis/stm32f4/stm-idf/components/stm32f4xx_hal_driver/stm32f4xx_hal_can.c ****         hcan->ErrorCode |= HAL_CAN_ERROR_PARAM;
1544:/home/phong/Documents/thesis/stm32f4/stm-idf/components/stm32f4xx_hal_driver/stm32f4xx_hal_can.c **** 
1545:/home/phong/Documents/thesis/stm32f4/stm-idf/components/stm32f4xx_hal_driver/stm32f4xx_hal_can.c ****         return HAL_ERROR;
1546:/home/phong/Documents/thesis/stm32f4/stm-idf/components/stm32f4xx_hal_driver/stm32f4xx_hal_can.c ****       }
1547:/home/phong/Documents/thesis/stm32f4/stm-idf/components/stm32f4xx_hal_driver/stm32f4xx_hal_can.c ****     }
1548:/home/phong/Documents/thesis/stm32f4/stm-idf/components/stm32f4xx_hal_driver/stm32f4xx_hal_can.c **** 
1549:/home/phong/Documents/thesis/stm32f4/stm-idf/components/stm32f4xx_hal_driver/stm32f4xx_hal_can.c ****     /* Get the header */
1550:/home/phong/Documents/thesis/stm32f4/stm-idf/components/stm32f4xx_hal_driver/stm32f4xx_hal_can.c ****     pHeader->IDE = CAN_RI0R_IDE & hcan->Instance->sFIFOMailBox[RxFifo].RIR;
1551:/home/phong/Documents/thesis/stm32f4/stm-idf/components/stm32f4xx_hal_driver/stm32f4xx_hal_can.c ****     if (pHeader->IDE == CAN_ID_STD)
1552:/home/phong/Documents/thesis/stm32f4/stm-idf/components/stm32f4xx_hal_driver/stm32f4xx_hal_can.c ****     {
1553:/home/phong/Documents/thesis/stm32f4/stm-idf/components/stm32f4xx_hal_driver/stm32f4xx_hal_can.c ****       pHeader->StdId = (CAN_RI0R_STID & hcan->Instance->sFIFOMailBox[RxFifo].RIR) >> CAN_TI0R_STID_
1554:/home/phong/Documents/thesis/stm32f4/stm-idf/components/stm32f4xx_hal_driver/stm32f4xx_hal_can.c ****     }
1555:/home/phong/Documents/thesis/stm32f4/stm-idf/components/stm32f4xx_hal_driver/stm32f4xx_hal_can.c ****     else
1556:/home/phong/Documents/thesis/stm32f4/stm-idf/components/stm32f4xx_hal_driver/stm32f4xx_hal_can.c ****     {
1557:/home/phong/Documents/thesis/stm32f4/stm-idf/components/stm32f4xx_hal_driver/stm32f4xx_hal_can.c ****       pHeader->ExtId = ((CAN_RI0R_EXID | CAN_RI0R_STID) & hcan->Instance->sFIFOMailBox[RxFifo].RIR)
1558:/home/phong/Documents/thesis/stm32f4/stm-idf/components/stm32f4xx_hal_driver/stm32f4xx_hal_can.c ****     }
1559:/home/phong/Documents/thesis/stm32f4/stm-idf/components/stm32f4xx_hal_driver/stm32f4xx_hal_can.c ****     pHeader->RTR = (CAN_RI0R_RTR & hcan->Instance->sFIFOMailBox[RxFifo].RIR);
1560:/home/phong/Documents/thesis/stm32f4/stm-idf/components/stm32f4xx_hal_driver/stm32f4xx_hal_can.c ****     pHeader->DLC = (CAN_RDT0R_DLC & hcan->Instance->sFIFOMailBox[RxFifo].RDTR) >> CAN_RDT0R_DLC_Pos
1561:/home/phong/Documents/thesis/stm32f4/stm-idf/components/stm32f4xx_hal_driver/stm32f4xx_hal_can.c ****     pHeader->FilterMatchIndex = (CAN_RDT0R_FMI & hcan->Instance->sFIFOMailBox[RxFifo].RDTR) >> CAN_
1562:/home/phong/Documents/thesis/stm32f4/stm-idf/components/stm32f4xx_hal_driver/stm32f4xx_hal_can.c ****     pHeader->Timestamp = (CAN_RDT0R_TIME & hcan->Instance->sFIFOMailBox[RxFifo].RDTR) >> CAN_RDT0R_
1563:/home/phong/Documents/thesis/stm32f4/stm-idf/components/stm32f4xx_hal_driver/stm32f4xx_hal_can.c **** 
1564:/home/phong/Documents/thesis/stm32f4/stm-idf/components/stm32f4xx_hal_driver/stm32f4xx_hal_can.c ****     /* Get the data */
1565:/home/phong/Documents/thesis/stm32f4/stm-idf/components/stm32f4xx_hal_driver/stm32f4xx_hal_can.c ****     aData[0] = (uint8_t)((CAN_RDL0R_DATA0 & hcan->Instance->sFIFOMailBox[RxFifo].RDLR) >> CAN_RDL0R
1566:/home/phong/Documents/thesis/stm32f4/stm-idf/components/stm32f4xx_hal_driver/stm32f4xx_hal_can.c ****     aData[1] = (uint8_t)((CAN_RDL0R_DATA1 & hcan->Instance->sFIFOMailBox[RxFifo].RDLR) >> CAN_RDL0R
1567:/home/phong/Documents/thesis/stm32f4/stm-idf/components/stm32f4xx_hal_driver/stm32f4xx_hal_can.c ****     aData[2] = (uint8_t)((CAN_RDL0R_DATA2 & hcan->Instance->sFIFOMailBox[RxFifo].RDLR) >> CAN_RDL0R
1568:/home/phong/Documents/thesis/stm32f4/stm-idf/components/stm32f4xx_hal_driver/stm32f4xx_hal_can.c ****     aData[3] = (uint8_t)((CAN_RDL0R_DATA3 & hcan->Instance->sFIFOMailBox[RxFifo].RDLR) >> CAN_RDL0R
1569:/home/phong/Documents/thesis/stm32f4/stm-idf/components/stm32f4xx_hal_driver/stm32f4xx_hal_can.c ****     aData[4] = (uint8_t)((CAN_RDH0R_DATA4 & hcan->Instance->sFIFOMailBox[RxFifo].RDHR) >> CAN_RDH0R
1570:/home/phong/Documents/thesis/stm32f4/stm-idf/components/stm32f4xx_hal_driver/stm32f4xx_hal_can.c ****     aData[5] = (uint8_t)((CAN_RDH0R_DATA5 & hcan->Instance->sFIFOMailBox[RxFifo].RDHR) >> CAN_RDH0R
1571:/home/phong/Documents/thesis/stm32f4/stm-idf/components/stm32f4xx_hal_driver/stm32f4xx_hal_can.c ****     aData[6] = (uint8_t)((CAN_RDH0R_DATA6 & hcan->Instance->sFIFOMailBox[RxFifo].RDHR) >> CAN_RDH0R
1572:/home/phong/Documents/thesis/stm32f4/stm-idf/components/stm32f4xx_hal_driver/stm32f4xx_hal_can.c ****     aData[7] = (uint8_t)((CAN_RDH0R_DATA7 & hcan->Instance->sFIFOMailBox[RxFifo].RDHR) >> CAN_RDH0R
1573:/home/phong/Documents/thesis/stm32f4/stm-idf/components/stm32f4xx_hal_driver/stm32f4xx_hal_can.c **** 
1574:/home/phong/Documents/thesis/stm32f4/stm-idf/components/stm32f4xx_hal_driver/stm32f4xx_hal_can.c ****     /* Release the FIFO */
1575:/home/phong/Documents/thesis/stm32f4/stm-idf/components/stm32f4xx_hal_driver/stm32f4xx_hal_can.c ****     if (RxFifo == CAN_RX_FIFO0) /* Rx element is assigned to Rx FIFO 0 */
1576:/home/phong/Documents/thesis/stm32f4/stm-idf/components/stm32f4xx_hal_driver/stm32f4xx_hal_can.c ****     {
1577:/home/phong/Documents/thesis/stm32f4/stm-idf/components/stm32f4xx_hal_driver/stm32f4xx_hal_can.c ****       /* Release RX FIFO 0 */
1578:/home/phong/Documents/thesis/stm32f4/stm-idf/components/stm32f4xx_hal_driver/stm32f4xx_hal_can.c ****       SET_BIT(hcan->Instance->RF0R, CAN_RF0R_RFOM0);
1579:/home/phong/Documents/thesis/stm32f4/stm-idf/components/stm32f4xx_hal_driver/stm32f4xx_hal_can.c ****     }
1580:/home/phong/Documents/thesis/stm32f4/stm-idf/components/stm32f4xx_hal_driver/stm32f4xx_hal_can.c ****     else /* Rx element is assigned to Rx FIFO 1 */
1581:/home/phong/Documents/thesis/stm32f4/stm-idf/components/stm32f4xx_hal_driver/stm32f4xx_hal_can.c ****     {
1582:/home/phong/Documents/thesis/stm32f4/stm-idf/components/stm32f4xx_hal_driver/stm32f4xx_hal_can.c ****       /* Release RX FIFO 1 */
1583:/home/phong/Documents/thesis/stm32f4/stm-idf/components/stm32f4xx_hal_driver/stm32f4xx_hal_can.c ****       SET_BIT(hcan->Instance->RF1R, CAN_RF1R_RFOM1);
1584:/home/phong/Documents/thesis/stm32f4/stm-idf/components/stm32f4xx_hal_driver/stm32f4xx_hal_can.c ****     }
1585:/home/phong/Documents/thesis/stm32f4/stm-idf/components/stm32f4xx_hal_driver/stm32f4xx_hal_can.c **** 
ARM GAS  /tmp/ccW24XdO.s 			page 73


1586:/home/phong/Documents/thesis/stm32f4/stm-idf/components/stm32f4xx_hal_driver/stm32f4xx_hal_can.c ****     /* Return function status */
1587:/home/phong/Documents/thesis/stm32f4/stm-idf/components/stm32f4xx_hal_driver/stm32f4xx_hal_can.c ****     return HAL_OK;
1588:/home/phong/Documents/thesis/stm32f4/stm-idf/components/stm32f4xx_hal_driver/stm32f4xx_hal_can.c ****   }
1589:/home/phong/Documents/thesis/stm32f4/stm-idf/components/stm32f4xx_hal_driver/stm32f4xx_hal_can.c ****   else
1590:/home/phong/Documents/thesis/stm32f4/stm-idf/components/stm32f4xx_hal_driver/stm32f4xx_hal_can.c ****   {
1591:/home/phong/Documents/thesis/stm32f4/stm-idf/components/stm32f4xx_hal_driver/stm32f4xx_hal_can.c ****     /* Update error code */
1592:/home/phong/Documents/thesis/stm32f4/stm-idf/components/stm32f4xx_hal_driver/stm32f4xx_hal_can.c ****     hcan->ErrorCode |= HAL_CAN_ERROR_NOT_INITIALIZED;
 1397              		.loc 1 1592 0
 1398 000e 436A     		ldr	r3, [r0, #36]
 1399              	.LVL134:
 1400 0010 43F48023 		orr	r3, r3, #262144
 1401 0014 4362     		str	r3, [r0, #36]
1593:/home/phong/Documents/thesis/stm32f4/stm-idf/components/stm32f4xx_hal_driver/stm32f4xx_hal_can.c **** 
1594:/home/phong/Documents/thesis/stm32f4/stm-idf/components/stm32f4xx_hal_driver/stm32f4xx_hal_can.c ****     return HAL_ERROR;
 1402              		.loc 1 1594 0
 1403 0016 0120     		movs	r0, #1
 1404              	.LVL135:
 1405              	.L138:
1595:/home/phong/Documents/thesis/stm32f4/stm-idf/components/stm32f4xx_hal_driver/stm32f4xx_hal_can.c ****   }
1596:/home/phong/Documents/thesis/stm32f4/stm-idf/components/stm32f4xx_hal_driver/stm32f4xx_hal_can.c **** }
 1406              		.loc 1 1596 0
 1407 0018 30BC     		pop	{r4, r5}
 1408              	.LCFI16:
 1409              		.cfi_remember_state
 1410              		.cfi_restore 5
 1411              		.cfi_restore 4
 1412              		.cfi_def_cfa_offset 0
 1413 001a 7047     		bx	lr
 1414              	.LVL136:
 1415              	.L143:
 1416              	.LCFI17:
 1417              		.cfi_restore_state
1526:/home/phong/Documents/thesis/stm32f4/stm-idf/components/stm32f4xx_hal_driver/stm32f4xx_hal_can.c ****     {
 1418              		.loc 1 1526 0
 1419 001c 0029     		cmp	r1, #0
 1420 001e 6FD1     		bne	.L136
1529:/home/phong/Documents/thesis/stm32f4/stm-idf/components/stm32f4xx_hal_driver/stm32f4xx_hal_can.c ****       {
 1421              		.loc 1 1529 0
 1422 0020 0468     		ldr	r4, [r0]
 1423 0022 E468     		ldr	r4, [r4, #12]
 1424 0024 14F0030F 		tst	r4, #3
 1425 0028 64D0     		beq	.L144
 1426              	.L137:
1550:/home/phong/Documents/thesis/stm32f4/stm-idf/components/stm32f4xx_hal_driver/stm32f4xx_hal_can.c ****     if (pHeader->IDE == CAN_ID_STD)
 1427              		.loc 1 1550 0
 1428 002a 0568     		ldr	r5, [r0]
 1429 002c 01F11B04 		add	r4, r1, #27
 1430 0030 2401     		lsls	r4, r4, #4
 1431 0032 2C59     		ldr	r4, [r5, r4]
 1432 0034 04F00404 		and	r4, r4, #4
 1433 0038 9460     		str	r4, [r2, #8]
1551:/home/phong/Documents/thesis/stm32f4/stm-idf/components/stm32f4xx_hal_driver/stm32f4xx_hal_can.c ****     {
 1434              		.loc 1 1551 0
 1435 003a 002C     		cmp	r4, #0
 1436 003c 6BD1     		bne	.L139
1553:/home/phong/Documents/thesis/stm32f4/stm-idf/components/stm32f4xx_hal_driver/stm32f4xx_hal_can.c ****     }
 1437              		.loc 1 1553 0
ARM GAS  /tmp/ccW24XdO.s 			page 74


 1438 003e 0568     		ldr	r5, [r0]
 1439 0040 01F11B04 		add	r4, r1, #27
 1440 0044 2401     		lsls	r4, r4, #4
 1441 0046 2C59     		ldr	r4, [r5, r4]
 1442 0048 640D     		lsrs	r4, r4, #21
 1443 004a 1460     		str	r4, [r2]
 1444              	.L140:
1559:/home/phong/Documents/thesis/stm32f4/stm-idf/components/stm32f4xx_hal_driver/stm32f4xx_hal_can.c ****     pHeader->DLC = (CAN_RDT0R_DLC & hcan->Instance->sFIFOMailBox[RxFifo].RDTR) >> CAN_RDT0R_DLC_Pos
 1445              		.loc 1 1559 0
 1446 004c 0568     		ldr	r5, [r0]
 1447 004e 01F11B04 		add	r4, r1, #27
 1448 0052 2401     		lsls	r4, r4, #4
 1449 0054 2D59     		ldr	r5, [r5, r4]
 1450 0056 05F00205 		and	r5, r5, #2
 1451 005a D560     		str	r5, [r2, #12]
1560:/home/phong/Documents/thesis/stm32f4/stm-idf/components/stm32f4xx_hal_driver/stm32f4xx_hal_can.c ****     pHeader->FilterMatchIndex = (CAN_RDT0R_FMI & hcan->Instance->sFIFOMailBox[RxFifo].RDTR) >> CAN_
 1452              		.loc 1 1560 0
 1453 005c 0568     		ldr	r5, [r0]
 1454 005e 2544     		add	r5, r5, r4
 1455 0060 6D68     		ldr	r5, [r5, #4]
 1456 0062 05F00F05 		and	r5, r5, #15
 1457 0066 1561     		str	r5, [r2, #16]
1561:/home/phong/Documents/thesis/stm32f4/stm-idf/components/stm32f4xx_hal_driver/stm32f4xx_hal_can.c ****     pHeader->Timestamp = (CAN_RDT0R_TIME & hcan->Instance->sFIFOMailBox[RxFifo].RDTR) >> CAN_RDT0R_
 1458              		.loc 1 1561 0
 1459 0068 0568     		ldr	r5, [r0]
 1460 006a 2544     		add	r5, r5, r4
 1461 006c 6D68     		ldr	r5, [r5, #4]
 1462 006e C5F30725 		ubfx	r5, r5, #8, #8
 1463 0072 9561     		str	r5, [r2, #24]
1562:/home/phong/Documents/thesis/stm32f4/stm-idf/components/stm32f4xx_hal_driver/stm32f4xx_hal_can.c **** 
 1464              		.loc 1 1562 0
 1465 0074 0568     		ldr	r5, [r0]
 1466 0076 2C44     		add	r4, r4, r5
 1467 0078 6468     		ldr	r4, [r4, #4]
 1468 007a 240C     		lsrs	r4, r4, #16
 1469 007c 5461     		str	r4, [r2, #20]
1565:/home/phong/Documents/thesis/stm32f4/stm-idf/components/stm32f4xx_hal_driver/stm32f4xx_hal_can.c ****     aData[1] = (uint8_t)((CAN_RDL0R_DATA1 & hcan->Instance->sFIFOMailBox[RxFifo].RDLR) >> CAN_RDL0R
 1470              		.loc 1 1565 0
 1471 007e 0468     		ldr	r4, [r0]
 1472 0080 0A01     		lsls	r2, r1, #4
 1473              	.LVL137:
 1474 0082 1444     		add	r4, r4, r2
 1475 0084 D4F8B841 		ldr	r4, [r4, #440]
 1476 0088 1C70     		strb	r4, [r3]
1566:/home/phong/Documents/thesis/stm32f4/stm-idf/components/stm32f4xx_hal_driver/stm32f4xx_hal_can.c ****     aData[2] = (uint8_t)((CAN_RDL0R_DATA2 & hcan->Instance->sFIFOMailBox[RxFifo].RDLR) >> CAN_RDL0R
 1477              		.loc 1 1566 0
 1478 008a 0468     		ldr	r4, [r0]
 1479 008c 1444     		add	r4, r4, r2
 1480 008e D4F8B841 		ldr	r4, [r4, #440]
 1481 0092 C4F30724 		ubfx	r4, r4, #8, #8
 1482 0096 5C70     		strb	r4, [r3, #1]
1567:/home/phong/Documents/thesis/stm32f4/stm-idf/components/stm32f4xx_hal_driver/stm32f4xx_hal_can.c ****     aData[3] = (uint8_t)((CAN_RDL0R_DATA3 & hcan->Instance->sFIFOMailBox[RxFifo].RDLR) >> CAN_RDL0R
 1483              		.loc 1 1567 0
 1484 0098 0468     		ldr	r4, [r0]
 1485 009a 1444     		add	r4, r4, r2
 1486 009c D4F8B841 		ldr	r4, [r4, #440]
 1487 00a0 C4F30744 		ubfx	r4, r4, #16, #8
ARM GAS  /tmp/ccW24XdO.s 			page 75


 1488 00a4 9C70     		strb	r4, [r3, #2]
1568:/home/phong/Documents/thesis/stm32f4/stm-idf/components/stm32f4xx_hal_driver/stm32f4xx_hal_can.c ****     aData[4] = (uint8_t)((CAN_RDH0R_DATA4 & hcan->Instance->sFIFOMailBox[RxFifo].RDHR) >> CAN_RDH0R
 1489              		.loc 1 1568 0
 1490 00a6 0468     		ldr	r4, [r0]
 1491 00a8 1444     		add	r4, r4, r2
 1492 00aa D4F8B841 		ldr	r4, [r4, #440]
 1493 00ae 240E     		lsrs	r4, r4, #24
 1494 00b0 DC70     		strb	r4, [r3, #3]
1569:/home/phong/Documents/thesis/stm32f4/stm-idf/components/stm32f4xx_hal_driver/stm32f4xx_hal_can.c ****     aData[5] = (uint8_t)((CAN_RDH0R_DATA5 & hcan->Instance->sFIFOMailBox[RxFifo].RDHR) >> CAN_RDH0R
 1495              		.loc 1 1569 0
 1496 00b2 0468     		ldr	r4, [r0]
 1497 00b4 1444     		add	r4, r4, r2
 1498 00b6 D4F8BC41 		ldr	r4, [r4, #444]
 1499 00ba 1C71     		strb	r4, [r3, #4]
1570:/home/phong/Documents/thesis/stm32f4/stm-idf/components/stm32f4xx_hal_driver/stm32f4xx_hal_can.c ****     aData[6] = (uint8_t)((CAN_RDH0R_DATA6 & hcan->Instance->sFIFOMailBox[RxFifo].RDHR) >> CAN_RDH0R
 1500              		.loc 1 1570 0
 1501 00bc 0468     		ldr	r4, [r0]
 1502 00be 1444     		add	r4, r4, r2
 1503 00c0 D4F8BC41 		ldr	r4, [r4, #444]
 1504 00c4 C4F30724 		ubfx	r4, r4, #8, #8
 1505 00c8 5C71     		strb	r4, [r3, #5]
1571:/home/phong/Documents/thesis/stm32f4/stm-idf/components/stm32f4xx_hal_driver/stm32f4xx_hal_can.c ****     aData[7] = (uint8_t)((CAN_RDH0R_DATA7 & hcan->Instance->sFIFOMailBox[RxFifo].RDHR) >> CAN_RDH0R
 1506              		.loc 1 1571 0
 1507 00ca 0468     		ldr	r4, [r0]
 1508 00cc 1444     		add	r4, r4, r2
 1509 00ce D4F8BC41 		ldr	r4, [r4, #444]
 1510 00d2 C4F30744 		ubfx	r4, r4, #16, #8
 1511 00d6 9C71     		strb	r4, [r3, #6]
1572:/home/phong/Documents/thesis/stm32f4/stm-idf/components/stm32f4xx_hal_driver/stm32f4xx_hal_can.c **** 
 1512              		.loc 1 1572 0
 1513 00d8 0468     		ldr	r4, [r0]
 1514 00da 2244     		add	r2, r2, r4
 1515 00dc D2F8BC21 		ldr	r2, [r2, #444]
 1516 00e0 120E     		lsrs	r2, r2, #24
 1517 00e2 DA71     		strb	r2, [r3, #7]
1575:/home/phong/Documents/thesis/stm32f4/stm-idf/components/stm32f4xx_hal_driver/stm32f4xx_hal_can.c ****     {
 1518              		.loc 1 1575 0
 1519 00e4 F9B9     		cbnz	r1, .L141
1578:/home/phong/Documents/thesis/stm32f4/stm-idf/components/stm32f4xx_hal_driver/stm32f4xx_hal_can.c ****     }
 1520              		.loc 1 1578 0
 1521 00e6 0268     		ldr	r2, [r0]
 1522 00e8 D368     		ldr	r3, [r2, #12]
 1523              	.LVL138:
 1524 00ea 43F02003 		orr	r3, r3, #32
 1525 00ee D360     		str	r3, [r2, #12]
1587:/home/phong/Documents/thesis/stm32f4/stm-idf/components/stm32f4xx_hal_driver/stm32f4xx_hal_can.c ****   }
 1526              		.loc 1 1587 0
 1527 00f0 0020     		movs	r0, #0
 1528              	.LVL139:
 1529 00f2 91E7     		b	.L138
 1530              	.LVL140:
 1531              	.L144:
1532:/home/phong/Documents/thesis/stm32f4/stm-idf/components/stm32f4xx_hal_driver/stm32f4xx_hal_can.c **** 
 1532              		.loc 1 1532 0
 1533 00f4 436A     		ldr	r3, [r0, #36]
 1534              	.LVL141:
 1535 00f6 43F40013 		orr	r3, r3, #2097152
ARM GAS  /tmp/ccW24XdO.s 			page 76


 1536 00fa 4362     		str	r3, [r0, #36]
1534:/home/phong/Documents/thesis/stm32f4/stm-idf/components/stm32f4xx_hal_driver/stm32f4xx_hal_can.c ****       }
 1537              		.loc 1 1534 0
 1538 00fc 0120     		movs	r0, #1
 1539              	.LVL142:
 1540 00fe 8BE7     		b	.L138
 1541              	.LVL143:
 1542              	.L136:
1540:/home/phong/Documents/thesis/stm32f4/stm-idf/components/stm32f4xx_hal_driver/stm32f4xx_hal_can.c ****       {
 1543              		.loc 1 1540 0
 1544 0100 0468     		ldr	r4, [r0]
 1545 0102 2469     		ldr	r4, [r4, #16]
 1546 0104 14F0030F 		tst	r4, #3
 1547 0108 8FD1     		bne	.L137
1543:/home/phong/Documents/thesis/stm32f4/stm-idf/components/stm32f4xx_hal_driver/stm32f4xx_hal_can.c **** 
 1548              		.loc 1 1543 0
 1549 010a 436A     		ldr	r3, [r0, #36]
 1550              	.LVL144:
 1551 010c 43F40013 		orr	r3, r3, #2097152
 1552 0110 4362     		str	r3, [r0, #36]
1545:/home/phong/Documents/thesis/stm32f4/stm-idf/components/stm32f4xx_hal_driver/stm32f4xx_hal_can.c ****       }
 1553              		.loc 1 1545 0
 1554 0112 0120     		movs	r0, #1
 1555              	.LVL145:
 1556 0114 80E7     		b	.L138
 1557              	.LVL146:
 1558              	.L139:
1557:/home/phong/Documents/thesis/stm32f4/stm-idf/components/stm32f4xx_hal_driver/stm32f4xx_hal_can.c ****     }
 1559              		.loc 1 1557 0
 1560 0116 0568     		ldr	r5, [r0]
 1561 0118 01F11B04 		add	r4, r1, #27
 1562 011c 2401     		lsls	r4, r4, #4
 1563 011e 2C59     		ldr	r4, [r5, r4]
 1564 0120 E408     		lsrs	r4, r4, #3
 1565 0122 5460     		str	r4, [r2, #4]
 1566 0124 92E7     		b	.L140
 1567              	.LVL147:
 1568              	.L141:
1583:/home/phong/Documents/thesis/stm32f4/stm-idf/components/stm32f4xx_hal_driver/stm32f4xx_hal_can.c ****     }
 1569              		.loc 1 1583 0
 1570 0126 0268     		ldr	r2, [r0]
 1571 0128 1369     		ldr	r3, [r2, #16]
 1572              	.LVL148:
 1573 012a 43F02003 		orr	r3, r3, #32
 1574 012e 1361     		str	r3, [r2, #16]
1587:/home/phong/Documents/thesis/stm32f4/stm-idf/components/stm32f4xx_hal_driver/stm32f4xx_hal_can.c ****   }
 1575              		.loc 1 1587 0
 1576 0130 0020     		movs	r0, #0
 1577              	.LVL149:
 1578 0132 71E7     		b	.L138
 1579              		.cfi_endproc
 1580              	.LFE145:
 1582              		.section	.text.HAL_CAN_GetRxFifoFillLevel,"ax",%progbits
 1583              		.align	1
 1584              		.global	HAL_CAN_GetRxFifoFillLevel
 1585              		.syntax unified
 1586              		.thumb
ARM GAS  /tmp/ccW24XdO.s 			page 77


 1587              		.thumb_func
 1588              		.fpu fpv4-sp-d16
 1590              	HAL_CAN_GetRxFifoFillLevel:
 1591              	.LFB146:
1597:/home/phong/Documents/thesis/stm32f4/stm-idf/components/stm32f4xx_hal_driver/stm32f4xx_hal_can.c **** 
1598:/home/phong/Documents/thesis/stm32f4/stm-idf/components/stm32f4xx_hal_driver/stm32f4xx_hal_can.c **** /**
1599:/home/phong/Documents/thesis/stm32f4/stm-idf/components/stm32f4xx_hal_driver/stm32f4xx_hal_can.c ****   * @brief  Return Rx FIFO fill level.
1600:/home/phong/Documents/thesis/stm32f4/stm-idf/components/stm32f4xx_hal_driver/stm32f4xx_hal_can.c ****   * @param  hcan pointer to an CAN_HandleTypeDef structure that contains
1601:/home/phong/Documents/thesis/stm32f4/stm-idf/components/stm32f4xx_hal_driver/stm32f4xx_hal_can.c ****   *         the configuration information for the specified CAN.
1602:/home/phong/Documents/thesis/stm32f4/stm-idf/components/stm32f4xx_hal_driver/stm32f4xx_hal_can.c ****   * @param  RxFifo Rx FIFO.
1603:/home/phong/Documents/thesis/stm32f4/stm-idf/components/stm32f4xx_hal_driver/stm32f4xx_hal_can.c ****   *         This parameter can be a value of @arg CAN_receive_FIFO_number.
1604:/home/phong/Documents/thesis/stm32f4/stm-idf/components/stm32f4xx_hal_driver/stm32f4xx_hal_can.c ****   * @retval Number of messages available in Rx FIFO.
1605:/home/phong/Documents/thesis/stm32f4/stm-idf/components/stm32f4xx_hal_driver/stm32f4xx_hal_can.c ****   */
1606:/home/phong/Documents/thesis/stm32f4/stm-idf/components/stm32f4xx_hal_driver/stm32f4xx_hal_can.c **** uint32_t HAL_CAN_GetRxFifoFillLevel(CAN_HandleTypeDef *hcan, uint32_t RxFifo)
1607:/home/phong/Documents/thesis/stm32f4/stm-idf/components/stm32f4xx_hal_driver/stm32f4xx_hal_can.c **** {
 1592              		.loc 1 1607 0
 1593              		.cfi_startproc
 1594              		@ args = 0, pretend = 0, frame = 0
 1595              		@ frame_needed = 0, uses_anonymous_args = 0
 1596              		@ link register save eliminated.
 1597              	.LVL150:
1608:/home/phong/Documents/thesis/stm32f4/stm-idf/components/stm32f4xx_hal_driver/stm32f4xx_hal_can.c ****   uint32_t filllevel = 0U;
1609:/home/phong/Documents/thesis/stm32f4/stm-idf/components/stm32f4xx_hal_driver/stm32f4xx_hal_can.c ****   HAL_CAN_StateTypeDef state = hcan->State;
 1598              		.loc 1 1609 0
 1599 0000 90F82030 		ldrb	r3, [r0, #32]	@ zero_extendqisi2
 1600              	.LVL151:
1610:/home/phong/Documents/thesis/stm32f4/stm-idf/components/stm32f4xx_hal_driver/stm32f4xx_hal_can.c **** 
1611:/home/phong/Documents/thesis/stm32f4/stm-idf/components/stm32f4xx_hal_driver/stm32f4xx_hal_can.c ****   /* Check function parameters */
1612:/home/phong/Documents/thesis/stm32f4/stm-idf/components/stm32f4xx_hal_driver/stm32f4xx_hal_can.c ****   assert_param(IS_CAN_RX_FIFO(RxFifo));
1613:/home/phong/Documents/thesis/stm32f4/stm-idf/components/stm32f4xx_hal_driver/stm32f4xx_hal_can.c **** 
1614:/home/phong/Documents/thesis/stm32f4/stm-idf/components/stm32f4xx_hal_driver/stm32f4xx_hal_can.c ****   if ((state == HAL_CAN_STATE_READY) ||
 1601              		.loc 1 1614 0
 1602 0004 013B     		subs	r3, r3, #1
 1603              	.LVL152:
 1604 0006 DBB2     		uxtb	r3, r3
 1605 0008 012B     		cmp	r3, #1
 1606 000a 01D9     		bls	.L149
1608:/home/phong/Documents/thesis/stm32f4/stm-idf/components/stm32f4xx_hal_driver/stm32f4xx_hal_can.c ****   uint32_t filllevel = 0U;
 1607              		.loc 1 1608 0
 1608 000c 0020     		movs	r0, #0
 1609              	.LVL153:
1615:/home/phong/Documents/thesis/stm32f4/stm-idf/components/stm32f4xx_hal_driver/stm32f4xx_hal_can.c ****       (state == HAL_CAN_STATE_LISTENING))
1616:/home/phong/Documents/thesis/stm32f4/stm-idf/components/stm32f4xx_hal_driver/stm32f4xx_hal_can.c ****   {
1617:/home/phong/Documents/thesis/stm32f4/stm-idf/components/stm32f4xx_hal_driver/stm32f4xx_hal_can.c ****     if (RxFifo == CAN_RX_FIFO0)
1618:/home/phong/Documents/thesis/stm32f4/stm-idf/components/stm32f4xx_hal_driver/stm32f4xx_hal_can.c ****     {
1619:/home/phong/Documents/thesis/stm32f4/stm-idf/components/stm32f4xx_hal_driver/stm32f4xx_hal_can.c ****       filllevel = hcan->Instance->RF0R & CAN_RF0R_FMP0;
1620:/home/phong/Documents/thesis/stm32f4/stm-idf/components/stm32f4xx_hal_driver/stm32f4xx_hal_can.c ****     }
1621:/home/phong/Documents/thesis/stm32f4/stm-idf/components/stm32f4xx_hal_driver/stm32f4xx_hal_can.c ****     else /* RxFifo == CAN_RX_FIFO1 */
1622:/home/phong/Documents/thesis/stm32f4/stm-idf/components/stm32f4xx_hal_driver/stm32f4xx_hal_can.c ****     {
1623:/home/phong/Documents/thesis/stm32f4/stm-idf/components/stm32f4xx_hal_driver/stm32f4xx_hal_can.c ****       filllevel = hcan->Instance->RF1R & CAN_RF1R_FMP1;
1624:/home/phong/Documents/thesis/stm32f4/stm-idf/components/stm32f4xx_hal_driver/stm32f4xx_hal_can.c ****     }
1625:/home/phong/Documents/thesis/stm32f4/stm-idf/components/stm32f4xx_hal_driver/stm32f4xx_hal_can.c ****   }
1626:/home/phong/Documents/thesis/stm32f4/stm-idf/components/stm32f4xx_hal_driver/stm32f4xx_hal_can.c **** 
1627:/home/phong/Documents/thesis/stm32f4/stm-idf/components/stm32f4xx_hal_driver/stm32f4xx_hal_can.c ****   /* Return Rx FIFO fill level */
1628:/home/phong/Documents/thesis/stm32f4/stm-idf/components/stm32f4xx_hal_driver/stm32f4xx_hal_can.c ****   return filllevel;
1629:/home/phong/Documents/thesis/stm32f4/stm-idf/components/stm32f4xx_hal_driver/stm32f4xx_hal_can.c **** }
 1610              		.loc 1 1629 0
ARM GAS  /tmp/ccW24XdO.s 			page 78


 1611 000e 7047     		bx	lr
 1612              	.LVL154:
 1613              	.L149:
1617:/home/phong/Documents/thesis/stm32f4/stm-idf/components/stm32f4xx_hal_driver/stm32f4xx_hal_can.c ****     {
 1614              		.loc 1 1617 0
 1615 0010 21B1     		cbz	r1, .L150
1623:/home/phong/Documents/thesis/stm32f4/stm-idf/components/stm32f4xx_hal_driver/stm32f4xx_hal_can.c ****     }
 1616              		.loc 1 1623 0
 1617 0012 0368     		ldr	r3, [r0]
 1618 0014 1869     		ldr	r0, [r3, #16]
 1619              	.LVL155:
 1620 0016 00F00300 		and	r0, r0, #3
 1621              	.LVL156:
 1622 001a 7047     		bx	lr
 1623              	.LVL157:
 1624              	.L150:
1619:/home/phong/Documents/thesis/stm32f4/stm-idf/components/stm32f4xx_hal_driver/stm32f4xx_hal_can.c ****     }
 1625              		.loc 1 1619 0
 1626 001c 0368     		ldr	r3, [r0]
 1627 001e D868     		ldr	r0, [r3, #12]
 1628              	.LVL158:
 1629 0020 00F00300 		and	r0, r0, #3
 1630              	.LVL159:
 1631 0024 7047     		bx	lr
 1632              		.cfi_endproc
 1633              	.LFE146:
 1635              		.section	.text.HAL_CAN_ActivateNotification,"ax",%progbits
 1636              		.align	1
 1637              		.global	HAL_CAN_ActivateNotification
 1638              		.syntax unified
 1639              		.thumb
 1640              		.thumb_func
 1641              		.fpu fpv4-sp-d16
 1643              	HAL_CAN_ActivateNotification:
 1644              	.LFB147:
1630:/home/phong/Documents/thesis/stm32f4/stm-idf/components/stm32f4xx_hal_driver/stm32f4xx_hal_can.c **** 
1631:/home/phong/Documents/thesis/stm32f4/stm-idf/components/stm32f4xx_hal_driver/stm32f4xx_hal_can.c **** /**
1632:/home/phong/Documents/thesis/stm32f4/stm-idf/components/stm32f4xx_hal_driver/stm32f4xx_hal_can.c ****   * @}
1633:/home/phong/Documents/thesis/stm32f4/stm-idf/components/stm32f4xx_hal_driver/stm32f4xx_hal_can.c ****   */
1634:/home/phong/Documents/thesis/stm32f4/stm-idf/components/stm32f4xx_hal_driver/stm32f4xx_hal_can.c **** 
1635:/home/phong/Documents/thesis/stm32f4/stm-idf/components/stm32f4xx_hal_driver/stm32f4xx_hal_can.c **** /** @defgroup CAN_Exported_Functions_Group4 Interrupts management
1636:/home/phong/Documents/thesis/stm32f4/stm-idf/components/stm32f4xx_hal_driver/stm32f4xx_hal_can.c ****  *  @brief    Interrupts management
1637:/home/phong/Documents/thesis/stm32f4/stm-idf/components/stm32f4xx_hal_driver/stm32f4xx_hal_can.c ****  *
1638:/home/phong/Documents/thesis/stm32f4/stm-idf/components/stm32f4xx_hal_driver/stm32f4xx_hal_can.c **** @verbatim
1639:/home/phong/Documents/thesis/stm32f4/stm-idf/components/stm32f4xx_hal_driver/stm32f4xx_hal_can.c ****   ==============================================================================
1640:/home/phong/Documents/thesis/stm32f4/stm-idf/components/stm32f4xx_hal_driver/stm32f4xx_hal_can.c ****                        ##### Interrupts management #####
1641:/home/phong/Documents/thesis/stm32f4/stm-idf/components/stm32f4xx_hal_driver/stm32f4xx_hal_can.c ****   ==============================================================================
1642:/home/phong/Documents/thesis/stm32f4/stm-idf/components/stm32f4xx_hal_driver/stm32f4xx_hal_can.c ****     [..]  This section provides functions allowing to:
1643:/home/phong/Documents/thesis/stm32f4/stm-idf/components/stm32f4xx_hal_driver/stm32f4xx_hal_can.c ****       (+) HAL_CAN_ActivateNotification      : Enable interrupts
1644:/home/phong/Documents/thesis/stm32f4/stm-idf/components/stm32f4xx_hal_driver/stm32f4xx_hal_can.c ****       (+) HAL_CAN_DeactivateNotification    : Disable interrupts
1645:/home/phong/Documents/thesis/stm32f4/stm-idf/components/stm32f4xx_hal_driver/stm32f4xx_hal_can.c ****       (+) HAL_CAN_IRQHandler                : Handles CAN interrupt request
1646:/home/phong/Documents/thesis/stm32f4/stm-idf/components/stm32f4xx_hal_driver/stm32f4xx_hal_can.c **** 
1647:/home/phong/Documents/thesis/stm32f4/stm-idf/components/stm32f4xx_hal_driver/stm32f4xx_hal_can.c **** @endverbatim
1648:/home/phong/Documents/thesis/stm32f4/stm-idf/components/stm32f4xx_hal_driver/stm32f4xx_hal_can.c ****   * @{
1649:/home/phong/Documents/thesis/stm32f4/stm-idf/components/stm32f4xx_hal_driver/stm32f4xx_hal_can.c ****   */
1650:/home/phong/Documents/thesis/stm32f4/stm-idf/components/stm32f4xx_hal_driver/stm32f4xx_hal_can.c **** 
1651:/home/phong/Documents/thesis/stm32f4/stm-idf/components/stm32f4xx_hal_driver/stm32f4xx_hal_can.c **** /**
ARM GAS  /tmp/ccW24XdO.s 			page 79


1652:/home/phong/Documents/thesis/stm32f4/stm-idf/components/stm32f4xx_hal_driver/stm32f4xx_hal_can.c ****   * @brief  Enable interrupts.
1653:/home/phong/Documents/thesis/stm32f4/stm-idf/components/stm32f4xx_hal_driver/stm32f4xx_hal_can.c ****   * @param  hcan pointer to an CAN_HandleTypeDef structure that contains
1654:/home/phong/Documents/thesis/stm32f4/stm-idf/components/stm32f4xx_hal_driver/stm32f4xx_hal_can.c ****   *         the configuration information for the specified CAN.
1655:/home/phong/Documents/thesis/stm32f4/stm-idf/components/stm32f4xx_hal_driver/stm32f4xx_hal_can.c ****   * @param  ActiveITs indicates which interrupts will be enabled.
1656:/home/phong/Documents/thesis/stm32f4/stm-idf/components/stm32f4xx_hal_driver/stm32f4xx_hal_can.c ****   *         This parameter can be any combination of @arg CAN_Interrupts.
1657:/home/phong/Documents/thesis/stm32f4/stm-idf/components/stm32f4xx_hal_driver/stm32f4xx_hal_can.c ****   * @retval HAL status
1658:/home/phong/Documents/thesis/stm32f4/stm-idf/components/stm32f4xx_hal_driver/stm32f4xx_hal_can.c ****   */
1659:/home/phong/Documents/thesis/stm32f4/stm-idf/components/stm32f4xx_hal_driver/stm32f4xx_hal_can.c **** HAL_StatusTypeDef HAL_CAN_ActivateNotification(CAN_HandleTypeDef *hcan, uint32_t ActiveITs)
1660:/home/phong/Documents/thesis/stm32f4/stm-idf/components/stm32f4xx_hal_driver/stm32f4xx_hal_can.c **** {
 1645              		.loc 1 1660 0
 1646              		.cfi_startproc
 1647              		@ args = 0, pretend = 0, frame = 0
 1648              		@ frame_needed = 0, uses_anonymous_args = 0
 1649              		@ link register save eliminated.
 1650              	.LVL160:
1661:/home/phong/Documents/thesis/stm32f4/stm-idf/components/stm32f4xx_hal_driver/stm32f4xx_hal_can.c ****   HAL_CAN_StateTypeDef state = hcan->State;
 1651              		.loc 1 1661 0
 1652 0000 90F82030 		ldrb	r3, [r0, #32]	@ zero_extendqisi2
 1653              	.LVL161:
1662:/home/phong/Documents/thesis/stm32f4/stm-idf/components/stm32f4xx_hal_driver/stm32f4xx_hal_can.c **** 
1663:/home/phong/Documents/thesis/stm32f4/stm-idf/components/stm32f4xx_hal_driver/stm32f4xx_hal_can.c ****   /* Check function parameters */
1664:/home/phong/Documents/thesis/stm32f4/stm-idf/components/stm32f4xx_hal_driver/stm32f4xx_hal_can.c ****   assert_param(IS_CAN_IT(ActiveITs));
1665:/home/phong/Documents/thesis/stm32f4/stm-idf/components/stm32f4xx_hal_driver/stm32f4xx_hal_can.c **** 
1666:/home/phong/Documents/thesis/stm32f4/stm-idf/components/stm32f4xx_hal_driver/stm32f4xx_hal_can.c ****   if ((state == HAL_CAN_STATE_READY) ||
 1654              		.loc 1 1666 0
 1655 0004 013B     		subs	r3, r3, #1
 1656              	.LVL162:
 1657 0006 DBB2     		uxtb	r3, r3
 1658 0008 012B     		cmp	r3, #1
 1659 000a 05D9     		bls	.L154
1667:/home/phong/Documents/thesis/stm32f4/stm-idf/components/stm32f4xx_hal_driver/stm32f4xx_hal_can.c ****       (state == HAL_CAN_STATE_LISTENING))
1668:/home/phong/Documents/thesis/stm32f4/stm-idf/components/stm32f4xx_hal_driver/stm32f4xx_hal_can.c ****   {
1669:/home/phong/Documents/thesis/stm32f4/stm-idf/components/stm32f4xx_hal_driver/stm32f4xx_hal_can.c ****     /* Enable the selected interrupts */
1670:/home/phong/Documents/thesis/stm32f4/stm-idf/components/stm32f4xx_hal_driver/stm32f4xx_hal_can.c ****     __HAL_CAN_ENABLE_IT(hcan, ActiveITs);
1671:/home/phong/Documents/thesis/stm32f4/stm-idf/components/stm32f4xx_hal_driver/stm32f4xx_hal_can.c **** 
1672:/home/phong/Documents/thesis/stm32f4/stm-idf/components/stm32f4xx_hal_driver/stm32f4xx_hal_can.c ****     /* Return function status */
1673:/home/phong/Documents/thesis/stm32f4/stm-idf/components/stm32f4xx_hal_driver/stm32f4xx_hal_can.c ****     return HAL_OK;
1674:/home/phong/Documents/thesis/stm32f4/stm-idf/components/stm32f4xx_hal_driver/stm32f4xx_hal_can.c ****   }
1675:/home/phong/Documents/thesis/stm32f4/stm-idf/components/stm32f4xx_hal_driver/stm32f4xx_hal_can.c ****   else
1676:/home/phong/Documents/thesis/stm32f4/stm-idf/components/stm32f4xx_hal_driver/stm32f4xx_hal_can.c ****   {
1677:/home/phong/Documents/thesis/stm32f4/stm-idf/components/stm32f4xx_hal_driver/stm32f4xx_hal_can.c ****     /* Update error code */
1678:/home/phong/Documents/thesis/stm32f4/stm-idf/components/stm32f4xx_hal_driver/stm32f4xx_hal_can.c ****     hcan->ErrorCode |= HAL_CAN_ERROR_NOT_INITIALIZED;
 1660              		.loc 1 1678 0
 1661 000c 436A     		ldr	r3, [r0, #36]
 1662 000e 43F48023 		orr	r3, r3, #262144
 1663 0012 4362     		str	r3, [r0, #36]
1679:/home/phong/Documents/thesis/stm32f4/stm-idf/components/stm32f4xx_hal_driver/stm32f4xx_hal_can.c **** 
1680:/home/phong/Documents/thesis/stm32f4/stm-idf/components/stm32f4xx_hal_driver/stm32f4xx_hal_can.c ****     return HAL_ERROR;
 1664              		.loc 1 1680 0
 1665 0014 0120     		movs	r0, #1
 1666              	.LVL163:
1681:/home/phong/Documents/thesis/stm32f4/stm-idf/components/stm32f4xx_hal_driver/stm32f4xx_hal_can.c ****   }
1682:/home/phong/Documents/thesis/stm32f4/stm-idf/components/stm32f4xx_hal_driver/stm32f4xx_hal_can.c **** }
 1667              		.loc 1 1682 0
 1668 0016 7047     		bx	lr
 1669              	.LVL164:
 1670              	.L154:
ARM GAS  /tmp/ccW24XdO.s 			page 80


1670:/home/phong/Documents/thesis/stm32f4/stm-idf/components/stm32f4xx_hal_driver/stm32f4xx_hal_can.c **** 
 1671              		.loc 1 1670 0
 1672 0018 0268     		ldr	r2, [r0]
 1673 001a 5369     		ldr	r3, [r2, #20]
 1674 001c 1943     		orrs	r1, r1, r3
 1675              	.LVL165:
 1676 001e 5161     		str	r1, [r2, #20]
1673:/home/phong/Documents/thesis/stm32f4/stm-idf/components/stm32f4xx_hal_driver/stm32f4xx_hal_can.c ****   }
 1677              		.loc 1 1673 0
 1678 0020 0020     		movs	r0, #0
 1679              	.LVL166:
 1680 0022 7047     		bx	lr
 1681              		.cfi_endproc
 1682              	.LFE147:
 1684              		.section	.text.HAL_CAN_DeactivateNotification,"ax",%progbits
 1685              		.align	1
 1686              		.global	HAL_CAN_DeactivateNotification
 1687              		.syntax unified
 1688              		.thumb
 1689              		.thumb_func
 1690              		.fpu fpv4-sp-d16
 1692              	HAL_CAN_DeactivateNotification:
 1693              	.LFB148:
1683:/home/phong/Documents/thesis/stm32f4/stm-idf/components/stm32f4xx_hal_driver/stm32f4xx_hal_can.c **** 
1684:/home/phong/Documents/thesis/stm32f4/stm-idf/components/stm32f4xx_hal_driver/stm32f4xx_hal_can.c **** /**
1685:/home/phong/Documents/thesis/stm32f4/stm-idf/components/stm32f4xx_hal_driver/stm32f4xx_hal_can.c ****   * @brief  Disable interrupts.
1686:/home/phong/Documents/thesis/stm32f4/stm-idf/components/stm32f4xx_hal_driver/stm32f4xx_hal_can.c ****   * @param  hcan pointer to an CAN_HandleTypeDef structure that contains
1687:/home/phong/Documents/thesis/stm32f4/stm-idf/components/stm32f4xx_hal_driver/stm32f4xx_hal_can.c ****   *         the configuration information for the specified CAN.
1688:/home/phong/Documents/thesis/stm32f4/stm-idf/components/stm32f4xx_hal_driver/stm32f4xx_hal_can.c ****   * @param  InactiveITs indicates which interrupts will be disabled.
1689:/home/phong/Documents/thesis/stm32f4/stm-idf/components/stm32f4xx_hal_driver/stm32f4xx_hal_can.c ****   *         This parameter can be any combination of @arg CAN_Interrupts.
1690:/home/phong/Documents/thesis/stm32f4/stm-idf/components/stm32f4xx_hal_driver/stm32f4xx_hal_can.c ****   * @retval HAL status
1691:/home/phong/Documents/thesis/stm32f4/stm-idf/components/stm32f4xx_hal_driver/stm32f4xx_hal_can.c ****   */
1692:/home/phong/Documents/thesis/stm32f4/stm-idf/components/stm32f4xx_hal_driver/stm32f4xx_hal_can.c **** HAL_StatusTypeDef HAL_CAN_DeactivateNotification(CAN_HandleTypeDef *hcan, uint32_t InactiveITs)
1693:/home/phong/Documents/thesis/stm32f4/stm-idf/components/stm32f4xx_hal_driver/stm32f4xx_hal_can.c **** {
 1694              		.loc 1 1693 0
 1695              		.cfi_startproc
 1696              		@ args = 0, pretend = 0, frame = 0
 1697              		@ frame_needed = 0, uses_anonymous_args = 0
 1698              		@ link register save eliminated.
 1699              	.LVL167:
1694:/home/phong/Documents/thesis/stm32f4/stm-idf/components/stm32f4xx_hal_driver/stm32f4xx_hal_can.c ****   HAL_CAN_StateTypeDef state = hcan->State;
 1700              		.loc 1 1694 0
 1701 0000 90F82030 		ldrb	r3, [r0, #32]	@ zero_extendqisi2
 1702              	.LVL168:
1695:/home/phong/Documents/thesis/stm32f4/stm-idf/components/stm32f4xx_hal_driver/stm32f4xx_hal_can.c **** 
1696:/home/phong/Documents/thesis/stm32f4/stm-idf/components/stm32f4xx_hal_driver/stm32f4xx_hal_can.c ****   /* Check function parameters */
1697:/home/phong/Documents/thesis/stm32f4/stm-idf/components/stm32f4xx_hal_driver/stm32f4xx_hal_can.c ****   assert_param(IS_CAN_IT(InactiveITs));
1698:/home/phong/Documents/thesis/stm32f4/stm-idf/components/stm32f4xx_hal_driver/stm32f4xx_hal_can.c **** 
1699:/home/phong/Documents/thesis/stm32f4/stm-idf/components/stm32f4xx_hal_driver/stm32f4xx_hal_can.c ****   if ((state == HAL_CAN_STATE_READY) ||
 1703              		.loc 1 1699 0
 1704 0004 013B     		subs	r3, r3, #1
 1705              	.LVL169:
 1706 0006 DBB2     		uxtb	r3, r3
 1707 0008 012B     		cmp	r3, #1
 1708 000a 05D9     		bls	.L158
1700:/home/phong/Documents/thesis/stm32f4/stm-idf/components/stm32f4xx_hal_driver/stm32f4xx_hal_can.c ****       (state == HAL_CAN_STATE_LISTENING))
1701:/home/phong/Documents/thesis/stm32f4/stm-idf/components/stm32f4xx_hal_driver/stm32f4xx_hal_can.c ****   {
ARM GAS  /tmp/ccW24XdO.s 			page 81


1702:/home/phong/Documents/thesis/stm32f4/stm-idf/components/stm32f4xx_hal_driver/stm32f4xx_hal_can.c ****     /* Disable the selected interrupts */
1703:/home/phong/Documents/thesis/stm32f4/stm-idf/components/stm32f4xx_hal_driver/stm32f4xx_hal_can.c ****     __HAL_CAN_DISABLE_IT(hcan, InactiveITs);
1704:/home/phong/Documents/thesis/stm32f4/stm-idf/components/stm32f4xx_hal_driver/stm32f4xx_hal_can.c **** 
1705:/home/phong/Documents/thesis/stm32f4/stm-idf/components/stm32f4xx_hal_driver/stm32f4xx_hal_can.c ****     /* Return function status */
1706:/home/phong/Documents/thesis/stm32f4/stm-idf/components/stm32f4xx_hal_driver/stm32f4xx_hal_can.c ****     return HAL_OK;
1707:/home/phong/Documents/thesis/stm32f4/stm-idf/components/stm32f4xx_hal_driver/stm32f4xx_hal_can.c ****   }
1708:/home/phong/Documents/thesis/stm32f4/stm-idf/components/stm32f4xx_hal_driver/stm32f4xx_hal_can.c ****   else
1709:/home/phong/Documents/thesis/stm32f4/stm-idf/components/stm32f4xx_hal_driver/stm32f4xx_hal_can.c ****   {
1710:/home/phong/Documents/thesis/stm32f4/stm-idf/components/stm32f4xx_hal_driver/stm32f4xx_hal_can.c ****     /* Update error code */
1711:/home/phong/Documents/thesis/stm32f4/stm-idf/components/stm32f4xx_hal_driver/stm32f4xx_hal_can.c ****     hcan->ErrorCode |= HAL_CAN_ERROR_NOT_INITIALIZED;
 1709              		.loc 1 1711 0
 1710 000c 436A     		ldr	r3, [r0, #36]
 1711 000e 43F48023 		orr	r3, r3, #262144
 1712 0012 4362     		str	r3, [r0, #36]
1712:/home/phong/Documents/thesis/stm32f4/stm-idf/components/stm32f4xx_hal_driver/stm32f4xx_hal_can.c **** 
1713:/home/phong/Documents/thesis/stm32f4/stm-idf/components/stm32f4xx_hal_driver/stm32f4xx_hal_can.c ****     return HAL_ERROR;
 1713              		.loc 1 1713 0
 1714 0014 0120     		movs	r0, #1
 1715              	.LVL170:
1714:/home/phong/Documents/thesis/stm32f4/stm-idf/components/stm32f4xx_hal_driver/stm32f4xx_hal_can.c ****   }
1715:/home/phong/Documents/thesis/stm32f4/stm-idf/components/stm32f4xx_hal_driver/stm32f4xx_hal_can.c **** }
 1716              		.loc 1 1715 0
 1717 0016 7047     		bx	lr
 1718              	.LVL171:
 1719              	.L158:
1703:/home/phong/Documents/thesis/stm32f4/stm-idf/components/stm32f4xx_hal_driver/stm32f4xx_hal_can.c **** 
 1720              		.loc 1 1703 0
 1721 0018 0268     		ldr	r2, [r0]
 1722 001a 5369     		ldr	r3, [r2, #20]
 1723 001c 23EA0101 		bic	r1, r3, r1
 1724              	.LVL172:
 1725 0020 5161     		str	r1, [r2, #20]
1706:/home/phong/Documents/thesis/stm32f4/stm-idf/components/stm32f4xx_hal_driver/stm32f4xx_hal_can.c ****   }
 1726              		.loc 1 1706 0
 1727 0022 0020     		movs	r0, #0
 1728              	.LVL173:
 1729 0024 7047     		bx	lr
 1730              		.cfi_endproc
 1731              	.LFE148:
 1733              		.section	.text.HAL_CAN_TxMailbox0CompleteCallback,"ax",%progbits
 1734              		.align	1
 1735              		.weak	HAL_CAN_TxMailbox0CompleteCallback
 1736              		.syntax unified
 1737              		.thumb
 1738              		.thumb_func
 1739              		.fpu fpv4-sp-d16
 1741              	HAL_CAN_TxMailbox0CompleteCallback:
 1742              	.LFB150:
1716:/home/phong/Documents/thesis/stm32f4/stm-idf/components/stm32f4xx_hal_driver/stm32f4xx_hal_can.c **** 
1717:/home/phong/Documents/thesis/stm32f4/stm-idf/components/stm32f4xx_hal_driver/stm32f4xx_hal_can.c **** /**
1718:/home/phong/Documents/thesis/stm32f4/stm-idf/components/stm32f4xx_hal_driver/stm32f4xx_hal_can.c ****   * @brief  Handles CAN interrupt request
1719:/home/phong/Documents/thesis/stm32f4/stm-idf/components/stm32f4xx_hal_driver/stm32f4xx_hal_can.c ****   * @param  hcan pointer to a CAN_HandleTypeDef structure that contains
1720:/home/phong/Documents/thesis/stm32f4/stm-idf/components/stm32f4xx_hal_driver/stm32f4xx_hal_can.c ****   *         the configuration information for the specified CAN.
1721:/home/phong/Documents/thesis/stm32f4/stm-idf/components/stm32f4xx_hal_driver/stm32f4xx_hal_can.c ****   * @retval None
1722:/home/phong/Documents/thesis/stm32f4/stm-idf/components/stm32f4xx_hal_driver/stm32f4xx_hal_can.c ****   */
1723:/home/phong/Documents/thesis/stm32f4/stm-idf/components/stm32f4xx_hal_driver/stm32f4xx_hal_can.c **** void HAL_CAN_IRQHandler(CAN_HandleTypeDef *hcan)
1724:/home/phong/Documents/thesis/stm32f4/stm-idf/components/stm32f4xx_hal_driver/stm32f4xx_hal_can.c **** {
ARM GAS  /tmp/ccW24XdO.s 			page 82


1725:/home/phong/Documents/thesis/stm32f4/stm-idf/components/stm32f4xx_hal_driver/stm32f4xx_hal_can.c ****   uint32_t errorcode = HAL_CAN_ERROR_NONE;
1726:/home/phong/Documents/thesis/stm32f4/stm-idf/components/stm32f4xx_hal_driver/stm32f4xx_hal_can.c ****   uint32_t interrupts = READ_REG(hcan->Instance->IER);
1727:/home/phong/Documents/thesis/stm32f4/stm-idf/components/stm32f4xx_hal_driver/stm32f4xx_hal_can.c ****   uint32_t msrflags = READ_REG(hcan->Instance->MSR);
1728:/home/phong/Documents/thesis/stm32f4/stm-idf/components/stm32f4xx_hal_driver/stm32f4xx_hal_can.c ****   uint32_t tsrflags = READ_REG(hcan->Instance->TSR);
1729:/home/phong/Documents/thesis/stm32f4/stm-idf/components/stm32f4xx_hal_driver/stm32f4xx_hal_can.c ****   uint32_t rf0rflags = READ_REG(hcan->Instance->RF0R);
1730:/home/phong/Documents/thesis/stm32f4/stm-idf/components/stm32f4xx_hal_driver/stm32f4xx_hal_can.c ****   uint32_t rf1rflags = READ_REG(hcan->Instance->RF1R);
1731:/home/phong/Documents/thesis/stm32f4/stm-idf/components/stm32f4xx_hal_driver/stm32f4xx_hal_can.c ****   uint32_t esrflags = READ_REG(hcan->Instance->ESR);
1732:/home/phong/Documents/thesis/stm32f4/stm-idf/components/stm32f4xx_hal_driver/stm32f4xx_hal_can.c **** 
1733:/home/phong/Documents/thesis/stm32f4/stm-idf/components/stm32f4xx_hal_driver/stm32f4xx_hal_can.c ****   /* Transmit Mailbox empty interrupt management *****************************/
1734:/home/phong/Documents/thesis/stm32f4/stm-idf/components/stm32f4xx_hal_driver/stm32f4xx_hal_can.c ****   if ((interrupts & CAN_IT_TX_MAILBOX_EMPTY) != 0U)
1735:/home/phong/Documents/thesis/stm32f4/stm-idf/components/stm32f4xx_hal_driver/stm32f4xx_hal_can.c ****   {
1736:/home/phong/Documents/thesis/stm32f4/stm-idf/components/stm32f4xx_hal_driver/stm32f4xx_hal_can.c ****     /* Transmit Mailbox 0 management *****************************************/
1737:/home/phong/Documents/thesis/stm32f4/stm-idf/components/stm32f4xx_hal_driver/stm32f4xx_hal_can.c ****     if ((tsrflags & CAN_TSR_RQCP0) != 0U)
1738:/home/phong/Documents/thesis/stm32f4/stm-idf/components/stm32f4xx_hal_driver/stm32f4xx_hal_can.c ****     {
1739:/home/phong/Documents/thesis/stm32f4/stm-idf/components/stm32f4xx_hal_driver/stm32f4xx_hal_can.c ****       /* Clear the Transmission Complete flag (and TXOK0,ALST0,TERR0 bits) */
1740:/home/phong/Documents/thesis/stm32f4/stm-idf/components/stm32f4xx_hal_driver/stm32f4xx_hal_can.c ****       __HAL_CAN_CLEAR_FLAG(hcan, CAN_FLAG_RQCP0);
1741:/home/phong/Documents/thesis/stm32f4/stm-idf/components/stm32f4xx_hal_driver/stm32f4xx_hal_can.c **** 
1742:/home/phong/Documents/thesis/stm32f4/stm-idf/components/stm32f4xx_hal_driver/stm32f4xx_hal_can.c ****       if ((tsrflags & CAN_TSR_TXOK0) != 0U)
1743:/home/phong/Documents/thesis/stm32f4/stm-idf/components/stm32f4xx_hal_driver/stm32f4xx_hal_can.c ****       {
1744:/home/phong/Documents/thesis/stm32f4/stm-idf/components/stm32f4xx_hal_driver/stm32f4xx_hal_can.c ****         /* Transmission Mailbox 0 complete callback */
1745:/home/phong/Documents/thesis/stm32f4/stm-idf/components/stm32f4xx_hal_driver/stm32f4xx_hal_can.c **** #if USE_HAL_CAN_REGISTER_CALLBACKS == 1
1746:/home/phong/Documents/thesis/stm32f4/stm-idf/components/stm32f4xx_hal_driver/stm32f4xx_hal_can.c ****         /* Call registered callback*/
1747:/home/phong/Documents/thesis/stm32f4/stm-idf/components/stm32f4xx_hal_driver/stm32f4xx_hal_can.c ****         hcan->TxMailbox0CompleteCallback(hcan);
1748:/home/phong/Documents/thesis/stm32f4/stm-idf/components/stm32f4xx_hal_driver/stm32f4xx_hal_can.c **** #else
1749:/home/phong/Documents/thesis/stm32f4/stm-idf/components/stm32f4xx_hal_driver/stm32f4xx_hal_can.c ****         /* Call weak (surcharged) callback */
1750:/home/phong/Documents/thesis/stm32f4/stm-idf/components/stm32f4xx_hal_driver/stm32f4xx_hal_can.c ****         HAL_CAN_TxMailbox0CompleteCallback(hcan);
1751:/home/phong/Documents/thesis/stm32f4/stm-idf/components/stm32f4xx_hal_driver/stm32f4xx_hal_can.c **** #endif /* USE_HAL_CAN_REGISTER_CALLBACKS */
1752:/home/phong/Documents/thesis/stm32f4/stm-idf/components/stm32f4xx_hal_driver/stm32f4xx_hal_can.c ****       }
1753:/home/phong/Documents/thesis/stm32f4/stm-idf/components/stm32f4xx_hal_driver/stm32f4xx_hal_can.c ****       else
1754:/home/phong/Documents/thesis/stm32f4/stm-idf/components/stm32f4xx_hal_driver/stm32f4xx_hal_can.c ****       {
1755:/home/phong/Documents/thesis/stm32f4/stm-idf/components/stm32f4xx_hal_driver/stm32f4xx_hal_can.c ****         if ((tsrflags & CAN_TSR_ALST0) != 0U)
1756:/home/phong/Documents/thesis/stm32f4/stm-idf/components/stm32f4xx_hal_driver/stm32f4xx_hal_can.c ****         {
1757:/home/phong/Documents/thesis/stm32f4/stm-idf/components/stm32f4xx_hal_driver/stm32f4xx_hal_can.c ****           /* Update error code */
1758:/home/phong/Documents/thesis/stm32f4/stm-idf/components/stm32f4xx_hal_driver/stm32f4xx_hal_can.c ****           errorcode |= HAL_CAN_ERROR_TX_ALST0;
1759:/home/phong/Documents/thesis/stm32f4/stm-idf/components/stm32f4xx_hal_driver/stm32f4xx_hal_can.c ****         }
1760:/home/phong/Documents/thesis/stm32f4/stm-idf/components/stm32f4xx_hal_driver/stm32f4xx_hal_can.c ****         else if ((tsrflags & CAN_TSR_TERR0) != 0U)
1761:/home/phong/Documents/thesis/stm32f4/stm-idf/components/stm32f4xx_hal_driver/stm32f4xx_hal_can.c ****         {
1762:/home/phong/Documents/thesis/stm32f4/stm-idf/components/stm32f4xx_hal_driver/stm32f4xx_hal_can.c ****           /* Update error code */
1763:/home/phong/Documents/thesis/stm32f4/stm-idf/components/stm32f4xx_hal_driver/stm32f4xx_hal_can.c ****           errorcode |= HAL_CAN_ERROR_TX_TERR0;
1764:/home/phong/Documents/thesis/stm32f4/stm-idf/components/stm32f4xx_hal_driver/stm32f4xx_hal_can.c ****         }
1765:/home/phong/Documents/thesis/stm32f4/stm-idf/components/stm32f4xx_hal_driver/stm32f4xx_hal_can.c ****         else
1766:/home/phong/Documents/thesis/stm32f4/stm-idf/components/stm32f4xx_hal_driver/stm32f4xx_hal_can.c ****         {
1767:/home/phong/Documents/thesis/stm32f4/stm-idf/components/stm32f4xx_hal_driver/stm32f4xx_hal_can.c ****           /* Transmission Mailbox 0 abort callback */
1768:/home/phong/Documents/thesis/stm32f4/stm-idf/components/stm32f4xx_hal_driver/stm32f4xx_hal_can.c **** #if USE_HAL_CAN_REGISTER_CALLBACKS == 1
1769:/home/phong/Documents/thesis/stm32f4/stm-idf/components/stm32f4xx_hal_driver/stm32f4xx_hal_can.c ****           /* Call registered callback*/
1770:/home/phong/Documents/thesis/stm32f4/stm-idf/components/stm32f4xx_hal_driver/stm32f4xx_hal_can.c ****           hcan->TxMailbox0AbortCallback(hcan);
1771:/home/phong/Documents/thesis/stm32f4/stm-idf/components/stm32f4xx_hal_driver/stm32f4xx_hal_can.c **** #else
1772:/home/phong/Documents/thesis/stm32f4/stm-idf/components/stm32f4xx_hal_driver/stm32f4xx_hal_can.c ****           /* Call weak (surcharged) callback */
1773:/home/phong/Documents/thesis/stm32f4/stm-idf/components/stm32f4xx_hal_driver/stm32f4xx_hal_can.c ****           HAL_CAN_TxMailbox0AbortCallback(hcan);
1774:/home/phong/Documents/thesis/stm32f4/stm-idf/components/stm32f4xx_hal_driver/stm32f4xx_hal_can.c **** #endif /* USE_HAL_CAN_REGISTER_CALLBACKS */
1775:/home/phong/Documents/thesis/stm32f4/stm-idf/components/stm32f4xx_hal_driver/stm32f4xx_hal_can.c ****         }
1776:/home/phong/Documents/thesis/stm32f4/stm-idf/components/stm32f4xx_hal_driver/stm32f4xx_hal_can.c ****       }
1777:/home/phong/Documents/thesis/stm32f4/stm-idf/components/stm32f4xx_hal_driver/stm32f4xx_hal_can.c ****     }
1778:/home/phong/Documents/thesis/stm32f4/stm-idf/components/stm32f4xx_hal_driver/stm32f4xx_hal_can.c **** 
1779:/home/phong/Documents/thesis/stm32f4/stm-idf/components/stm32f4xx_hal_driver/stm32f4xx_hal_can.c ****     /* Transmit Mailbox 1 management *****************************************/
1780:/home/phong/Documents/thesis/stm32f4/stm-idf/components/stm32f4xx_hal_driver/stm32f4xx_hal_can.c ****     if ((tsrflags & CAN_TSR_RQCP1) != 0U)
1781:/home/phong/Documents/thesis/stm32f4/stm-idf/components/stm32f4xx_hal_driver/stm32f4xx_hal_can.c ****     {
ARM GAS  /tmp/ccW24XdO.s 			page 83


1782:/home/phong/Documents/thesis/stm32f4/stm-idf/components/stm32f4xx_hal_driver/stm32f4xx_hal_can.c ****       /* Clear the Transmission Complete flag (and TXOK1,ALST1,TERR1 bits) */
1783:/home/phong/Documents/thesis/stm32f4/stm-idf/components/stm32f4xx_hal_driver/stm32f4xx_hal_can.c ****       __HAL_CAN_CLEAR_FLAG(hcan, CAN_FLAG_RQCP1);
1784:/home/phong/Documents/thesis/stm32f4/stm-idf/components/stm32f4xx_hal_driver/stm32f4xx_hal_can.c **** 
1785:/home/phong/Documents/thesis/stm32f4/stm-idf/components/stm32f4xx_hal_driver/stm32f4xx_hal_can.c ****       if ((tsrflags & CAN_TSR_TXOK1) != 0U)
1786:/home/phong/Documents/thesis/stm32f4/stm-idf/components/stm32f4xx_hal_driver/stm32f4xx_hal_can.c ****       {
1787:/home/phong/Documents/thesis/stm32f4/stm-idf/components/stm32f4xx_hal_driver/stm32f4xx_hal_can.c ****         /* Transmission Mailbox 1 complete callback */
1788:/home/phong/Documents/thesis/stm32f4/stm-idf/components/stm32f4xx_hal_driver/stm32f4xx_hal_can.c **** #if USE_HAL_CAN_REGISTER_CALLBACKS == 1
1789:/home/phong/Documents/thesis/stm32f4/stm-idf/components/stm32f4xx_hal_driver/stm32f4xx_hal_can.c ****         /* Call registered callback*/
1790:/home/phong/Documents/thesis/stm32f4/stm-idf/components/stm32f4xx_hal_driver/stm32f4xx_hal_can.c ****         hcan->TxMailbox1CompleteCallback(hcan);
1791:/home/phong/Documents/thesis/stm32f4/stm-idf/components/stm32f4xx_hal_driver/stm32f4xx_hal_can.c **** #else
1792:/home/phong/Documents/thesis/stm32f4/stm-idf/components/stm32f4xx_hal_driver/stm32f4xx_hal_can.c ****         /* Call weak (surcharged) callback */
1793:/home/phong/Documents/thesis/stm32f4/stm-idf/components/stm32f4xx_hal_driver/stm32f4xx_hal_can.c ****         HAL_CAN_TxMailbox1CompleteCallback(hcan);
1794:/home/phong/Documents/thesis/stm32f4/stm-idf/components/stm32f4xx_hal_driver/stm32f4xx_hal_can.c **** #endif /* USE_HAL_CAN_REGISTER_CALLBACKS */
1795:/home/phong/Documents/thesis/stm32f4/stm-idf/components/stm32f4xx_hal_driver/stm32f4xx_hal_can.c ****       }
1796:/home/phong/Documents/thesis/stm32f4/stm-idf/components/stm32f4xx_hal_driver/stm32f4xx_hal_can.c ****       else
1797:/home/phong/Documents/thesis/stm32f4/stm-idf/components/stm32f4xx_hal_driver/stm32f4xx_hal_can.c ****       {
1798:/home/phong/Documents/thesis/stm32f4/stm-idf/components/stm32f4xx_hal_driver/stm32f4xx_hal_can.c ****         if ((tsrflags & CAN_TSR_ALST1) != 0U)
1799:/home/phong/Documents/thesis/stm32f4/stm-idf/components/stm32f4xx_hal_driver/stm32f4xx_hal_can.c ****         {
1800:/home/phong/Documents/thesis/stm32f4/stm-idf/components/stm32f4xx_hal_driver/stm32f4xx_hal_can.c ****           /* Update error code */
1801:/home/phong/Documents/thesis/stm32f4/stm-idf/components/stm32f4xx_hal_driver/stm32f4xx_hal_can.c ****           errorcode |= HAL_CAN_ERROR_TX_ALST1;
1802:/home/phong/Documents/thesis/stm32f4/stm-idf/components/stm32f4xx_hal_driver/stm32f4xx_hal_can.c ****         }
1803:/home/phong/Documents/thesis/stm32f4/stm-idf/components/stm32f4xx_hal_driver/stm32f4xx_hal_can.c ****         else if ((tsrflags & CAN_TSR_TERR1) != 0U)
1804:/home/phong/Documents/thesis/stm32f4/stm-idf/components/stm32f4xx_hal_driver/stm32f4xx_hal_can.c ****         {
1805:/home/phong/Documents/thesis/stm32f4/stm-idf/components/stm32f4xx_hal_driver/stm32f4xx_hal_can.c ****           /* Update error code */
1806:/home/phong/Documents/thesis/stm32f4/stm-idf/components/stm32f4xx_hal_driver/stm32f4xx_hal_can.c ****           errorcode |= HAL_CAN_ERROR_TX_TERR1;
1807:/home/phong/Documents/thesis/stm32f4/stm-idf/components/stm32f4xx_hal_driver/stm32f4xx_hal_can.c ****         }
1808:/home/phong/Documents/thesis/stm32f4/stm-idf/components/stm32f4xx_hal_driver/stm32f4xx_hal_can.c ****         else
1809:/home/phong/Documents/thesis/stm32f4/stm-idf/components/stm32f4xx_hal_driver/stm32f4xx_hal_can.c ****         {
1810:/home/phong/Documents/thesis/stm32f4/stm-idf/components/stm32f4xx_hal_driver/stm32f4xx_hal_can.c ****           /* Transmission Mailbox 1 abort callback */
1811:/home/phong/Documents/thesis/stm32f4/stm-idf/components/stm32f4xx_hal_driver/stm32f4xx_hal_can.c **** #if USE_HAL_CAN_REGISTER_CALLBACKS == 1
1812:/home/phong/Documents/thesis/stm32f4/stm-idf/components/stm32f4xx_hal_driver/stm32f4xx_hal_can.c ****           /* Call registered callback*/
1813:/home/phong/Documents/thesis/stm32f4/stm-idf/components/stm32f4xx_hal_driver/stm32f4xx_hal_can.c ****           hcan->TxMailbox1AbortCallback(hcan);
1814:/home/phong/Documents/thesis/stm32f4/stm-idf/components/stm32f4xx_hal_driver/stm32f4xx_hal_can.c **** #else
1815:/home/phong/Documents/thesis/stm32f4/stm-idf/components/stm32f4xx_hal_driver/stm32f4xx_hal_can.c ****           /* Call weak (surcharged) callback */
1816:/home/phong/Documents/thesis/stm32f4/stm-idf/components/stm32f4xx_hal_driver/stm32f4xx_hal_can.c ****           HAL_CAN_TxMailbox1AbortCallback(hcan);
1817:/home/phong/Documents/thesis/stm32f4/stm-idf/components/stm32f4xx_hal_driver/stm32f4xx_hal_can.c **** #endif /* USE_HAL_CAN_REGISTER_CALLBACKS */
1818:/home/phong/Documents/thesis/stm32f4/stm-idf/components/stm32f4xx_hal_driver/stm32f4xx_hal_can.c ****         }
1819:/home/phong/Documents/thesis/stm32f4/stm-idf/components/stm32f4xx_hal_driver/stm32f4xx_hal_can.c ****       }
1820:/home/phong/Documents/thesis/stm32f4/stm-idf/components/stm32f4xx_hal_driver/stm32f4xx_hal_can.c ****     }
1821:/home/phong/Documents/thesis/stm32f4/stm-idf/components/stm32f4xx_hal_driver/stm32f4xx_hal_can.c **** 
1822:/home/phong/Documents/thesis/stm32f4/stm-idf/components/stm32f4xx_hal_driver/stm32f4xx_hal_can.c ****     /* Transmit Mailbox 2 management *****************************************/
1823:/home/phong/Documents/thesis/stm32f4/stm-idf/components/stm32f4xx_hal_driver/stm32f4xx_hal_can.c ****     if ((tsrflags & CAN_TSR_RQCP2) != 0U)
1824:/home/phong/Documents/thesis/stm32f4/stm-idf/components/stm32f4xx_hal_driver/stm32f4xx_hal_can.c ****     {
1825:/home/phong/Documents/thesis/stm32f4/stm-idf/components/stm32f4xx_hal_driver/stm32f4xx_hal_can.c ****       /* Clear the Transmission Complete flag (and TXOK2,ALST2,TERR2 bits) */
1826:/home/phong/Documents/thesis/stm32f4/stm-idf/components/stm32f4xx_hal_driver/stm32f4xx_hal_can.c ****       __HAL_CAN_CLEAR_FLAG(hcan, CAN_FLAG_RQCP2);
1827:/home/phong/Documents/thesis/stm32f4/stm-idf/components/stm32f4xx_hal_driver/stm32f4xx_hal_can.c **** 
1828:/home/phong/Documents/thesis/stm32f4/stm-idf/components/stm32f4xx_hal_driver/stm32f4xx_hal_can.c ****       if ((tsrflags & CAN_TSR_TXOK2) != 0U)
1829:/home/phong/Documents/thesis/stm32f4/stm-idf/components/stm32f4xx_hal_driver/stm32f4xx_hal_can.c ****       {
1830:/home/phong/Documents/thesis/stm32f4/stm-idf/components/stm32f4xx_hal_driver/stm32f4xx_hal_can.c ****         /* Transmission Mailbox 2 complete callback */
1831:/home/phong/Documents/thesis/stm32f4/stm-idf/components/stm32f4xx_hal_driver/stm32f4xx_hal_can.c **** #if USE_HAL_CAN_REGISTER_CALLBACKS == 1
1832:/home/phong/Documents/thesis/stm32f4/stm-idf/components/stm32f4xx_hal_driver/stm32f4xx_hal_can.c ****         /* Call registered callback*/
1833:/home/phong/Documents/thesis/stm32f4/stm-idf/components/stm32f4xx_hal_driver/stm32f4xx_hal_can.c ****         hcan->TxMailbox2CompleteCallback(hcan);
1834:/home/phong/Documents/thesis/stm32f4/stm-idf/components/stm32f4xx_hal_driver/stm32f4xx_hal_can.c **** #else
1835:/home/phong/Documents/thesis/stm32f4/stm-idf/components/stm32f4xx_hal_driver/stm32f4xx_hal_can.c ****         /* Call weak (surcharged) callback */
1836:/home/phong/Documents/thesis/stm32f4/stm-idf/components/stm32f4xx_hal_driver/stm32f4xx_hal_can.c ****         HAL_CAN_TxMailbox2CompleteCallback(hcan);
1837:/home/phong/Documents/thesis/stm32f4/stm-idf/components/stm32f4xx_hal_driver/stm32f4xx_hal_can.c **** #endif /* USE_HAL_CAN_REGISTER_CALLBACKS */
1838:/home/phong/Documents/thesis/stm32f4/stm-idf/components/stm32f4xx_hal_driver/stm32f4xx_hal_can.c ****       }
ARM GAS  /tmp/ccW24XdO.s 			page 84


1839:/home/phong/Documents/thesis/stm32f4/stm-idf/components/stm32f4xx_hal_driver/stm32f4xx_hal_can.c ****       else
1840:/home/phong/Documents/thesis/stm32f4/stm-idf/components/stm32f4xx_hal_driver/stm32f4xx_hal_can.c ****       {
1841:/home/phong/Documents/thesis/stm32f4/stm-idf/components/stm32f4xx_hal_driver/stm32f4xx_hal_can.c ****         if ((tsrflags & CAN_TSR_ALST2) != 0U)
1842:/home/phong/Documents/thesis/stm32f4/stm-idf/components/stm32f4xx_hal_driver/stm32f4xx_hal_can.c ****         {
1843:/home/phong/Documents/thesis/stm32f4/stm-idf/components/stm32f4xx_hal_driver/stm32f4xx_hal_can.c ****           /* Update error code */
1844:/home/phong/Documents/thesis/stm32f4/stm-idf/components/stm32f4xx_hal_driver/stm32f4xx_hal_can.c ****           errorcode |= HAL_CAN_ERROR_TX_ALST2;
1845:/home/phong/Documents/thesis/stm32f4/stm-idf/components/stm32f4xx_hal_driver/stm32f4xx_hal_can.c ****         }
1846:/home/phong/Documents/thesis/stm32f4/stm-idf/components/stm32f4xx_hal_driver/stm32f4xx_hal_can.c ****         else if ((tsrflags & CAN_TSR_TERR2) != 0U)
1847:/home/phong/Documents/thesis/stm32f4/stm-idf/components/stm32f4xx_hal_driver/stm32f4xx_hal_can.c ****         {
1848:/home/phong/Documents/thesis/stm32f4/stm-idf/components/stm32f4xx_hal_driver/stm32f4xx_hal_can.c ****           /* Update error code */
1849:/home/phong/Documents/thesis/stm32f4/stm-idf/components/stm32f4xx_hal_driver/stm32f4xx_hal_can.c ****           errorcode |= HAL_CAN_ERROR_TX_TERR2;
1850:/home/phong/Documents/thesis/stm32f4/stm-idf/components/stm32f4xx_hal_driver/stm32f4xx_hal_can.c ****         }
1851:/home/phong/Documents/thesis/stm32f4/stm-idf/components/stm32f4xx_hal_driver/stm32f4xx_hal_can.c ****         else
1852:/home/phong/Documents/thesis/stm32f4/stm-idf/components/stm32f4xx_hal_driver/stm32f4xx_hal_can.c ****         {
1853:/home/phong/Documents/thesis/stm32f4/stm-idf/components/stm32f4xx_hal_driver/stm32f4xx_hal_can.c ****           /* Transmission Mailbox 2 abort callback */
1854:/home/phong/Documents/thesis/stm32f4/stm-idf/components/stm32f4xx_hal_driver/stm32f4xx_hal_can.c **** #if USE_HAL_CAN_REGISTER_CALLBACKS == 1
1855:/home/phong/Documents/thesis/stm32f4/stm-idf/components/stm32f4xx_hal_driver/stm32f4xx_hal_can.c ****           /* Call registered callback*/
1856:/home/phong/Documents/thesis/stm32f4/stm-idf/components/stm32f4xx_hal_driver/stm32f4xx_hal_can.c ****           hcan->TxMailbox2AbortCallback(hcan);
1857:/home/phong/Documents/thesis/stm32f4/stm-idf/components/stm32f4xx_hal_driver/stm32f4xx_hal_can.c **** #else
1858:/home/phong/Documents/thesis/stm32f4/stm-idf/components/stm32f4xx_hal_driver/stm32f4xx_hal_can.c ****           /* Call weak (surcharged) callback */
1859:/home/phong/Documents/thesis/stm32f4/stm-idf/components/stm32f4xx_hal_driver/stm32f4xx_hal_can.c ****           HAL_CAN_TxMailbox2AbortCallback(hcan);
1860:/home/phong/Documents/thesis/stm32f4/stm-idf/components/stm32f4xx_hal_driver/stm32f4xx_hal_can.c **** #endif /* USE_HAL_CAN_REGISTER_CALLBACKS */
1861:/home/phong/Documents/thesis/stm32f4/stm-idf/components/stm32f4xx_hal_driver/stm32f4xx_hal_can.c ****         }
1862:/home/phong/Documents/thesis/stm32f4/stm-idf/components/stm32f4xx_hal_driver/stm32f4xx_hal_can.c ****       }
1863:/home/phong/Documents/thesis/stm32f4/stm-idf/components/stm32f4xx_hal_driver/stm32f4xx_hal_can.c ****     }
1864:/home/phong/Documents/thesis/stm32f4/stm-idf/components/stm32f4xx_hal_driver/stm32f4xx_hal_can.c ****   }
1865:/home/phong/Documents/thesis/stm32f4/stm-idf/components/stm32f4xx_hal_driver/stm32f4xx_hal_can.c **** 
1866:/home/phong/Documents/thesis/stm32f4/stm-idf/components/stm32f4xx_hal_driver/stm32f4xx_hal_can.c ****   /* Receive FIFO 0 overrun interrupt management *****************************/
1867:/home/phong/Documents/thesis/stm32f4/stm-idf/components/stm32f4xx_hal_driver/stm32f4xx_hal_can.c ****   if ((interrupts & CAN_IT_RX_FIFO0_OVERRUN) != 0U)
1868:/home/phong/Documents/thesis/stm32f4/stm-idf/components/stm32f4xx_hal_driver/stm32f4xx_hal_can.c ****   {
1869:/home/phong/Documents/thesis/stm32f4/stm-idf/components/stm32f4xx_hal_driver/stm32f4xx_hal_can.c ****     if ((rf0rflags & CAN_RF0R_FOVR0) != 0U)
1870:/home/phong/Documents/thesis/stm32f4/stm-idf/components/stm32f4xx_hal_driver/stm32f4xx_hal_can.c ****     {
1871:/home/phong/Documents/thesis/stm32f4/stm-idf/components/stm32f4xx_hal_driver/stm32f4xx_hal_can.c ****       /* Set CAN error code to Rx Fifo 0 overrun error */
1872:/home/phong/Documents/thesis/stm32f4/stm-idf/components/stm32f4xx_hal_driver/stm32f4xx_hal_can.c ****       errorcode |= HAL_CAN_ERROR_RX_FOV0;
1873:/home/phong/Documents/thesis/stm32f4/stm-idf/components/stm32f4xx_hal_driver/stm32f4xx_hal_can.c **** 
1874:/home/phong/Documents/thesis/stm32f4/stm-idf/components/stm32f4xx_hal_driver/stm32f4xx_hal_can.c ****       /* Clear FIFO0 Overrun Flag */
1875:/home/phong/Documents/thesis/stm32f4/stm-idf/components/stm32f4xx_hal_driver/stm32f4xx_hal_can.c ****       __HAL_CAN_CLEAR_FLAG(hcan, CAN_FLAG_FOV0);
1876:/home/phong/Documents/thesis/stm32f4/stm-idf/components/stm32f4xx_hal_driver/stm32f4xx_hal_can.c ****     }
1877:/home/phong/Documents/thesis/stm32f4/stm-idf/components/stm32f4xx_hal_driver/stm32f4xx_hal_can.c ****   }
1878:/home/phong/Documents/thesis/stm32f4/stm-idf/components/stm32f4xx_hal_driver/stm32f4xx_hal_can.c **** 
1879:/home/phong/Documents/thesis/stm32f4/stm-idf/components/stm32f4xx_hal_driver/stm32f4xx_hal_can.c ****   /* Receive FIFO 0 full interrupt management ********************************/
1880:/home/phong/Documents/thesis/stm32f4/stm-idf/components/stm32f4xx_hal_driver/stm32f4xx_hal_can.c ****   if ((interrupts & CAN_IT_RX_FIFO0_FULL) != 0U)
1881:/home/phong/Documents/thesis/stm32f4/stm-idf/components/stm32f4xx_hal_driver/stm32f4xx_hal_can.c ****   {
1882:/home/phong/Documents/thesis/stm32f4/stm-idf/components/stm32f4xx_hal_driver/stm32f4xx_hal_can.c ****     if ((rf0rflags & CAN_RF0R_FULL0) != 0U)
1883:/home/phong/Documents/thesis/stm32f4/stm-idf/components/stm32f4xx_hal_driver/stm32f4xx_hal_can.c ****     {
1884:/home/phong/Documents/thesis/stm32f4/stm-idf/components/stm32f4xx_hal_driver/stm32f4xx_hal_can.c ****       /* Clear FIFO 0 full Flag */
1885:/home/phong/Documents/thesis/stm32f4/stm-idf/components/stm32f4xx_hal_driver/stm32f4xx_hal_can.c ****       __HAL_CAN_CLEAR_FLAG(hcan, CAN_FLAG_FF0);
1886:/home/phong/Documents/thesis/stm32f4/stm-idf/components/stm32f4xx_hal_driver/stm32f4xx_hal_can.c **** 
1887:/home/phong/Documents/thesis/stm32f4/stm-idf/components/stm32f4xx_hal_driver/stm32f4xx_hal_can.c ****       /* Receive FIFO 0 full Callback */
1888:/home/phong/Documents/thesis/stm32f4/stm-idf/components/stm32f4xx_hal_driver/stm32f4xx_hal_can.c **** #if USE_HAL_CAN_REGISTER_CALLBACKS == 1
1889:/home/phong/Documents/thesis/stm32f4/stm-idf/components/stm32f4xx_hal_driver/stm32f4xx_hal_can.c ****       /* Call registered callback*/
1890:/home/phong/Documents/thesis/stm32f4/stm-idf/components/stm32f4xx_hal_driver/stm32f4xx_hal_can.c ****       hcan->RxFifo0FullCallback(hcan);
1891:/home/phong/Documents/thesis/stm32f4/stm-idf/components/stm32f4xx_hal_driver/stm32f4xx_hal_can.c **** #else
1892:/home/phong/Documents/thesis/stm32f4/stm-idf/components/stm32f4xx_hal_driver/stm32f4xx_hal_can.c ****       /* Call weak (surcharged) callback */
1893:/home/phong/Documents/thesis/stm32f4/stm-idf/components/stm32f4xx_hal_driver/stm32f4xx_hal_can.c ****       HAL_CAN_RxFifo0FullCallback(hcan);
1894:/home/phong/Documents/thesis/stm32f4/stm-idf/components/stm32f4xx_hal_driver/stm32f4xx_hal_can.c **** #endif /* USE_HAL_CAN_REGISTER_CALLBACKS */
1895:/home/phong/Documents/thesis/stm32f4/stm-idf/components/stm32f4xx_hal_driver/stm32f4xx_hal_can.c ****     }
ARM GAS  /tmp/ccW24XdO.s 			page 85


1896:/home/phong/Documents/thesis/stm32f4/stm-idf/components/stm32f4xx_hal_driver/stm32f4xx_hal_can.c ****   }
1897:/home/phong/Documents/thesis/stm32f4/stm-idf/components/stm32f4xx_hal_driver/stm32f4xx_hal_can.c **** 
1898:/home/phong/Documents/thesis/stm32f4/stm-idf/components/stm32f4xx_hal_driver/stm32f4xx_hal_can.c ****   /* Receive FIFO 0 message pending interrupt management *********************/
1899:/home/phong/Documents/thesis/stm32f4/stm-idf/components/stm32f4xx_hal_driver/stm32f4xx_hal_can.c ****   if ((interrupts & CAN_IT_RX_FIFO0_MSG_PENDING) != 0U)
1900:/home/phong/Documents/thesis/stm32f4/stm-idf/components/stm32f4xx_hal_driver/stm32f4xx_hal_can.c ****   {
1901:/home/phong/Documents/thesis/stm32f4/stm-idf/components/stm32f4xx_hal_driver/stm32f4xx_hal_can.c ****     /* Check if message is still pending */
1902:/home/phong/Documents/thesis/stm32f4/stm-idf/components/stm32f4xx_hal_driver/stm32f4xx_hal_can.c ****     if ((hcan->Instance->RF0R & CAN_RF0R_FMP0) != 0U)
1903:/home/phong/Documents/thesis/stm32f4/stm-idf/components/stm32f4xx_hal_driver/stm32f4xx_hal_can.c ****     {
1904:/home/phong/Documents/thesis/stm32f4/stm-idf/components/stm32f4xx_hal_driver/stm32f4xx_hal_can.c ****       /* Receive FIFO 0 mesage pending Callback */
1905:/home/phong/Documents/thesis/stm32f4/stm-idf/components/stm32f4xx_hal_driver/stm32f4xx_hal_can.c **** #if USE_HAL_CAN_REGISTER_CALLBACKS == 1
1906:/home/phong/Documents/thesis/stm32f4/stm-idf/components/stm32f4xx_hal_driver/stm32f4xx_hal_can.c ****       /* Call registered callback*/
1907:/home/phong/Documents/thesis/stm32f4/stm-idf/components/stm32f4xx_hal_driver/stm32f4xx_hal_can.c ****       hcan->RxFifo0MsgPendingCallback(hcan);
1908:/home/phong/Documents/thesis/stm32f4/stm-idf/components/stm32f4xx_hal_driver/stm32f4xx_hal_can.c **** #else
1909:/home/phong/Documents/thesis/stm32f4/stm-idf/components/stm32f4xx_hal_driver/stm32f4xx_hal_can.c ****       /* Call weak (surcharged) callback */
1910:/home/phong/Documents/thesis/stm32f4/stm-idf/components/stm32f4xx_hal_driver/stm32f4xx_hal_can.c ****       HAL_CAN_RxFifo0MsgPendingCallback(hcan);
1911:/home/phong/Documents/thesis/stm32f4/stm-idf/components/stm32f4xx_hal_driver/stm32f4xx_hal_can.c **** #endif /* USE_HAL_CAN_REGISTER_CALLBACKS */
1912:/home/phong/Documents/thesis/stm32f4/stm-idf/components/stm32f4xx_hal_driver/stm32f4xx_hal_can.c ****     }
1913:/home/phong/Documents/thesis/stm32f4/stm-idf/components/stm32f4xx_hal_driver/stm32f4xx_hal_can.c ****   }
1914:/home/phong/Documents/thesis/stm32f4/stm-idf/components/stm32f4xx_hal_driver/stm32f4xx_hal_can.c **** 
1915:/home/phong/Documents/thesis/stm32f4/stm-idf/components/stm32f4xx_hal_driver/stm32f4xx_hal_can.c ****   /* Receive FIFO 1 overrun interrupt management *****************************/
1916:/home/phong/Documents/thesis/stm32f4/stm-idf/components/stm32f4xx_hal_driver/stm32f4xx_hal_can.c ****   if ((interrupts & CAN_IT_RX_FIFO1_OVERRUN) != 0U)
1917:/home/phong/Documents/thesis/stm32f4/stm-idf/components/stm32f4xx_hal_driver/stm32f4xx_hal_can.c ****   {
1918:/home/phong/Documents/thesis/stm32f4/stm-idf/components/stm32f4xx_hal_driver/stm32f4xx_hal_can.c ****     if ((rf1rflags & CAN_RF1R_FOVR1) != 0U)
1919:/home/phong/Documents/thesis/stm32f4/stm-idf/components/stm32f4xx_hal_driver/stm32f4xx_hal_can.c ****     {
1920:/home/phong/Documents/thesis/stm32f4/stm-idf/components/stm32f4xx_hal_driver/stm32f4xx_hal_can.c ****       /* Set CAN error code to Rx Fifo 1 overrun error */
1921:/home/phong/Documents/thesis/stm32f4/stm-idf/components/stm32f4xx_hal_driver/stm32f4xx_hal_can.c ****       errorcode |= HAL_CAN_ERROR_RX_FOV1;
1922:/home/phong/Documents/thesis/stm32f4/stm-idf/components/stm32f4xx_hal_driver/stm32f4xx_hal_can.c **** 
1923:/home/phong/Documents/thesis/stm32f4/stm-idf/components/stm32f4xx_hal_driver/stm32f4xx_hal_can.c ****       /* Clear FIFO1 Overrun Flag */
1924:/home/phong/Documents/thesis/stm32f4/stm-idf/components/stm32f4xx_hal_driver/stm32f4xx_hal_can.c ****       __HAL_CAN_CLEAR_FLAG(hcan, CAN_FLAG_FOV1);
1925:/home/phong/Documents/thesis/stm32f4/stm-idf/components/stm32f4xx_hal_driver/stm32f4xx_hal_can.c ****     }
1926:/home/phong/Documents/thesis/stm32f4/stm-idf/components/stm32f4xx_hal_driver/stm32f4xx_hal_can.c ****   }
1927:/home/phong/Documents/thesis/stm32f4/stm-idf/components/stm32f4xx_hal_driver/stm32f4xx_hal_can.c **** 
1928:/home/phong/Documents/thesis/stm32f4/stm-idf/components/stm32f4xx_hal_driver/stm32f4xx_hal_can.c ****   /* Receive FIFO 1 full interrupt management ********************************/
1929:/home/phong/Documents/thesis/stm32f4/stm-idf/components/stm32f4xx_hal_driver/stm32f4xx_hal_can.c ****   if ((interrupts & CAN_IT_RX_FIFO1_FULL) != 0U)
1930:/home/phong/Documents/thesis/stm32f4/stm-idf/components/stm32f4xx_hal_driver/stm32f4xx_hal_can.c ****   {
1931:/home/phong/Documents/thesis/stm32f4/stm-idf/components/stm32f4xx_hal_driver/stm32f4xx_hal_can.c ****     if ((rf1rflags & CAN_RF1R_FULL1) != 0U)
1932:/home/phong/Documents/thesis/stm32f4/stm-idf/components/stm32f4xx_hal_driver/stm32f4xx_hal_can.c ****     {
1933:/home/phong/Documents/thesis/stm32f4/stm-idf/components/stm32f4xx_hal_driver/stm32f4xx_hal_can.c ****       /* Clear FIFO 1 full Flag */
1934:/home/phong/Documents/thesis/stm32f4/stm-idf/components/stm32f4xx_hal_driver/stm32f4xx_hal_can.c ****       __HAL_CAN_CLEAR_FLAG(hcan, CAN_FLAG_FF1);
1935:/home/phong/Documents/thesis/stm32f4/stm-idf/components/stm32f4xx_hal_driver/stm32f4xx_hal_can.c **** 
1936:/home/phong/Documents/thesis/stm32f4/stm-idf/components/stm32f4xx_hal_driver/stm32f4xx_hal_can.c ****       /* Receive FIFO 1 full Callback */
1937:/home/phong/Documents/thesis/stm32f4/stm-idf/components/stm32f4xx_hal_driver/stm32f4xx_hal_can.c **** #if USE_HAL_CAN_REGISTER_CALLBACKS == 1
1938:/home/phong/Documents/thesis/stm32f4/stm-idf/components/stm32f4xx_hal_driver/stm32f4xx_hal_can.c ****       /* Call registered callback*/
1939:/home/phong/Documents/thesis/stm32f4/stm-idf/components/stm32f4xx_hal_driver/stm32f4xx_hal_can.c ****       hcan->RxFifo1FullCallback(hcan);
1940:/home/phong/Documents/thesis/stm32f4/stm-idf/components/stm32f4xx_hal_driver/stm32f4xx_hal_can.c **** #else
1941:/home/phong/Documents/thesis/stm32f4/stm-idf/components/stm32f4xx_hal_driver/stm32f4xx_hal_can.c ****       /* Call weak (surcharged) callback */
1942:/home/phong/Documents/thesis/stm32f4/stm-idf/components/stm32f4xx_hal_driver/stm32f4xx_hal_can.c ****       HAL_CAN_RxFifo1FullCallback(hcan);
1943:/home/phong/Documents/thesis/stm32f4/stm-idf/components/stm32f4xx_hal_driver/stm32f4xx_hal_can.c **** #endif /* USE_HAL_CAN_REGISTER_CALLBACKS */
1944:/home/phong/Documents/thesis/stm32f4/stm-idf/components/stm32f4xx_hal_driver/stm32f4xx_hal_can.c ****     }
1945:/home/phong/Documents/thesis/stm32f4/stm-idf/components/stm32f4xx_hal_driver/stm32f4xx_hal_can.c ****   }
1946:/home/phong/Documents/thesis/stm32f4/stm-idf/components/stm32f4xx_hal_driver/stm32f4xx_hal_can.c **** 
1947:/home/phong/Documents/thesis/stm32f4/stm-idf/components/stm32f4xx_hal_driver/stm32f4xx_hal_can.c ****   /* Receive FIFO 1 message pending interrupt management *********************/
1948:/home/phong/Documents/thesis/stm32f4/stm-idf/components/stm32f4xx_hal_driver/stm32f4xx_hal_can.c ****   if ((interrupts & CAN_IT_RX_FIFO1_MSG_PENDING) != 0U)
1949:/home/phong/Documents/thesis/stm32f4/stm-idf/components/stm32f4xx_hal_driver/stm32f4xx_hal_can.c ****   {
1950:/home/phong/Documents/thesis/stm32f4/stm-idf/components/stm32f4xx_hal_driver/stm32f4xx_hal_can.c ****     /* Check if message is still pending */
1951:/home/phong/Documents/thesis/stm32f4/stm-idf/components/stm32f4xx_hal_driver/stm32f4xx_hal_can.c ****     if ((hcan->Instance->RF1R & CAN_RF1R_FMP1) != 0U)
1952:/home/phong/Documents/thesis/stm32f4/stm-idf/components/stm32f4xx_hal_driver/stm32f4xx_hal_can.c ****     {
ARM GAS  /tmp/ccW24XdO.s 			page 86


1953:/home/phong/Documents/thesis/stm32f4/stm-idf/components/stm32f4xx_hal_driver/stm32f4xx_hal_can.c ****       /* Receive FIFO 1 mesage pending Callback */
1954:/home/phong/Documents/thesis/stm32f4/stm-idf/components/stm32f4xx_hal_driver/stm32f4xx_hal_can.c **** #if USE_HAL_CAN_REGISTER_CALLBACKS == 1
1955:/home/phong/Documents/thesis/stm32f4/stm-idf/components/stm32f4xx_hal_driver/stm32f4xx_hal_can.c ****       /* Call registered callback*/
1956:/home/phong/Documents/thesis/stm32f4/stm-idf/components/stm32f4xx_hal_driver/stm32f4xx_hal_can.c ****       hcan->RxFifo1MsgPendingCallback(hcan);
1957:/home/phong/Documents/thesis/stm32f4/stm-idf/components/stm32f4xx_hal_driver/stm32f4xx_hal_can.c **** #else
1958:/home/phong/Documents/thesis/stm32f4/stm-idf/components/stm32f4xx_hal_driver/stm32f4xx_hal_can.c ****       /* Call weak (surcharged) callback */
1959:/home/phong/Documents/thesis/stm32f4/stm-idf/components/stm32f4xx_hal_driver/stm32f4xx_hal_can.c ****       HAL_CAN_RxFifo1MsgPendingCallback(hcan);
1960:/home/phong/Documents/thesis/stm32f4/stm-idf/components/stm32f4xx_hal_driver/stm32f4xx_hal_can.c **** #endif /* USE_HAL_CAN_REGISTER_CALLBACKS */
1961:/home/phong/Documents/thesis/stm32f4/stm-idf/components/stm32f4xx_hal_driver/stm32f4xx_hal_can.c ****     }
1962:/home/phong/Documents/thesis/stm32f4/stm-idf/components/stm32f4xx_hal_driver/stm32f4xx_hal_can.c ****   }
1963:/home/phong/Documents/thesis/stm32f4/stm-idf/components/stm32f4xx_hal_driver/stm32f4xx_hal_can.c **** 
1964:/home/phong/Documents/thesis/stm32f4/stm-idf/components/stm32f4xx_hal_driver/stm32f4xx_hal_can.c ****   /* Sleep interrupt management *********************************************/
1965:/home/phong/Documents/thesis/stm32f4/stm-idf/components/stm32f4xx_hal_driver/stm32f4xx_hal_can.c ****   if ((interrupts & CAN_IT_SLEEP_ACK) != 0U)
1966:/home/phong/Documents/thesis/stm32f4/stm-idf/components/stm32f4xx_hal_driver/stm32f4xx_hal_can.c ****   {
1967:/home/phong/Documents/thesis/stm32f4/stm-idf/components/stm32f4xx_hal_driver/stm32f4xx_hal_can.c ****     if ((msrflags & CAN_MSR_SLAKI) != 0U)
1968:/home/phong/Documents/thesis/stm32f4/stm-idf/components/stm32f4xx_hal_driver/stm32f4xx_hal_can.c ****     {
1969:/home/phong/Documents/thesis/stm32f4/stm-idf/components/stm32f4xx_hal_driver/stm32f4xx_hal_can.c ****       /* Clear Sleep interrupt Flag */
1970:/home/phong/Documents/thesis/stm32f4/stm-idf/components/stm32f4xx_hal_driver/stm32f4xx_hal_can.c ****       __HAL_CAN_CLEAR_FLAG(hcan, CAN_FLAG_SLAKI);
1971:/home/phong/Documents/thesis/stm32f4/stm-idf/components/stm32f4xx_hal_driver/stm32f4xx_hal_can.c **** 
1972:/home/phong/Documents/thesis/stm32f4/stm-idf/components/stm32f4xx_hal_driver/stm32f4xx_hal_can.c ****       /* Sleep Callback */
1973:/home/phong/Documents/thesis/stm32f4/stm-idf/components/stm32f4xx_hal_driver/stm32f4xx_hal_can.c **** #if USE_HAL_CAN_REGISTER_CALLBACKS == 1
1974:/home/phong/Documents/thesis/stm32f4/stm-idf/components/stm32f4xx_hal_driver/stm32f4xx_hal_can.c ****       /* Call registered callback*/
1975:/home/phong/Documents/thesis/stm32f4/stm-idf/components/stm32f4xx_hal_driver/stm32f4xx_hal_can.c ****       hcan->SleepCallback(hcan);
1976:/home/phong/Documents/thesis/stm32f4/stm-idf/components/stm32f4xx_hal_driver/stm32f4xx_hal_can.c **** #else
1977:/home/phong/Documents/thesis/stm32f4/stm-idf/components/stm32f4xx_hal_driver/stm32f4xx_hal_can.c ****       /* Call weak (surcharged) callback */
1978:/home/phong/Documents/thesis/stm32f4/stm-idf/components/stm32f4xx_hal_driver/stm32f4xx_hal_can.c ****       HAL_CAN_SleepCallback(hcan);
1979:/home/phong/Documents/thesis/stm32f4/stm-idf/components/stm32f4xx_hal_driver/stm32f4xx_hal_can.c **** #endif /* USE_HAL_CAN_REGISTER_CALLBACKS */
1980:/home/phong/Documents/thesis/stm32f4/stm-idf/components/stm32f4xx_hal_driver/stm32f4xx_hal_can.c ****     }
1981:/home/phong/Documents/thesis/stm32f4/stm-idf/components/stm32f4xx_hal_driver/stm32f4xx_hal_can.c ****   }
1982:/home/phong/Documents/thesis/stm32f4/stm-idf/components/stm32f4xx_hal_driver/stm32f4xx_hal_can.c **** 
1983:/home/phong/Documents/thesis/stm32f4/stm-idf/components/stm32f4xx_hal_driver/stm32f4xx_hal_can.c ****   /* WakeUp interrupt management *********************************************/
1984:/home/phong/Documents/thesis/stm32f4/stm-idf/components/stm32f4xx_hal_driver/stm32f4xx_hal_can.c ****   if ((interrupts & CAN_IT_WAKEUP) != 0U)
1985:/home/phong/Documents/thesis/stm32f4/stm-idf/components/stm32f4xx_hal_driver/stm32f4xx_hal_can.c ****   {
1986:/home/phong/Documents/thesis/stm32f4/stm-idf/components/stm32f4xx_hal_driver/stm32f4xx_hal_can.c ****     if ((msrflags & CAN_MSR_WKUI) != 0U)
1987:/home/phong/Documents/thesis/stm32f4/stm-idf/components/stm32f4xx_hal_driver/stm32f4xx_hal_can.c ****     {
1988:/home/phong/Documents/thesis/stm32f4/stm-idf/components/stm32f4xx_hal_driver/stm32f4xx_hal_can.c ****       /* Clear WakeUp Flag */
1989:/home/phong/Documents/thesis/stm32f4/stm-idf/components/stm32f4xx_hal_driver/stm32f4xx_hal_can.c ****       __HAL_CAN_CLEAR_FLAG(hcan, CAN_FLAG_WKU);
1990:/home/phong/Documents/thesis/stm32f4/stm-idf/components/stm32f4xx_hal_driver/stm32f4xx_hal_can.c **** 
1991:/home/phong/Documents/thesis/stm32f4/stm-idf/components/stm32f4xx_hal_driver/stm32f4xx_hal_can.c ****       /* WakeUp Callback */
1992:/home/phong/Documents/thesis/stm32f4/stm-idf/components/stm32f4xx_hal_driver/stm32f4xx_hal_can.c **** #if USE_HAL_CAN_REGISTER_CALLBACKS == 1
1993:/home/phong/Documents/thesis/stm32f4/stm-idf/components/stm32f4xx_hal_driver/stm32f4xx_hal_can.c ****       /* Call registered callback*/
1994:/home/phong/Documents/thesis/stm32f4/stm-idf/components/stm32f4xx_hal_driver/stm32f4xx_hal_can.c ****       hcan->WakeUpFromRxMsgCallback(hcan);
1995:/home/phong/Documents/thesis/stm32f4/stm-idf/components/stm32f4xx_hal_driver/stm32f4xx_hal_can.c **** #else
1996:/home/phong/Documents/thesis/stm32f4/stm-idf/components/stm32f4xx_hal_driver/stm32f4xx_hal_can.c ****       /* Call weak (surcharged) callback */
1997:/home/phong/Documents/thesis/stm32f4/stm-idf/components/stm32f4xx_hal_driver/stm32f4xx_hal_can.c ****       HAL_CAN_WakeUpFromRxMsgCallback(hcan);
1998:/home/phong/Documents/thesis/stm32f4/stm-idf/components/stm32f4xx_hal_driver/stm32f4xx_hal_can.c **** #endif /* USE_HAL_CAN_REGISTER_CALLBACKS */
1999:/home/phong/Documents/thesis/stm32f4/stm-idf/components/stm32f4xx_hal_driver/stm32f4xx_hal_can.c ****     }
2000:/home/phong/Documents/thesis/stm32f4/stm-idf/components/stm32f4xx_hal_driver/stm32f4xx_hal_can.c ****   }
2001:/home/phong/Documents/thesis/stm32f4/stm-idf/components/stm32f4xx_hal_driver/stm32f4xx_hal_can.c **** 
2002:/home/phong/Documents/thesis/stm32f4/stm-idf/components/stm32f4xx_hal_driver/stm32f4xx_hal_can.c ****   /* Error interrupts management *********************************************/
2003:/home/phong/Documents/thesis/stm32f4/stm-idf/components/stm32f4xx_hal_driver/stm32f4xx_hal_can.c ****   if ((interrupts & CAN_IT_ERROR) != 0U)
2004:/home/phong/Documents/thesis/stm32f4/stm-idf/components/stm32f4xx_hal_driver/stm32f4xx_hal_can.c ****   {
2005:/home/phong/Documents/thesis/stm32f4/stm-idf/components/stm32f4xx_hal_driver/stm32f4xx_hal_can.c ****     if ((msrflags & CAN_MSR_ERRI) != 0U)
2006:/home/phong/Documents/thesis/stm32f4/stm-idf/components/stm32f4xx_hal_driver/stm32f4xx_hal_can.c ****     {
2007:/home/phong/Documents/thesis/stm32f4/stm-idf/components/stm32f4xx_hal_driver/stm32f4xx_hal_can.c ****       /* Check Error Warning Flag */
2008:/home/phong/Documents/thesis/stm32f4/stm-idf/components/stm32f4xx_hal_driver/stm32f4xx_hal_can.c ****       if (((interrupts & CAN_IT_ERROR_WARNING) != 0U) &&
2009:/home/phong/Documents/thesis/stm32f4/stm-idf/components/stm32f4xx_hal_driver/stm32f4xx_hal_can.c ****           ((esrflags & CAN_ESR_EWGF) != 0U))
ARM GAS  /tmp/ccW24XdO.s 			page 87


2010:/home/phong/Documents/thesis/stm32f4/stm-idf/components/stm32f4xx_hal_driver/stm32f4xx_hal_can.c ****       {
2011:/home/phong/Documents/thesis/stm32f4/stm-idf/components/stm32f4xx_hal_driver/stm32f4xx_hal_can.c ****         /* Set CAN error code to Error Warning */
2012:/home/phong/Documents/thesis/stm32f4/stm-idf/components/stm32f4xx_hal_driver/stm32f4xx_hal_can.c ****         errorcode |= HAL_CAN_ERROR_EWG;
2013:/home/phong/Documents/thesis/stm32f4/stm-idf/components/stm32f4xx_hal_driver/stm32f4xx_hal_can.c **** 
2014:/home/phong/Documents/thesis/stm32f4/stm-idf/components/stm32f4xx_hal_driver/stm32f4xx_hal_can.c ****         /* No need for clear of Error Warning Flag as read-only */
2015:/home/phong/Documents/thesis/stm32f4/stm-idf/components/stm32f4xx_hal_driver/stm32f4xx_hal_can.c ****       }
2016:/home/phong/Documents/thesis/stm32f4/stm-idf/components/stm32f4xx_hal_driver/stm32f4xx_hal_can.c **** 
2017:/home/phong/Documents/thesis/stm32f4/stm-idf/components/stm32f4xx_hal_driver/stm32f4xx_hal_can.c ****       /* Check Error Passive Flag */
2018:/home/phong/Documents/thesis/stm32f4/stm-idf/components/stm32f4xx_hal_driver/stm32f4xx_hal_can.c ****       if (((interrupts & CAN_IT_ERROR_PASSIVE) != 0U) &&
2019:/home/phong/Documents/thesis/stm32f4/stm-idf/components/stm32f4xx_hal_driver/stm32f4xx_hal_can.c ****           ((esrflags & CAN_ESR_EPVF) != 0U))
2020:/home/phong/Documents/thesis/stm32f4/stm-idf/components/stm32f4xx_hal_driver/stm32f4xx_hal_can.c ****       {
2021:/home/phong/Documents/thesis/stm32f4/stm-idf/components/stm32f4xx_hal_driver/stm32f4xx_hal_can.c ****         /* Set CAN error code to Error Passive */
2022:/home/phong/Documents/thesis/stm32f4/stm-idf/components/stm32f4xx_hal_driver/stm32f4xx_hal_can.c ****         errorcode |= HAL_CAN_ERROR_EPV;
2023:/home/phong/Documents/thesis/stm32f4/stm-idf/components/stm32f4xx_hal_driver/stm32f4xx_hal_can.c **** 
2024:/home/phong/Documents/thesis/stm32f4/stm-idf/components/stm32f4xx_hal_driver/stm32f4xx_hal_can.c ****         /* No need for clear of Error Passive Flag as read-only */
2025:/home/phong/Documents/thesis/stm32f4/stm-idf/components/stm32f4xx_hal_driver/stm32f4xx_hal_can.c ****       }
2026:/home/phong/Documents/thesis/stm32f4/stm-idf/components/stm32f4xx_hal_driver/stm32f4xx_hal_can.c **** 
2027:/home/phong/Documents/thesis/stm32f4/stm-idf/components/stm32f4xx_hal_driver/stm32f4xx_hal_can.c ****       /* Check Bus-off Flag */
2028:/home/phong/Documents/thesis/stm32f4/stm-idf/components/stm32f4xx_hal_driver/stm32f4xx_hal_can.c ****       if (((interrupts & CAN_IT_BUSOFF) != 0U) &&
2029:/home/phong/Documents/thesis/stm32f4/stm-idf/components/stm32f4xx_hal_driver/stm32f4xx_hal_can.c ****           ((esrflags & CAN_ESR_BOFF) != 0U))
2030:/home/phong/Documents/thesis/stm32f4/stm-idf/components/stm32f4xx_hal_driver/stm32f4xx_hal_can.c ****       {
2031:/home/phong/Documents/thesis/stm32f4/stm-idf/components/stm32f4xx_hal_driver/stm32f4xx_hal_can.c ****         /* Set CAN error code to Bus-Off */
2032:/home/phong/Documents/thesis/stm32f4/stm-idf/components/stm32f4xx_hal_driver/stm32f4xx_hal_can.c ****         errorcode |= HAL_CAN_ERROR_BOF;
2033:/home/phong/Documents/thesis/stm32f4/stm-idf/components/stm32f4xx_hal_driver/stm32f4xx_hal_can.c **** 
2034:/home/phong/Documents/thesis/stm32f4/stm-idf/components/stm32f4xx_hal_driver/stm32f4xx_hal_can.c ****         /* No need for clear of Error Bus-Off as read-only */
2035:/home/phong/Documents/thesis/stm32f4/stm-idf/components/stm32f4xx_hal_driver/stm32f4xx_hal_can.c ****       }
2036:/home/phong/Documents/thesis/stm32f4/stm-idf/components/stm32f4xx_hal_driver/stm32f4xx_hal_can.c **** 
2037:/home/phong/Documents/thesis/stm32f4/stm-idf/components/stm32f4xx_hal_driver/stm32f4xx_hal_can.c ****       /* Check Last Error Code Flag */
2038:/home/phong/Documents/thesis/stm32f4/stm-idf/components/stm32f4xx_hal_driver/stm32f4xx_hal_can.c ****       if (((interrupts & CAN_IT_LAST_ERROR_CODE) != 0U) &&
2039:/home/phong/Documents/thesis/stm32f4/stm-idf/components/stm32f4xx_hal_driver/stm32f4xx_hal_can.c ****           ((esrflags & CAN_ESR_LEC) != 0U))
2040:/home/phong/Documents/thesis/stm32f4/stm-idf/components/stm32f4xx_hal_driver/stm32f4xx_hal_can.c ****       {
2041:/home/phong/Documents/thesis/stm32f4/stm-idf/components/stm32f4xx_hal_driver/stm32f4xx_hal_can.c ****         switch (esrflags & CAN_ESR_LEC)
2042:/home/phong/Documents/thesis/stm32f4/stm-idf/components/stm32f4xx_hal_driver/stm32f4xx_hal_can.c ****         {
2043:/home/phong/Documents/thesis/stm32f4/stm-idf/components/stm32f4xx_hal_driver/stm32f4xx_hal_can.c ****           case (CAN_ESR_LEC_0):
2044:/home/phong/Documents/thesis/stm32f4/stm-idf/components/stm32f4xx_hal_driver/stm32f4xx_hal_can.c ****             /* Set CAN error code to Stuff error */
2045:/home/phong/Documents/thesis/stm32f4/stm-idf/components/stm32f4xx_hal_driver/stm32f4xx_hal_can.c ****             errorcode |= HAL_CAN_ERROR_STF;
2046:/home/phong/Documents/thesis/stm32f4/stm-idf/components/stm32f4xx_hal_driver/stm32f4xx_hal_can.c ****             break;
2047:/home/phong/Documents/thesis/stm32f4/stm-idf/components/stm32f4xx_hal_driver/stm32f4xx_hal_can.c ****           case (CAN_ESR_LEC_1):
2048:/home/phong/Documents/thesis/stm32f4/stm-idf/components/stm32f4xx_hal_driver/stm32f4xx_hal_can.c ****             /* Set CAN error code to Form error */
2049:/home/phong/Documents/thesis/stm32f4/stm-idf/components/stm32f4xx_hal_driver/stm32f4xx_hal_can.c ****             errorcode |= HAL_CAN_ERROR_FOR;
2050:/home/phong/Documents/thesis/stm32f4/stm-idf/components/stm32f4xx_hal_driver/stm32f4xx_hal_can.c ****             break;
2051:/home/phong/Documents/thesis/stm32f4/stm-idf/components/stm32f4xx_hal_driver/stm32f4xx_hal_can.c ****           case (CAN_ESR_LEC_1 | CAN_ESR_LEC_0):
2052:/home/phong/Documents/thesis/stm32f4/stm-idf/components/stm32f4xx_hal_driver/stm32f4xx_hal_can.c ****             /* Set CAN error code to Acknowledgement error */
2053:/home/phong/Documents/thesis/stm32f4/stm-idf/components/stm32f4xx_hal_driver/stm32f4xx_hal_can.c ****             errorcode |= HAL_CAN_ERROR_ACK;
2054:/home/phong/Documents/thesis/stm32f4/stm-idf/components/stm32f4xx_hal_driver/stm32f4xx_hal_can.c ****             break;
2055:/home/phong/Documents/thesis/stm32f4/stm-idf/components/stm32f4xx_hal_driver/stm32f4xx_hal_can.c ****           case (CAN_ESR_LEC_2):
2056:/home/phong/Documents/thesis/stm32f4/stm-idf/components/stm32f4xx_hal_driver/stm32f4xx_hal_can.c ****             /* Set CAN error code to Bit recessive error */
2057:/home/phong/Documents/thesis/stm32f4/stm-idf/components/stm32f4xx_hal_driver/stm32f4xx_hal_can.c ****             errorcode |= HAL_CAN_ERROR_BR;
2058:/home/phong/Documents/thesis/stm32f4/stm-idf/components/stm32f4xx_hal_driver/stm32f4xx_hal_can.c ****             break;
2059:/home/phong/Documents/thesis/stm32f4/stm-idf/components/stm32f4xx_hal_driver/stm32f4xx_hal_can.c ****           case (CAN_ESR_LEC_2 | CAN_ESR_LEC_0):
2060:/home/phong/Documents/thesis/stm32f4/stm-idf/components/stm32f4xx_hal_driver/stm32f4xx_hal_can.c ****             /* Set CAN error code to Bit Dominant error */
2061:/home/phong/Documents/thesis/stm32f4/stm-idf/components/stm32f4xx_hal_driver/stm32f4xx_hal_can.c ****             errorcode |= HAL_CAN_ERROR_BD;
2062:/home/phong/Documents/thesis/stm32f4/stm-idf/components/stm32f4xx_hal_driver/stm32f4xx_hal_can.c ****             break;
2063:/home/phong/Documents/thesis/stm32f4/stm-idf/components/stm32f4xx_hal_driver/stm32f4xx_hal_can.c ****           case (CAN_ESR_LEC_2 | CAN_ESR_LEC_1):
2064:/home/phong/Documents/thesis/stm32f4/stm-idf/components/stm32f4xx_hal_driver/stm32f4xx_hal_can.c ****             /* Set CAN error code to CRC error */
2065:/home/phong/Documents/thesis/stm32f4/stm-idf/components/stm32f4xx_hal_driver/stm32f4xx_hal_can.c ****             errorcode |= HAL_CAN_ERROR_CRC;
2066:/home/phong/Documents/thesis/stm32f4/stm-idf/components/stm32f4xx_hal_driver/stm32f4xx_hal_can.c ****             break;
ARM GAS  /tmp/ccW24XdO.s 			page 88


2067:/home/phong/Documents/thesis/stm32f4/stm-idf/components/stm32f4xx_hal_driver/stm32f4xx_hal_can.c ****           default:
2068:/home/phong/Documents/thesis/stm32f4/stm-idf/components/stm32f4xx_hal_driver/stm32f4xx_hal_can.c ****             break;
2069:/home/phong/Documents/thesis/stm32f4/stm-idf/components/stm32f4xx_hal_driver/stm32f4xx_hal_can.c ****         }
2070:/home/phong/Documents/thesis/stm32f4/stm-idf/components/stm32f4xx_hal_driver/stm32f4xx_hal_can.c **** 
2071:/home/phong/Documents/thesis/stm32f4/stm-idf/components/stm32f4xx_hal_driver/stm32f4xx_hal_can.c ****         /* Clear Last error code Flag */
2072:/home/phong/Documents/thesis/stm32f4/stm-idf/components/stm32f4xx_hal_driver/stm32f4xx_hal_can.c ****         CLEAR_BIT(hcan->Instance->ESR, CAN_ESR_LEC);
2073:/home/phong/Documents/thesis/stm32f4/stm-idf/components/stm32f4xx_hal_driver/stm32f4xx_hal_can.c ****       }
2074:/home/phong/Documents/thesis/stm32f4/stm-idf/components/stm32f4xx_hal_driver/stm32f4xx_hal_can.c ****     }
2075:/home/phong/Documents/thesis/stm32f4/stm-idf/components/stm32f4xx_hal_driver/stm32f4xx_hal_can.c **** 
2076:/home/phong/Documents/thesis/stm32f4/stm-idf/components/stm32f4xx_hal_driver/stm32f4xx_hal_can.c ****     /* Clear ERRI Flag */
2077:/home/phong/Documents/thesis/stm32f4/stm-idf/components/stm32f4xx_hal_driver/stm32f4xx_hal_can.c ****     __HAL_CAN_CLEAR_FLAG(hcan, CAN_FLAG_ERRI);
2078:/home/phong/Documents/thesis/stm32f4/stm-idf/components/stm32f4xx_hal_driver/stm32f4xx_hal_can.c ****   }
2079:/home/phong/Documents/thesis/stm32f4/stm-idf/components/stm32f4xx_hal_driver/stm32f4xx_hal_can.c **** 
2080:/home/phong/Documents/thesis/stm32f4/stm-idf/components/stm32f4xx_hal_driver/stm32f4xx_hal_can.c ****   /* Call the Error call Back in case of Errors */
2081:/home/phong/Documents/thesis/stm32f4/stm-idf/components/stm32f4xx_hal_driver/stm32f4xx_hal_can.c ****   if (errorcode != HAL_CAN_ERROR_NONE)
2082:/home/phong/Documents/thesis/stm32f4/stm-idf/components/stm32f4xx_hal_driver/stm32f4xx_hal_can.c ****   {
2083:/home/phong/Documents/thesis/stm32f4/stm-idf/components/stm32f4xx_hal_driver/stm32f4xx_hal_can.c ****     /* Update error code in handle */
2084:/home/phong/Documents/thesis/stm32f4/stm-idf/components/stm32f4xx_hal_driver/stm32f4xx_hal_can.c ****     hcan->ErrorCode |= errorcode;
2085:/home/phong/Documents/thesis/stm32f4/stm-idf/components/stm32f4xx_hal_driver/stm32f4xx_hal_can.c **** 
2086:/home/phong/Documents/thesis/stm32f4/stm-idf/components/stm32f4xx_hal_driver/stm32f4xx_hal_can.c ****     /* Call Error callback function */
2087:/home/phong/Documents/thesis/stm32f4/stm-idf/components/stm32f4xx_hal_driver/stm32f4xx_hal_can.c **** #if USE_HAL_CAN_REGISTER_CALLBACKS == 1
2088:/home/phong/Documents/thesis/stm32f4/stm-idf/components/stm32f4xx_hal_driver/stm32f4xx_hal_can.c ****     /* Call registered callback*/
2089:/home/phong/Documents/thesis/stm32f4/stm-idf/components/stm32f4xx_hal_driver/stm32f4xx_hal_can.c ****     hcan->ErrorCallback(hcan);
2090:/home/phong/Documents/thesis/stm32f4/stm-idf/components/stm32f4xx_hal_driver/stm32f4xx_hal_can.c **** #else
2091:/home/phong/Documents/thesis/stm32f4/stm-idf/components/stm32f4xx_hal_driver/stm32f4xx_hal_can.c ****     /* Call weak (surcharged) callback */
2092:/home/phong/Documents/thesis/stm32f4/stm-idf/components/stm32f4xx_hal_driver/stm32f4xx_hal_can.c ****     HAL_CAN_ErrorCallback(hcan);
2093:/home/phong/Documents/thesis/stm32f4/stm-idf/components/stm32f4xx_hal_driver/stm32f4xx_hal_can.c **** #endif /* USE_HAL_CAN_REGISTER_CALLBACKS */
2094:/home/phong/Documents/thesis/stm32f4/stm-idf/components/stm32f4xx_hal_driver/stm32f4xx_hal_can.c ****   }
2095:/home/phong/Documents/thesis/stm32f4/stm-idf/components/stm32f4xx_hal_driver/stm32f4xx_hal_can.c **** }
2096:/home/phong/Documents/thesis/stm32f4/stm-idf/components/stm32f4xx_hal_driver/stm32f4xx_hal_can.c **** 
2097:/home/phong/Documents/thesis/stm32f4/stm-idf/components/stm32f4xx_hal_driver/stm32f4xx_hal_can.c **** /**
2098:/home/phong/Documents/thesis/stm32f4/stm-idf/components/stm32f4xx_hal_driver/stm32f4xx_hal_can.c ****   * @}
2099:/home/phong/Documents/thesis/stm32f4/stm-idf/components/stm32f4xx_hal_driver/stm32f4xx_hal_can.c ****   */
2100:/home/phong/Documents/thesis/stm32f4/stm-idf/components/stm32f4xx_hal_driver/stm32f4xx_hal_can.c **** 
2101:/home/phong/Documents/thesis/stm32f4/stm-idf/components/stm32f4xx_hal_driver/stm32f4xx_hal_can.c **** /** @defgroup CAN_Exported_Functions_Group5 Callback functions
2102:/home/phong/Documents/thesis/stm32f4/stm-idf/components/stm32f4xx_hal_driver/stm32f4xx_hal_can.c ****  *  @brief   CAN Callback functions
2103:/home/phong/Documents/thesis/stm32f4/stm-idf/components/stm32f4xx_hal_driver/stm32f4xx_hal_can.c ****  *
2104:/home/phong/Documents/thesis/stm32f4/stm-idf/components/stm32f4xx_hal_driver/stm32f4xx_hal_can.c **** @verbatim
2105:/home/phong/Documents/thesis/stm32f4/stm-idf/components/stm32f4xx_hal_driver/stm32f4xx_hal_can.c ****   ==============================================================================
2106:/home/phong/Documents/thesis/stm32f4/stm-idf/components/stm32f4xx_hal_driver/stm32f4xx_hal_can.c ****                           ##### Callback functions #####
2107:/home/phong/Documents/thesis/stm32f4/stm-idf/components/stm32f4xx_hal_driver/stm32f4xx_hal_can.c ****   ==============================================================================
2108:/home/phong/Documents/thesis/stm32f4/stm-idf/components/stm32f4xx_hal_driver/stm32f4xx_hal_can.c ****     [..]
2109:/home/phong/Documents/thesis/stm32f4/stm-idf/components/stm32f4xx_hal_driver/stm32f4xx_hal_can.c ****     This subsection provides the following callback functions:
2110:/home/phong/Documents/thesis/stm32f4/stm-idf/components/stm32f4xx_hal_driver/stm32f4xx_hal_can.c ****       (+) HAL_CAN_TxMailbox0CompleteCallback
2111:/home/phong/Documents/thesis/stm32f4/stm-idf/components/stm32f4xx_hal_driver/stm32f4xx_hal_can.c ****       (+) HAL_CAN_TxMailbox1CompleteCallback
2112:/home/phong/Documents/thesis/stm32f4/stm-idf/components/stm32f4xx_hal_driver/stm32f4xx_hal_can.c ****       (+) HAL_CAN_TxMailbox2CompleteCallback
2113:/home/phong/Documents/thesis/stm32f4/stm-idf/components/stm32f4xx_hal_driver/stm32f4xx_hal_can.c ****       (+) HAL_CAN_TxMailbox0AbortCallback
2114:/home/phong/Documents/thesis/stm32f4/stm-idf/components/stm32f4xx_hal_driver/stm32f4xx_hal_can.c ****       (+) HAL_CAN_TxMailbox1AbortCallback
2115:/home/phong/Documents/thesis/stm32f4/stm-idf/components/stm32f4xx_hal_driver/stm32f4xx_hal_can.c ****       (+) HAL_CAN_TxMailbox2AbortCallback
2116:/home/phong/Documents/thesis/stm32f4/stm-idf/components/stm32f4xx_hal_driver/stm32f4xx_hal_can.c ****       (+) HAL_CAN_RxFifo0MsgPendingCallback
2117:/home/phong/Documents/thesis/stm32f4/stm-idf/components/stm32f4xx_hal_driver/stm32f4xx_hal_can.c ****       (+) HAL_CAN_RxFifo0FullCallback
2118:/home/phong/Documents/thesis/stm32f4/stm-idf/components/stm32f4xx_hal_driver/stm32f4xx_hal_can.c ****       (+) HAL_CAN_RxFifo1MsgPendingCallback
2119:/home/phong/Documents/thesis/stm32f4/stm-idf/components/stm32f4xx_hal_driver/stm32f4xx_hal_can.c ****       (+) HAL_CAN_RxFifo1FullCallback
2120:/home/phong/Documents/thesis/stm32f4/stm-idf/components/stm32f4xx_hal_driver/stm32f4xx_hal_can.c ****       (+) HAL_CAN_SleepCallback
2121:/home/phong/Documents/thesis/stm32f4/stm-idf/components/stm32f4xx_hal_driver/stm32f4xx_hal_can.c ****       (+) HAL_CAN_WakeUpFromRxMsgCallback
2122:/home/phong/Documents/thesis/stm32f4/stm-idf/components/stm32f4xx_hal_driver/stm32f4xx_hal_can.c ****       (+) HAL_CAN_ErrorCallback
2123:/home/phong/Documents/thesis/stm32f4/stm-idf/components/stm32f4xx_hal_driver/stm32f4xx_hal_can.c **** 
ARM GAS  /tmp/ccW24XdO.s 			page 89


2124:/home/phong/Documents/thesis/stm32f4/stm-idf/components/stm32f4xx_hal_driver/stm32f4xx_hal_can.c **** @endverbatim
2125:/home/phong/Documents/thesis/stm32f4/stm-idf/components/stm32f4xx_hal_driver/stm32f4xx_hal_can.c ****   * @{
2126:/home/phong/Documents/thesis/stm32f4/stm-idf/components/stm32f4xx_hal_driver/stm32f4xx_hal_can.c ****   */
2127:/home/phong/Documents/thesis/stm32f4/stm-idf/components/stm32f4xx_hal_driver/stm32f4xx_hal_can.c **** 
2128:/home/phong/Documents/thesis/stm32f4/stm-idf/components/stm32f4xx_hal_driver/stm32f4xx_hal_can.c **** /**
2129:/home/phong/Documents/thesis/stm32f4/stm-idf/components/stm32f4xx_hal_driver/stm32f4xx_hal_can.c ****   * @brief  Transmission Mailbox 0 complete callback.
2130:/home/phong/Documents/thesis/stm32f4/stm-idf/components/stm32f4xx_hal_driver/stm32f4xx_hal_can.c ****   * @param  hcan pointer to a CAN_HandleTypeDef structure that contains
2131:/home/phong/Documents/thesis/stm32f4/stm-idf/components/stm32f4xx_hal_driver/stm32f4xx_hal_can.c ****   *         the configuration information for the specified CAN.
2132:/home/phong/Documents/thesis/stm32f4/stm-idf/components/stm32f4xx_hal_driver/stm32f4xx_hal_can.c ****   * @retval None
2133:/home/phong/Documents/thesis/stm32f4/stm-idf/components/stm32f4xx_hal_driver/stm32f4xx_hal_can.c ****   */
2134:/home/phong/Documents/thesis/stm32f4/stm-idf/components/stm32f4xx_hal_driver/stm32f4xx_hal_can.c **** __weak void HAL_CAN_TxMailbox0CompleteCallback(CAN_HandleTypeDef *hcan)
2135:/home/phong/Documents/thesis/stm32f4/stm-idf/components/stm32f4xx_hal_driver/stm32f4xx_hal_can.c **** {
 1743              		.loc 1 2135 0
 1744              		.cfi_startproc
 1745              		@ args = 0, pretend = 0, frame = 0
 1746              		@ frame_needed = 0, uses_anonymous_args = 0
 1747              		@ link register save eliminated.
 1748              	.LVL174:
 1749 0000 7047     		bx	lr
 1750              		.cfi_endproc
 1751              	.LFE150:
 1753              		.section	.text.HAL_CAN_TxMailbox1CompleteCallback,"ax",%progbits
 1754              		.align	1
 1755              		.weak	HAL_CAN_TxMailbox1CompleteCallback
 1756              		.syntax unified
 1757              		.thumb
 1758              		.thumb_func
 1759              		.fpu fpv4-sp-d16
 1761              	HAL_CAN_TxMailbox1CompleteCallback:
 1762              	.LFB151:
2136:/home/phong/Documents/thesis/stm32f4/stm-idf/components/stm32f4xx_hal_driver/stm32f4xx_hal_can.c ****   /* Prevent unused argument(s) compilation warning */
2137:/home/phong/Documents/thesis/stm32f4/stm-idf/components/stm32f4xx_hal_driver/stm32f4xx_hal_can.c ****   UNUSED(hcan);
2138:/home/phong/Documents/thesis/stm32f4/stm-idf/components/stm32f4xx_hal_driver/stm32f4xx_hal_can.c **** 
2139:/home/phong/Documents/thesis/stm32f4/stm-idf/components/stm32f4xx_hal_driver/stm32f4xx_hal_can.c ****   /* NOTE : This function Should not be modified, when the callback is needed,
2140:/home/phong/Documents/thesis/stm32f4/stm-idf/components/stm32f4xx_hal_driver/stm32f4xx_hal_can.c ****             the HAL_CAN_TxMailbox0CompleteCallback could be implemented in the
2141:/home/phong/Documents/thesis/stm32f4/stm-idf/components/stm32f4xx_hal_driver/stm32f4xx_hal_can.c ****             user file
2142:/home/phong/Documents/thesis/stm32f4/stm-idf/components/stm32f4xx_hal_driver/stm32f4xx_hal_can.c ****    */
2143:/home/phong/Documents/thesis/stm32f4/stm-idf/components/stm32f4xx_hal_driver/stm32f4xx_hal_can.c **** }
2144:/home/phong/Documents/thesis/stm32f4/stm-idf/components/stm32f4xx_hal_driver/stm32f4xx_hal_can.c **** 
2145:/home/phong/Documents/thesis/stm32f4/stm-idf/components/stm32f4xx_hal_driver/stm32f4xx_hal_can.c **** /**
2146:/home/phong/Documents/thesis/stm32f4/stm-idf/components/stm32f4xx_hal_driver/stm32f4xx_hal_can.c ****   * @brief  Transmission Mailbox 1 complete callback.
2147:/home/phong/Documents/thesis/stm32f4/stm-idf/components/stm32f4xx_hal_driver/stm32f4xx_hal_can.c ****   * @param  hcan pointer to a CAN_HandleTypeDef structure that contains
2148:/home/phong/Documents/thesis/stm32f4/stm-idf/components/stm32f4xx_hal_driver/stm32f4xx_hal_can.c ****   *         the configuration information for the specified CAN.
2149:/home/phong/Documents/thesis/stm32f4/stm-idf/components/stm32f4xx_hal_driver/stm32f4xx_hal_can.c ****   * @retval None
2150:/home/phong/Documents/thesis/stm32f4/stm-idf/components/stm32f4xx_hal_driver/stm32f4xx_hal_can.c ****   */
2151:/home/phong/Documents/thesis/stm32f4/stm-idf/components/stm32f4xx_hal_driver/stm32f4xx_hal_can.c **** __weak void HAL_CAN_TxMailbox1CompleteCallback(CAN_HandleTypeDef *hcan)
2152:/home/phong/Documents/thesis/stm32f4/stm-idf/components/stm32f4xx_hal_driver/stm32f4xx_hal_can.c **** {
 1763              		.loc 1 2152 0
 1764              		.cfi_startproc
 1765              		@ args = 0, pretend = 0, frame = 0
 1766              		@ frame_needed = 0, uses_anonymous_args = 0
 1767              		@ link register save eliminated.
 1768              	.LVL175:
 1769 0000 7047     		bx	lr
 1770              		.cfi_endproc
 1771              	.LFE151:
 1773              		.section	.text.HAL_CAN_TxMailbox2CompleteCallback,"ax",%progbits
ARM GAS  /tmp/ccW24XdO.s 			page 90


 1774              		.align	1
 1775              		.weak	HAL_CAN_TxMailbox2CompleteCallback
 1776              		.syntax unified
 1777              		.thumb
 1778              		.thumb_func
 1779              		.fpu fpv4-sp-d16
 1781              	HAL_CAN_TxMailbox2CompleteCallback:
 1782              	.LFB152:
2153:/home/phong/Documents/thesis/stm32f4/stm-idf/components/stm32f4xx_hal_driver/stm32f4xx_hal_can.c ****   /* Prevent unused argument(s) compilation warning */
2154:/home/phong/Documents/thesis/stm32f4/stm-idf/components/stm32f4xx_hal_driver/stm32f4xx_hal_can.c ****   UNUSED(hcan);
2155:/home/phong/Documents/thesis/stm32f4/stm-idf/components/stm32f4xx_hal_driver/stm32f4xx_hal_can.c **** 
2156:/home/phong/Documents/thesis/stm32f4/stm-idf/components/stm32f4xx_hal_driver/stm32f4xx_hal_can.c ****   /* NOTE : This function Should not be modified, when the callback is needed,
2157:/home/phong/Documents/thesis/stm32f4/stm-idf/components/stm32f4xx_hal_driver/stm32f4xx_hal_can.c ****             the HAL_CAN_TxMailbox1CompleteCallback could be implemented in the
2158:/home/phong/Documents/thesis/stm32f4/stm-idf/components/stm32f4xx_hal_driver/stm32f4xx_hal_can.c ****             user file
2159:/home/phong/Documents/thesis/stm32f4/stm-idf/components/stm32f4xx_hal_driver/stm32f4xx_hal_can.c ****    */
2160:/home/phong/Documents/thesis/stm32f4/stm-idf/components/stm32f4xx_hal_driver/stm32f4xx_hal_can.c **** }
2161:/home/phong/Documents/thesis/stm32f4/stm-idf/components/stm32f4xx_hal_driver/stm32f4xx_hal_can.c **** 
2162:/home/phong/Documents/thesis/stm32f4/stm-idf/components/stm32f4xx_hal_driver/stm32f4xx_hal_can.c **** /**
2163:/home/phong/Documents/thesis/stm32f4/stm-idf/components/stm32f4xx_hal_driver/stm32f4xx_hal_can.c ****   * @brief  Transmission Mailbox 2 complete callback.
2164:/home/phong/Documents/thesis/stm32f4/stm-idf/components/stm32f4xx_hal_driver/stm32f4xx_hal_can.c ****   * @param  hcan pointer to a CAN_HandleTypeDef structure that contains
2165:/home/phong/Documents/thesis/stm32f4/stm-idf/components/stm32f4xx_hal_driver/stm32f4xx_hal_can.c ****   *         the configuration information for the specified CAN.
2166:/home/phong/Documents/thesis/stm32f4/stm-idf/components/stm32f4xx_hal_driver/stm32f4xx_hal_can.c ****   * @retval None
2167:/home/phong/Documents/thesis/stm32f4/stm-idf/components/stm32f4xx_hal_driver/stm32f4xx_hal_can.c ****   */
2168:/home/phong/Documents/thesis/stm32f4/stm-idf/components/stm32f4xx_hal_driver/stm32f4xx_hal_can.c **** __weak void HAL_CAN_TxMailbox2CompleteCallback(CAN_HandleTypeDef *hcan)
2169:/home/phong/Documents/thesis/stm32f4/stm-idf/components/stm32f4xx_hal_driver/stm32f4xx_hal_can.c **** {
 1783              		.loc 1 2169 0
 1784              		.cfi_startproc
 1785              		@ args = 0, pretend = 0, frame = 0
 1786              		@ frame_needed = 0, uses_anonymous_args = 0
 1787              		@ link register save eliminated.
 1788              	.LVL176:
 1789 0000 7047     		bx	lr
 1790              		.cfi_endproc
 1791              	.LFE152:
 1793              		.section	.text.HAL_CAN_TxMailbox0AbortCallback,"ax",%progbits
 1794              		.align	1
 1795              		.weak	HAL_CAN_TxMailbox0AbortCallback
 1796              		.syntax unified
 1797              		.thumb
 1798              		.thumb_func
 1799              		.fpu fpv4-sp-d16
 1801              	HAL_CAN_TxMailbox0AbortCallback:
 1802              	.LFB153:
2170:/home/phong/Documents/thesis/stm32f4/stm-idf/components/stm32f4xx_hal_driver/stm32f4xx_hal_can.c ****   /* Prevent unused argument(s) compilation warning */
2171:/home/phong/Documents/thesis/stm32f4/stm-idf/components/stm32f4xx_hal_driver/stm32f4xx_hal_can.c ****   UNUSED(hcan);
2172:/home/phong/Documents/thesis/stm32f4/stm-idf/components/stm32f4xx_hal_driver/stm32f4xx_hal_can.c **** 
2173:/home/phong/Documents/thesis/stm32f4/stm-idf/components/stm32f4xx_hal_driver/stm32f4xx_hal_can.c ****   /* NOTE : This function Should not be modified, when the callback is needed,
2174:/home/phong/Documents/thesis/stm32f4/stm-idf/components/stm32f4xx_hal_driver/stm32f4xx_hal_can.c ****             the HAL_CAN_TxMailbox2CompleteCallback could be implemented in the
2175:/home/phong/Documents/thesis/stm32f4/stm-idf/components/stm32f4xx_hal_driver/stm32f4xx_hal_can.c ****             user file
2176:/home/phong/Documents/thesis/stm32f4/stm-idf/components/stm32f4xx_hal_driver/stm32f4xx_hal_can.c ****    */
2177:/home/phong/Documents/thesis/stm32f4/stm-idf/components/stm32f4xx_hal_driver/stm32f4xx_hal_can.c **** }
2178:/home/phong/Documents/thesis/stm32f4/stm-idf/components/stm32f4xx_hal_driver/stm32f4xx_hal_can.c **** 
2179:/home/phong/Documents/thesis/stm32f4/stm-idf/components/stm32f4xx_hal_driver/stm32f4xx_hal_can.c **** /**
2180:/home/phong/Documents/thesis/stm32f4/stm-idf/components/stm32f4xx_hal_driver/stm32f4xx_hal_can.c ****   * @brief  Transmission Mailbox 0 Cancellation callback.
2181:/home/phong/Documents/thesis/stm32f4/stm-idf/components/stm32f4xx_hal_driver/stm32f4xx_hal_can.c ****   * @param  hcan pointer to an CAN_HandleTypeDef structure that contains
2182:/home/phong/Documents/thesis/stm32f4/stm-idf/components/stm32f4xx_hal_driver/stm32f4xx_hal_can.c ****   *         the configuration information for the specified CAN.
2183:/home/phong/Documents/thesis/stm32f4/stm-idf/components/stm32f4xx_hal_driver/stm32f4xx_hal_can.c ****   * @retval None
ARM GAS  /tmp/ccW24XdO.s 			page 91


2184:/home/phong/Documents/thesis/stm32f4/stm-idf/components/stm32f4xx_hal_driver/stm32f4xx_hal_can.c ****   */
2185:/home/phong/Documents/thesis/stm32f4/stm-idf/components/stm32f4xx_hal_driver/stm32f4xx_hal_can.c **** __weak void HAL_CAN_TxMailbox0AbortCallback(CAN_HandleTypeDef *hcan)
2186:/home/phong/Documents/thesis/stm32f4/stm-idf/components/stm32f4xx_hal_driver/stm32f4xx_hal_can.c **** {
 1803              		.loc 1 2186 0
 1804              		.cfi_startproc
 1805              		@ args = 0, pretend = 0, frame = 0
 1806              		@ frame_needed = 0, uses_anonymous_args = 0
 1807              		@ link register save eliminated.
 1808              	.LVL177:
 1809 0000 7047     		bx	lr
 1810              		.cfi_endproc
 1811              	.LFE153:
 1813              		.section	.text.HAL_CAN_TxMailbox1AbortCallback,"ax",%progbits
 1814              		.align	1
 1815              		.weak	HAL_CAN_TxMailbox1AbortCallback
 1816              		.syntax unified
 1817              		.thumb
 1818              		.thumb_func
 1819              		.fpu fpv4-sp-d16
 1821              	HAL_CAN_TxMailbox1AbortCallback:
 1822              	.LFB154:
2187:/home/phong/Documents/thesis/stm32f4/stm-idf/components/stm32f4xx_hal_driver/stm32f4xx_hal_can.c ****   /* Prevent unused argument(s) compilation warning */
2188:/home/phong/Documents/thesis/stm32f4/stm-idf/components/stm32f4xx_hal_driver/stm32f4xx_hal_can.c ****   UNUSED(hcan);
2189:/home/phong/Documents/thesis/stm32f4/stm-idf/components/stm32f4xx_hal_driver/stm32f4xx_hal_can.c **** 
2190:/home/phong/Documents/thesis/stm32f4/stm-idf/components/stm32f4xx_hal_driver/stm32f4xx_hal_can.c ****   /* NOTE : This function Should not be modified, when the callback is needed,
2191:/home/phong/Documents/thesis/stm32f4/stm-idf/components/stm32f4xx_hal_driver/stm32f4xx_hal_can.c ****             the HAL_CAN_TxMailbox0AbortCallback could be implemented in the
2192:/home/phong/Documents/thesis/stm32f4/stm-idf/components/stm32f4xx_hal_driver/stm32f4xx_hal_can.c ****             user file
2193:/home/phong/Documents/thesis/stm32f4/stm-idf/components/stm32f4xx_hal_driver/stm32f4xx_hal_can.c ****    */
2194:/home/phong/Documents/thesis/stm32f4/stm-idf/components/stm32f4xx_hal_driver/stm32f4xx_hal_can.c **** }
2195:/home/phong/Documents/thesis/stm32f4/stm-idf/components/stm32f4xx_hal_driver/stm32f4xx_hal_can.c **** 
2196:/home/phong/Documents/thesis/stm32f4/stm-idf/components/stm32f4xx_hal_driver/stm32f4xx_hal_can.c **** /**
2197:/home/phong/Documents/thesis/stm32f4/stm-idf/components/stm32f4xx_hal_driver/stm32f4xx_hal_can.c ****   * @brief  Transmission Mailbox 1 Cancellation callback.
2198:/home/phong/Documents/thesis/stm32f4/stm-idf/components/stm32f4xx_hal_driver/stm32f4xx_hal_can.c ****   * @param  hcan pointer to an CAN_HandleTypeDef structure that contains
2199:/home/phong/Documents/thesis/stm32f4/stm-idf/components/stm32f4xx_hal_driver/stm32f4xx_hal_can.c ****   *         the configuration information for the specified CAN.
2200:/home/phong/Documents/thesis/stm32f4/stm-idf/components/stm32f4xx_hal_driver/stm32f4xx_hal_can.c ****   * @retval None
2201:/home/phong/Documents/thesis/stm32f4/stm-idf/components/stm32f4xx_hal_driver/stm32f4xx_hal_can.c ****   */
2202:/home/phong/Documents/thesis/stm32f4/stm-idf/components/stm32f4xx_hal_driver/stm32f4xx_hal_can.c **** __weak void HAL_CAN_TxMailbox1AbortCallback(CAN_HandleTypeDef *hcan)
2203:/home/phong/Documents/thesis/stm32f4/stm-idf/components/stm32f4xx_hal_driver/stm32f4xx_hal_can.c **** {
 1823              		.loc 1 2203 0
 1824              		.cfi_startproc
 1825              		@ args = 0, pretend = 0, frame = 0
 1826              		@ frame_needed = 0, uses_anonymous_args = 0
 1827              		@ link register save eliminated.
 1828              	.LVL178:
 1829 0000 7047     		bx	lr
 1830              		.cfi_endproc
 1831              	.LFE154:
 1833              		.section	.text.HAL_CAN_TxMailbox2AbortCallback,"ax",%progbits
 1834              		.align	1
 1835              		.weak	HAL_CAN_TxMailbox2AbortCallback
 1836              		.syntax unified
 1837              		.thumb
 1838              		.thumb_func
 1839              		.fpu fpv4-sp-d16
 1841              	HAL_CAN_TxMailbox2AbortCallback:
 1842              	.LFB155:
2204:/home/phong/Documents/thesis/stm32f4/stm-idf/components/stm32f4xx_hal_driver/stm32f4xx_hal_can.c ****   /* Prevent unused argument(s) compilation warning */
ARM GAS  /tmp/ccW24XdO.s 			page 92


2205:/home/phong/Documents/thesis/stm32f4/stm-idf/components/stm32f4xx_hal_driver/stm32f4xx_hal_can.c ****   UNUSED(hcan);
2206:/home/phong/Documents/thesis/stm32f4/stm-idf/components/stm32f4xx_hal_driver/stm32f4xx_hal_can.c **** 
2207:/home/phong/Documents/thesis/stm32f4/stm-idf/components/stm32f4xx_hal_driver/stm32f4xx_hal_can.c ****   /* NOTE : This function Should not be modified, when the callback is needed,
2208:/home/phong/Documents/thesis/stm32f4/stm-idf/components/stm32f4xx_hal_driver/stm32f4xx_hal_can.c ****             the HAL_CAN_TxMailbox1AbortCallback could be implemented in the
2209:/home/phong/Documents/thesis/stm32f4/stm-idf/components/stm32f4xx_hal_driver/stm32f4xx_hal_can.c ****             user file
2210:/home/phong/Documents/thesis/stm32f4/stm-idf/components/stm32f4xx_hal_driver/stm32f4xx_hal_can.c ****    */
2211:/home/phong/Documents/thesis/stm32f4/stm-idf/components/stm32f4xx_hal_driver/stm32f4xx_hal_can.c **** }
2212:/home/phong/Documents/thesis/stm32f4/stm-idf/components/stm32f4xx_hal_driver/stm32f4xx_hal_can.c **** 
2213:/home/phong/Documents/thesis/stm32f4/stm-idf/components/stm32f4xx_hal_driver/stm32f4xx_hal_can.c **** /**
2214:/home/phong/Documents/thesis/stm32f4/stm-idf/components/stm32f4xx_hal_driver/stm32f4xx_hal_can.c ****   * @brief  Transmission Mailbox 2 Cancellation callback.
2215:/home/phong/Documents/thesis/stm32f4/stm-idf/components/stm32f4xx_hal_driver/stm32f4xx_hal_can.c ****   * @param  hcan pointer to an CAN_HandleTypeDef structure that contains
2216:/home/phong/Documents/thesis/stm32f4/stm-idf/components/stm32f4xx_hal_driver/stm32f4xx_hal_can.c ****   *         the configuration information for the specified CAN.
2217:/home/phong/Documents/thesis/stm32f4/stm-idf/components/stm32f4xx_hal_driver/stm32f4xx_hal_can.c ****   * @retval None
2218:/home/phong/Documents/thesis/stm32f4/stm-idf/components/stm32f4xx_hal_driver/stm32f4xx_hal_can.c ****   */
2219:/home/phong/Documents/thesis/stm32f4/stm-idf/components/stm32f4xx_hal_driver/stm32f4xx_hal_can.c **** __weak void HAL_CAN_TxMailbox2AbortCallback(CAN_HandleTypeDef *hcan)
2220:/home/phong/Documents/thesis/stm32f4/stm-idf/components/stm32f4xx_hal_driver/stm32f4xx_hal_can.c **** {
 1843              		.loc 1 2220 0
 1844              		.cfi_startproc
 1845              		@ args = 0, pretend = 0, frame = 0
 1846              		@ frame_needed = 0, uses_anonymous_args = 0
 1847              		@ link register save eliminated.
 1848              	.LVL179:
 1849 0000 7047     		bx	lr
 1850              		.cfi_endproc
 1851              	.LFE155:
 1853              		.section	.text.HAL_CAN_RxFifo0MsgPendingCallback,"ax",%progbits
 1854              		.align	1
 1855              		.weak	HAL_CAN_RxFifo0MsgPendingCallback
 1856              		.syntax unified
 1857              		.thumb
 1858              		.thumb_func
 1859              		.fpu fpv4-sp-d16
 1861              	HAL_CAN_RxFifo0MsgPendingCallback:
 1862              	.LFB156:
2221:/home/phong/Documents/thesis/stm32f4/stm-idf/components/stm32f4xx_hal_driver/stm32f4xx_hal_can.c ****   /* Prevent unused argument(s) compilation warning */
2222:/home/phong/Documents/thesis/stm32f4/stm-idf/components/stm32f4xx_hal_driver/stm32f4xx_hal_can.c ****   UNUSED(hcan);
2223:/home/phong/Documents/thesis/stm32f4/stm-idf/components/stm32f4xx_hal_driver/stm32f4xx_hal_can.c **** 
2224:/home/phong/Documents/thesis/stm32f4/stm-idf/components/stm32f4xx_hal_driver/stm32f4xx_hal_can.c ****   /* NOTE : This function Should not be modified, when the callback is needed,
2225:/home/phong/Documents/thesis/stm32f4/stm-idf/components/stm32f4xx_hal_driver/stm32f4xx_hal_can.c ****             the HAL_CAN_TxMailbox2AbortCallback could be implemented in the
2226:/home/phong/Documents/thesis/stm32f4/stm-idf/components/stm32f4xx_hal_driver/stm32f4xx_hal_can.c ****             user file
2227:/home/phong/Documents/thesis/stm32f4/stm-idf/components/stm32f4xx_hal_driver/stm32f4xx_hal_can.c ****    */
2228:/home/phong/Documents/thesis/stm32f4/stm-idf/components/stm32f4xx_hal_driver/stm32f4xx_hal_can.c **** }
2229:/home/phong/Documents/thesis/stm32f4/stm-idf/components/stm32f4xx_hal_driver/stm32f4xx_hal_can.c **** 
2230:/home/phong/Documents/thesis/stm32f4/stm-idf/components/stm32f4xx_hal_driver/stm32f4xx_hal_can.c **** /**
2231:/home/phong/Documents/thesis/stm32f4/stm-idf/components/stm32f4xx_hal_driver/stm32f4xx_hal_can.c ****   * @brief  Rx FIFO 0 message pending callback.
2232:/home/phong/Documents/thesis/stm32f4/stm-idf/components/stm32f4xx_hal_driver/stm32f4xx_hal_can.c ****   * @param  hcan pointer to a CAN_HandleTypeDef structure that contains
2233:/home/phong/Documents/thesis/stm32f4/stm-idf/components/stm32f4xx_hal_driver/stm32f4xx_hal_can.c ****   *         the configuration information for the specified CAN.
2234:/home/phong/Documents/thesis/stm32f4/stm-idf/components/stm32f4xx_hal_driver/stm32f4xx_hal_can.c ****   * @retval None
2235:/home/phong/Documents/thesis/stm32f4/stm-idf/components/stm32f4xx_hal_driver/stm32f4xx_hal_can.c ****   */
2236:/home/phong/Documents/thesis/stm32f4/stm-idf/components/stm32f4xx_hal_driver/stm32f4xx_hal_can.c **** __weak void HAL_CAN_RxFifo0MsgPendingCallback(CAN_HandleTypeDef *hcan)
2237:/home/phong/Documents/thesis/stm32f4/stm-idf/components/stm32f4xx_hal_driver/stm32f4xx_hal_can.c **** {
 1863              		.loc 1 2237 0
 1864              		.cfi_startproc
 1865              		@ args = 0, pretend = 0, frame = 0
 1866              		@ frame_needed = 0, uses_anonymous_args = 0
 1867              		@ link register save eliminated.
 1868              	.LVL180:
ARM GAS  /tmp/ccW24XdO.s 			page 93


 1869 0000 7047     		bx	lr
 1870              		.cfi_endproc
 1871              	.LFE156:
 1873              		.section	.text.HAL_CAN_RxFifo0FullCallback,"ax",%progbits
 1874              		.align	1
 1875              		.weak	HAL_CAN_RxFifo0FullCallback
 1876              		.syntax unified
 1877              		.thumb
 1878              		.thumb_func
 1879              		.fpu fpv4-sp-d16
 1881              	HAL_CAN_RxFifo0FullCallback:
 1882              	.LFB157:
2238:/home/phong/Documents/thesis/stm32f4/stm-idf/components/stm32f4xx_hal_driver/stm32f4xx_hal_can.c ****   /* Prevent unused argument(s) compilation warning */
2239:/home/phong/Documents/thesis/stm32f4/stm-idf/components/stm32f4xx_hal_driver/stm32f4xx_hal_can.c ****   UNUSED(hcan);
2240:/home/phong/Documents/thesis/stm32f4/stm-idf/components/stm32f4xx_hal_driver/stm32f4xx_hal_can.c **** 
2241:/home/phong/Documents/thesis/stm32f4/stm-idf/components/stm32f4xx_hal_driver/stm32f4xx_hal_can.c ****   /* NOTE : This function Should not be modified, when the callback is needed,
2242:/home/phong/Documents/thesis/stm32f4/stm-idf/components/stm32f4xx_hal_driver/stm32f4xx_hal_can.c ****             the HAL_CAN_RxFifo0MsgPendingCallback could be implemented in the
2243:/home/phong/Documents/thesis/stm32f4/stm-idf/components/stm32f4xx_hal_driver/stm32f4xx_hal_can.c ****             user file
2244:/home/phong/Documents/thesis/stm32f4/stm-idf/components/stm32f4xx_hal_driver/stm32f4xx_hal_can.c ****    */
2245:/home/phong/Documents/thesis/stm32f4/stm-idf/components/stm32f4xx_hal_driver/stm32f4xx_hal_can.c **** }
2246:/home/phong/Documents/thesis/stm32f4/stm-idf/components/stm32f4xx_hal_driver/stm32f4xx_hal_can.c **** 
2247:/home/phong/Documents/thesis/stm32f4/stm-idf/components/stm32f4xx_hal_driver/stm32f4xx_hal_can.c **** /**
2248:/home/phong/Documents/thesis/stm32f4/stm-idf/components/stm32f4xx_hal_driver/stm32f4xx_hal_can.c ****   * @brief  Rx FIFO 0 full callback.
2249:/home/phong/Documents/thesis/stm32f4/stm-idf/components/stm32f4xx_hal_driver/stm32f4xx_hal_can.c ****   * @param  hcan pointer to a CAN_HandleTypeDef structure that contains
2250:/home/phong/Documents/thesis/stm32f4/stm-idf/components/stm32f4xx_hal_driver/stm32f4xx_hal_can.c ****   *         the configuration information for the specified CAN.
2251:/home/phong/Documents/thesis/stm32f4/stm-idf/components/stm32f4xx_hal_driver/stm32f4xx_hal_can.c ****   * @retval None
2252:/home/phong/Documents/thesis/stm32f4/stm-idf/components/stm32f4xx_hal_driver/stm32f4xx_hal_can.c ****   */
2253:/home/phong/Documents/thesis/stm32f4/stm-idf/components/stm32f4xx_hal_driver/stm32f4xx_hal_can.c **** __weak void HAL_CAN_RxFifo0FullCallback(CAN_HandleTypeDef *hcan)
2254:/home/phong/Documents/thesis/stm32f4/stm-idf/components/stm32f4xx_hal_driver/stm32f4xx_hal_can.c **** {
 1883              		.loc 1 2254 0
 1884              		.cfi_startproc
 1885              		@ args = 0, pretend = 0, frame = 0
 1886              		@ frame_needed = 0, uses_anonymous_args = 0
 1887              		@ link register save eliminated.
 1888              	.LVL181:
 1889 0000 7047     		bx	lr
 1890              		.cfi_endproc
 1891              	.LFE157:
 1893              		.section	.text.HAL_CAN_RxFifo1MsgPendingCallback,"ax",%progbits
 1894              		.align	1
 1895              		.weak	HAL_CAN_RxFifo1MsgPendingCallback
 1896              		.syntax unified
 1897              		.thumb
 1898              		.thumb_func
 1899              		.fpu fpv4-sp-d16
 1901              	HAL_CAN_RxFifo1MsgPendingCallback:
 1902              	.LFB158:
2255:/home/phong/Documents/thesis/stm32f4/stm-idf/components/stm32f4xx_hal_driver/stm32f4xx_hal_can.c ****   /* Prevent unused argument(s) compilation warning */
2256:/home/phong/Documents/thesis/stm32f4/stm-idf/components/stm32f4xx_hal_driver/stm32f4xx_hal_can.c ****   UNUSED(hcan);
2257:/home/phong/Documents/thesis/stm32f4/stm-idf/components/stm32f4xx_hal_driver/stm32f4xx_hal_can.c **** 
2258:/home/phong/Documents/thesis/stm32f4/stm-idf/components/stm32f4xx_hal_driver/stm32f4xx_hal_can.c ****   /* NOTE : This function Should not be modified, when the callback is needed,
2259:/home/phong/Documents/thesis/stm32f4/stm-idf/components/stm32f4xx_hal_driver/stm32f4xx_hal_can.c ****             the HAL_CAN_RxFifo0FullCallback could be implemented in the user
2260:/home/phong/Documents/thesis/stm32f4/stm-idf/components/stm32f4xx_hal_driver/stm32f4xx_hal_can.c ****             file
2261:/home/phong/Documents/thesis/stm32f4/stm-idf/components/stm32f4xx_hal_driver/stm32f4xx_hal_can.c ****    */
2262:/home/phong/Documents/thesis/stm32f4/stm-idf/components/stm32f4xx_hal_driver/stm32f4xx_hal_can.c **** }
2263:/home/phong/Documents/thesis/stm32f4/stm-idf/components/stm32f4xx_hal_driver/stm32f4xx_hal_can.c **** 
2264:/home/phong/Documents/thesis/stm32f4/stm-idf/components/stm32f4xx_hal_driver/stm32f4xx_hal_can.c **** /**
ARM GAS  /tmp/ccW24XdO.s 			page 94


2265:/home/phong/Documents/thesis/stm32f4/stm-idf/components/stm32f4xx_hal_driver/stm32f4xx_hal_can.c ****   * @brief  Rx FIFO 1 message pending callback.
2266:/home/phong/Documents/thesis/stm32f4/stm-idf/components/stm32f4xx_hal_driver/stm32f4xx_hal_can.c ****   * @param  hcan pointer to a CAN_HandleTypeDef structure that contains
2267:/home/phong/Documents/thesis/stm32f4/stm-idf/components/stm32f4xx_hal_driver/stm32f4xx_hal_can.c ****   *         the configuration information for the specified CAN.
2268:/home/phong/Documents/thesis/stm32f4/stm-idf/components/stm32f4xx_hal_driver/stm32f4xx_hal_can.c ****   * @retval None
2269:/home/phong/Documents/thesis/stm32f4/stm-idf/components/stm32f4xx_hal_driver/stm32f4xx_hal_can.c ****   */
2270:/home/phong/Documents/thesis/stm32f4/stm-idf/components/stm32f4xx_hal_driver/stm32f4xx_hal_can.c **** __weak void HAL_CAN_RxFifo1MsgPendingCallback(CAN_HandleTypeDef *hcan)
2271:/home/phong/Documents/thesis/stm32f4/stm-idf/components/stm32f4xx_hal_driver/stm32f4xx_hal_can.c **** {
 1903              		.loc 1 2271 0
 1904              		.cfi_startproc
 1905              		@ args = 0, pretend = 0, frame = 0
 1906              		@ frame_needed = 0, uses_anonymous_args = 0
 1907              		@ link register save eliminated.
 1908              	.LVL182:
 1909 0000 7047     		bx	lr
 1910              		.cfi_endproc
 1911              	.LFE158:
 1913              		.section	.text.HAL_CAN_RxFifo1FullCallback,"ax",%progbits
 1914              		.align	1
 1915              		.weak	HAL_CAN_RxFifo1FullCallback
 1916              		.syntax unified
 1917              		.thumb
 1918              		.thumb_func
 1919              		.fpu fpv4-sp-d16
 1921              	HAL_CAN_RxFifo1FullCallback:
 1922              	.LFB159:
2272:/home/phong/Documents/thesis/stm32f4/stm-idf/components/stm32f4xx_hal_driver/stm32f4xx_hal_can.c ****   /* Prevent unused argument(s) compilation warning */
2273:/home/phong/Documents/thesis/stm32f4/stm-idf/components/stm32f4xx_hal_driver/stm32f4xx_hal_can.c ****   UNUSED(hcan);
2274:/home/phong/Documents/thesis/stm32f4/stm-idf/components/stm32f4xx_hal_driver/stm32f4xx_hal_can.c **** 
2275:/home/phong/Documents/thesis/stm32f4/stm-idf/components/stm32f4xx_hal_driver/stm32f4xx_hal_can.c ****   /* NOTE : This function Should not be modified, when the callback is needed,
2276:/home/phong/Documents/thesis/stm32f4/stm-idf/components/stm32f4xx_hal_driver/stm32f4xx_hal_can.c ****             the HAL_CAN_RxFifo1MsgPendingCallback could be implemented in the
2277:/home/phong/Documents/thesis/stm32f4/stm-idf/components/stm32f4xx_hal_driver/stm32f4xx_hal_can.c ****             user file
2278:/home/phong/Documents/thesis/stm32f4/stm-idf/components/stm32f4xx_hal_driver/stm32f4xx_hal_can.c ****    */
2279:/home/phong/Documents/thesis/stm32f4/stm-idf/components/stm32f4xx_hal_driver/stm32f4xx_hal_can.c **** }
2280:/home/phong/Documents/thesis/stm32f4/stm-idf/components/stm32f4xx_hal_driver/stm32f4xx_hal_can.c **** 
2281:/home/phong/Documents/thesis/stm32f4/stm-idf/components/stm32f4xx_hal_driver/stm32f4xx_hal_can.c **** /**
2282:/home/phong/Documents/thesis/stm32f4/stm-idf/components/stm32f4xx_hal_driver/stm32f4xx_hal_can.c ****   * @brief  Rx FIFO 1 full callback.
2283:/home/phong/Documents/thesis/stm32f4/stm-idf/components/stm32f4xx_hal_driver/stm32f4xx_hal_can.c ****   * @param  hcan pointer to a CAN_HandleTypeDef structure that contains
2284:/home/phong/Documents/thesis/stm32f4/stm-idf/components/stm32f4xx_hal_driver/stm32f4xx_hal_can.c ****   *         the configuration information for the specified CAN.
2285:/home/phong/Documents/thesis/stm32f4/stm-idf/components/stm32f4xx_hal_driver/stm32f4xx_hal_can.c ****   * @retval None
2286:/home/phong/Documents/thesis/stm32f4/stm-idf/components/stm32f4xx_hal_driver/stm32f4xx_hal_can.c ****   */
2287:/home/phong/Documents/thesis/stm32f4/stm-idf/components/stm32f4xx_hal_driver/stm32f4xx_hal_can.c **** __weak void HAL_CAN_RxFifo1FullCallback(CAN_HandleTypeDef *hcan)
2288:/home/phong/Documents/thesis/stm32f4/stm-idf/components/stm32f4xx_hal_driver/stm32f4xx_hal_can.c **** {
 1923              		.loc 1 2288 0
 1924              		.cfi_startproc
 1925              		@ args = 0, pretend = 0, frame = 0
 1926              		@ frame_needed = 0, uses_anonymous_args = 0
 1927              		@ link register save eliminated.
 1928              	.LVL183:
 1929 0000 7047     		bx	lr
 1930              		.cfi_endproc
 1931              	.LFE159:
 1933              		.section	.text.HAL_CAN_SleepCallback,"ax",%progbits
 1934              		.align	1
 1935              		.weak	HAL_CAN_SleepCallback
 1936              		.syntax unified
 1937              		.thumb
 1938              		.thumb_func
ARM GAS  /tmp/ccW24XdO.s 			page 95


 1939              		.fpu fpv4-sp-d16
 1941              	HAL_CAN_SleepCallback:
 1942              	.LFB160:
2289:/home/phong/Documents/thesis/stm32f4/stm-idf/components/stm32f4xx_hal_driver/stm32f4xx_hal_can.c ****   /* Prevent unused argument(s) compilation warning */
2290:/home/phong/Documents/thesis/stm32f4/stm-idf/components/stm32f4xx_hal_driver/stm32f4xx_hal_can.c ****   UNUSED(hcan);
2291:/home/phong/Documents/thesis/stm32f4/stm-idf/components/stm32f4xx_hal_driver/stm32f4xx_hal_can.c **** 
2292:/home/phong/Documents/thesis/stm32f4/stm-idf/components/stm32f4xx_hal_driver/stm32f4xx_hal_can.c ****   /* NOTE : This function Should not be modified, when the callback is needed,
2293:/home/phong/Documents/thesis/stm32f4/stm-idf/components/stm32f4xx_hal_driver/stm32f4xx_hal_can.c ****             the HAL_CAN_RxFifo1FullCallback could be implemented in the user
2294:/home/phong/Documents/thesis/stm32f4/stm-idf/components/stm32f4xx_hal_driver/stm32f4xx_hal_can.c ****             file
2295:/home/phong/Documents/thesis/stm32f4/stm-idf/components/stm32f4xx_hal_driver/stm32f4xx_hal_can.c ****    */
2296:/home/phong/Documents/thesis/stm32f4/stm-idf/components/stm32f4xx_hal_driver/stm32f4xx_hal_can.c **** }
2297:/home/phong/Documents/thesis/stm32f4/stm-idf/components/stm32f4xx_hal_driver/stm32f4xx_hal_can.c **** 
2298:/home/phong/Documents/thesis/stm32f4/stm-idf/components/stm32f4xx_hal_driver/stm32f4xx_hal_can.c **** /**
2299:/home/phong/Documents/thesis/stm32f4/stm-idf/components/stm32f4xx_hal_driver/stm32f4xx_hal_can.c ****   * @brief  Sleep callback.
2300:/home/phong/Documents/thesis/stm32f4/stm-idf/components/stm32f4xx_hal_driver/stm32f4xx_hal_can.c ****   * @param  hcan pointer to a CAN_HandleTypeDef structure that contains
2301:/home/phong/Documents/thesis/stm32f4/stm-idf/components/stm32f4xx_hal_driver/stm32f4xx_hal_can.c ****   *         the configuration information for the specified CAN.
2302:/home/phong/Documents/thesis/stm32f4/stm-idf/components/stm32f4xx_hal_driver/stm32f4xx_hal_can.c ****   * @retval None
2303:/home/phong/Documents/thesis/stm32f4/stm-idf/components/stm32f4xx_hal_driver/stm32f4xx_hal_can.c ****   */
2304:/home/phong/Documents/thesis/stm32f4/stm-idf/components/stm32f4xx_hal_driver/stm32f4xx_hal_can.c **** __weak void HAL_CAN_SleepCallback(CAN_HandleTypeDef *hcan)
2305:/home/phong/Documents/thesis/stm32f4/stm-idf/components/stm32f4xx_hal_driver/stm32f4xx_hal_can.c **** {
 1943              		.loc 1 2305 0
 1944              		.cfi_startproc
 1945              		@ args = 0, pretend = 0, frame = 0
 1946              		@ frame_needed = 0, uses_anonymous_args = 0
 1947              		@ link register save eliminated.
 1948              	.LVL184:
 1949 0000 7047     		bx	lr
 1950              		.cfi_endproc
 1951              	.LFE160:
 1953              		.section	.text.HAL_CAN_WakeUpFromRxMsgCallback,"ax",%progbits
 1954              		.align	1
 1955              		.weak	HAL_CAN_WakeUpFromRxMsgCallback
 1956              		.syntax unified
 1957              		.thumb
 1958              		.thumb_func
 1959              		.fpu fpv4-sp-d16
 1961              	HAL_CAN_WakeUpFromRxMsgCallback:
 1962              	.LFB161:
2306:/home/phong/Documents/thesis/stm32f4/stm-idf/components/stm32f4xx_hal_driver/stm32f4xx_hal_can.c ****   /* Prevent unused argument(s) compilation warning */
2307:/home/phong/Documents/thesis/stm32f4/stm-idf/components/stm32f4xx_hal_driver/stm32f4xx_hal_can.c ****   UNUSED(hcan);
2308:/home/phong/Documents/thesis/stm32f4/stm-idf/components/stm32f4xx_hal_driver/stm32f4xx_hal_can.c **** 
2309:/home/phong/Documents/thesis/stm32f4/stm-idf/components/stm32f4xx_hal_driver/stm32f4xx_hal_can.c ****   /* NOTE : This function Should not be modified, when the callback is needed,
2310:/home/phong/Documents/thesis/stm32f4/stm-idf/components/stm32f4xx_hal_driver/stm32f4xx_hal_can.c ****             the HAL_CAN_SleepCallback could be implemented in the user file
2311:/home/phong/Documents/thesis/stm32f4/stm-idf/components/stm32f4xx_hal_driver/stm32f4xx_hal_can.c ****    */
2312:/home/phong/Documents/thesis/stm32f4/stm-idf/components/stm32f4xx_hal_driver/stm32f4xx_hal_can.c **** }
2313:/home/phong/Documents/thesis/stm32f4/stm-idf/components/stm32f4xx_hal_driver/stm32f4xx_hal_can.c **** 
2314:/home/phong/Documents/thesis/stm32f4/stm-idf/components/stm32f4xx_hal_driver/stm32f4xx_hal_can.c **** /**
2315:/home/phong/Documents/thesis/stm32f4/stm-idf/components/stm32f4xx_hal_driver/stm32f4xx_hal_can.c ****   * @brief  WakeUp from Rx message callback.
2316:/home/phong/Documents/thesis/stm32f4/stm-idf/components/stm32f4xx_hal_driver/stm32f4xx_hal_can.c ****   * @param  hcan pointer to a CAN_HandleTypeDef structure that contains
2317:/home/phong/Documents/thesis/stm32f4/stm-idf/components/stm32f4xx_hal_driver/stm32f4xx_hal_can.c ****   *         the configuration information for the specified CAN.
2318:/home/phong/Documents/thesis/stm32f4/stm-idf/components/stm32f4xx_hal_driver/stm32f4xx_hal_can.c ****   * @retval None
2319:/home/phong/Documents/thesis/stm32f4/stm-idf/components/stm32f4xx_hal_driver/stm32f4xx_hal_can.c ****   */
2320:/home/phong/Documents/thesis/stm32f4/stm-idf/components/stm32f4xx_hal_driver/stm32f4xx_hal_can.c **** __weak void HAL_CAN_WakeUpFromRxMsgCallback(CAN_HandleTypeDef *hcan)
2321:/home/phong/Documents/thesis/stm32f4/stm-idf/components/stm32f4xx_hal_driver/stm32f4xx_hal_can.c **** {
 1963              		.loc 1 2321 0
 1964              		.cfi_startproc
 1965              		@ args = 0, pretend = 0, frame = 0
ARM GAS  /tmp/ccW24XdO.s 			page 96


 1966              		@ frame_needed = 0, uses_anonymous_args = 0
 1967              		@ link register save eliminated.
 1968              	.LVL185:
 1969 0000 7047     		bx	lr
 1970              		.cfi_endproc
 1971              	.LFE161:
 1973              		.section	.text.HAL_CAN_ErrorCallback,"ax",%progbits
 1974              		.align	1
 1975              		.weak	HAL_CAN_ErrorCallback
 1976              		.syntax unified
 1977              		.thumb
 1978              		.thumb_func
 1979              		.fpu fpv4-sp-d16
 1981              	HAL_CAN_ErrorCallback:
 1982              	.LFB162:
2322:/home/phong/Documents/thesis/stm32f4/stm-idf/components/stm32f4xx_hal_driver/stm32f4xx_hal_can.c ****   /* Prevent unused argument(s) compilation warning */
2323:/home/phong/Documents/thesis/stm32f4/stm-idf/components/stm32f4xx_hal_driver/stm32f4xx_hal_can.c ****   UNUSED(hcan);
2324:/home/phong/Documents/thesis/stm32f4/stm-idf/components/stm32f4xx_hal_driver/stm32f4xx_hal_can.c **** 
2325:/home/phong/Documents/thesis/stm32f4/stm-idf/components/stm32f4xx_hal_driver/stm32f4xx_hal_can.c ****   /* NOTE : This function Should not be modified, when the callback is needed,
2326:/home/phong/Documents/thesis/stm32f4/stm-idf/components/stm32f4xx_hal_driver/stm32f4xx_hal_can.c ****             the HAL_CAN_WakeUpFromRxMsgCallback could be implemented in the
2327:/home/phong/Documents/thesis/stm32f4/stm-idf/components/stm32f4xx_hal_driver/stm32f4xx_hal_can.c ****             user file
2328:/home/phong/Documents/thesis/stm32f4/stm-idf/components/stm32f4xx_hal_driver/stm32f4xx_hal_can.c ****    */
2329:/home/phong/Documents/thesis/stm32f4/stm-idf/components/stm32f4xx_hal_driver/stm32f4xx_hal_can.c **** }
2330:/home/phong/Documents/thesis/stm32f4/stm-idf/components/stm32f4xx_hal_driver/stm32f4xx_hal_can.c **** 
2331:/home/phong/Documents/thesis/stm32f4/stm-idf/components/stm32f4xx_hal_driver/stm32f4xx_hal_can.c **** /**
2332:/home/phong/Documents/thesis/stm32f4/stm-idf/components/stm32f4xx_hal_driver/stm32f4xx_hal_can.c ****   * @brief  Error CAN callback.
2333:/home/phong/Documents/thesis/stm32f4/stm-idf/components/stm32f4xx_hal_driver/stm32f4xx_hal_can.c ****   * @param  hcan pointer to a CAN_HandleTypeDef structure that contains
2334:/home/phong/Documents/thesis/stm32f4/stm-idf/components/stm32f4xx_hal_driver/stm32f4xx_hal_can.c ****   *         the configuration information for the specified CAN.
2335:/home/phong/Documents/thesis/stm32f4/stm-idf/components/stm32f4xx_hal_driver/stm32f4xx_hal_can.c ****   * @retval None
2336:/home/phong/Documents/thesis/stm32f4/stm-idf/components/stm32f4xx_hal_driver/stm32f4xx_hal_can.c ****   */
2337:/home/phong/Documents/thesis/stm32f4/stm-idf/components/stm32f4xx_hal_driver/stm32f4xx_hal_can.c **** __weak void HAL_CAN_ErrorCallback(CAN_HandleTypeDef *hcan)
2338:/home/phong/Documents/thesis/stm32f4/stm-idf/components/stm32f4xx_hal_driver/stm32f4xx_hal_can.c **** {
 1983              		.loc 1 2338 0
 1984              		.cfi_startproc
 1985              		@ args = 0, pretend = 0, frame = 0
 1986              		@ frame_needed = 0, uses_anonymous_args = 0
 1987              		@ link register save eliminated.
 1988              	.LVL186:
 1989 0000 7047     		bx	lr
 1990              		.cfi_endproc
 1991              	.LFE162:
 1993              		.section	.text.HAL_CAN_IRQHandler,"ax",%progbits
 1994              		.align	1
 1995              		.global	HAL_CAN_IRQHandler
 1996              		.syntax unified
 1997              		.thumb
 1998              		.thumb_func
 1999              		.fpu fpv4-sp-d16
 2001              	HAL_CAN_IRQHandler:
 2002              	.LFB149:
1724:/home/phong/Documents/thesis/stm32f4/stm-idf/components/stm32f4xx_hal_driver/stm32f4xx_hal_can.c ****   uint32_t errorcode = HAL_CAN_ERROR_NONE;
 2003              		.loc 1 1724 0
 2004              		.cfi_startproc
 2005              		@ args = 0, pretend = 0, frame = 0
 2006              		@ frame_needed = 0, uses_anonymous_args = 0
 2007              	.LVL187:
1724:/home/phong/Documents/thesis/stm32f4/stm-idf/components/stm32f4xx_hal_driver/stm32f4xx_hal_can.c ****   uint32_t errorcode = HAL_CAN_ERROR_NONE;
ARM GAS  /tmp/ccW24XdO.s 			page 97


 2008              		.loc 1 1724 0
 2009 0000 2DE9F84F 		push	{r3, r4, r5, r6, r7, r8, r9, r10, fp, lr}
 2010              	.LCFI18:
 2011              		.cfi_def_cfa_offset 40
 2012              		.cfi_offset 3, -40
 2013              		.cfi_offset 4, -36
 2014              		.cfi_offset 5, -32
 2015              		.cfi_offset 6, -28
 2016              		.cfi_offset 7, -24
 2017              		.cfi_offset 8, -20
 2018              		.cfi_offset 9, -16
 2019              		.cfi_offset 10, -12
 2020              		.cfi_offset 11, -8
 2021              		.cfi_offset 14, -4
 2022 0004 0546     		mov	r5, r0
 2023              	.LVL188:
1726:/home/phong/Documents/thesis/stm32f4/stm-idf/components/stm32f4xx_hal_driver/stm32f4xx_hal_can.c ****   uint32_t msrflags = READ_REG(hcan->Instance->MSR);
 2024              		.loc 1 1726 0
 2025 0006 0368     		ldr	r3, [r0]
 2026 0008 5C69     		ldr	r4, [r3, #20]
 2027              	.LVL189:
1727:/home/phong/Documents/thesis/stm32f4/stm-idf/components/stm32f4xx_hal_driver/stm32f4xx_hal_can.c ****   uint32_t tsrflags = READ_REG(hcan->Instance->TSR);
 2028              		.loc 1 1727 0
 2029 000a 5F68     		ldr	r7, [r3, #4]
 2030              	.LVL190:
1728:/home/phong/Documents/thesis/stm32f4/stm-idf/components/stm32f4xx_hal_driver/stm32f4xx_hal_can.c ****   uint32_t rf0rflags = READ_REG(hcan->Instance->RF0R);
 2031              		.loc 1 1728 0
 2032 000c 9E68     		ldr	r6, [r3, #8]
 2033              	.LVL191:
1729:/home/phong/Documents/thesis/stm32f4/stm-idf/components/stm32f4xx_hal_driver/stm32f4xx_hal_can.c ****   uint32_t rf1rflags = READ_REG(hcan->Instance->RF1R);
 2034              		.loc 1 1729 0
 2035 000e D3F80C90 		ldr	r9, [r3, #12]
 2036              	.LVL192:
1730:/home/phong/Documents/thesis/stm32f4/stm-idf/components/stm32f4xx_hal_driver/stm32f4xx_hal_can.c ****   uint32_t esrflags = READ_REG(hcan->Instance->ESR);
 2037              		.loc 1 1730 0
 2038 0012 D3F81080 		ldr	r8, [r3, #16]
 2039              	.LVL193:
1731:/home/phong/Documents/thesis/stm32f4/stm-idf/components/stm32f4xx_hal_driver/stm32f4xx_hal_can.c **** 
 2040              		.loc 1 1731 0
 2041 0016 D3F818A0 		ldr	r10, [r3, #24]
 2042              	.LVL194:
1734:/home/phong/Documents/thesis/stm32f4/stm-idf/components/stm32f4xx_hal_driver/stm32f4xx_hal_can.c ****   {
 2043              		.loc 1 1734 0
 2044 001a 14F0010F 		tst	r4, #1
 2045 001e 5AD0     		beq	.L205
1737:/home/phong/Documents/thesis/stm32f4/stm-idf/components/stm32f4xx_hal_driver/stm32f4xx_hal_can.c ****     {
 2046              		.loc 1 1737 0
 2047 0020 16F0010F 		tst	r6, #1
 2048 0024 17D0     		beq	.L206
1740:/home/phong/Documents/thesis/stm32f4/stm-idf/components/stm32f4xx_hal_driver/stm32f4xx_hal_can.c **** 
 2049              		.loc 1 1740 0
 2050 0026 0122     		movs	r2, #1
 2051 0028 9A60     		str	r2, [r3, #8]
1742:/home/phong/Documents/thesis/stm32f4/stm-idf/components/stm32f4xx_hal_driver/stm32f4xx_hal_can.c ****       {
 2052              		.loc 1 1742 0
 2053 002a 16F0020F 		tst	r6, #2
 2054 002e 08D1     		bne	.L210
ARM GAS  /tmp/ccW24XdO.s 			page 98


1755:/home/phong/Documents/thesis/stm32f4/stm-idf/components/stm32f4xx_hal_driver/stm32f4xx_hal_can.c ****         {
 2055              		.loc 1 1755 0
 2056 0030 16F0040F 		tst	r6, #4
 2057 0034 30D1     		bne	.L207
1760:/home/phong/Documents/thesis/stm32f4/stm-idf/components/stm32f4xx_hal_driver/stm32f4xx_hal_can.c ****         {
 2058              		.loc 1 1760 0
 2059 0036 16F0080F 		tst	r6, #8
 2060 003a 07D0     		beq	.L211
1763:/home/phong/Documents/thesis/stm32f4/stm-idf/components/stm32f4xx_hal_driver/stm32f4xx_hal_can.c ****         }
 2061              		.loc 1 1763 0
 2062 003c 4FF4805B 		mov	fp, #4096
 2063 0040 0BE0     		b	.L174
 2064              	.L210:
1750:/home/phong/Documents/thesis/stm32f4/stm-idf/components/stm32f4xx_hal_driver/stm32f4xx_hal_can.c **** #endif /* USE_HAL_CAN_REGISTER_CALLBACKS */
 2065              		.loc 1 1750 0
 2066 0042 FFF7FEFF 		bl	HAL_CAN_TxMailbox0CompleteCallback
 2067              	.LVL195:
1725:/home/phong/Documents/thesis/stm32f4/stm-idf/components/stm32f4xx_hal_driver/stm32f4xx_hal_can.c ****   uint32_t interrupts = READ_REG(hcan->Instance->IER);
 2068              		.loc 1 1725 0
 2069 0046 4FF0000B 		mov	fp, #0
 2070 004a 06E0     		b	.L174
 2071              	.LVL196:
 2072              	.L211:
1773:/home/phong/Documents/thesis/stm32f4/stm-idf/components/stm32f4xx_hal_driver/stm32f4xx_hal_can.c **** #endif /* USE_HAL_CAN_REGISTER_CALLBACKS */
 2073              		.loc 1 1773 0
 2074 004c FFF7FEFF 		bl	HAL_CAN_TxMailbox0AbortCallback
 2075              	.LVL197:
1725:/home/phong/Documents/thesis/stm32f4/stm-idf/components/stm32f4xx_hal_driver/stm32f4xx_hal_can.c ****   uint32_t interrupts = READ_REG(hcan->Instance->IER);
 2076              		.loc 1 1725 0
 2077 0050 4FF0000B 		mov	fp, #0
 2078 0054 01E0     		b	.L174
 2079              	.LVL198:
 2080              	.L206:
 2081 0056 4FF0000B 		mov	fp, #0
 2082              	.LVL199:
 2083              	.L174:
1780:/home/phong/Documents/thesis/stm32f4/stm-idf/components/stm32f4xx_hal_driver/stm32f4xx_hal_can.c ****     {
 2084              		.loc 1 1780 0
 2085 005a 16F4807F 		tst	r6, #256
 2086 005e 0BD0     		beq	.L176
1783:/home/phong/Documents/thesis/stm32f4/stm-idf/components/stm32f4xx_hal_driver/stm32f4xx_hal_can.c **** 
 2087              		.loc 1 1783 0
 2088 0060 2B68     		ldr	r3, [r5]
 2089 0062 4FF48072 		mov	r2, #256
 2090 0066 9A60     		str	r2, [r3, #8]
1785:/home/phong/Documents/thesis/stm32f4/stm-idf/components/stm32f4xx_hal_driver/stm32f4xx_hal_can.c ****       {
 2091              		.loc 1 1785 0
 2092 0068 16F4007F 		tst	r6, #512
 2093 006c 17D1     		bne	.L212
1798:/home/phong/Documents/thesis/stm32f4/stm-idf/components/stm32f4xx_hal_driver/stm32f4xx_hal_can.c ****         {
 2094              		.loc 1 1798 0
 2095 006e 16F4806F 		tst	r6, #1024
 2096 0072 18D0     		beq	.L178
1801:/home/phong/Documents/thesis/stm32f4/stm-idf/components/stm32f4xx_hal_driver/stm32f4xx_hal_can.c ****         }
 2097              		.loc 1 1801 0
 2098 0074 4BF4005B 		orr	fp, fp, #8192
 2099              	.LVL200:
ARM GAS  /tmp/ccW24XdO.s 			page 99


 2100              	.L176:
1823:/home/phong/Documents/thesis/stm32f4/stm-idf/components/stm32f4xx_hal_driver/stm32f4xx_hal_can.c ****     {
 2101              		.loc 1 1823 0
 2102 0078 16F4803F 		tst	r6, #65536
 2103 007c 2DD0     		beq	.L173
1826:/home/phong/Documents/thesis/stm32f4/stm-idf/components/stm32f4xx_hal_driver/stm32f4xx_hal_can.c **** 
 2104              		.loc 1 1826 0
 2105 007e 2B68     		ldr	r3, [r5]
 2106 0080 4FF48032 		mov	r2, #65536
 2107 0084 9A60     		str	r2, [r3, #8]
1828:/home/phong/Documents/thesis/stm32f4/stm-idf/components/stm32f4xx_hal_driver/stm32f4xx_hal_can.c ****       {
 2108              		.loc 1 1828 0
 2109 0086 16F4003F 		tst	r6, #131072
 2110 008a 16D1     		bne	.L213
1841:/home/phong/Documents/thesis/stm32f4/stm-idf/components/stm32f4xx_hal_driver/stm32f4xx_hal_can.c ****         {
 2111              		.loc 1 1841 0
 2112 008c 16F4802F 		tst	r6, #262144
 2113 0090 17D0     		beq	.L181
1844:/home/phong/Documents/thesis/stm32f4/stm-idf/components/stm32f4xx_hal_driver/stm32f4xx_hal_can.c ****         }
 2114              		.loc 1 1844 0
 2115 0092 4BF4004B 		orr	fp, fp, #32768
 2116              	.LVL201:
 2117 0096 20E0     		b	.L173
 2118              	.LVL202:
 2119              	.L207:
1758:/home/phong/Documents/thesis/stm32f4/stm-idf/components/stm32f4xx_hal_driver/stm32f4xx_hal_can.c ****         }
 2120              		.loc 1 1758 0
 2121 0098 4FF4006B 		mov	fp, #2048
 2122 009c DDE7     		b	.L174
 2123              	.LVL203:
 2124              	.L212:
1793:/home/phong/Documents/thesis/stm32f4/stm-idf/components/stm32f4xx_hal_driver/stm32f4xx_hal_can.c **** #endif /* USE_HAL_CAN_REGISTER_CALLBACKS */
 2125              		.loc 1 1793 0
 2126 009e 2846     		mov	r0, r5
 2127 00a0 FFF7FEFF 		bl	HAL_CAN_TxMailbox1CompleteCallback
 2128              	.LVL204:
 2129 00a4 E8E7     		b	.L176
 2130              	.L178:
1803:/home/phong/Documents/thesis/stm32f4/stm-idf/components/stm32f4xx_hal_driver/stm32f4xx_hal_can.c ****         {
 2131              		.loc 1 1803 0
 2132 00a6 16F4006F 		tst	r6, #2048
 2133 00aa 02D0     		beq	.L179
1806:/home/phong/Documents/thesis/stm32f4/stm-idf/components/stm32f4xx_hal_driver/stm32f4xx_hal_can.c ****         }
 2134              		.loc 1 1806 0
 2135 00ac 4BF4804B 		orr	fp, fp, #16384
 2136              	.LVL205:
 2137 00b0 E2E7     		b	.L176
 2138              	.L179:
1816:/home/phong/Documents/thesis/stm32f4/stm-idf/components/stm32f4xx_hal_driver/stm32f4xx_hal_can.c **** #endif /* USE_HAL_CAN_REGISTER_CALLBACKS */
 2139              		.loc 1 1816 0
 2140 00b2 2846     		mov	r0, r5
 2141 00b4 FFF7FEFF 		bl	HAL_CAN_TxMailbox1AbortCallback
 2142              	.LVL206:
 2143 00b8 DEE7     		b	.L176
 2144              	.L213:
1836:/home/phong/Documents/thesis/stm32f4/stm-idf/components/stm32f4xx_hal_driver/stm32f4xx_hal_can.c **** #endif /* USE_HAL_CAN_REGISTER_CALLBACKS */
 2145              		.loc 1 1836 0
ARM GAS  /tmp/ccW24XdO.s 			page 100


 2146 00ba 2846     		mov	r0, r5
 2147 00bc FFF7FEFF 		bl	HAL_CAN_TxMailbox2CompleteCallback
 2148              	.LVL207:
 2149 00c0 0BE0     		b	.L173
 2150              	.L181:
1846:/home/phong/Documents/thesis/stm32f4/stm-idf/components/stm32f4xx_hal_driver/stm32f4xx_hal_can.c ****         {
 2151              		.loc 1 1846 0
 2152 00c2 16F4002F 		tst	r6, #524288
 2153 00c6 02D0     		beq	.L182
1849:/home/phong/Documents/thesis/stm32f4/stm-idf/components/stm32f4xx_hal_driver/stm32f4xx_hal_can.c ****         }
 2154              		.loc 1 1849 0
 2155 00c8 4BF4803B 		orr	fp, fp, #65536
 2156              	.LVL208:
 2157 00cc 05E0     		b	.L173
 2158              	.L182:
1859:/home/phong/Documents/thesis/stm32f4/stm-idf/components/stm32f4xx_hal_driver/stm32f4xx_hal_can.c **** #endif /* USE_HAL_CAN_REGISTER_CALLBACKS */
 2159              		.loc 1 1859 0
 2160 00ce 2846     		mov	r0, r5
 2161 00d0 FFF7FEFF 		bl	HAL_CAN_TxMailbox2AbortCallback
 2162              	.LVL209:
 2163 00d4 01E0     		b	.L173
 2164              	.LVL210:
 2165              	.L205:
1725:/home/phong/Documents/thesis/stm32f4/stm-idf/components/stm32f4xx_hal_driver/stm32f4xx_hal_can.c ****   uint32_t interrupts = READ_REG(hcan->Instance->IER);
 2166              		.loc 1 1725 0
 2167 00d6 4FF0000B 		mov	fp, #0
 2168              	.LVL211:
 2169              	.L173:
1867:/home/phong/Documents/thesis/stm32f4/stm-idf/components/stm32f4xx_hal_driver/stm32f4xx_hal_can.c ****   {
 2170              		.loc 1 1867 0
 2171 00da 14F0080F 		tst	r4, #8
 2172 00de 07D0     		beq	.L183
1869:/home/phong/Documents/thesis/stm32f4/stm-idf/components/stm32f4xx_hal_driver/stm32f4xx_hal_can.c ****     {
 2173              		.loc 1 1869 0
 2174 00e0 19F0100F 		tst	r9, #16
 2175 00e4 04D0     		beq	.L183
1872:/home/phong/Documents/thesis/stm32f4/stm-idf/components/stm32f4xx_hal_driver/stm32f4xx_hal_can.c **** 
 2176              		.loc 1 1872 0
 2177 00e6 4BF4007B 		orr	fp, fp, #512
 2178              	.LVL212:
1875:/home/phong/Documents/thesis/stm32f4/stm-idf/components/stm32f4xx_hal_driver/stm32f4xx_hal_can.c ****     }
 2179              		.loc 1 1875 0
 2180 00ea 2B68     		ldr	r3, [r5]
 2181 00ec 1022     		movs	r2, #16
 2182 00ee DA60     		str	r2, [r3, #12]
 2183              	.L183:
1880:/home/phong/Documents/thesis/stm32f4/stm-idf/components/stm32f4xx_hal_driver/stm32f4xx_hal_can.c ****   {
 2184              		.loc 1 1880 0
 2185 00f0 14F0040F 		tst	r4, #4
 2186 00f4 02D0     		beq	.L184
1882:/home/phong/Documents/thesis/stm32f4/stm-idf/components/stm32f4xx_hal_driver/stm32f4xx_hal_can.c ****     {
 2187              		.loc 1 1882 0
 2188 00f6 19F0080F 		tst	r9, #8
 2189 00fa 60D1     		bne	.L214
 2190              	.L184:
1899:/home/phong/Documents/thesis/stm32f4/stm-idf/components/stm32f4xx_hal_driver/stm32f4xx_hal_can.c ****   {
 2191              		.loc 1 1899 0
ARM GAS  /tmp/ccW24XdO.s 			page 101


 2192 00fc 14F0020F 		tst	r4, #2
 2193 0100 04D0     		beq	.L185
1902:/home/phong/Documents/thesis/stm32f4/stm-idf/components/stm32f4xx_hal_driver/stm32f4xx_hal_can.c ****     {
 2194              		.loc 1 1902 0
 2195 0102 2B68     		ldr	r3, [r5]
 2196 0104 DB68     		ldr	r3, [r3, #12]
 2197 0106 13F0030F 		tst	r3, #3
 2198 010a 5FD1     		bne	.L215
 2199              	.L185:
1916:/home/phong/Documents/thesis/stm32f4/stm-idf/components/stm32f4xx_hal_driver/stm32f4xx_hal_can.c ****   {
 2200              		.loc 1 1916 0
 2201 010c 14F0400F 		tst	r4, #64
 2202 0110 07D0     		beq	.L186
1918:/home/phong/Documents/thesis/stm32f4/stm-idf/components/stm32f4xx_hal_driver/stm32f4xx_hal_can.c ****     {
 2203              		.loc 1 1918 0
 2204 0112 18F0100F 		tst	r8, #16
 2205 0116 04D0     		beq	.L186
1921:/home/phong/Documents/thesis/stm32f4/stm-idf/components/stm32f4xx_hal_driver/stm32f4xx_hal_can.c **** 
 2206              		.loc 1 1921 0
 2207 0118 4BF4806B 		orr	fp, fp, #1024
 2208              	.LVL213:
1924:/home/phong/Documents/thesis/stm32f4/stm-idf/components/stm32f4xx_hal_driver/stm32f4xx_hal_can.c ****     }
 2209              		.loc 1 1924 0
 2210 011c 2B68     		ldr	r3, [r5]
 2211 011e 1022     		movs	r2, #16
 2212 0120 1A61     		str	r2, [r3, #16]
 2213              	.L186:
1929:/home/phong/Documents/thesis/stm32f4/stm-idf/components/stm32f4xx_hal_driver/stm32f4xx_hal_can.c ****   {
 2214              		.loc 1 1929 0
 2215 0122 14F0200F 		tst	r4, #32
 2216 0126 02D0     		beq	.L187
1931:/home/phong/Documents/thesis/stm32f4/stm-idf/components/stm32f4xx_hal_driver/stm32f4xx_hal_can.c ****     {
 2217              		.loc 1 1931 0
 2218 0128 18F0080F 		tst	r8, #8
 2219 012c 52D1     		bne	.L216
 2220              	.L187:
1948:/home/phong/Documents/thesis/stm32f4/stm-idf/components/stm32f4xx_hal_driver/stm32f4xx_hal_can.c ****   {
 2221              		.loc 1 1948 0
 2222 012e 14F0100F 		tst	r4, #16
 2223 0132 04D0     		beq	.L188
1951:/home/phong/Documents/thesis/stm32f4/stm-idf/components/stm32f4xx_hal_driver/stm32f4xx_hal_can.c ****     {
 2224              		.loc 1 1951 0
 2225 0134 2B68     		ldr	r3, [r5]
 2226 0136 1B69     		ldr	r3, [r3, #16]
 2227 0138 13F0030F 		tst	r3, #3
 2228 013c 51D1     		bne	.L217
 2229              	.L188:
1965:/home/phong/Documents/thesis/stm32f4/stm-idf/components/stm32f4xx_hal_driver/stm32f4xx_hal_can.c ****   {
 2230              		.loc 1 1965 0
 2231 013e 14F4003F 		tst	r4, #131072
 2232 0142 02D0     		beq	.L189
1967:/home/phong/Documents/thesis/stm32f4/stm-idf/components/stm32f4xx_hal_driver/stm32f4xx_hal_can.c ****     {
 2233              		.loc 1 1967 0
 2234 0144 17F0100F 		tst	r7, #16
 2235 0148 4FD1     		bne	.L218
 2236              	.L189:
1984:/home/phong/Documents/thesis/stm32f4/stm-idf/components/stm32f4xx_hal_driver/stm32f4xx_hal_can.c ****   {
ARM GAS  /tmp/ccW24XdO.s 			page 102


 2237              		.loc 1 1984 0
 2238 014a 14F4803F 		tst	r4, #65536
 2239 014e 02D0     		beq	.L190
1986:/home/phong/Documents/thesis/stm32f4/stm-idf/components/stm32f4xx_hal_driver/stm32f4xx_hal_can.c ****     {
 2240              		.loc 1 1986 0
 2241 0150 17F0080F 		tst	r7, #8
 2242 0154 50D1     		bne	.L219
 2243              	.L190:
2003:/home/phong/Documents/thesis/stm32f4/stm-idf/components/stm32f4xx_hal_driver/stm32f4xx_hal_can.c ****   {
 2244              		.loc 1 2003 0
 2245 0156 14F4004F 		tst	r4, #32768
 2246 015a 67D0     		beq	.L191
2005:/home/phong/Documents/thesis/stm32f4/stm-idf/components/stm32f4xx_hal_driver/stm32f4xx_hal_can.c ****     {
 2247              		.loc 1 2005 0
 2248 015c 17F0040F 		tst	r7, #4
 2249 0160 61D0     		beq	.L192
2008:/home/phong/Documents/thesis/stm32f4/stm-idf/components/stm32f4xx_hal_driver/stm32f4xx_hal_can.c ****           ((esrflags & CAN_ESR_EWGF) != 0U))
 2250              		.loc 1 2008 0
 2251 0162 14F4807F 		tst	r4, #256
 2252 0166 04D0     		beq	.L193
2008:/home/phong/Documents/thesis/stm32f4/stm-idf/components/stm32f4xx_hal_driver/stm32f4xx_hal_can.c ****           ((esrflags & CAN_ESR_EWGF) != 0U))
 2253              		.loc 1 2008 0 is_stmt 0 discriminator 1
 2254 0168 1AF0010F 		tst	r10, #1
 2255 016c 01D0     		beq	.L193
2012:/home/phong/Documents/thesis/stm32f4/stm-idf/components/stm32f4xx_hal_driver/stm32f4xx_hal_can.c **** 
 2256              		.loc 1 2012 0 is_stmt 1
 2257 016e 4BF0010B 		orr	fp, fp, #1
 2258              	.LVL214:
 2259              	.L193:
2018:/home/phong/Documents/thesis/stm32f4/stm-idf/components/stm32f4xx_hal_driver/stm32f4xx_hal_can.c ****           ((esrflags & CAN_ESR_EPVF) != 0U))
 2260              		.loc 1 2018 0
 2261 0172 14F4007F 		tst	r4, #512
 2262 0176 04D0     		beq	.L194
2018:/home/phong/Documents/thesis/stm32f4/stm-idf/components/stm32f4xx_hal_driver/stm32f4xx_hal_can.c ****           ((esrflags & CAN_ESR_EPVF) != 0U))
 2263              		.loc 1 2018 0 is_stmt 0 discriminator 1
 2264 0178 1AF0020F 		tst	r10, #2
 2265 017c 01D0     		beq	.L194
2022:/home/phong/Documents/thesis/stm32f4/stm-idf/components/stm32f4xx_hal_driver/stm32f4xx_hal_can.c **** 
 2266              		.loc 1 2022 0 is_stmt 1
 2267 017e 4BF0020B 		orr	fp, fp, #2
 2268              	.LVL215:
 2269              	.L194:
2028:/home/phong/Documents/thesis/stm32f4/stm-idf/components/stm32f4xx_hal_driver/stm32f4xx_hal_can.c ****           ((esrflags & CAN_ESR_BOFF) != 0U))
 2270              		.loc 1 2028 0
 2271 0182 14F4806F 		tst	r4, #1024
 2272 0186 04D0     		beq	.L195
2028:/home/phong/Documents/thesis/stm32f4/stm-idf/components/stm32f4xx_hal_driver/stm32f4xx_hal_can.c ****           ((esrflags & CAN_ESR_BOFF) != 0U))
 2273              		.loc 1 2028 0 is_stmt 0 discriminator 1
 2274 0188 1AF0040F 		tst	r10, #4
 2275 018c 01D0     		beq	.L195
2032:/home/phong/Documents/thesis/stm32f4/stm-idf/components/stm32f4xx_hal_driver/stm32f4xx_hal_can.c **** 
 2276              		.loc 1 2032 0 is_stmt 1
 2277 018e 4BF0040B 		orr	fp, fp, #4
 2278              	.LVL216:
 2279              	.L195:
2038:/home/phong/Documents/thesis/stm32f4/stm-idf/components/stm32f4xx_hal_driver/stm32f4xx_hal_can.c ****           ((esrflags & CAN_ESR_LEC) != 0U))
 2280              		.loc 1 2038 0
ARM GAS  /tmp/ccW24XdO.s 			page 103


 2281 0192 14F4006F 		tst	r4, #2048
 2282 0196 46D0     		beq	.L192
2038:/home/phong/Documents/thesis/stm32f4/stm-idf/components/stm32f4xx_hal_driver/stm32f4xx_hal_can.c ****           ((esrflags & CAN_ESR_LEC) != 0U))
 2283              		.loc 1 2038 0 is_stmt 0 discriminator 1
 2284 0198 1AF0700A 		ands	r10, r10, #112
 2285              	.LVL217:
 2286 019c 43D0     		beq	.L192
2041:/home/phong/Documents/thesis/stm32f4/stm-idf/components/stm32f4xx_hal_driver/stm32f4xx_hal_can.c ****         {
 2287              		.loc 1 2041 0 is_stmt 1
 2288 019e BAF1300F 		cmp	r10, #48
 2289 01a2 48D0     		beq	.L197
 2290 01a4 2FD9     		bls	.L220
 2291 01a6 BAF1500F 		cmp	r10, #80
 2292 01aa 47D0     		beq	.L201
 2293 01ac BAF1600F 		cmp	r10, #96
 2294 01b0 47D0     		beq	.L202
 2295 01b2 BAF1400F 		cmp	r10, #64
 2296 01b6 31D1     		bne	.L196
2057:/home/phong/Documents/thesis/stm32f4/stm-idf/components/stm32f4xx_hal_driver/stm32f4xx_hal_can.c ****             break;
 2297              		.loc 1 2057 0
 2298 01b8 4BF0400B 		orr	fp, fp, #64
 2299              	.LVL218:
2058:/home/phong/Documents/thesis/stm32f4/stm-idf/components/stm32f4xx_hal_driver/stm32f4xx_hal_can.c ****           case (CAN_ESR_LEC_2 | CAN_ESR_LEC_0):
 2300              		.loc 1 2058 0
 2301 01bc 2EE0     		b	.L196
 2302              	.LVL219:
 2303              	.L214:
1885:/home/phong/Documents/thesis/stm32f4/stm-idf/components/stm32f4xx_hal_driver/stm32f4xx_hal_can.c **** 
 2304              		.loc 1 1885 0
 2305 01be 2B68     		ldr	r3, [r5]
 2306 01c0 0822     		movs	r2, #8
 2307 01c2 DA60     		str	r2, [r3, #12]
1893:/home/phong/Documents/thesis/stm32f4/stm-idf/components/stm32f4xx_hal_driver/stm32f4xx_hal_can.c **** #endif /* USE_HAL_CAN_REGISTER_CALLBACKS */
 2308              		.loc 1 1893 0
 2309 01c4 2846     		mov	r0, r5
 2310 01c6 FFF7FEFF 		bl	HAL_CAN_RxFifo0FullCallback
 2311              	.LVL220:
 2312 01ca 97E7     		b	.L184
 2313              	.L215:
1910:/home/phong/Documents/thesis/stm32f4/stm-idf/components/stm32f4xx_hal_driver/stm32f4xx_hal_can.c **** #endif /* USE_HAL_CAN_REGISTER_CALLBACKS */
 2314              		.loc 1 1910 0
 2315 01cc 2846     		mov	r0, r5
 2316 01ce FFF7FEFF 		bl	HAL_CAN_RxFifo0MsgPendingCallback
 2317              	.LVL221:
 2318 01d2 9BE7     		b	.L185
 2319              	.L216:
1934:/home/phong/Documents/thesis/stm32f4/stm-idf/components/stm32f4xx_hal_driver/stm32f4xx_hal_can.c **** 
 2320              		.loc 1 1934 0
 2321 01d4 2B68     		ldr	r3, [r5]
 2322 01d6 0822     		movs	r2, #8
 2323 01d8 1A61     		str	r2, [r3, #16]
1942:/home/phong/Documents/thesis/stm32f4/stm-idf/components/stm32f4xx_hal_driver/stm32f4xx_hal_can.c **** #endif /* USE_HAL_CAN_REGISTER_CALLBACKS */
 2324              		.loc 1 1942 0
 2325 01da 2846     		mov	r0, r5
 2326 01dc FFF7FEFF 		bl	HAL_CAN_RxFifo1FullCallback
 2327              	.LVL222:
 2328 01e0 A5E7     		b	.L187
ARM GAS  /tmp/ccW24XdO.s 			page 104


 2329              	.L217:
1959:/home/phong/Documents/thesis/stm32f4/stm-idf/components/stm32f4xx_hal_driver/stm32f4xx_hal_can.c **** #endif /* USE_HAL_CAN_REGISTER_CALLBACKS */
 2330              		.loc 1 1959 0
 2331 01e2 2846     		mov	r0, r5
 2332 01e4 FFF7FEFF 		bl	HAL_CAN_RxFifo1MsgPendingCallback
 2333              	.LVL223:
 2334 01e8 A9E7     		b	.L188
 2335              	.L218:
1970:/home/phong/Documents/thesis/stm32f4/stm-idf/components/stm32f4xx_hal_driver/stm32f4xx_hal_can.c **** 
 2336              		.loc 1 1970 0
 2337 01ea 2B68     		ldr	r3, [r5]
 2338 01ec 1022     		movs	r2, #16
 2339 01ee 5A60     		str	r2, [r3, #4]
1978:/home/phong/Documents/thesis/stm32f4/stm-idf/components/stm32f4xx_hal_driver/stm32f4xx_hal_can.c **** #endif /* USE_HAL_CAN_REGISTER_CALLBACKS */
 2340              		.loc 1 1978 0
 2341 01f0 2846     		mov	r0, r5
 2342 01f2 FFF7FEFF 		bl	HAL_CAN_SleepCallback
 2343              	.LVL224:
 2344 01f6 A8E7     		b	.L189
 2345              	.L219:
1989:/home/phong/Documents/thesis/stm32f4/stm-idf/components/stm32f4xx_hal_driver/stm32f4xx_hal_can.c **** 
 2346              		.loc 1 1989 0
 2347 01f8 2B68     		ldr	r3, [r5]
 2348 01fa 0822     		movs	r2, #8
 2349 01fc 5A60     		str	r2, [r3, #4]
1997:/home/phong/Documents/thesis/stm32f4/stm-idf/components/stm32f4xx_hal_driver/stm32f4xx_hal_can.c **** #endif /* USE_HAL_CAN_REGISTER_CALLBACKS */
 2350              		.loc 1 1997 0
 2351 01fe 2846     		mov	r0, r5
 2352 0200 FFF7FEFF 		bl	HAL_CAN_WakeUpFromRxMsgCallback
 2353              	.LVL225:
 2354 0204 A7E7     		b	.L190
 2355              	.LVL226:
 2356              	.L220:
2041:/home/phong/Documents/thesis/stm32f4/stm-idf/components/stm32f4xx_hal_driver/stm32f4xx_hal_can.c ****         {
 2357              		.loc 1 2041 0
 2358 0206 BAF1100F 		cmp	r10, #16
 2359 020a 05D0     		beq	.L199
 2360 020c BAF1200F 		cmp	r10, #32
 2361 0210 04D1     		bne	.L196
2049:/home/phong/Documents/thesis/stm32f4/stm-idf/components/stm32f4xx_hal_driver/stm32f4xx_hal_can.c ****             break;
 2362              		.loc 1 2049 0
 2363 0212 4BF0100B 		orr	fp, fp, #16
 2364              	.LVL227:
2050:/home/phong/Documents/thesis/stm32f4/stm-idf/components/stm32f4xx_hal_driver/stm32f4xx_hal_can.c ****           case (CAN_ESR_LEC_1 | CAN_ESR_LEC_0):
 2365              		.loc 1 2050 0
 2366 0216 01E0     		b	.L196
 2367              	.L199:
2045:/home/phong/Documents/thesis/stm32f4/stm-idf/components/stm32f4xx_hal_driver/stm32f4xx_hal_can.c ****             break;
 2368              		.loc 1 2045 0
 2369 0218 4BF0080B 		orr	fp, fp, #8
 2370              	.LVL228:
 2371              	.L196:
2072:/home/phong/Documents/thesis/stm32f4/stm-idf/components/stm32f4xx_hal_driver/stm32f4xx_hal_can.c ****       }
 2372              		.loc 1 2072 0
 2373 021c 2A68     		ldr	r2, [r5]
 2374 021e 9369     		ldr	r3, [r2, #24]
 2375 0220 23F07003 		bic	r3, r3, #112
ARM GAS  /tmp/ccW24XdO.s 			page 105


 2376 0224 9361     		str	r3, [r2, #24]
 2377              	.L192:
2077:/home/phong/Documents/thesis/stm32f4/stm-idf/components/stm32f4xx_hal_driver/stm32f4xx_hal_can.c ****   }
 2378              		.loc 1 2077 0
 2379 0226 2B68     		ldr	r3, [r5]
 2380 0228 0422     		movs	r2, #4
 2381 022a 5A60     		str	r2, [r3, #4]
 2382              	.L191:
2081:/home/phong/Documents/thesis/stm32f4/stm-idf/components/stm32f4xx_hal_driver/stm32f4xx_hal_can.c ****   {
 2383              		.loc 1 2081 0
 2384 022c BBF1000F 		cmp	fp, #0
 2385 0230 0AD1     		bne	.L221
 2386              	.L172:
 2387 0232 BDE8F88F 		pop	{r3, r4, r5, r6, r7, r8, r9, r10, fp, pc}
 2388              	.LVL229:
 2389              	.L197:
2053:/home/phong/Documents/thesis/stm32f4/stm-idf/components/stm32f4xx_hal_driver/stm32f4xx_hal_can.c ****             break;
 2390              		.loc 1 2053 0
 2391 0236 4BF0200B 		orr	fp, fp, #32
 2392              	.LVL230:
2054:/home/phong/Documents/thesis/stm32f4/stm-idf/components/stm32f4xx_hal_driver/stm32f4xx_hal_can.c ****           case (CAN_ESR_LEC_2):
 2393              		.loc 1 2054 0
 2394 023a EFE7     		b	.L196
 2395              	.L201:
2061:/home/phong/Documents/thesis/stm32f4/stm-idf/components/stm32f4xx_hal_driver/stm32f4xx_hal_can.c ****             break;
 2396              		.loc 1 2061 0
 2397 023c 4BF0800B 		orr	fp, fp, #128
 2398              	.LVL231:
2062:/home/phong/Documents/thesis/stm32f4/stm-idf/components/stm32f4xx_hal_driver/stm32f4xx_hal_can.c ****           case (CAN_ESR_LEC_2 | CAN_ESR_LEC_1):
 2399              		.loc 1 2062 0
 2400 0240 ECE7     		b	.L196
 2401              	.L202:
2065:/home/phong/Documents/thesis/stm32f4/stm-idf/components/stm32f4xx_hal_driver/stm32f4xx_hal_can.c ****             break;
 2402              		.loc 1 2065 0
 2403 0242 4BF4807B 		orr	fp, fp, #256
 2404              	.LVL232:
2066:/home/phong/Documents/thesis/stm32f4/stm-idf/components/stm32f4xx_hal_driver/stm32f4xx_hal_can.c ****           default:
 2405              		.loc 1 2066 0
 2406 0246 E9E7     		b	.L196
 2407              	.L221:
2084:/home/phong/Documents/thesis/stm32f4/stm-idf/components/stm32f4xx_hal_driver/stm32f4xx_hal_can.c **** 
 2408              		.loc 1 2084 0
 2409 0248 6B6A     		ldr	r3, [r5, #36]
 2410 024a 4BEA0303 		orr	r3, fp, r3
 2411 024e 6B62     		str	r3, [r5, #36]
2092:/home/phong/Documents/thesis/stm32f4/stm-idf/components/stm32f4xx_hal_driver/stm32f4xx_hal_can.c **** #endif /* USE_HAL_CAN_REGISTER_CALLBACKS */
 2412              		.loc 1 2092 0
 2413 0250 2846     		mov	r0, r5
 2414 0252 FFF7FEFF 		bl	HAL_CAN_ErrorCallback
 2415              	.LVL233:
2095:/home/phong/Documents/thesis/stm32f4/stm-idf/components/stm32f4xx_hal_driver/stm32f4xx_hal_can.c **** 
 2416              		.loc 1 2095 0
 2417 0256 ECE7     		b	.L172
 2418              		.cfi_endproc
 2419              	.LFE149:
 2421              		.section	.text.HAL_CAN_GetState,"ax",%progbits
 2422              		.align	1
ARM GAS  /tmp/ccW24XdO.s 			page 106


 2423              		.global	HAL_CAN_GetState
 2424              		.syntax unified
 2425              		.thumb
 2426              		.thumb_func
 2427              		.fpu fpv4-sp-d16
 2429              	HAL_CAN_GetState:
 2430              	.LFB163:
2339:/home/phong/Documents/thesis/stm32f4/stm-idf/components/stm32f4xx_hal_driver/stm32f4xx_hal_can.c ****   /* Prevent unused argument(s) compilation warning */
2340:/home/phong/Documents/thesis/stm32f4/stm-idf/components/stm32f4xx_hal_driver/stm32f4xx_hal_can.c ****   UNUSED(hcan);
2341:/home/phong/Documents/thesis/stm32f4/stm-idf/components/stm32f4xx_hal_driver/stm32f4xx_hal_can.c **** 
2342:/home/phong/Documents/thesis/stm32f4/stm-idf/components/stm32f4xx_hal_driver/stm32f4xx_hal_can.c ****   /* NOTE : This function Should not be modified, when the callback is needed,
2343:/home/phong/Documents/thesis/stm32f4/stm-idf/components/stm32f4xx_hal_driver/stm32f4xx_hal_can.c ****             the HAL_CAN_ErrorCallback could be implemented in the user file
2344:/home/phong/Documents/thesis/stm32f4/stm-idf/components/stm32f4xx_hal_driver/stm32f4xx_hal_can.c ****    */
2345:/home/phong/Documents/thesis/stm32f4/stm-idf/components/stm32f4xx_hal_driver/stm32f4xx_hal_can.c **** }
2346:/home/phong/Documents/thesis/stm32f4/stm-idf/components/stm32f4xx_hal_driver/stm32f4xx_hal_can.c **** 
2347:/home/phong/Documents/thesis/stm32f4/stm-idf/components/stm32f4xx_hal_driver/stm32f4xx_hal_can.c **** /**
2348:/home/phong/Documents/thesis/stm32f4/stm-idf/components/stm32f4xx_hal_driver/stm32f4xx_hal_can.c ****   * @}
2349:/home/phong/Documents/thesis/stm32f4/stm-idf/components/stm32f4xx_hal_driver/stm32f4xx_hal_can.c ****   */
2350:/home/phong/Documents/thesis/stm32f4/stm-idf/components/stm32f4xx_hal_driver/stm32f4xx_hal_can.c **** 
2351:/home/phong/Documents/thesis/stm32f4/stm-idf/components/stm32f4xx_hal_driver/stm32f4xx_hal_can.c **** /** @defgroup CAN_Exported_Functions_Group6 Peripheral State and Error functions
2352:/home/phong/Documents/thesis/stm32f4/stm-idf/components/stm32f4xx_hal_driver/stm32f4xx_hal_can.c ****  *  @brief   CAN Peripheral State functions
2353:/home/phong/Documents/thesis/stm32f4/stm-idf/components/stm32f4xx_hal_driver/stm32f4xx_hal_can.c ****  *
2354:/home/phong/Documents/thesis/stm32f4/stm-idf/components/stm32f4xx_hal_driver/stm32f4xx_hal_can.c **** @verbatim
2355:/home/phong/Documents/thesis/stm32f4/stm-idf/components/stm32f4xx_hal_driver/stm32f4xx_hal_can.c ****   ==============================================================================
2356:/home/phong/Documents/thesis/stm32f4/stm-idf/components/stm32f4xx_hal_driver/stm32f4xx_hal_can.c ****             ##### Peripheral State and Error functions #####
2357:/home/phong/Documents/thesis/stm32f4/stm-idf/components/stm32f4xx_hal_driver/stm32f4xx_hal_can.c ****   ==============================================================================
2358:/home/phong/Documents/thesis/stm32f4/stm-idf/components/stm32f4xx_hal_driver/stm32f4xx_hal_can.c ****     [..]
2359:/home/phong/Documents/thesis/stm32f4/stm-idf/components/stm32f4xx_hal_driver/stm32f4xx_hal_can.c ****     This subsection provides functions allowing to :
2360:/home/phong/Documents/thesis/stm32f4/stm-idf/components/stm32f4xx_hal_driver/stm32f4xx_hal_can.c ****       (+) HAL_CAN_GetState()  : Return the CAN state.
2361:/home/phong/Documents/thesis/stm32f4/stm-idf/components/stm32f4xx_hal_driver/stm32f4xx_hal_can.c ****       (+) HAL_CAN_GetError()  : Return the CAN error codes if any.
2362:/home/phong/Documents/thesis/stm32f4/stm-idf/components/stm32f4xx_hal_driver/stm32f4xx_hal_can.c ****       (+) HAL_CAN_ResetError(): Reset the CAN error codes if any.
2363:/home/phong/Documents/thesis/stm32f4/stm-idf/components/stm32f4xx_hal_driver/stm32f4xx_hal_can.c **** 
2364:/home/phong/Documents/thesis/stm32f4/stm-idf/components/stm32f4xx_hal_driver/stm32f4xx_hal_can.c **** @endverbatim
2365:/home/phong/Documents/thesis/stm32f4/stm-idf/components/stm32f4xx_hal_driver/stm32f4xx_hal_can.c ****   * @{
2366:/home/phong/Documents/thesis/stm32f4/stm-idf/components/stm32f4xx_hal_driver/stm32f4xx_hal_can.c ****   */
2367:/home/phong/Documents/thesis/stm32f4/stm-idf/components/stm32f4xx_hal_driver/stm32f4xx_hal_can.c **** 
2368:/home/phong/Documents/thesis/stm32f4/stm-idf/components/stm32f4xx_hal_driver/stm32f4xx_hal_can.c **** /**
2369:/home/phong/Documents/thesis/stm32f4/stm-idf/components/stm32f4xx_hal_driver/stm32f4xx_hal_can.c ****   * @brief  Return the CAN state.
2370:/home/phong/Documents/thesis/stm32f4/stm-idf/components/stm32f4xx_hal_driver/stm32f4xx_hal_can.c ****   * @param  hcan pointer to a CAN_HandleTypeDef structure that contains
2371:/home/phong/Documents/thesis/stm32f4/stm-idf/components/stm32f4xx_hal_driver/stm32f4xx_hal_can.c ****   *         the configuration information for the specified CAN.
2372:/home/phong/Documents/thesis/stm32f4/stm-idf/components/stm32f4xx_hal_driver/stm32f4xx_hal_can.c ****   * @retval HAL state
2373:/home/phong/Documents/thesis/stm32f4/stm-idf/components/stm32f4xx_hal_driver/stm32f4xx_hal_can.c ****   */
2374:/home/phong/Documents/thesis/stm32f4/stm-idf/components/stm32f4xx_hal_driver/stm32f4xx_hal_can.c **** HAL_CAN_StateTypeDef HAL_CAN_GetState(CAN_HandleTypeDef *hcan)
2375:/home/phong/Documents/thesis/stm32f4/stm-idf/components/stm32f4xx_hal_driver/stm32f4xx_hal_can.c **** {
 2431              		.loc 1 2375 0
 2432              		.cfi_startproc
 2433              		@ args = 0, pretend = 0, frame = 0
 2434              		@ frame_needed = 0, uses_anonymous_args = 0
 2435              		@ link register save eliminated.
 2436              	.LVL234:
2376:/home/phong/Documents/thesis/stm32f4/stm-idf/components/stm32f4xx_hal_driver/stm32f4xx_hal_can.c ****   HAL_CAN_StateTypeDef state = hcan->State;
 2437              		.loc 1 2376 0
 2438 0000 90F82030 		ldrb	r3, [r0, #32]	@ zero_extendqisi2
 2439 0004 DBB2     		uxtb	r3, r3
 2440              	.LVL235:
2377:/home/phong/Documents/thesis/stm32f4/stm-idf/components/stm32f4xx_hal_driver/stm32f4xx_hal_can.c **** 
2378:/home/phong/Documents/thesis/stm32f4/stm-idf/components/stm32f4xx_hal_driver/stm32f4xx_hal_can.c ****   if ((state == HAL_CAN_STATE_READY) ||
ARM GAS  /tmp/ccW24XdO.s 			page 107


 2441              		.loc 1 2378 0
 2442 0006 5A1E     		subs	r2, r3, #1
 2443 0008 D2B2     		uxtb	r2, r2
 2444 000a 012A     		cmp	r2, #1
 2445 000c 01D9     		bls	.L226
 2446              	.LVL236:
 2447              	.L223:
2379:/home/phong/Documents/thesis/stm32f4/stm-idf/components/stm32f4xx_hal_driver/stm32f4xx_hal_can.c ****       (state == HAL_CAN_STATE_LISTENING))
2380:/home/phong/Documents/thesis/stm32f4/stm-idf/components/stm32f4xx_hal_driver/stm32f4xx_hal_can.c ****   {
2381:/home/phong/Documents/thesis/stm32f4/stm-idf/components/stm32f4xx_hal_driver/stm32f4xx_hal_can.c ****     /* Check sleep mode acknowledge flag */
2382:/home/phong/Documents/thesis/stm32f4/stm-idf/components/stm32f4xx_hal_driver/stm32f4xx_hal_can.c ****     if ((hcan->Instance->MSR & CAN_MSR_SLAK) != 0U)
2383:/home/phong/Documents/thesis/stm32f4/stm-idf/components/stm32f4xx_hal_driver/stm32f4xx_hal_can.c ****     {
2384:/home/phong/Documents/thesis/stm32f4/stm-idf/components/stm32f4xx_hal_driver/stm32f4xx_hal_can.c ****       /* Sleep mode is active */
2385:/home/phong/Documents/thesis/stm32f4/stm-idf/components/stm32f4xx_hal_driver/stm32f4xx_hal_can.c ****       state = HAL_CAN_STATE_SLEEP_ACTIVE;
2386:/home/phong/Documents/thesis/stm32f4/stm-idf/components/stm32f4xx_hal_driver/stm32f4xx_hal_can.c ****     }
2387:/home/phong/Documents/thesis/stm32f4/stm-idf/components/stm32f4xx_hal_driver/stm32f4xx_hal_can.c ****     /* Check sleep mode request flag */
2388:/home/phong/Documents/thesis/stm32f4/stm-idf/components/stm32f4xx_hal_driver/stm32f4xx_hal_can.c ****     else if ((hcan->Instance->MCR & CAN_MCR_SLEEP) != 0U)
2389:/home/phong/Documents/thesis/stm32f4/stm-idf/components/stm32f4xx_hal_driver/stm32f4xx_hal_can.c ****     {
2390:/home/phong/Documents/thesis/stm32f4/stm-idf/components/stm32f4xx_hal_driver/stm32f4xx_hal_can.c ****       /* Sleep mode request is pending */
2391:/home/phong/Documents/thesis/stm32f4/stm-idf/components/stm32f4xx_hal_driver/stm32f4xx_hal_can.c ****       state = HAL_CAN_STATE_SLEEP_PENDING;
2392:/home/phong/Documents/thesis/stm32f4/stm-idf/components/stm32f4xx_hal_driver/stm32f4xx_hal_can.c ****     }
2393:/home/phong/Documents/thesis/stm32f4/stm-idf/components/stm32f4xx_hal_driver/stm32f4xx_hal_can.c ****     else
2394:/home/phong/Documents/thesis/stm32f4/stm-idf/components/stm32f4xx_hal_driver/stm32f4xx_hal_can.c ****     {
2395:/home/phong/Documents/thesis/stm32f4/stm-idf/components/stm32f4xx_hal_driver/stm32f4xx_hal_can.c ****       /* Neither sleep mode request nor sleep mode acknowledge */
2396:/home/phong/Documents/thesis/stm32f4/stm-idf/components/stm32f4xx_hal_driver/stm32f4xx_hal_can.c ****     }
2397:/home/phong/Documents/thesis/stm32f4/stm-idf/components/stm32f4xx_hal_driver/stm32f4xx_hal_can.c ****   }
2398:/home/phong/Documents/thesis/stm32f4/stm-idf/components/stm32f4xx_hal_driver/stm32f4xx_hal_can.c **** 
2399:/home/phong/Documents/thesis/stm32f4/stm-idf/components/stm32f4xx_hal_driver/stm32f4xx_hal_can.c ****   /* Return CAN state */
2400:/home/phong/Documents/thesis/stm32f4/stm-idf/components/stm32f4xx_hal_driver/stm32f4xx_hal_can.c ****   return state;
2401:/home/phong/Documents/thesis/stm32f4/stm-idf/components/stm32f4xx_hal_driver/stm32f4xx_hal_can.c **** }
 2448              		.loc 1 2401 0
 2449 000e 1846     		mov	r0, r3
 2450              	.LVL237:
 2451 0010 7047     		bx	lr
 2452              	.LVL238:
 2453              	.L226:
2382:/home/phong/Documents/thesis/stm32f4/stm-idf/components/stm32f4xx_hal_driver/stm32f4xx_hal_can.c ****     {
 2454              		.loc 1 2382 0
 2455 0012 0268     		ldr	r2, [r0]
 2456 0014 5168     		ldr	r1, [r2, #4]
 2457 0016 11F0020F 		tst	r1, #2
 2458 001a 01D0     		beq	.L227
2385:/home/phong/Documents/thesis/stm32f4/stm-idf/components/stm32f4xx_hal_driver/stm32f4xx_hal_can.c ****     }
 2459              		.loc 1 2385 0
 2460 001c 0423     		movs	r3, #4
 2461              	.LVL239:
 2462 001e F6E7     		b	.L223
 2463              	.LVL240:
 2464              	.L227:
2388:/home/phong/Documents/thesis/stm32f4/stm-idf/components/stm32f4xx_hal_driver/stm32f4xx_hal_can.c ****     {
 2465              		.loc 1 2388 0
 2466 0020 1268     		ldr	r2, [r2]
 2467 0022 12F0020F 		tst	r2, #2
 2468 0026 F2D0     		beq	.L223
2391:/home/phong/Documents/thesis/stm32f4/stm-idf/components/stm32f4xx_hal_driver/stm32f4xx_hal_can.c ****     }
 2469              		.loc 1 2391 0
 2470 0028 0323     		movs	r3, #3
ARM GAS  /tmp/ccW24XdO.s 			page 108


 2471              	.LVL241:
 2472 002a F0E7     		b	.L223
 2473              		.cfi_endproc
 2474              	.LFE163:
 2476              		.section	.text.HAL_CAN_GetError,"ax",%progbits
 2477              		.align	1
 2478              		.global	HAL_CAN_GetError
 2479              		.syntax unified
 2480              		.thumb
 2481              		.thumb_func
 2482              		.fpu fpv4-sp-d16
 2484              	HAL_CAN_GetError:
 2485              	.LFB164:
2402:/home/phong/Documents/thesis/stm32f4/stm-idf/components/stm32f4xx_hal_driver/stm32f4xx_hal_can.c **** 
2403:/home/phong/Documents/thesis/stm32f4/stm-idf/components/stm32f4xx_hal_driver/stm32f4xx_hal_can.c **** /**
2404:/home/phong/Documents/thesis/stm32f4/stm-idf/components/stm32f4xx_hal_driver/stm32f4xx_hal_can.c ****   * @brief  Return the CAN error code.
2405:/home/phong/Documents/thesis/stm32f4/stm-idf/components/stm32f4xx_hal_driver/stm32f4xx_hal_can.c ****   * @param  hcan pointer to a CAN_HandleTypeDef structure that contains
2406:/home/phong/Documents/thesis/stm32f4/stm-idf/components/stm32f4xx_hal_driver/stm32f4xx_hal_can.c ****   *         the configuration information for the specified CAN.
2407:/home/phong/Documents/thesis/stm32f4/stm-idf/components/stm32f4xx_hal_driver/stm32f4xx_hal_can.c ****   * @retval CAN Error Code
2408:/home/phong/Documents/thesis/stm32f4/stm-idf/components/stm32f4xx_hal_driver/stm32f4xx_hal_can.c ****   */
2409:/home/phong/Documents/thesis/stm32f4/stm-idf/components/stm32f4xx_hal_driver/stm32f4xx_hal_can.c **** uint32_t HAL_CAN_GetError(CAN_HandleTypeDef *hcan)
2410:/home/phong/Documents/thesis/stm32f4/stm-idf/components/stm32f4xx_hal_driver/stm32f4xx_hal_can.c **** {
 2486              		.loc 1 2410 0
 2487              		.cfi_startproc
 2488              		@ args = 0, pretend = 0, frame = 0
 2489              		@ frame_needed = 0, uses_anonymous_args = 0
 2490              		@ link register save eliminated.
 2491              	.LVL242:
2411:/home/phong/Documents/thesis/stm32f4/stm-idf/components/stm32f4xx_hal_driver/stm32f4xx_hal_can.c ****   /* Return CAN error code */
2412:/home/phong/Documents/thesis/stm32f4/stm-idf/components/stm32f4xx_hal_driver/stm32f4xx_hal_can.c ****   return hcan->ErrorCode;
 2492              		.loc 1 2412 0
 2493 0000 406A     		ldr	r0, [r0, #36]
 2494              	.LVL243:
2413:/home/phong/Documents/thesis/stm32f4/stm-idf/components/stm32f4xx_hal_driver/stm32f4xx_hal_can.c **** }
 2495              		.loc 1 2413 0
 2496 0002 7047     		bx	lr
 2497              		.cfi_endproc
 2498              	.LFE164:
 2500              		.section	.text.HAL_CAN_ResetError,"ax",%progbits
 2501              		.align	1
 2502              		.global	HAL_CAN_ResetError
 2503              		.syntax unified
 2504              		.thumb
 2505              		.thumb_func
 2506              		.fpu fpv4-sp-d16
 2508              	HAL_CAN_ResetError:
 2509              	.LFB165:
2414:/home/phong/Documents/thesis/stm32f4/stm-idf/components/stm32f4xx_hal_driver/stm32f4xx_hal_can.c **** 
2415:/home/phong/Documents/thesis/stm32f4/stm-idf/components/stm32f4xx_hal_driver/stm32f4xx_hal_can.c **** /**
2416:/home/phong/Documents/thesis/stm32f4/stm-idf/components/stm32f4xx_hal_driver/stm32f4xx_hal_can.c ****   * @brief  Reset the CAN error code.
2417:/home/phong/Documents/thesis/stm32f4/stm-idf/components/stm32f4xx_hal_driver/stm32f4xx_hal_can.c ****   * @param  hcan pointer to a CAN_HandleTypeDef structure that contains
2418:/home/phong/Documents/thesis/stm32f4/stm-idf/components/stm32f4xx_hal_driver/stm32f4xx_hal_can.c ****   *         the configuration information for the specified CAN.
2419:/home/phong/Documents/thesis/stm32f4/stm-idf/components/stm32f4xx_hal_driver/stm32f4xx_hal_can.c ****   * @retval HAL status
2420:/home/phong/Documents/thesis/stm32f4/stm-idf/components/stm32f4xx_hal_driver/stm32f4xx_hal_can.c ****   */
2421:/home/phong/Documents/thesis/stm32f4/stm-idf/components/stm32f4xx_hal_driver/stm32f4xx_hal_can.c **** HAL_StatusTypeDef HAL_CAN_ResetError(CAN_HandleTypeDef *hcan)
2422:/home/phong/Documents/thesis/stm32f4/stm-idf/components/stm32f4xx_hal_driver/stm32f4xx_hal_can.c **** {
 2510              		.loc 1 2422 0
ARM GAS  /tmp/ccW24XdO.s 			page 109


 2511              		.cfi_startproc
 2512              		@ args = 0, pretend = 0, frame = 0
 2513              		@ frame_needed = 0, uses_anonymous_args = 0
 2514              		@ link register save eliminated.
 2515              	.LVL244:
2423:/home/phong/Documents/thesis/stm32f4/stm-idf/components/stm32f4xx_hal_driver/stm32f4xx_hal_can.c ****   HAL_StatusTypeDef status = HAL_OK;
2424:/home/phong/Documents/thesis/stm32f4/stm-idf/components/stm32f4xx_hal_driver/stm32f4xx_hal_can.c ****   HAL_CAN_StateTypeDef state = hcan->State;
 2516              		.loc 1 2424 0
 2517 0000 90F82030 		ldrb	r3, [r0, #32]	@ zero_extendqisi2
 2518              	.LVL245:
2425:/home/phong/Documents/thesis/stm32f4/stm-idf/components/stm32f4xx_hal_driver/stm32f4xx_hal_can.c **** 
2426:/home/phong/Documents/thesis/stm32f4/stm-idf/components/stm32f4xx_hal_driver/stm32f4xx_hal_can.c ****   if ((state == HAL_CAN_STATE_READY) ||
 2519              		.loc 1 2426 0
 2520 0004 013B     		subs	r3, r3, #1
 2521              	.LVL246:
 2522 0006 DBB2     		uxtb	r3, r3
 2523 0008 012B     		cmp	r3, #1
 2524 000a 05D9     		bls	.L232
2427:/home/phong/Documents/thesis/stm32f4/stm-idf/components/stm32f4xx_hal_driver/stm32f4xx_hal_can.c ****       (state == HAL_CAN_STATE_LISTENING))
2428:/home/phong/Documents/thesis/stm32f4/stm-idf/components/stm32f4xx_hal_driver/stm32f4xx_hal_can.c ****   {
2429:/home/phong/Documents/thesis/stm32f4/stm-idf/components/stm32f4xx_hal_driver/stm32f4xx_hal_can.c ****     /* Reset CAN error code */
2430:/home/phong/Documents/thesis/stm32f4/stm-idf/components/stm32f4xx_hal_driver/stm32f4xx_hal_can.c ****     hcan->ErrorCode = 0U;
2431:/home/phong/Documents/thesis/stm32f4/stm-idf/components/stm32f4xx_hal_driver/stm32f4xx_hal_can.c ****   }
2432:/home/phong/Documents/thesis/stm32f4/stm-idf/components/stm32f4xx_hal_driver/stm32f4xx_hal_can.c ****   else
2433:/home/phong/Documents/thesis/stm32f4/stm-idf/components/stm32f4xx_hal_driver/stm32f4xx_hal_can.c ****   {
2434:/home/phong/Documents/thesis/stm32f4/stm-idf/components/stm32f4xx_hal_driver/stm32f4xx_hal_can.c ****     /* Update error code */
2435:/home/phong/Documents/thesis/stm32f4/stm-idf/components/stm32f4xx_hal_driver/stm32f4xx_hal_can.c ****     hcan->ErrorCode |= HAL_CAN_ERROR_NOT_INITIALIZED;
 2525              		.loc 1 2435 0
 2526 000c 436A     		ldr	r3, [r0, #36]
 2527 000e 43F48023 		orr	r3, r3, #262144
 2528 0012 4362     		str	r3, [r0, #36]
 2529              	.LVL247:
2436:/home/phong/Documents/thesis/stm32f4/stm-idf/components/stm32f4xx_hal_driver/stm32f4xx_hal_can.c **** 
2437:/home/phong/Documents/thesis/stm32f4/stm-idf/components/stm32f4xx_hal_driver/stm32f4xx_hal_can.c ****     status = HAL_ERROR;
 2530              		.loc 1 2437 0
 2531 0014 0120     		movs	r0, #1
 2532              	.LVL248:
2438:/home/phong/Documents/thesis/stm32f4/stm-idf/components/stm32f4xx_hal_driver/stm32f4xx_hal_can.c ****   }
2439:/home/phong/Documents/thesis/stm32f4/stm-idf/components/stm32f4xx_hal_driver/stm32f4xx_hal_can.c **** 
2440:/home/phong/Documents/thesis/stm32f4/stm-idf/components/stm32f4xx_hal_driver/stm32f4xx_hal_can.c ****   /* Return the status */
2441:/home/phong/Documents/thesis/stm32f4/stm-idf/components/stm32f4xx_hal_driver/stm32f4xx_hal_can.c ****   return status;
2442:/home/phong/Documents/thesis/stm32f4/stm-idf/components/stm32f4xx_hal_driver/stm32f4xx_hal_can.c **** }
 2533              		.loc 1 2442 0
 2534 0016 7047     		bx	lr
 2535              	.LVL249:
 2536              	.L232:
2430:/home/phong/Documents/thesis/stm32f4/stm-idf/components/stm32f4xx_hal_driver/stm32f4xx_hal_can.c ****   }
 2537              		.loc 1 2430 0
 2538 0018 0023     		movs	r3, #0
 2539 001a 4362     		str	r3, [r0, #36]
2423:/home/phong/Documents/thesis/stm32f4/stm-idf/components/stm32f4xx_hal_driver/stm32f4xx_hal_can.c ****   HAL_CAN_StateTypeDef state = hcan->State;
 2540              		.loc 1 2423 0
 2541 001c 1846     		mov	r0, r3
 2542              	.LVL250:
 2543 001e 7047     		bx	lr
 2544              		.cfi_endproc
 2545              	.LFE165:
ARM GAS  /tmp/ccW24XdO.s 			page 110


 2547              		.text
 2548              	.Letext0:
 2549              		.file 3 "/home/phong/Documents/thesis/stm32f4/stm-idf/components/newlib/include/machine/_default_t
 2550              		.file 4 "/home/phong/Documents/thesis/stm32f4/stm-idf/components/newlib/include/sys/_stdint.h"
 2551              		.file 5 "/home/phong/Documents/thesis/stm32f4/stm-idf/components/cmsis/include/core_cm4.h"
 2552              		.file 6 "/home/phong/Documents/thesis/stm32f4/stm-idf/components/cmsis/device/stm32/stm32f4xx/incl
 2553              		.file 7 "/home/phong/Documents/thesis/stm32f4/stm-idf/components/cmsis/device/stm32/stm32f4xx/incl
 2554              		.file 8 "/home/phong/Documents/thesis/stm32f4/stm-idf/components/cmsis/device/stm32/stm32f4xx/incl
 2555              		.file 9 "/home/phong/Documents/thesis/stm32f4/stm-idf/components/stm32f4xx_hal_driver/include/stm3
 2556              		.file 10 "/home/phong/Documents/thesis/stm32f4/stm-idf/components/stm32f4xx_hal_driver/include/stm
 2557              		.file 11 "/home/phong/Documents/thesis/stm32f4/stm-idf/components/stm32f4xx_hal_driver/include/stm
ARM GAS  /tmp/ccW24XdO.s 			page 111


DEFINED SYMBOLS
                            *ABS*:0000000000000000 stm32f4xx_hal_can.c
     /tmp/ccW24XdO.s:18     .text.HAL_CAN_MspInit:0000000000000000 $t
     /tmp/ccW24XdO.s:25     .text.HAL_CAN_MspInit:0000000000000000 HAL_CAN_MspInit
     /tmp/ccW24XdO.s:39     .text.HAL_CAN_Init:0000000000000000 $t
     /tmp/ccW24XdO.s:46     .text.HAL_CAN_Init:0000000000000000 HAL_CAN_Init
     /tmp/ccW24XdO.s:281    .text.HAL_CAN_MspDeInit:0000000000000000 $t
     /tmp/ccW24XdO.s:288    .text.HAL_CAN_MspDeInit:0000000000000000 HAL_CAN_MspDeInit
     /tmp/ccW24XdO.s:301    .text.HAL_CAN_ConfigFilter:0000000000000000 $t
     /tmp/ccW24XdO.s:308    .text.HAL_CAN_ConfigFilter:0000000000000000 HAL_CAN_ConfigFilter
     /tmp/ccW24XdO.s:506    .text.HAL_CAN_ConfigFilter:0000000000000128 $d
     /tmp/ccW24XdO.s:511    .text.HAL_CAN_Start:0000000000000000 $t
     /tmp/ccW24XdO.s:518    .text.HAL_CAN_Start:0000000000000000 HAL_CAN_Start
     /tmp/ccW24XdO.s:595    .text.HAL_CAN_Stop:0000000000000000 $t
     /tmp/ccW24XdO.s:602    .text.HAL_CAN_Stop:0000000000000000 HAL_CAN_Stop
     /tmp/ccW24XdO.s:681    .text.HAL_CAN_DeInit:0000000000000000 $t
     /tmp/ccW24XdO.s:688    .text.HAL_CAN_DeInit:0000000000000000 HAL_CAN_DeInit
     /tmp/ccW24XdO.s:737    .text.HAL_CAN_RequestSleep:0000000000000000 $t
     /tmp/ccW24XdO.s:744    .text.HAL_CAN_RequestSleep:0000000000000000 HAL_CAN_RequestSleep
     /tmp/ccW24XdO.s:785    .text.HAL_CAN_WakeUp:0000000000000000 $t
     /tmp/ccW24XdO.s:792    .text.HAL_CAN_WakeUp:0000000000000000 HAL_CAN_WakeUp
     /tmp/ccW24XdO.s:872    .text.HAL_CAN_WakeUp:0000000000000054 $d
     /tmp/ccW24XdO.s:877    .text.HAL_CAN_IsSleepActive:0000000000000000 $t
     /tmp/ccW24XdO.s:884    .text.HAL_CAN_IsSleepActive:0000000000000000 HAL_CAN_IsSleepActive
     /tmp/ccW24XdO.s:927    .text.HAL_CAN_AddTxMessage:0000000000000000 $t
     /tmp/ccW24XdO.s:934    .text.HAL_CAN_AddTxMessage:0000000000000000 HAL_CAN_AddTxMessage
     /tmp/ccW24XdO.s:1113   .text.HAL_CAN_AbortTxRequest:0000000000000000 $t
     /tmp/ccW24XdO.s:1120   .text.HAL_CAN_AbortTxRequest:0000000000000000 HAL_CAN_AbortTxRequest
     /tmp/ccW24XdO.s:1187   .text.HAL_CAN_GetTxMailboxesFreeLevel:0000000000000000 $t
     /tmp/ccW24XdO.s:1194   .text.HAL_CAN_GetTxMailboxesFreeLevel:0000000000000000 HAL_CAN_GetTxMailboxesFreeLevel
     /tmp/ccW24XdO.s:1254   .text.HAL_CAN_IsTxMessagePending:0000000000000000 $t
     /tmp/ccW24XdO.s:1261   .text.HAL_CAN_IsTxMessagePending:0000000000000000 HAL_CAN_IsTxMessagePending
     /tmp/ccW24XdO.s:1306   .text.HAL_CAN_GetTxTimestamp:0000000000000000 $t
     /tmp/ccW24XdO.s:1313   .text.HAL_CAN_GetTxTimestamp:0000000000000000 HAL_CAN_GetTxTimestamp
     /tmp/ccW24XdO.s:1368   .text.HAL_CAN_GetRxMessage:0000000000000000 $t
     /tmp/ccW24XdO.s:1375   .text.HAL_CAN_GetRxMessage:0000000000000000 HAL_CAN_GetRxMessage
     /tmp/ccW24XdO.s:1583   .text.HAL_CAN_GetRxFifoFillLevel:0000000000000000 $t
     /tmp/ccW24XdO.s:1590   .text.HAL_CAN_GetRxFifoFillLevel:0000000000000000 HAL_CAN_GetRxFifoFillLevel
     /tmp/ccW24XdO.s:1636   .text.HAL_CAN_ActivateNotification:0000000000000000 $t
     /tmp/ccW24XdO.s:1643   .text.HAL_CAN_ActivateNotification:0000000000000000 HAL_CAN_ActivateNotification
     /tmp/ccW24XdO.s:1685   .text.HAL_CAN_DeactivateNotification:0000000000000000 $t
     /tmp/ccW24XdO.s:1692   .text.HAL_CAN_DeactivateNotification:0000000000000000 HAL_CAN_DeactivateNotification
     /tmp/ccW24XdO.s:1734   .text.HAL_CAN_TxMailbox0CompleteCallback:0000000000000000 $t
     /tmp/ccW24XdO.s:1741   .text.HAL_CAN_TxMailbox0CompleteCallback:0000000000000000 HAL_CAN_TxMailbox0CompleteCallback
     /tmp/ccW24XdO.s:1754   .text.HAL_CAN_TxMailbox1CompleteCallback:0000000000000000 $t
     /tmp/ccW24XdO.s:1761   .text.HAL_CAN_TxMailbox1CompleteCallback:0000000000000000 HAL_CAN_TxMailbox1CompleteCallback
     /tmp/ccW24XdO.s:1774   .text.HAL_CAN_TxMailbox2CompleteCallback:0000000000000000 $t
     /tmp/ccW24XdO.s:1781   .text.HAL_CAN_TxMailbox2CompleteCallback:0000000000000000 HAL_CAN_TxMailbox2CompleteCallback
     /tmp/ccW24XdO.s:1794   .text.HAL_CAN_TxMailbox0AbortCallback:0000000000000000 $t
     /tmp/ccW24XdO.s:1801   .text.HAL_CAN_TxMailbox0AbortCallback:0000000000000000 HAL_CAN_TxMailbox0AbortCallback
     /tmp/ccW24XdO.s:1814   .text.HAL_CAN_TxMailbox1AbortCallback:0000000000000000 $t
     /tmp/ccW24XdO.s:1821   .text.HAL_CAN_TxMailbox1AbortCallback:0000000000000000 HAL_CAN_TxMailbox1AbortCallback
     /tmp/ccW24XdO.s:1834   .text.HAL_CAN_TxMailbox2AbortCallback:0000000000000000 $t
     /tmp/ccW24XdO.s:1841   .text.HAL_CAN_TxMailbox2AbortCallback:0000000000000000 HAL_CAN_TxMailbox2AbortCallback
     /tmp/ccW24XdO.s:1854   .text.HAL_CAN_RxFifo0MsgPendingCallback:0000000000000000 $t
     /tmp/ccW24XdO.s:1861   .text.HAL_CAN_RxFifo0MsgPendingCallback:0000000000000000 HAL_CAN_RxFifo0MsgPendingCallback
     /tmp/ccW24XdO.s:1874   .text.HAL_CAN_RxFifo0FullCallback:0000000000000000 $t
ARM GAS  /tmp/ccW24XdO.s 			page 112


     /tmp/ccW24XdO.s:1881   .text.HAL_CAN_RxFifo0FullCallback:0000000000000000 HAL_CAN_RxFifo0FullCallback
     /tmp/ccW24XdO.s:1894   .text.HAL_CAN_RxFifo1MsgPendingCallback:0000000000000000 $t
     /tmp/ccW24XdO.s:1901   .text.HAL_CAN_RxFifo1MsgPendingCallback:0000000000000000 HAL_CAN_RxFifo1MsgPendingCallback
     /tmp/ccW24XdO.s:1914   .text.HAL_CAN_RxFifo1FullCallback:0000000000000000 $t
     /tmp/ccW24XdO.s:1921   .text.HAL_CAN_RxFifo1FullCallback:0000000000000000 HAL_CAN_RxFifo1FullCallback
     /tmp/ccW24XdO.s:1934   .text.HAL_CAN_SleepCallback:0000000000000000 $t
     /tmp/ccW24XdO.s:1941   .text.HAL_CAN_SleepCallback:0000000000000000 HAL_CAN_SleepCallback
     /tmp/ccW24XdO.s:1954   .text.HAL_CAN_WakeUpFromRxMsgCallback:0000000000000000 $t
     /tmp/ccW24XdO.s:1961   .text.HAL_CAN_WakeUpFromRxMsgCallback:0000000000000000 HAL_CAN_WakeUpFromRxMsgCallback
     /tmp/ccW24XdO.s:1974   .text.HAL_CAN_ErrorCallback:0000000000000000 $t
     /tmp/ccW24XdO.s:1981   .text.HAL_CAN_ErrorCallback:0000000000000000 HAL_CAN_ErrorCallback
     /tmp/ccW24XdO.s:1994   .text.HAL_CAN_IRQHandler:0000000000000000 $t
     /tmp/ccW24XdO.s:2001   .text.HAL_CAN_IRQHandler:0000000000000000 HAL_CAN_IRQHandler
     /tmp/ccW24XdO.s:2422   .text.HAL_CAN_GetState:0000000000000000 $t
     /tmp/ccW24XdO.s:2429   .text.HAL_CAN_GetState:0000000000000000 HAL_CAN_GetState
     /tmp/ccW24XdO.s:2477   .text.HAL_CAN_GetError:0000000000000000 $t
     /tmp/ccW24XdO.s:2484   .text.HAL_CAN_GetError:0000000000000000 HAL_CAN_GetError
     /tmp/ccW24XdO.s:2501   .text.HAL_CAN_ResetError:0000000000000000 $t
     /tmp/ccW24XdO.s:2508   .text.HAL_CAN_ResetError:0000000000000000 HAL_CAN_ResetError
                     .debug_frame:0000000000000010 $d

UNDEFINED SYMBOLS
HAL_GetTick
