ARM GAS  /tmp/ccM6uMDT.s 			page 1


   1              		.cpu cortex-m4
   2              		.eabi_attribute 27, 1
   3              		.eabi_attribute 28, 1
   4              		.eabi_attribute 20, 1
   5              		.eabi_attribute 21, 1
   6              		.eabi_attribute 23, 3
   7              		.eabi_attribute 24, 1
   8              		.eabi_attribute 25, 1
   9              		.eabi_attribute 26, 1
  10              		.eabi_attribute 30, 1
  11              		.eabi_attribute 34, 1
  12              		.eabi_attribute 18, 4
  13              		.file	"stm32f4xx_hal_nand.c"
  14              		.text
  15              	.Ltext0:
  16              		.cfi_sections	.debug_frame
  17              		.section	.text.HAL_NAND_MspInit,"ax",%progbits
  18              		.align	1
  19              		.weak	HAL_NAND_MspInit
  20              		.syntax unified
  21              		.thumb
  22              		.thumb_func
  23              		.fpu fpv4-sp-d16
  25              	HAL_NAND_MspInit:
  26              	.LFB132:
  27              		.file 1 "/home/phong/Documents/thesis/stm32f4/stm-idf/components/stm32f4xx_hal_driver/stm32f4xx_ha
   1:/home/phong/Documents/thesis/stm32f4/stm-idf/components/stm32f4xx_hal_driver/stm32f4xx_hal_nand.c **** /**
   2:/home/phong/Documents/thesis/stm32f4/stm-idf/components/stm32f4xx_hal_driver/stm32f4xx_hal_nand.c ****   ******************************************************************************
   3:/home/phong/Documents/thesis/stm32f4/stm-idf/components/stm32f4xx_hal_driver/stm32f4xx_hal_nand.c ****   * @file    stm32f4xx_hal_nand.c
   4:/home/phong/Documents/thesis/stm32f4/stm-idf/components/stm32f4xx_hal_driver/stm32f4xx_hal_nand.c ****   * @author  MCD Application Team
   5:/home/phong/Documents/thesis/stm32f4/stm-idf/components/stm32f4xx_hal_driver/stm32f4xx_hal_nand.c ****   * @brief   NAND HAL module driver.
   6:/home/phong/Documents/thesis/stm32f4/stm-idf/components/stm32f4xx_hal_driver/stm32f4xx_hal_nand.c ****   *          This file provides a generic firmware to drive NAND memories mounted 
   7:/home/phong/Documents/thesis/stm32f4/stm-idf/components/stm32f4xx_hal_driver/stm32f4xx_hal_nand.c ****   *          as external device.
   8:/home/phong/Documents/thesis/stm32f4/stm-idf/components/stm32f4xx_hal_driver/stm32f4xx_hal_nand.c ****   *         
   9:/home/phong/Documents/thesis/stm32f4/stm-idf/components/stm32f4xx_hal_driver/stm32f4xx_hal_nand.c ****   @verbatim
  10:/home/phong/Documents/thesis/stm32f4/stm-idf/components/stm32f4xx_hal_driver/stm32f4xx_hal_nand.c ****   ==============================================================================
  11:/home/phong/Documents/thesis/stm32f4/stm-idf/components/stm32f4xx_hal_driver/stm32f4xx_hal_nand.c ****                          ##### How to use this driver #####
  12:/home/phong/Documents/thesis/stm32f4/stm-idf/components/stm32f4xx_hal_driver/stm32f4xx_hal_nand.c ****   ==============================================================================    
  13:/home/phong/Documents/thesis/stm32f4/stm-idf/components/stm32f4xx_hal_driver/stm32f4xx_hal_nand.c ****     [..]
  14:/home/phong/Documents/thesis/stm32f4/stm-idf/components/stm32f4xx_hal_driver/stm32f4xx_hal_nand.c ****       This driver is a generic layered driver which contains a set of APIs used to 
  15:/home/phong/Documents/thesis/stm32f4/stm-idf/components/stm32f4xx_hal_driver/stm32f4xx_hal_nand.c ****       control NAND flash memories. It uses the FMC/FSMC layer functions to interface 
  16:/home/phong/Documents/thesis/stm32f4/stm-idf/components/stm32f4xx_hal_driver/stm32f4xx_hal_nand.c ****       with NAND devices. This driver is used as follows:
  17:/home/phong/Documents/thesis/stm32f4/stm-idf/components/stm32f4xx_hal_driver/stm32f4xx_hal_nand.c ****     
  18:/home/phong/Documents/thesis/stm32f4/stm-idf/components/stm32f4xx_hal_driver/stm32f4xx_hal_nand.c ****       (+) NAND flash memory configuration sequence using the function HAL_NAND_Init() 
  19:/home/phong/Documents/thesis/stm32f4/stm-idf/components/stm32f4xx_hal_driver/stm32f4xx_hal_nand.c ****           with control and timing parameters for both common and attribute spaces.
  20:/home/phong/Documents/thesis/stm32f4/stm-idf/components/stm32f4xx_hal_driver/stm32f4xx_hal_nand.c ****             
  21:/home/phong/Documents/thesis/stm32f4/stm-idf/components/stm32f4xx_hal_driver/stm32f4xx_hal_nand.c ****       (+) Read NAND flash memory maker and device IDs using the function
  22:/home/phong/Documents/thesis/stm32f4/stm-idf/components/stm32f4xx_hal_driver/stm32f4xx_hal_nand.c ****           HAL_NAND_Read_ID(). The read information is stored in the NAND_ID_TypeDef 
  23:/home/phong/Documents/thesis/stm32f4/stm-idf/components/stm32f4xx_hal_driver/stm32f4xx_hal_nand.c ****           structure declared by the function caller. 
  24:/home/phong/Documents/thesis/stm32f4/stm-idf/components/stm32f4xx_hal_driver/stm32f4xx_hal_nand.c ****         
  25:/home/phong/Documents/thesis/stm32f4/stm-idf/components/stm32f4xx_hal_driver/stm32f4xx_hal_nand.c ****       (+) Access NAND flash memory by read/write operations using the functions
  26:/home/phong/Documents/thesis/stm32f4/stm-idf/components/stm32f4xx_hal_driver/stm32f4xx_hal_nand.c ****           HAL_NAND_Read_Page_8b()/HAL_NAND_Read_SpareArea_8b(), 
  27:/home/phong/Documents/thesis/stm32f4/stm-idf/components/stm32f4xx_hal_driver/stm32f4xx_hal_nand.c ****           HAL_NAND_Write_Page_8b()/HAL_NAND_Write_SpareArea_8b(),
  28:/home/phong/Documents/thesis/stm32f4/stm-idf/components/stm32f4xx_hal_driver/stm32f4xx_hal_nand.c ****           HAL_NAND_Read_Page_16b()/HAL_NAND_Read_SpareArea_16b(), 
  29:/home/phong/Documents/thesis/stm32f4/stm-idf/components/stm32f4xx_hal_driver/stm32f4xx_hal_nand.c ****           HAL_NAND_Write_Page_16b()/HAL_NAND_Write_SpareArea_16b()
  30:/home/phong/Documents/thesis/stm32f4/stm-idf/components/stm32f4xx_hal_driver/stm32f4xx_hal_nand.c ****           to read/write page(s)/spare area(s). These functions use specific device 
  31:/home/phong/Documents/thesis/stm32f4/stm-idf/components/stm32f4xx_hal_driver/stm32f4xx_hal_nand.c ****           information (Block, page size..) predefined by the user in the HAL_NAND_Info_TypeDef 
ARM GAS  /tmp/ccM6uMDT.s 			page 2


  32:/home/phong/Documents/thesis/stm32f4/stm-idf/components/stm32f4xx_hal_driver/stm32f4xx_hal_nand.c ****           structure. The read/write address information is contained by the Nand_Address_Typedef
  33:/home/phong/Documents/thesis/stm32f4/stm-idf/components/stm32f4xx_hal_driver/stm32f4xx_hal_nand.c ****           structure passed as parameter.
  34:/home/phong/Documents/thesis/stm32f4/stm-idf/components/stm32f4xx_hal_driver/stm32f4xx_hal_nand.c ****         
  35:/home/phong/Documents/thesis/stm32f4/stm-idf/components/stm32f4xx_hal_driver/stm32f4xx_hal_nand.c ****       (+) Perform NAND flash Reset chip operation using the function HAL_NAND_Reset().
  36:/home/phong/Documents/thesis/stm32f4/stm-idf/components/stm32f4xx_hal_driver/stm32f4xx_hal_nand.c ****         
  37:/home/phong/Documents/thesis/stm32f4/stm-idf/components/stm32f4xx_hal_driver/stm32f4xx_hal_nand.c ****       (+) Perform NAND flash erase block operation using the function HAL_NAND_Erase_Block().
  38:/home/phong/Documents/thesis/stm32f4/stm-idf/components/stm32f4xx_hal_driver/stm32f4xx_hal_nand.c ****           The erase block address information is contained in the Nand_Address_Typedef 
  39:/home/phong/Documents/thesis/stm32f4/stm-idf/components/stm32f4xx_hal_driver/stm32f4xx_hal_nand.c ****           structure passed as parameter.
  40:/home/phong/Documents/thesis/stm32f4/stm-idf/components/stm32f4xx_hal_driver/stm32f4xx_hal_nand.c ****     
  41:/home/phong/Documents/thesis/stm32f4/stm-idf/components/stm32f4xx_hal_driver/stm32f4xx_hal_nand.c ****       (+) Read the NAND flash status operation using the function HAL_NAND_Read_Status().
  42:/home/phong/Documents/thesis/stm32f4/stm-idf/components/stm32f4xx_hal_driver/stm32f4xx_hal_nand.c ****         
  43:/home/phong/Documents/thesis/stm32f4/stm-idf/components/stm32f4xx_hal_driver/stm32f4xx_hal_nand.c ****       (+) You can also control the NAND device by calling the control APIs HAL_NAND_ECC_Enable()/
  44:/home/phong/Documents/thesis/stm32f4/stm-idf/components/stm32f4xx_hal_driver/stm32f4xx_hal_nand.c ****           HAL_NAND_ECC_Disable() to respectively enable/disable the ECC code correction
  45:/home/phong/Documents/thesis/stm32f4/stm-idf/components/stm32f4xx_hal_driver/stm32f4xx_hal_nand.c ****           feature or the function HAL_NAND_GetECC() to get the ECC correction code. 
  46:/home/phong/Documents/thesis/stm32f4/stm-idf/components/stm32f4xx_hal_driver/stm32f4xx_hal_nand.c ****        
  47:/home/phong/Documents/thesis/stm32f4/stm-idf/components/stm32f4xx_hal_driver/stm32f4xx_hal_nand.c ****       (+) You can monitor the NAND device HAL state by calling the function
  48:/home/phong/Documents/thesis/stm32f4/stm-idf/components/stm32f4xx_hal_driver/stm32f4xx_hal_nand.c ****           HAL_NAND_GetState()  
  49:/home/phong/Documents/thesis/stm32f4/stm-idf/components/stm32f4xx_hal_driver/stm32f4xx_hal_nand.c **** 
  50:/home/phong/Documents/thesis/stm32f4/stm-idf/components/stm32f4xx_hal_driver/stm32f4xx_hal_nand.c ****     [..]
  51:/home/phong/Documents/thesis/stm32f4/stm-idf/components/stm32f4xx_hal_driver/stm32f4xx_hal_nand.c ****       (@) This driver is a set of generic APIs which handle standard NAND flash operations.
  52:/home/phong/Documents/thesis/stm32f4/stm-idf/components/stm32f4xx_hal_driver/stm32f4xx_hal_nand.c ****           If a NAND flash device contains different operations and/or implementations, 
  53:/home/phong/Documents/thesis/stm32f4/stm-idf/components/stm32f4xx_hal_driver/stm32f4xx_hal_nand.c ****           it should be implemented separately.
  54:/home/phong/Documents/thesis/stm32f4/stm-idf/components/stm32f4xx_hal_driver/stm32f4xx_hal_nand.c **** 
  55:/home/phong/Documents/thesis/stm32f4/stm-idf/components/stm32f4xx_hal_driver/stm32f4xx_hal_nand.c ****     *** Callback registration ***
  56:/home/phong/Documents/thesis/stm32f4/stm-idf/components/stm32f4xx_hal_driver/stm32f4xx_hal_nand.c ****     =============================================
  57:/home/phong/Documents/thesis/stm32f4/stm-idf/components/stm32f4xx_hal_driver/stm32f4xx_hal_nand.c ****     [..]
  58:/home/phong/Documents/thesis/stm32f4/stm-idf/components/stm32f4xx_hal_driver/stm32f4xx_hal_nand.c ****       The compilation define  USE_HAL_NAND_REGISTER_CALLBACKS when set to 1
  59:/home/phong/Documents/thesis/stm32f4/stm-idf/components/stm32f4xx_hal_driver/stm32f4xx_hal_nand.c ****       allows the user to configure dynamically the driver callbacks.
  60:/home/phong/Documents/thesis/stm32f4/stm-idf/components/stm32f4xx_hal_driver/stm32f4xx_hal_nand.c **** 
  61:/home/phong/Documents/thesis/stm32f4/stm-idf/components/stm32f4xx_hal_driver/stm32f4xx_hal_nand.c ****       Use Functions @ref HAL_NAND_RegisterCallback() to register a user callback,
  62:/home/phong/Documents/thesis/stm32f4/stm-idf/components/stm32f4xx_hal_driver/stm32f4xx_hal_nand.c ****       it allows to register following callbacks:
  63:/home/phong/Documents/thesis/stm32f4/stm-idf/components/stm32f4xx_hal_driver/stm32f4xx_hal_nand.c ****         (+) MspInitCallback    : NAND MspInit.
  64:/home/phong/Documents/thesis/stm32f4/stm-idf/components/stm32f4xx_hal_driver/stm32f4xx_hal_nand.c ****         (+) MspDeInitCallback  : NAND MspDeInit.
  65:/home/phong/Documents/thesis/stm32f4/stm-idf/components/stm32f4xx_hal_driver/stm32f4xx_hal_nand.c ****       This function takes as parameters the HAL peripheral handle, the Callback ID
  66:/home/phong/Documents/thesis/stm32f4/stm-idf/components/stm32f4xx_hal_driver/stm32f4xx_hal_nand.c ****       and a pointer to the user callback function.
  67:/home/phong/Documents/thesis/stm32f4/stm-idf/components/stm32f4xx_hal_driver/stm32f4xx_hal_nand.c **** 
  68:/home/phong/Documents/thesis/stm32f4/stm-idf/components/stm32f4xx_hal_driver/stm32f4xx_hal_nand.c ****       Use function @ref HAL_NAND_UnRegisterCallback() to reset a callback to the default
  69:/home/phong/Documents/thesis/stm32f4/stm-idf/components/stm32f4xx_hal_driver/stm32f4xx_hal_nand.c ****       weak (surcharged) function. It allows to reset following callbacks:
  70:/home/phong/Documents/thesis/stm32f4/stm-idf/components/stm32f4xx_hal_driver/stm32f4xx_hal_nand.c ****         (+) MspInitCallback    : NAND MspInit.
  71:/home/phong/Documents/thesis/stm32f4/stm-idf/components/stm32f4xx_hal_driver/stm32f4xx_hal_nand.c ****         (+) MspDeInitCallback  : NAND MspDeInit.
  72:/home/phong/Documents/thesis/stm32f4/stm-idf/components/stm32f4xx_hal_driver/stm32f4xx_hal_nand.c ****       This function) takes as parameters the HAL peripheral handle and the Callback ID.
  73:/home/phong/Documents/thesis/stm32f4/stm-idf/components/stm32f4xx_hal_driver/stm32f4xx_hal_nand.c **** 
  74:/home/phong/Documents/thesis/stm32f4/stm-idf/components/stm32f4xx_hal_driver/stm32f4xx_hal_nand.c ****       By default, after the @ref HAL_NAND_Init and if the state is HAL_NAND_STATE_RESET
  75:/home/phong/Documents/thesis/stm32f4/stm-idf/components/stm32f4xx_hal_driver/stm32f4xx_hal_nand.c ****       all callbacks are reset to the corresponding legacy weak (surcharged) functions.
  76:/home/phong/Documents/thesis/stm32f4/stm-idf/components/stm32f4xx_hal_driver/stm32f4xx_hal_nand.c ****       Exception done for MspInit and MspDeInit callbacks that are respectively
  77:/home/phong/Documents/thesis/stm32f4/stm-idf/components/stm32f4xx_hal_driver/stm32f4xx_hal_nand.c ****       reset to the legacy weak (surcharged) functions in the @ref HAL_NAND_Init
  78:/home/phong/Documents/thesis/stm32f4/stm-idf/components/stm32f4xx_hal_driver/stm32f4xx_hal_nand.c ****       and @ref  HAL_NAND_DeInit only when these callbacks are null (not registered beforehand).
  79:/home/phong/Documents/thesis/stm32f4/stm-idf/components/stm32f4xx_hal_driver/stm32f4xx_hal_nand.c ****       If not, MspInit or MspDeInit are not null, the @ref HAL_NAND_Init and @ref HAL_NAND_DeInit
  80:/home/phong/Documents/thesis/stm32f4/stm-idf/components/stm32f4xx_hal_driver/stm32f4xx_hal_nand.c ****       keep and use the user MspInit/MspDeInit callbacks (registered beforehand)
  81:/home/phong/Documents/thesis/stm32f4/stm-idf/components/stm32f4xx_hal_driver/stm32f4xx_hal_nand.c **** 
  82:/home/phong/Documents/thesis/stm32f4/stm-idf/components/stm32f4xx_hal_driver/stm32f4xx_hal_nand.c ****       Callbacks can be registered/unregistered in READY state only.
  83:/home/phong/Documents/thesis/stm32f4/stm-idf/components/stm32f4xx_hal_driver/stm32f4xx_hal_nand.c ****       Exception done for MspInit/MspDeInit callbacks that can be registered/unregistered
  84:/home/phong/Documents/thesis/stm32f4/stm-idf/components/stm32f4xx_hal_driver/stm32f4xx_hal_nand.c ****       in READY or RESET state, thus registered (user) MspInit/DeInit callbacks can be used
  85:/home/phong/Documents/thesis/stm32f4/stm-idf/components/stm32f4xx_hal_driver/stm32f4xx_hal_nand.c ****       during the Init/DeInit.
  86:/home/phong/Documents/thesis/stm32f4/stm-idf/components/stm32f4xx_hal_driver/stm32f4xx_hal_nand.c ****       In that case first register the MspInit/MspDeInit user callbacks
  87:/home/phong/Documents/thesis/stm32f4/stm-idf/components/stm32f4xx_hal_driver/stm32f4xx_hal_nand.c ****       using @ref HAL_NAND_RegisterCallback before calling @ref HAL_NAND_DeInit
  88:/home/phong/Documents/thesis/stm32f4/stm-idf/components/stm32f4xx_hal_driver/stm32f4xx_hal_nand.c ****       or @ref HAL_NAND_Init function.
ARM GAS  /tmp/ccM6uMDT.s 			page 3


  89:/home/phong/Documents/thesis/stm32f4/stm-idf/components/stm32f4xx_hal_driver/stm32f4xx_hal_nand.c **** 
  90:/home/phong/Documents/thesis/stm32f4/stm-idf/components/stm32f4xx_hal_driver/stm32f4xx_hal_nand.c ****       When The compilation define USE_HAL_NAND_REGISTER_CALLBACKS is set to 0 or
  91:/home/phong/Documents/thesis/stm32f4/stm-idf/components/stm32f4xx_hal_driver/stm32f4xx_hal_nand.c ****       not defined, the callback registering feature is not available
  92:/home/phong/Documents/thesis/stm32f4/stm-idf/components/stm32f4xx_hal_driver/stm32f4xx_hal_nand.c ****       and weak (surcharged) callbacks are used.
  93:/home/phong/Documents/thesis/stm32f4/stm-idf/components/stm32f4xx_hal_driver/stm32f4xx_hal_nand.c **** 
  94:/home/phong/Documents/thesis/stm32f4/stm-idf/components/stm32f4xx_hal_driver/stm32f4xx_hal_nand.c ****   @endverbatim
  95:/home/phong/Documents/thesis/stm32f4/stm-idf/components/stm32f4xx_hal_driver/stm32f4xx_hal_nand.c ****   ******************************************************************************
  96:/home/phong/Documents/thesis/stm32f4/stm-idf/components/stm32f4xx_hal_driver/stm32f4xx_hal_nand.c ****   * @attention
  97:/home/phong/Documents/thesis/stm32f4/stm-idf/components/stm32f4xx_hal_driver/stm32f4xx_hal_nand.c ****   *
  98:/home/phong/Documents/thesis/stm32f4/stm-idf/components/stm32f4xx_hal_driver/stm32f4xx_hal_nand.c ****   * <h2><center>&copy; Copyright (c) 2017 STMicroelectronics.
  99:/home/phong/Documents/thesis/stm32f4/stm-idf/components/stm32f4xx_hal_driver/stm32f4xx_hal_nand.c ****   * All rights reserved.</center></h2>
 100:/home/phong/Documents/thesis/stm32f4/stm-idf/components/stm32f4xx_hal_driver/stm32f4xx_hal_nand.c ****   *
 101:/home/phong/Documents/thesis/stm32f4/stm-idf/components/stm32f4xx_hal_driver/stm32f4xx_hal_nand.c ****   * This software component is licensed by ST under BSD 3-Clause license,
 102:/home/phong/Documents/thesis/stm32f4/stm-idf/components/stm32f4xx_hal_driver/stm32f4xx_hal_nand.c ****   * the "License"; You may not use this file except in compliance with the
 103:/home/phong/Documents/thesis/stm32f4/stm-idf/components/stm32f4xx_hal_driver/stm32f4xx_hal_nand.c ****   * License. You may obtain a copy of the License at:
 104:/home/phong/Documents/thesis/stm32f4/stm-idf/components/stm32f4xx_hal_driver/stm32f4xx_hal_nand.c ****   *                        opensource.org/licenses/BSD-3-Clause
 105:/home/phong/Documents/thesis/stm32f4/stm-idf/components/stm32f4xx_hal_driver/stm32f4xx_hal_nand.c ****   *
 106:/home/phong/Documents/thesis/stm32f4/stm-idf/components/stm32f4xx_hal_driver/stm32f4xx_hal_nand.c ****   ******************************************************************************
 107:/home/phong/Documents/thesis/stm32f4/stm-idf/components/stm32f4xx_hal_driver/stm32f4xx_hal_nand.c ****   */ 
 108:/home/phong/Documents/thesis/stm32f4/stm-idf/components/stm32f4xx_hal_driver/stm32f4xx_hal_nand.c **** 
 109:/home/phong/Documents/thesis/stm32f4/stm-idf/components/stm32f4xx_hal_driver/stm32f4xx_hal_nand.c **** /* Includes ------------------------------------------------------------------*/
 110:/home/phong/Documents/thesis/stm32f4/stm-idf/components/stm32f4xx_hal_driver/stm32f4xx_hal_nand.c **** #include "stm32f4xx_hal.h"
 111:/home/phong/Documents/thesis/stm32f4/stm-idf/components/stm32f4xx_hal_driver/stm32f4xx_hal_nand.c **** 
 112:/home/phong/Documents/thesis/stm32f4/stm-idf/components/stm32f4xx_hal_driver/stm32f4xx_hal_nand.c **** /** @addtogroup STM32F4xx_HAL_Driver
 113:/home/phong/Documents/thesis/stm32f4/stm-idf/components/stm32f4xx_hal_driver/stm32f4xx_hal_nand.c ****   * @{
 114:/home/phong/Documents/thesis/stm32f4/stm-idf/components/stm32f4xx_hal_driver/stm32f4xx_hal_nand.c ****   */
 115:/home/phong/Documents/thesis/stm32f4/stm-idf/components/stm32f4xx_hal_driver/stm32f4xx_hal_nand.c **** 
 116:/home/phong/Documents/thesis/stm32f4/stm-idf/components/stm32f4xx_hal_driver/stm32f4xx_hal_nand.c **** 
 117:/home/phong/Documents/thesis/stm32f4/stm-idf/components/stm32f4xx_hal_driver/stm32f4xx_hal_nand.c **** #ifdef HAL_NAND_MODULE_ENABLED
 118:/home/phong/Documents/thesis/stm32f4/stm-idf/components/stm32f4xx_hal_driver/stm32f4xx_hal_nand.c **** 
 119:/home/phong/Documents/thesis/stm32f4/stm-idf/components/stm32f4xx_hal_driver/stm32f4xx_hal_nand.c **** #if defined(STM32F405xx) || defined(STM32F415xx) || defined(STM32F407xx) || defined(STM32F417xx) ||
 120:/home/phong/Documents/thesis/stm32f4/stm-idf/components/stm32f4xx_hal_driver/stm32f4xx_hal_nand.c ****     defined(STM32F427xx) || defined(STM32F437xx) || defined(STM32F429xx) || defined(STM32F439xx) ||
 121:/home/phong/Documents/thesis/stm32f4/stm-idf/components/stm32f4xx_hal_driver/stm32f4xx_hal_nand.c ****     defined(STM32F446xx) || defined(STM32F469xx) || defined(STM32F479xx)
 122:/home/phong/Documents/thesis/stm32f4/stm-idf/components/stm32f4xx_hal_driver/stm32f4xx_hal_nand.c **** 
 123:/home/phong/Documents/thesis/stm32f4/stm-idf/components/stm32f4xx_hal_driver/stm32f4xx_hal_nand.c **** /** @defgroup NAND NAND 
 124:/home/phong/Documents/thesis/stm32f4/stm-idf/components/stm32f4xx_hal_driver/stm32f4xx_hal_nand.c ****   * @brief NAND HAL module driver
 125:/home/phong/Documents/thesis/stm32f4/stm-idf/components/stm32f4xx_hal_driver/stm32f4xx_hal_nand.c ****   * @{
 126:/home/phong/Documents/thesis/stm32f4/stm-idf/components/stm32f4xx_hal_driver/stm32f4xx_hal_nand.c ****   */
 127:/home/phong/Documents/thesis/stm32f4/stm-idf/components/stm32f4xx_hal_driver/stm32f4xx_hal_nand.c **** 
 128:/home/phong/Documents/thesis/stm32f4/stm-idf/components/stm32f4xx_hal_driver/stm32f4xx_hal_nand.c **** /* Private typedef -----------------------------------------------------------*/
 129:/home/phong/Documents/thesis/stm32f4/stm-idf/components/stm32f4xx_hal_driver/stm32f4xx_hal_nand.c **** /* Private define ------------------------------------------------------------*/
 130:/home/phong/Documents/thesis/stm32f4/stm-idf/components/stm32f4xx_hal_driver/stm32f4xx_hal_nand.c **** /** @defgroup NAND_Private_Constants NAND Private Constants
 131:/home/phong/Documents/thesis/stm32f4/stm-idf/components/stm32f4xx_hal_driver/stm32f4xx_hal_nand.c ****   * @{
 132:/home/phong/Documents/thesis/stm32f4/stm-idf/components/stm32f4xx_hal_driver/stm32f4xx_hal_nand.c ****   */
 133:/home/phong/Documents/thesis/stm32f4/stm-idf/components/stm32f4xx_hal_driver/stm32f4xx_hal_nand.c **** 
 134:/home/phong/Documents/thesis/stm32f4/stm-idf/components/stm32f4xx_hal_driver/stm32f4xx_hal_nand.c **** /**
 135:/home/phong/Documents/thesis/stm32f4/stm-idf/components/stm32f4xx_hal_driver/stm32f4xx_hal_nand.c ****   * @}
 136:/home/phong/Documents/thesis/stm32f4/stm-idf/components/stm32f4xx_hal_driver/stm32f4xx_hal_nand.c ****   */
 137:/home/phong/Documents/thesis/stm32f4/stm-idf/components/stm32f4xx_hal_driver/stm32f4xx_hal_nand.c **** 
 138:/home/phong/Documents/thesis/stm32f4/stm-idf/components/stm32f4xx_hal_driver/stm32f4xx_hal_nand.c **** /* Private macro -------------------------------------------------------------*/    
 139:/home/phong/Documents/thesis/stm32f4/stm-idf/components/stm32f4xx_hal_driver/stm32f4xx_hal_nand.c **** /** @defgroup NAND_Private_Macros NAND Private Macros
 140:/home/phong/Documents/thesis/stm32f4/stm-idf/components/stm32f4xx_hal_driver/stm32f4xx_hal_nand.c ****   * @{
 141:/home/phong/Documents/thesis/stm32f4/stm-idf/components/stm32f4xx_hal_driver/stm32f4xx_hal_nand.c ****   */
 142:/home/phong/Documents/thesis/stm32f4/stm-idf/components/stm32f4xx_hal_driver/stm32f4xx_hal_nand.c **** 
 143:/home/phong/Documents/thesis/stm32f4/stm-idf/components/stm32f4xx_hal_driver/stm32f4xx_hal_nand.c **** /**
 144:/home/phong/Documents/thesis/stm32f4/stm-idf/components/stm32f4xx_hal_driver/stm32f4xx_hal_nand.c ****   * @}
 145:/home/phong/Documents/thesis/stm32f4/stm-idf/components/stm32f4xx_hal_driver/stm32f4xx_hal_nand.c ****   */
ARM GAS  /tmp/ccM6uMDT.s 			page 4


 146:/home/phong/Documents/thesis/stm32f4/stm-idf/components/stm32f4xx_hal_driver/stm32f4xx_hal_nand.c **** /* Private variables ---------------------------------------------------------*/
 147:/home/phong/Documents/thesis/stm32f4/stm-idf/components/stm32f4xx_hal_driver/stm32f4xx_hal_nand.c **** /* Private function prototypes -----------------------------------------------*/
 148:/home/phong/Documents/thesis/stm32f4/stm-idf/components/stm32f4xx_hal_driver/stm32f4xx_hal_nand.c **** /* Exported functions --------------------------------------------------------*/
 149:/home/phong/Documents/thesis/stm32f4/stm-idf/components/stm32f4xx_hal_driver/stm32f4xx_hal_nand.c **** /** @defgroup NAND_Exported_Functions NAND Exported Functions
 150:/home/phong/Documents/thesis/stm32f4/stm-idf/components/stm32f4xx_hal_driver/stm32f4xx_hal_nand.c ****   * @{
 151:/home/phong/Documents/thesis/stm32f4/stm-idf/components/stm32f4xx_hal_driver/stm32f4xx_hal_nand.c ****   */
 152:/home/phong/Documents/thesis/stm32f4/stm-idf/components/stm32f4xx_hal_driver/stm32f4xx_hal_nand.c ****     
 153:/home/phong/Documents/thesis/stm32f4/stm-idf/components/stm32f4xx_hal_driver/stm32f4xx_hal_nand.c **** /** @defgroup NAND_Exported_Functions_Group1 Initialization and de-initialization functions 
 154:/home/phong/Documents/thesis/stm32f4/stm-idf/components/stm32f4xx_hal_driver/stm32f4xx_hal_nand.c ****   * @brief    Initialization and Configuration functions 
 155:/home/phong/Documents/thesis/stm32f4/stm-idf/components/stm32f4xx_hal_driver/stm32f4xx_hal_nand.c ****   *
 156:/home/phong/Documents/thesis/stm32f4/stm-idf/components/stm32f4xx_hal_driver/stm32f4xx_hal_nand.c ****   @verbatim    
 157:/home/phong/Documents/thesis/stm32f4/stm-idf/components/stm32f4xx_hal_driver/stm32f4xx_hal_nand.c ****   ==============================================================================
 158:/home/phong/Documents/thesis/stm32f4/stm-idf/components/stm32f4xx_hal_driver/stm32f4xx_hal_nand.c ****             ##### NAND Initialization and de-initialization functions #####
 159:/home/phong/Documents/thesis/stm32f4/stm-idf/components/stm32f4xx_hal_driver/stm32f4xx_hal_nand.c ****   ==============================================================================
 160:/home/phong/Documents/thesis/stm32f4/stm-idf/components/stm32f4xx_hal_driver/stm32f4xx_hal_nand.c ****   [..]  
 161:/home/phong/Documents/thesis/stm32f4/stm-idf/components/stm32f4xx_hal_driver/stm32f4xx_hal_nand.c ****     This section provides functions allowing to initialize/de-initialize
 162:/home/phong/Documents/thesis/stm32f4/stm-idf/components/stm32f4xx_hal_driver/stm32f4xx_hal_nand.c ****     the NAND memory
 163:/home/phong/Documents/thesis/stm32f4/stm-idf/components/stm32f4xx_hal_driver/stm32f4xx_hal_nand.c ****   
 164:/home/phong/Documents/thesis/stm32f4/stm-idf/components/stm32f4xx_hal_driver/stm32f4xx_hal_nand.c **** @endverbatim
 165:/home/phong/Documents/thesis/stm32f4/stm-idf/components/stm32f4xx_hal_driver/stm32f4xx_hal_nand.c ****   * @{
 166:/home/phong/Documents/thesis/stm32f4/stm-idf/components/stm32f4xx_hal_driver/stm32f4xx_hal_nand.c ****   */
 167:/home/phong/Documents/thesis/stm32f4/stm-idf/components/stm32f4xx_hal_driver/stm32f4xx_hal_nand.c ****     
 168:/home/phong/Documents/thesis/stm32f4/stm-idf/components/stm32f4xx_hal_driver/stm32f4xx_hal_nand.c **** /**
 169:/home/phong/Documents/thesis/stm32f4/stm-idf/components/stm32f4xx_hal_driver/stm32f4xx_hal_nand.c ****   * @brief  Perform NAND memory Initialization sequence
 170:/home/phong/Documents/thesis/stm32f4/stm-idf/components/stm32f4xx_hal_driver/stm32f4xx_hal_nand.c ****   * @param  hnand pointer to a NAND_HandleTypeDef structure that contains
 171:/home/phong/Documents/thesis/stm32f4/stm-idf/components/stm32f4xx_hal_driver/stm32f4xx_hal_nand.c ****   *                the configuration information for NAND module.
 172:/home/phong/Documents/thesis/stm32f4/stm-idf/components/stm32f4xx_hal_driver/stm32f4xx_hal_nand.c ****   * @param  ComSpace_Timing pointer to Common space timing structure
 173:/home/phong/Documents/thesis/stm32f4/stm-idf/components/stm32f4xx_hal_driver/stm32f4xx_hal_nand.c ****   * @param  AttSpace_Timing pointer to Attribute space timing structure
 174:/home/phong/Documents/thesis/stm32f4/stm-idf/components/stm32f4xx_hal_driver/stm32f4xx_hal_nand.c ****   * @retval HAL status
 175:/home/phong/Documents/thesis/stm32f4/stm-idf/components/stm32f4xx_hal_driver/stm32f4xx_hal_nand.c ****   */
 176:/home/phong/Documents/thesis/stm32f4/stm-idf/components/stm32f4xx_hal_driver/stm32f4xx_hal_nand.c **** HAL_StatusTypeDef  HAL_NAND_Init(NAND_HandleTypeDef *hnand, FMC_NAND_PCC_TimingTypeDef *ComSpace_Ti
 177:/home/phong/Documents/thesis/stm32f4/stm-idf/components/stm32f4xx_hal_driver/stm32f4xx_hal_nand.c **** {
 178:/home/phong/Documents/thesis/stm32f4/stm-idf/components/stm32f4xx_hal_driver/stm32f4xx_hal_nand.c ****   /* Check the NAND handle state */
 179:/home/phong/Documents/thesis/stm32f4/stm-idf/components/stm32f4xx_hal_driver/stm32f4xx_hal_nand.c ****   if(hnand == NULL)
 180:/home/phong/Documents/thesis/stm32f4/stm-idf/components/stm32f4xx_hal_driver/stm32f4xx_hal_nand.c ****   {
 181:/home/phong/Documents/thesis/stm32f4/stm-idf/components/stm32f4xx_hal_driver/stm32f4xx_hal_nand.c ****      return HAL_ERROR;
 182:/home/phong/Documents/thesis/stm32f4/stm-idf/components/stm32f4xx_hal_driver/stm32f4xx_hal_nand.c ****   }
 183:/home/phong/Documents/thesis/stm32f4/stm-idf/components/stm32f4xx_hal_driver/stm32f4xx_hal_nand.c **** 
 184:/home/phong/Documents/thesis/stm32f4/stm-idf/components/stm32f4xx_hal_driver/stm32f4xx_hal_nand.c ****   if(hnand->State == HAL_NAND_STATE_RESET)
 185:/home/phong/Documents/thesis/stm32f4/stm-idf/components/stm32f4xx_hal_driver/stm32f4xx_hal_nand.c ****   {
 186:/home/phong/Documents/thesis/stm32f4/stm-idf/components/stm32f4xx_hal_driver/stm32f4xx_hal_nand.c ****     /* Allocate lock resource and initialize it */
 187:/home/phong/Documents/thesis/stm32f4/stm-idf/components/stm32f4xx_hal_driver/stm32f4xx_hal_nand.c ****     hnand->Lock = HAL_UNLOCKED;
 188:/home/phong/Documents/thesis/stm32f4/stm-idf/components/stm32f4xx_hal_driver/stm32f4xx_hal_nand.c **** 
 189:/home/phong/Documents/thesis/stm32f4/stm-idf/components/stm32f4xx_hal_driver/stm32f4xx_hal_nand.c **** #if (USE_HAL_NAND_REGISTER_CALLBACKS == 1)
 190:/home/phong/Documents/thesis/stm32f4/stm-idf/components/stm32f4xx_hal_driver/stm32f4xx_hal_nand.c ****     if(hnand->MspInitCallback == NULL)
 191:/home/phong/Documents/thesis/stm32f4/stm-idf/components/stm32f4xx_hal_driver/stm32f4xx_hal_nand.c ****     {
 192:/home/phong/Documents/thesis/stm32f4/stm-idf/components/stm32f4xx_hal_driver/stm32f4xx_hal_nand.c ****       hnand->MspInitCallback = HAL_NAND_MspInit;
 193:/home/phong/Documents/thesis/stm32f4/stm-idf/components/stm32f4xx_hal_driver/stm32f4xx_hal_nand.c ****     }
 194:/home/phong/Documents/thesis/stm32f4/stm-idf/components/stm32f4xx_hal_driver/stm32f4xx_hal_nand.c ****     hnand->ItCallback = HAL_NAND_ITCallback;
 195:/home/phong/Documents/thesis/stm32f4/stm-idf/components/stm32f4xx_hal_driver/stm32f4xx_hal_nand.c **** 
 196:/home/phong/Documents/thesis/stm32f4/stm-idf/components/stm32f4xx_hal_driver/stm32f4xx_hal_nand.c ****     /* Init the low level hardware */
 197:/home/phong/Documents/thesis/stm32f4/stm-idf/components/stm32f4xx_hal_driver/stm32f4xx_hal_nand.c ****     hnand->MspInitCallback(hnand);
 198:/home/phong/Documents/thesis/stm32f4/stm-idf/components/stm32f4xx_hal_driver/stm32f4xx_hal_nand.c **** #else
 199:/home/phong/Documents/thesis/stm32f4/stm-idf/components/stm32f4xx_hal_driver/stm32f4xx_hal_nand.c ****     /* Initialize the low level hardware (MSP) */
 200:/home/phong/Documents/thesis/stm32f4/stm-idf/components/stm32f4xx_hal_driver/stm32f4xx_hal_nand.c ****     HAL_NAND_MspInit(hnand);
 201:/home/phong/Documents/thesis/stm32f4/stm-idf/components/stm32f4xx_hal_driver/stm32f4xx_hal_nand.c **** #endif
 202:/home/phong/Documents/thesis/stm32f4/stm-idf/components/stm32f4xx_hal_driver/stm32f4xx_hal_nand.c ****   }
ARM GAS  /tmp/ccM6uMDT.s 			page 5


 203:/home/phong/Documents/thesis/stm32f4/stm-idf/components/stm32f4xx_hal_driver/stm32f4xx_hal_nand.c **** 
 204:/home/phong/Documents/thesis/stm32f4/stm-idf/components/stm32f4xx_hal_driver/stm32f4xx_hal_nand.c ****   /* Initialize NAND control Interface */
 205:/home/phong/Documents/thesis/stm32f4/stm-idf/components/stm32f4xx_hal_driver/stm32f4xx_hal_nand.c ****   FMC_NAND_Init(hnand->Instance, &(hnand->Init));
 206:/home/phong/Documents/thesis/stm32f4/stm-idf/components/stm32f4xx_hal_driver/stm32f4xx_hal_nand.c ****   
 207:/home/phong/Documents/thesis/stm32f4/stm-idf/components/stm32f4xx_hal_driver/stm32f4xx_hal_nand.c ****   /* Initialize NAND common space timing Interface */  
 208:/home/phong/Documents/thesis/stm32f4/stm-idf/components/stm32f4xx_hal_driver/stm32f4xx_hal_nand.c ****   FMC_NAND_CommonSpace_Timing_Init(hnand->Instance, ComSpace_Timing, hnand->Init.NandBank);
 209:/home/phong/Documents/thesis/stm32f4/stm-idf/components/stm32f4xx_hal_driver/stm32f4xx_hal_nand.c ****   
 210:/home/phong/Documents/thesis/stm32f4/stm-idf/components/stm32f4xx_hal_driver/stm32f4xx_hal_nand.c ****   /* Initialize NAND attribute space timing Interface */  
 211:/home/phong/Documents/thesis/stm32f4/stm-idf/components/stm32f4xx_hal_driver/stm32f4xx_hal_nand.c ****   FMC_NAND_AttributeSpace_Timing_Init(hnand->Instance, AttSpace_Timing, hnand->Init.NandBank);
 212:/home/phong/Documents/thesis/stm32f4/stm-idf/components/stm32f4xx_hal_driver/stm32f4xx_hal_nand.c ****   
 213:/home/phong/Documents/thesis/stm32f4/stm-idf/components/stm32f4xx_hal_driver/stm32f4xx_hal_nand.c ****   /* Enable the NAND device */
 214:/home/phong/Documents/thesis/stm32f4/stm-idf/components/stm32f4xx_hal_driver/stm32f4xx_hal_nand.c ****   __FMC_NAND_ENABLE(hnand->Instance, hnand->Init.NandBank);
 215:/home/phong/Documents/thesis/stm32f4/stm-idf/components/stm32f4xx_hal_driver/stm32f4xx_hal_nand.c ****   
 216:/home/phong/Documents/thesis/stm32f4/stm-idf/components/stm32f4xx_hal_driver/stm32f4xx_hal_nand.c ****   /* Update the NAND controller state */
 217:/home/phong/Documents/thesis/stm32f4/stm-idf/components/stm32f4xx_hal_driver/stm32f4xx_hal_nand.c ****   hnand->State = HAL_NAND_STATE_READY;
 218:/home/phong/Documents/thesis/stm32f4/stm-idf/components/stm32f4xx_hal_driver/stm32f4xx_hal_nand.c **** 
 219:/home/phong/Documents/thesis/stm32f4/stm-idf/components/stm32f4xx_hal_driver/stm32f4xx_hal_nand.c ****   return HAL_OK;
 220:/home/phong/Documents/thesis/stm32f4/stm-idf/components/stm32f4xx_hal_driver/stm32f4xx_hal_nand.c **** }
 221:/home/phong/Documents/thesis/stm32f4/stm-idf/components/stm32f4xx_hal_driver/stm32f4xx_hal_nand.c **** 
 222:/home/phong/Documents/thesis/stm32f4/stm-idf/components/stm32f4xx_hal_driver/stm32f4xx_hal_nand.c **** /**
 223:/home/phong/Documents/thesis/stm32f4/stm-idf/components/stm32f4xx_hal_driver/stm32f4xx_hal_nand.c ****   * @brief  Perform NAND memory De-Initialization sequence
 224:/home/phong/Documents/thesis/stm32f4/stm-idf/components/stm32f4xx_hal_driver/stm32f4xx_hal_nand.c ****   * @param  hnand pointer to a NAND_HandleTypeDef structure that contains
 225:/home/phong/Documents/thesis/stm32f4/stm-idf/components/stm32f4xx_hal_driver/stm32f4xx_hal_nand.c ****   *                the configuration information for NAND module.
 226:/home/phong/Documents/thesis/stm32f4/stm-idf/components/stm32f4xx_hal_driver/stm32f4xx_hal_nand.c ****   * @retval HAL status
 227:/home/phong/Documents/thesis/stm32f4/stm-idf/components/stm32f4xx_hal_driver/stm32f4xx_hal_nand.c ****   */
 228:/home/phong/Documents/thesis/stm32f4/stm-idf/components/stm32f4xx_hal_driver/stm32f4xx_hal_nand.c **** HAL_StatusTypeDef HAL_NAND_DeInit(NAND_HandleTypeDef *hnand)  
 229:/home/phong/Documents/thesis/stm32f4/stm-idf/components/stm32f4xx_hal_driver/stm32f4xx_hal_nand.c **** {
 230:/home/phong/Documents/thesis/stm32f4/stm-idf/components/stm32f4xx_hal_driver/stm32f4xx_hal_nand.c **** #if (USE_HAL_NAND_REGISTER_CALLBACKS == 1)
 231:/home/phong/Documents/thesis/stm32f4/stm-idf/components/stm32f4xx_hal_driver/stm32f4xx_hal_nand.c ****   if(hnand->MspDeInitCallback == NULL)
 232:/home/phong/Documents/thesis/stm32f4/stm-idf/components/stm32f4xx_hal_driver/stm32f4xx_hal_nand.c ****   {
 233:/home/phong/Documents/thesis/stm32f4/stm-idf/components/stm32f4xx_hal_driver/stm32f4xx_hal_nand.c ****     hnand->MspDeInitCallback = HAL_NAND_MspDeInit;
 234:/home/phong/Documents/thesis/stm32f4/stm-idf/components/stm32f4xx_hal_driver/stm32f4xx_hal_nand.c ****   }
 235:/home/phong/Documents/thesis/stm32f4/stm-idf/components/stm32f4xx_hal_driver/stm32f4xx_hal_nand.c **** 
 236:/home/phong/Documents/thesis/stm32f4/stm-idf/components/stm32f4xx_hal_driver/stm32f4xx_hal_nand.c ****   /* DeInit the low level hardware */
 237:/home/phong/Documents/thesis/stm32f4/stm-idf/components/stm32f4xx_hal_driver/stm32f4xx_hal_nand.c ****   hnand->MspDeInitCallback(hnand);
 238:/home/phong/Documents/thesis/stm32f4/stm-idf/components/stm32f4xx_hal_driver/stm32f4xx_hal_nand.c **** #else
 239:/home/phong/Documents/thesis/stm32f4/stm-idf/components/stm32f4xx_hal_driver/stm32f4xx_hal_nand.c ****   /* Initialize the low level hardware (MSP) */
 240:/home/phong/Documents/thesis/stm32f4/stm-idf/components/stm32f4xx_hal_driver/stm32f4xx_hal_nand.c ****   HAL_NAND_MspDeInit(hnand);
 241:/home/phong/Documents/thesis/stm32f4/stm-idf/components/stm32f4xx_hal_driver/stm32f4xx_hal_nand.c **** #endif
 242:/home/phong/Documents/thesis/stm32f4/stm-idf/components/stm32f4xx_hal_driver/stm32f4xx_hal_nand.c **** 
 243:/home/phong/Documents/thesis/stm32f4/stm-idf/components/stm32f4xx_hal_driver/stm32f4xx_hal_nand.c ****   /* Configure the NAND registers with their reset values */
 244:/home/phong/Documents/thesis/stm32f4/stm-idf/components/stm32f4xx_hal_driver/stm32f4xx_hal_nand.c ****   FMC_NAND_DeInit(hnand->Instance, hnand->Init.NandBank);
 245:/home/phong/Documents/thesis/stm32f4/stm-idf/components/stm32f4xx_hal_driver/stm32f4xx_hal_nand.c **** 
 246:/home/phong/Documents/thesis/stm32f4/stm-idf/components/stm32f4xx_hal_driver/stm32f4xx_hal_nand.c ****   /* Reset the NAND controller state */
 247:/home/phong/Documents/thesis/stm32f4/stm-idf/components/stm32f4xx_hal_driver/stm32f4xx_hal_nand.c ****   hnand->State = HAL_NAND_STATE_RESET;
 248:/home/phong/Documents/thesis/stm32f4/stm-idf/components/stm32f4xx_hal_driver/stm32f4xx_hal_nand.c **** 
 249:/home/phong/Documents/thesis/stm32f4/stm-idf/components/stm32f4xx_hal_driver/stm32f4xx_hal_nand.c ****   /* Release Lock */
 250:/home/phong/Documents/thesis/stm32f4/stm-idf/components/stm32f4xx_hal_driver/stm32f4xx_hal_nand.c ****   __HAL_UNLOCK(hnand);
 251:/home/phong/Documents/thesis/stm32f4/stm-idf/components/stm32f4xx_hal_driver/stm32f4xx_hal_nand.c **** 
 252:/home/phong/Documents/thesis/stm32f4/stm-idf/components/stm32f4xx_hal_driver/stm32f4xx_hal_nand.c ****   return HAL_OK;
 253:/home/phong/Documents/thesis/stm32f4/stm-idf/components/stm32f4xx_hal_driver/stm32f4xx_hal_nand.c **** }
 254:/home/phong/Documents/thesis/stm32f4/stm-idf/components/stm32f4xx_hal_driver/stm32f4xx_hal_nand.c **** 
 255:/home/phong/Documents/thesis/stm32f4/stm-idf/components/stm32f4xx_hal_driver/stm32f4xx_hal_nand.c **** /**
 256:/home/phong/Documents/thesis/stm32f4/stm-idf/components/stm32f4xx_hal_driver/stm32f4xx_hal_nand.c ****   * @brief  NAND MSP Init
 257:/home/phong/Documents/thesis/stm32f4/stm-idf/components/stm32f4xx_hal_driver/stm32f4xx_hal_nand.c ****   * @param  hnand pointer to a NAND_HandleTypeDef structure that contains
 258:/home/phong/Documents/thesis/stm32f4/stm-idf/components/stm32f4xx_hal_driver/stm32f4xx_hal_nand.c ****   *                the configuration information for NAND module.
 259:/home/phong/Documents/thesis/stm32f4/stm-idf/components/stm32f4xx_hal_driver/stm32f4xx_hal_nand.c ****   * @retval None
ARM GAS  /tmp/ccM6uMDT.s 			page 6


 260:/home/phong/Documents/thesis/stm32f4/stm-idf/components/stm32f4xx_hal_driver/stm32f4xx_hal_nand.c ****   */
 261:/home/phong/Documents/thesis/stm32f4/stm-idf/components/stm32f4xx_hal_driver/stm32f4xx_hal_nand.c **** __weak void HAL_NAND_MspInit(NAND_HandleTypeDef *hnand)
 262:/home/phong/Documents/thesis/stm32f4/stm-idf/components/stm32f4xx_hal_driver/stm32f4xx_hal_nand.c **** {
  28              		.loc 1 262 0
  29              		.cfi_startproc
  30              		@ args = 0, pretend = 0, frame = 0
  31              		@ frame_needed = 0, uses_anonymous_args = 0
  32              		@ link register save eliminated.
  33              	.LVL0:
  34 0000 7047     		bx	lr
  35              		.cfi_endproc
  36              	.LFE132:
  38              		.section	.text.HAL_NAND_Init,"ax",%progbits
  39              		.align	1
  40              		.global	HAL_NAND_Init
  41              		.syntax unified
  42              		.thumb
  43              		.thumb_func
  44              		.fpu fpv4-sp-d16
  46              	HAL_NAND_Init:
  47              	.LFB130:
 177:/home/phong/Documents/thesis/stm32f4/stm-idf/components/stm32f4xx_hal_driver/stm32f4xx_hal_nand.c ****   /* Check the NAND handle state */
  48              		.loc 1 177 0
  49              		.cfi_startproc
  50              		@ args = 0, pretend = 0, frame = 0
  51              		@ frame_needed = 0, uses_anonymous_args = 0
  52              	.LVL1:
 179:/home/phong/Documents/thesis/stm32f4/stm-idf/components/stm32f4xx_hal_driver/stm32f4xx_hal_nand.c ****   {
  53              		.loc 1 179 0
  54 0000 60B3     		cbz	r0, .L7
 177:/home/phong/Documents/thesis/stm32f4/stm-idf/components/stm32f4xx_hal_driver/stm32f4xx_hal_nand.c ****   /* Check the NAND handle state */
  55              		.loc 1 177 0
  56 0002 70B5     		push	{r4, r5, r6, lr}
  57              	.LCFI0:
  58              		.cfi_def_cfa_offset 16
  59              		.cfi_offset 4, -16
  60              		.cfi_offset 5, -12
  61              		.cfi_offset 6, -8
  62              		.cfi_offset 14, -4
  63 0004 0446     		mov	r4, r0
  64 0006 1546     		mov	r5, r2
  65 0008 0E46     		mov	r6, r1
 184:/home/phong/Documents/thesis/stm32f4/stm-idf/components/stm32f4xx_hal_driver/stm32f4xx_hal_nand.c ****   {
  66              		.loc 1 184 0
  67 000a 90F82130 		ldrb	r3, [r0, #33]	@ zero_extendqisi2
  68 000e D3B1     		cbz	r3, .L12
  69              	.LVL2:
  70              	.L4:
 205:/home/phong/Documents/thesis/stm32f4/stm-idf/components/stm32f4xx_hal_driver/stm32f4xx_hal_nand.c ****   
  71              		.loc 1 205 0
  72 0010 211D     		adds	r1, r4, #4
  73 0012 2068     		ldr	r0, [r4]
  74 0014 FFF7FEFF 		bl	FSMC_NAND_Init
  75              	.LVL3:
 208:/home/phong/Documents/thesis/stm32f4/stm-idf/components/stm32f4xx_hal_driver/stm32f4xx_hal_nand.c ****   
  76              		.loc 1 208 0
  77 0018 6268     		ldr	r2, [r4, #4]
ARM GAS  /tmp/ccM6uMDT.s 			page 7


  78 001a 3146     		mov	r1, r6
  79 001c 2068     		ldr	r0, [r4]
  80 001e FFF7FEFF 		bl	FSMC_NAND_CommonSpace_Timing_Init
  81              	.LVL4:
 211:/home/phong/Documents/thesis/stm32f4/stm-idf/components/stm32f4xx_hal_driver/stm32f4xx_hal_nand.c ****   
  82              		.loc 1 211 0
  83 0022 6268     		ldr	r2, [r4, #4]
  84 0024 2946     		mov	r1, r5
  85 0026 2068     		ldr	r0, [r4]
  86 0028 FFF7FEFF 		bl	FSMC_NAND_AttributeSpace_Timing_Init
  87              	.LVL5:
 214:/home/phong/Documents/thesis/stm32f4/stm-idf/components/stm32f4xx_hal_driver/stm32f4xx_hal_nand.c ****   
  88              		.loc 1 214 0
  89 002c 6368     		ldr	r3, [r4, #4]
  90 002e 102B     		cmp	r3, #16
  91 0030 0ED0     		beq	.L13
 214:/home/phong/Documents/thesis/stm32f4/stm-idf/components/stm32f4xx_hal_driver/stm32f4xx_hal_nand.c ****   
  92              		.loc 1 214 0 is_stmt 0 discriminator 2
  93 0032 2268     		ldr	r2, [r4]
  94 0034 136A     		ldr	r3, [r2, #32]
  95 0036 43F00403 		orr	r3, r3, #4
  96 003a 1362     		str	r3, [r2, #32]
  97              	.L6:
 217:/home/phong/Documents/thesis/stm32f4/stm-idf/components/stm32f4xx_hal_driver/stm32f4xx_hal_nand.c **** 
  98              		.loc 1 217 0 is_stmt 1
  99 003c 0123     		movs	r3, #1
 100 003e 84F82130 		strb	r3, [r4, #33]
 219:/home/phong/Documents/thesis/stm32f4/stm-idf/components/stm32f4xx_hal_driver/stm32f4xx_hal_nand.c **** }
 101              		.loc 1 219 0
 102 0042 0020     		movs	r0, #0
 103 0044 70BD     		pop	{r4, r5, r6, pc}
 104              	.LVL6:
 105              	.L12:
 187:/home/phong/Documents/thesis/stm32f4/stm-idf/components/stm32f4xx_hal_driver/stm32f4xx_hal_nand.c **** 
 106              		.loc 1 187 0
 107 0046 80F82030 		strb	r3, [r0, #32]
 200:/home/phong/Documents/thesis/stm32f4/stm-idf/components/stm32f4xx_hal_driver/stm32f4xx_hal_nand.c **** #endif
 108              		.loc 1 200 0
 109 004a FFF7FEFF 		bl	HAL_NAND_MspInit
 110              	.LVL7:
 111 004e DFE7     		b	.L4
 112              	.L13:
 214:/home/phong/Documents/thesis/stm32f4/stm-idf/components/stm32f4xx_hal_driver/stm32f4xx_hal_nand.c ****   
 113              		.loc 1 214 0 discriminator 1
 114 0050 2268     		ldr	r2, [r4]
 115 0052 1368     		ldr	r3, [r2]
 116 0054 43F00403 		orr	r3, r3, #4
 117 0058 1360     		str	r3, [r2]
 118 005a EFE7     		b	.L6
 119              	.LVL8:
 120              	.L7:
 121              	.LCFI1:
 122              		.cfi_def_cfa_offset 0
 123              		.cfi_restore 4
 124              		.cfi_restore 5
 125              		.cfi_restore 6
 126              		.cfi_restore 14
ARM GAS  /tmp/ccM6uMDT.s 			page 8


 181:/home/phong/Documents/thesis/stm32f4/stm-idf/components/stm32f4xx_hal_driver/stm32f4xx_hal_nand.c ****   }
 127              		.loc 1 181 0
 128 005c 0120     		movs	r0, #1
 129              	.LVL9:
 130 005e 7047     		bx	lr
 131              		.cfi_endproc
 132              	.LFE130:
 134              		.section	.text.HAL_NAND_MspDeInit,"ax",%progbits
 135              		.align	1
 136              		.weak	HAL_NAND_MspDeInit
 137              		.syntax unified
 138              		.thumb
 139              		.thumb_func
 140              		.fpu fpv4-sp-d16
 142              	HAL_NAND_MspDeInit:
 143              	.LFB133:
 263:/home/phong/Documents/thesis/stm32f4/stm-idf/components/stm32f4xx_hal_driver/stm32f4xx_hal_nand.c ****   /* Prevent unused argument(s) compilation warning */
 264:/home/phong/Documents/thesis/stm32f4/stm-idf/components/stm32f4xx_hal_driver/stm32f4xx_hal_nand.c ****   UNUSED(hnand);
 265:/home/phong/Documents/thesis/stm32f4/stm-idf/components/stm32f4xx_hal_driver/stm32f4xx_hal_nand.c ****   /* NOTE : This function Should not be modified, when the callback is needed,
 266:/home/phong/Documents/thesis/stm32f4/stm-idf/components/stm32f4xx_hal_driver/stm32f4xx_hal_nand.c ****             the HAL_NAND_MspInit could be implemented in the user file
 267:/home/phong/Documents/thesis/stm32f4/stm-idf/components/stm32f4xx_hal_driver/stm32f4xx_hal_nand.c ****    */ 
 268:/home/phong/Documents/thesis/stm32f4/stm-idf/components/stm32f4xx_hal_driver/stm32f4xx_hal_nand.c **** }
 269:/home/phong/Documents/thesis/stm32f4/stm-idf/components/stm32f4xx_hal_driver/stm32f4xx_hal_nand.c **** 
 270:/home/phong/Documents/thesis/stm32f4/stm-idf/components/stm32f4xx_hal_driver/stm32f4xx_hal_nand.c **** /**
 271:/home/phong/Documents/thesis/stm32f4/stm-idf/components/stm32f4xx_hal_driver/stm32f4xx_hal_nand.c ****   * @brief  NAND MSP DeInit
 272:/home/phong/Documents/thesis/stm32f4/stm-idf/components/stm32f4xx_hal_driver/stm32f4xx_hal_nand.c ****   * @param  hnand pointer to a NAND_HandleTypeDef structure that contains
 273:/home/phong/Documents/thesis/stm32f4/stm-idf/components/stm32f4xx_hal_driver/stm32f4xx_hal_nand.c ****   *                the configuration information for NAND module.
 274:/home/phong/Documents/thesis/stm32f4/stm-idf/components/stm32f4xx_hal_driver/stm32f4xx_hal_nand.c ****   * @retval None
 275:/home/phong/Documents/thesis/stm32f4/stm-idf/components/stm32f4xx_hal_driver/stm32f4xx_hal_nand.c ****   */
 276:/home/phong/Documents/thesis/stm32f4/stm-idf/components/stm32f4xx_hal_driver/stm32f4xx_hal_nand.c **** __weak void HAL_NAND_MspDeInit(NAND_HandleTypeDef *hnand)
 277:/home/phong/Documents/thesis/stm32f4/stm-idf/components/stm32f4xx_hal_driver/stm32f4xx_hal_nand.c **** {
 144              		.loc 1 277 0
 145              		.cfi_startproc
 146              		@ args = 0, pretend = 0, frame = 0
 147              		@ frame_needed = 0, uses_anonymous_args = 0
 148              		@ link register save eliminated.
 149              	.LVL10:
 150 0000 7047     		bx	lr
 151              		.cfi_endproc
 152              	.LFE133:
 154              		.section	.text.HAL_NAND_DeInit,"ax",%progbits
 155              		.align	1
 156              		.global	HAL_NAND_DeInit
 157              		.syntax unified
 158              		.thumb
 159              		.thumb_func
 160              		.fpu fpv4-sp-d16
 162              	HAL_NAND_DeInit:
 163              	.LFB131:
 229:/home/phong/Documents/thesis/stm32f4/stm-idf/components/stm32f4xx_hal_driver/stm32f4xx_hal_nand.c **** #if (USE_HAL_NAND_REGISTER_CALLBACKS == 1)
 164              		.loc 1 229 0
 165              		.cfi_startproc
 166              		@ args = 0, pretend = 0, frame = 0
 167              		@ frame_needed = 0, uses_anonymous_args = 0
 168              	.LVL11:
 229:/home/phong/Documents/thesis/stm32f4/stm-idf/components/stm32f4xx_hal_driver/stm32f4xx_hal_nand.c **** #if (USE_HAL_NAND_REGISTER_CALLBACKS == 1)
 169              		.loc 1 229 0
ARM GAS  /tmp/ccM6uMDT.s 			page 9


 170 0000 10B5     		push	{r4, lr}
 171              	.LCFI2:
 172              		.cfi_def_cfa_offset 8
 173              		.cfi_offset 4, -8
 174              		.cfi_offset 14, -4
 175 0002 0446     		mov	r4, r0
 240:/home/phong/Documents/thesis/stm32f4/stm-idf/components/stm32f4xx_hal_driver/stm32f4xx_hal_nand.c **** #endif
 176              		.loc 1 240 0
 177 0004 FFF7FEFF 		bl	HAL_NAND_MspDeInit
 178              	.LVL12:
 244:/home/phong/Documents/thesis/stm32f4/stm-idf/components/stm32f4xx_hal_driver/stm32f4xx_hal_nand.c **** 
 179              		.loc 1 244 0
 180 0008 6168     		ldr	r1, [r4, #4]
 181 000a 2068     		ldr	r0, [r4]
 182 000c FFF7FEFF 		bl	FSMC_NAND_DeInit
 183              	.LVL13:
 247:/home/phong/Documents/thesis/stm32f4/stm-idf/components/stm32f4xx_hal_driver/stm32f4xx_hal_nand.c **** 
 184              		.loc 1 247 0
 185 0010 0020     		movs	r0, #0
 186 0012 84F82100 		strb	r0, [r4, #33]
 250:/home/phong/Documents/thesis/stm32f4/stm-idf/components/stm32f4xx_hal_driver/stm32f4xx_hal_nand.c **** 
 187              		.loc 1 250 0
 188 0016 84F82000 		strb	r0, [r4, #32]
 253:/home/phong/Documents/thesis/stm32f4/stm-idf/components/stm32f4xx_hal_driver/stm32f4xx_hal_nand.c **** 
 189              		.loc 1 253 0
 190 001a 10BD     		pop	{r4, pc}
 191              		.cfi_endproc
 192              	.LFE131:
 194              		.section	.text.HAL_NAND_ITCallback,"ax",%progbits
 195              		.align	1
 196              		.weak	HAL_NAND_ITCallback
 197              		.syntax unified
 198              		.thumb
 199              		.thumb_func
 200              		.fpu fpv4-sp-d16
 202              	HAL_NAND_ITCallback:
 203              	.LFB135:
 278:/home/phong/Documents/thesis/stm32f4/stm-idf/components/stm32f4xx_hal_driver/stm32f4xx_hal_nand.c ****   /* Prevent unused argument(s) compilation warning */
 279:/home/phong/Documents/thesis/stm32f4/stm-idf/components/stm32f4xx_hal_driver/stm32f4xx_hal_nand.c ****   UNUSED(hnand);
 280:/home/phong/Documents/thesis/stm32f4/stm-idf/components/stm32f4xx_hal_driver/stm32f4xx_hal_nand.c ****   /* NOTE : This function Should not be modified, when the callback is needed,
 281:/home/phong/Documents/thesis/stm32f4/stm-idf/components/stm32f4xx_hal_driver/stm32f4xx_hal_nand.c ****             the HAL_NAND_MspDeInit could be implemented in the user file
 282:/home/phong/Documents/thesis/stm32f4/stm-idf/components/stm32f4xx_hal_driver/stm32f4xx_hal_nand.c ****    */ 
 283:/home/phong/Documents/thesis/stm32f4/stm-idf/components/stm32f4xx_hal_driver/stm32f4xx_hal_nand.c **** }
 284:/home/phong/Documents/thesis/stm32f4/stm-idf/components/stm32f4xx_hal_driver/stm32f4xx_hal_nand.c **** 
 285:/home/phong/Documents/thesis/stm32f4/stm-idf/components/stm32f4xx_hal_driver/stm32f4xx_hal_nand.c **** 
 286:/home/phong/Documents/thesis/stm32f4/stm-idf/components/stm32f4xx_hal_driver/stm32f4xx_hal_nand.c **** /**
 287:/home/phong/Documents/thesis/stm32f4/stm-idf/components/stm32f4xx_hal_driver/stm32f4xx_hal_nand.c ****   * @brief  This function handles NAND device interrupt request.
 288:/home/phong/Documents/thesis/stm32f4/stm-idf/components/stm32f4xx_hal_driver/stm32f4xx_hal_nand.c ****   * @param  hnand pointer to a NAND_HandleTypeDef structure that contains
 289:/home/phong/Documents/thesis/stm32f4/stm-idf/components/stm32f4xx_hal_driver/stm32f4xx_hal_nand.c ****   *                the configuration information for NAND module.
 290:/home/phong/Documents/thesis/stm32f4/stm-idf/components/stm32f4xx_hal_driver/stm32f4xx_hal_nand.c ****   * @retval HAL status
 291:/home/phong/Documents/thesis/stm32f4/stm-idf/components/stm32f4xx_hal_driver/stm32f4xx_hal_nand.c **** */
 292:/home/phong/Documents/thesis/stm32f4/stm-idf/components/stm32f4xx_hal_driver/stm32f4xx_hal_nand.c **** void HAL_NAND_IRQHandler(NAND_HandleTypeDef *hnand)
 293:/home/phong/Documents/thesis/stm32f4/stm-idf/components/stm32f4xx_hal_driver/stm32f4xx_hal_nand.c **** {
 294:/home/phong/Documents/thesis/stm32f4/stm-idf/components/stm32f4xx_hal_driver/stm32f4xx_hal_nand.c ****   /* Check NAND interrupt Rising edge flag */
 295:/home/phong/Documents/thesis/stm32f4/stm-idf/components/stm32f4xx_hal_driver/stm32f4xx_hal_nand.c ****   if(__FMC_NAND_GET_FLAG(hnand->Instance, hnand->Init.NandBank, FMC_FLAG_RISING_EDGE))
 296:/home/phong/Documents/thesis/stm32f4/stm-idf/components/stm32f4xx_hal_driver/stm32f4xx_hal_nand.c ****   {
 297:/home/phong/Documents/thesis/stm32f4/stm-idf/components/stm32f4xx_hal_driver/stm32f4xx_hal_nand.c ****     /* NAND interrupt callback*/
ARM GAS  /tmp/ccM6uMDT.s 			page 10


 298:/home/phong/Documents/thesis/stm32f4/stm-idf/components/stm32f4xx_hal_driver/stm32f4xx_hal_nand.c **** #if (USE_HAL_NAND_REGISTER_CALLBACKS == 1)
 299:/home/phong/Documents/thesis/stm32f4/stm-idf/components/stm32f4xx_hal_driver/stm32f4xx_hal_nand.c ****     hnand->ItCallback(hnand);
 300:/home/phong/Documents/thesis/stm32f4/stm-idf/components/stm32f4xx_hal_driver/stm32f4xx_hal_nand.c **** #else
 301:/home/phong/Documents/thesis/stm32f4/stm-idf/components/stm32f4xx_hal_driver/stm32f4xx_hal_nand.c ****     HAL_NAND_ITCallback(hnand);
 302:/home/phong/Documents/thesis/stm32f4/stm-idf/components/stm32f4xx_hal_driver/stm32f4xx_hal_nand.c **** #endif
 303:/home/phong/Documents/thesis/stm32f4/stm-idf/components/stm32f4xx_hal_driver/stm32f4xx_hal_nand.c **** 
 304:/home/phong/Documents/thesis/stm32f4/stm-idf/components/stm32f4xx_hal_driver/stm32f4xx_hal_nand.c ****     /* Clear NAND interrupt Rising edge pending bit */
 305:/home/phong/Documents/thesis/stm32f4/stm-idf/components/stm32f4xx_hal_driver/stm32f4xx_hal_nand.c ****     __FMC_NAND_CLEAR_FLAG(hnand->Instance, hnand->Init.NandBank, FMC_FLAG_RISING_EDGE);
 306:/home/phong/Documents/thesis/stm32f4/stm-idf/components/stm32f4xx_hal_driver/stm32f4xx_hal_nand.c ****   }
 307:/home/phong/Documents/thesis/stm32f4/stm-idf/components/stm32f4xx_hal_driver/stm32f4xx_hal_nand.c ****   
 308:/home/phong/Documents/thesis/stm32f4/stm-idf/components/stm32f4xx_hal_driver/stm32f4xx_hal_nand.c ****   /* Check NAND interrupt Level flag */
 309:/home/phong/Documents/thesis/stm32f4/stm-idf/components/stm32f4xx_hal_driver/stm32f4xx_hal_nand.c ****   if(__FMC_NAND_GET_FLAG(hnand->Instance, hnand->Init.NandBank, FMC_FLAG_LEVEL))
 310:/home/phong/Documents/thesis/stm32f4/stm-idf/components/stm32f4xx_hal_driver/stm32f4xx_hal_nand.c ****   {
 311:/home/phong/Documents/thesis/stm32f4/stm-idf/components/stm32f4xx_hal_driver/stm32f4xx_hal_nand.c ****     /* NAND interrupt callback*/
 312:/home/phong/Documents/thesis/stm32f4/stm-idf/components/stm32f4xx_hal_driver/stm32f4xx_hal_nand.c **** #if (USE_HAL_NAND_REGISTER_CALLBACKS == 1)
 313:/home/phong/Documents/thesis/stm32f4/stm-idf/components/stm32f4xx_hal_driver/stm32f4xx_hal_nand.c ****     hnand->ItCallback(hnand);
 314:/home/phong/Documents/thesis/stm32f4/stm-idf/components/stm32f4xx_hal_driver/stm32f4xx_hal_nand.c **** #else
 315:/home/phong/Documents/thesis/stm32f4/stm-idf/components/stm32f4xx_hal_driver/stm32f4xx_hal_nand.c ****     HAL_NAND_ITCallback(hnand);
 316:/home/phong/Documents/thesis/stm32f4/stm-idf/components/stm32f4xx_hal_driver/stm32f4xx_hal_nand.c **** #endif
 317:/home/phong/Documents/thesis/stm32f4/stm-idf/components/stm32f4xx_hal_driver/stm32f4xx_hal_nand.c **** 
 318:/home/phong/Documents/thesis/stm32f4/stm-idf/components/stm32f4xx_hal_driver/stm32f4xx_hal_nand.c ****     /* Clear NAND interrupt Level pending bit */
 319:/home/phong/Documents/thesis/stm32f4/stm-idf/components/stm32f4xx_hal_driver/stm32f4xx_hal_nand.c ****     __FMC_NAND_CLEAR_FLAG(hnand->Instance, hnand->Init.NandBank, FMC_FLAG_LEVEL);
 320:/home/phong/Documents/thesis/stm32f4/stm-idf/components/stm32f4xx_hal_driver/stm32f4xx_hal_nand.c ****   }
 321:/home/phong/Documents/thesis/stm32f4/stm-idf/components/stm32f4xx_hal_driver/stm32f4xx_hal_nand.c **** 
 322:/home/phong/Documents/thesis/stm32f4/stm-idf/components/stm32f4xx_hal_driver/stm32f4xx_hal_nand.c ****   /* Check NAND interrupt Falling edge flag */
 323:/home/phong/Documents/thesis/stm32f4/stm-idf/components/stm32f4xx_hal_driver/stm32f4xx_hal_nand.c ****   if(__FMC_NAND_GET_FLAG(hnand->Instance, hnand->Init.NandBank, FMC_FLAG_FALLING_EDGE))
 324:/home/phong/Documents/thesis/stm32f4/stm-idf/components/stm32f4xx_hal_driver/stm32f4xx_hal_nand.c ****   {
 325:/home/phong/Documents/thesis/stm32f4/stm-idf/components/stm32f4xx_hal_driver/stm32f4xx_hal_nand.c ****     /* NAND interrupt callback*/
 326:/home/phong/Documents/thesis/stm32f4/stm-idf/components/stm32f4xx_hal_driver/stm32f4xx_hal_nand.c **** #if (USE_HAL_NAND_REGISTER_CALLBACKS == 1)
 327:/home/phong/Documents/thesis/stm32f4/stm-idf/components/stm32f4xx_hal_driver/stm32f4xx_hal_nand.c ****     hnand->ItCallback(hnand);
 328:/home/phong/Documents/thesis/stm32f4/stm-idf/components/stm32f4xx_hal_driver/stm32f4xx_hal_nand.c **** #else
 329:/home/phong/Documents/thesis/stm32f4/stm-idf/components/stm32f4xx_hal_driver/stm32f4xx_hal_nand.c ****     HAL_NAND_ITCallback(hnand);
 330:/home/phong/Documents/thesis/stm32f4/stm-idf/components/stm32f4xx_hal_driver/stm32f4xx_hal_nand.c **** #endif
 331:/home/phong/Documents/thesis/stm32f4/stm-idf/components/stm32f4xx_hal_driver/stm32f4xx_hal_nand.c **** 
 332:/home/phong/Documents/thesis/stm32f4/stm-idf/components/stm32f4xx_hal_driver/stm32f4xx_hal_nand.c ****     /* Clear NAND interrupt Falling edge pending bit */
 333:/home/phong/Documents/thesis/stm32f4/stm-idf/components/stm32f4xx_hal_driver/stm32f4xx_hal_nand.c ****     __FMC_NAND_CLEAR_FLAG(hnand->Instance, hnand->Init.NandBank, FMC_FLAG_FALLING_EDGE);
 334:/home/phong/Documents/thesis/stm32f4/stm-idf/components/stm32f4xx_hal_driver/stm32f4xx_hal_nand.c ****   }
 335:/home/phong/Documents/thesis/stm32f4/stm-idf/components/stm32f4xx_hal_driver/stm32f4xx_hal_nand.c ****   
 336:/home/phong/Documents/thesis/stm32f4/stm-idf/components/stm32f4xx_hal_driver/stm32f4xx_hal_nand.c ****   /* Check NAND interrupt FIFO empty flag */
 337:/home/phong/Documents/thesis/stm32f4/stm-idf/components/stm32f4xx_hal_driver/stm32f4xx_hal_nand.c ****   if(__FMC_NAND_GET_FLAG(hnand->Instance, hnand->Init.NandBank, FMC_FLAG_FEMPT))
 338:/home/phong/Documents/thesis/stm32f4/stm-idf/components/stm32f4xx_hal_driver/stm32f4xx_hal_nand.c ****   {
 339:/home/phong/Documents/thesis/stm32f4/stm-idf/components/stm32f4xx_hal_driver/stm32f4xx_hal_nand.c ****     /* NAND interrupt callback*/
 340:/home/phong/Documents/thesis/stm32f4/stm-idf/components/stm32f4xx_hal_driver/stm32f4xx_hal_nand.c **** #if (USE_HAL_NAND_REGISTER_CALLBACKS == 1)
 341:/home/phong/Documents/thesis/stm32f4/stm-idf/components/stm32f4xx_hal_driver/stm32f4xx_hal_nand.c ****     hnand->ItCallback(hnand);
 342:/home/phong/Documents/thesis/stm32f4/stm-idf/components/stm32f4xx_hal_driver/stm32f4xx_hal_nand.c **** #else
 343:/home/phong/Documents/thesis/stm32f4/stm-idf/components/stm32f4xx_hal_driver/stm32f4xx_hal_nand.c ****     HAL_NAND_ITCallback(hnand);
 344:/home/phong/Documents/thesis/stm32f4/stm-idf/components/stm32f4xx_hal_driver/stm32f4xx_hal_nand.c **** #endif
 345:/home/phong/Documents/thesis/stm32f4/stm-idf/components/stm32f4xx_hal_driver/stm32f4xx_hal_nand.c **** 
 346:/home/phong/Documents/thesis/stm32f4/stm-idf/components/stm32f4xx_hal_driver/stm32f4xx_hal_nand.c ****     /* Clear NAND interrupt FIFO empty pending bit */
 347:/home/phong/Documents/thesis/stm32f4/stm-idf/components/stm32f4xx_hal_driver/stm32f4xx_hal_nand.c ****     __FMC_NAND_CLEAR_FLAG(hnand->Instance, hnand->Init.NandBank, FMC_FLAG_FEMPT);
 348:/home/phong/Documents/thesis/stm32f4/stm-idf/components/stm32f4xx_hal_driver/stm32f4xx_hal_nand.c ****   }
 349:/home/phong/Documents/thesis/stm32f4/stm-idf/components/stm32f4xx_hal_driver/stm32f4xx_hal_nand.c **** }
 350:/home/phong/Documents/thesis/stm32f4/stm-idf/components/stm32f4xx_hal_driver/stm32f4xx_hal_nand.c **** 
 351:/home/phong/Documents/thesis/stm32f4/stm-idf/components/stm32f4xx_hal_driver/stm32f4xx_hal_nand.c **** /**
 352:/home/phong/Documents/thesis/stm32f4/stm-idf/components/stm32f4xx_hal_driver/stm32f4xx_hal_nand.c ****   * @brief  NAND interrupt feature callback
 353:/home/phong/Documents/thesis/stm32f4/stm-idf/components/stm32f4xx_hal_driver/stm32f4xx_hal_nand.c ****   * @param  hnand pointer to a NAND_HandleTypeDef structure that contains
 354:/home/phong/Documents/thesis/stm32f4/stm-idf/components/stm32f4xx_hal_driver/stm32f4xx_hal_nand.c ****   *                the configuration information for NAND module.
ARM GAS  /tmp/ccM6uMDT.s 			page 11


 355:/home/phong/Documents/thesis/stm32f4/stm-idf/components/stm32f4xx_hal_driver/stm32f4xx_hal_nand.c ****   * @retval None
 356:/home/phong/Documents/thesis/stm32f4/stm-idf/components/stm32f4xx_hal_driver/stm32f4xx_hal_nand.c ****   */
 357:/home/phong/Documents/thesis/stm32f4/stm-idf/components/stm32f4xx_hal_driver/stm32f4xx_hal_nand.c **** __weak void HAL_NAND_ITCallback(NAND_HandleTypeDef *hnand)
 358:/home/phong/Documents/thesis/stm32f4/stm-idf/components/stm32f4xx_hal_driver/stm32f4xx_hal_nand.c **** {
 204              		.loc 1 358 0
 205              		.cfi_startproc
 206              		@ args = 0, pretend = 0, frame = 0
 207              		@ frame_needed = 0, uses_anonymous_args = 0
 208              		@ link register save eliminated.
 209              	.LVL14:
 210 0000 7047     		bx	lr
 211              		.cfi_endproc
 212              	.LFE135:
 214              		.section	.text.HAL_NAND_IRQHandler,"ax",%progbits
 215              		.align	1
 216              		.global	HAL_NAND_IRQHandler
 217              		.syntax unified
 218              		.thumb
 219              		.thumb_func
 220              		.fpu fpv4-sp-d16
 222              	HAL_NAND_IRQHandler:
 223              	.LFB134:
 293:/home/phong/Documents/thesis/stm32f4/stm-idf/components/stm32f4xx_hal_driver/stm32f4xx_hal_nand.c ****   /* Check NAND interrupt Rising edge flag */
 224              		.loc 1 293 0
 225              		.cfi_startproc
 226              		@ args = 0, pretend = 0, frame = 0
 227              		@ frame_needed = 0, uses_anonymous_args = 0
 228              	.LVL15:
 293:/home/phong/Documents/thesis/stm32f4/stm-idf/components/stm32f4xx_hal_driver/stm32f4xx_hal_nand.c ****   /* Check NAND interrupt Rising edge flag */
 229              		.loc 1 293 0
 230 0000 10B5     		push	{r4, lr}
 231              	.LCFI3:
 232              		.cfi_def_cfa_offset 8
 233              		.cfi_offset 4, -8
 234              		.cfi_offset 14, -4
 235 0002 0446     		mov	r4, r0
 295:/home/phong/Documents/thesis/stm32f4/stm-idf/components/stm32f4xx_hal_driver/stm32f4xx_hal_nand.c ****   {
 236              		.loc 1 295 0
 237 0004 4368     		ldr	r3, [r0, #4]
 238 0006 102B     		cmp	r3, #16
 239 0008 21D0     		beq	.L36
 295:/home/phong/Documents/thesis/stm32f4/stm-idf/components/stm32f4xx_hal_driver/stm32f4xx_hal_nand.c ****   {
 240              		.loc 1 295 0 is_stmt 0 discriminator 2
 241 000a 0368     		ldr	r3, [r0]
 242 000c 5B6A     		ldr	r3, [r3, #36]
 243 000e 03F00103 		and	r3, r3, #1
 244 0012 DBB2     		uxtb	r3, r3
 245              	.L20:
 295:/home/phong/Documents/thesis/stm32f4/stm-idf/components/stm32f4xx_hal_driver/stm32f4xx_hal_nand.c ****   {
 246              		.loc 1 295 0 discriminator 4
 247 0014 0BBB     		cbnz	r3, .L37
 248              	.LVL16:
 249              	.L21:
 309:/home/phong/Documents/thesis/stm32f4/stm-idf/components/stm32f4xx_hal_driver/stm32f4xx_hal_nand.c ****   {
 250              		.loc 1 309 0 is_stmt 1
 251 0016 6368     		ldr	r3, [r4, #4]
 252 0018 102B     		cmp	r3, #16
ARM GAS  /tmp/ccM6uMDT.s 			page 12


 253 001a 30D0     		beq	.L38
 309:/home/phong/Documents/thesis/stm32f4/stm-idf/components/stm32f4xx_hal_driver/stm32f4xx_hal_nand.c ****   {
 254              		.loc 1 309 0 is_stmt 0 discriminator 2
 255 001c 2368     		ldr	r3, [r4]
 256 001e 5B6A     		ldr	r3, [r3, #36]
 257 0020 C3F34003 		ubfx	r3, r3, #1, #1
 258              	.L24:
 309:/home/phong/Documents/thesis/stm32f4/stm-idf/components/stm32f4xx_hal_driver/stm32f4xx_hal_nand.c ****   {
 259              		.loc 1 309 0 discriminator 4
 260 0024 002B     		cmp	r3, #0
 261 0026 2FD1     		bne	.L39
 262              	.L25:
 323:/home/phong/Documents/thesis/stm32f4/stm-idf/components/stm32f4xx_hal_driver/stm32f4xx_hal_nand.c ****   {
 263              		.loc 1 323 0 is_stmt 1
 264 0028 6368     		ldr	r3, [r4, #4]
 265 002a 102B     		cmp	r3, #16
 266 002c 3ED0     		beq	.L40
 323:/home/phong/Documents/thesis/stm32f4/stm-idf/components/stm32f4xx_hal_driver/stm32f4xx_hal_nand.c ****   {
 267              		.loc 1 323 0 is_stmt 0 discriminator 2
 268 002e 2368     		ldr	r3, [r4]
 269 0030 5B6A     		ldr	r3, [r3, #36]
 270 0032 C3F38003 		ubfx	r3, r3, #2, #1
 271              	.L28:
 323:/home/phong/Documents/thesis/stm32f4/stm-idf/components/stm32f4xx_hal_driver/stm32f4xx_hal_nand.c ****   {
 272              		.loc 1 323 0 discriminator 4
 273 0036 002B     		cmp	r3, #0
 274 0038 3DD1     		bne	.L41
 275              	.L29:
 337:/home/phong/Documents/thesis/stm32f4/stm-idf/components/stm32f4xx_hal_driver/stm32f4xx_hal_nand.c ****   {
 276              		.loc 1 337 0 is_stmt 1
 277 003a 6368     		ldr	r3, [r4, #4]
 278 003c 102B     		cmp	r3, #16
 279 003e 4CD0     		beq	.L42
 337:/home/phong/Documents/thesis/stm32f4/stm-idf/components/stm32f4xx_hal_driver/stm32f4xx_hal_nand.c ****   {
 280              		.loc 1 337 0 is_stmt 0 discriminator 2
 281 0040 2368     		ldr	r3, [r4]
 282 0042 5B6A     		ldr	r3, [r3, #36]
 283 0044 C3F38013 		ubfx	r3, r3, #6, #1
 284              	.L32:
 337:/home/phong/Documents/thesis/stm32f4/stm-idf/components/stm32f4xx_hal_driver/stm32f4xx_hal_nand.c ****   {
 285              		.loc 1 337 0 discriminator 4
 286 0048 002B     		cmp	r3, #0
 287 004a 4BD1     		bne	.L43
 288              	.L18:
 289 004c 10BD     		pop	{r4, pc}
 290              	.LVL17:
 291              	.L36:
 295:/home/phong/Documents/thesis/stm32f4/stm-idf/components/stm32f4xx_hal_driver/stm32f4xx_hal_nand.c ****   {
 292              		.loc 1 295 0 is_stmt 1 discriminator 1
 293 004e 0368     		ldr	r3, [r0]
 294 0050 5B68     		ldr	r3, [r3, #4]
 295 0052 03F00103 		and	r3, r3, #1
 296 0056 DBB2     		uxtb	r3, r3
 297 0058 DCE7     		b	.L20
 298              	.L37:
 301:/home/phong/Documents/thesis/stm32f4/stm-idf/components/stm32f4xx_hal_driver/stm32f4xx_hal_nand.c **** #endif
 299              		.loc 1 301 0
ARM GAS  /tmp/ccM6uMDT.s 			page 13


 300 005a 2046     		mov	r0, r4
 301              	.LVL18:
 302 005c FFF7FEFF 		bl	HAL_NAND_ITCallback
 303              	.LVL19:
 305:/home/phong/Documents/thesis/stm32f4/stm-idf/components/stm32f4xx_hal_driver/stm32f4xx_hal_nand.c ****   }
 304              		.loc 1 305 0
 305 0060 6368     		ldr	r3, [r4, #4]
 306 0062 102B     		cmp	r3, #16
 307 0064 05D0     		beq	.L44
 305:/home/phong/Documents/thesis/stm32f4/stm-idf/components/stm32f4xx_hal_driver/stm32f4xx_hal_nand.c ****   }
 308              		.loc 1 305 0 is_stmt 0 discriminator 2
 309 0066 2268     		ldr	r2, [r4]
 310 0068 536A     		ldr	r3, [r2, #36]
 311 006a 23F00103 		bic	r3, r3, #1
 312 006e 5362     		str	r3, [r2, #36]
 313 0070 D1E7     		b	.L21
 314              	.L44:
 305:/home/phong/Documents/thesis/stm32f4/stm-idf/components/stm32f4xx_hal_driver/stm32f4xx_hal_nand.c ****   }
 315              		.loc 1 305 0 discriminator 1
 316 0072 2268     		ldr	r2, [r4]
 317 0074 5368     		ldr	r3, [r2, #4]
 318 0076 23F00103 		bic	r3, r3, #1
 319 007a 5360     		str	r3, [r2, #4]
 320 007c CBE7     		b	.L21
 321              	.L38:
 309:/home/phong/Documents/thesis/stm32f4/stm-idf/components/stm32f4xx_hal_driver/stm32f4xx_hal_nand.c ****   {
 322              		.loc 1 309 0 is_stmt 1 discriminator 1
 323 007e 2368     		ldr	r3, [r4]
 324 0080 5B68     		ldr	r3, [r3, #4]
 325 0082 C3F34003 		ubfx	r3, r3, #1, #1
 326 0086 CDE7     		b	.L24
 327              	.L39:
 315:/home/phong/Documents/thesis/stm32f4/stm-idf/components/stm32f4xx_hal_driver/stm32f4xx_hal_nand.c **** #endif
 328              		.loc 1 315 0
 329 0088 2046     		mov	r0, r4
 330 008a FFF7FEFF 		bl	HAL_NAND_ITCallback
 331              	.LVL20:
 319:/home/phong/Documents/thesis/stm32f4/stm-idf/components/stm32f4xx_hal_driver/stm32f4xx_hal_nand.c ****   }
 332              		.loc 1 319 0
 333 008e 6368     		ldr	r3, [r4, #4]
 334 0090 102B     		cmp	r3, #16
 335 0092 05D0     		beq	.L45
 319:/home/phong/Documents/thesis/stm32f4/stm-idf/components/stm32f4xx_hal_driver/stm32f4xx_hal_nand.c ****   }
 336              		.loc 1 319 0 is_stmt 0 discriminator 2
 337 0094 2268     		ldr	r2, [r4]
 338 0096 536A     		ldr	r3, [r2, #36]
 339 0098 23F00203 		bic	r3, r3, #2
 340 009c 5362     		str	r3, [r2, #36]
 341 009e C3E7     		b	.L25
 342              	.L45:
 319:/home/phong/Documents/thesis/stm32f4/stm-idf/components/stm32f4xx_hal_driver/stm32f4xx_hal_nand.c ****   }
 343              		.loc 1 319 0 discriminator 1
 344 00a0 2268     		ldr	r2, [r4]
 345 00a2 5368     		ldr	r3, [r2, #4]
 346 00a4 23F00203 		bic	r3, r3, #2
 347 00a8 5360     		str	r3, [r2, #4]
 348 00aa BDE7     		b	.L25
ARM GAS  /tmp/ccM6uMDT.s 			page 14


 349              	.L40:
 323:/home/phong/Documents/thesis/stm32f4/stm-idf/components/stm32f4xx_hal_driver/stm32f4xx_hal_nand.c ****   {
 350              		.loc 1 323 0 is_stmt 1 discriminator 1
 351 00ac 2368     		ldr	r3, [r4]
 352 00ae 5B68     		ldr	r3, [r3, #4]
 353 00b0 C3F38003 		ubfx	r3, r3, #2, #1
 354 00b4 BFE7     		b	.L28
 355              	.L41:
 329:/home/phong/Documents/thesis/stm32f4/stm-idf/components/stm32f4xx_hal_driver/stm32f4xx_hal_nand.c **** #endif
 356              		.loc 1 329 0
 357 00b6 2046     		mov	r0, r4
 358 00b8 FFF7FEFF 		bl	HAL_NAND_ITCallback
 359              	.LVL21:
 333:/home/phong/Documents/thesis/stm32f4/stm-idf/components/stm32f4xx_hal_driver/stm32f4xx_hal_nand.c ****   }
 360              		.loc 1 333 0
 361 00bc 6368     		ldr	r3, [r4, #4]
 362 00be 102B     		cmp	r3, #16
 363 00c0 05D0     		beq	.L46
 333:/home/phong/Documents/thesis/stm32f4/stm-idf/components/stm32f4xx_hal_driver/stm32f4xx_hal_nand.c ****   }
 364              		.loc 1 333 0 is_stmt 0 discriminator 2
 365 00c2 2268     		ldr	r2, [r4]
 366 00c4 536A     		ldr	r3, [r2, #36]
 367 00c6 23F00403 		bic	r3, r3, #4
 368 00ca 5362     		str	r3, [r2, #36]
 369 00cc B5E7     		b	.L29
 370              	.L46:
 333:/home/phong/Documents/thesis/stm32f4/stm-idf/components/stm32f4xx_hal_driver/stm32f4xx_hal_nand.c ****   }
 371              		.loc 1 333 0 discriminator 1
 372 00ce 2268     		ldr	r2, [r4]
 373 00d0 5368     		ldr	r3, [r2, #4]
 374 00d2 23F00403 		bic	r3, r3, #4
 375 00d6 5360     		str	r3, [r2, #4]
 376 00d8 AFE7     		b	.L29
 377              	.L42:
 337:/home/phong/Documents/thesis/stm32f4/stm-idf/components/stm32f4xx_hal_driver/stm32f4xx_hal_nand.c ****   {
 378              		.loc 1 337 0 is_stmt 1 discriminator 1
 379 00da 2368     		ldr	r3, [r4]
 380 00dc 5B68     		ldr	r3, [r3, #4]
 381 00de C3F38013 		ubfx	r3, r3, #6, #1
 382 00e2 B1E7     		b	.L32
 383              	.L43:
 343:/home/phong/Documents/thesis/stm32f4/stm-idf/components/stm32f4xx_hal_driver/stm32f4xx_hal_nand.c **** #endif
 384              		.loc 1 343 0
 385 00e4 2046     		mov	r0, r4
 386 00e6 FFF7FEFF 		bl	HAL_NAND_ITCallback
 387              	.LVL22:
 347:/home/phong/Documents/thesis/stm32f4/stm-idf/components/stm32f4xx_hal_driver/stm32f4xx_hal_nand.c ****   }
 388              		.loc 1 347 0
 389 00ea 6368     		ldr	r3, [r4, #4]
 390 00ec 102B     		cmp	r3, #16
 391 00ee 05D0     		beq	.L47
 347:/home/phong/Documents/thesis/stm32f4/stm-idf/components/stm32f4xx_hal_driver/stm32f4xx_hal_nand.c ****   }
 392              		.loc 1 347 0 is_stmt 0 discriminator 2
 393 00f0 2268     		ldr	r2, [r4]
 394 00f2 536A     		ldr	r3, [r2, #36]
 395 00f4 23F04003 		bic	r3, r3, #64
 396 00f8 5362     		str	r3, [r2, #36]
ARM GAS  /tmp/ccM6uMDT.s 			page 15


 349:/home/phong/Documents/thesis/stm32f4/stm-idf/components/stm32f4xx_hal_driver/stm32f4xx_hal_nand.c **** 
 397              		.loc 1 349 0 is_stmt 1 discriminator 2
 398 00fa A7E7     		b	.L18
 399              	.L47:
 347:/home/phong/Documents/thesis/stm32f4/stm-idf/components/stm32f4xx_hal_driver/stm32f4xx_hal_nand.c ****   }
 400              		.loc 1 347 0 discriminator 1
 401 00fc 2268     		ldr	r2, [r4]
 402 00fe 5368     		ldr	r3, [r2, #4]
 403 0100 23F04003 		bic	r3, r3, #64
 404 0104 5360     		str	r3, [r2, #4]
 405 0106 10BD     		pop	{r4, pc}
 406              		.cfi_endproc
 407              	.LFE134:
 409              		.section	.text.HAL_NAND_Read_ID,"ax",%progbits
 410              		.align	1
 411              		.global	HAL_NAND_Read_ID
 412              		.syntax unified
 413              		.thumb
 414              		.thumb_func
 415              		.fpu fpv4-sp-d16
 417              	HAL_NAND_Read_ID:
 418              	.LFB136:
 359:/home/phong/Documents/thesis/stm32f4/stm-idf/components/stm32f4xx_hal_driver/stm32f4xx_hal_nand.c ****   /* Prevent unused argument(s) compilation warning */
 360:/home/phong/Documents/thesis/stm32f4/stm-idf/components/stm32f4xx_hal_driver/stm32f4xx_hal_nand.c ****   UNUSED(hnand);
 361:/home/phong/Documents/thesis/stm32f4/stm-idf/components/stm32f4xx_hal_driver/stm32f4xx_hal_nand.c ****   /* NOTE : This function Should not be modified, when the callback is needed,
 362:/home/phong/Documents/thesis/stm32f4/stm-idf/components/stm32f4xx_hal_driver/stm32f4xx_hal_nand.c ****             the HAL_NAND_ITCallback could be implemented in the user file
 363:/home/phong/Documents/thesis/stm32f4/stm-idf/components/stm32f4xx_hal_driver/stm32f4xx_hal_nand.c ****    */
 364:/home/phong/Documents/thesis/stm32f4/stm-idf/components/stm32f4xx_hal_driver/stm32f4xx_hal_nand.c **** }
 365:/home/phong/Documents/thesis/stm32f4/stm-idf/components/stm32f4xx_hal_driver/stm32f4xx_hal_nand.c ****  
 366:/home/phong/Documents/thesis/stm32f4/stm-idf/components/stm32f4xx_hal_driver/stm32f4xx_hal_nand.c **** /**
 367:/home/phong/Documents/thesis/stm32f4/stm-idf/components/stm32f4xx_hal_driver/stm32f4xx_hal_nand.c ****   * @}
 368:/home/phong/Documents/thesis/stm32f4/stm-idf/components/stm32f4xx_hal_driver/stm32f4xx_hal_nand.c ****   */
 369:/home/phong/Documents/thesis/stm32f4/stm-idf/components/stm32f4xx_hal_driver/stm32f4xx_hal_nand.c ****   
 370:/home/phong/Documents/thesis/stm32f4/stm-idf/components/stm32f4xx_hal_driver/stm32f4xx_hal_nand.c **** /** @defgroup NAND_Exported_Functions_Group2 Input and Output functions 
 371:/home/phong/Documents/thesis/stm32f4/stm-idf/components/stm32f4xx_hal_driver/stm32f4xx_hal_nand.c ****   * @brief    Input Output and memory control functions 
 372:/home/phong/Documents/thesis/stm32f4/stm-idf/components/stm32f4xx_hal_driver/stm32f4xx_hal_nand.c ****   *
 373:/home/phong/Documents/thesis/stm32f4/stm-idf/components/stm32f4xx_hal_driver/stm32f4xx_hal_nand.c ****   @verbatim    
 374:/home/phong/Documents/thesis/stm32f4/stm-idf/components/stm32f4xx_hal_driver/stm32f4xx_hal_nand.c ****   ==============================================================================
 375:/home/phong/Documents/thesis/stm32f4/stm-idf/components/stm32f4xx_hal_driver/stm32f4xx_hal_nand.c ****                     ##### NAND Input and Output functions #####
 376:/home/phong/Documents/thesis/stm32f4/stm-idf/components/stm32f4xx_hal_driver/stm32f4xx_hal_nand.c ****   ==============================================================================
 377:/home/phong/Documents/thesis/stm32f4/stm-idf/components/stm32f4xx_hal_driver/stm32f4xx_hal_nand.c ****   [..]  
 378:/home/phong/Documents/thesis/stm32f4/stm-idf/components/stm32f4xx_hal_driver/stm32f4xx_hal_nand.c ****     This section provides functions allowing to use and control the NAND 
 379:/home/phong/Documents/thesis/stm32f4/stm-idf/components/stm32f4xx_hal_driver/stm32f4xx_hal_nand.c ****     memory
 380:/home/phong/Documents/thesis/stm32f4/stm-idf/components/stm32f4xx_hal_driver/stm32f4xx_hal_nand.c ****   
 381:/home/phong/Documents/thesis/stm32f4/stm-idf/components/stm32f4xx_hal_driver/stm32f4xx_hal_nand.c **** @endverbatim
 382:/home/phong/Documents/thesis/stm32f4/stm-idf/components/stm32f4xx_hal_driver/stm32f4xx_hal_nand.c ****   * @{
 383:/home/phong/Documents/thesis/stm32f4/stm-idf/components/stm32f4xx_hal_driver/stm32f4xx_hal_nand.c ****   */
 384:/home/phong/Documents/thesis/stm32f4/stm-idf/components/stm32f4xx_hal_driver/stm32f4xx_hal_nand.c **** 
 385:/home/phong/Documents/thesis/stm32f4/stm-idf/components/stm32f4xx_hal_driver/stm32f4xx_hal_nand.c **** /**
 386:/home/phong/Documents/thesis/stm32f4/stm-idf/components/stm32f4xx_hal_driver/stm32f4xx_hal_nand.c ****   * @brief  Read the NAND memory electronic signature
 387:/home/phong/Documents/thesis/stm32f4/stm-idf/components/stm32f4xx_hal_driver/stm32f4xx_hal_nand.c ****   * @param  hnand pointer to a NAND_HandleTypeDef structure that contains
 388:/home/phong/Documents/thesis/stm32f4/stm-idf/components/stm32f4xx_hal_driver/stm32f4xx_hal_nand.c ****   *                the configuration information for NAND module.
 389:/home/phong/Documents/thesis/stm32f4/stm-idf/components/stm32f4xx_hal_driver/stm32f4xx_hal_nand.c ****   * @param  pNAND_ID NAND ID structure
 390:/home/phong/Documents/thesis/stm32f4/stm-idf/components/stm32f4xx_hal_driver/stm32f4xx_hal_nand.c ****   * @retval HAL status
 391:/home/phong/Documents/thesis/stm32f4/stm-idf/components/stm32f4xx_hal_driver/stm32f4xx_hal_nand.c ****   */
 392:/home/phong/Documents/thesis/stm32f4/stm-idf/components/stm32f4xx_hal_driver/stm32f4xx_hal_nand.c **** HAL_StatusTypeDef HAL_NAND_Read_ID(NAND_HandleTypeDef *hnand, NAND_IDTypeDef *pNAND_ID)
 393:/home/phong/Documents/thesis/stm32f4/stm-idf/components/stm32f4xx_hal_driver/stm32f4xx_hal_nand.c **** {
ARM GAS  /tmp/ccM6uMDT.s 			page 16


 419              		.loc 1 393 0
 420              		.cfi_startproc
 421              		@ args = 0, pretend = 0, frame = 8
 422              		@ frame_needed = 0, uses_anonymous_args = 0
 423              		@ link register save eliminated.
 424              	.LVL23:
 425 0000 10B4     		push	{r4}
 426              	.LCFI4:
 427              		.cfi_def_cfa_offset 4
 428              		.cfi_offset 4, -4
 429 0002 83B0     		sub	sp, sp, #12
 430              	.LCFI5:
 431              		.cfi_def_cfa_offset 16
 394:/home/phong/Documents/thesis/stm32f4/stm-idf/components/stm32f4xx_hal_driver/stm32f4xx_hal_nand.c ****   __IO uint32_t data = 0U;
 432              		.loc 1 394 0
 433 0004 0023     		movs	r3, #0
 434 0006 0193     		str	r3, [sp, #4]
 395:/home/phong/Documents/thesis/stm32f4/stm-idf/components/stm32f4xx_hal_driver/stm32f4xx_hal_nand.c ****   __IO uint32_t data1 = 0U;
 435              		.loc 1 395 0
 436 0008 0093     		str	r3, [sp]
 437              	.LVL24:
 396:/home/phong/Documents/thesis/stm32f4/stm-idf/components/stm32f4xx_hal_driver/stm32f4xx_hal_nand.c ****   uint32_t deviceaddress = 0U;
 397:/home/phong/Documents/thesis/stm32f4/stm-idf/components/stm32f4xx_hal_driver/stm32f4xx_hal_nand.c **** 
 398:/home/phong/Documents/thesis/stm32f4/stm-idf/components/stm32f4xx_hal_driver/stm32f4xx_hal_nand.c ****   /* Process Locked */
 399:/home/phong/Documents/thesis/stm32f4/stm-idf/components/stm32f4xx_hal_driver/stm32f4xx_hal_nand.c ****   __HAL_LOCK(hnand);  
 438              		.loc 1 399 0
 439 000a 90F82030 		ldrb	r3, [r0, #32]	@ zero_extendqisi2
 440 000e 012B     		cmp	r3, #1
 441 0010 44D0     		beq	.L53
 442              		.loc 1 399 0 is_stmt 0 discriminator 2
 443 0012 0123     		movs	r3, #1
 444 0014 80F82030 		strb	r3, [r0, #32]
 400:/home/phong/Documents/thesis/stm32f4/stm-idf/components/stm32f4xx_hal_driver/stm32f4xx_hal_nand.c ****   
 401:/home/phong/Documents/thesis/stm32f4/stm-idf/components/stm32f4xx_hal_driver/stm32f4xx_hal_nand.c ****   /* Check the NAND controller state */
 402:/home/phong/Documents/thesis/stm32f4/stm-idf/components/stm32f4xx_hal_driver/stm32f4xx_hal_nand.c ****   if(hnand->State == HAL_NAND_STATE_BUSY)
 445              		.loc 1 402 0 is_stmt 1 discriminator 2
 446 0018 90F82130 		ldrb	r3, [r0, #33]	@ zero_extendqisi2
 447 001c DBB2     		uxtb	r3, r3
 448 001e 022B     		cmp	r3, #2
 449 0020 41D0     		beq	.L54
 403:/home/phong/Documents/thesis/stm32f4/stm-idf/components/stm32f4xx_hal_driver/stm32f4xx_hal_nand.c ****   {
 404:/home/phong/Documents/thesis/stm32f4/stm-idf/components/stm32f4xx_hal_driver/stm32f4xx_hal_nand.c ****      return HAL_BUSY;
 405:/home/phong/Documents/thesis/stm32f4/stm-idf/components/stm32f4xx_hal_driver/stm32f4xx_hal_nand.c ****   }
 406:/home/phong/Documents/thesis/stm32f4/stm-idf/components/stm32f4xx_hal_driver/stm32f4xx_hal_nand.c ****   
 407:/home/phong/Documents/thesis/stm32f4/stm-idf/components/stm32f4xx_hal_driver/stm32f4xx_hal_nand.c ****   /* Identify the device address */
 408:/home/phong/Documents/thesis/stm32f4/stm-idf/components/stm32f4xx_hal_driver/stm32f4xx_hal_nand.c ****   if(hnand->Init.NandBank == FMC_NAND_BANK2)
 450              		.loc 1 408 0
 451 0022 4368     		ldr	r3, [r0, #4]
 452 0024 102B     		cmp	r3, #16
 453 0026 25D0     		beq	.L57
 409:/home/phong/Documents/thesis/stm32f4/stm-idf/components/stm32f4xx_hal_driver/stm32f4xx_hal_nand.c ****   {
 410:/home/phong/Documents/thesis/stm32f4/stm-idf/components/stm32f4xx_hal_driver/stm32f4xx_hal_nand.c ****     deviceaddress = NAND_DEVICE1;
 411:/home/phong/Documents/thesis/stm32f4/stm-idf/components/stm32f4xx_hal_driver/stm32f4xx_hal_nand.c ****   }
 412:/home/phong/Documents/thesis/stm32f4/stm-idf/components/stm32f4xx_hal_driver/stm32f4xx_hal_nand.c ****   else
 413:/home/phong/Documents/thesis/stm32f4/stm-idf/components/stm32f4xx_hal_driver/stm32f4xx_hal_nand.c ****   {
 414:/home/phong/Documents/thesis/stm32f4/stm-idf/components/stm32f4xx_hal_driver/stm32f4xx_hal_nand.c ****     deviceaddress = NAND_DEVICE2;
 454              		.loc 1 414 0
ARM GAS  /tmp/ccM6uMDT.s 			page 17


 455 0028 4FF00043 		mov	r3, #-2147483648
 456              	.L50:
 457              	.LVL25:
 415:/home/phong/Documents/thesis/stm32f4/stm-idf/components/stm32f4xx_hal_driver/stm32f4xx_hal_nand.c ****   }
 416:/home/phong/Documents/thesis/stm32f4/stm-idf/components/stm32f4xx_hal_driver/stm32f4xx_hal_nand.c ****   
 417:/home/phong/Documents/thesis/stm32f4/stm-idf/components/stm32f4xx_hal_driver/stm32f4xx_hal_nand.c ****   /* Update the NAND controller state */ 
 418:/home/phong/Documents/thesis/stm32f4/stm-idf/components/stm32f4xx_hal_driver/stm32f4xx_hal_nand.c ****   hnand->State = HAL_NAND_STATE_BUSY;
 458              		.loc 1 418 0
 459 002c 0222     		movs	r2, #2
 460 002e 80F82120 		strb	r2, [r0, #33]
 419:/home/phong/Documents/thesis/stm32f4/stm-idf/components/stm32f4xx_hal_driver/stm32f4xx_hal_nand.c ****   
 420:/home/phong/Documents/thesis/stm32f4/stm-idf/components/stm32f4xx_hal_driver/stm32f4xx_hal_nand.c ****   /* Send Read ID command sequence */   
 421:/home/phong/Documents/thesis/stm32f4/stm-idf/components/stm32f4xx_hal_driver/stm32f4xx_hal_nand.c ****   *(__IO uint8_t *)((uint32_t)(deviceaddress | CMD_AREA))  = NAND_CMD_READID;
 461              		.loc 1 421 0
 462 0032 43F48032 		orr	r2, r3, #65536
 463 0036 9024     		movs	r4, #144
 464 0038 1470     		strb	r4, [r2]
 422:/home/phong/Documents/thesis/stm32f4/stm-idf/components/stm32f4xx_hal_driver/stm32f4xx_hal_nand.c ****   *(__IO uint8_t *)((uint32_t)(deviceaddress | ADDR_AREA)) = 0x00;
 465              		.loc 1 422 0
 466 003a 43F40032 		orr	r2, r3, #131072
 467 003e 0024     		movs	r4, #0
 468 0040 1470     		strb	r4, [r2]
 423:/home/phong/Documents/thesis/stm32f4/stm-idf/components/stm32f4xx_hal_driver/stm32f4xx_hal_nand.c **** 
 424:/home/phong/Documents/thesis/stm32f4/stm-idf/components/stm32f4xx_hal_driver/stm32f4xx_hal_nand.c ****   /* Read the electronic signature from NAND flash */
 425:/home/phong/Documents/thesis/stm32f4/stm-idf/components/stm32f4xx_hal_driver/stm32f4xx_hal_nand.c **** #ifdef FSMC_PCR2_PWID
 426:/home/phong/Documents/thesis/stm32f4/stm-idf/components/stm32f4xx_hal_driver/stm32f4xx_hal_nand.c ****   if (hnand->Init.MemoryDataWidth == FSMC_NAND_PCC_MEM_BUS_WIDTH_8)
 469              		.loc 1 426 0
 470 0042 C268     		ldr	r2, [r0, #12]
 471 0044 CAB9     		cbnz	r2, .L51
 427:/home/phong/Documents/thesis/stm32f4/stm-idf/components/stm32f4xx_hal_driver/stm32f4xx_hal_nand.c **** #else /* FMC_PCR2_PWID is defined */
 428:/home/phong/Documents/thesis/stm32f4/stm-idf/components/stm32f4xx_hal_driver/stm32f4xx_hal_nand.c ****   if (hnand->Init.MemoryDataWidth == FMC_NAND_PCC_MEM_BUS_WIDTH_8)
 429:/home/phong/Documents/thesis/stm32f4/stm-idf/components/stm32f4xx_hal_driver/stm32f4xx_hal_nand.c **** #endif
 430:/home/phong/Documents/thesis/stm32f4/stm-idf/components/stm32f4xx_hal_driver/stm32f4xx_hal_nand.c ****   {
 431:/home/phong/Documents/thesis/stm32f4/stm-idf/components/stm32f4xx_hal_driver/stm32f4xx_hal_nand.c ****     data = *(__IO uint32_t *)deviceaddress;
 472              		.loc 1 431 0
 473 0046 1B68     		ldr	r3, [r3]
 474              	.LVL26:
 475 0048 0193     		str	r3, [sp, #4]
 432:/home/phong/Documents/thesis/stm32f4/stm-idf/components/stm32f4xx_hal_driver/stm32f4xx_hal_nand.c **** 
 433:/home/phong/Documents/thesis/stm32f4/stm-idf/components/stm32f4xx_hal_driver/stm32f4xx_hal_nand.c ****     /* Return the data read */
 434:/home/phong/Documents/thesis/stm32f4/stm-idf/components/stm32f4xx_hal_driver/stm32f4xx_hal_nand.c ****     pNAND_ID->Maker_Id   = ADDR_1ST_CYCLE(data);
 476              		.loc 1 434 0
 477 004a 019B     		ldr	r3, [sp, #4]
 478 004c 0B70     		strb	r3, [r1]
 435:/home/phong/Documents/thesis/stm32f4/stm-idf/components/stm32f4xx_hal_driver/stm32f4xx_hal_nand.c ****     pNAND_ID->Device_Id  = ADDR_2ND_CYCLE(data);
 479              		.loc 1 435 0
 480 004e 019B     		ldr	r3, [sp, #4]
 481 0050 C3F30723 		ubfx	r3, r3, #8, #8
 482 0054 4B70     		strb	r3, [r1, #1]
 436:/home/phong/Documents/thesis/stm32f4/stm-idf/components/stm32f4xx_hal_driver/stm32f4xx_hal_nand.c ****     pNAND_ID->Third_Id   = ADDR_3RD_CYCLE(data);
 483              		.loc 1 436 0
 484 0056 019B     		ldr	r3, [sp, #4]
 485 0058 C3F30743 		ubfx	r3, r3, #16, #8
 486 005c 8B70     		strb	r3, [r1, #2]
 437:/home/phong/Documents/thesis/stm32f4/stm-idf/components/stm32f4xx_hal_driver/stm32f4xx_hal_nand.c ****     pNAND_ID->Fourth_Id  = ADDR_4TH_CYCLE(data);
 487              		.loc 1 437 0
 488 005e 019B     		ldr	r3, [sp, #4]
ARM GAS  /tmp/ccM6uMDT.s 			page 18


 489 0060 1B0E     		lsrs	r3, r3, #24
 490 0062 CB70     		strb	r3, [r1, #3]
 491              	.L52:
 438:/home/phong/Documents/thesis/stm32f4/stm-idf/components/stm32f4xx_hal_driver/stm32f4xx_hal_nand.c ****   }
 439:/home/phong/Documents/thesis/stm32f4/stm-idf/components/stm32f4xx_hal_driver/stm32f4xx_hal_nand.c ****   else
 440:/home/phong/Documents/thesis/stm32f4/stm-idf/components/stm32f4xx_hal_driver/stm32f4xx_hal_nand.c ****   {
 441:/home/phong/Documents/thesis/stm32f4/stm-idf/components/stm32f4xx_hal_driver/stm32f4xx_hal_nand.c ****     data = *(__IO uint32_t *)deviceaddress;
 442:/home/phong/Documents/thesis/stm32f4/stm-idf/components/stm32f4xx_hal_driver/stm32f4xx_hal_nand.c ****     data1 = *((__IO uint32_t *)deviceaddress + 4U);
 443:/home/phong/Documents/thesis/stm32f4/stm-idf/components/stm32f4xx_hal_driver/stm32f4xx_hal_nand.c ****     
 444:/home/phong/Documents/thesis/stm32f4/stm-idf/components/stm32f4xx_hal_driver/stm32f4xx_hal_nand.c ****     /* Return the data read */
 445:/home/phong/Documents/thesis/stm32f4/stm-idf/components/stm32f4xx_hal_driver/stm32f4xx_hal_nand.c ****     pNAND_ID->Maker_Id   = ADDR_1ST_CYCLE(data);
 446:/home/phong/Documents/thesis/stm32f4/stm-idf/components/stm32f4xx_hal_driver/stm32f4xx_hal_nand.c ****     pNAND_ID->Device_Id  = ADDR_3RD_CYCLE(data);
 447:/home/phong/Documents/thesis/stm32f4/stm-idf/components/stm32f4xx_hal_driver/stm32f4xx_hal_nand.c ****     pNAND_ID->Third_Id   = ADDR_1ST_CYCLE(data1);
 448:/home/phong/Documents/thesis/stm32f4/stm-idf/components/stm32f4xx_hal_driver/stm32f4xx_hal_nand.c ****     pNAND_ID->Fourth_Id  = ADDR_3RD_CYCLE(data1);
 449:/home/phong/Documents/thesis/stm32f4/stm-idf/components/stm32f4xx_hal_driver/stm32f4xx_hal_nand.c ****   }
 450:/home/phong/Documents/thesis/stm32f4/stm-idf/components/stm32f4xx_hal_driver/stm32f4xx_hal_nand.c ****   
 451:/home/phong/Documents/thesis/stm32f4/stm-idf/components/stm32f4xx_hal_driver/stm32f4xx_hal_nand.c ****   /* Update the NAND controller state */ 
 452:/home/phong/Documents/thesis/stm32f4/stm-idf/components/stm32f4xx_hal_driver/stm32f4xx_hal_nand.c ****   hnand->State = HAL_NAND_STATE_READY;
 492              		.loc 1 452 0
 493 0064 0123     		movs	r3, #1
 494 0066 80F82130 		strb	r3, [r0, #33]
 453:/home/phong/Documents/thesis/stm32f4/stm-idf/components/stm32f4xx_hal_driver/stm32f4xx_hal_nand.c ****   
 454:/home/phong/Documents/thesis/stm32f4/stm-idf/components/stm32f4xx_hal_driver/stm32f4xx_hal_nand.c ****   /* Process unlocked */
 455:/home/phong/Documents/thesis/stm32f4/stm-idf/components/stm32f4xx_hal_driver/stm32f4xx_hal_nand.c ****   __HAL_UNLOCK(hnand);
 495              		.loc 1 455 0
 496 006a 0023     		movs	r3, #0
 497 006c 80F82030 		strb	r3, [r0, #32]
 456:/home/phong/Documents/thesis/stm32f4/stm-idf/components/stm32f4xx_hal_driver/stm32f4xx_hal_nand.c ****    
 457:/home/phong/Documents/thesis/stm32f4/stm-idf/components/stm32f4xx_hal_driver/stm32f4xx_hal_nand.c ****   return HAL_OK;
 498              		.loc 1 457 0
 499 0070 1846     		mov	r0, r3
 500              	.LVL27:
 501 0072 14E0     		b	.L49
 502              	.LVL28:
 503              	.L57:
 410:/home/phong/Documents/thesis/stm32f4/stm-idf/components/stm32f4xx_hal_driver/stm32f4xx_hal_nand.c ****   }
 504              		.loc 1 410 0
 505 0074 4FF0E043 		mov	r3, #1879048192
 506 0078 D8E7     		b	.L50
 507              	.LVL29:
 508              	.L51:
 441:/home/phong/Documents/thesis/stm32f4/stm-idf/components/stm32f4xx_hal_driver/stm32f4xx_hal_nand.c ****     data1 = *((__IO uint32_t *)deviceaddress + 4U);
 509              		.loc 1 441 0
 510 007a 1A68     		ldr	r2, [r3]
 511 007c 0192     		str	r2, [sp, #4]
 442:/home/phong/Documents/thesis/stm32f4/stm-idf/components/stm32f4xx_hal_driver/stm32f4xx_hal_nand.c ****     
 512              		.loc 1 442 0
 513 007e 1B69     		ldr	r3, [r3, #16]
 514              	.LVL30:
 515 0080 0093     		str	r3, [sp]
 445:/home/phong/Documents/thesis/stm32f4/stm-idf/components/stm32f4xx_hal_driver/stm32f4xx_hal_nand.c ****     pNAND_ID->Device_Id  = ADDR_3RD_CYCLE(data);
 516              		.loc 1 445 0
 517 0082 019B     		ldr	r3, [sp, #4]
 518 0084 0B70     		strb	r3, [r1]
 446:/home/phong/Documents/thesis/stm32f4/stm-idf/components/stm32f4xx_hal_driver/stm32f4xx_hal_nand.c ****     pNAND_ID->Third_Id   = ADDR_1ST_CYCLE(data1);
 519              		.loc 1 446 0
 520 0086 019B     		ldr	r3, [sp, #4]
ARM GAS  /tmp/ccM6uMDT.s 			page 19


 521 0088 C3F30743 		ubfx	r3, r3, #16, #8
 522 008c 4B70     		strb	r3, [r1, #1]
 447:/home/phong/Documents/thesis/stm32f4/stm-idf/components/stm32f4xx_hal_driver/stm32f4xx_hal_nand.c ****     pNAND_ID->Fourth_Id  = ADDR_3RD_CYCLE(data1);
 523              		.loc 1 447 0
 524 008e 009B     		ldr	r3, [sp]
 525 0090 8B70     		strb	r3, [r1, #2]
 448:/home/phong/Documents/thesis/stm32f4/stm-idf/components/stm32f4xx_hal_driver/stm32f4xx_hal_nand.c ****   }
 526              		.loc 1 448 0
 527 0092 009B     		ldr	r3, [sp]
 528 0094 C3F30743 		ubfx	r3, r3, #16, #8
 529 0098 CB70     		strb	r3, [r1, #3]
 530 009a E3E7     		b	.L52
 531              	.LVL31:
 532              	.L53:
 399:/home/phong/Documents/thesis/stm32f4/stm-idf/components/stm32f4xx_hal_driver/stm32f4xx_hal_nand.c ****   
 533              		.loc 1 399 0
 534 009c 0220     		movs	r0, #2
 535              	.LVL32:
 536              	.L49:
 458:/home/phong/Documents/thesis/stm32f4/stm-idf/components/stm32f4xx_hal_driver/stm32f4xx_hal_nand.c **** }
 537              		.loc 1 458 0
 538 009e 03B0     		add	sp, sp, #12
 539              	.LCFI6:
 540              		.cfi_remember_state
 541              		.cfi_def_cfa_offset 4
 542              		@ sp needed
 543 00a0 5DF8044B 		ldr	r4, [sp], #4
 544              	.LCFI7:
 545              		.cfi_restore 4
 546              		.cfi_def_cfa_offset 0
 547 00a4 7047     		bx	lr
 548              	.LVL33:
 549              	.L54:
 550              	.LCFI8:
 551              		.cfi_restore_state
 404:/home/phong/Documents/thesis/stm32f4/stm-idf/components/stm32f4xx_hal_driver/stm32f4xx_hal_nand.c ****   }
 552              		.loc 1 404 0
 553 00a6 0220     		movs	r0, #2
 554              	.LVL34:
 555 00a8 F9E7     		b	.L49
 556              		.cfi_endproc
 557              	.LFE136:
 559              		.section	.text.HAL_NAND_Reset,"ax",%progbits
 560              		.align	1
 561              		.global	HAL_NAND_Reset
 562              		.syntax unified
 563              		.thumb
 564              		.thumb_func
 565              		.fpu fpv4-sp-d16
 567              	HAL_NAND_Reset:
 568              	.LFB137:
 459:/home/phong/Documents/thesis/stm32f4/stm-idf/components/stm32f4xx_hal_driver/stm32f4xx_hal_nand.c **** 
 460:/home/phong/Documents/thesis/stm32f4/stm-idf/components/stm32f4xx_hal_driver/stm32f4xx_hal_nand.c **** /**
 461:/home/phong/Documents/thesis/stm32f4/stm-idf/components/stm32f4xx_hal_driver/stm32f4xx_hal_nand.c ****   * @brief  NAND memory reset
 462:/home/phong/Documents/thesis/stm32f4/stm-idf/components/stm32f4xx_hal_driver/stm32f4xx_hal_nand.c ****   * @param  hnand pointer to a NAND_HandleTypeDef structure that contains
 463:/home/phong/Documents/thesis/stm32f4/stm-idf/components/stm32f4xx_hal_driver/stm32f4xx_hal_nand.c ****   *                the configuration information for NAND module.
 464:/home/phong/Documents/thesis/stm32f4/stm-idf/components/stm32f4xx_hal_driver/stm32f4xx_hal_nand.c ****   * @retval HAL status
ARM GAS  /tmp/ccM6uMDT.s 			page 20


 465:/home/phong/Documents/thesis/stm32f4/stm-idf/components/stm32f4xx_hal_driver/stm32f4xx_hal_nand.c ****   */
 466:/home/phong/Documents/thesis/stm32f4/stm-idf/components/stm32f4xx_hal_driver/stm32f4xx_hal_nand.c **** HAL_StatusTypeDef HAL_NAND_Reset(NAND_HandleTypeDef *hnand)
 467:/home/phong/Documents/thesis/stm32f4/stm-idf/components/stm32f4xx_hal_driver/stm32f4xx_hal_nand.c **** {
 569              		.loc 1 467 0
 570              		.cfi_startproc
 571              		@ args = 0, pretend = 0, frame = 0
 572              		@ frame_needed = 0, uses_anonymous_args = 0
 573              		@ link register save eliminated.
 574              	.LVL35:
 468:/home/phong/Documents/thesis/stm32f4/stm-idf/components/stm32f4xx_hal_driver/stm32f4xx_hal_nand.c ****   uint32_t deviceaddress = 0U;
 469:/home/phong/Documents/thesis/stm32f4/stm-idf/components/stm32f4xx_hal_driver/stm32f4xx_hal_nand.c **** 
 470:/home/phong/Documents/thesis/stm32f4/stm-idf/components/stm32f4xx_hal_driver/stm32f4xx_hal_nand.c ****   /* Process Locked */
 471:/home/phong/Documents/thesis/stm32f4/stm-idf/components/stm32f4xx_hal_driver/stm32f4xx_hal_nand.c ****   __HAL_LOCK(hnand);
 575              		.loc 1 471 0
 576 0000 90F82030 		ldrb	r3, [r0, #32]	@ zero_extendqisi2
 577 0004 012B     		cmp	r3, #1
 578 0006 1ED0     		beq	.L61
 579              		.loc 1 471 0 is_stmt 0 discriminator 2
 580 0008 0123     		movs	r3, #1
 581 000a 80F82030 		strb	r3, [r0, #32]
 472:/home/phong/Documents/thesis/stm32f4/stm-idf/components/stm32f4xx_hal_driver/stm32f4xx_hal_nand.c **** 
 473:/home/phong/Documents/thesis/stm32f4/stm-idf/components/stm32f4xx_hal_driver/stm32f4xx_hal_nand.c ****   /* Check the NAND controller state */
 474:/home/phong/Documents/thesis/stm32f4/stm-idf/components/stm32f4xx_hal_driver/stm32f4xx_hal_nand.c ****   if(hnand->State == HAL_NAND_STATE_BUSY)
 582              		.loc 1 474 0 is_stmt 1 discriminator 2
 583 000e 90F82130 		ldrb	r3, [r0, #33]	@ zero_extendqisi2
 584 0012 DBB2     		uxtb	r3, r3
 585 0014 022B     		cmp	r3, #2
 586 0016 18D0     		beq	.L62
 475:/home/phong/Documents/thesis/stm32f4/stm-idf/components/stm32f4xx_hal_driver/stm32f4xx_hal_nand.c ****   {
 476:/home/phong/Documents/thesis/stm32f4/stm-idf/components/stm32f4xx_hal_driver/stm32f4xx_hal_nand.c ****      return HAL_BUSY;
 477:/home/phong/Documents/thesis/stm32f4/stm-idf/components/stm32f4xx_hal_driver/stm32f4xx_hal_nand.c ****   }
 478:/home/phong/Documents/thesis/stm32f4/stm-idf/components/stm32f4xx_hal_driver/stm32f4xx_hal_nand.c **** 
 479:/home/phong/Documents/thesis/stm32f4/stm-idf/components/stm32f4xx_hal_driver/stm32f4xx_hal_nand.c ****   /* Identify the device address */
 480:/home/phong/Documents/thesis/stm32f4/stm-idf/components/stm32f4xx_hal_driver/stm32f4xx_hal_nand.c ****   if(hnand->Init.NandBank == FMC_NAND_BANK2)
 587              		.loc 1 480 0
 588 0018 4368     		ldr	r3, [r0, #4]
 589 001a 102B     		cmp	r3, #16
 590 001c 10D0     		beq	.L64
 481:/home/phong/Documents/thesis/stm32f4/stm-idf/components/stm32f4xx_hal_driver/stm32f4xx_hal_nand.c ****   {
 482:/home/phong/Documents/thesis/stm32f4/stm-idf/components/stm32f4xx_hal_driver/stm32f4xx_hal_nand.c ****     deviceaddress = NAND_DEVICE1;
 483:/home/phong/Documents/thesis/stm32f4/stm-idf/components/stm32f4xx_hal_driver/stm32f4xx_hal_nand.c ****   }
 484:/home/phong/Documents/thesis/stm32f4/stm-idf/components/stm32f4xx_hal_driver/stm32f4xx_hal_nand.c ****   else
 485:/home/phong/Documents/thesis/stm32f4/stm-idf/components/stm32f4xx_hal_driver/stm32f4xx_hal_nand.c ****   {
 486:/home/phong/Documents/thesis/stm32f4/stm-idf/components/stm32f4xx_hal_driver/stm32f4xx_hal_nand.c ****     deviceaddress = NAND_DEVICE2;
 591              		.loc 1 486 0
 592 001e 4FF00043 		mov	r3, #-2147483648
 593              	.L60:
 594              	.LVL36:
 487:/home/phong/Documents/thesis/stm32f4/stm-idf/components/stm32f4xx_hal_driver/stm32f4xx_hal_nand.c ****   }  
 488:/home/phong/Documents/thesis/stm32f4/stm-idf/components/stm32f4xx_hal_driver/stm32f4xx_hal_nand.c ****   
 489:/home/phong/Documents/thesis/stm32f4/stm-idf/components/stm32f4xx_hal_driver/stm32f4xx_hal_nand.c ****   /* Update the NAND controller state */
 490:/home/phong/Documents/thesis/stm32f4/stm-idf/components/stm32f4xx_hal_driver/stm32f4xx_hal_nand.c ****   hnand->State = HAL_NAND_STATE_BUSY; 
 595              		.loc 1 490 0
 596 0022 0222     		movs	r2, #2
 597 0024 80F82120 		strb	r2, [r0, #33]
 491:/home/phong/Documents/thesis/stm32f4/stm-idf/components/stm32f4xx_hal_driver/stm32f4xx_hal_nand.c ****   
 492:/home/phong/Documents/thesis/stm32f4/stm-idf/components/stm32f4xx_hal_driver/stm32f4xx_hal_nand.c ****   /* Send NAND reset command */  
ARM GAS  /tmp/ccM6uMDT.s 			page 21


 493:/home/phong/Documents/thesis/stm32f4/stm-idf/components/stm32f4xx_hal_driver/stm32f4xx_hal_nand.c ****   *(__IO uint8_t *)((uint32_t)(deviceaddress | CMD_AREA)) = 0xFF;
 598              		.loc 1 493 0
 599 0028 43F48033 		orr	r3, r3, #65536
 600              	.LVL37:
 601 002c FF22     		movs	r2, #255
 602 002e 1A70     		strb	r2, [r3]
 494:/home/phong/Documents/thesis/stm32f4/stm-idf/components/stm32f4xx_hal_driver/stm32f4xx_hal_nand.c **** 
 495:/home/phong/Documents/thesis/stm32f4/stm-idf/components/stm32f4xx_hal_driver/stm32f4xx_hal_nand.c **** 
 496:/home/phong/Documents/thesis/stm32f4/stm-idf/components/stm32f4xx_hal_driver/stm32f4xx_hal_nand.c ****   /* Update the NAND controller state */
 497:/home/phong/Documents/thesis/stm32f4/stm-idf/components/stm32f4xx_hal_driver/stm32f4xx_hal_nand.c ****   hnand->State = HAL_NAND_STATE_READY;
 603              		.loc 1 497 0
 604 0030 0123     		movs	r3, #1
 605 0032 80F82130 		strb	r3, [r0, #33]
 498:/home/phong/Documents/thesis/stm32f4/stm-idf/components/stm32f4xx_hal_driver/stm32f4xx_hal_nand.c ****   
 499:/home/phong/Documents/thesis/stm32f4/stm-idf/components/stm32f4xx_hal_driver/stm32f4xx_hal_nand.c ****   /* Process unlocked */
 500:/home/phong/Documents/thesis/stm32f4/stm-idf/components/stm32f4xx_hal_driver/stm32f4xx_hal_nand.c ****   __HAL_UNLOCK(hnand);
 606              		.loc 1 500 0
 607 0036 0023     		movs	r3, #0
 608 0038 80F82030 		strb	r3, [r0, #32]
 501:/home/phong/Documents/thesis/stm32f4/stm-idf/components/stm32f4xx_hal_driver/stm32f4xx_hal_nand.c **** 
 502:/home/phong/Documents/thesis/stm32f4/stm-idf/components/stm32f4xx_hal_driver/stm32f4xx_hal_nand.c ****   return HAL_OK;
 609              		.loc 1 502 0
 610 003c 1846     		mov	r0, r3
 611              	.LVL38:
 612 003e 7047     		bx	lr
 613              	.LVL39:
 614              	.L64:
 482:/home/phong/Documents/thesis/stm32f4/stm-idf/components/stm32f4xx_hal_driver/stm32f4xx_hal_nand.c ****   }
 615              		.loc 1 482 0
 616 0040 4FF0E043 		mov	r3, #1879048192
 617 0044 EDE7     		b	.L60
 618              	.L61:
 471:/home/phong/Documents/thesis/stm32f4/stm-idf/components/stm32f4xx_hal_driver/stm32f4xx_hal_nand.c **** 
 619              		.loc 1 471 0
 620 0046 0220     		movs	r0, #2
 621              	.LVL40:
 622 0048 7047     		bx	lr
 623              	.LVL41:
 624              	.L62:
 476:/home/phong/Documents/thesis/stm32f4/stm-idf/components/stm32f4xx_hal_driver/stm32f4xx_hal_nand.c ****   }
 625              		.loc 1 476 0
 626 004a 0220     		movs	r0, #2
 627              	.LVL42:
 503:/home/phong/Documents/thesis/stm32f4/stm-idf/components/stm32f4xx_hal_driver/stm32f4xx_hal_nand.c **** 
 504:/home/phong/Documents/thesis/stm32f4/stm-idf/components/stm32f4xx_hal_driver/stm32f4xx_hal_nand.c **** }
 628              		.loc 1 504 0
 629 004c 7047     		bx	lr
 630              		.cfi_endproc
 631              	.LFE137:
 633              		.section	.text.HAL_NAND_ConfigDevice,"ax",%progbits
 634              		.align	1
 635              		.global	HAL_NAND_ConfigDevice
 636              		.syntax unified
 637              		.thumb
 638              		.thumb_func
 639              		.fpu fpv4-sp-d16
 641              	HAL_NAND_ConfigDevice:
ARM GAS  /tmp/ccM6uMDT.s 			page 22


 642              	.LFB138:
 505:/home/phong/Documents/thesis/stm32f4/stm-idf/components/stm32f4xx_hal_driver/stm32f4xx_hal_nand.c **** 
 506:/home/phong/Documents/thesis/stm32f4/stm-idf/components/stm32f4xx_hal_driver/stm32f4xx_hal_nand.c **** /**
 507:/home/phong/Documents/thesis/stm32f4/stm-idf/components/stm32f4xx_hal_driver/stm32f4xx_hal_nand.c ****   * @brief  Configure the device: Enter the physical parameters of the device
 508:/home/phong/Documents/thesis/stm32f4/stm-idf/components/stm32f4xx_hal_driver/stm32f4xx_hal_nand.c ****   * @param  hnand pointer to a NAND_HandleTypeDef structure that contains
 509:/home/phong/Documents/thesis/stm32f4/stm-idf/components/stm32f4xx_hal_driver/stm32f4xx_hal_nand.c ****   *                the configuration information for NAND module.
 510:/home/phong/Documents/thesis/stm32f4/stm-idf/components/stm32f4xx_hal_driver/stm32f4xx_hal_nand.c ****   * @param  pDeviceConfig  pointer to NAND_DeviceConfigTypeDef structure
 511:/home/phong/Documents/thesis/stm32f4/stm-idf/components/stm32f4xx_hal_driver/stm32f4xx_hal_nand.c ****   * @retval HAL status
 512:/home/phong/Documents/thesis/stm32f4/stm-idf/components/stm32f4xx_hal_driver/stm32f4xx_hal_nand.c ****   */
 513:/home/phong/Documents/thesis/stm32f4/stm-idf/components/stm32f4xx_hal_driver/stm32f4xx_hal_nand.c **** HAL_StatusTypeDef  HAL_NAND_ConfigDevice(NAND_HandleTypeDef *hnand, NAND_DeviceConfigTypeDef *pDevi
 514:/home/phong/Documents/thesis/stm32f4/stm-idf/components/stm32f4xx_hal_driver/stm32f4xx_hal_nand.c **** {
 643              		.loc 1 514 0
 644              		.cfi_startproc
 645              		@ args = 0, pretend = 0, frame = 0
 646              		@ frame_needed = 0, uses_anonymous_args = 0
 647              		@ link register save eliminated.
 648              	.LVL43:
 515:/home/phong/Documents/thesis/stm32f4/stm-idf/components/stm32f4xx_hal_driver/stm32f4xx_hal_nand.c ****   hnand->Config.PageSize           = pDeviceConfig->PageSize;
 649              		.loc 1 515 0
 650 0000 0B68     		ldr	r3, [r1]
 651 0002 4362     		str	r3, [r0, #36]
 516:/home/phong/Documents/thesis/stm32f4/stm-idf/components/stm32f4xx_hal_driver/stm32f4xx_hal_nand.c ****   hnand->Config.SpareAreaSize      = pDeviceConfig->SpareAreaSize;
 652              		.loc 1 516 0
 653 0004 4B68     		ldr	r3, [r1, #4]
 654 0006 8362     		str	r3, [r0, #40]
 517:/home/phong/Documents/thesis/stm32f4/stm-idf/components/stm32f4xx_hal_driver/stm32f4xx_hal_nand.c ****   hnand->Config.BlockSize          = pDeviceConfig->BlockSize;
 655              		.loc 1 517 0
 656 0008 8B68     		ldr	r3, [r1, #8]
 657 000a C362     		str	r3, [r0, #44]
 518:/home/phong/Documents/thesis/stm32f4/stm-idf/components/stm32f4xx_hal_driver/stm32f4xx_hal_nand.c ****   hnand->Config.BlockNbr           = pDeviceConfig->BlockNbr;
 658              		.loc 1 518 0
 659 000c CB68     		ldr	r3, [r1, #12]
 660 000e 0363     		str	r3, [r0, #48]
 519:/home/phong/Documents/thesis/stm32f4/stm-idf/components/stm32f4xx_hal_driver/stm32f4xx_hal_nand.c ****   hnand->Config.PlaneSize          = pDeviceConfig->PlaneSize;
 661              		.loc 1 519 0
 662 0010 4B69     		ldr	r3, [r1, #20]
 663 0012 8363     		str	r3, [r0, #56]
 520:/home/phong/Documents/thesis/stm32f4/stm-idf/components/stm32f4xx_hal_driver/stm32f4xx_hal_nand.c ****   hnand->Config.PlaneNbr           = pDeviceConfig->PlaneNbr;
 664              		.loc 1 520 0
 665 0014 0B69     		ldr	r3, [r1, #16]
 666 0016 4363     		str	r3, [r0, #52]
 521:/home/phong/Documents/thesis/stm32f4/stm-idf/components/stm32f4xx_hal_driver/stm32f4xx_hal_nand.c ****   hnand->Config.ExtraCommandEnable = pDeviceConfig->ExtraCommandEnable;
 667              		.loc 1 521 0
 668 0018 0B7E     		ldrb	r3, [r1, #24]	@ zero_extendqisi2
 669 001a 80F83C30 		strb	r3, [r0, #60]
 522:/home/phong/Documents/thesis/stm32f4/stm-idf/components/stm32f4xx_hal_driver/stm32f4xx_hal_nand.c ****   
 523:/home/phong/Documents/thesis/stm32f4/stm-idf/components/stm32f4xx_hal_driver/stm32f4xx_hal_nand.c ****   return HAL_OK;
 524:/home/phong/Documents/thesis/stm32f4/stm-idf/components/stm32f4xx_hal_driver/stm32f4xx_hal_nand.c **** }
 670              		.loc 1 524 0
 671 001e 0020     		movs	r0, #0
 672              	.LVL44:
 673 0020 7047     		bx	lr
 674              		.cfi_endproc
 675              	.LFE138:
 677              		.section	.text.HAL_NAND_Read_Status,"ax",%progbits
 678              		.align	1
 679              		.global	HAL_NAND_Read_Status
ARM GAS  /tmp/ccM6uMDT.s 			page 23


 680              		.syntax unified
 681              		.thumb
 682              		.thumb_func
 683              		.fpu fpv4-sp-d16
 685              	HAL_NAND_Read_Status:
 686              	.LFB148:
 525:/home/phong/Documents/thesis/stm32f4/stm-idf/components/stm32f4xx_hal_driver/stm32f4xx_hal_nand.c ****   
 526:/home/phong/Documents/thesis/stm32f4/stm-idf/components/stm32f4xx_hal_driver/stm32f4xx_hal_nand.c **** /**
 527:/home/phong/Documents/thesis/stm32f4/stm-idf/components/stm32f4xx_hal_driver/stm32f4xx_hal_nand.c ****   * @brief  Read Page(s) from NAND memory block (8-bits addressing)
 528:/home/phong/Documents/thesis/stm32f4/stm-idf/components/stm32f4xx_hal_driver/stm32f4xx_hal_nand.c ****   * @param  hnand pointer to a NAND_HandleTypeDef structure that contains
 529:/home/phong/Documents/thesis/stm32f4/stm-idf/components/stm32f4xx_hal_driver/stm32f4xx_hal_nand.c ****   *                the configuration information for NAND module.
 530:/home/phong/Documents/thesis/stm32f4/stm-idf/components/stm32f4xx_hal_driver/stm32f4xx_hal_nand.c ****   * @param  pAddress  pointer to NAND address structure
 531:/home/phong/Documents/thesis/stm32f4/stm-idf/components/stm32f4xx_hal_driver/stm32f4xx_hal_nand.c ****   * @param  pBuffer  pointer to destination read buffer
 532:/home/phong/Documents/thesis/stm32f4/stm-idf/components/stm32f4xx_hal_driver/stm32f4xx_hal_nand.c ****   * @param  NumPageToRead  number of pages to read from block 
 533:/home/phong/Documents/thesis/stm32f4/stm-idf/components/stm32f4xx_hal_driver/stm32f4xx_hal_nand.c ****   * @retval HAL status
 534:/home/phong/Documents/thesis/stm32f4/stm-idf/components/stm32f4xx_hal_driver/stm32f4xx_hal_nand.c ****   */
 535:/home/phong/Documents/thesis/stm32f4/stm-idf/components/stm32f4xx_hal_driver/stm32f4xx_hal_nand.c **** HAL_StatusTypeDef HAL_NAND_Read_Page_8b(NAND_HandleTypeDef *hnand, NAND_AddressTypeDef *pAddress, u
 536:/home/phong/Documents/thesis/stm32f4/stm-idf/components/stm32f4xx_hal_driver/stm32f4xx_hal_nand.c **** {   
 537:/home/phong/Documents/thesis/stm32f4/stm-idf/components/stm32f4xx_hal_driver/stm32f4xx_hal_nand.c ****   __IO uint32_t index  = 0U;
 538:/home/phong/Documents/thesis/stm32f4/stm-idf/components/stm32f4xx_hal_driver/stm32f4xx_hal_nand.c ****   uint32_t tickstart = 0U;
 539:/home/phong/Documents/thesis/stm32f4/stm-idf/components/stm32f4xx_hal_driver/stm32f4xx_hal_nand.c ****   uint32_t deviceaddress = 0U, size = 0U, numPagesRead = 0U, nandaddress = 0U;
 540:/home/phong/Documents/thesis/stm32f4/stm-idf/components/stm32f4xx_hal_driver/stm32f4xx_hal_nand.c ****   
 541:/home/phong/Documents/thesis/stm32f4/stm-idf/components/stm32f4xx_hal_driver/stm32f4xx_hal_nand.c ****   /* Process Locked */
 542:/home/phong/Documents/thesis/stm32f4/stm-idf/components/stm32f4xx_hal_driver/stm32f4xx_hal_nand.c ****   __HAL_LOCK(hnand); 
 543:/home/phong/Documents/thesis/stm32f4/stm-idf/components/stm32f4xx_hal_driver/stm32f4xx_hal_nand.c ****   
 544:/home/phong/Documents/thesis/stm32f4/stm-idf/components/stm32f4xx_hal_driver/stm32f4xx_hal_nand.c ****   /* Check the NAND controller state */
 545:/home/phong/Documents/thesis/stm32f4/stm-idf/components/stm32f4xx_hal_driver/stm32f4xx_hal_nand.c ****   if(hnand->State == HAL_NAND_STATE_BUSY)
 546:/home/phong/Documents/thesis/stm32f4/stm-idf/components/stm32f4xx_hal_driver/stm32f4xx_hal_nand.c ****   {
 547:/home/phong/Documents/thesis/stm32f4/stm-idf/components/stm32f4xx_hal_driver/stm32f4xx_hal_nand.c ****      return HAL_BUSY;
 548:/home/phong/Documents/thesis/stm32f4/stm-idf/components/stm32f4xx_hal_driver/stm32f4xx_hal_nand.c ****   }
 549:/home/phong/Documents/thesis/stm32f4/stm-idf/components/stm32f4xx_hal_driver/stm32f4xx_hal_nand.c ****   
 550:/home/phong/Documents/thesis/stm32f4/stm-idf/components/stm32f4xx_hal_driver/stm32f4xx_hal_nand.c ****   /* Identify the device address */
 551:/home/phong/Documents/thesis/stm32f4/stm-idf/components/stm32f4xx_hal_driver/stm32f4xx_hal_nand.c ****   if(hnand->Init.NandBank == FMC_NAND_BANK2)
 552:/home/phong/Documents/thesis/stm32f4/stm-idf/components/stm32f4xx_hal_driver/stm32f4xx_hal_nand.c ****   {
 553:/home/phong/Documents/thesis/stm32f4/stm-idf/components/stm32f4xx_hal_driver/stm32f4xx_hal_nand.c ****     deviceaddress = NAND_DEVICE1;
 554:/home/phong/Documents/thesis/stm32f4/stm-idf/components/stm32f4xx_hal_driver/stm32f4xx_hal_nand.c ****   }
 555:/home/phong/Documents/thesis/stm32f4/stm-idf/components/stm32f4xx_hal_driver/stm32f4xx_hal_nand.c ****   else
 556:/home/phong/Documents/thesis/stm32f4/stm-idf/components/stm32f4xx_hal_driver/stm32f4xx_hal_nand.c ****   {
 557:/home/phong/Documents/thesis/stm32f4/stm-idf/components/stm32f4xx_hal_driver/stm32f4xx_hal_nand.c ****     deviceaddress = NAND_DEVICE2;
 558:/home/phong/Documents/thesis/stm32f4/stm-idf/components/stm32f4xx_hal_driver/stm32f4xx_hal_nand.c ****   }
 559:/home/phong/Documents/thesis/stm32f4/stm-idf/components/stm32f4xx_hal_driver/stm32f4xx_hal_nand.c **** 
 560:/home/phong/Documents/thesis/stm32f4/stm-idf/components/stm32f4xx_hal_driver/stm32f4xx_hal_nand.c ****   /* Update the NAND controller state */
 561:/home/phong/Documents/thesis/stm32f4/stm-idf/components/stm32f4xx_hal_driver/stm32f4xx_hal_nand.c ****   hnand->State = HAL_NAND_STATE_BUSY;
 562:/home/phong/Documents/thesis/stm32f4/stm-idf/components/stm32f4xx_hal_driver/stm32f4xx_hal_nand.c ****   
 563:/home/phong/Documents/thesis/stm32f4/stm-idf/components/stm32f4xx_hal_driver/stm32f4xx_hal_nand.c ****   /* NAND raw address calculation */
 564:/home/phong/Documents/thesis/stm32f4/stm-idf/components/stm32f4xx_hal_driver/stm32f4xx_hal_nand.c ****   nandaddress = ARRAY_ADDRESS(pAddress, hnand);
 565:/home/phong/Documents/thesis/stm32f4/stm-idf/components/stm32f4xx_hal_driver/stm32f4xx_hal_nand.c **** 
 566:/home/phong/Documents/thesis/stm32f4/stm-idf/components/stm32f4xx_hal_driver/stm32f4xx_hal_nand.c ****   /* Page(s) read loop */  
 567:/home/phong/Documents/thesis/stm32f4/stm-idf/components/stm32f4xx_hal_driver/stm32f4xx_hal_nand.c ****   while((NumPageToRead != 0U) && (nandaddress < ((hnand->Config.BlockSize) * (hnand->Config.BlockNb
 568:/home/phong/Documents/thesis/stm32f4/stm-idf/components/stm32f4xx_hal_driver/stm32f4xx_hal_nand.c ****   {
 569:/home/phong/Documents/thesis/stm32f4/stm-idf/components/stm32f4xx_hal_driver/stm32f4xx_hal_nand.c ****     /* update the buffer size */
 570:/home/phong/Documents/thesis/stm32f4/stm-idf/components/stm32f4xx_hal_driver/stm32f4xx_hal_nand.c ****     size = (hnand->Config.PageSize) + ((hnand->Config.PageSize) * numPagesRead);
 571:/home/phong/Documents/thesis/stm32f4/stm-idf/components/stm32f4xx_hal_driver/stm32f4xx_hal_nand.c ****     
 572:/home/phong/Documents/thesis/stm32f4/stm-idf/components/stm32f4xx_hal_driver/stm32f4xx_hal_nand.c ****     /* Send read page command sequence */
 573:/home/phong/Documents/thesis/stm32f4/stm-idf/components/stm32f4xx_hal_driver/stm32f4xx_hal_nand.c ****     *(__IO uint8_t *)((uint32_t)(deviceaddress | CMD_AREA)) = NAND_CMD_AREA_A;
 574:/home/phong/Documents/thesis/stm32f4/stm-idf/components/stm32f4xx_hal_driver/stm32f4xx_hal_nand.c ****    
 575:/home/phong/Documents/thesis/stm32f4/stm-idf/components/stm32f4xx_hal_driver/stm32f4xx_hal_nand.c ****     /* Cards with page size <= 512 bytes */
ARM GAS  /tmp/ccM6uMDT.s 			page 24


 576:/home/phong/Documents/thesis/stm32f4/stm-idf/components/stm32f4xx_hal_driver/stm32f4xx_hal_nand.c ****     if((hnand->Config.PageSize) <= 512U)
 577:/home/phong/Documents/thesis/stm32f4/stm-idf/components/stm32f4xx_hal_driver/stm32f4xx_hal_nand.c ****     {
 578:/home/phong/Documents/thesis/stm32f4/stm-idf/components/stm32f4xx_hal_driver/stm32f4xx_hal_nand.c ****       if (((hnand->Config.BlockSize)*(hnand->Config.BlockNbr)) <= 65535U)
 579:/home/phong/Documents/thesis/stm32f4/stm-idf/components/stm32f4xx_hal_driver/stm32f4xx_hal_nand.c ****       {
 580:/home/phong/Documents/thesis/stm32f4/stm-idf/components/stm32f4xx_hal_driver/stm32f4xx_hal_nand.c ****         *(__IO uint8_t *)((uint32_t)(deviceaddress | ADDR_AREA)) = 0x00;
 581:/home/phong/Documents/thesis/stm32f4/stm-idf/components/stm32f4xx_hal_driver/stm32f4xx_hal_nand.c ****         *(__IO uint8_t *)((uint32_t)(deviceaddress | ADDR_AREA)) = ADDR_1ST_CYCLE(nandaddress);
 582:/home/phong/Documents/thesis/stm32f4/stm-idf/components/stm32f4xx_hal_driver/stm32f4xx_hal_nand.c ****         *(__IO uint8_t *)((uint32_t)(deviceaddress | ADDR_AREA)) = ADDR_2ND_CYCLE(nandaddress);
 583:/home/phong/Documents/thesis/stm32f4/stm-idf/components/stm32f4xx_hal_driver/stm32f4xx_hal_nand.c ****       }
 584:/home/phong/Documents/thesis/stm32f4/stm-idf/components/stm32f4xx_hal_driver/stm32f4xx_hal_nand.c ****       else /* ((hnand->Config.BlockSize)*(hnand->Config.BlockNbr)) > 65535 */
 585:/home/phong/Documents/thesis/stm32f4/stm-idf/components/stm32f4xx_hal_driver/stm32f4xx_hal_nand.c ****       {
 586:/home/phong/Documents/thesis/stm32f4/stm-idf/components/stm32f4xx_hal_driver/stm32f4xx_hal_nand.c ****         *(__IO uint8_t *)((uint32_t)(deviceaddress | ADDR_AREA)) = 0x00;
 587:/home/phong/Documents/thesis/stm32f4/stm-idf/components/stm32f4xx_hal_driver/stm32f4xx_hal_nand.c ****         *(__IO uint8_t *)((uint32_t)(deviceaddress | ADDR_AREA)) = ADDR_1ST_CYCLE(nandaddress);
 588:/home/phong/Documents/thesis/stm32f4/stm-idf/components/stm32f4xx_hal_driver/stm32f4xx_hal_nand.c ****         *(__IO uint8_t *)((uint32_t)(deviceaddress | ADDR_AREA)) = ADDR_2ND_CYCLE(nandaddress);
 589:/home/phong/Documents/thesis/stm32f4/stm-idf/components/stm32f4xx_hal_driver/stm32f4xx_hal_nand.c ****         *(__IO uint8_t *)((uint32_t)(deviceaddress | ADDR_AREA)) = ADDR_3RD_CYCLE(nandaddress);
 590:/home/phong/Documents/thesis/stm32f4/stm-idf/components/stm32f4xx_hal_driver/stm32f4xx_hal_nand.c ****       }
 591:/home/phong/Documents/thesis/stm32f4/stm-idf/components/stm32f4xx_hal_driver/stm32f4xx_hal_nand.c ****     }
 592:/home/phong/Documents/thesis/stm32f4/stm-idf/components/stm32f4xx_hal_driver/stm32f4xx_hal_nand.c ****     else /* (hnand->Config.PageSize) > 512 */
 593:/home/phong/Documents/thesis/stm32f4/stm-idf/components/stm32f4xx_hal_driver/stm32f4xx_hal_nand.c ****     {
 594:/home/phong/Documents/thesis/stm32f4/stm-idf/components/stm32f4xx_hal_driver/stm32f4xx_hal_nand.c ****       if (((hnand->Config.BlockSize)*(hnand->Config.BlockNbr)) <= 65535U)
 595:/home/phong/Documents/thesis/stm32f4/stm-idf/components/stm32f4xx_hal_driver/stm32f4xx_hal_nand.c ****       {
 596:/home/phong/Documents/thesis/stm32f4/stm-idf/components/stm32f4xx_hal_driver/stm32f4xx_hal_nand.c ****         *(__IO uint8_t *)((uint32_t)(deviceaddress | ADDR_AREA)) = 0x00;
 597:/home/phong/Documents/thesis/stm32f4/stm-idf/components/stm32f4xx_hal_driver/stm32f4xx_hal_nand.c ****         *(__IO uint8_t *)((uint32_t)(deviceaddress | ADDR_AREA)) = 0x00;
 598:/home/phong/Documents/thesis/stm32f4/stm-idf/components/stm32f4xx_hal_driver/stm32f4xx_hal_nand.c ****         *(__IO uint8_t *)((uint32_t)(deviceaddress | ADDR_AREA)) = ADDR_1ST_CYCLE(nandaddress);
 599:/home/phong/Documents/thesis/stm32f4/stm-idf/components/stm32f4xx_hal_driver/stm32f4xx_hal_nand.c ****         *(__IO uint8_t *)((uint32_t)(deviceaddress | ADDR_AREA)) = ADDR_2ND_CYCLE(nandaddress);
 600:/home/phong/Documents/thesis/stm32f4/stm-idf/components/stm32f4xx_hal_driver/stm32f4xx_hal_nand.c ****       }
 601:/home/phong/Documents/thesis/stm32f4/stm-idf/components/stm32f4xx_hal_driver/stm32f4xx_hal_nand.c ****       else /* ((hnand->Config.BlockSize)*(hnand->Config.BlockNbr)) > 65535 */
 602:/home/phong/Documents/thesis/stm32f4/stm-idf/components/stm32f4xx_hal_driver/stm32f4xx_hal_nand.c ****       {
 603:/home/phong/Documents/thesis/stm32f4/stm-idf/components/stm32f4xx_hal_driver/stm32f4xx_hal_nand.c ****         *(__IO uint8_t *)((uint32_t)(deviceaddress | ADDR_AREA)) = 0x00;
 604:/home/phong/Documents/thesis/stm32f4/stm-idf/components/stm32f4xx_hal_driver/stm32f4xx_hal_nand.c ****         *(__IO uint8_t *)((uint32_t)(deviceaddress | ADDR_AREA)) = 0x00;
 605:/home/phong/Documents/thesis/stm32f4/stm-idf/components/stm32f4xx_hal_driver/stm32f4xx_hal_nand.c ****         *(__IO uint8_t *)((uint32_t)(deviceaddress | ADDR_AREA)) = ADDR_1ST_CYCLE(nandaddress);
 606:/home/phong/Documents/thesis/stm32f4/stm-idf/components/stm32f4xx_hal_driver/stm32f4xx_hal_nand.c ****         *(__IO uint8_t *)((uint32_t)(deviceaddress | ADDR_AREA)) = ADDR_2ND_CYCLE(nandaddress);
 607:/home/phong/Documents/thesis/stm32f4/stm-idf/components/stm32f4xx_hal_driver/stm32f4xx_hal_nand.c ****         *(__IO uint8_t *)((uint32_t)(deviceaddress | ADDR_AREA)) = ADDR_3RD_CYCLE(nandaddress);
 608:/home/phong/Documents/thesis/stm32f4/stm-idf/components/stm32f4xx_hal_driver/stm32f4xx_hal_nand.c ****       }
 609:/home/phong/Documents/thesis/stm32f4/stm-idf/components/stm32f4xx_hal_driver/stm32f4xx_hal_nand.c ****     }
 610:/home/phong/Documents/thesis/stm32f4/stm-idf/components/stm32f4xx_hal_driver/stm32f4xx_hal_nand.c ****   
 611:/home/phong/Documents/thesis/stm32f4/stm-idf/components/stm32f4xx_hal_driver/stm32f4xx_hal_nand.c ****     *(__IO uint8_t *)((uint32_t)(deviceaddress | CMD_AREA))  = NAND_CMD_AREA_TRUE1;
 612:/home/phong/Documents/thesis/stm32f4/stm-idf/components/stm32f4xx_hal_driver/stm32f4xx_hal_nand.c ****       
 613:/home/phong/Documents/thesis/stm32f4/stm-idf/components/stm32f4xx_hal_driver/stm32f4xx_hal_nand.c ****     /* Check if an extra command is needed for reading pages  */
 614:/home/phong/Documents/thesis/stm32f4/stm-idf/components/stm32f4xx_hal_driver/stm32f4xx_hal_nand.c ****     if(hnand->Config.ExtraCommandEnable == ENABLE)
 615:/home/phong/Documents/thesis/stm32f4/stm-idf/components/stm32f4xx_hal_driver/stm32f4xx_hal_nand.c ****     {
 616:/home/phong/Documents/thesis/stm32f4/stm-idf/components/stm32f4xx_hal_driver/stm32f4xx_hal_nand.c ****       /* Get tick */
 617:/home/phong/Documents/thesis/stm32f4/stm-idf/components/stm32f4xx_hal_driver/stm32f4xx_hal_nand.c ****       tickstart = HAL_GetTick();
 618:/home/phong/Documents/thesis/stm32f4/stm-idf/components/stm32f4xx_hal_driver/stm32f4xx_hal_nand.c ****       
 619:/home/phong/Documents/thesis/stm32f4/stm-idf/components/stm32f4xx_hal_driver/stm32f4xx_hal_nand.c ****       /* Read status until NAND is ready */
 620:/home/phong/Documents/thesis/stm32f4/stm-idf/components/stm32f4xx_hal_driver/stm32f4xx_hal_nand.c ****       while(HAL_NAND_Read_Status(hnand) != NAND_READY)
 621:/home/phong/Documents/thesis/stm32f4/stm-idf/components/stm32f4xx_hal_driver/stm32f4xx_hal_nand.c ****       {
 622:/home/phong/Documents/thesis/stm32f4/stm-idf/components/stm32f4xx_hal_driver/stm32f4xx_hal_nand.c ****         if((HAL_GetTick() - tickstart ) > NAND_WRITE_TIMEOUT)
 623:/home/phong/Documents/thesis/stm32f4/stm-idf/components/stm32f4xx_hal_driver/stm32f4xx_hal_nand.c ****         {
 624:/home/phong/Documents/thesis/stm32f4/stm-idf/components/stm32f4xx_hal_driver/stm32f4xx_hal_nand.c ****           return HAL_TIMEOUT; 
 625:/home/phong/Documents/thesis/stm32f4/stm-idf/components/stm32f4xx_hal_driver/stm32f4xx_hal_nand.c ****         }
 626:/home/phong/Documents/thesis/stm32f4/stm-idf/components/stm32f4xx_hal_driver/stm32f4xx_hal_nand.c ****       }
 627:/home/phong/Documents/thesis/stm32f4/stm-idf/components/stm32f4xx_hal_driver/stm32f4xx_hal_nand.c ****       
 628:/home/phong/Documents/thesis/stm32f4/stm-idf/components/stm32f4xx_hal_driver/stm32f4xx_hal_nand.c ****       /* Go back to read mode */
 629:/home/phong/Documents/thesis/stm32f4/stm-idf/components/stm32f4xx_hal_driver/stm32f4xx_hal_nand.c ****       *(__IO uint8_t *)((uint32_t)(deviceaddress | CMD_AREA)) = ((uint8_t)0x00);
 630:/home/phong/Documents/thesis/stm32f4/stm-idf/components/stm32f4xx_hal_driver/stm32f4xx_hal_nand.c ****       __DSB();
 631:/home/phong/Documents/thesis/stm32f4/stm-idf/components/stm32f4xx_hal_driver/stm32f4xx_hal_nand.c ****     }
 632:/home/phong/Documents/thesis/stm32f4/stm-idf/components/stm32f4xx_hal_driver/stm32f4xx_hal_nand.c ****     
ARM GAS  /tmp/ccM6uMDT.s 			page 25


 633:/home/phong/Documents/thesis/stm32f4/stm-idf/components/stm32f4xx_hal_driver/stm32f4xx_hal_nand.c ****     /* Get Data into Buffer */    
 634:/home/phong/Documents/thesis/stm32f4/stm-idf/components/stm32f4xx_hal_driver/stm32f4xx_hal_nand.c ****     for(; index < size; index++)
 635:/home/phong/Documents/thesis/stm32f4/stm-idf/components/stm32f4xx_hal_driver/stm32f4xx_hal_nand.c ****     {
 636:/home/phong/Documents/thesis/stm32f4/stm-idf/components/stm32f4xx_hal_driver/stm32f4xx_hal_nand.c ****       *(uint8_t *)pBuffer++ = *(uint8_t *)deviceaddress;
 637:/home/phong/Documents/thesis/stm32f4/stm-idf/components/stm32f4xx_hal_driver/stm32f4xx_hal_nand.c ****     }
 638:/home/phong/Documents/thesis/stm32f4/stm-idf/components/stm32f4xx_hal_driver/stm32f4xx_hal_nand.c ****     
 639:/home/phong/Documents/thesis/stm32f4/stm-idf/components/stm32f4xx_hal_driver/stm32f4xx_hal_nand.c ****     /* Increment read pages number */
 640:/home/phong/Documents/thesis/stm32f4/stm-idf/components/stm32f4xx_hal_driver/stm32f4xx_hal_nand.c ****     numPagesRead++;
 641:/home/phong/Documents/thesis/stm32f4/stm-idf/components/stm32f4xx_hal_driver/stm32f4xx_hal_nand.c ****     
 642:/home/phong/Documents/thesis/stm32f4/stm-idf/components/stm32f4xx_hal_driver/stm32f4xx_hal_nand.c ****     /* Decrement pages to read */
 643:/home/phong/Documents/thesis/stm32f4/stm-idf/components/stm32f4xx_hal_driver/stm32f4xx_hal_nand.c ****     NumPageToRead--;
 644:/home/phong/Documents/thesis/stm32f4/stm-idf/components/stm32f4xx_hal_driver/stm32f4xx_hal_nand.c ****     
 645:/home/phong/Documents/thesis/stm32f4/stm-idf/components/stm32f4xx_hal_driver/stm32f4xx_hal_nand.c ****     /* Increment the NAND address */
 646:/home/phong/Documents/thesis/stm32f4/stm-idf/components/stm32f4xx_hal_driver/stm32f4xx_hal_nand.c ****     nandaddress = (uint32_t)(nandaddress + 1U);
 647:/home/phong/Documents/thesis/stm32f4/stm-idf/components/stm32f4xx_hal_driver/stm32f4xx_hal_nand.c ****   }
 648:/home/phong/Documents/thesis/stm32f4/stm-idf/components/stm32f4xx_hal_driver/stm32f4xx_hal_nand.c ****   
 649:/home/phong/Documents/thesis/stm32f4/stm-idf/components/stm32f4xx_hal_driver/stm32f4xx_hal_nand.c ****   /* Update the NAND controller state */
 650:/home/phong/Documents/thesis/stm32f4/stm-idf/components/stm32f4xx_hal_driver/stm32f4xx_hal_nand.c ****   hnand->State = HAL_NAND_STATE_READY;
 651:/home/phong/Documents/thesis/stm32f4/stm-idf/components/stm32f4xx_hal_driver/stm32f4xx_hal_nand.c ****   
 652:/home/phong/Documents/thesis/stm32f4/stm-idf/components/stm32f4xx_hal_driver/stm32f4xx_hal_nand.c ****   /* Process unlocked */
 653:/home/phong/Documents/thesis/stm32f4/stm-idf/components/stm32f4xx_hal_driver/stm32f4xx_hal_nand.c ****   __HAL_UNLOCK(hnand);
 654:/home/phong/Documents/thesis/stm32f4/stm-idf/components/stm32f4xx_hal_driver/stm32f4xx_hal_nand.c **** 
 655:/home/phong/Documents/thesis/stm32f4/stm-idf/components/stm32f4xx_hal_driver/stm32f4xx_hal_nand.c ****   return HAL_OK;
 656:/home/phong/Documents/thesis/stm32f4/stm-idf/components/stm32f4xx_hal_driver/stm32f4xx_hal_nand.c **** }
 657:/home/phong/Documents/thesis/stm32f4/stm-idf/components/stm32f4xx_hal_driver/stm32f4xx_hal_nand.c **** 
 658:/home/phong/Documents/thesis/stm32f4/stm-idf/components/stm32f4xx_hal_driver/stm32f4xx_hal_nand.c **** /**
 659:/home/phong/Documents/thesis/stm32f4/stm-idf/components/stm32f4xx_hal_driver/stm32f4xx_hal_nand.c ****   * @brief  Read Page(s) from NAND memory block (16-bits addressing)
 660:/home/phong/Documents/thesis/stm32f4/stm-idf/components/stm32f4xx_hal_driver/stm32f4xx_hal_nand.c ****   * @param  hnand pointer to a NAND_HandleTypeDef structure that contains
 661:/home/phong/Documents/thesis/stm32f4/stm-idf/components/stm32f4xx_hal_driver/stm32f4xx_hal_nand.c ****   *                the configuration information for NAND module.
 662:/home/phong/Documents/thesis/stm32f4/stm-idf/components/stm32f4xx_hal_driver/stm32f4xx_hal_nand.c ****   * @param  pAddress  pointer to NAND address structure
 663:/home/phong/Documents/thesis/stm32f4/stm-idf/components/stm32f4xx_hal_driver/stm32f4xx_hal_nand.c ****   * @param  pBuffer  pointer to destination read buffer. pBuffer should be 16bits aligned
 664:/home/phong/Documents/thesis/stm32f4/stm-idf/components/stm32f4xx_hal_driver/stm32f4xx_hal_nand.c ****   * @param  NumPageToRead  number of pages to read from block 
 665:/home/phong/Documents/thesis/stm32f4/stm-idf/components/stm32f4xx_hal_driver/stm32f4xx_hal_nand.c ****   * @retval HAL status
 666:/home/phong/Documents/thesis/stm32f4/stm-idf/components/stm32f4xx_hal_driver/stm32f4xx_hal_nand.c ****   */
 667:/home/phong/Documents/thesis/stm32f4/stm-idf/components/stm32f4xx_hal_driver/stm32f4xx_hal_nand.c **** HAL_StatusTypeDef HAL_NAND_Read_Page_16b(NAND_HandleTypeDef *hnand, NAND_AddressTypeDef *pAddress, 
 668:/home/phong/Documents/thesis/stm32f4/stm-idf/components/stm32f4xx_hal_driver/stm32f4xx_hal_nand.c **** {   
 669:/home/phong/Documents/thesis/stm32f4/stm-idf/components/stm32f4xx_hal_driver/stm32f4xx_hal_nand.c ****   __IO uint32_t index  = 0U;
 670:/home/phong/Documents/thesis/stm32f4/stm-idf/components/stm32f4xx_hal_driver/stm32f4xx_hal_nand.c ****   uint32_t tickstart = 0U;
 671:/home/phong/Documents/thesis/stm32f4/stm-idf/components/stm32f4xx_hal_driver/stm32f4xx_hal_nand.c ****   uint32_t deviceaddress = 0U, size = 0U, numPagesRead = 0U, nandaddress = 0U;
 672:/home/phong/Documents/thesis/stm32f4/stm-idf/components/stm32f4xx_hal_driver/stm32f4xx_hal_nand.c ****   
 673:/home/phong/Documents/thesis/stm32f4/stm-idf/components/stm32f4xx_hal_driver/stm32f4xx_hal_nand.c ****   /* Process Locked */
 674:/home/phong/Documents/thesis/stm32f4/stm-idf/components/stm32f4xx_hal_driver/stm32f4xx_hal_nand.c ****   __HAL_LOCK(hnand); 
 675:/home/phong/Documents/thesis/stm32f4/stm-idf/components/stm32f4xx_hal_driver/stm32f4xx_hal_nand.c ****   
 676:/home/phong/Documents/thesis/stm32f4/stm-idf/components/stm32f4xx_hal_driver/stm32f4xx_hal_nand.c ****   /* Check the NAND controller state */
 677:/home/phong/Documents/thesis/stm32f4/stm-idf/components/stm32f4xx_hal_driver/stm32f4xx_hal_nand.c ****   if(hnand->State == HAL_NAND_STATE_BUSY)
 678:/home/phong/Documents/thesis/stm32f4/stm-idf/components/stm32f4xx_hal_driver/stm32f4xx_hal_nand.c ****   {
 679:/home/phong/Documents/thesis/stm32f4/stm-idf/components/stm32f4xx_hal_driver/stm32f4xx_hal_nand.c ****      return HAL_BUSY;
 680:/home/phong/Documents/thesis/stm32f4/stm-idf/components/stm32f4xx_hal_driver/stm32f4xx_hal_nand.c ****   }
 681:/home/phong/Documents/thesis/stm32f4/stm-idf/components/stm32f4xx_hal_driver/stm32f4xx_hal_nand.c ****   
 682:/home/phong/Documents/thesis/stm32f4/stm-idf/components/stm32f4xx_hal_driver/stm32f4xx_hal_nand.c ****   /* Identify the device address */
 683:/home/phong/Documents/thesis/stm32f4/stm-idf/components/stm32f4xx_hal_driver/stm32f4xx_hal_nand.c ****   if(hnand->Init.NandBank == FMC_NAND_BANK2)
 684:/home/phong/Documents/thesis/stm32f4/stm-idf/components/stm32f4xx_hal_driver/stm32f4xx_hal_nand.c ****   {
 685:/home/phong/Documents/thesis/stm32f4/stm-idf/components/stm32f4xx_hal_driver/stm32f4xx_hal_nand.c ****     deviceaddress = NAND_DEVICE1;
 686:/home/phong/Documents/thesis/stm32f4/stm-idf/components/stm32f4xx_hal_driver/stm32f4xx_hal_nand.c ****   }
 687:/home/phong/Documents/thesis/stm32f4/stm-idf/components/stm32f4xx_hal_driver/stm32f4xx_hal_nand.c ****   else
 688:/home/phong/Documents/thesis/stm32f4/stm-idf/components/stm32f4xx_hal_driver/stm32f4xx_hal_nand.c ****   {
 689:/home/phong/Documents/thesis/stm32f4/stm-idf/components/stm32f4xx_hal_driver/stm32f4xx_hal_nand.c ****     deviceaddress = NAND_DEVICE2;
ARM GAS  /tmp/ccM6uMDT.s 			page 26


 690:/home/phong/Documents/thesis/stm32f4/stm-idf/components/stm32f4xx_hal_driver/stm32f4xx_hal_nand.c ****   }
 691:/home/phong/Documents/thesis/stm32f4/stm-idf/components/stm32f4xx_hal_driver/stm32f4xx_hal_nand.c **** 
 692:/home/phong/Documents/thesis/stm32f4/stm-idf/components/stm32f4xx_hal_driver/stm32f4xx_hal_nand.c ****   /* Update the NAND controller state */ 
 693:/home/phong/Documents/thesis/stm32f4/stm-idf/components/stm32f4xx_hal_driver/stm32f4xx_hal_nand.c ****   hnand->State = HAL_NAND_STATE_BUSY;
 694:/home/phong/Documents/thesis/stm32f4/stm-idf/components/stm32f4xx_hal_driver/stm32f4xx_hal_nand.c ****   
 695:/home/phong/Documents/thesis/stm32f4/stm-idf/components/stm32f4xx_hal_driver/stm32f4xx_hal_nand.c ****   /* NAND raw address calculation */
 696:/home/phong/Documents/thesis/stm32f4/stm-idf/components/stm32f4xx_hal_driver/stm32f4xx_hal_nand.c ****   nandaddress = ARRAY_ADDRESS(pAddress, hnand);
 697:/home/phong/Documents/thesis/stm32f4/stm-idf/components/stm32f4xx_hal_driver/stm32f4xx_hal_nand.c ****   
 698:/home/phong/Documents/thesis/stm32f4/stm-idf/components/stm32f4xx_hal_driver/stm32f4xx_hal_nand.c ****   /* Page(s) read loop */  
 699:/home/phong/Documents/thesis/stm32f4/stm-idf/components/stm32f4xx_hal_driver/stm32f4xx_hal_nand.c ****   while((NumPageToRead != 0U) && (nandaddress < ((hnand->Config.BlockSize) * (hnand->Config.BlockNb
 700:/home/phong/Documents/thesis/stm32f4/stm-idf/components/stm32f4xx_hal_driver/stm32f4xx_hal_nand.c ****   {
 701:/home/phong/Documents/thesis/stm32f4/stm-idf/components/stm32f4xx_hal_driver/stm32f4xx_hal_nand.c ****     /* update the buffer size */
 702:/home/phong/Documents/thesis/stm32f4/stm-idf/components/stm32f4xx_hal_driver/stm32f4xx_hal_nand.c ****     size = (hnand->Config.PageSize) + ((hnand->Config.PageSize) * numPagesRead);
 703:/home/phong/Documents/thesis/stm32f4/stm-idf/components/stm32f4xx_hal_driver/stm32f4xx_hal_nand.c ****     
 704:/home/phong/Documents/thesis/stm32f4/stm-idf/components/stm32f4xx_hal_driver/stm32f4xx_hal_nand.c ****     /* Send read page command sequence */
 705:/home/phong/Documents/thesis/stm32f4/stm-idf/components/stm32f4xx_hal_driver/stm32f4xx_hal_nand.c ****     *(__IO uint8_t *)((uint32_t)(deviceaddress | CMD_AREA)) = NAND_CMD_AREA_A;  
 706:/home/phong/Documents/thesis/stm32f4/stm-idf/components/stm32f4xx_hal_driver/stm32f4xx_hal_nand.c ****     __DSB();
 707:/home/phong/Documents/thesis/stm32f4/stm-idf/components/stm32f4xx_hal_driver/stm32f4xx_hal_nand.c ****     
 708:/home/phong/Documents/thesis/stm32f4/stm-idf/components/stm32f4xx_hal_driver/stm32f4xx_hal_nand.c ****     /* Cards with page size <= 512 bytes */
 709:/home/phong/Documents/thesis/stm32f4/stm-idf/components/stm32f4xx_hal_driver/stm32f4xx_hal_nand.c ****     if((hnand->Config.PageSize) <= 512U)
 710:/home/phong/Documents/thesis/stm32f4/stm-idf/components/stm32f4xx_hal_driver/stm32f4xx_hal_nand.c ****     {
 711:/home/phong/Documents/thesis/stm32f4/stm-idf/components/stm32f4xx_hal_driver/stm32f4xx_hal_nand.c ****       if (((hnand->Config.BlockSize)*(hnand->Config.BlockNbr)) <= 65535U)
 712:/home/phong/Documents/thesis/stm32f4/stm-idf/components/stm32f4xx_hal_driver/stm32f4xx_hal_nand.c ****       {
 713:/home/phong/Documents/thesis/stm32f4/stm-idf/components/stm32f4xx_hal_driver/stm32f4xx_hal_nand.c ****         *(__IO uint8_t *)((uint32_t)(deviceaddress | ADDR_AREA)) = 0x00;
 714:/home/phong/Documents/thesis/stm32f4/stm-idf/components/stm32f4xx_hal_driver/stm32f4xx_hal_nand.c ****         *(__IO uint8_t *)((uint32_t)(deviceaddress | ADDR_AREA)) = ADDR_1ST_CYCLE(nandaddress);
 715:/home/phong/Documents/thesis/stm32f4/stm-idf/components/stm32f4xx_hal_driver/stm32f4xx_hal_nand.c ****         *(__IO uint8_t *)((uint32_t)(deviceaddress | ADDR_AREA)) = ADDR_2ND_CYCLE(nandaddress);
 716:/home/phong/Documents/thesis/stm32f4/stm-idf/components/stm32f4xx_hal_driver/stm32f4xx_hal_nand.c ****       }
 717:/home/phong/Documents/thesis/stm32f4/stm-idf/components/stm32f4xx_hal_driver/stm32f4xx_hal_nand.c ****       else /* ((hnand->Config.BlockSize)*(hnand->Config.BlockNbr)) > 65535 */
 718:/home/phong/Documents/thesis/stm32f4/stm-idf/components/stm32f4xx_hal_driver/stm32f4xx_hal_nand.c ****       {
 719:/home/phong/Documents/thesis/stm32f4/stm-idf/components/stm32f4xx_hal_driver/stm32f4xx_hal_nand.c ****         *(__IO uint8_t *)((uint32_t)(deviceaddress | ADDR_AREA)) = 0x00;
 720:/home/phong/Documents/thesis/stm32f4/stm-idf/components/stm32f4xx_hal_driver/stm32f4xx_hal_nand.c ****         *(__IO uint8_t *)((uint32_t)(deviceaddress | ADDR_AREA)) = ADDR_1ST_CYCLE(nandaddress);
 721:/home/phong/Documents/thesis/stm32f4/stm-idf/components/stm32f4xx_hal_driver/stm32f4xx_hal_nand.c ****         *(__IO uint8_t *)((uint32_t)(deviceaddress | ADDR_AREA)) = ADDR_2ND_CYCLE(nandaddress);
 722:/home/phong/Documents/thesis/stm32f4/stm-idf/components/stm32f4xx_hal_driver/stm32f4xx_hal_nand.c ****         *(__IO uint8_t *)((uint32_t)(deviceaddress | ADDR_AREA)) = ADDR_3RD_CYCLE(nandaddress);
 723:/home/phong/Documents/thesis/stm32f4/stm-idf/components/stm32f4xx_hal_driver/stm32f4xx_hal_nand.c ****       }
 724:/home/phong/Documents/thesis/stm32f4/stm-idf/components/stm32f4xx_hal_driver/stm32f4xx_hal_nand.c ****     }
 725:/home/phong/Documents/thesis/stm32f4/stm-idf/components/stm32f4xx_hal_driver/stm32f4xx_hal_nand.c ****     else /* (hnand->Config.PageSize) > 512 */
 726:/home/phong/Documents/thesis/stm32f4/stm-idf/components/stm32f4xx_hal_driver/stm32f4xx_hal_nand.c ****     {
 727:/home/phong/Documents/thesis/stm32f4/stm-idf/components/stm32f4xx_hal_driver/stm32f4xx_hal_nand.c ****       if (((hnand->Config.BlockSize)*(hnand->Config.BlockNbr)) <= 65535U)
 728:/home/phong/Documents/thesis/stm32f4/stm-idf/components/stm32f4xx_hal_driver/stm32f4xx_hal_nand.c ****       {
 729:/home/phong/Documents/thesis/stm32f4/stm-idf/components/stm32f4xx_hal_driver/stm32f4xx_hal_nand.c ****         *(__IO uint8_t *)((uint32_t)(deviceaddress | ADDR_AREA)) = 0x00;
 730:/home/phong/Documents/thesis/stm32f4/stm-idf/components/stm32f4xx_hal_driver/stm32f4xx_hal_nand.c ****         *(__IO uint8_t *)((uint32_t)(deviceaddress | ADDR_AREA)) = 0x00;
 731:/home/phong/Documents/thesis/stm32f4/stm-idf/components/stm32f4xx_hal_driver/stm32f4xx_hal_nand.c ****         *(__IO uint8_t *)((uint32_t)(deviceaddress | ADDR_AREA)) = ADDR_1ST_CYCLE(nandaddress);
 732:/home/phong/Documents/thesis/stm32f4/stm-idf/components/stm32f4xx_hal_driver/stm32f4xx_hal_nand.c ****         *(__IO uint8_t *)((uint32_t)(deviceaddress | ADDR_AREA)) = ADDR_2ND_CYCLE(nandaddress);
 733:/home/phong/Documents/thesis/stm32f4/stm-idf/components/stm32f4xx_hal_driver/stm32f4xx_hal_nand.c ****       }
 734:/home/phong/Documents/thesis/stm32f4/stm-idf/components/stm32f4xx_hal_driver/stm32f4xx_hal_nand.c ****       else /* ((hnand->Config.BlockSize)*(hnand->Config.BlockNbr)) > 65535 */
 735:/home/phong/Documents/thesis/stm32f4/stm-idf/components/stm32f4xx_hal_driver/stm32f4xx_hal_nand.c ****       {
 736:/home/phong/Documents/thesis/stm32f4/stm-idf/components/stm32f4xx_hal_driver/stm32f4xx_hal_nand.c ****         *(__IO uint8_t *)((uint32_t)(deviceaddress | ADDR_AREA)) = 0x00;
 737:/home/phong/Documents/thesis/stm32f4/stm-idf/components/stm32f4xx_hal_driver/stm32f4xx_hal_nand.c ****         *(__IO uint8_t *)((uint32_t)(deviceaddress | ADDR_AREA)) = 0x00;
 738:/home/phong/Documents/thesis/stm32f4/stm-idf/components/stm32f4xx_hal_driver/stm32f4xx_hal_nand.c ****         *(__IO uint8_t *)((uint32_t)(deviceaddress | ADDR_AREA)) = ADDR_1ST_CYCLE(nandaddress);
 739:/home/phong/Documents/thesis/stm32f4/stm-idf/components/stm32f4xx_hal_driver/stm32f4xx_hal_nand.c ****         *(__IO uint8_t *)((uint32_t)(deviceaddress | ADDR_AREA)) = ADDR_2ND_CYCLE(nandaddress);
 740:/home/phong/Documents/thesis/stm32f4/stm-idf/components/stm32f4xx_hal_driver/stm32f4xx_hal_nand.c ****         *(__IO uint8_t *)((uint32_t)(deviceaddress | ADDR_AREA)) = ADDR_3RD_CYCLE(nandaddress);
 741:/home/phong/Documents/thesis/stm32f4/stm-idf/components/stm32f4xx_hal_driver/stm32f4xx_hal_nand.c ****       }
 742:/home/phong/Documents/thesis/stm32f4/stm-idf/components/stm32f4xx_hal_driver/stm32f4xx_hal_nand.c ****     }
 743:/home/phong/Documents/thesis/stm32f4/stm-idf/components/stm32f4xx_hal_driver/stm32f4xx_hal_nand.c ****   
 744:/home/phong/Documents/thesis/stm32f4/stm-idf/components/stm32f4xx_hal_driver/stm32f4xx_hal_nand.c ****     *(__IO uint8_t *)((uint32_t)(deviceaddress | CMD_AREA))  = NAND_CMD_AREA_TRUE1;
 745:/home/phong/Documents/thesis/stm32f4/stm-idf/components/stm32f4xx_hal_driver/stm32f4xx_hal_nand.c ****     
 746:/home/phong/Documents/thesis/stm32f4/stm-idf/components/stm32f4xx_hal_driver/stm32f4xx_hal_nand.c ****     if(hnand->Config.ExtraCommandEnable == ENABLE)
ARM GAS  /tmp/ccM6uMDT.s 			page 27


 747:/home/phong/Documents/thesis/stm32f4/stm-idf/components/stm32f4xx_hal_driver/stm32f4xx_hal_nand.c ****     {
 748:/home/phong/Documents/thesis/stm32f4/stm-idf/components/stm32f4xx_hal_driver/stm32f4xx_hal_nand.c ****       /* Get tick */
 749:/home/phong/Documents/thesis/stm32f4/stm-idf/components/stm32f4xx_hal_driver/stm32f4xx_hal_nand.c ****       tickstart = HAL_GetTick();
 750:/home/phong/Documents/thesis/stm32f4/stm-idf/components/stm32f4xx_hal_driver/stm32f4xx_hal_nand.c ****       
 751:/home/phong/Documents/thesis/stm32f4/stm-idf/components/stm32f4xx_hal_driver/stm32f4xx_hal_nand.c ****       /* Read status until NAND is ready */
 752:/home/phong/Documents/thesis/stm32f4/stm-idf/components/stm32f4xx_hal_driver/stm32f4xx_hal_nand.c ****       while(HAL_NAND_Read_Status(hnand) != NAND_READY)
 753:/home/phong/Documents/thesis/stm32f4/stm-idf/components/stm32f4xx_hal_driver/stm32f4xx_hal_nand.c ****       {
 754:/home/phong/Documents/thesis/stm32f4/stm-idf/components/stm32f4xx_hal_driver/stm32f4xx_hal_nand.c ****         if((HAL_GetTick() - tickstart ) > NAND_WRITE_TIMEOUT)
 755:/home/phong/Documents/thesis/stm32f4/stm-idf/components/stm32f4xx_hal_driver/stm32f4xx_hal_nand.c ****         {
 756:/home/phong/Documents/thesis/stm32f4/stm-idf/components/stm32f4xx_hal_driver/stm32f4xx_hal_nand.c ****           return HAL_TIMEOUT; 
 757:/home/phong/Documents/thesis/stm32f4/stm-idf/components/stm32f4xx_hal_driver/stm32f4xx_hal_nand.c ****         }
 758:/home/phong/Documents/thesis/stm32f4/stm-idf/components/stm32f4xx_hal_driver/stm32f4xx_hal_nand.c ****       }
 759:/home/phong/Documents/thesis/stm32f4/stm-idf/components/stm32f4xx_hal_driver/stm32f4xx_hal_nand.c ****       
 760:/home/phong/Documents/thesis/stm32f4/stm-idf/components/stm32f4xx_hal_driver/stm32f4xx_hal_nand.c ****       /* Go back to read mode */
 761:/home/phong/Documents/thesis/stm32f4/stm-idf/components/stm32f4xx_hal_driver/stm32f4xx_hal_nand.c ****       *(__IO uint8_t *)((uint32_t)(deviceaddress | CMD_AREA)) = ((uint8_t)0x00);
 762:/home/phong/Documents/thesis/stm32f4/stm-idf/components/stm32f4xx_hal_driver/stm32f4xx_hal_nand.c ****     }
 763:/home/phong/Documents/thesis/stm32f4/stm-idf/components/stm32f4xx_hal_driver/stm32f4xx_hal_nand.c ****     
 764:/home/phong/Documents/thesis/stm32f4/stm-idf/components/stm32f4xx_hal_driver/stm32f4xx_hal_nand.c ****     /* Get Data into Buffer */    
 765:/home/phong/Documents/thesis/stm32f4/stm-idf/components/stm32f4xx_hal_driver/stm32f4xx_hal_nand.c ****     for(; index < size; index++)
 766:/home/phong/Documents/thesis/stm32f4/stm-idf/components/stm32f4xx_hal_driver/stm32f4xx_hal_nand.c ****     {
 767:/home/phong/Documents/thesis/stm32f4/stm-idf/components/stm32f4xx_hal_driver/stm32f4xx_hal_nand.c ****       *(uint16_t *)pBuffer++ = *(uint16_t *)deviceaddress;
 768:/home/phong/Documents/thesis/stm32f4/stm-idf/components/stm32f4xx_hal_driver/stm32f4xx_hal_nand.c ****     }
 769:/home/phong/Documents/thesis/stm32f4/stm-idf/components/stm32f4xx_hal_driver/stm32f4xx_hal_nand.c ****     
 770:/home/phong/Documents/thesis/stm32f4/stm-idf/components/stm32f4xx_hal_driver/stm32f4xx_hal_nand.c ****     /* Increment read pages number */
 771:/home/phong/Documents/thesis/stm32f4/stm-idf/components/stm32f4xx_hal_driver/stm32f4xx_hal_nand.c ****     numPagesRead++;
 772:/home/phong/Documents/thesis/stm32f4/stm-idf/components/stm32f4xx_hal_driver/stm32f4xx_hal_nand.c ****     
 773:/home/phong/Documents/thesis/stm32f4/stm-idf/components/stm32f4xx_hal_driver/stm32f4xx_hal_nand.c ****     /* Decrement pages to read */
 774:/home/phong/Documents/thesis/stm32f4/stm-idf/components/stm32f4xx_hal_driver/stm32f4xx_hal_nand.c ****     NumPageToRead--;
 775:/home/phong/Documents/thesis/stm32f4/stm-idf/components/stm32f4xx_hal_driver/stm32f4xx_hal_nand.c ****     
 776:/home/phong/Documents/thesis/stm32f4/stm-idf/components/stm32f4xx_hal_driver/stm32f4xx_hal_nand.c ****     /* Increment the NAND address */
 777:/home/phong/Documents/thesis/stm32f4/stm-idf/components/stm32f4xx_hal_driver/stm32f4xx_hal_nand.c ****     nandaddress = (uint32_t)(nandaddress + 1U);
 778:/home/phong/Documents/thesis/stm32f4/stm-idf/components/stm32f4xx_hal_driver/stm32f4xx_hal_nand.c ****   }
 779:/home/phong/Documents/thesis/stm32f4/stm-idf/components/stm32f4xx_hal_driver/stm32f4xx_hal_nand.c ****   
 780:/home/phong/Documents/thesis/stm32f4/stm-idf/components/stm32f4xx_hal_driver/stm32f4xx_hal_nand.c ****   /* Update the NAND controller state */ 
 781:/home/phong/Documents/thesis/stm32f4/stm-idf/components/stm32f4xx_hal_driver/stm32f4xx_hal_nand.c ****   hnand->State = HAL_NAND_STATE_READY;
 782:/home/phong/Documents/thesis/stm32f4/stm-idf/components/stm32f4xx_hal_driver/stm32f4xx_hal_nand.c ****   
 783:/home/phong/Documents/thesis/stm32f4/stm-idf/components/stm32f4xx_hal_driver/stm32f4xx_hal_nand.c ****   /* Process unlocked */
 784:/home/phong/Documents/thesis/stm32f4/stm-idf/components/stm32f4xx_hal_driver/stm32f4xx_hal_nand.c ****   __HAL_UNLOCK(hnand);  
 785:/home/phong/Documents/thesis/stm32f4/stm-idf/components/stm32f4xx_hal_driver/stm32f4xx_hal_nand.c ****     
 786:/home/phong/Documents/thesis/stm32f4/stm-idf/components/stm32f4xx_hal_driver/stm32f4xx_hal_nand.c ****   return HAL_OK;
 787:/home/phong/Documents/thesis/stm32f4/stm-idf/components/stm32f4xx_hal_driver/stm32f4xx_hal_nand.c **** }
 788:/home/phong/Documents/thesis/stm32f4/stm-idf/components/stm32f4xx_hal_driver/stm32f4xx_hal_nand.c **** 
 789:/home/phong/Documents/thesis/stm32f4/stm-idf/components/stm32f4xx_hal_driver/stm32f4xx_hal_nand.c **** /**
 790:/home/phong/Documents/thesis/stm32f4/stm-idf/components/stm32f4xx_hal_driver/stm32f4xx_hal_nand.c ****   * @brief  Write Page(s) to NAND memory block (8-bits addressing)
 791:/home/phong/Documents/thesis/stm32f4/stm-idf/components/stm32f4xx_hal_driver/stm32f4xx_hal_nand.c ****   * @param  hnand pointer to a NAND_HandleTypeDef structure that contains
 792:/home/phong/Documents/thesis/stm32f4/stm-idf/components/stm32f4xx_hal_driver/stm32f4xx_hal_nand.c ****   *                the configuration information for NAND module.
 793:/home/phong/Documents/thesis/stm32f4/stm-idf/components/stm32f4xx_hal_driver/stm32f4xx_hal_nand.c ****   * @param  pAddress  pointer to NAND address structure
 794:/home/phong/Documents/thesis/stm32f4/stm-idf/components/stm32f4xx_hal_driver/stm32f4xx_hal_nand.c ****   * @param  pBuffer  pointer to source buffer to write  
 795:/home/phong/Documents/thesis/stm32f4/stm-idf/components/stm32f4xx_hal_driver/stm32f4xx_hal_nand.c ****   * @param  NumPageToWrite   number of pages to write to block 
 796:/home/phong/Documents/thesis/stm32f4/stm-idf/components/stm32f4xx_hal_driver/stm32f4xx_hal_nand.c ****   * @retval HAL status
 797:/home/phong/Documents/thesis/stm32f4/stm-idf/components/stm32f4xx_hal_driver/stm32f4xx_hal_nand.c ****   */
 798:/home/phong/Documents/thesis/stm32f4/stm-idf/components/stm32f4xx_hal_driver/stm32f4xx_hal_nand.c **** HAL_StatusTypeDef HAL_NAND_Write_Page_8b(NAND_HandleTypeDef *hnand, NAND_AddressTypeDef *pAddress, 
 799:/home/phong/Documents/thesis/stm32f4/stm-idf/components/stm32f4xx_hal_driver/stm32f4xx_hal_nand.c **** {
 800:/home/phong/Documents/thesis/stm32f4/stm-idf/components/stm32f4xx_hal_driver/stm32f4xx_hal_nand.c ****   __IO uint32_t index = 0U;
 801:/home/phong/Documents/thesis/stm32f4/stm-idf/components/stm32f4xx_hal_driver/stm32f4xx_hal_nand.c ****   uint32_t tickstart = 0U;
 802:/home/phong/Documents/thesis/stm32f4/stm-idf/components/stm32f4xx_hal_driver/stm32f4xx_hal_nand.c ****   uint32_t deviceaddress = 0U, size = 0U, numPagesWritten = 0U, nandaddress = 0U;
 803:/home/phong/Documents/thesis/stm32f4/stm-idf/components/stm32f4xx_hal_driver/stm32f4xx_hal_nand.c ****   
ARM GAS  /tmp/ccM6uMDT.s 			page 28


 804:/home/phong/Documents/thesis/stm32f4/stm-idf/components/stm32f4xx_hal_driver/stm32f4xx_hal_nand.c ****   /* Process Locked */
 805:/home/phong/Documents/thesis/stm32f4/stm-idf/components/stm32f4xx_hal_driver/stm32f4xx_hal_nand.c ****   __HAL_LOCK(hnand);  
 806:/home/phong/Documents/thesis/stm32f4/stm-idf/components/stm32f4xx_hal_driver/stm32f4xx_hal_nand.c **** 
 807:/home/phong/Documents/thesis/stm32f4/stm-idf/components/stm32f4xx_hal_driver/stm32f4xx_hal_nand.c ****   /* Check the NAND controller state */
 808:/home/phong/Documents/thesis/stm32f4/stm-idf/components/stm32f4xx_hal_driver/stm32f4xx_hal_nand.c ****   if(hnand->State == HAL_NAND_STATE_BUSY)
 809:/home/phong/Documents/thesis/stm32f4/stm-idf/components/stm32f4xx_hal_driver/stm32f4xx_hal_nand.c ****   {
 810:/home/phong/Documents/thesis/stm32f4/stm-idf/components/stm32f4xx_hal_driver/stm32f4xx_hal_nand.c ****      return HAL_BUSY;
 811:/home/phong/Documents/thesis/stm32f4/stm-idf/components/stm32f4xx_hal_driver/stm32f4xx_hal_nand.c ****   }
 812:/home/phong/Documents/thesis/stm32f4/stm-idf/components/stm32f4xx_hal_driver/stm32f4xx_hal_nand.c ****   
 813:/home/phong/Documents/thesis/stm32f4/stm-idf/components/stm32f4xx_hal_driver/stm32f4xx_hal_nand.c ****   /* Identify the device address */
 814:/home/phong/Documents/thesis/stm32f4/stm-idf/components/stm32f4xx_hal_driver/stm32f4xx_hal_nand.c ****   if(hnand->Init.NandBank == FMC_NAND_BANK2)
 815:/home/phong/Documents/thesis/stm32f4/stm-idf/components/stm32f4xx_hal_driver/stm32f4xx_hal_nand.c ****   {
 816:/home/phong/Documents/thesis/stm32f4/stm-idf/components/stm32f4xx_hal_driver/stm32f4xx_hal_nand.c ****     deviceaddress = NAND_DEVICE1;
 817:/home/phong/Documents/thesis/stm32f4/stm-idf/components/stm32f4xx_hal_driver/stm32f4xx_hal_nand.c ****   }
 818:/home/phong/Documents/thesis/stm32f4/stm-idf/components/stm32f4xx_hal_driver/stm32f4xx_hal_nand.c ****   else
 819:/home/phong/Documents/thesis/stm32f4/stm-idf/components/stm32f4xx_hal_driver/stm32f4xx_hal_nand.c ****   {
 820:/home/phong/Documents/thesis/stm32f4/stm-idf/components/stm32f4xx_hal_driver/stm32f4xx_hal_nand.c ****     deviceaddress = NAND_DEVICE2;
 821:/home/phong/Documents/thesis/stm32f4/stm-idf/components/stm32f4xx_hal_driver/stm32f4xx_hal_nand.c ****   }
 822:/home/phong/Documents/thesis/stm32f4/stm-idf/components/stm32f4xx_hal_driver/stm32f4xx_hal_nand.c ****   
 823:/home/phong/Documents/thesis/stm32f4/stm-idf/components/stm32f4xx_hal_driver/stm32f4xx_hal_nand.c ****   /* Update the NAND controller state */ 
 824:/home/phong/Documents/thesis/stm32f4/stm-idf/components/stm32f4xx_hal_driver/stm32f4xx_hal_nand.c ****   hnand->State = HAL_NAND_STATE_BUSY;
 825:/home/phong/Documents/thesis/stm32f4/stm-idf/components/stm32f4xx_hal_driver/stm32f4xx_hal_nand.c ****   
 826:/home/phong/Documents/thesis/stm32f4/stm-idf/components/stm32f4xx_hal_driver/stm32f4xx_hal_nand.c ****   /* NAND raw address calculation */
 827:/home/phong/Documents/thesis/stm32f4/stm-idf/components/stm32f4xx_hal_driver/stm32f4xx_hal_nand.c ****   nandaddress = ARRAY_ADDRESS(pAddress, hnand);
 828:/home/phong/Documents/thesis/stm32f4/stm-idf/components/stm32f4xx_hal_driver/stm32f4xx_hal_nand.c ****     
 829:/home/phong/Documents/thesis/stm32f4/stm-idf/components/stm32f4xx_hal_driver/stm32f4xx_hal_nand.c ****   /* Page(s) write loop */
 830:/home/phong/Documents/thesis/stm32f4/stm-idf/components/stm32f4xx_hal_driver/stm32f4xx_hal_nand.c ****   while((NumPageToWrite != 0U) && (nandaddress < ((hnand->Config.BlockSize) * (hnand->Config.BlockN
 831:/home/phong/Documents/thesis/stm32f4/stm-idf/components/stm32f4xx_hal_driver/stm32f4xx_hal_nand.c ****   {
 832:/home/phong/Documents/thesis/stm32f4/stm-idf/components/stm32f4xx_hal_driver/stm32f4xx_hal_nand.c ****     /* update the buffer size */
 833:/home/phong/Documents/thesis/stm32f4/stm-idf/components/stm32f4xx_hal_driver/stm32f4xx_hal_nand.c ****     size = hnand->Config.PageSize + ((hnand->Config.PageSize) * numPagesWritten);
 834:/home/phong/Documents/thesis/stm32f4/stm-idf/components/stm32f4xx_hal_driver/stm32f4xx_hal_nand.c ****     
 835:/home/phong/Documents/thesis/stm32f4/stm-idf/components/stm32f4xx_hal_driver/stm32f4xx_hal_nand.c ****     /* Send write page command sequence */
 836:/home/phong/Documents/thesis/stm32f4/stm-idf/components/stm32f4xx_hal_driver/stm32f4xx_hal_nand.c ****     *(__IO uint8_t *)((uint32_t)(deviceaddress | CMD_AREA)) = NAND_CMD_AREA_A;
 837:/home/phong/Documents/thesis/stm32f4/stm-idf/components/stm32f4xx_hal_driver/stm32f4xx_hal_nand.c ****     *(__IO uint8_t *)((uint32_t)(deviceaddress | CMD_AREA)) = NAND_CMD_WRITE0;
 838:/home/phong/Documents/thesis/stm32f4/stm-idf/components/stm32f4xx_hal_driver/stm32f4xx_hal_nand.c **** 
 839:/home/phong/Documents/thesis/stm32f4/stm-idf/components/stm32f4xx_hal_driver/stm32f4xx_hal_nand.c ****     /* Cards with page size <= 512 bytes */
 840:/home/phong/Documents/thesis/stm32f4/stm-idf/components/stm32f4xx_hal_driver/stm32f4xx_hal_nand.c ****     if((hnand->Config.PageSize) <= 512U)
 841:/home/phong/Documents/thesis/stm32f4/stm-idf/components/stm32f4xx_hal_driver/stm32f4xx_hal_nand.c ****     {
 842:/home/phong/Documents/thesis/stm32f4/stm-idf/components/stm32f4xx_hal_driver/stm32f4xx_hal_nand.c ****       if (((hnand->Config.BlockSize)*(hnand->Config.BlockNbr)) <= 65535U)
 843:/home/phong/Documents/thesis/stm32f4/stm-idf/components/stm32f4xx_hal_driver/stm32f4xx_hal_nand.c ****       {
 844:/home/phong/Documents/thesis/stm32f4/stm-idf/components/stm32f4xx_hal_driver/stm32f4xx_hal_nand.c ****         *(__IO uint8_t *)((uint32_t)(deviceaddress | ADDR_AREA)) = 0x00;
 845:/home/phong/Documents/thesis/stm32f4/stm-idf/components/stm32f4xx_hal_driver/stm32f4xx_hal_nand.c ****         *(__IO uint8_t *)((uint32_t)(deviceaddress | ADDR_AREA)) = ADDR_1ST_CYCLE(nandaddress);
 846:/home/phong/Documents/thesis/stm32f4/stm-idf/components/stm32f4xx_hal_driver/stm32f4xx_hal_nand.c ****         *(__IO uint8_t *)((uint32_t)(deviceaddress | ADDR_AREA)) = ADDR_2ND_CYCLE(nandaddress);
 847:/home/phong/Documents/thesis/stm32f4/stm-idf/components/stm32f4xx_hal_driver/stm32f4xx_hal_nand.c ****       }
 848:/home/phong/Documents/thesis/stm32f4/stm-idf/components/stm32f4xx_hal_driver/stm32f4xx_hal_nand.c ****       else /* ((hnand->Config.BlockSize)*(hnand->Config.BlockNbr)) > 65535 */
 849:/home/phong/Documents/thesis/stm32f4/stm-idf/components/stm32f4xx_hal_driver/stm32f4xx_hal_nand.c ****       {
 850:/home/phong/Documents/thesis/stm32f4/stm-idf/components/stm32f4xx_hal_driver/stm32f4xx_hal_nand.c ****         *(__IO uint8_t *)((uint32_t)(deviceaddress | ADDR_AREA)) = 0x00;
 851:/home/phong/Documents/thesis/stm32f4/stm-idf/components/stm32f4xx_hal_driver/stm32f4xx_hal_nand.c ****         *(__IO uint8_t *)((uint32_t)(deviceaddress | ADDR_AREA)) = ADDR_1ST_CYCLE(nandaddress);
 852:/home/phong/Documents/thesis/stm32f4/stm-idf/components/stm32f4xx_hal_driver/stm32f4xx_hal_nand.c ****         *(__IO uint8_t *)((uint32_t)(deviceaddress | ADDR_AREA)) = ADDR_2ND_CYCLE(nandaddress);
 853:/home/phong/Documents/thesis/stm32f4/stm-idf/components/stm32f4xx_hal_driver/stm32f4xx_hal_nand.c ****         *(__IO uint8_t *)((uint32_t)(deviceaddress | ADDR_AREA)) = ADDR_3RD_CYCLE(nandaddress);
 854:/home/phong/Documents/thesis/stm32f4/stm-idf/components/stm32f4xx_hal_driver/stm32f4xx_hal_nand.c ****       }
 855:/home/phong/Documents/thesis/stm32f4/stm-idf/components/stm32f4xx_hal_driver/stm32f4xx_hal_nand.c ****     }
 856:/home/phong/Documents/thesis/stm32f4/stm-idf/components/stm32f4xx_hal_driver/stm32f4xx_hal_nand.c ****     else /* (hnand->Config.PageSize) > 512 */
 857:/home/phong/Documents/thesis/stm32f4/stm-idf/components/stm32f4xx_hal_driver/stm32f4xx_hal_nand.c ****     {
 858:/home/phong/Documents/thesis/stm32f4/stm-idf/components/stm32f4xx_hal_driver/stm32f4xx_hal_nand.c ****       if (((hnand->Config.BlockSize)*(hnand->Config.BlockNbr)) <= 65535U)
 859:/home/phong/Documents/thesis/stm32f4/stm-idf/components/stm32f4xx_hal_driver/stm32f4xx_hal_nand.c ****       {
 860:/home/phong/Documents/thesis/stm32f4/stm-idf/components/stm32f4xx_hal_driver/stm32f4xx_hal_nand.c ****         *(__IO uint8_t *)((uint32_t)(deviceaddress | ADDR_AREA)) = 0x00;
ARM GAS  /tmp/ccM6uMDT.s 			page 29


 861:/home/phong/Documents/thesis/stm32f4/stm-idf/components/stm32f4xx_hal_driver/stm32f4xx_hal_nand.c ****         *(__IO uint8_t *)((uint32_t)(deviceaddress | ADDR_AREA)) = 0x00;
 862:/home/phong/Documents/thesis/stm32f4/stm-idf/components/stm32f4xx_hal_driver/stm32f4xx_hal_nand.c ****         *(__IO uint8_t *)((uint32_t)(deviceaddress | ADDR_AREA)) = ADDR_1ST_CYCLE(nandaddress);
 863:/home/phong/Documents/thesis/stm32f4/stm-idf/components/stm32f4xx_hal_driver/stm32f4xx_hal_nand.c ****         *(__IO uint8_t *)((uint32_t)(deviceaddress | ADDR_AREA)) = ADDR_2ND_CYCLE(nandaddress);
 864:/home/phong/Documents/thesis/stm32f4/stm-idf/components/stm32f4xx_hal_driver/stm32f4xx_hal_nand.c ****       }
 865:/home/phong/Documents/thesis/stm32f4/stm-idf/components/stm32f4xx_hal_driver/stm32f4xx_hal_nand.c ****       else /* ((hnand->Config.BlockSize)*(hnand->Config.BlockNbr)) > 65535 */
 866:/home/phong/Documents/thesis/stm32f4/stm-idf/components/stm32f4xx_hal_driver/stm32f4xx_hal_nand.c ****       {
 867:/home/phong/Documents/thesis/stm32f4/stm-idf/components/stm32f4xx_hal_driver/stm32f4xx_hal_nand.c ****         *(__IO uint8_t *)((uint32_t)(deviceaddress | ADDR_AREA)) = 0x00;
 868:/home/phong/Documents/thesis/stm32f4/stm-idf/components/stm32f4xx_hal_driver/stm32f4xx_hal_nand.c ****         *(__IO uint8_t *)((uint32_t)(deviceaddress | ADDR_AREA)) = 0x00;
 869:/home/phong/Documents/thesis/stm32f4/stm-idf/components/stm32f4xx_hal_driver/stm32f4xx_hal_nand.c ****         *(__IO uint8_t *)((uint32_t)(deviceaddress | ADDR_AREA)) = ADDR_1ST_CYCLE(nandaddress);
 870:/home/phong/Documents/thesis/stm32f4/stm-idf/components/stm32f4xx_hal_driver/stm32f4xx_hal_nand.c ****         *(__IO uint8_t *)((uint32_t)(deviceaddress | ADDR_AREA)) = ADDR_2ND_CYCLE(nandaddress);
 871:/home/phong/Documents/thesis/stm32f4/stm-idf/components/stm32f4xx_hal_driver/stm32f4xx_hal_nand.c ****         __DSB();
 872:/home/phong/Documents/thesis/stm32f4/stm-idf/components/stm32f4xx_hal_driver/stm32f4xx_hal_nand.c ****         *(__IO uint8_t *)((uint32_t)(deviceaddress | ADDR_AREA)) = ADDR_3RD_CYCLE(nandaddress);
 873:/home/phong/Documents/thesis/stm32f4/stm-idf/components/stm32f4xx_hal_driver/stm32f4xx_hal_nand.c ****         __DSB();
 874:/home/phong/Documents/thesis/stm32f4/stm-idf/components/stm32f4xx_hal_driver/stm32f4xx_hal_nand.c ****       }
 875:/home/phong/Documents/thesis/stm32f4/stm-idf/components/stm32f4xx_hal_driver/stm32f4xx_hal_nand.c ****     }
 876:/home/phong/Documents/thesis/stm32f4/stm-idf/components/stm32f4xx_hal_driver/stm32f4xx_hal_nand.c ****   
 877:/home/phong/Documents/thesis/stm32f4/stm-idf/components/stm32f4xx_hal_driver/stm32f4xx_hal_nand.c **** 
 878:/home/phong/Documents/thesis/stm32f4/stm-idf/components/stm32f4xx_hal_driver/stm32f4xx_hal_nand.c ****     /* Write data to memory */
 879:/home/phong/Documents/thesis/stm32f4/stm-idf/components/stm32f4xx_hal_driver/stm32f4xx_hal_nand.c ****     for(; index < size; index++)
 880:/home/phong/Documents/thesis/stm32f4/stm-idf/components/stm32f4xx_hal_driver/stm32f4xx_hal_nand.c ****     {
 881:/home/phong/Documents/thesis/stm32f4/stm-idf/components/stm32f4xx_hal_driver/stm32f4xx_hal_nand.c ****       *(__IO uint8_t *)deviceaddress = *(uint8_t *)pBuffer++;
 882:/home/phong/Documents/thesis/stm32f4/stm-idf/components/stm32f4xx_hal_driver/stm32f4xx_hal_nand.c ****     }
 883:/home/phong/Documents/thesis/stm32f4/stm-idf/components/stm32f4xx_hal_driver/stm32f4xx_hal_nand.c ****    
 884:/home/phong/Documents/thesis/stm32f4/stm-idf/components/stm32f4xx_hal_driver/stm32f4xx_hal_nand.c ****     *(__IO uint8_t *)((uint32_t)(deviceaddress | CMD_AREA)) = NAND_CMD_WRITE_TRUE1;
 885:/home/phong/Documents/thesis/stm32f4/stm-idf/components/stm32f4xx_hal_driver/stm32f4xx_hal_nand.c **** 
 886:/home/phong/Documents/thesis/stm32f4/stm-idf/components/stm32f4xx_hal_driver/stm32f4xx_hal_nand.c ****     /* Get tick */
 887:/home/phong/Documents/thesis/stm32f4/stm-idf/components/stm32f4xx_hal_driver/stm32f4xx_hal_nand.c ****     tickstart = HAL_GetTick();
 888:/home/phong/Documents/thesis/stm32f4/stm-idf/components/stm32f4xx_hal_driver/stm32f4xx_hal_nand.c **** 
 889:/home/phong/Documents/thesis/stm32f4/stm-idf/components/stm32f4xx_hal_driver/stm32f4xx_hal_nand.c ****     /* Read status until NAND is ready */
 890:/home/phong/Documents/thesis/stm32f4/stm-idf/components/stm32f4xx_hal_driver/stm32f4xx_hal_nand.c ****     while(HAL_NAND_Read_Status(hnand) != NAND_READY)
 891:/home/phong/Documents/thesis/stm32f4/stm-idf/components/stm32f4xx_hal_driver/stm32f4xx_hal_nand.c ****     {
 892:/home/phong/Documents/thesis/stm32f4/stm-idf/components/stm32f4xx_hal_driver/stm32f4xx_hal_nand.c ****       
 893:/home/phong/Documents/thesis/stm32f4/stm-idf/components/stm32f4xx_hal_driver/stm32f4xx_hal_nand.c ****       if((HAL_GetTick() - tickstart ) > NAND_WRITE_TIMEOUT)
 894:/home/phong/Documents/thesis/stm32f4/stm-idf/components/stm32f4xx_hal_driver/stm32f4xx_hal_nand.c ****       {
 895:/home/phong/Documents/thesis/stm32f4/stm-idf/components/stm32f4xx_hal_driver/stm32f4xx_hal_nand.c ****         return HAL_TIMEOUT; 
 896:/home/phong/Documents/thesis/stm32f4/stm-idf/components/stm32f4xx_hal_driver/stm32f4xx_hal_nand.c ****       }
 897:/home/phong/Documents/thesis/stm32f4/stm-idf/components/stm32f4xx_hal_driver/stm32f4xx_hal_nand.c ****     }
 898:/home/phong/Documents/thesis/stm32f4/stm-idf/components/stm32f4xx_hal_driver/stm32f4xx_hal_nand.c ****  
 899:/home/phong/Documents/thesis/stm32f4/stm-idf/components/stm32f4xx_hal_driver/stm32f4xx_hal_nand.c ****     /* Increment written pages number */
 900:/home/phong/Documents/thesis/stm32f4/stm-idf/components/stm32f4xx_hal_driver/stm32f4xx_hal_nand.c ****     numPagesWritten++;
 901:/home/phong/Documents/thesis/stm32f4/stm-idf/components/stm32f4xx_hal_driver/stm32f4xx_hal_nand.c ****     
 902:/home/phong/Documents/thesis/stm32f4/stm-idf/components/stm32f4xx_hal_driver/stm32f4xx_hal_nand.c ****     /* Decrement pages to write */
 903:/home/phong/Documents/thesis/stm32f4/stm-idf/components/stm32f4xx_hal_driver/stm32f4xx_hal_nand.c ****     NumPageToWrite--;
 904:/home/phong/Documents/thesis/stm32f4/stm-idf/components/stm32f4xx_hal_driver/stm32f4xx_hal_nand.c ****     
 905:/home/phong/Documents/thesis/stm32f4/stm-idf/components/stm32f4xx_hal_driver/stm32f4xx_hal_nand.c ****     /* Increment the NAND address */
 906:/home/phong/Documents/thesis/stm32f4/stm-idf/components/stm32f4xx_hal_driver/stm32f4xx_hal_nand.c ****     nandaddress = (uint32_t)(nandaddress + 1U);
 907:/home/phong/Documents/thesis/stm32f4/stm-idf/components/stm32f4xx_hal_driver/stm32f4xx_hal_nand.c ****   }
 908:/home/phong/Documents/thesis/stm32f4/stm-idf/components/stm32f4xx_hal_driver/stm32f4xx_hal_nand.c ****   
 909:/home/phong/Documents/thesis/stm32f4/stm-idf/components/stm32f4xx_hal_driver/stm32f4xx_hal_nand.c ****   /* Update the NAND controller state */ 
 910:/home/phong/Documents/thesis/stm32f4/stm-idf/components/stm32f4xx_hal_driver/stm32f4xx_hal_nand.c ****   hnand->State = HAL_NAND_STATE_READY;
 911:/home/phong/Documents/thesis/stm32f4/stm-idf/components/stm32f4xx_hal_driver/stm32f4xx_hal_nand.c ****   
 912:/home/phong/Documents/thesis/stm32f4/stm-idf/components/stm32f4xx_hal_driver/stm32f4xx_hal_nand.c ****   /* Process unlocked */
 913:/home/phong/Documents/thesis/stm32f4/stm-idf/components/stm32f4xx_hal_driver/stm32f4xx_hal_nand.c ****   __HAL_UNLOCK(hnand);
 914:/home/phong/Documents/thesis/stm32f4/stm-idf/components/stm32f4xx_hal_driver/stm32f4xx_hal_nand.c ****   
 915:/home/phong/Documents/thesis/stm32f4/stm-idf/components/stm32f4xx_hal_driver/stm32f4xx_hal_nand.c ****   return HAL_OK;
 916:/home/phong/Documents/thesis/stm32f4/stm-idf/components/stm32f4xx_hal_driver/stm32f4xx_hal_nand.c **** }
 917:/home/phong/Documents/thesis/stm32f4/stm-idf/components/stm32f4xx_hal_driver/stm32f4xx_hal_nand.c **** 
ARM GAS  /tmp/ccM6uMDT.s 			page 30


 918:/home/phong/Documents/thesis/stm32f4/stm-idf/components/stm32f4xx_hal_driver/stm32f4xx_hal_nand.c **** /**
 919:/home/phong/Documents/thesis/stm32f4/stm-idf/components/stm32f4xx_hal_driver/stm32f4xx_hal_nand.c ****   * @brief  Write Page(s) to NAND memory block (16-bits addressing)
 920:/home/phong/Documents/thesis/stm32f4/stm-idf/components/stm32f4xx_hal_driver/stm32f4xx_hal_nand.c ****   * @param  hnand pointer to a NAND_HandleTypeDef structure that contains
 921:/home/phong/Documents/thesis/stm32f4/stm-idf/components/stm32f4xx_hal_driver/stm32f4xx_hal_nand.c ****   *                the configuration information for NAND module.
 922:/home/phong/Documents/thesis/stm32f4/stm-idf/components/stm32f4xx_hal_driver/stm32f4xx_hal_nand.c ****   * @param  pAddress  pointer to NAND address structure
 923:/home/phong/Documents/thesis/stm32f4/stm-idf/components/stm32f4xx_hal_driver/stm32f4xx_hal_nand.c ****   * @param  pBuffer  pointer to source buffer to write. pBuffer should be 16bits aligned
 924:/home/phong/Documents/thesis/stm32f4/stm-idf/components/stm32f4xx_hal_driver/stm32f4xx_hal_nand.c ****   * @param  NumPageToWrite   number of pages to write to block 
 925:/home/phong/Documents/thesis/stm32f4/stm-idf/components/stm32f4xx_hal_driver/stm32f4xx_hal_nand.c ****   * @retval HAL status
 926:/home/phong/Documents/thesis/stm32f4/stm-idf/components/stm32f4xx_hal_driver/stm32f4xx_hal_nand.c ****   */
 927:/home/phong/Documents/thesis/stm32f4/stm-idf/components/stm32f4xx_hal_driver/stm32f4xx_hal_nand.c **** HAL_StatusTypeDef HAL_NAND_Write_Page_16b(NAND_HandleTypeDef *hnand, NAND_AddressTypeDef *pAddress,
 928:/home/phong/Documents/thesis/stm32f4/stm-idf/components/stm32f4xx_hal_driver/stm32f4xx_hal_nand.c **** {
 929:/home/phong/Documents/thesis/stm32f4/stm-idf/components/stm32f4xx_hal_driver/stm32f4xx_hal_nand.c ****   __IO uint32_t index = 0U;
 930:/home/phong/Documents/thesis/stm32f4/stm-idf/components/stm32f4xx_hal_driver/stm32f4xx_hal_nand.c ****   uint32_t tickstart = 0U;
 931:/home/phong/Documents/thesis/stm32f4/stm-idf/components/stm32f4xx_hal_driver/stm32f4xx_hal_nand.c ****   uint32_t deviceaddress = 0U, size = 0U, numPagesWritten = 0U, nandaddress = 0U;
 932:/home/phong/Documents/thesis/stm32f4/stm-idf/components/stm32f4xx_hal_driver/stm32f4xx_hal_nand.c ****   
 933:/home/phong/Documents/thesis/stm32f4/stm-idf/components/stm32f4xx_hal_driver/stm32f4xx_hal_nand.c ****   /* Process Locked */
 934:/home/phong/Documents/thesis/stm32f4/stm-idf/components/stm32f4xx_hal_driver/stm32f4xx_hal_nand.c ****   __HAL_LOCK(hnand);  
 935:/home/phong/Documents/thesis/stm32f4/stm-idf/components/stm32f4xx_hal_driver/stm32f4xx_hal_nand.c **** 
 936:/home/phong/Documents/thesis/stm32f4/stm-idf/components/stm32f4xx_hal_driver/stm32f4xx_hal_nand.c ****   /* Check the NAND controller state */
 937:/home/phong/Documents/thesis/stm32f4/stm-idf/components/stm32f4xx_hal_driver/stm32f4xx_hal_nand.c ****   if(hnand->State == HAL_NAND_STATE_BUSY)
 938:/home/phong/Documents/thesis/stm32f4/stm-idf/components/stm32f4xx_hal_driver/stm32f4xx_hal_nand.c ****   {
 939:/home/phong/Documents/thesis/stm32f4/stm-idf/components/stm32f4xx_hal_driver/stm32f4xx_hal_nand.c ****      return HAL_BUSY;
 940:/home/phong/Documents/thesis/stm32f4/stm-idf/components/stm32f4xx_hal_driver/stm32f4xx_hal_nand.c ****   }
 941:/home/phong/Documents/thesis/stm32f4/stm-idf/components/stm32f4xx_hal_driver/stm32f4xx_hal_nand.c ****   
 942:/home/phong/Documents/thesis/stm32f4/stm-idf/components/stm32f4xx_hal_driver/stm32f4xx_hal_nand.c ****   /* Identify the device address */
 943:/home/phong/Documents/thesis/stm32f4/stm-idf/components/stm32f4xx_hal_driver/stm32f4xx_hal_nand.c ****   if(hnand->Init.NandBank == FMC_NAND_BANK2)
 944:/home/phong/Documents/thesis/stm32f4/stm-idf/components/stm32f4xx_hal_driver/stm32f4xx_hal_nand.c ****   {
 945:/home/phong/Documents/thesis/stm32f4/stm-idf/components/stm32f4xx_hal_driver/stm32f4xx_hal_nand.c ****     deviceaddress = NAND_DEVICE1;
 946:/home/phong/Documents/thesis/stm32f4/stm-idf/components/stm32f4xx_hal_driver/stm32f4xx_hal_nand.c ****   }
 947:/home/phong/Documents/thesis/stm32f4/stm-idf/components/stm32f4xx_hal_driver/stm32f4xx_hal_nand.c ****   else
 948:/home/phong/Documents/thesis/stm32f4/stm-idf/components/stm32f4xx_hal_driver/stm32f4xx_hal_nand.c ****   {
 949:/home/phong/Documents/thesis/stm32f4/stm-idf/components/stm32f4xx_hal_driver/stm32f4xx_hal_nand.c ****     deviceaddress = NAND_DEVICE2;
 950:/home/phong/Documents/thesis/stm32f4/stm-idf/components/stm32f4xx_hal_driver/stm32f4xx_hal_nand.c ****   }
 951:/home/phong/Documents/thesis/stm32f4/stm-idf/components/stm32f4xx_hal_driver/stm32f4xx_hal_nand.c ****   
 952:/home/phong/Documents/thesis/stm32f4/stm-idf/components/stm32f4xx_hal_driver/stm32f4xx_hal_nand.c ****   /* Update the NAND controller state */ 
 953:/home/phong/Documents/thesis/stm32f4/stm-idf/components/stm32f4xx_hal_driver/stm32f4xx_hal_nand.c ****   hnand->State = HAL_NAND_STATE_BUSY;
 954:/home/phong/Documents/thesis/stm32f4/stm-idf/components/stm32f4xx_hal_driver/stm32f4xx_hal_nand.c ****   
 955:/home/phong/Documents/thesis/stm32f4/stm-idf/components/stm32f4xx_hal_driver/stm32f4xx_hal_nand.c ****   /* NAND raw address calculation */
 956:/home/phong/Documents/thesis/stm32f4/stm-idf/components/stm32f4xx_hal_driver/stm32f4xx_hal_nand.c ****   nandaddress = ARRAY_ADDRESS(pAddress, hnand);
 957:/home/phong/Documents/thesis/stm32f4/stm-idf/components/stm32f4xx_hal_driver/stm32f4xx_hal_nand.c ****   
 958:/home/phong/Documents/thesis/stm32f4/stm-idf/components/stm32f4xx_hal_driver/stm32f4xx_hal_nand.c ****   /* Page(s) write loop */
 959:/home/phong/Documents/thesis/stm32f4/stm-idf/components/stm32f4xx_hal_driver/stm32f4xx_hal_nand.c ****   while((NumPageToWrite != 0U) && (nandaddress < ((hnand->Config.BlockSize) * (hnand->Config.BlockN
 960:/home/phong/Documents/thesis/stm32f4/stm-idf/components/stm32f4xx_hal_driver/stm32f4xx_hal_nand.c ****   {
 961:/home/phong/Documents/thesis/stm32f4/stm-idf/components/stm32f4xx_hal_driver/stm32f4xx_hal_nand.c ****     /* update the buffer size */
 962:/home/phong/Documents/thesis/stm32f4/stm-idf/components/stm32f4xx_hal_driver/stm32f4xx_hal_nand.c ****     size = (hnand->Config.PageSize) + ((hnand->Config.PageSize) * numPagesWritten);
 963:/home/phong/Documents/thesis/stm32f4/stm-idf/components/stm32f4xx_hal_driver/stm32f4xx_hal_nand.c ****  
 964:/home/phong/Documents/thesis/stm32f4/stm-idf/components/stm32f4xx_hal_driver/stm32f4xx_hal_nand.c ****     /* Send write page command sequence */
 965:/home/phong/Documents/thesis/stm32f4/stm-idf/components/stm32f4xx_hal_driver/stm32f4xx_hal_nand.c ****     *(__IO uint8_t *)((uint32_t)(deviceaddress | CMD_AREA)) = NAND_CMD_AREA_A;
 966:/home/phong/Documents/thesis/stm32f4/stm-idf/components/stm32f4xx_hal_driver/stm32f4xx_hal_nand.c ****     __DSB();
 967:/home/phong/Documents/thesis/stm32f4/stm-idf/components/stm32f4xx_hal_driver/stm32f4xx_hal_nand.c ****     *(__IO uint8_t *)((uint32_t)(deviceaddress | CMD_AREA)) = NAND_CMD_WRITE0;
 968:/home/phong/Documents/thesis/stm32f4/stm-idf/components/stm32f4xx_hal_driver/stm32f4xx_hal_nand.c ****     __DSB();
 969:/home/phong/Documents/thesis/stm32f4/stm-idf/components/stm32f4xx_hal_driver/stm32f4xx_hal_nand.c **** 
 970:/home/phong/Documents/thesis/stm32f4/stm-idf/components/stm32f4xx_hal_driver/stm32f4xx_hal_nand.c ****     /* Cards with page size <= 512 bytes */
 971:/home/phong/Documents/thesis/stm32f4/stm-idf/components/stm32f4xx_hal_driver/stm32f4xx_hal_nand.c ****     if((hnand->Config.PageSize) <= 512U)
 972:/home/phong/Documents/thesis/stm32f4/stm-idf/components/stm32f4xx_hal_driver/stm32f4xx_hal_nand.c ****     {
 973:/home/phong/Documents/thesis/stm32f4/stm-idf/components/stm32f4xx_hal_driver/stm32f4xx_hal_nand.c ****       if (((hnand->Config.BlockSize)*(hnand->Config.BlockNbr)) <= 65535U)
 974:/home/phong/Documents/thesis/stm32f4/stm-idf/components/stm32f4xx_hal_driver/stm32f4xx_hal_nand.c ****       {
ARM GAS  /tmp/ccM6uMDT.s 			page 31


 975:/home/phong/Documents/thesis/stm32f4/stm-idf/components/stm32f4xx_hal_driver/stm32f4xx_hal_nand.c ****         *(__IO uint8_t *)((uint32_t)(deviceaddress | ADDR_AREA)) = 0x00;
 976:/home/phong/Documents/thesis/stm32f4/stm-idf/components/stm32f4xx_hal_driver/stm32f4xx_hal_nand.c ****         *(__IO uint8_t *)((uint32_t)(deviceaddress | ADDR_AREA)) = ADDR_1ST_CYCLE(nandaddress);
 977:/home/phong/Documents/thesis/stm32f4/stm-idf/components/stm32f4xx_hal_driver/stm32f4xx_hal_nand.c ****         *(__IO uint8_t *)((uint32_t)(deviceaddress | ADDR_AREA)) = ADDR_2ND_CYCLE(nandaddress);
 978:/home/phong/Documents/thesis/stm32f4/stm-idf/components/stm32f4xx_hal_driver/stm32f4xx_hal_nand.c ****       }
 979:/home/phong/Documents/thesis/stm32f4/stm-idf/components/stm32f4xx_hal_driver/stm32f4xx_hal_nand.c ****       else /* ((hnand->Config.BlockSize)*(hnand->Config.BlockNbr)) > 65535 */
 980:/home/phong/Documents/thesis/stm32f4/stm-idf/components/stm32f4xx_hal_driver/stm32f4xx_hal_nand.c ****       {
 981:/home/phong/Documents/thesis/stm32f4/stm-idf/components/stm32f4xx_hal_driver/stm32f4xx_hal_nand.c ****         *(__IO uint8_t *)((uint32_t)(deviceaddress | ADDR_AREA)) = 0x00;
 982:/home/phong/Documents/thesis/stm32f4/stm-idf/components/stm32f4xx_hal_driver/stm32f4xx_hal_nand.c ****         *(__IO uint8_t *)((uint32_t)(deviceaddress | ADDR_AREA)) = ADDR_1ST_CYCLE(nandaddress);
 983:/home/phong/Documents/thesis/stm32f4/stm-idf/components/stm32f4xx_hal_driver/stm32f4xx_hal_nand.c ****         *(__IO uint8_t *)((uint32_t)(deviceaddress | ADDR_AREA)) = ADDR_2ND_CYCLE(nandaddress);
 984:/home/phong/Documents/thesis/stm32f4/stm-idf/components/stm32f4xx_hal_driver/stm32f4xx_hal_nand.c ****         *(__IO uint8_t *)((uint32_t)(deviceaddress | ADDR_AREA)) = ADDR_3RD_CYCLE(nandaddress);
 985:/home/phong/Documents/thesis/stm32f4/stm-idf/components/stm32f4xx_hal_driver/stm32f4xx_hal_nand.c ****       }
 986:/home/phong/Documents/thesis/stm32f4/stm-idf/components/stm32f4xx_hal_driver/stm32f4xx_hal_nand.c ****     }
 987:/home/phong/Documents/thesis/stm32f4/stm-idf/components/stm32f4xx_hal_driver/stm32f4xx_hal_nand.c ****     else /* (hnand->Config.PageSize) > 512 */
 988:/home/phong/Documents/thesis/stm32f4/stm-idf/components/stm32f4xx_hal_driver/stm32f4xx_hal_nand.c ****     {
 989:/home/phong/Documents/thesis/stm32f4/stm-idf/components/stm32f4xx_hal_driver/stm32f4xx_hal_nand.c ****       if (((hnand->Config.BlockSize)*(hnand->Config.BlockNbr)) <= 65535U)
 990:/home/phong/Documents/thesis/stm32f4/stm-idf/components/stm32f4xx_hal_driver/stm32f4xx_hal_nand.c ****       {
 991:/home/phong/Documents/thesis/stm32f4/stm-idf/components/stm32f4xx_hal_driver/stm32f4xx_hal_nand.c ****         *(__IO uint8_t *)((uint32_t)(deviceaddress | ADDR_AREA)) = 0x00;
 992:/home/phong/Documents/thesis/stm32f4/stm-idf/components/stm32f4xx_hal_driver/stm32f4xx_hal_nand.c ****         *(__IO uint8_t *)((uint32_t)(deviceaddress | ADDR_AREA)) = 0x00;
 993:/home/phong/Documents/thesis/stm32f4/stm-idf/components/stm32f4xx_hal_driver/stm32f4xx_hal_nand.c ****         *(__IO uint8_t *)((uint32_t)(deviceaddress | ADDR_AREA)) = ADDR_1ST_CYCLE(nandaddress);
 994:/home/phong/Documents/thesis/stm32f4/stm-idf/components/stm32f4xx_hal_driver/stm32f4xx_hal_nand.c ****         *(__IO uint8_t *)((uint32_t)(deviceaddress | ADDR_AREA)) = ADDR_2ND_CYCLE(nandaddress);
 995:/home/phong/Documents/thesis/stm32f4/stm-idf/components/stm32f4xx_hal_driver/stm32f4xx_hal_nand.c ****       }
 996:/home/phong/Documents/thesis/stm32f4/stm-idf/components/stm32f4xx_hal_driver/stm32f4xx_hal_nand.c ****       else /* ((hnand->Config.BlockSize)*(hnand->Config.BlockNbr)) > 65535 */
 997:/home/phong/Documents/thesis/stm32f4/stm-idf/components/stm32f4xx_hal_driver/stm32f4xx_hal_nand.c ****       {
 998:/home/phong/Documents/thesis/stm32f4/stm-idf/components/stm32f4xx_hal_driver/stm32f4xx_hal_nand.c ****         *(__IO uint8_t *)((uint32_t)(deviceaddress | ADDR_AREA)) = 0x00;
 999:/home/phong/Documents/thesis/stm32f4/stm-idf/components/stm32f4xx_hal_driver/stm32f4xx_hal_nand.c ****         *(__IO uint8_t *)((uint32_t)(deviceaddress | ADDR_AREA)) = 0x00;
1000:/home/phong/Documents/thesis/stm32f4/stm-idf/components/stm32f4xx_hal_driver/stm32f4xx_hal_nand.c ****         *(__IO uint8_t *)((uint32_t)(deviceaddress | ADDR_AREA)) = ADDR_1ST_CYCLE(nandaddress);
1001:/home/phong/Documents/thesis/stm32f4/stm-idf/components/stm32f4xx_hal_driver/stm32f4xx_hal_nand.c ****         *(__IO uint8_t *)((uint32_t)(deviceaddress | ADDR_AREA)) = ADDR_2ND_CYCLE(nandaddress);
1002:/home/phong/Documents/thesis/stm32f4/stm-idf/components/stm32f4xx_hal_driver/stm32f4xx_hal_nand.c ****         *(__IO uint8_t *)((uint32_t)(deviceaddress | ADDR_AREA)) = ADDR_3RD_CYCLE(nandaddress);
1003:/home/phong/Documents/thesis/stm32f4/stm-idf/components/stm32f4xx_hal_driver/stm32f4xx_hal_nand.c ****       }
1004:/home/phong/Documents/thesis/stm32f4/stm-idf/components/stm32f4xx_hal_driver/stm32f4xx_hal_nand.c ****     }
1005:/home/phong/Documents/thesis/stm32f4/stm-idf/components/stm32f4xx_hal_driver/stm32f4xx_hal_nand.c ****   
1006:/home/phong/Documents/thesis/stm32f4/stm-idf/components/stm32f4xx_hal_driver/stm32f4xx_hal_nand.c ****     /* Write data to memory */
1007:/home/phong/Documents/thesis/stm32f4/stm-idf/components/stm32f4xx_hal_driver/stm32f4xx_hal_nand.c ****     for(; index < size; index++)
1008:/home/phong/Documents/thesis/stm32f4/stm-idf/components/stm32f4xx_hal_driver/stm32f4xx_hal_nand.c ****     {
1009:/home/phong/Documents/thesis/stm32f4/stm-idf/components/stm32f4xx_hal_driver/stm32f4xx_hal_nand.c ****       *(__IO uint16_t *)deviceaddress = *(uint16_t *)pBuffer++;
1010:/home/phong/Documents/thesis/stm32f4/stm-idf/components/stm32f4xx_hal_driver/stm32f4xx_hal_nand.c ****     }
1011:/home/phong/Documents/thesis/stm32f4/stm-idf/components/stm32f4xx_hal_driver/stm32f4xx_hal_nand.c ****    
1012:/home/phong/Documents/thesis/stm32f4/stm-idf/components/stm32f4xx_hal_driver/stm32f4xx_hal_nand.c ****     *(__IO uint8_t *)((uint32_t)(deviceaddress | CMD_AREA)) = NAND_CMD_WRITE_TRUE1;
1013:/home/phong/Documents/thesis/stm32f4/stm-idf/components/stm32f4xx_hal_driver/stm32f4xx_hal_nand.c ****     
1014:/home/phong/Documents/thesis/stm32f4/stm-idf/components/stm32f4xx_hal_driver/stm32f4xx_hal_nand.c ****     /* Get tick */
1015:/home/phong/Documents/thesis/stm32f4/stm-idf/components/stm32f4xx_hal_driver/stm32f4xx_hal_nand.c ****     tickstart = HAL_GetTick();
1016:/home/phong/Documents/thesis/stm32f4/stm-idf/components/stm32f4xx_hal_driver/stm32f4xx_hal_nand.c **** 
1017:/home/phong/Documents/thesis/stm32f4/stm-idf/components/stm32f4xx_hal_driver/stm32f4xx_hal_nand.c ****     /* Read status until NAND is ready */
1018:/home/phong/Documents/thesis/stm32f4/stm-idf/components/stm32f4xx_hal_driver/stm32f4xx_hal_nand.c ****     while(HAL_NAND_Read_Status(hnand) != NAND_READY)
1019:/home/phong/Documents/thesis/stm32f4/stm-idf/components/stm32f4xx_hal_driver/stm32f4xx_hal_nand.c ****     { 
1020:/home/phong/Documents/thesis/stm32f4/stm-idf/components/stm32f4xx_hal_driver/stm32f4xx_hal_nand.c ****       if((HAL_GetTick() - tickstart ) > NAND_WRITE_TIMEOUT)
1021:/home/phong/Documents/thesis/stm32f4/stm-idf/components/stm32f4xx_hal_driver/stm32f4xx_hal_nand.c ****       {
1022:/home/phong/Documents/thesis/stm32f4/stm-idf/components/stm32f4xx_hal_driver/stm32f4xx_hal_nand.c ****         return HAL_TIMEOUT; 
1023:/home/phong/Documents/thesis/stm32f4/stm-idf/components/stm32f4xx_hal_driver/stm32f4xx_hal_nand.c ****       } 
1024:/home/phong/Documents/thesis/stm32f4/stm-idf/components/stm32f4xx_hal_driver/stm32f4xx_hal_nand.c ****     }   
1025:/home/phong/Documents/thesis/stm32f4/stm-idf/components/stm32f4xx_hal_driver/stm32f4xx_hal_nand.c ****  
1026:/home/phong/Documents/thesis/stm32f4/stm-idf/components/stm32f4xx_hal_driver/stm32f4xx_hal_nand.c ****     /* Increment written pages number */
1027:/home/phong/Documents/thesis/stm32f4/stm-idf/components/stm32f4xx_hal_driver/stm32f4xx_hal_nand.c ****     numPagesWritten++;
1028:/home/phong/Documents/thesis/stm32f4/stm-idf/components/stm32f4xx_hal_driver/stm32f4xx_hal_nand.c ****     
1029:/home/phong/Documents/thesis/stm32f4/stm-idf/components/stm32f4xx_hal_driver/stm32f4xx_hal_nand.c ****     /* Decrement pages to write */
1030:/home/phong/Documents/thesis/stm32f4/stm-idf/components/stm32f4xx_hal_driver/stm32f4xx_hal_nand.c ****     NumPageToWrite--;
1031:/home/phong/Documents/thesis/stm32f4/stm-idf/components/stm32f4xx_hal_driver/stm32f4xx_hal_nand.c ****     
ARM GAS  /tmp/ccM6uMDT.s 			page 32


1032:/home/phong/Documents/thesis/stm32f4/stm-idf/components/stm32f4xx_hal_driver/stm32f4xx_hal_nand.c ****     /* Increment the NAND address */
1033:/home/phong/Documents/thesis/stm32f4/stm-idf/components/stm32f4xx_hal_driver/stm32f4xx_hal_nand.c ****     nandaddress = (uint32_t)(nandaddress + 1U);
1034:/home/phong/Documents/thesis/stm32f4/stm-idf/components/stm32f4xx_hal_driver/stm32f4xx_hal_nand.c ****   }
1035:/home/phong/Documents/thesis/stm32f4/stm-idf/components/stm32f4xx_hal_driver/stm32f4xx_hal_nand.c ****   
1036:/home/phong/Documents/thesis/stm32f4/stm-idf/components/stm32f4xx_hal_driver/stm32f4xx_hal_nand.c ****   /* Update the NAND controller state */ 
1037:/home/phong/Documents/thesis/stm32f4/stm-idf/components/stm32f4xx_hal_driver/stm32f4xx_hal_nand.c ****   hnand->State = HAL_NAND_STATE_READY;
1038:/home/phong/Documents/thesis/stm32f4/stm-idf/components/stm32f4xx_hal_driver/stm32f4xx_hal_nand.c ****   
1039:/home/phong/Documents/thesis/stm32f4/stm-idf/components/stm32f4xx_hal_driver/stm32f4xx_hal_nand.c ****   /* Process unlocked */
1040:/home/phong/Documents/thesis/stm32f4/stm-idf/components/stm32f4xx_hal_driver/stm32f4xx_hal_nand.c ****   __HAL_UNLOCK(hnand);      
1041:/home/phong/Documents/thesis/stm32f4/stm-idf/components/stm32f4xx_hal_driver/stm32f4xx_hal_nand.c ****   
1042:/home/phong/Documents/thesis/stm32f4/stm-idf/components/stm32f4xx_hal_driver/stm32f4xx_hal_nand.c ****   return HAL_OK;
1043:/home/phong/Documents/thesis/stm32f4/stm-idf/components/stm32f4xx_hal_driver/stm32f4xx_hal_nand.c **** }
1044:/home/phong/Documents/thesis/stm32f4/stm-idf/components/stm32f4xx_hal_driver/stm32f4xx_hal_nand.c **** 
1045:/home/phong/Documents/thesis/stm32f4/stm-idf/components/stm32f4xx_hal_driver/stm32f4xx_hal_nand.c **** /**
1046:/home/phong/Documents/thesis/stm32f4/stm-idf/components/stm32f4xx_hal_driver/stm32f4xx_hal_nand.c ****   * @brief  Read Spare area(s) from NAND memory 
1047:/home/phong/Documents/thesis/stm32f4/stm-idf/components/stm32f4xx_hal_driver/stm32f4xx_hal_nand.c ****   * @param  hnand pointer to a NAND_HandleTypeDef structure that contains
1048:/home/phong/Documents/thesis/stm32f4/stm-idf/components/stm32f4xx_hal_driver/stm32f4xx_hal_nand.c ****   *                the configuration information for NAND module.
1049:/home/phong/Documents/thesis/stm32f4/stm-idf/components/stm32f4xx_hal_driver/stm32f4xx_hal_nand.c ****   * @param  pAddress  pointer to NAND address structure
1050:/home/phong/Documents/thesis/stm32f4/stm-idf/components/stm32f4xx_hal_driver/stm32f4xx_hal_nand.c ****   * @param  pBuffer pointer to source buffer to write  
1051:/home/phong/Documents/thesis/stm32f4/stm-idf/components/stm32f4xx_hal_driver/stm32f4xx_hal_nand.c ****   * @param  NumSpareAreaToRead Number of spare area to read  
1052:/home/phong/Documents/thesis/stm32f4/stm-idf/components/stm32f4xx_hal_driver/stm32f4xx_hal_nand.c ****   * @retval HAL status
1053:/home/phong/Documents/thesis/stm32f4/stm-idf/components/stm32f4xx_hal_driver/stm32f4xx_hal_nand.c **** */
1054:/home/phong/Documents/thesis/stm32f4/stm-idf/components/stm32f4xx_hal_driver/stm32f4xx_hal_nand.c **** HAL_StatusTypeDef HAL_NAND_Read_SpareArea_8b(NAND_HandleTypeDef *hnand, NAND_AddressTypeDef *pAddre
1055:/home/phong/Documents/thesis/stm32f4/stm-idf/components/stm32f4xx_hal_driver/stm32f4xx_hal_nand.c **** {
1056:/home/phong/Documents/thesis/stm32f4/stm-idf/components/stm32f4xx_hal_driver/stm32f4xx_hal_nand.c ****   __IO uint32_t index = 0U;
1057:/home/phong/Documents/thesis/stm32f4/stm-idf/components/stm32f4xx_hal_driver/stm32f4xx_hal_nand.c ****   uint32_t tickstart = 0U;
1058:/home/phong/Documents/thesis/stm32f4/stm-idf/components/stm32f4xx_hal_driver/stm32f4xx_hal_nand.c ****   uint32_t deviceaddress = 0U, size = 0U, numSpareAreaRead = 0U, nandaddress = 0U, columnaddress = 
1059:/home/phong/Documents/thesis/stm32f4/stm-idf/components/stm32f4xx_hal_driver/stm32f4xx_hal_nand.c ****   
1060:/home/phong/Documents/thesis/stm32f4/stm-idf/components/stm32f4xx_hal_driver/stm32f4xx_hal_nand.c ****   /* Process Locked */
1061:/home/phong/Documents/thesis/stm32f4/stm-idf/components/stm32f4xx_hal_driver/stm32f4xx_hal_nand.c ****   __HAL_LOCK(hnand);  
1062:/home/phong/Documents/thesis/stm32f4/stm-idf/components/stm32f4xx_hal_driver/stm32f4xx_hal_nand.c ****   
1063:/home/phong/Documents/thesis/stm32f4/stm-idf/components/stm32f4xx_hal_driver/stm32f4xx_hal_nand.c ****   /* Check the NAND controller state */
1064:/home/phong/Documents/thesis/stm32f4/stm-idf/components/stm32f4xx_hal_driver/stm32f4xx_hal_nand.c ****   if(hnand->State == HAL_NAND_STATE_BUSY)
1065:/home/phong/Documents/thesis/stm32f4/stm-idf/components/stm32f4xx_hal_driver/stm32f4xx_hal_nand.c ****   {
1066:/home/phong/Documents/thesis/stm32f4/stm-idf/components/stm32f4xx_hal_driver/stm32f4xx_hal_nand.c ****      return HAL_BUSY;
1067:/home/phong/Documents/thesis/stm32f4/stm-idf/components/stm32f4xx_hal_driver/stm32f4xx_hal_nand.c ****   }
1068:/home/phong/Documents/thesis/stm32f4/stm-idf/components/stm32f4xx_hal_driver/stm32f4xx_hal_nand.c ****   
1069:/home/phong/Documents/thesis/stm32f4/stm-idf/components/stm32f4xx_hal_driver/stm32f4xx_hal_nand.c ****   /* Identify the device address */
1070:/home/phong/Documents/thesis/stm32f4/stm-idf/components/stm32f4xx_hal_driver/stm32f4xx_hal_nand.c ****   if(hnand->Init.NandBank == FMC_NAND_BANK2)
1071:/home/phong/Documents/thesis/stm32f4/stm-idf/components/stm32f4xx_hal_driver/stm32f4xx_hal_nand.c ****   {
1072:/home/phong/Documents/thesis/stm32f4/stm-idf/components/stm32f4xx_hal_driver/stm32f4xx_hal_nand.c ****     deviceaddress = NAND_DEVICE1;
1073:/home/phong/Documents/thesis/stm32f4/stm-idf/components/stm32f4xx_hal_driver/stm32f4xx_hal_nand.c ****   }
1074:/home/phong/Documents/thesis/stm32f4/stm-idf/components/stm32f4xx_hal_driver/stm32f4xx_hal_nand.c ****   else
1075:/home/phong/Documents/thesis/stm32f4/stm-idf/components/stm32f4xx_hal_driver/stm32f4xx_hal_nand.c ****   {
1076:/home/phong/Documents/thesis/stm32f4/stm-idf/components/stm32f4xx_hal_driver/stm32f4xx_hal_nand.c ****     deviceaddress = NAND_DEVICE2;
1077:/home/phong/Documents/thesis/stm32f4/stm-idf/components/stm32f4xx_hal_driver/stm32f4xx_hal_nand.c ****   }
1078:/home/phong/Documents/thesis/stm32f4/stm-idf/components/stm32f4xx_hal_driver/stm32f4xx_hal_nand.c ****   
1079:/home/phong/Documents/thesis/stm32f4/stm-idf/components/stm32f4xx_hal_driver/stm32f4xx_hal_nand.c ****   /* Update the NAND controller state */
1080:/home/phong/Documents/thesis/stm32f4/stm-idf/components/stm32f4xx_hal_driver/stm32f4xx_hal_nand.c ****   hnand->State = HAL_NAND_STATE_BUSY;
1081:/home/phong/Documents/thesis/stm32f4/stm-idf/components/stm32f4xx_hal_driver/stm32f4xx_hal_nand.c ****   
1082:/home/phong/Documents/thesis/stm32f4/stm-idf/components/stm32f4xx_hal_driver/stm32f4xx_hal_nand.c ****   /* NAND raw address calculation */
1083:/home/phong/Documents/thesis/stm32f4/stm-idf/components/stm32f4xx_hal_driver/stm32f4xx_hal_nand.c ****   nandaddress = ARRAY_ADDRESS(pAddress, hnand);
1084:/home/phong/Documents/thesis/stm32f4/stm-idf/components/stm32f4xx_hal_driver/stm32f4xx_hal_nand.c ****   
1085:/home/phong/Documents/thesis/stm32f4/stm-idf/components/stm32f4xx_hal_driver/stm32f4xx_hal_nand.c ****   /* Column in page address */
1086:/home/phong/Documents/thesis/stm32f4/stm-idf/components/stm32f4xx_hal_driver/stm32f4xx_hal_nand.c ****   columnaddress = COLUMN_ADDRESS(hnand);
1087:/home/phong/Documents/thesis/stm32f4/stm-idf/components/stm32f4xx_hal_driver/stm32f4xx_hal_nand.c ****   
1088:/home/phong/Documents/thesis/stm32f4/stm-idf/components/stm32f4xx_hal_driver/stm32f4xx_hal_nand.c ****   /* Spare area(s) read loop */ 
ARM GAS  /tmp/ccM6uMDT.s 			page 33


1089:/home/phong/Documents/thesis/stm32f4/stm-idf/components/stm32f4xx_hal_driver/stm32f4xx_hal_nand.c ****   while((NumSpareAreaToRead != 0U) && (nandaddress < ((hnand->Config.BlockSize) * (hnand->Config.Bl
1090:/home/phong/Documents/thesis/stm32f4/stm-idf/components/stm32f4xx_hal_driver/stm32f4xx_hal_nand.c ****   {     
1091:/home/phong/Documents/thesis/stm32f4/stm-idf/components/stm32f4xx_hal_driver/stm32f4xx_hal_nand.c ****     /* update the buffer size */
1092:/home/phong/Documents/thesis/stm32f4/stm-idf/components/stm32f4xx_hal_driver/stm32f4xx_hal_nand.c ****     size = (hnand->Config.SpareAreaSize) + ((hnand->Config.SpareAreaSize) * numSpareAreaRead);
1093:/home/phong/Documents/thesis/stm32f4/stm-idf/components/stm32f4xx_hal_driver/stm32f4xx_hal_nand.c **** 
1094:/home/phong/Documents/thesis/stm32f4/stm-idf/components/stm32f4xx_hal_driver/stm32f4xx_hal_nand.c ****     /* Cards with page size <= 512 bytes */
1095:/home/phong/Documents/thesis/stm32f4/stm-idf/components/stm32f4xx_hal_driver/stm32f4xx_hal_nand.c ****     if((hnand->Config.PageSize) <= 512U)
1096:/home/phong/Documents/thesis/stm32f4/stm-idf/components/stm32f4xx_hal_driver/stm32f4xx_hal_nand.c ****     {
1097:/home/phong/Documents/thesis/stm32f4/stm-idf/components/stm32f4xx_hal_driver/stm32f4xx_hal_nand.c ****       /* Send read spare area command sequence */     
1098:/home/phong/Documents/thesis/stm32f4/stm-idf/components/stm32f4xx_hal_driver/stm32f4xx_hal_nand.c ****       *(__IO uint8_t *)((uint32_t)(deviceaddress | CMD_AREA)) = NAND_CMD_AREA_C;
1099:/home/phong/Documents/thesis/stm32f4/stm-idf/components/stm32f4xx_hal_driver/stm32f4xx_hal_nand.c ****       
1100:/home/phong/Documents/thesis/stm32f4/stm-idf/components/stm32f4xx_hal_driver/stm32f4xx_hal_nand.c ****       if (((hnand->Config.BlockSize)*(hnand->Config.BlockNbr)) <= 65535U)
1101:/home/phong/Documents/thesis/stm32f4/stm-idf/components/stm32f4xx_hal_driver/stm32f4xx_hal_nand.c ****       {
1102:/home/phong/Documents/thesis/stm32f4/stm-idf/components/stm32f4xx_hal_driver/stm32f4xx_hal_nand.c ****         *(__IO uint8_t *)((uint32_t)(deviceaddress | ADDR_AREA)) = 0x00;
1103:/home/phong/Documents/thesis/stm32f4/stm-idf/components/stm32f4xx_hal_driver/stm32f4xx_hal_nand.c ****         *(__IO uint8_t *)((uint32_t)(deviceaddress | ADDR_AREA)) = ADDR_1ST_CYCLE(nandaddress);
1104:/home/phong/Documents/thesis/stm32f4/stm-idf/components/stm32f4xx_hal_driver/stm32f4xx_hal_nand.c ****         *(__IO uint8_t *)((uint32_t)(deviceaddress | ADDR_AREA)) = ADDR_2ND_CYCLE(nandaddress);
1105:/home/phong/Documents/thesis/stm32f4/stm-idf/components/stm32f4xx_hal_driver/stm32f4xx_hal_nand.c ****       }
1106:/home/phong/Documents/thesis/stm32f4/stm-idf/components/stm32f4xx_hal_driver/stm32f4xx_hal_nand.c ****       else /* ((hnand->Config.BlockSize)*(hnand->Config.BlockNbr)) > 65535 */
1107:/home/phong/Documents/thesis/stm32f4/stm-idf/components/stm32f4xx_hal_driver/stm32f4xx_hal_nand.c ****       {
1108:/home/phong/Documents/thesis/stm32f4/stm-idf/components/stm32f4xx_hal_driver/stm32f4xx_hal_nand.c ****         *(__IO uint8_t *)((uint32_t)(deviceaddress | ADDR_AREA)) = 0x00;
1109:/home/phong/Documents/thesis/stm32f4/stm-idf/components/stm32f4xx_hal_driver/stm32f4xx_hal_nand.c ****         *(__IO uint8_t *)((uint32_t)(deviceaddress | ADDR_AREA)) = ADDR_1ST_CYCLE(nandaddress);
1110:/home/phong/Documents/thesis/stm32f4/stm-idf/components/stm32f4xx_hal_driver/stm32f4xx_hal_nand.c ****         *(__IO uint8_t *)((uint32_t)(deviceaddress | ADDR_AREA)) = ADDR_2ND_CYCLE(nandaddress);
1111:/home/phong/Documents/thesis/stm32f4/stm-idf/components/stm32f4xx_hal_driver/stm32f4xx_hal_nand.c ****         *(__IO uint8_t *)((uint32_t)(deviceaddress | ADDR_AREA)) = ADDR_3RD_CYCLE(nandaddress);
1112:/home/phong/Documents/thesis/stm32f4/stm-idf/components/stm32f4xx_hal_driver/stm32f4xx_hal_nand.c ****       }
1113:/home/phong/Documents/thesis/stm32f4/stm-idf/components/stm32f4xx_hal_driver/stm32f4xx_hal_nand.c ****     }
1114:/home/phong/Documents/thesis/stm32f4/stm-idf/components/stm32f4xx_hal_driver/stm32f4xx_hal_nand.c ****     else /* (hnand->Config.PageSize) > 512 */
1115:/home/phong/Documents/thesis/stm32f4/stm-idf/components/stm32f4xx_hal_driver/stm32f4xx_hal_nand.c ****     {
1116:/home/phong/Documents/thesis/stm32f4/stm-idf/components/stm32f4xx_hal_driver/stm32f4xx_hal_nand.c ****       /* Send read spare area command sequence */ 
1117:/home/phong/Documents/thesis/stm32f4/stm-idf/components/stm32f4xx_hal_driver/stm32f4xx_hal_nand.c ****       *(__IO uint8_t *)((uint32_t)(deviceaddress | CMD_AREA)) = NAND_CMD_AREA_A;
1118:/home/phong/Documents/thesis/stm32f4/stm-idf/components/stm32f4xx_hal_driver/stm32f4xx_hal_nand.c ****       
1119:/home/phong/Documents/thesis/stm32f4/stm-idf/components/stm32f4xx_hal_driver/stm32f4xx_hal_nand.c ****       if (((hnand->Config.BlockSize)*(hnand->Config.BlockNbr)) <= 65535U)
1120:/home/phong/Documents/thesis/stm32f4/stm-idf/components/stm32f4xx_hal_driver/stm32f4xx_hal_nand.c ****       {
1121:/home/phong/Documents/thesis/stm32f4/stm-idf/components/stm32f4xx_hal_driver/stm32f4xx_hal_nand.c ****         *(__IO uint8_t *)((uint32_t)(deviceaddress | ADDR_AREA)) = COLUMN_1ST_CYCLE(columnaddress);
1122:/home/phong/Documents/thesis/stm32f4/stm-idf/components/stm32f4xx_hal_driver/stm32f4xx_hal_nand.c ****         *(__IO uint8_t *)((uint32_t)(deviceaddress | ADDR_AREA)) = COLUMN_2ND_CYCLE(columnaddress);
1123:/home/phong/Documents/thesis/stm32f4/stm-idf/components/stm32f4xx_hal_driver/stm32f4xx_hal_nand.c ****         *(__IO uint8_t *)((uint32_t)(deviceaddress | ADDR_AREA)) = ADDR_1ST_CYCLE(nandaddress);
1124:/home/phong/Documents/thesis/stm32f4/stm-idf/components/stm32f4xx_hal_driver/stm32f4xx_hal_nand.c ****         *(__IO uint8_t *)((uint32_t)(deviceaddress | ADDR_AREA)) = ADDR_2ND_CYCLE(nandaddress);
1125:/home/phong/Documents/thesis/stm32f4/stm-idf/components/stm32f4xx_hal_driver/stm32f4xx_hal_nand.c ****       }
1126:/home/phong/Documents/thesis/stm32f4/stm-idf/components/stm32f4xx_hal_driver/stm32f4xx_hal_nand.c ****       else /* ((hnand->Config.BlockSize)*(hnand->Config.BlockNbr)) > 65535 */
1127:/home/phong/Documents/thesis/stm32f4/stm-idf/components/stm32f4xx_hal_driver/stm32f4xx_hal_nand.c ****       {
1128:/home/phong/Documents/thesis/stm32f4/stm-idf/components/stm32f4xx_hal_driver/stm32f4xx_hal_nand.c ****         *(__IO uint8_t *)((uint32_t)(deviceaddress | ADDR_AREA)) = COLUMN_1ST_CYCLE(columnaddress);
1129:/home/phong/Documents/thesis/stm32f4/stm-idf/components/stm32f4xx_hal_driver/stm32f4xx_hal_nand.c ****         *(__IO uint8_t *)((uint32_t)(deviceaddress | ADDR_AREA)) = COLUMN_2ND_CYCLE(columnaddress);
1130:/home/phong/Documents/thesis/stm32f4/stm-idf/components/stm32f4xx_hal_driver/stm32f4xx_hal_nand.c ****         *(__IO uint8_t *)((uint32_t)(deviceaddress | ADDR_AREA)) = ADDR_1ST_CYCLE(nandaddress);
1131:/home/phong/Documents/thesis/stm32f4/stm-idf/components/stm32f4xx_hal_driver/stm32f4xx_hal_nand.c ****         *(__IO uint8_t *)((uint32_t)(deviceaddress | ADDR_AREA)) = ADDR_2ND_CYCLE(nandaddress);
1132:/home/phong/Documents/thesis/stm32f4/stm-idf/components/stm32f4xx_hal_driver/stm32f4xx_hal_nand.c ****         *(__IO uint8_t *)((uint32_t)(deviceaddress | ADDR_AREA)) = ADDR_3RD_CYCLE(nandaddress);
1133:/home/phong/Documents/thesis/stm32f4/stm-idf/components/stm32f4xx_hal_driver/stm32f4xx_hal_nand.c ****       }
1134:/home/phong/Documents/thesis/stm32f4/stm-idf/components/stm32f4xx_hal_driver/stm32f4xx_hal_nand.c ****     }
1135:/home/phong/Documents/thesis/stm32f4/stm-idf/components/stm32f4xx_hal_driver/stm32f4xx_hal_nand.c **** 
1136:/home/phong/Documents/thesis/stm32f4/stm-idf/components/stm32f4xx_hal_driver/stm32f4xx_hal_nand.c ****     *(__IO uint8_t *)((uint32_t)(deviceaddress | CMD_AREA)) = NAND_CMD_AREA_TRUE1;
1137:/home/phong/Documents/thesis/stm32f4/stm-idf/components/stm32f4xx_hal_driver/stm32f4xx_hal_nand.c ****     
1138:/home/phong/Documents/thesis/stm32f4/stm-idf/components/stm32f4xx_hal_driver/stm32f4xx_hal_nand.c ****     if(hnand->Config.ExtraCommandEnable == ENABLE)
1139:/home/phong/Documents/thesis/stm32f4/stm-idf/components/stm32f4xx_hal_driver/stm32f4xx_hal_nand.c ****     {
1140:/home/phong/Documents/thesis/stm32f4/stm-idf/components/stm32f4xx_hal_driver/stm32f4xx_hal_nand.c ****       /* Get tick */
1141:/home/phong/Documents/thesis/stm32f4/stm-idf/components/stm32f4xx_hal_driver/stm32f4xx_hal_nand.c ****       tickstart = HAL_GetTick();
1142:/home/phong/Documents/thesis/stm32f4/stm-idf/components/stm32f4xx_hal_driver/stm32f4xx_hal_nand.c ****       
1143:/home/phong/Documents/thesis/stm32f4/stm-idf/components/stm32f4xx_hal_driver/stm32f4xx_hal_nand.c ****       /* Read status until NAND is ready */
1144:/home/phong/Documents/thesis/stm32f4/stm-idf/components/stm32f4xx_hal_driver/stm32f4xx_hal_nand.c ****       while(HAL_NAND_Read_Status(hnand) != NAND_READY)
1145:/home/phong/Documents/thesis/stm32f4/stm-idf/components/stm32f4xx_hal_driver/stm32f4xx_hal_nand.c ****       {
ARM GAS  /tmp/ccM6uMDT.s 			page 34


1146:/home/phong/Documents/thesis/stm32f4/stm-idf/components/stm32f4xx_hal_driver/stm32f4xx_hal_nand.c ****         if((HAL_GetTick() - tickstart ) > NAND_WRITE_TIMEOUT)
1147:/home/phong/Documents/thesis/stm32f4/stm-idf/components/stm32f4xx_hal_driver/stm32f4xx_hal_nand.c ****         {
1148:/home/phong/Documents/thesis/stm32f4/stm-idf/components/stm32f4xx_hal_driver/stm32f4xx_hal_nand.c ****           return HAL_TIMEOUT; 
1149:/home/phong/Documents/thesis/stm32f4/stm-idf/components/stm32f4xx_hal_driver/stm32f4xx_hal_nand.c ****         }
1150:/home/phong/Documents/thesis/stm32f4/stm-idf/components/stm32f4xx_hal_driver/stm32f4xx_hal_nand.c ****       }
1151:/home/phong/Documents/thesis/stm32f4/stm-idf/components/stm32f4xx_hal_driver/stm32f4xx_hal_nand.c ****       
1152:/home/phong/Documents/thesis/stm32f4/stm-idf/components/stm32f4xx_hal_driver/stm32f4xx_hal_nand.c ****       /* Go back to read mode */
1153:/home/phong/Documents/thesis/stm32f4/stm-idf/components/stm32f4xx_hal_driver/stm32f4xx_hal_nand.c ****       *(__IO uint8_t *)((uint32_t)(deviceaddress | CMD_AREA)) = ((uint8_t)0x00);
1154:/home/phong/Documents/thesis/stm32f4/stm-idf/components/stm32f4xx_hal_driver/stm32f4xx_hal_nand.c ****     }
1155:/home/phong/Documents/thesis/stm32f4/stm-idf/components/stm32f4xx_hal_driver/stm32f4xx_hal_nand.c ****     
1156:/home/phong/Documents/thesis/stm32f4/stm-idf/components/stm32f4xx_hal_driver/stm32f4xx_hal_nand.c ****     /* Get Data into Buffer */
1157:/home/phong/Documents/thesis/stm32f4/stm-idf/components/stm32f4xx_hal_driver/stm32f4xx_hal_nand.c ****     for(; index < size; index++)
1158:/home/phong/Documents/thesis/stm32f4/stm-idf/components/stm32f4xx_hal_driver/stm32f4xx_hal_nand.c ****     {
1159:/home/phong/Documents/thesis/stm32f4/stm-idf/components/stm32f4xx_hal_driver/stm32f4xx_hal_nand.c ****       *(uint8_t *)pBuffer++ = *(uint8_t *)deviceaddress;
1160:/home/phong/Documents/thesis/stm32f4/stm-idf/components/stm32f4xx_hal_driver/stm32f4xx_hal_nand.c ****     }
1161:/home/phong/Documents/thesis/stm32f4/stm-idf/components/stm32f4xx_hal_driver/stm32f4xx_hal_nand.c ****     
1162:/home/phong/Documents/thesis/stm32f4/stm-idf/components/stm32f4xx_hal_driver/stm32f4xx_hal_nand.c ****     /* Increment read spare areas number */
1163:/home/phong/Documents/thesis/stm32f4/stm-idf/components/stm32f4xx_hal_driver/stm32f4xx_hal_nand.c ****     numSpareAreaRead++;
1164:/home/phong/Documents/thesis/stm32f4/stm-idf/components/stm32f4xx_hal_driver/stm32f4xx_hal_nand.c ****     
1165:/home/phong/Documents/thesis/stm32f4/stm-idf/components/stm32f4xx_hal_driver/stm32f4xx_hal_nand.c ****     /* Decrement spare areas to read */
1166:/home/phong/Documents/thesis/stm32f4/stm-idf/components/stm32f4xx_hal_driver/stm32f4xx_hal_nand.c ****     NumSpareAreaToRead--;
1167:/home/phong/Documents/thesis/stm32f4/stm-idf/components/stm32f4xx_hal_driver/stm32f4xx_hal_nand.c ****     
1168:/home/phong/Documents/thesis/stm32f4/stm-idf/components/stm32f4xx_hal_driver/stm32f4xx_hal_nand.c ****     /* Increment the NAND address */
1169:/home/phong/Documents/thesis/stm32f4/stm-idf/components/stm32f4xx_hal_driver/stm32f4xx_hal_nand.c ****     nandaddress = (uint32_t)(nandaddress + 1U);
1170:/home/phong/Documents/thesis/stm32f4/stm-idf/components/stm32f4xx_hal_driver/stm32f4xx_hal_nand.c ****   }
1171:/home/phong/Documents/thesis/stm32f4/stm-idf/components/stm32f4xx_hal_driver/stm32f4xx_hal_nand.c ****   
1172:/home/phong/Documents/thesis/stm32f4/stm-idf/components/stm32f4xx_hal_driver/stm32f4xx_hal_nand.c ****   /* Update the NAND controller state */
1173:/home/phong/Documents/thesis/stm32f4/stm-idf/components/stm32f4xx_hal_driver/stm32f4xx_hal_nand.c ****   hnand->State = HAL_NAND_STATE_READY;
1174:/home/phong/Documents/thesis/stm32f4/stm-idf/components/stm32f4xx_hal_driver/stm32f4xx_hal_nand.c ****   
1175:/home/phong/Documents/thesis/stm32f4/stm-idf/components/stm32f4xx_hal_driver/stm32f4xx_hal_nand.c ****   /* Process unlocked */
1176:/home/phong/Documents/thesis/stm32f4/stm-idf/components/stm32f4xx_hal_driver/stm32f4xx_hal_nand.c ****   __HAL_UNLOCK(hnand);
1177:/home/phong/Documents/thesis/stm32f4/stm-idf/components/stm32f4xx_hal_driver/stm32f4xx_hal_nand.c **** 
1178:/home/phong/Documents/thesis/stm32f4/stm-idf/components/stm32f4xx_hal_driver/stm32f4xx_hal_nand.c ****   return HAL_OK;  
1179:/home/phong/Documents/thesis/stm32f4/stm-idf/components/stm32f4xx_hal_driver/stm32f4xx_hal_nand.c **** }
1180:/home/phong/Documents/thesis/stm32f4/stm-idf/components/stm32f4xx_hal_driver/stm32f4xx_hal_nand.c **** 
1181:/home/phong/Documents/thesis/stm32f4/stm-idf/components/stm32f4xx_hal_driver/stm32f4xx_hal_nand.c **** /**
1182:/home/phong/Documents/thesis/stm32f4/stm-idf/components/stm32f4xx_hal_driver/stm32f4xx_hal_nand.c ****   * @brief  Read Spare area(s) from NAND memory (16-bits addressing)
1183:/home/phong/Documents/thesis/stm32f4/stm-idf/components/stm32f4xx_hal_driver/stm32f4xx_hal_nand.c ****   * @param  hnand pointer to a NAND_HandleTypeDef structure that contains
1184:/home/phong/Documents/thesis/stm32f4/stm-idf/components/stm32f4xx_hal_driver/stm32f4xx_hal_nand.c ****   *                the configuration information for NAND module.
1185:/home/phong/Documents/thesis/stm32f4/stm-idf/components/stm32f4xx_hal_driver/stm32f4xx_hal_nand.c ****   * @param  pAddress  pointer to NAND address structure
1186:/home/phong/Documents/thesis/stm32f4/stm-idf/components/stm32f4xx_hal_driver/stm32f4xx_hal_nand.c ****   * @param  pBuffer pointer to source buffer to write. pBuffer should be 16bits aligned.
1187:/home/phong/Documents/thesis/stm32f4/stm-idf/components/stm32f4xx_hal_driver/stm32f4xx_hal_nand.c ****   * @param  NumSpareAreaToRead Number of spare area to read  
1188:/home/phong/Documents/thesis/stm32f4/stm-idf/components/stm32f4xx_hal_driver/stm32f4xx_hal_nand.c ****   * @retval HAL status
1189:/home/phong/Documents/thesis/stm32f4/stm-idf/components/stm32f4xx_hal_driver/stm32f4xx_hal_nand.c **** */
1190:/home/phong/Documents/thesis/stm32f4/stm-idf/components/stm32f4xx_hal_driver/stm32f4xx_hal_nand.c **** HAL_StatusTypeDef HAL_NAND_Read_SpareArea_16b(NAND_HandleTypeDef *hnand, NAND_AddressTypeDef *pAddr
1191:/home/phong/Documents/thesis/stm32f4/stm-idf/components/stm32f4xx_hal_driver/stm32f4xx_hal_nand.c **** {
1192:/home/phong/Documents/thesis/stm32f4/stm-idf/components/stm32f4xx_hal_driver/stm32f4xx_hal_nand.c ****   __IO uint32_t index = 0U; 
1193:/home/phong/Documents/thesis/stm32f4/stm-idf/components/stm32f4xx_hal_driver/stm32f4xx_hal_nand.c ****   uint32_t tickstart = 0U;
1194:/home/phong/Documents/thesis/stm32f4/stm-idf/components/stm32f4xx_hal_driver/stm32f4xx_hal_nand.c ****   uint32_t deviceaddress = 0U, size = 0U, numSpareAreaRead = 0U, nandaddress = 0U, columnaddress = 
1195:/home/phong/Documents/thesis/stm32f4/stm-idf/components/stm32f4xx_hal_driver/stm32f4xx_hal_nand.c ****   
1196:/home/phong/Documents/thesis/stm32f4/stm-idf/components/stm32f4xx_hal_driver/stm32f4xx_hal_nand.c ****   /* Process Locked */
1197:/home/phong/Documents/thesis/stm32f4/stm-idf/components/stm32f4xx_hal_driver/stm32f4xx_hal_nand.c ****   __HAL_LOCK(hnand);
1198:/home/phong/Documents/thesis/stm32f4/stm-idf/components/stm32f4xx_hal_driver/stm32f4xx_hal_nand.c ****   
1199:/home/phong/Documents/thesis/stm32f4/stm-idf/components/stm32f4xx_hal_driver/stm32f4xx_hal_nand.c ****   /* Check the NAND controller state */
1200:/home/phong/Documents/thesis/stm32f4/stm-idf/components/stm32f4xx_hal_driver/stm32f4xx_hal_nand.c ****   if(hnand->State == HAL_NAND_STATE_BUSY)
1201:/home/phong/Documents/thesis/stm32f4/stm-idf/components/stm32f4xx_hal_driver/stm32f4xx_hal_nand.c ****   {
1202:/home/phong/Documents/thesis/stm32f4/stm-idf/components/stm32f4xx_hal_driver/stm32f4xx_hal_nand.c ****      return HAL_BUSY;
ARM GAS  /tmp/ccM6uMDT.s 			page 35


1203:/home/phong/Documents/thesis/stm32f4/stm-idf/components/stm32f4xx_hal_driver/stm32f4xx_hal_nand.c ****   }
1204:/home/phong/Documents/thesis/stm32f4/stm-idf/components/stm32f4xx_hal_driver/stm32f4xx_hal_nand.c ****   
1205:/home/phong/Documents/thesis/stm32f4/stm-idf/components/stm32f4xx_hal_driver/stm32f4xx_hal_nand.c ****   /* Identify the device address */
1206:/home/phong/Documents/thesis/stm32f4/stm-idf/components/stm32f4xx_hal_driver/stm32f4xx_hal_nand.c ****   if(hnand->Init.NandBank == FMC_NAND_BANK2)
1207:/home/phong/Documents/thesis/stm32f4/stm-idf/components/stm32f4xx_hal_driver/stm32f4xx_hal_nand.c ****   {
1208:/home/phong/Documents/thesis/stm32f4/stm-idf/components/stm32f4xx_hal_driver/stm32f4xx_hal_nand.c ****     deviceaddress = NAND_DEVICE1;
1209:/home/phong/Documents/thesis/stm32f4/stm-idf/components/stm32f4xx_hal_driver/stm32f4xx_hal_nand.c ****   }
1210:/home/phong/Documents/thesis/stm32f4/stm-idf/components/stm32f4xx_hal_driver/stm32f4xx_hal_nand.c ****   else
1211:/home/phong/Documents/thesis/stm32f4/stm-idf/components/stm32f4xx_hal_driver/stm32f4xx_hal_nand.c ****   {
1212:/home/phong/Documents/thesis/stm32f4/stm-idf/components/stm32f4xx_hal_driver/stm32f4xx_hal_nand.c ****     deviceaddress = NAND_DEVICE2;
1213:/home/phong/Documents/thesis/stm32f4/stm-idf/components/stm32f4xx_hal_driver/stm32f4xx_hal_nand.c ****   }
1214:/home/phong/Documents/thesis/stm32f4/stm-idf/components/stm32f4xx_hal_driver/stm32f4xx_hal_nand.c ****   
1215:/home/phong/Documents/thesis/stm32f4/stm-idf/components/stm32f4xx_hal_driver/stm32f4xx_hal_nand.c ****   /* Update the NAND controller state */
1216:/home/phong/Documents/thesis/stm32f4/stm-idf/components/stm32f4xx_hal_driver/stm32f4xx_hal_nand.c ****   hnand->State = HAL_NAND_STATE_BUSY;
1217:/home/phong/Documents/thesis/stm32f4/stm-idf/components/stm32f4xx_hal_driver/stm32f4xx_hal_nand.c ****   
1218:/home/phong/Documents/thesis/stm32f4/stm-idf/components/stm32f4xx_hal_driver/stm32f4xx_hal_nand.c ****   /* NAND raw address calculation */
1219:/home/phong/Documents/thesis/stm32f4/stm-idf/components/stm32f4xx_hal_driver/stm32f4xx_hal_nand.c ****   nandaddress = ARRAY_ADDRESS(pAddress, hnand);
1220:/home/phong/Documents/thesis/stm32f4/stm-idf/components/stm32f4xx_hal_driver/stm32f4xx_hal_nand.c ****   
1221:/home/phong/Documents/thesis/stm32f4/stm-idf/components/stm32f4xx_hal_driver/stm32f4xx_hal_nand.c ****   /* Column in page address */
1222:/home/phong/Documents/thesis/stm32f4/stm-idf/components/stm32f4xx_hal_driver/stm32f4xx_hal_nand.c ****   columnaddress = (uint32_t)(COLUMN_ADDRESS(hnand) * 2U);
1223:/home/phong/Documents/thesis/stm32f4/stm-idf/components/stm32f4xx_hal_driver/stm32f4xx_hal_nand.c ****   
1224:/home/phong/Documents/thesis/stm32f4/stm-idf/components/stm32f4xx_hal_driver/stm32f4xx_hal_nand.c ****   /* Spare area(s) read loop */ 
1225:/home/phong/Documents/thesis/stm32f4/stm-idf/components/stm32f4xx_hal_driver/stm32f4xx_hal_nand.c ****   while((NumSpareAreaToRead != 0U) && (nandaddress < ((hnand->Config.BlockSize) * (hnand->Config.Bl
1226:/home/phong/Documents/thesis/stm32f4/stm-idf/components/stm32f4xx_hal_driver/stm32f4xx_hal_nand.c ****   {
1227:/home/phong/Documents/thesis/stm32f4/stm-idf/components/stm32f4xx_hal_driver/stm32f4xx_hal_nand.c ****     /* update the buffer size */
1228:/home/phong/Documents/thesis/stm32f4/stm-idf/components/stm32f4xx_hal_driver/stm32f4xx_hal_nand.c ****     size = (hnand->Config.SpareAreaSize) + ((hnand->Config.SpareAreaSize) * numSpareAreaRead);
1229:/home/phong/Documents/thesis/stm32f4/stm-idf/components/stm32f4xx_hal_driver/stm32f4xx_hal_nand.c **** 
1230:/home/phong/Documents/thesis/stm32f4/stm-idf/components/stm32f4xx_hal_driver/stm32f4xx_hal_nand.c ****     /* Cards with page size <= 512 bytes */
1231:/home/phong/Documents/thesis/stm32f4/stm-idf/components/stm32f4xx_hal_driver/stm32f4xx_hal_nand.c ****     if((hnand->Config.PageSize) <= 512U)
1232:/home/phong/Documents/thesis/stm32f4/stm-idf/components/stm32f4xx_hal_driver/stm32f4xx_hal_nand.c ****     {
1233:/home/phong/Documents/thesis/stm32f4/stm-idf/components/stm32f4xx_hal_driver/stm32f4xx_hal_nand.c ****       /* Send read spare area command sequence */     
1234:/home/phong/Documents/thesis/stm32f4/stm-idf/components/stm32f4xx_hal_driver/stm32f4xx_hal_nand.c ****       *(__IO uint8_t *)((uint32_t)(deviceaddress | CMD_AREA)) = NAND_CMD_AREA_C;
1235:/home/phong/Documents/thesis/stm32f4/stm-idf/components/stm32f4xx_hal_driver/stm32f4xx_hal_nand.c ****       
1236:/home/phong/Documents/thesis/stm32f4/stm-idf/components/stm32f4xx_hal_driver/stm32f4xx_hal_nand.c ****       if (((hnand->Config.BlockSize)*(hnand->Config.BlockNbr)) <= 65535U)
1237:/home/phong/Documents/thesis/stm32f4/stm-idf/components/stm32f4xx_hal_driver/stm32f4xx_hal_nand.c ****       {
1238:/home/phong/Documents/thesis/stm32f4/stm-idf/components/stm32f4xx_hal_driver/stm32f4xx_hal_nand.c ****         *(__IO uint8_t *)((uint32_t)(deviceaddress | ADDR_AREA)) = 0x00;
1239:/home/phong/Documents/thesis/stm32f4/stm-idf/components/stm32f4xx_hal_driver/stm32f4xx_hal_nand.c ****         *(__IO uint8_t *)((uint32_t)(deviceaddress | ADDR_AREA)) = ADDR_1ST_CYCLE(nandaddress);
1240:/home/phong/Documents/thesis/stm32f4/stm-idf/components/stm32f4xx_hal_driver/stm32f4xx_hal_nand.c ****         *(__IO uint8_t *)((uint32_t)(deviceaddress | ADDR_AREA)) = ADDR_2ND_CYCLE(nandaddress);
1241:/home/phong/Documents/thesis/stm32f4/stm-idf/components/stm32f4xx_hal_driver/stm32f4xx_hal_nand.c ****       }
1242:/home/phong/Documents/thesis/stm32f4/stm-idf/components/stm32f4xx_hal_driver/stm32f4xx_hal_nand.c ****       else /* ((hnand->Config.BlockSize)*(hnand->Config.BlockNbr)) > 65535 */
1243:/home/phong/Documents/thesis/stm32f4/stm-idf/components/stm32f4xx_hal_driver/stm32f4xx_hal_nand.c ****       {
1244:/home/phong/Documents/thesis/stm32f4/stm-idf/components/stm32f4xx_hal_driver/stm32f4xx_hal_nand.c ****         *(__IO uint8_t *)((uint32_t)(deviceaddress | ADDR_AREA)) = 0x00;
1245:/home/phong/Documents/thesis/stm32f4/stm-idf/components/stm32f4xx_hal_driver/stm32f4xx_hal_nand.c ****         *(__IO uint8_t *)((uint32_t)(deviceaddress | ADDR_AREA)) = ADDR_1ST_CYCLE(nandaddress);
1246:/home/phong/Documents/thesis/stm32f4/stm-idf/components/stm32f4xx_hal_driver/stm32f4xx_hal_nand.c ****         *(__IO uint8_t *)((uint32_t)(deviceaddress | ADDR_AREA)) = ADDR_2ND_CYCLE(nandaddress);
1247:/home/phong/Documents/thesis/stm32f4/stm-idf/components/stm32f4xx_hal_driver/stm32f4xx_hal_nand.c ****         *(__IO uint8_t *)((uint32_t)(deviceaddress | ADDR_AREA)) = ADDR_3RD_CYCLE(nandaddress);
1248:/home/phong/Documents/thesis/stm32f4/stm-idf/components/stm32f4xx_hal_driver/stm32f4xx_hal_nand.c ****       }
1249:/home/phong/Documents/thesis/stm32f4/stm-idf/components/stm32f4xx_hal_driver/stm32f4xx_hal_nand.c ****     }
1250:/home/phong/Documents/thesis/stm32f4/stm-idf/components/stm32f4xx_hal_driver/stm32f4xx_hal_nand.c ****     else /* (hnand->Config.PageSize) > 512 */
1251:/home/phong/Documents/thesis/stm32f4/stm-idf/components/stm32f4xx_hal_driver/stm32f4xx_hal_nand.c ****     {
1252:/home/phong/Documents/thesis/stm32f4/stm-idf/components/stm32f4xx_hal_driver/stm32f4xx_hal_nand.c ****       /* Send read spare area command sequence */     
1253:/home/phong/Documents/thesis/stm32f4/stm-idf/components/stm32f4xx_hal_driver/stm32f4xx_hal_nand.c ****       *(__IO uint8_t *)((uint32_t)(deviceaddress | CMD_AREA)) = NAND_CMD_AREA_A;
1254:/home/phong/Documents/thesis/stm32f4/stm-idf/components/stm32f4xx_hal_driver/stm32f4xx_hal_nand.c ****       
1255:/home/phong/Documents/thesis/stm32f4/stm-idf/components/stm32f4xx_hal_driver/stm32f4xx_hal_nand.c ****       if (((hnand->Config.BlockSize)*(hnand->Config.BlockNbr)) <= 65535U)
1256:/home/phong/Documents/thesis/stm32f4/stm-idf/components/stm32f4xx_hal_driver/stm32f4xx_hal_nand.c ****       {
1257:/home/phong/Documents/thesis/stm32f4/stm-idf/components/stm32f4xx_hal_driver/stm32f4xx_hal_nand.c ****         *(__IO uint8_t *)((uint32_t)(deviceaddress | ADDR_AREA)) = COLUMN_1ST_CYCLE(columnaddress);
1258:/home/phong/Documents/thesis/stm32f4/stm-idf/components/stm32f4xx_hal_driver/stm32f4xx_hal_nand.c ****         *(__IO uint8_t *)((uint32_t)(deviceaddress | ADDR_AREA)) = COLUMN_2ND_CYCLE(columnaddress);
1259:/home/phong/Documents/thesis/stm32f4/stm-idf/components/stm32f4xx_hal_driver/stm32f4xx_hal_nand.c ****         *(__IO uint8_t *)((uint32_t)(deviceaddress | ADDR_AREA)) = ADDR_1ST_CYCLE(nandaddress);
ARM GAS  /tmp/ccM6uMDT.s 			page 36


1260:/home/phong/Documents/thesis/stm32f4/stm-idf/components/stm32f4xx_hal_driver/stm32f4xx_hal_nand.c ****         *(__IO uint8_t *)((uint32_t)(deviceaddress | ADDR_AREA)) = ADDR_2ND_CYCLE(nandaddress);
1261:/home/phong/Documents/thesis/stm32f4/stm-idf/components/stm32f4xx_hal_driver/stm32f4xx_hal_nand.c ****       }
1262:/home/phong/Documents/thesis/stm32f4/stm-idf/components/stm32f4xx_hal_driver/stm32f4xx_hal_nand.c ****       else /* ((hnand->Config.BlockSize)*(hnand->Config.BlockNbr)) > 65535 */
1263:/home/phong/Documents/thesis/stm32f4/stm-idf/components/stm32f4xx_hal_driver/stm32f4xx_hal_nand.c ****       {
1264:/home/phong/Documents/thesis/stm32f4/stm-idf/components/stm32f4xx_hal_driver/stm32f4xx_hal_nand.c ****         *(__IO uint8_t *)((uint32_t)(deviceaddress | ADDR_AREA)) = COLUMN_1ST_CYCLE(columnaddress);
1265:/home/phong/Documents/thesis/stm32f4/stm-idf/components/stm32f4xx_hal_driver/stm32f4xx_hal_nand.c ****         *(__IO uint8_t *)((uint32_t)(deviceaddress | ADDR_AREA)) = COLUMN_2ND_CYCLE(columnaddress);
1266:/home/phong/Documents/thesis/stm32f4/stm-idf/components/stm32f4xx_hal_driver/stm32f4xx_hal_nand.c ****         *(__IO uint8_t *)((uint32_t)(deviceaddress | ADDR_AREA)) = ADDR_1ST_CYCLE(nandaddress);
1267:/home/phong/Documents/thesis/stm32f4/stm-idf/components/stm32f4xx_hal_driver/stm32f4xx_hal_nand.c ****         *(__IO uint8_t *)((uint32_t)(deviceaddress | ADDR_AREA)) = ADDR_2ND_CYCLE(nandaddress);
1268:/home/phong/Documents/thesis/stm32f4/stm-idf/components/stm32f4xx_hal_driver/stm32f4xx_hal_nand.c ****         *(__IO uint8_t *)((uint32_t)(deviceaddress | ADDR_AREA)) = ADDR_3RD_CYCLE(nandaddress);
1269:/home/phong/Documents/thesis/stm32f4/stm-idf/components/stm32f4xx_hal_driver/stm32f4xx_hal_nand.c ****       }
1270:/home/phong/Documents/thesis/stm32f4/stm-idf/components/stm32f4xx_hal_driver/stm32f4xx_hal_nand.c ****     }
1271:/home/phong/Documents/thesis/stm32f4/stm-idf/components/stm32f4xx_hal_driver/stm32f4xx_hal_nand.c **** 
1272:/home/phong/Documents/thesis/stm32f4/stm-idf/components/stm32f4xx_hal_driver/stm32f4xx_hal_nand.c ****     *(__IO uint8_t *)((uint32_t)(deviceaddress | CMD_AREA)) = NAND_CMD_AREA_TRUE1;
1273:/home/phong/Documents/thesis/stm32f4/stm-idf/components/stm32f4xx_hal_driver/stm32f4xx_hal_nand.c **** 
1274:/home/phong/Documents/thesis/stm32f4/stm-idf/components/stm32f4xx_hal_driver/stm32f4xx_hal_nand.c ****     if(hnand->Config.ExtraCommandEnable == ENABLE)
1275:/home/phong/Documents/thesis/stm32f4/stm-idf/components/stm32f4xx_hal_driver/stm32f4xx_hal_nand.c ****     {
1276:/home/phong/Documents/thesis/stm32f4/stm-idf/components/stm32f4xx_hal_driver/stm32f4xx_hal_nand.c ****       /* Get tick */
1277:/home/phong/Documents/thesis/stm32f4/stm-idf/components/stm32f4xx_hal_driver/stm32f4xx_hal_nand.c ****       tickstart = HAL_GetTick();
1278:/home/phong/Documents/thesis/stm32f4/stm-idf/components/stm32f4xx_hal_driver/stm32f4xx_hal_nand.c ****       
1279:/home/phong/Documents/thesis/stm32f4/stm-idf/components/stm32f4xx_hal_driver/stm32f4xx_hal_nand.c ****       /* Read status until NAND is ready */
1280:/home/phong/Documents/thesis/stm32f4/stm-idf/components/stm32f4xx_hal_driver/stm32f4xx_hal_nand.c ****       while(HAL_NAND_Read_Status(hnand) != NAND_READY)
1281:/home/phong/Documents/thesis/stm32f4/stm-idf/components/stm32f4xx_hal_driver/stm32f4xx_hal_nand.c ****       {
1282:/home/phong/Documents/thesis/stm32f4/stm-idf/components/stm32f4xx_hal_driver/stm32f4xx_hal_nand.c ****         if((HAL_GetTick() - tickstart ) > NAND_WRITE_TIMEOUT)
1283:/home/phong/Documents/thesis/stm32f4/stm-idf/components/stm32f4xx_hal_driver/stm32f4xx_hal_nand.c ****         {
1284:/home/phong/Documents/thesis/stm32f4/stm-idf/components/stm32f4xx_hal_driver/stm32f4xx_hal_nand.c ****           return HAL_TIMEOUT; 
1285:/home/phong/Documents/thesis/stm32f4/stm-idf/components/stm32f4xx_hal_driver/stm32f4xx_hal_nand.c ****         }
1286:/home/phong/Documents/thesis/stm32f4/stm-idf/components/stm32f4xx_hal_driver/stm32f4xx_hal_nand.c ****       }
1287:/home/phong/Documents/thesis/stm32f4/stm-idf/components/stm32f4xx_hal_driver/stm32f4xx_hal_nand.c ****       
1288:/home/phong/Documents/thesis/stm32f4/stm-idf/components/stm32f4xx_hal_driver/stm32f4xx_hal_nand.c ****       /* Go back to read mode */
1289:/home/phong/Documents/thesis/stm32f4/stm-idf/components/stm32f4xx_hal_driver/stm32f4xx_hal_nand.c ****       *(__IO uint8_t *)((uint32_t)(deviceaddress | CMD_AREA)) = ((uint8_t)0x00);
1290:/home/phong/Documents/thesis/stm32f4/stm-idf/components/stm32f4xx_hal_driver/stm32f4xx_hal_nand.c ****     }
1291:/home/phong/Documents/thesis/stm32f4/stm-idf/components/stm32f4xx_hal_driver/stm32f4xx_hal_nand.c ****     
1292:/home/phong/Documents/thesis/stm32f4/stm-idf/components/stm32f4xx_hal_driver/stm32f4xx_hal_nand.c ****     /* Get Data into Buffer */
1293:/home/phong/Documents/thesis/stm32f4/stm-idf/components/stm32f4xx_hal_driver/stm32f4xx_hal_nand.c ****     for(; index < size; index++)
1294:/home/phong/Documents/thesis/stm32f4/stm-idf/components/stm32f4xx_hal_driver/stm32f4xx_hal_nand.c ****     {
1295:/home/phong/Documents/thesis/stm32f4/stm-idf/components/stm32f4xx_hal_driver/stm32f4xx_hal_nand.c ****       *(uint16_t *)pBuffer++ = *(uint16_t *)deviceaddress;
1296:/home/phong/Documents/thesis/stm32f4/stm-idf/components/stm32f4xx_hal_driver/stm32f4xx_hal_nand.c ****     }
1297:/home/phong/Documents/thesis/stm32f4/stm-idf/components/stm32f4xx_hal_driver/stm32f4xx_hal_nand.c ****     
1298:/home/phong/Documents/thesis/stm32f4/stm-idf/components/stm32f4xx_hal_driver/stm32f4xx_hal_nand.c ****     /* Increment read spare areas number */
1299:/home/phong/Documents/thesis/stm32f4/stm-idf/components/stm32f4xx_hal_driver/stm32f4xx_hal_nand.c ****     numSpareAreaRead++;
1300:/home/phong/Documents/thesis/stm32f4/stm-idf/components/stm32f4xx_hal_driver/stm32f4xx_hal_nand.c ****     
1301:/home/phong/Documents/thesis/stm32f4/stm-idf/components/stm32f4xx_hal_driver/stm32f4xx_hal_nand.c ****     /* Decrement spare areas to read */
1302:/home/phong/Documents/thesis/stm32f4/stm-idf/components/stm32f4xx_hal_driver/stm32f4xx_hal_nand.c ****     NumSpareAreaToRead--;
1303:/home/phong/Documents/thesis/stm32f4/stm-idf/components/stm32f4xx_hal_driver/stm32f4xx_hal_nand.c ****     
1304:/home/phong/Documents/thesis/stm32f4/stm-idf/components/stm32f4xx_hal_driver/stm32f4xx_hal_nand.c ****     /* Increment the NAND address */
1305:/home/phong/Documents/thesis/stm32f4/stm-idf/components/stm32f4xx_hal_driver/stm32f4xx_hal_nand.c ****     nandaddress = (uint32_t)(nandaddress + 1U);
1306:/home/phong/Documents/thesis/stm32f4/stm-idf/components/stm32f4xx_hal_driver/stm32f4xx_hal_nand.c ****   }
1307:/home/phong/Documents/thesis/stm32f4/stm-idf/components/stm32f4xx_hal_driver/stm32f4xx_hal_nand.c ****   
1308:/home/phong/Documents/thesis/stm32f4/stm-idf/components/stm32f4xx_hal_driver/stm32f4xx_hal_nand.c ****   /* Update the NAND controller state */
1309:/home/phong/Documents/thesis/stm32f4/stm-idf/components/stm32f4xx_hal_driver/stm32f4xx_hal_nand.c ****   hnand->State = HAL_NAND_STATE_READY;
1310:/home/phong/Documents/thesis/stm32f4/stm-idf/components/stm32f4xx_hal_driver/stm32f4xx_hal_nand.c ****   
1311:/home/phong/Documents/thesis/stm32f4/stm-idf/components/stm32f4xx_hal_driver/stm32f4xx_hal_nand.c ****   /* Process unlocked */
1312:/home/phong/Documents/thesis/stm32f4/stm-idf/components/stm32f4xx_hal_driver/stm32f4xx_hal_nand.c ****   __HAL_UNLOCK(hnand);     
1313:/home/phong/Documents/thesis/stm32f4/stm-idf/components/stm32f4xx_hal_driver/stm32f4xx_hal_nand.c **** 
1314:/home/phong/Documents/thesis/stm32f4/stm-idf/components/stm32f4xx_hal_driver/stm32f4xx_hal_nand.c ****   return HAL_OK;  
1315:/home/phong/Documents/thesis/stm32f4/stm-idf/components/stm32f4xx_hal_driver/stm32f4xx_hal_nand.c **** }
1316:/home/phong/Documents/thesis/stm32f4/stm-idf/components/stm32f4xx_hal_driver/stm32f4xx_hal_nand.c **** 
ARM GAS  /tmp/ccM6uMDT.s 			page 37


1317:/home/phong/Documents/thesis/stm32f4/stm-idf/components/stm32f4xx_hal_driver/stm32f4xx_hal_nand.c **** /**
1318:/home/phong/Documents/thesis/stm32f4/stm-idf/components/stm32f4xx_hal_driver/stm32f4xx_hal_nand.c ****   * @brief  Write Spare area(s) to NAND memory 
1319:/home/phong/Documents/thesis/stm32f4/stm-idf/components/stm32f4xx_hal_driver/stm32f4xx_hal_nand.c ****   * @param  hnand pointer to a NAND_HandleTypeDef structure that contains
1320:/home/phong/Documents/thesis/stm32f4/stm-idf/components/stm32f4xx_hal_driver/stm32f4xx_hal_nand.c ****   *                the configuration information for NAND module.
1321:/home/phong/Documents/thesis/stm32f4/stm-idf/components/stm32f4xx_hal_driver/stm32f4xx_hal_nand.c ****   * @param  pAddress  pointer to NAND address structure
1322:/home/phong/Documents/thesis/stm32f4/stm-idf/components/stm32f4xx_hal_driver/stm32f4xx_hal_nand.c ****   * @param  pBuffer  pointer to source buffer to write  
1323:/home/phong/Documents/thesis/stm32f4/stm-idf/components/stm32f4xx_hal_driver/stm32f4xx_hal_nand.c ****   * @param  NumSpareAreaTowrite   number of spare areas to write to block
1324:/home/phong/Documents/thesis/stm32f4/stm-idf/components/stm32f4xx_hal_driver/stm32f4xx_hal_nand.c ****   * @retval HAL status
1325:/home/phong/Documents/thesis/stm32f4/stm-idf/components/stm32f4xx_hal_driver/stm32f4xx_hal_nand.c ****   */
1326:/home/phong/Documents/thesis/stm32f4/stm-idf/components/stm32f4xx_hal_driver/stm32f4xx_hal_nand.c **** HAL_StatusTypeDef HAL_NAND_Write_SpareArea_8b(NAND_HandleTypeDef *hnand, NAND_AddressTypeDef *pAddr
1327:/home/phong/Documents/thesis/stm32f4/stm-idf/components/stm32f4xx_hal_driver/stm32f4xx_hal_nand.c **** {
1328:/home/phong/Documents/thesis/stm32f4/stm-idf/components/stm32f4xx_hal_driver/stm32f4xx_hal_nand.c ****   __IO uint32_t index = 0U;
1329:/home/phong/Documents/thesis/stm32f4/stm-idf/components/stm32f4xx_hal_driver/stm32f4xx_hal_nand.c ****   uint32_t tickstart = 0U;
1330:/home/phong/Documents/thesis/stm32f4/stm-idf/components/stm32f4xx_hal_driver/stm32f4xx_hal_nand.c ****   uint32_t deviceaddress = 0U, size = 0U, numSpareAreaWritten = 0U, nandaddress = 0U, columnaddress
1331:/home/phong/Documents/thesis/stm32f4/stm-idf/components/stm32f4xx_hal_driver/stm32f4xx_hal_nand.c **** 
1332:/home/phong/Documents/thesis/stm32f4/stm-idf/components/stm32f4xx_hal_driver/stm32f4xx_hal_nand.c ****   /* Process Locked */
1333:/home/phong/Documents/thesis/stm32f4/stm-idf/components/stm32f4xx_hal_driver/stm32f4xx_hal_nand.c ****   __HAL_LOCK(hnand); 
1334:/home/phong/Documents/thesis/stm32f4/stm-idf/components/stm32f4xx_hal_driver/stm32f4xx_hal_nand.c ****   
1335:/home/phong/Documents/thesis/stm32f4/stm-idf/components/stm32f4xx_hal_driver/stm32f4xx_hal_nand.c ****   /* Check the NAND controller state */
1336:/home/phong/Documents/thesis/stm32f4/stm-idf/components/stm32f4xx_hal_driver/stm32f4xx_hal_nand.c ****   if(hnand->State == HAL_NAND_STATE_BUSY)
1337:/home/phong/Documents/thesis/stm32f4/stm-idf/components/stm32f4xx_hal_driver/stm32f4xx_hal_nand.c ****   {
1338:/home/phong/Documents/thesis/stm32f4/stm-idf/components/stm32f4xx_hal_driver/stm32f4xx_hal_nand.c ****      return HAL_BUSY;
1339:/home/phong/Documents/thesis/stm32f4/stm-idf/components/stm32f4xx_hal_driver/stm32f4xx_hal_nand.c ****   }
1340:/home/phong/Documents/thesis/stm32f4/stm-idf/components/stm32f4xx_hal_driver/stm32f4xx_hal_nand.c ****   
1341:/home/phong/Documents/thesis/stm32f4/stm-idf/components/stm32f4xx_hal_driver/stm32f4xx_hal_nand.c ****   /* Identify the device address */
1342:/home/phong/Documents/thesis/stm32f4/stm-idf/components/stm32f4xx_hal_driver/stm32f4xx_hal_nand.c ****   if(hnand->Init.NandBank == FMC_NAND_BANK2)
1343:/home/phong/Documents/thesis/stm32f4/stm-idf/components/stm32f4xx_hal_driver/stm32f4xx_hal_nand.c ****   {
1344:/home/phong/Documents/thesis/stm32f4/stm-idf/components/stm32f4xx_hal_driver/stm32f4xx_hal_nand.c ****     deviceaddress = NAND_DEVICE1;
1345:/home/phong/Documents/thesis/stm32f4/stm-idf/components/stm32f4xx_hal_driver/stm32f4xx_hal_nand.c ****   }
1346:/home/phong/Documents/thesis/stm32f4/stm-idf/components/stm32f4xx_hal_driver/stm32f4xx_hal_nand.c ****   else
1347:/home/phong/Documents/thesis/stm32f4/stm-idf/components/stm32f4xx_hal_driver/stm32f4xx_hal_nand.c ****   {
1348:/home/phong/Documents/thesis/stm32f4/stm-idf/components/stm32f4xx_hal_driver/stm32f4xx_hal_nand.c ****     deviceaddress = NAND_DEVICE2;
1349:/home/phong/Documents/thesis/stm32f4/stm-idf/components/stm32f4xx_hal_driver/stm32f4xx_hal_nand.c ****   }
1350:/home/phong/Documents/thesis/stm32f4/stm-idf/components/stm32f4xx_hal_driver/stm32f4xx_hal_nand.c ****   
1351:/home/phong/Documents/thesis/stm32f4/stm-idf/components/stm32f4xx_hal_driver/stm32f4xx_hal_nand.c ****   /* Update the FMC_NAND controller state */
1352:/home/phong/Documents/thesis/stm32f4/stm-idf/components/stm32f4xx_hal_driver/stm32f4xx_hal_nand.c ****   hnand->State = HAL_NAND_STATE_BUSY;  
1353:/home/phong/Documents/thesis/stm32f4/stm-idf/components/stm32f4xx_hal_driver/stm32f4xx_hal_nand.c ****   
1354:/home/phong/Documents/thesis/stm32f4/stm-idf/components/stm32f4xx_hal_driver/stm32f4xx_hal_nand.c ****   /* Page address calculation */
1355:/home/phong/Documents/thesis/stm32f4/stm-idf/components/stm32f4xx_hal_driver/stm32f4xx_hal_nand.c ****   nandaddress = ARRAY_ADDRESS(pAddress, hnand); 
1356:/home/phong/Documents/thesis/stm32f4/stm-idf/components/stm32f4xx_hal_driver/stm32f4xx_hal_nand.c ****   
1357:/home/phong/Documents/thesis/stm32f4/stm-idf/components/stm32f4xx_hal_driver/stm32f4xx_hal_nand.c ****   /* Column in page address */
1358:/home/phong/Documents/thesis/stm32f4/stm-idf/components/stm32f4xx_hal_driver/stm32f4xx_hal_nand.c ****   columnaddress = COLUMN_ADDRESS(hnand);
1359:/home/phong/Documents/thesis/stm32f4/stm-idf/components/stm32f4xx_hal_driver/stm32f4xx_hal_nand.c ****   
1360:/home/phong/Documents/thesis/stm32f4/stm-idf/components/stm32f4xx_hal_driver/stm32f4xx_hal_nand.c ****   /* Spare area(s) write loop */
1361:/home/phong/Documents/thesis/stm32f4/stm-idf/components/stm32f4xx_hal_driver/stm32f4xx_hal_nand.c ****   while((NumSpareAreaTowrite != 0U) && (nandaddress < ((hnand->Config.BlockSize) * (hnand->Config.B
1362:/home/phong/Documents/thesis/stm32f4/stm-idf/components/stm32f4xx_hal_driver/stm32f4xx_hal_nand.c ****   {
1363:/home/phong/Documents/thesis/stm32f4/stm-idf/components/stm32f4xx_hal_driver/stm32f4xx_hal_nand.c ****     /* update the buffer size */
1364:/home/phong/Documents/thesis/stm32f4/stm-idf/components/stm32f4xx_hal_driver/stm32f4xx_hal_nand.c ****     size = (hnand->Config.SpareAreaSize) + ((hnand->Config.SpareAreaSize) * numSpareAreaWritten);
1365:/home/phong/Documents/thesis/stm32f4/stm-idf/components/stm32f4xx_hal_driver/stm32f4xx_hal_nand.c **** 
1366:/home/phong/Documents/thesis/stm32f4/stm-idf/components/stm32f4xx_hal_driver/stm32f4xx_hal_nand.c ****     /* Cards with page size <= 512 bytes */
1367:/home/phong/Documents/thesis/stm32f4/stm-idf/components/stm32f4xx_hal_driver/stm32f4xx_hal_nand.c ****     if((hnand->Config.PageSize) <= 512U)
1368:/home/phong/Documents/thesis/stm32f4/stm-idf/components/stm32f4xx_hal_driver/stm32f4xx_hal_nand.c ****     {
1369:/home/phong/Documents/thesis/stm32f4/stm-idf/components/stm32f4xx_hal_driver/stm32f4xx_hal_nand.c ****       /* Send write Spare area command sequence */
1370:/home/phong/Documents/thesis/stm32f4/stm-idf/components/stm32f4xx_hal_driver/stm32f4xx_hal_nand.c ****       *(__IO uint8_t *)((uint32_t)(deviceaddress | CMD_AREA)) = NAND_CMD_AREA_C;
1371:/home/phong/Documents/thesis/stm32f4/stm-idf/components/stm32f4xx_hal_driver/stm32f4xx_hal_nand.c ****       *(__IO uint8_t *)((uint32_t)(deviceaddress | CMD_AREA)) = NAND_CMD_WRITE0;
1372:/home/phong/Documents/thesis/stm32f4/stm-idf/components/stm32f4xx_hal_driver/stm32f4xx_hal_nand.c ****       
1373:/home/phong/Documents/thesis/stm32f4/stm-idf/components/stm32f4xx_hal_driver/stm32f4xx_hal_nand.c ****       if (((hnand->Config.BlockSize)*(hnand->Config.BlockNbr)) <= 65535U)
ARM GAS  /tmp/ccM6uMDT.s 			page 38


1374:/home/phong/Documents/thesis/stm32f4/stm-idf/components/stm32f4xx_hal_driver/stm32f4xx_hal_nand.c ****       {
1375:/home/phong/Documents/thesis/stm32f4/stm-idf/components/stm32f4xx_hal_driver/stm32f4xx_hal_nand.c ****         *(__IO uint8_t *)((uint32_t)(deviceaddress | ADDR_AREA)) = 0x00;
1376:/home/phong/Documents/thesis/stm32f4/stm-idf/components/stm32f4xx_hal_driver/stm32f4xx_hal_nand.c ****         *(__IO uint8_t *)((uint32_t)(deviceaddress | ADDR_AREA)) = ADDR_1ST_CYCLE(nandaddress);
1377:/home/phong/Documents/thesis/stm32f4/stm-idf/components/stm32f4xx_hal_driver/stm32f4xx_hal_nand.c ****         *(__IO uint8_t *)((uint32_t)(deviceaddress | ADDR_AREA)) = ADDR_2ND_CYCLE(nandaddress);
1378:/home/phong/Documents/thesis/stm32f4/stm-idf/components/stm32f4xx_hal_driver/stm32f4xx_hal_nand.c ****       }
1379:/home/phong/Documents/thesis/stm32f4/stm-idf/components/stm32f4xx_hal_driver/stm32f4xx_hal_nand.c ****       else /* ((hnand->Config.BlockSize)*(hnand->Config.BlockNbr)) > 65535 */
1380:/home/phong/Documents/thesis/stm32f4/stm-idf/components/stm32f4xx_hal_driver/stm32f4xx_hal_nand.c ****       {
1381:/home/phong/Documents/thesis/stm32f4/stm-idf/components/stm32f4xx_hal_driver/stm32f4xx_hal_nand.c ****         *(__IO uint8_t *)((uint32_t)(deviceaddress | ADDR_AREA)) = 0x00;
1382:/home/phong/Documents/thesis/stm32f4/stm-idf/components/stm32f4xx_hal_driver/stm32f4xx_hal_nand.c ****         *(__IO uint8_t *)((uint32_t)(deviceaddress | ADDR_AREA)) = ADDR_1ST_CYCLE(nandaddress);
1383:/home/phong/Documents/thesis/stm32f4/stm-idf/components/stm32f4xx_hal_driver/stm32f4xx_hal_nand.c ****         *(__IO uint8_t *)((uint32_t)(deviceaddress | ADDR_AREA)) = ADDR_2ND_CYCLE(nandaddress);
1384:/home/phong/Documents/thesis/stm32f4/stm-idf/components/stm32f4xx_hal_driver/stm32f4xx_hal_nand.c ****         *(__IO uint8_t *)((uint32_t)(deviceaddress | ADDR_AREA)) = ADDR_3RD_CYCLE(nandaddress);
1385:/home/phong/Documents/thesis/stm32f4/stm-idf/components/stm32f4xx_hal_driver/stm32f4xx_hal_nand.c ****       }
1386:/home/phong/Documents/thesis/stm32f4/stm-idf/components/stm32f4xx_hal_driver/stm32f4xx_hal_nand.c ****     }
1387:/home/phong/Documents/thesis/stm32f4/stm-idf/components/stm32f4xx_hal_driver/stm32f4xx_hal_nand.c ****     else /* (hnand->Config.PageSize) > 512 */
1388:/home/phong/Documents/thesis/stm32f4/stm-idf/components/stm32f4xx_hal_driver/stm32f4xx_hal_nand.c ****     {
1389:/home/phong/Documents/thesis/stm32f4/stm-idf/components/stm32f4xx_hal_driver/stm32f4xx_hal_nand.c ****       /* Send write Spare area command sequence */
1390:/home/phong/Documents/thesis/stm32f4/stm-idf/components/stm32f4xx_hal_driver/stm32f4xx_hal_nand.c ****       *(__IO uint8_t *)((uint32_t)(deviceaddress | CMD_AREA)) = NAND_CMD_AREA_A;
1391:/home/phong/Documents/thesis/stm32f4/stm-idf/components/stm32f4xx_hal_driver/stm32f4xx_hal_nand.c ****       *(__IO uint8_t *)((uint32_t)(deviceaddress | CMD_AREA)) = NAND_CMD_WRITE0;
1392:/home/phong/Documents/thesis/stm32f4/stm-idf/components/stm32f4xx_hal_driver/stm32f4xx_hal_nand.c ****     
1393:/home/phong/Documents/thesis/stm32f4/stm-idf/components/stm32f4xx_hal_driver/stm32f4xx_hal_nand.c ****       if (((hnand->Config.BlockSize)*(hnand->Config.BlockNbr)) <= 65535U)
1394:/home/phong/Documents/thesis/stm32f4/stm-idf/components/stm32f4xx_hal_driver/stm32f4xx_hal_nand.c ****       {
1395:/home/phong/Documents/thesis/stm32f4/stm-idf/components/stm32f4xx_hal_driver/stm32f4xx_hal_nand.c ****         *(__IO uint8_t *)((uint32_t)(deviceaddress | ADDR_AREA)) = COLUMN_1ST_CYCLE(columnaddress);
1396:/home/phong/Documents/thesis/stm32f4/stm-idf/components/stm32f4xx_hal_driver/stm32f4xx_hal_nand.c ****         *(__IO uint8_t *)((uint32_t)(deviceaddress | ADDR_AREA)) = COLUMN_2ND_CYCLE(columnaddress);
1397:/home/phong/Documents/thesis/stm32f4/stm-idf/components/stm32f4xx_hal_driver/stm32f4xx_hal_nand.c ****         *(__IO uint8_t *)((uint32_t)(deviceaddress | ADDR_AREA)) = ADDR_1ST_CYCLE(nandaddress);
1398:/home/phong/Documents/thesis/stm32f4/stm-idf/components/stm32f4xx_hal_driver/stm32f4xx_hal_nand.c ****         *(__IO uint8_t *)((uint32_t)(deviceaddress | ADDR_AREA)) = ADDR_2ND_CYCLE(nandaddress);
1399:/home/phong/Documents/thesis/stm32f4/stm-idf/components/stm32f4xx_hal_driver/stm32f4xx_hal_nand.c ****       }
1400:/home/phong/Documents/thesis/stm32f4/stm-idf/components/stm32f4xx_hal_driver/stm32f4xx_hal_nand.c ****       else /* ((hnand->Config.BlockSize)*(hnand->Config.BlockNbr)) > 65535 */
1401:/home/phong/Documents/thesis/stm32f4/stm-idf/components/stm32f4xx_hal_driver/stm32f4xx_hal_nand.c ****       {
1402:/home/phong/Documents/thesis/stm32f4/stm-idf/components/stm32f4xx_hal_driver/stm32f4xx_hal_nand.c ****         *(__IO uint8_t *)((uint32_t)(deviceaddress | ADDR_AREA)) = COLUMN_1ST_CYCLE(columnaddress);
1403:/home/phong/Documents/thesis/stm32f4/stm-idf/components/stm32f4xx_hal_driver/stm32f4xx_hal_nand.c ****         *(__IO uint8_t *)((uint32_t)(deviceaddress | ADDR_AREA)) = COLUMN_2ND_CYCLE(columnaddress);
1404:/home/phong/Documents/thesis/stm32f4/stm-idf/components/stm32f4xx_hal_driver/stm32f4xx_hal_nand.c ****         *(__IO uint8_t *)((uint32_t)(deviceaddress | ADDR_AREA)) = ADDR_1ST_CYCLE(nandaddress);
1405:/home/phong/Documents/thesis/stm32f4/stm-idf/components/stm32f4xx_hal_driver/stm32f4xx_hal_nand.c ****         *(__IO uint8_t *)((uint32_t)(deviceaddress | ADDR_AREA)) = ADDR_2ND_CYCLE(nandaddress);
1406:/home/phong/Documents/thesis/stm32f4/stm-idf/components/stm32f4xx_hal_driver/stm32f4xx_hal_nand.c ****         *(__IO uint8_t *)((uint32_t)(deviceaddress | ADDR_AREA)) = ADDR_3RD_CYCLE(nandaddress);
1407:/home/phong/Documents/thesis/stm32f4/stm-idf/components/stm32f4xx_hal_driver/stm32f4xx_hal_nand.c ****       }
1408:/home/phong/Documents/thesis/stm32f4/stm-idf/components/stm32f4xx_hal_driver/stm32f4xx_hal_nand.c ****     }
1409:/home/phong/Documents/thesis/stm32f4/stm-idf/components/stm32f4xx_hal_driver/stm32f4xx_hal_nand.c ****   
1410:/home/phong/Documents/thesis/stm32f4/stm-idf/components/stm32f4xx_hal_driver/stm32f4xx_hal_nand.c ****     /* Write data to memory */
1411:/home/phong/Documents/thesis/stm32f4/stm-idf/components/stm32f4xx_hal_driver/stm32f4xx_hal_nand.c ****     for(; index < size; index++)
1412:/home/phong/Documents/thesis/stm32f4/stm-idf/components/stm32f4xx_hal_driver/stm32f4xx_hal_nand.c ****     {
1413:/home/phong/Documents/thesis/stm32f4/stm-idf/components/stm32f4xx_hal_driver/stm32f4xx_hal_nand.c ****       *(__IO uint8_t *)deviceaddress = *(uint8_t *)pBuffer++;
1414:/home/phong/Documents/thesis/stm32f4/stm-idf/components/stm32f4xx_hal_driver/stm32f4xx_hal_nand.c ****     }
1415:/home/phong/Documents/thesis/stm32f4/stm-idf/components/stm32f4xx_hal_driver/stm32f4xx_hal_nand.c ****    
1416:/home/phong/Documents/thesis/stm32f4/stm-idf/components/stm32f4xx_hal_driver/stm32f4xx_hal_nand.c ****     *(__IO uint8_t *)((uint32_t)(deviceaddress | CMD_AREA)) = NAND_CMD_WRITE_TRUE1;
1417:/home/phong/Documents/thesis/stm32f4/stm-idf/components/stm32f4xx_hal_driver/stm32f4xx_hal_nand.c ****     
1418:/home/phong/Documents/thesis/stm32f4/stm-idf/components/stm32f4xx_hal_driver/stm32f4xx_hal_nand.c ****     /* Get tick */
1419:/home/phong/Documents/thesis/stm32f4/stm-idf/components/stm32f4xx_hal_driver/stm32f4xx_hal_nand.c ****     tickstart = HAL_GetTick();
1420:/home/phong/Documents/thesis/stm32f4/stm-idf/components/stm32f4xx_hal_driver/stm32f4xx_hal_nand.c ****     
1421:/home/phong/Documents/thesis/stm32f4/stm-idf/components/stm32f4xx_hal_driver/stm32f4xx_hal_nand.c ****     /* Read status until NAND is ready */
1422:/home/phong/Documents/thesis/stm32f4/stm-idf/components/stm32f4xx_hal_driver/stm32f4xx_hal_nand.c ****     while(HAL_NAND_Read_Status(hnand) != NAND_READY)
1423:/home/phong/Documents/thesis/stm32f4/stm-idf/components/stm32f4xx_hal_driver/stm32f4xx_hal_nand.c ****     {
1424:/home/phong/Documents/thesis/stm32f4/stm-idf/components/stm32f4xx_hal_driver/stm32f4xx_hal_nand.c ****       if((HAL_GetTick() - tickstart ) > NAND_WRITE_TIMEOUT)
1425:/home/phong/Documents/thesis/stm32f4/stm-idf/components/stm32f4xx_hal_driver/stm32f4xx_hal_nand.c ****       {
1426:/home/phong/Documents/thesis/stm32f4/stm-idf/components/stm32f4xx_hal_driver/stm32f4xx_hal_nand.c ****         return HAL_TIMEOUT; 
1427:/home/phong/Documents/thesis/stm32f4/stm-idf/components/stm32f4xx_hal_driver/stm32f4xx_hal_nand.c ****       }
1428:/home/phong/Documents/thesis/stm32f4/stm-idf/components/stm32f4xx_hal_driver/stm32f4xx_hal_nand.c ****     }
1429:/home/phong/Documents/thesis/stm32f4/stm-idf/components/stm32f4xx_hal_driver/stm32f4xx_hal_nand.c **** 
1430:/home/phong/Documents/thesis/stm32f4/stm-idf/components/stm32f4xx_hal_driver/stm32f4xx_hal_nand.c ****     /* Increment written spare areas number */
ARM GAS  /tmp/ccM6uMDT.s 			page 39


1431:/home/phong/Documents/thesis/stm32f4/stm-idf/components/stm32f4xx_hal_driver/stm32f4xx_hal_nand.c ****     numSpareAreaWritten++;
1432:/home/phong/Documents/thesis/stm32f4/stm-idf/components/stm32f4xx_hal_driver/stm32f4xx_hal_nand.c ****     
1433:/home/phong/Documents/thesis/stm32f4/stm-idf/components/stm32f4xx_hal_driver/stm32f4xx_hal_nand.c ****     /* Decrement spare areas to write */
1434:/home/phong/Documents/thesis/stm32f4/stm-idf/components/stm32f4xx_hal_driver/stm32f4xx_hal_nand.c ****     NumSpareAreaTowrite--;
1435:/home/phong/Documents/thesis/stm32f4/stm-idf/components/stm32f4xx_hal_driver/stm32f4xx_hal_nand.c ****     
1436:/home/phong/Documents/thesis/stm32f4/stm-idf/components/stm32f4xx_hal_driver/stm32f4xx_hal_nand.c ****     /* Increment the NAND address */
1437:/home/phong/Documents/thesis/stm32f4/stm-idf/components/stm32f4xx_hal_driver/stm32f4xx_hal_nand.c ****     nandaddress = (uint32_t)(nandaddress + 1U);
1438:/home/phong/Documents/thesis/stm32f4/stm-idf/components/stm32f4xx_hal_driver/stm32f4xx_hal_nand.c ****   }
1439:/home/phong/Documents/thesis/stm32f4/stm-idf/components/stm32f4xx_hal_driver/stm32f4xx_hal_nand.c **** 
1440:/home/phong/Documents/thesis/stm32f4/stm-idf/components/stm32f4xx_hal_driver/stm32f4xx_hal_nand.c ****   /* Update the NAND controller state */
1441:/home/phong/Documents/thesis/stm32f4/stm-idf/components/stm32f4xx_hal_driver/stm32f4xx_hal_nand.c ****   hnand->State = HAL_NAND_STATE_READY;
1442:/home/phong/Documents/thesis/stm32f4/stm-idf/components/stm32f4xx_hal_driver/stm32f4xx_hal_nand.c **** 
1443:/home/phong/Documents/thesis/stm32f4/stm-idf/components/stm32f4xx_hal_driver/stm32f4xx_hal_nand.c ****   /* Process unlocked */
1444:/home/phong/Documents/thesis/stm32f4/stm-idf/components/stm32f4xx_hal_driver/stm32f4xx_hal_nand.c ****   __HAL_UNLOCK(hnand);
1445:/home/phong/Documents/thesis/stm32f4/stm-idf/components/stm32f4xx_hal_driver/stm32f4xx_hal_nand.c ****     
1446:/home/phong/Documents/thesis/stm32f4/stm-idf/components/stm32f4xx_hal_driver/stm32f4xx_hal_nand.c ****   return HAL_OK;
1447:/home/phong/Documents/thesis/stm32f4/stm-idf/components/stm32f4xx_hal_driver/stm32f4xx_hal_nand.c **** }
1448:/home/phong/Documents/thesis/stm32f4/stm-idf/components/stm32f4xx_hal_driver/stm32f4xx_hal_nand.c **** 
1449:/home/phong/Documents/thesis/stm32f4/stm-idf/components/stm32f4xx_hal_driver/stm32f4xx_hal_nand.c **** /**
1450:/home/phong/Documents/thesis/stm32f4/stm-idf/components/stm32f4xx_hal_driver/stm32f4xx_hal_nand.c ****   * @brief  Write Spare area(s) to NAND memory (16-bits addressing)
1451:/home/phong/Documents/thesis/stm32f4/stm-idf/components/stm32f4xx_hal_driver/stm32f4xx_hal_nand.c ****   * @param  hnand pointer to a NAND_HandleTypeDef structure that contains
1452:/home/phong/Documents/thesis/stm32f4/stm-idf/components/stm32f4xx_hal_driver/stm32f4xx_hal_nand.c ****   *                the configuration information for NAND module.
1453:/home/phong/Documents/thesis/stm32f4/stm-idf/components/stm32f4xx_hal_driver/stm32f4xx_hal_nand.c ****   * @param  pAddress  pointer to NAND address structure
1454:/home/phong/Documents/thesis/stm32f4/stm-idf/components/stm32f4xx_hal_driver/stm32f4xx_hal_nand.c ****   * @param  pBuffer  pointer to source buffer to write. pBuffer should be 16bits aligned.  
1455:/home/phong/Documents/thesis/stm32f4/stm-idf/components/stm32f4xx_hal_driver/stm32f4xx_hal_nand.c ****   * @param  NumSpareAreaTowrite   number of spare areas to write to block
1456:/home/phong/Documents/thesis/stm32f4/stm-idf/components/stm32f4xx_hal_driver/stm32f4xx_hal_nand.c ****   * @retval HAL status
1457:/home/phong/Documents/thesis/stm32f4/stm-idf/components/stm32f4xx_hal_driver/stm32f4xx_hal_nand.c ****   */
1458:/home/phong/Documents/thesis/stm32f4/stm-idf/components/stm32f4xx_hal_driver/stm32f4xx_hal_nand.c **** HAL_StatusTypeDef HAL_NAND_Write_SpareArea_16b(NAND_HandleTypeDef *hnand, NAND_AddressTypeDef *pAdd
1459:/home/phong/Documents/thesis/stm32f4/stm-idf/components/stm32f4xx_hal_driver/stm32f4xx_hal_nand.c **** {
1460:/home/phong/Documents/thesis/stm32f4/stm-idf/components/stm32f4xx_hal_driver/stm32f4xx_hal_nand.c ****   __IO uint32_t index = 0U;
1461:/home/phong/Documents/thesis/stm32f4/stm-idf/components/stm32f4xx_hal_driver/stm32f4xx_hal_nand.c ****   uint32_t tickstart = 0U;
1462:/home/phong/Documents/thesis/stm32f4/stm-idf/components/stm32f4xx_hal_driver/stm32f4xx_hal_nand.c ****   uint32_t deviceaddress = 0U, size = 0U, numSpareAreaWritten = 0U, nandaddress = 0U, columnaddress
1463:/home/phong/Documents/thesis/stm32f4/stm-idf/components/stm32f4xx_hal_driver/stm32f4xx_hal_nand.c **** 
1464:/home/phong/Documents/thesis/stm32f4/stm-idf/components/stm32f4xx_hal_driver/stm32f4xx_hal_nand.c ****   /* Process Locked */
1465:/home/phong/Documents/thesis/stm32f4/stm-idf/components/stm32f4xx_hal_driver/stm32f4xx_hal_nand.c ****   __HAL_LOCK(hnand); 
1466:/home/phong/Documents/thesis/stm32f4/stm-idf/components/stm32f4xx_hal_driver/stm32f4xx_hal_nand.c ****   
1467:/home/phong/Documents/thesis/stm32f4/stm-idf/components/stm32f4xx_hal_driver/stm32f4xx_hal_nand.c ****   /* Check the NAND controller state */
1468:/home/phong/Documents/thesis/stm32f4/stm-idf/components/stm32f4xx_hal_driver/stm32f4xx_hal_nand.c ****   if(hnand->State == HAL_NAND_STATE_BUSY)
1469:/home/phong/Documents/thesis/stm32f4/stm-idf/components/stm32f4xx_hal_driver/stm32f4xx_hal_nand.c ****   {
1470:/home/phong/Documents/thesis/stm32f4/stm-idf/components/stm32f4xx_hal_driver/stm32f4xx_hal_nand.c ****      return HAL_BUSY;
1471:/home/phong/Documents/thesis/stm32f4/stm-idf/components/stm32f4xx_hal_driver/stm32f4xx_hal_nand.c ****   }
1472:/home/phong/Documents/thesis/stm32f4/stm-idf/components/stm32f4xx_hal_driver/stm32f4xx_hal_nand.c ****   
1473:/home/phong/Documents/thesis/stm32f4/stm-idf/components/stm32f4xx_hal_driver/stm32f4xx_hal_nand.c ****   /* Identify the device address */
1474:/home/phong/Documents/thesis/stm32f4/stm-idf/components/stm32f4xx_hal_driver/stm32f4xx_hal_nand.c ****   if(hnand->Init.NandBank == FMC_NAND_BANK2)
1475:/home/phong/Documents/thesis/stm32f4/stm-idf/components/stm32f4xx_hal_driver/stm32f4xx_hal_nand.c ****   {
1476:/home/phong/Documents/thesis/stm32f4/stm-idf/components/stm32f4xx_hal_driver/stm32f4xx_hal_nand.c ****     deviceaddress = NAND_DEVICE1;
1477:/home/phong/Documents/thesis/stm32f4/stm-idf/components/stm32f4xx_hal_driver/stm32f4xx_hal_nand.c ****   }
1478:/home/phong/Documents/thesis/stm32f4/stm-idf/components/stm32f4xx_hal_driver/stm32f4xx_hal_nand.c ****   else
1479:/home/phong/Documents/thesis/stm32f4/stm-idf/components/stm32f4xx_hal_driver/stm32f4xx_hal_nand.c ****   {
1480:/home/phong/Documents/thesis/stm32f4/stm-idf/components/stm32f4xx_hal_driver/stm32f4xx_hal_nand.c ****     deviceaddress = NAND_DEVICE2;
1481:/home/phong/Documents/thesis/stm32f4/stm-idf/components/stm32f4xx_hal_driver/stm32f4xx_hal_nand.c ****   }
1482:/home/phong/Documents/thesis/stm32f4/stm-idf/components/stm32f4xx_hal_driver/stm32f4xx_hal_nand.c ****   
1483:/home/phong/Documents/thesis/stm32f4/stm-idf/components/stm32f4xx_hal_driver/stm32f4xx_hal_nand.c ****   /* Update the FMC_NAND controller state */
1484:/home/phong/Documents/thesis/stm32f4/stm-idf/components/stm32f4xx_hal_driver/stm32f4xx_hal_nand.c ****   hnand->State = HAL_NAND_STATE_BUSY;  
1485:/home/phong/Documents/thesis/stm32f4/stm-idf/components/stm32f4xx_hal_driver/stm32f4xx_hal_nand.c ****   
1486:/home/phong/Documents/thesis/stm32f4/stm-idf/components/stm32f4xx_hal_driver/stm32f4xx_hal_nand.c ****   /* NAND raw address calculation */
1487:/home/phong/Documents/thesis/stm32f4/stm-idf/components/stm32f4xx_hal_driver/stm32f4xx_hal_nand.c ****   nandaddress = ARRAY_ADDRESS(pAddress, hnand);
ARM GAS  /tmp/ccM6uMDT.s 			page 40


1488:/home/phong/Documents/thesis/stm32f4/stm-idf/components/stm32f4xx_hal_driver/stm32f4xx_hal_nand.c ****   
1489:/home/phong/Documents/thesis/stm32f4/stm-idf/components/stm32f4xx_hal_driver/stm32f4xx_hal_nand.c ****   /* Column in page address */
1490:/home/phong/Documents/thesis/stm32f4/stm-idf/components/stm32f4xx_hal_driver/stm32f4xx_hal_nand.c ****   columnaddress = (uint32_t)(COLUMN_ADDRESS(hnand) * 2U);
1491:/home/phong/Documents/thesis/stm32f4/stm-idf/components/stm32f4xx_hal_driver/stm32f4xx_hal_nand.c ****   
1492:/home/phong/Documents/thesis/stm32f4/stm-idf/components/stm32f4xx_hal_driver/stm32f4xx_hal_nand.c ****   /* Spare area(s) write loop */
1493:/home/phong/Documents/thesis/stm32f4/stm-idf/components/stm32f4xx_hal_driver/stm32f4xx_hal_nand.c ****   while((NumSpareAreaTowrite != 0U) && (nandaddress < ((hnand->Config.BlockSize) * (hnand->Config.B
1494:/home/phong/Documents/thesis/stm32f4/stm-idf/components/stm32f4xx_hal_driver/stm32f4xx_hal_nand.c ****   {
1495:/home/phong/Documents/thesis/stm32f4/stm-idf/components/stm32f4xx_hal_driver/stm32f4xx_hal_nand.c ****     /* update the buffer size */
1496:/home/phong/Documents/thesis/stm32f4/stm-idf/components/stm32f4xx_hal_driver/stm32f4xx_hal_nand.c ****     size = (hnand->Config.SpareAreaSize) + ((hnand->Config.SpareAreaSize) * numSpareAreaWritten);
1497:/home/phong/Documents/thesis/stm32f4/stm-idf/components/stm32f4xx_hal_driver/stm32f4xx_hal_nand.c **** 
1498:/home/phong/Documents/thesis/stm32f4/stm-idf/components/stm32f4xx_hal_driver/stm32f4xx_hal_nand.c ****     /* Cards with page size <= 512 bytes */
1499:/home/phong/Documents/thesis/stm32f4/stm-idf/components/stm32f4xx_hal_driver/stm32f4xx_hal_nand.c ****     if((hnand->Config.PageSize) <= 512U)
1500:/home/phong/Documents/thesis/stm32f4/stm-idf/components/stm32f4xx_hal_driver/stm32f4xx_hal_nand.c ****     {
1501:/home/phong/Documents/thesis/stm32f4/stm-idf/components/stm32f4xx_hal_driver/stm32f4xx_hal_nand.c ****       /* Send write Spare area command sequence */
1502:/home/phong/Documents/thesis/stm32f4/stm-idf/components/stm32f4xx_hal_driver/stm32f4xx_hal_nand.c ****       *(__IO uint8_t *)((uint32_t)(deviceaddress | CMD_AREA)) = NAND_CMD_AREA_C;
1503:/home/phong/Documents/thesis/stm32f4/stm-idf/components/stm32f4xx_hal_driver/stm32f4xx_hal_nand.c ****       *(__IO uint8_t *)((uint32_t)(deviceaddress | CMD_AREA)) = NAND_CMD_WRITE0;
1504:/home/phong/Documents/thesis/stm32f4/stm-idf/components/stm32f4xx_hal_driver/stm32f4xx_hal_nand.c ****     
1505:/home/phong/Documents/thesis/stm32f4/stm-idf/components/stm32f4xx_hal_driver/stm32f4xx_hal_nand.c ****       if (((hnand->Config.BlockSize)*(hnand->Config.BlockNbr)) <= 65535U)
1506:/home/phong/Documents/thesis/stm32f4/stm-idf/components/stm32f4xx_hal_driver/stm32f4xx_hal_nand.c ****       {
1507:/home/phong/Documents/thesis/stm32f4/stm-idf/components/stm32f4xx_hal_driver/stm32f4xx_hal_nand.c ****         *(__IO uint8_t *)((uint32_t)(deviceaddress | ADDR_AREA)) = 0x00;
1508:/home/phong/Documents/thesis/stm32f4/stm-idf/components/stm32f4xx_hal_driver/stm32f4xx_hal_nand.c ****         *(__IO uint8_t *)((uint32_t)(deviceaddress | ADDR_AREA)) = ADDR_1ST_CYCLE(nandaddress);
1509:/home/phong/Documents/thesis/stm32f4/stm-idf/components/stm32f4xx_hal_driver/stm32f4xx_hal_nand.c ****         *(__IO uint8_t *)((uint32_t)(deviceaddress | ADDR_AREA)) = ADDR_2ND_CYCLE(nandaddress);
1510:/home/phong/Documents/thesis/stm32f4/stm-idf/components/stm32f4xx_hal_driver/stm32f4xx_hal_nand.c ****       }
1511:/home/phong/Documents/thesis/stm32f4/stm-idf/components/stm32f4xx_hal_driver/stm32f4xx_hal_nand.c ****       else /* ((hnand->Config.BlockSize)*(hnand->Config.BlockNbr)) > 65535 */
1512:/home/phong/Documents/thesis/stm32f4/stm-idf/components/stm32f4xx_hal_driver/stm32f4xx_hal_nand.c ****       {
1513:/home/phong/Documents/thesis/stm32f4/stm-idf/components/stm32f4xx_hal_driver/stm32f4xx_hal_nand.c ****         *(__IO uint8_t *)((uint32_t)(deviceaddress | ADDR_AREA)) = 0x00;
1514:/home/phong/Documents/thesis/stm32f4/stm-idf/components/stm32f4xx_hal_driver/stm32f4xx_hal_nand.c ****         *(__IO uint8_t *)((uint32_t)(deviceaddress | ADDR_AREA)) = ADDR_1ST_CYCLE(nandaddress);
1515:/home/phong/Documents/thesis/stm32f4/stm-idf/components/stm32f4xx_hal_driver/stm32f4xx_hal_nand.c ****         *(__IO uint8_t *)((uint32_t)(deviceaddress | ADDR_AREA)) = ADDR_2ND_CYCLE(nandaddress);
1516:/home/phong/Documents/thesis/stm32f4/stm-idf/components/stm32f4xx_hal_driver/stm32f4xx_hal_nand.c ****         *(__IO uint8_t *)((uint32_t)(deviceaddress | ADDR_AREA)) = ADDR_3RD_CYCLE(nandaddress);
1517:/home/phong/Documents/thesis/stm32f4/stm-idf/components/stm32f4xx_hal_driver/stm32f4xx_hal_nand.c ****       }
1518:/home/phong/Documents/thesis/stm32f4/stm-idf/components/stm32f4xx_hal_driver/stm32f4xx_hal_nand.c ****     }
1519:/home/phong/Documents/thesis/stm32f4/stm-idf/components/stm32f4xx_hal_driver/stm32f4xx_hal_nand.c ****     else /* (hnand->Config.PageSize) > 512 */
1520:/home/phong/Documents/thesis/stm32f4/stm-idf/components/stm32f4xx_hal_driver/stm32f4xx_hal_nand.c ****     {
1521:/home/phong/Documents/thesis/stm32f4/stm-idf/components/stm32f4xx_hal_driver/stm32f4xx_hal_nand.c ****       /* Send write Spare area command sequence */
1522:/home/phong/Documents/thesis/stm32f4/stm-idf/components/stm32f4xx_hal_driver/stm32f4xx_hal_nand.c ****       *(__IO uint8_t *)((uint32_t)(deviceaddress | CMD_AREA)) = NAND_CMD_AREA_A;
1523:/home/phong/Documents/thesis/stm32f4/stm-idf/components/stm32f4xx_hal_driver/stm32f4xx_hal_nand.c ****       *(__IO uint8_t *)((uint32_t)(deviceaddress | CMD_AREA)) = NAND_CMD_WRITE0;
1524:/home/phong/Documents/thesis/stm32f4/stm-idf/components/stm32f4xx_hal_driver/stm32f4xx_hal_nand.c ****     
1525:/home/phong/Documents/thesis/stm32f4/stm-idf/components/stm32f4xx_hal_driver/stm32f4xx_hal_nand.c ****       if (((hnand->Config.BlockSize)*(hnand->Config.BlockNbr)) <= 65535U)
1526:/home/phong/Documents/thesis/stm32f4/stm-idf/components/stm32f4xx_hal_driver/stm32f4xx_hal_nand.c ****       {
1527:/home/phong/Documents/thesis/stm32f4/stm-idf/components/stm32f4xx_hal_driver/stm32f4xx_hal_nand.c ****         *(__IO uint8_t *)((uint32_t)(deviceaddress | ADDR_AREA)) = COLUMN_1ST_CYCLE(columnaddress);
1528:/home/phong/Documents/thesis/stm32f4/stm-idf/components/stm32f4xx_hal_driver/stm32f4xx_hal_nand.c ****         *(__IO uint8_t *)((uint32_t)(deviceaddress | ADDR_AREA)) = COLUMN_2ND_CYCLE(columnaddress);
1529:/home/phong/Documents/thesis/stm32f4/stm-idf/components/stm32f4xx_hal_driver/stm32f4xx_hal_nand.c ****         *(__IO uint8_t *)((uint32_t)(deviceaddress | ADDR_AREA)) = ADDR_1ST_CYCLE(nandaddress);
1530:/home/phong/Documents/thesis/stm32f4/stm-idf/components/stm32f4xx_hal_driver/stm32f4xx_hal_nand.c ****         *(__IO uint8_t *)((uint32_t)(deviceaddress | ADDR_AREA)) = ADDR_2ND_CYCLE(nandaddress);
1531:/home/phong/Documents/thesis/stm32f4/stm-idf/components/stm32f4xx_hal_driver/stm32f4xx_hal_nand.c ****       }
1532:/home/phong/Documents/thesis/stm32f4/stm-idf/components/stm32f4xx_hal_driver/stm32f4xx_hal_nand.c ****       else /* ((hnand->Config.BlockSize)*(hnand->Config.BlockNbr)) > 65535 */
1533:/home/phong/Documents/thesis/stm32f4/stm-idf/components/stm32f4xx_hal_driver/stm32f4xx_hal_nand.c ****       {
1534:/home/phong/Documents/thesis/stm32f4/stm-idf/components/stm32f4xx_hal_driver/stm32f4xx_hal_nand.c ****         *(__IO uint8_t *)((uint32_t)(deviceaddress | ADDR_AREA)) = COLUMN_1ST_CYCLE(columnaddress);
1535:/home/phong/Documents/thesis/stm32f4/stm-idf/components/stm32f4xx_hal_driver/stm32f4xx_hal_nand.c ****         *(__IO uint8_t *)((uint32_t)(deviceaddress | ADDR_AREA)) = COLUMN_2ND_CYCLE(columnaddress);
1536:/home/phong/Documents/thesis/stm32f4/stm-idf/components/stm32f4xx_hal_driver/stm32f4xx_hal_nand.c ****         *(__IO uint8_t *)((uint32_t)(deviceaddress | ADDR_AREA)) = ADDR_1ST_CYCLE(nandaddress);
1537:/home/phong/Documents/thesis/stm32f4/stm-idf/components/stm32f4xx_hal_driver/stm32f4xx_hal_nand.c ****         *(__IO uint8_t *)((uint32_t)(deviceaddress | ADDR_AREA)) = ADDR_2ND_CYCLE(nandaddress);
1538:/home/phong/Documents/thesis/stm32f4/stm-idf/components/stm32f4xx_hal_driver/stm32f4xx_hal_nand.c ****         *(__IO uint8_t *)((uint32_t)(deviceaddress | ADDR_AREA)) = ADDR_3RD_CYCLE(nandaddress);
1539:/home/phong/Documents/thesis/stm32f4/stm-idf/components/stm32f4xx_hal_driver/stm32f4xx_hal_nand.c ****       }
1540:/home/phong/Documents/thesis/stm32f4/stm-idf/components/stm32f4xx_hal_driver/stm32f4xx_hal_nand.c ****     }
1541:/home/phong/Documents/thesis/stm32f4/stm-idf/components/stm32f4xx_hal_driver/stm32f4xx_hal_nand.c ****   
1542:/home/phong/Documents/thesis/stm32f4/stm-idf/components/stm32f4xx_hal_driver/stm32f4xx_hal_nand.c ****     /* Write data to memory */
1543:/home/phong/Documents/thesis/stm32f4/stm-idf/components/stm32f4xx_hal_driver/stm32f4xx_hal_nand.c ****     for(; index < size; index++)
1544:/home/phong/Documents/thesis/stm32f4/stm-idf/components/stm32f4xx_hal_driver/stm32f4xx_hal_nand.c ****     {
ARM GAS  /tmp/ccM6uMDT.s 			page 41


1545:/home/phong/Documents/thesis/stm32f4/stm-idf/components/stm32f4xx_hal_driver/stm32f4xx_hal_nand.c ****       *(__IO uint16_t *)deviceaddress = *(uint16_t *)pBuffer++;
1546:/home/phong/Documents/thesis/stm32f4/stm-idf/components/stm32f4xx_hal_driver/stm32f4xx_hal_nand.c ****     }
1547:/home/phong/Documents/thesis/stm32f4/stm-idf/components/stm32f4xx_hal_driver/stm32f4xx_hal_nand.c ****    
1548:/home/phong/Documents/thesis/stm32f4/stm-idf/components/stm32f4xx_hal_driver/stm32f4xx_hal_nand.c ****     *(__IO uint8_t *)((uint32_t)(deviceaddress | CMD_AREA)) = NAND_CMD_WRITE_TRUE1;
1549:/home/phong/Documents/thesis/stm32f4/stm-idf/components/stm32f4xx_hal_driver/stm32f4xx_hal_nand.c ****    
1550:/home/phong/Documents/thesis/stm32f4/stm-idf/components/stm32f4xx_hal_driver/stm32f4xx_hal_nand.c ****     /* Get tick */
1551:/home/phong/Documents/thesis/stm32f4/stm-idf/components/stm32f4xx_hal_driver/stm32f4xx_hal_nand.c ****     tickstart = HAL_GetTick();
1552:/home/phong/Documents/thesis/stm32f4/stm-idf/components/stm32f4xx_hal_driver/stm32f4xx_hal_nand.c **** 
1553:/home/phong/Documents/thesis/stm32f4/stm-idf/components/stm32f4xx_hal_driver/stm32f4xx_hal_nand.c ****     /* Read status until NAND is ready */
1554:/home/phong/Documents/thesis/stm32f4/stm-idf/components/stm32f4xx_hal_driver/stm32f4xx_hal_nand.c ****     while(HAL_NAND_Read_Status(hnand) != NAND_READY)
1555:/home/phong/Documents/thesis/stm32f4/stm-idf/components/stm32f4xx_hal_driver/stm32f4xx_hal_nand.c ****     {    
1556:/home/phong/Documents/thesis/stm32f4/stm-idf/components/stm32f4xx_hal_driver/stm32f4xx_hal_nand.c ****       if((HAL_GetTick() - tickstart ) > NAND_WRITE_TIMEOUT)
1557:/home/phong/Documents/thesis/stm32f4/stm-idf/components/stm32f4xx_hal_driver/stm32f4xx_hal_nand.c ****       {
1558:/home/phong/Documents/thesis/stm32f4/stm-idf/components/stm32f4xx_hal_driver/stm32f4xx_hal_nand.c ****         return HAL_TIMEOUT; 
1559:/home/phong/Documents/thesis/stm32f4/stm-idf/components/stm32f4xx_hal_driver/stm32f4xx_hal_nand.c ****       }
1560:/home/phong/Documents/thesis/stm32f4/stm-idf/components/stm32f4xx_hal_driver/stm32f4xx_hal_nand.c ****     }
1561:/home/phong/Documents/thesis/stm32f4/stm-idf/components/stm32f4xx_hal_driver/stm32f4xx_hal_nand.c **** 
1562:/home/phong/Documents/thesis/stm32f4/stm-idf/components/stm32f4xx_hal_driver/stm32f4xx_hal_nand.c ****     /* Increment written spare areas number */
1563:/home/phong/Documents/thesis/stm32f4/stm-idf/components/stm32f4xx_hal_driver/stm32f4xx_hal_nand.c ****     numSpareAreaWritten++;
1564:/home/phong/Documents/thesis/stm32f4/stm-idf/components/stm32f4xx_hal_driver/stm32f4xx_hal_nand.c ****     
1565:/home/phong/Documents/thesis/stm32f4/stm-idf/components/stm32f4xx_hal_driver/stm32f4xx_hal_nand.c ****     /* Decrement spare areas to write */
1566:/home/phong/Documents/thesis/stm32f4/stm-idf/components/stm32f4xx_hal_driver/stm32f4xx_hal_nand.c ****     NumSpareAreaTowrite--;
1567:/home/phong/Documents/thesis/stm32f4/stm-idf/components/stm32f4xx_hal_driver/stm32f4xx_hal_nand.c ****     
1568:/home/phong/Documents/thesis/stm32f4/stm-idf/components/stm32f4xx_hal_driver/stm32f4xx_hal_nand.c ****     /* Increment the NAND address */
1569:/home/phong/Documents/thesis/stm32f4/stm-idf/components/stm32f4xx_hal_driver/stm32f4xx_hal_nand.c ****     nandaddress = (uint32_t)(nandaddress + 1U);
1570:/home/phong/Documents/thesis/stm32f4/stm-idf/components/stm32f4xx_hal_driver/stm32f4xx_hal_nand.c ****   }
1571:/home/phong/Documents/thesis/stm32f4/stm-idf/components/stm32f4xx_hal_driver/stm32f4xx_hal_nand.c **** 
1572:/home/phong/Documents/thesis/stm32f4/stm-idf/components/stm32f4xx_hal_driver/stm32f4xx_hal_nand.c ****   /* Update the NAND controller state */
1573:/home/phong/Documents/thesis/stm32f4/stm-idf/components/stm32f4xx_hal_driver/stm32f4xx_hal_nand.c ****   hnand->State = HAL_NAND_STATE_READY;
1574:/home/phong/Documents/thesis/stm32f4/stm-idf/components/stm32f4xx_hal_driver/stm32f4xx_hal_nand.c **** 
1575:/home/phong/Documents/thesis/stm32f4/stm-idf/components/stm32f4xx_hal_driver/stm32f4xx_hal_nand.c ****   /* Process unlocked */
1576:/home/phong/Documents/thesis/stm32f4/stm-idf/components/stm32f4xx_hal_driver/stm32f4xx_hal_nand.c ****   __HAL_UNLOCK(hnand);
1577:/home/phong/Documents/thesis/stm32f4/stm-idf/components/stm32f4xx_hal_driver/stm32f4xx_hal_nand.c **** 
1578:/home/phong/Documents/thesis/stm32f4/stm-idf/components/stm32f4xx_hal_driver/stm32f4xx_hal_nand.c ****   return HAL_OK;  
1579:/home/phong/Documents/thesis/stm32f4/stm-idf/components/stm32f4xx_hal_driver/stm32f4xx_hal_nand.c **** }
1580:/home/phong/Documents/thesis/stm32f4/stm-idf/components/stm32f4xx_hal_driver/stm32f4xx_hal_nand.c **** 
1581:/home/phong/Documents/thesis/stm32f4/stm-idf/components/stm32f4xx_hal_driver/stm32f4xx_hal_nand.c **** /**
1582:/home/phong/Documents/thesis/stm32f4/stm-idf/components/stm32f4xx_hal_driver/stm32f4xx_hal_nand.c ****   * @brief  NAND memory Block erase 
1583:/home/phong/Documents/thesis/stm32f4/stm-idf/components/stm32f4xx_hal_driver/stm32f4xx_hal_nand.c ****   * @param  hnand pointer to a NAND_HandleTypeDef structure that contains
1584:/home/phong/Documents/thesis/stm32f4/stm-idf/components/stm32f4xx_hal_driver/stm32f4xx_hal_nand.c ****   *                the configuration information for NAND module.
1585:/home/phong/Documents/thesis/stm32f4/stm-idf/components/stm32f4xx_hal_driver/stm32f4xx_hal_nand.c ****   * @param  pAddress  pointer to NAND address structure
1586:/home/phong/Documents/thesis/stm32f4/stm-idf/components/stm32f4xx_hal_driver/stm32f4xx_hal_nand.c ****   * @retval HAL status
1587:/home/phong/Documents/thesis/stm32f4/stm-idf/components/stm32f4xx_hal_driver/stm32f4xx_hal_nand.c ****   */
1588:/home/phong/Documents/thesis/stm32f4/stm-idf/components/stm32f4xx_hal_driver/stm32f4xx_hal_nand.c **** HAL_StatusTypeDef HAL_NAND_Erase_Block(NAND_HandleTypeDef *hnand, NAND_AddressTypeDef *pAddress)
1589:/home/phong/Documents/thesis/stm32f4/stm-idf/components/stm32f4xx_hal_driver/stm32f4xx_hal_nand.c **** {
1590:/home/phong/Documents/thesis/stm32f4/stm-idf/components/stm32f4xx_hal_driver/stm32f4xx_hal_nand.c ****   uint32_t deviceaddress = 0U;
1591:/home/phong/Documents/thesis/stm32f4/stm-idf/components/stm32f4xx_hal_driver/stm32f4xx_hal_nand.c ****   uint32_t tickstart = 0U;
1592:/home/phong/Documents/thesis/stm32f4/stm-idf/components/stm32f4xx_hal_driver/stm32f4xx_hal_nand.c ****   
1593:/home/phong/Documents/thesis/stm32f4/stm-idf/components/stm32f4xx_hal_driver/stm32f4xx_hal_nand.c ****   /* Process Locked */
1594:/home/phong/Documents/thesis/stm32f4/stm-idf/components/stm32f4xx_hal_driver/stm32f4xx_hal_nand.c ****   __HAL_LOCK(hnand);
1595:/home/phong/Documents/thesis/stm32f4/stm-idf/components/stm32f4xx_hal_driver/stm32f4xx_hal_nand.c ****   
1596:/home/phong/Documents/thesis/stm32f4/stm-idf/components/stm32f4xx_hal_driver/stm32f4xx_hal_nand.c ****   /* Check the NAND controller state */
1597:/home/phong/Documents/thesis/stm32f4/stm-idf/components/stm32f4xx_hal_driver/stm32f4xx_hal_nand.c ****   if(hnand->State == HAL_NAND_STATE_BUSY)
1598:/home/phong/Documents/thesis/stm32f4/stm-idf/components/stm32f4xx_hal_driver/stm32f4xx_hal_nand.c ****   {
1599:/home/phong/Documents/thesis/stm32f4/stm-idf/components/stm32f4xx_hal_driver/stm32f4xx_hal_nand.c ****      return HAL_BUSY;
1600:/home/phong/Documents/thesis/stm32f4/stm-idf/components/stm32f4xx_hal_driver/stm32f4xx_hal_nand.c ****   }
1601:/home/phong/Documents/thesis/stm32f4/stm-idf/components/stm32f4xx_hal_driver/stm32f4xx_hal_nand.c ****   
ARM GAS  /tmp/ccM6uMDT.s 			page 42


1602:/home/phong/Documents/thesis/stm32f4/stm-idf/components/stm32f4xx_hal_driver/stm32f4xx_hal_nand.c ****   /* Identify the device address */
1603:/home/phong/Documents/thesis/stm32f4/stm-idf/components/stm32f4xx_hal_driver/stm32f4xx_hal_nand.c ****   if(hnand->Init.NandBank == FMC_NAND_BANK2)
1604:/home/phong/Documents/thesis/stm32f4/stm-idf/components/stm32f4xx_hal_driver/stm32f4xx_hal_nand.c ****   {
1605:/home/phong/Documents/thesis/stm32f4/stm-idf/components/stm32f4xx_hal_driver/stm32f4xx_hal_nand.c ****     deviceaddress = NAND_DEVICE1;
1606:/home/phong/Documents/thesis/stm32f4/stm-idf/components/stm32f4xx_hal_driver/stm32f4xx_hal_nand.c ****   }
1607:/home/phong/Documents/thesis/stm32f4/stm-idf/components/stm32f4xx_hal_driver/stm32f4xx_hal_nand.c ****   else
1608:/home/phong/Documents/thesis/stm32f4/stm-idf/components/stm32f4xx_hal_driver/stm32f4xx_hal_nand.c ****   {
1609:/home/phong/Documents/thesis/stm32f4/stm-idf/components/stm32f4xx_hal_driver/stm32f4xx_hal_nand.c ****     deviceaddress = NAND_DEVICE2;
1610:/home/phong/Documents/thesis/stm32f4/stm-idf/components/stm32f4xx_hal_driver/stm32f4xx_hal_nand.c ****   }
1611:/home/phong/Documents/thesis/stm32f4/stm-idf/components/stm32f4xx_hal_driver/stm32f4xx_hal_nand.c ****   
1612:/home/phong/Documents/thesis/stm32f4/stm-idf/components/stm32f4xx_hal_driver/stm32f4xx_hal_nand.c ****   /* Update the NAND controller state */
1613:/home/phong/Documents/thesis/stm32f4/stm-idf/components/stm32f4xx_hal_driver/stm32f4xx_hal_nand.c ****   hnand->State = HAL_NAND_STATE_BUSY;  
1614:/home/phong/Documents/thesis/stm32f4/stm-idf/components/stm32f4xx_hal_driver/stm32f4xx_hal_nand.c ****   
1615:/home/phong/Documents/thesis/stm32f4/stm-idf/components/stm32f4xx_hal_driver/stm32f4xx_hal_nand.c ****   /* Send Erase block command sequence */
1616:/home/phong/Documents/thesis/stm32f4/stm-idf/components/stm32f4xx_hal_driver/stm32f4xx_hal_nand.c ****   *(__IO uint8_t *)((uint32_t)(deviceaddress | CMD_AREA)) = NAND_CMD_ERASE0;
1617:/home/phong/Documents/thesis/stm32f4/stm-idf/components/stm32f4xx_hal_driver/stm32f4xx_hal_nand.c **** 
1618:/home/phong/Documents/thesis/stm32f4/stm-idf/components/stm32f4xx_hal_driver/stm32f4xx_hal_nand.c ****   *(__IO uint8_t *)((uint32_t)(deviceaddress | ADDR_AREA)) = ADDR_1ST_CYCLE(ARRAY_ADDRESS(pAddress,
1619:/home/phong/Documents/thesis/stm32f4/stm-idf/components/stm32f4xx_hal_driver/stm32f4xx_hal_nand.c ****   *(__IO uint8_t *)((uint32_t)(deviceaddress | ADDR_AREA)) = ADDR_2ND_CYCLE(ARRAY_ADDRESS(pAddress,
1620:/home/phong/Documents/thesis/stm32f4/stm-idf/components/stm32f4xx_hal_driver/stm32f4xx_hal_nand.c ****   *(__IO uint8_t *)((uint32_t)(deviceaddress | ADDR_AREA)) = ADDR_3RD_CYCLE(ARRAY_ADDRESS(pAddress,
1621:/home/phong/Documents/thesis/stm32f4/stm-idf/components/stm32f4xx_hal_driver/stm32f4xx_hal_nand.c ****     
1622:/home/phong/Documents/thesis/stm32f4/stm-idf/components/stm32f4xx_hal_driver/stm32f4xx_hal_nand.c ****   *(__IO uint8_t *)((uint32_t)(deviceaddress | CMD_AREA)) = NAND_CMD_ERASE1; 
1623:/home/phong/Documents/thesis/stm32f4/stm-idf/components/stm32f4xx_hal_driver/stm32f4xx_hal_nand.c ****   
1624:/home/phong/Documents/thesis/stm32f4/stm-idf/components/stm32f4xx_hal_driver/stm32f4xx_hal_nand.c ****   /* Update the NAND controller state */
1625:/home/phong/Documents/thesis/stm32f4/stm-idf/components/stm32f4xx_hal_driver/stm32f4xx_hal_nand.c ****   hnand->State = HAL_NAND_STATE_READY;
1626:/home/phong/Documents/thesis/stm32f4/stm-idf/components/stm32f4xx_hal_driver/stm32f4xx_hal_nand.c ****   
1627:/home/phong/Documents/thesis/stm32f4/stm-idf/components/stm32f4xx_hal_driver/stm32f4xx_hal_nand.c ****   /* Get tick */
1628:/home/phong/Documents/thesis/stm32f4/stm-idf/components/stm32f4xx_hal_driver/stm32f4xx_hal_nand.c ****   tickstart = HAL_GetTick();
1629:/home/phong/Documents/thesis/stm32f4/stm-idf/components/stm32f4xx_hal_driver/stm32f4xx_hal_nand.c ****   
1630:/home/phong/Documents/thesis/stm32f4/stm-idf/components/stm32f4xx_hal_driver/stm32f4xx_hal_nand.c ****   /* Read status until NAND is ready */
1631:/home/phong/Documents/thesis/stm32f4/stm-idf/components/stm32f4xx_hal_driver/stm32f4xx_hal_nand.c ****   while(HAL_NAND_Read_Status(hnand) != NAND_READY)
1632:/home/phong/Documents/thesis/stm32f4/stm-idf/components/stm32f4xx_hal_driver/stm32f4xx_hal_nand.c ****   {
1633:/home/phong/Documents/thesis/stm32f4/stm-idf/components/stm32f4xx_hal_driver/stm32f4xx_hal_nand.c ****     if((HAL_GetTick() - tickstart ) > NAND_WRITE_TIMEOUT)
1634:/home/phong/Documents/thesis/stm32f4/stm-idf/components/stm32f4xx_hal_driver/stm32f4xx_hal_nand.c ****     {
1635:/home/phong/Documents/thesis/stm32f4/stm-idf/components/stm32f4xx_hal_driver/stm32f4xx_hal_nand.c ****       /* Process unlocked */
1636:/home/phong/Documents/thesis/stm32f4/stm-idf/components/stm32f4xx_hal_driver/stm32f4xx_hal_nand.c ****       __HAL_UNLOCK(hnand);    
1637:/home/phong/Documents/thesis/stm32f4/stm-idf/components/stm32f4xx_hal_driver/stm32f4xx_hal_nand.c ****   
1638:/home/phong/Documents/thesis/stm32f4/stm-idf/components/stm32f4xx_hal_driver/stm32f4xx_hal_nand.c ****       return HAL_TIMEOUT; 
1639:/home/phong/Documents/thesis/stm32f4/stm-idf/components/stm32f4xx_hal_driver/stm32f4xx_hal_nand.c ****     } 
1640:/home/phong/Documents/thesis/stm32f4/stm-idf/components/stm32f4xx_hal_driver/stm32f4xx_hal_nand.c ****   }    
1641:/home/phong/Documents/thesis/stm32f4/stm-idf/components/stm32f4xx_hal_driver/stm32f4xx_hal_nand.c ****  
1642:/home/phong/Documents/thesis/stm32f4/stm-idf/components/stm32f4xx_hal_driver/stm32f4xx_hal_nand.c ****   /* Process unlocked */
1643:/home/phong/Documents/thesis/stm32f4/stm-idf/components/stm32f4xx_hal_driver/stm32f4xx_hal_nand.c ****   __HAL_UNLOCK(hnand);    
1644:/home/phong/Documents/thesis/stm32f4/stm-idf/components/stm32f4xx_hal_driver/stm32f4xx_hal_nand.c ****   
1645:/home/phong/Documents/thesis/stm32f4/stm-idf/components/stm32f4xx_hal_driver/stm32f4xx_hal_nand.c ****   return HAL_OK;  
1646:/home/phong/Documents/thesis/stm32f4/stm-idf/components/stm32f4xx_hal_driver/stm32f4xx_hal_nand.c **** }
1647:/home/phong/Documents/thesis/stm32f4/stm-idf/components/stm32f4xx_hal_driver/stm32f4xx_hal_nand.c **** 
1648:/home/phong/Documents/thesis/stm32f4/stm-idf/components/stm32f4xx_hal_driver/stm32f4xx_hal_nand.c **** /**
1649:/home/phong/Documents/thesis/stm32f4/stm-idf/components/stm32f4xx_hal_driver/stm32f4xx_hal_nand.c ****   * @brief  NAND memory read status 
1650:/home/phong/Documents/thesis/stm32f4/stm-idf/components/stm32f4xx_hal_driver/stm32f4xx_hal_nand.c ****   * @param  hnand pointer to a NAND_HandleTypeDef structure that contains
1651:/home/phong/Documents/thesis/stm32f4/stm-idf/components/stm32f4xx_hal_driver/stm32f4xx_hal_nand.c ****   *                the configuration information for NAND module.
1652:/home/phong/Documents/thesis/stm32f4/stm-idf/components/stm32f4xx_hal_driver/stm32f4xx_hal_nand.c ****   * @retval NAND status
1653:/home/phong/Documents/thesis/stm32f4/stm-idf/components/stm32f4xx_hal_driver/stm32f4xx_hal_nand.c ****   */
1654:/home/phong/Documents/thesis/stm32f4/stm-idf/components/stm32f4xx_hal_driver/stm32f4xx_hal_nand.c **** uint32_t HAL_NAND_Read_Status(NAND_HandleTypeDef *hnand)
1655:/home/phong/Documents/thesis/stm32f4/stm-idf/components/stm32f4xx_hal_driver/stm32f4xx_hal_nand.c **** {
 687              		.loc 1 1655 0
 688              		.cfi_startproc
 689              		@ args = 0, pretend = 0, frame = 0
ARM GAS  /tmp/ccM6uMDT.s 			page 43


 690              		@ frame_needed = 0, uses_anonymous_args = 0
 691              		@ link register save eliminated.
 692              	.LVL45:
1656:/home/phong/Documents/thesis/stm32f4/stm-idf/components/stm32f4xx_hal_driver/stm32f4xx_hal_nand.c ****   uint32_t data = 0U;
1657:/home/phong/Documents/thesis/stm32f4/stm-idf/components/stm32f4xx_hal_driver/stm32f4xx_hal_nand.c ****   uint32_t deviceaddress = 0U;
1658:/home/phong/Documents/thesis/stm32f4/stm-idf/components/stm32f4xx_hal_driver/stm32f4xx_hal_nand.c ****   
1659:/home/phong/Documents/thesis/stm32f4/stm-idf/components/stm32f4xx_hal_driver/stm32f4xx_hal_nand.c ****   /* Identify the device address */
1660:/home/phong/Documents/thesis/stm32f4/stm-idf/components/stm32f4xx_hal_driver/stm32f4xx_hal_nand.c ****   if(hnand->Init.NandBank == FMC_NAND_BANK2)
 693              		.loc 1 1660 0
 694 0000 4368     		ldr	r3, [r0, #4]
 695 0002 102B     		cmp	r3, #16
 696 0004 0FD0     		beq	.L72
1661:/home/phong/Documents/thesis/stm32f4/stm-idf/components/stm32f4xx_hal_driver/stm32f4xx_hal_nand.c ****   {
1662:/home/phong/Documents/thesis/stm32f4/stm-idf/components/stm32f4xx_hal_driver/stm32f4xx_hal_nand.c ****     deviceaddress = NAND_DEVICE1;
1663:/home/phong/Documents/thesis/stm32f4/stm-idf/components/stm32f4xx_hal_driver/stm32f4xx_hal_nand.c ****   }
1664:/home/phong/Documents/thesis/stm32f4/stm-idf/components/stm32f4xx_hal_driver/stm32f4xx_hal_nand.c ****   else
1665:/home/phong/Documents/thesis/stm32f4/stm-idf/components/stm32f4xx_hal_driver/stm32f4xx_hal_nand.c ****   {
1666:/home/phong/Documents/thesis/stm32f4/stm-idf/components/stm32f4xx_hal_driver/stm32f4xx_hal_nand.c ****     deviceaddress = NAND_DEVICE2;
 697              		.loc 1 1666 0
 698 0006 4FF00043 		mov	r3, #-2147483648
 699              	.L67:
 700              	.LVL46:
1667:/home/phong/Documents/thesis/stm32f4/stm-idf/components/stm32f4xx_hal_driver/stm32f4xx_hal_nand.c ****   } 
1668:/home/phong/Documents/thesis/stm32f4/stm-idf/components/stm32f4xx_hal_driver/stm32f4xx_hal_nand.c **** 
1669:/home/phong/Documents/thesis/stm32f4/stm-idf/components/stm32f4xx_hal_driver/stm32f4xx_hal_nand.c ****   /* Send Read status operation command */
1670:/home/phong/Documents/thesis/stm32f4/stm-idf/components/stm32f4xx_hal_driver/stm32f4xx_hal_nand.c ****   *(__IO uint8_t *)((uint32_t)(deviceaddress | CMD_AREA)) = NAND_CMD_STATUS;
 701              		.loc 1 1670 0
 702 000a 43F48032 		orr	r2, r3, #65536
 703 000e 7021     		movs	r1, #112
 704 0010 1170     		strb	r1, [r2]
1671:/home/phong/Documents/thesis/stm32f4/stm-idf/components/stm32f4xx_hal_driver/stm32f4xx_hal_nand.c ****   
1672:/home/phong/Documents/thesis/stm32f4/stm-idf/components/stm32f4xx_hal_driver/stm32f4xx_hal_nand.c ****   /* Read status register data */
1673:/home/phong/Documents/thesis/stm32f4/stm-idf/components/stm32f4xx_hal_driver/stm32f4xx_hal_nand.c ****   data = *(__IO uint8_t *)deviceaddress;
 705              		.loc 1 1673 0
 706 0012 1B78     		ldrb	r3, [r3]	@ zero_extendqisi2
 707              	.LVL47:
 708 0014 DBB2     		uxtb	r3, r3
 709              	.LVL48:
1674:/home/phong/Documents/thesis/stm32f4/stm-idf/components/stm32f4xx_hal_driver/stm32f4xx_hal_nand.c **** 
1675:/home/phong/Documents/thesis/stm32f4/stm-idf/components/stm32f4xx_hal_driver/stm32f4xx_hal_nand.c ****   /* Return the status */
1676:/home/phong/Documents/thesis/stm32f4/stm-idf/components/stm32f4xx_hal_driver/stm32f4xx_hal_nand.c ****   if((data & NAND_ERROR) == NAND_ERROR)
 710              		.loc 1 1676 0
 711 0016 13F0010F 		tst	r3, #1
 712 001a 07D1     		bne	.L70
1677:/home/phong/Documents/thesis/stm32f4/stm-idf/components/stm32f4xx_hal_driver/stm32f4xx_hal_nand.c ****   {
1678:/home/phong/Documents/thesis/stm32f4/stm-idf/components/stm32f4xx_hal_driver/stm32f4xx_hal_nand.c ****     return NAND_ERROR;
1679:/home/phong/Documents/thesis/stm32f4/stm-idf/components/stm32f4xx_hal_driver/stm32f4xx_hal_nand.c ****   } 
1680:/home/phong/Documents/thesis/stm32f4/stm-idf/components/stm32f4xx_hal_driver/stm32f4xx_hal_nand.c ****   else if((data & NAND_READY) == NAND_READY)
 713              		.loc 1 1680 0
 714 001c 13F0400F 		tst	r3, #64
 715 0020 06D0     		beq	.L71
1681:/home/phong/Documents/thesis/stm32f4/stm-idf/components/stm32f4xx_hal_driver/stm32f4xx_hal_nand.c ****   {
1682:/home/phong/Documents/thesis/stm32f4/stm-idf/components/stm32f4xx_hal_driver/stm32f4xx_hal_nand.c ****     return NAND_READY;
 716              		.loc 1 1682 0
 717 0022 4020     		movs	r0, #64
 718              	.LVL49:
 719 0024 7047     		bx	lr
ARM GAS  /tmp/ccM6uMDT.s 			page 44


 720              	.LVL50:
 721              	.L72:
1662:/home/phong/Documents/thesis/stm32f4/stm-idf/components/stm32f4xx_hal_driver/stm32f4xx_hal_nand.c ****   }
 722              		.loc 1 1662 0
 723 0026 4FF0E043 		mov	r3, #1879048192
 724 002a EEE7     		b	.L67
 725              	.LVL51:
 726              	.L70:
1678:/home/phong/Documents/thesis/stm32f4/stm-idf/components/stm32f4xx_hal_driver/stm32f4xx_hal_nand.c ****   } 
 727              		.loc 1 1678 0
 728 002c 0120     		movs	r0, #1
 729              	.LVL52:
 730 002e 7047     		bx	lr
 731              	.LVL53:
 732              	.L71:
1683:/home/phong/Documents/thesis/stm32f4/stm-idf/components/stm32f4xx_hal_driver/stm32f4xx_hal_nand.c ****   }
1684:/home/phong/Documents/thesis/stm32f4/stm-idf/components/stm32f4xx_hal_driver/stm32f4xx_hal_nand.c **** 
1685:/home/phong/Documents/thesis/stm32f4/stm-idf/components/stm32f4xx_hal_driver/stm32f4xx_hal_nand.c ****   return NAND_BUSY; 
 733              		.loc 1 1685 0
 734 0030 0020     		movs	r0, #0
 735              	.LVL54:
1686:/home/phong/Documents/thesis/stm32f4/stm-idf/components/stm32f4xx_hal_driver/stm32f4xx_hal_nand.c **** }
 736              		.loc 1 1686 0
 737 0032 7047     		bx	lr
 738              		.cfi_endproc
 739              	.LFE148:
 741              		.section	.text.HAL_NAND_Read_Page_8b,"ax",%progbits
 742              		.align	1
 743              		.global	HAL_NAND_Read_Page_8b
 744              		.syntax unified
 745              		.thumb
 746              		.thumb_func
 747              		.fpu fpv4-sp-d16
 749              	HAL_NAND_Read_Page_8b:
 750              	.LFB139:
 536:/home/phong/Documents/thesis/stm32f4/stm-idf/components/stm32f4xx_hal_driver/stm32f4xx_hal_nand.c ****   __IO uint32_t index  = 0U;
 751              		.loc 1 536 0
 752              		.cfi_startproc
 753              		@ args = 0, pretend = 0, frame = 16
 754              		@ frame_needed = 0, uses_anonymous_args = 0
 755              	.LVL55:
 756 0000 2DE9F04F 		push	{r4, r5, r6, r7, r8, r9, r10, fp, lr}
 757              	.LCFI9:
 758              		.cfi_def_cfa_offset 36
 759              		.cfi_offset 4, -36
 760              		.cfi_offset 5, -32
 761              		.cfi_offset 6, -28
 762              		.cfi_offset 7, -24
 763              		.cfi_offset 8, -20
 764              		.cfi_offset 9, -16
 765              		.cfi_offset 10, -12
 766              		.cfi_offset 11, -8
 767              		.cfi_offset 14, -4
 768 0004 85B0     		sub	sp, sp, #20
 769              	.LCFI10:
 770              		.cfi_def_cfa_offset 56
 771 0006 9946     		mov	r9, r3
ARM GAS  /tmp/ccM6uMDT.s 			page 45


 537:/home/phong/Documents/thesis/stm32f4/stm-idf/components/stm32f4xx_hal_driver/stm32f4xx_hal_nand.c ****   uint32_t tickstart = 0U;
 772              		.loc 1 537 0
 773 0008 0023     		movs	r3, #0
 774              	.LVL56:
 775 000a 0393     		str	r3, [sp, #12]
 776              	.LVL57:
 542:/home/phong/Documents/thesis/stm32f4/stm-idf/components/stm32f4xx_hal_driver/stm32f4xx_hal_nand.c ****   
 777              		.loc 1 542 0
 778 000c 90F82030 		ldrb	r3, [r0, #32]	@ zero_extendqisi2
 779 0010 012B     		cmp	r3, #1
 780 0012 00F0AD80 		beq	.L88
 781 0016 0746     		mov	r7, r0
 782 0018 1446     		mov	r4, r2
 542:/home/phong/Documents/thesis/stm32f4/stm-idf/components/stm32f4xx_hal_driver/stm32f4xx_hal_nand.c ****   
 783              		.loc 1 542 0 is_stmt 0 discriminator 2
 784 001a 0123     		movs	r3, #1
 785 001c 80F82030 		strb	r3, [r0, #32]
 545:/home/phong/Documents/thesis/stm32f4/stm-idf/components/stm32f4xx_hal_driver/stm32f4xx_hal_nand.c ****   {
 786              		.loc 1 545 0 is_stmt 1 discriminator 2
 787 0020 90F82130 		ldrb	r3, [r0, #33]	@ zero_extendqisi2
 788 0024 DBB2     		uxtb	r3, r3
 789 0026 022B     		cmp	r3, #2
 790 0028 00F0A680 		beq	.L89
 551:/home/phong/Documents/thesis/stm32f4/stm-idf/components/stm32f4xx_hal_driver/stm32f4xx_hal_nand.c ****   {
 791              		.loc 1 551 0
 792 002c 4368     		ldr	r3, [r0, #4]
 793 002e 102B     		cmp	r3, #16
 794 0030 11D0     		beq	.L93
 557:/home/phong/Documents/thesis/stm32f4/stm-idf/components/stm32f4xx_hal_driver/stm32f4xx_hal_nand.c ****   }
 795              		.loc 1 557 0
 796 0032 4FF00046 		mov	r6, #-2147483648
 797              	.L75:
 798              	.LVL58:
 561:/home/phong/Documents/thesis/stm32f4/stm-idf/components/stm32f4xx_hal_driver/stm32f4xx_hal_nand.c ****   
 799              		.loc 1 561 0
 800 0036 0223     		movs	r3, #2
 801 0038 87F82130 		strb	r3, [r7, #33]
 564:/home/phong/Documents/thesis/stm32f4/stm-idf/components/stm32f4xx_hal_driver/stm32f4xx_hal_nand.c **** 
 802              		.loc 1 564 0
 803 003c 0B88     		ldrh	r3, [r1]
 804 003e 8A88     		ldrh	r2, [r1, #4]
 805              	.LVL59:
 806 0040 B1F80280 		ldrh	r8, [r1, #2]
 807 0044 B96B     		ldr	r1, [r7, #56]
 808              	.LVL60:
 809 0046 01FB0828 		mla	r8, r1, r8, r2
 810 004a FA6A     		ldr	r2, [r7, #44]
 811 004c 02FB0838 		mla	r8, r2, r8, r3
 812              	.LVL61:
 539:/home/phong/Documents/thesis/stm32f4/stm-idf/components/stm32f4xx_hal_driver/stm32f4xx_hal_nand.c ****   
 813              		.loc 1 539 0
 814 0050 4FF0000A 		mov	r10, #0
 567:/home/phong/Documents/thesis/stm32f4/stm-idf/components/stm32f4xx_hal_driver/stm32f4xx_hal_nand.c ****   {
 815              		.loc 1 567 0
 816 0054 45E0     		b	.L76
 817              	.LVL62:
 818              	.L93:
ARM GAS  /tmp/ccM6uMDT.s 			page 46


 553:/home/phong/Documents/thesis/stm32f4/stm-idf/components/stm32f4xx_hal_driver/stm32f4xx_hal_nand.c ****   }
 819              		.loc 1 553 0
 820 0056 4FF0E046 		mov	r6, #1879048192
 821 005a ECE7     		b	.L75
 822              	.LVL63:
 823              	.L78:
 586:/home/phong/Documents/thesis/stm32f4/stm-idf/components/stm32f4xx_hal_driver/stm32f4xx_hal_nand.c ****         *(__IO uint8_t *)((uint32_t)(deviceaddress | ADDR_AREA)) = ADDR_1ST_CYCLE(nandaddress);
 824              		.loc 1 586 0
 825 005c 46F40033 		orr	r3, r6, #131072
 826 0060 0022     		movs	r2, #0
 827 0062 1A70     		strb	r2, [r3]
 587:/home/phong/Documents/thesis/stm32f4/stm-idf/components/stm32f4xx_hal_driver/stm32f4xx_hal_nand.c ****         *(__IO uint8_t *)((uint32_t)(deviceaddress | ADDR_AREA)) = ADDR_2ND_CYCLE(nandaddress);
 828              		.loc 1 587 0
 829 0064 5FFA88F2 		uxtb	r2, r8
 830 0068 1A70     		strb	r2, [r3]
 588:/home/phong/Documents/thesis/stm32f4/stm-idf/components/stm32f4xx_hal_driver/stm32f4xx_hal_nand.c ****         *(__IO uint8_t *)((uint32_t)(deviceaddress | ADDR_AREA)) = ADDR_3RD_CYCLE(nandaddress);
 831              		.loc 1 588 0
 832 006a C8F30722 		ubfx	r2, r8, #8, #8
 833 006e 1A70     		strb	r2, [r3]
 589:/home/phong/Documents/thesis/stm32f4/stm-idf/components/stm32f4xx_hal_driver/stm32f4xx_hal_nand.c ****       }
 834              		.loc 1 589 0
 835 0070 C8F30742 		ubfx	r2, r8, #16, #8
 836 0074 1A70     		strb	r2, [r3]
 837 0076 5CE0     		b	.L79
 838              	.L77:
 594:/home/phong/Documents/thesis/stm32f4/stm-idf/components/stm32f4xx_hal_driver/stm32f4xx_hal_nand.c ****       {
 839              		.loc 1 594 0
 840 0078 FA6A     		ldr	r2, [r7, #44]
 841 007a 3B6B     		ldr	r3, [r7, #48]
 842 007c 03FB02F3 		mul	r3, r3, r2
 843 0080 B3F5803F 		cmp	r3, #65536
 844 0084 0BD2     		bcs	.L80
 596:/home/phong/Documents/thesis/stm32f4/stm-idf/components/stm32f4xx_hal_driver/stm32f4xx_hal_nand.c ****         *(__IO uint8_t *)((uint32_t)(deviceaddress | ADDR_AREA)) = 0x00;
 845              		.loc 1 596 0
 846 0086 46F40033 		orr	r3, r6, #131072
 847 008a 0022     		movs	r2, #0
 848 008c 1A70     		strb	r2, [r3]
 597:/home/phong/Documents/thesis/stm32f4/stm-idf/components/stm32f4xx_hal_driver/stm32f4xx_hal_nand.c ****         *(__IO uint8_t *)((uint32_t)(deviceaddress | ADDR_AREA)) = ADDR_1ST_CYCLE(nandaddress);
 849              		.loc 1 597 0
 850 008e 1A70     		strb	r2, [r3]
 598:/home/phong/Documents/thesis/stm32f4/stm-idf/components/stm32f4xx_hal_driver/stm32f4xx_hal_nand.c ****         *(__IO uint8_t *)((uint32_t)(deviceaddress | ADDR_AREA)) = ADDR_2ND_CYCLE(nandaddress);
 851              		.loc 1 598 0
 852 0090 5FFA88F2 		uxtb	r2, r8
 853 0094 1A70     		strb	r2, [r3]
 599:/home/phong/Documents/thesis/stm32f4/stm-idf/components/stm32f4xx_hal_driver/stm32f4xx_hal_nand.c ****       }
 854              		.loc 1 599 0
 855 0096 C8F30722 		ubfx	r2, r8, #8, #8
 856 009a 1A70     		strb	r2, [r3]
 857 009c 49E0     		b	.L79
 858              	.L80:
 603:/home/phong/Documents/thesis/stm32f4/stm-idf/components/stm32f4xx_hal_driver/stm32f4xx_hal_nand.c ****         *(__IO uint8_t *)((uint32_t)(deviceaddress | ADDR_AREA)) = 0x00;
 859              		.loc 1 603 0
 860 009e 46F40033 		orr	r3, r6, #131072
 861 00a2 0022     		movs	r2, #0
 862 00a4 1A70     		strb	r2, [r3]
 604:/home/phong/Documents/thesis/stm32f4/stm-idf/components/stm32f4xx_hal_driver/stm32f4xx_hal_nand.c ****         *(__IO uint8_t *)((uint32_t)(deviceaddress | ADDR_AREA)) = ADDR_1ST_CYCLE(nandaddress);
 863              		.loc 1 604 0
ARM GAS  /tmp/ccM6uMDT.s 			page 47


 864 00a6 1A70     		strb	r2, [r3]
 605:/home/phong/Documents/thesis/stm32f4/stm-idf/components/stm32f4xx_hal_driver/stm32f4xx_hal_nand.c ****         *(__IO uint8_t *)((uint32_t)(deviceaddress | ADDR_AREA)) = ADDR_2ND_CYCLE(nandaddress);
 865              		.loc 1 605 0
 866 00a8 5FFA88F2 		uxtb	r2, r8
 867 00ac 1A70     		strb	r2, [r3]
 606:/home/phong/Documents/thesis/stm32f4/stm-idf/components/stm32f4xx_hal_driver/stm32f4xx_hal_nand.c ****         *(__IO uint8_t *)((uint32_t)(deviceaddress | ADDR_AREA)) = ADDR_3RD_CYCLE(nandaddress);
 868              		.loc 1 606 0
 869 00ae C8F30722 		ubfx	r2, r8, #8, #8
 870 00b2 1A70     		strb	r2, [r3]
 607:/home/phong/Documents/thesis/stm32f4/stm-idf/components/stm32f4xx_hal_driver/stm32f4xx_hal_nand.c ****       }
 871              		.loc 1 607 0
 872 00b4 C8F30742 		ubfx	r2, r8, #16, #8
 873 00b8 1A70     		strb	r2, [r3]
 874 00ba 3AE0     		b	.L79
 875              	.LVL64:
 876              	.L94:
 629:/home/phong/Documents/thesis/stm32f4/stm-idf/components/stm32f4xx_hal_driver/stm32f4xx_hal_nand.c ****       __DSB();
 877              		.loc 1 629 0
 878 00bc 0023     		movs	r3, #0
 879 00be 8BF80030 		strb	r3, [fp]
 880              	.LBB14:
 881              	.LBB15:
 882              		.file 2 "/home/phong/Documents/thesis/stm32f4/stm-idf/components/cmsis/include/cmsis_gcc.h"
   1:/home/phong/Documents/thesis/stm32f4/stm-idf/components/cmsis/include/cmsis_gcc.h **** /**************************************************************************//**
   2:/home/phong/Documents/thesis/stm32f4/stm-idf/components/cmsis/include/cmsis_gcc.h ****  * @file     cmsis_gcc.h
   3:/home/phong/Documents/thesis/stm32f4/stm-idf/components/cmsis/include/cmsis_gcc.h ****  * @brief    CMSIS compiler GCC header file
   4:/home/phong/Documents/thesis/stm32f4/stm-idf/components/cmsis/include/cmsis_gcc.h ****  * @version  V5.0.4
   5:/home/phong/Documents/thesis/stm32f4/stm-idf/components/cmsis/include/cmsis_gcc.h ****  * @date     09. April 2018
   6:/home/phong/Documents/thesis/stm32f4/stm-idf/components/cmsis/include/cmsis_gcc.h ****  ******************************************************************************/
   7:/home/phong/Documents/thesis/stm32f4/stm-idf/components/cmsis/include/cmsis_gcc.h **** /*
   8:/home/phong/Documents/thesis/stm32f4/stm-idf/components/cmsis/include/cmsis_gcc.h ****  * Copyright (c) 2009-2018 Arm Limited. All rights reserved.
   9:/home/phong/Documents/thesis/stm32f4/stm-idf/components/cmsis/include/cmsis_gcc.h ****  *
  10:/home/phong/Documents/thesis/stm32f4/stm-idf/components/cmsis/include/cmsis_gcc.h ****  * SPDX-License-Identifier: Apache-2.0
  11:/home/phong/Documents/thesis/stm32f4/stm-idf/components/cmsis/include/cmsis_gcc.h ****  *
  12:/home/phong/Documents/thesis/stm32f4/stm-idf/components/cmsis/include/cmsis_gcc.h ****  * Licensed under the Apache License, Version 2.0 (the License); you may
  13:/home/phong/Documents/thesis/stm32f4/stm-idf/components/cmsis/include/cmsis_gcc.h ****  * not use this file except in compliance with the License.
  14:/home/phong/Documents/thesis/stm32f4/stm-idf/components/cmsis/include/cmsis_gcc.h ****  * You may obtain a copy of the License at
  15:/home/phong/Documents/thesis/stm32f4/stm-idf/components/cmsis/include/cmsis_gcc.h ****  *
  16:/home/phong/Documents/thesis/stm32f4/stm-idf/components/cmsis/include/cmsis_gcc.h ****  * www.apache.org/licenses/LICENSE-2.0
  17:/home/phong/Documents/thesis/stm32f4/stm-idf/components/cmsis/include/cmsis_gcc.h ****  *
  18:/home/phong/Documents/thesis/stm32f4/stm-idf/components/cmsis/include/cmsis_gcc.h ****  * Unless required by applicable law or agreed to in writing, software
  19:/home/phong/Documents/thesis/stm32f4/stm-idf/components/cmsis/include/cmsis_gcc.h ****  * distributed under the License is distributed on an AS IS BASIS, WITHOUT
  20:/home/phong/Documents/thesis/stm32f4/stm-idf/components/cmsis/include/cmsis_gcc.h ****  * WARRANTIES OR CONDITIONS OF ANY KIND, either express or implied.
  21:/home/phong/Documents/thesis/stm32f4/stm-idf/components/cmsis/include/cmsis_gcc.h ****  * See the License for the specific language governing permissions and
  22:/home/phong/Documents/thesis/stm32f4/stm-idf/components/cmsis/include/cmsis_gcc.h ****  * limitations under the License.
  23:/home/phong/Documents/thesis/stm32f4/stm-idf/components/cmsis/include/cmsis_gcc.h ****  */
  24:/home/phong/Documents/thesis/stm32f4/stm-idf/components/cmsis/include/cmsis_gcc.h **** 
  25:/home/phong/Documents/thesis/stm32f4/stm-idf/components/cmsis/include/cmsis_gcc.h **** #ifndef __CMSIS_GCC_H
  26:/home/phong/Documents/thesis/stm32f4/stm-idf/components/cmsis/include/cmsis_gcc.h **** #define __CMSIS_GCC_H
  27:/home/phong/Documents/thesis/stm32f4/stm-idf/components/cmsis/include/cmsis_gcc.h **** 
  28:/home/phong/Documents/thesis/stm32f4/stm-idf/components/cmsis/include/cmsis_gcc.h **** /* ignore some GCC warnings */
  29:/home/phong/Documents/thesis/stm32f4/stm-idf/components/cmsis/include/cmsis_gcc.h **** #pragma GCC diagnostic push
  30:/home/phong/Documents/thesis/stm32f4/stm-idf/components/cmsis/include/cmsis_gcc.h **** #pragma GCC diagnostic ignored "-Wsign-conversion"
  31:/home/phong/Documents/thesis/stm32f4/stm-idf/components/cmsis/include/cmsis_gcc.h **** #pragma GCC diagnostic ignored "-Wconversion"
  32:/home/phong/Documents/thesis/stm32f4/stm-idf/components/cmsis/include/cmsis_gcc.h **** #pragma GCC diagnostic ignored "-Wunused-parameter"
  33:/home/phong/Documents/thesis/stm32f4/stm-idf/components/cmsis/include/cmsis_gcc.h **** 
  34:/home/phong/Documents/thesis/stm32f4/stm-idf/components/cmsis/include/cmsis_gcc.h **** /* Fallback for __has_builtin */
ARM GAS  /tmp/ccM6uMDT.s 			page 48


  35:/home/phong/Documents/thesis/stm32f4/stm-idf/components/cmsis/include/cmsis_gcc.h **** #ifndef __has_builtin
  36:/home/phong/Documents/thesis/stm32f4/stm-idf/components/cmsis/include/cmsis_gcc.h ****   #define __has_builtin(x) (0)
  37:/home/phong/Documents/thesis/stm32f4/stm-idf/components/cmsis/include/cmsis_gcc.h **** #endif
  38:/home/phong/Documents/thesis/stm32f4/stm-idf/components/cmsis/include/cmsis_gcc.h **** 
  39:/home/phong/Documents/thesis/stm32f4/stm-idf/components/cmsis/include/cmsis_gcc.h **** /* CMSIS compiler specific defines */
  40:/home/phong/Documents/thesis/stm32f4/stm-idf/components/cmsis/include/cmsis_gcc.h **** #ifndef   __ASM
  41:/home/phong/Documents/thesis/stm32f4/stm-idf/components/cmsis/include/cmsis_gcc.h ****   #define __ASM                                  __asm
  42:/home/phong/Documents/thesis/stm32f4/stm-idf/components/cmsis/include/cmsis_gcc.h **** #endif
  43:/home/phong/Documents/thesis/stm32f4/stm-idf/components/cmsis/include/cmsis_gcc.h **** #ifndef   __INLINE
  44:/home/phong/Documents/thesis/stm32f4/stm-idf/components/cmsis/include/cmsis_gcc.h ****   #define __INLINE                               inline
  45:/home/phong/Documents/thesis/stm32f4/stm-idf/components/cmsis/include/cmsis_gcc.h **** #endif
  46:/home/phong/Documents/thesis/stm32f4/stm-idf/components/cmsis/include/cmsis_gcc.h **** #ifndef   __STATIC_INLINE
  47:/home/phong/Documents/thesis/stm32f4/stm-idf/components/cmsis/include/cmsis_gcc.h ****   #define __STATIC_INLINE                        static inline
  48:/home/phong/Documents/thesis/stm32f4/stm-idf/components/cmsis/include/cmsis_gcc.h **** #endif
  49:/home/phong/Documents/thesis/stm32f4/stm-idf/components/cmsis/include/cmsis_gcc.h **** #ifndef   __STATIC_FORCEINLINE                 
  50:/home/phong/Documents/thesis/stm32f4/stm-idf/components/cmsis/include/cmsis_gcc.h ****   #define __STATIC_FORCEINLINE                   __attribute__((always_inline)) static inline
  51:/home/phong/Documents/thesis/stm32f4/stm-idf/components/cmsis/include/cmsis_gcc.h **** #endif                                           
  52:/home/phong/Documents/thesis/stm32f4/stm-idf/components/cmsis/include/cmsis_gcc.h **** #ifndef   __NO_RETURN
  53:/home/phong/Documents/thesis/stm32f4/stm-idf/components/cmsis/include/cmsis_gcc.h ****   #define __NO_RETURN                            __attribute__((__noreturn__))
  54:/home/phong/Documents/thesis/stm32f4/stm-idf/components/cmsis/include/cmsis_gcc.h **** #endif
  55:/home/phong/Documents/thesis/stm32f4/stm-idf/components/cmsis/include/cmsis_gcc.h **** #ifndef   __USED
  56:/home/phong/Documents/thesis/stm32f4/stm-idf/components/cmsis/include/cmsis_gcc.h ****   #define __USED                                 __attribute__((used))
  57:/home/phong/Documents/thesis/stm32f4/stm-idf/components/cmsis/include/cmsis_gcc.h **** #endif
  58:/home/phong/Documents/thesis/stm32f4/stm-idf/components/cmsis/include/cmsis_gcc.h **** #ifndef   __WEAK
  59:/home/phong/Documents/thesis/stm32f4/stm-idf/components/cmsis/include/cmsis_gcc.h ****   #define __WEAK                                 __attribute__((weak))
  60:/home/phong/Documents/thesis/stm32f4/stm-idf/components/cmsis/include/cmsis_gcc.h **** #endif
  61:/home/phong/Documents/thesis/stm32f4/stm-idf/components/cmsis/include/cmsis_gcc.h **** #ifndef   __PACKED
  62:/home/phong/Documents/thesis/stm32f4/stm-idf/components/cmsis/include/cmsis_gcc.h ****   #define __PACKED                               __attribute__((packed, aligned(1)))
  63:/home/phong/Documents/thesis/stm32f4/stm-idf/components/cmsis/include/cmsis_gcc.h **** #endif
  64:/home/phong/Documents/thesis/stm32f4/stm-idf/components/cmsis/include/cmsis_gcc.h **** #ifndef   __PACKED_STRUCT
  65:/home/phong/Documents/thesis/stm32f4/stm-idf/components/cmsis/include/cmsis_gcc.h ****   #define __PACKED_STRUCT                        struct __attribute__((packed, aligned(1)))
  66:/home/phong/Documents/thesis/stm32f4/stm-idf/components/cmsis/include/cmsis_gcc.h **** #endif
  67:/home/phong/Documents/thesis/stm32f4/stm-idf/components/cmsis/include/cmsis_gcc.h **** #ifndef   __PACKED_UNION
  68:/home/phong/Documents/thesis/stm32f4/stm-idf/components/cmsis/include/cmsis_gcc.h ****   #define __PACKED_UNION                         union __attribute__((packed, aligned(1)))
  69:/home/phong/Documents/thesis/stm32f4/stm-idf/components/cmsis/include/cmsis_gcc.h **** #endif
  70:/home/phong/Documents/thesis/stm32f4/stm-idf/components/cmsis/include/cmsis_gcc.h **** #ifndef   __UNALIGNED_UINT32        /* deprecated */
  71:/home/phong/Documents/thesis/stm32f4/stm-idf/components/cmsis/include/cmsis_gcc.h ****   #pragma GCC diagnostic push
  72:/home/phong/Documents/thesis/stm32f4/stm-idf/components/cmsis/include/cmsis_gcc.h ****   #pragma GCC diagnostic ignored "-Wpacked"
  73:/home/phong/Documents/thesis/stm32f4/stm-idf/components/cmsis/include/cmsis_gcc.h ****   #pragma GCC diagnostic ignored "-Wattributes"
  74:/home/phong/Documents/thesis/stm32f4/stm-idf/components/cmsis/include/cmsis_gcc.h ****   struct __attribute__((packed)) T_UINT32 { uint32_t v; };
  75:/home/phong/Documents/thesis/stm32f4/stm-idf/components/cmsis/include/cmsis_gcc.h ****   #pragma GCC diagnostic pop
  76:/home/phong/Documents/thesis/stm32f4/stm-idf/components/cmsis/include/cmsis_gcc.h ****   #define __UNALIGNED_UINT32(x)                  (((struct T_UINT32 *)(x))->v)
  77:/home/phong/Documents/thesis/stm32f4/stm-idf/components/cmsis/include/cmsis_gcc.h **** #endif
  78:/home/phong/Documents/thesis/stm32f4/stm-idf/components/cmsis/include/cmsis_gcc.h **** #ifndef   __UNALIGNED_UINT16_WRITE
  79:/home/phong/Documents/thesis/stm32f4/stm-idf/components/cmsis/include/cmsis_gcc.h ****   #pragma GCC diagnostic push
  80:/home/phong/Documents/thesis/stm32f4/stm-idf/components/cmsis/include/cmsis_gcc.h ****   #pragma GCC diagnostic ignored "-Wpacked"
  81:/home/phong/Documents/thesis/stm32f4/stm-idf/components/cmsis/include/cmsis_gcc.h ****   #pragma GCC diagnostic ignored "-Wattributes"
  82:/home/phong/Documents/thesis/stm32f4/stm-idf/components/cmsis/include/cmsis_gcc.h ****   __PACKED_STRUCT T_UINT16_WRITE { uint16_t v; };
  83:/home/phong/Documents/thesis/stm32f4/stm-idf/components/cmsis/include/cmsis_gcc.h ****   #pragma GCC diagnostic pop
  84:/home/phong/Documents/thesis/stm32f4/stm-idf/components/cmsis/include/cmsis_gcc.h ****   #define __UNALIGNED_UINT16_WRITE(addr, val)    (void)((((struct T_UINT16_WRITE *)(void *)(addr))-
  85:/home/phong/Documents/thesis/stm32f4/stm-idf/components/cmsis/include/cmsis_gcc.h **** #endif
  86:/home/phong/Documents/thesis/stm32f4/stm-idf/components/cmsis/include/cmsis_gcc.h **** #ifndef   __UNALIGNED_UINT16_READ
  87:/home/phong/Documents/thesis/stm32f4/stm-idf/components/cmsis/include/cmsis_gcc.h ****   #pragma GCC diagnostic push
  88:/home/phong/Documents/thesis/stm32f4/stm-idf/components/cmsis/include/cmsis_gcc.h ****   #pragma GCC diagnostic ignored "-Wpacked"
  89:/home/phong/Documents/thesis/stm32f4/stm-idf/components/cmsis/include/cmsis_gcc.h ****   #pragma GCC diagnostic ignored "-Wattributes"
  90:/home/phong/Documents/thesis/stm32f4/stm-idf/components/cmsis/include/cmsis_gcc.h ****   __PACKED_STRUCT T_UINT16_READ { uint16_t v; };
  91:/home/phong/Documents/thesis/stm32f4/stm-idf/components/cmsis/include/cmsis_gcc.h ****   #pragma GCC diagnostic pop
ARM GAS  /tmp/ccM6uMDT.s 			page 49


  92:/home/phong/Documents/thesis/stm32f4/stm-idf/components/cmsis/include/cmsis_gcc.h ****   #define __UNALIGNED_UINT16_READ(addr)          (((const struct T_UINT16_READ *)(const void *)(add
  93:/home/phong/Documents/thesis/stm32f4/stm-idf/components/cmsis/include/cmsis_gcc.h **** #endif
  94:/home/phong/Documents/thesis/stm32f4/stm-idf/components/cmsis/include/cmsis_gcc.h **** #ifndef   __UNALIGNED_UINT32_WRITE
  95:/home/phong/Documents/thesis/stm32f4/stm-idf/components/cmsis/include/cmsis_gcc.h ****   #pragma GCC diagnostic push
  96:/home/phong/Documents/thesis/stm32f4/stm-idf/components/cmsis/include/cmsis_gcc.h ****   #pragma GCC diagnostic ignored "-Wpacked"
  97:/home/phong/Documents/thesis/stm32f4/stm-idf/components/cmsis/include/cmsis_gcc.h ****   #pragma GCC diagnostic ignored "-Wattributes"
  98:/home/phong/Documents/thesis/stm32f4/stm-idf/components/cmsis/include/cmsis_gcc.h ****   __PACKED_STRUCT T_UINT32_WRITE { uint32_t v; };
  99:/home/phong/Documents/thesis/stm32f4/stm-idf/components/cmsis/include/cmsis_gcc.h ****   #pragma GCC diagnostic pop
 100:/home/phong/Documents/thesis/stm32f4/stm-idf/components/cmsis/include/cmsis_gcc.h ****   #define __UNALIGNED_UINT32_WRITE(addr, val)    (void)((((struct T_UINT32_WRITE *)(void *)(addr))-
 101:/home/phong/Documents/thesis/stm32f4/stm-idf/components/cmsis/include/cmsis_gcc.h **** #endif
 102:/home/phong/Documents/thesis/stm32f4/stm-idf/components/cmsis/include/cmsis_gcc.h **** #ifndef   __UNALIGNED_UINT32_READ
 103:/home/phong/Documents/thesis/stm32f4/stm-idf/components/cmsis/include/cmsis_gcc.h ****   #pragma GCC diagnostic push
 104:/home/phong/Documents/thesis/stm32f4/stm-idf/components/cmsis/include/cmsis_gcc.h ****   #pragma GCC diagnostic ignored "-Wpacked"
 105:/home/phong/Documents/thesis/stm32f4/stm-idf/components/cmsis/include/cmsis_gcc.h ****   #pragma GCC diagnostic ignored "-Wattributes"
 106:/home/phong/Documents/thesis/stm32f4/stm-idf/components/cmsis/include/cmsis_gcc.h ****   __PACKED_STRUCT T_UINT32_READ { uint32_t v; };
 107:/home/phong/Documents/thesis/stm32f4/stm-idf/components/cmsis/include/cmsis_gcc.h ****   #pragma GCC diagnostic pop
 108:/home/phong/Documents/thesis/stm32f4/stm-idf/components/cmsis/include/cmsis_gcc.h ****   #define __UNALIGNED_UINT32_READ(addr)          (((const struct T_UINT32_READ *)(const void *)(add
 109:/home/phong/Documents/thesis/stm32f4/stm-idf/components/cmsis/include/cmsis_gcc.h **** #endif
 110:/home/phong/Documents/thesis/stm32f4/stm-idf/components/cmsis/include/cmsis_gcc.h **** #ifndef   __ALIGNED
 111:/home/phong/Documents/thesis/stm32f4/stm-idf/components/cmsis/include/cmsis_gcc.h ****   #define __ALIGNED(x)                           __attribute__((aligned(x)))
 112:/home/phong/Documents/thesis/stm32f4/stm-idf/components/cmsis/include/cmsis_gcc.h **** #endif
 113:/home/phong/Documents/thesis/stm32f4/stm-idf/components/cmsis/include/cmsis_gcc.h **** #ifndef   __RESTRICT
 114:/home/phong/Documents/thesis/stm32f4/stm-idf/components/cmsis/include/cmsis_gcc.h ****   #define __RESTRICT                             __restrict
 115:/home/phong/Documents/thesis/stm32f4/stm-idf/components/cmsis/include/cmsis_gcc.h **** #endif
 116:/home/phong/Documents/thesis/stm32f4/stm-idf/components/cmsis/include/cmsis_gcc.h **** 
 117:/home/phong/Documents/thesis/stm32f4/stm-idf/components/cmsis/include/cmsis_gcc.h **** 
 118:/home/phong/Documents/thesis/stm32f4/stm-idf/components/cmsis/include/cmsis_gcc.h **** /* ###########################  Core Function Access  ########################### */
 119:/home/phong/Documents/thesis/stm32f4/stm-idf/components/cmsis/include/cmsis_gcc.h **** /** \ingroup  CMSIS_Core_FunctionInterface
 120:/home/phong/Documents/thesis/stm32f4/stm-idf/components/cmsis/include/cmsis_gcc.h ****     \defgroup CMSIS_Core_RegAccFunctions CMSIS Core Register Access Functions
 121:/home/phong/Documents/thesis/stm32f4/stm-idf/components/cmsis/include/cmsis_gcc.h ****   @{
 122:/home/phong/Documents/thesis/stm32f4/stm-idf/components/cmsis/include/cmsis_gcc.h ****  */
 123:/home/phong/Documents/thesis/stm32f4/stm-idf/components/cmsis/include/cmsis_gcc.h **** 
 124:/home/phong/Documents/thesis/stm32f4/stm-idf/components/cmsis/include/cmsis_gcc.h **** /**
 125:/home/phong/Documents/thesis/stm32f4/stm-idf/components/cmsis/include/cmsis_gcc.h ****   \brief   Enable IRQ Interrupts
 126:/home/phong/Documents/thesis/stm32f4/stm-idf/components/cmsis/include/cmsis_gcc.h ****   \details Enables IRQ interrupts by clearing the I-bit in the CPSR.
 127:/home/phong/Documents/thesis/stm32f4/stm-idf/components/cmsis/include/cmsis_gcc.h ****            Can only be executed in Privileged modes.
 128:/home/phong/Documents/thesis/stm32f4/stm-idf/components/cmsis/include/cmsis_gcc.h ****  */
 129:/home/phong/Documents/thesis/stm32f4/stm-idf/components/cmsis/include/cmsis_gcc.h **** __STATIC_FORCEINLINE void __enable_irq(void)
 130:/home/phong/Documents/thesis/stm32f4/stm-idf/components/cmsis/include/cmsis_gcc.h **** {
 131:/home/phong/Documents/thesis/stm32f4/stm-idf/components/cmsis/include/cmsis_gcc.h ****   __ASM volatile ("cpsie i" : : : "memory");
 132:/home/phong/Documents/thesis/stm32f4/stm-idf/components/cmsis/include/cmsis_gcc.h **** }
 133:/home/phong/Documents/thesis/stm32f4/stm-idf/components/cmsis/include/cmsis_gcc.h **** 
 134:/home/phong/Documents/thesis/stm32f4/stm-idf/components/cmsis/include/cmsis_gcc.h **** 
 135:/home/phong/Documents/thesis/stm32f4/stm-idf/components/cmsis/include/cmsis_gcc.h **** /**
 136:/home/phong/Documents/thesis/stm32f4/stm-idf/components/cmsis/include/cmsis_gcc.h ****   \brief   Disable IRQ Interrupts
 137:/home/phong/Documents/thesis/stm32f4/stm-idf/components/cmsis/include/cmsis_gcc.h ****   \details Disables IRQ interrupts by setting the I-bit in the CPSR.
 138:/home/phong/Documents/thesis/stm32f4/stm-idf/components/cmsis/include/cmsis_gcc.h ****            Can only be executed in Privileged modes.
 139:/home/phong/Documents/thesis/stm32f4/stm-idf/components/cmsis/include/cmsis_gcc.h ****  */
 140:/home/phong/Documents/thesis/stm32f4/stm-idf/components/cmsis/include/cmsis_gcc.h **** __STATIC_FORCEINLINE void __disable_irq(void)
 141:/home/phong/Documents/thesis/stm32f4/stm-idf/components/cmsis/include/cmsis_gcc.h **** {
 142:/home/phong/Documents/thesis/stm32f4/stm-idf/components/cmsis/include/cmsis_gcc.h ****   __ASM volatile ("cpsid i" : : : "memory");
 143:/home/phong/Documents/thesis/stm32f4/stm-idf/components/cmsis/include/cmsis_gcc.h **** }
 144:/home/phong/Documents/thesis/stm32f4/stm-idf/components/cmsis/include/cmsis_gcc.h **** 
 145:/home/phong/Documents/thesis/stm32f4/stm-idf/components/cmsis/include/cmsis_gcc.h **** 
 146:/home/phong/Documents/thesis/stm32f4/stm-idf/components/cmsis/include/cmsis_gcc.h **** /**
 147:/home/phong/Documents/thesis/stm32f4/stm-idf/components/cmsis/include/cmsis_gcc.h ****   \brief   Get Control Register
 148:/home/phong/Documents/thesis/stm32f4/stm-idf/components/cmsis/include/cmsis_gcc.h ****   \details Returns the content of the Control Register.
ARM GAS  /tmp/ccM6uMDT.s 			page 50


 149:/home/phong/Documents/thesis/stm32f4/stm-idf/components/cmsis/include/cmsis_gcc.h ****   \return               Control Register value
 150:/home/phong/Documents/thesis/stm32f4/stm-idf/components/cmsis/include/cmsis_gcc.h ****  */
 151:/home/phong/Documents/thesis/stm32f4/stm-idf/components/cmsis/include/cmsis_gcc.h **** __STATIC_FORCEINLINE uint32_t __get_CONTROL(void)
 152:/home/phong/Documents/thesis/stm32f4/stm-idf/components/cmsis/include/cmsis_gcc.h **** {
 153:/home/phong/Documents/thesis/stm32f4/stm-idf/components/cmsis/include/cmsis_gcc.h ****   uint32_t result;
 154:/home/phong/Documents/thesis/stm32f4/stm-idf/components/cmsis/include/cmsis_gcc.h **** 
 155:/home/phong/Documents/thesis/stm32f4/stm-idf/components/cmsis/include/cmsis_gcc.h ****   __ASM volatile ("MRS %0, control" : "=r" (result) );
 156:/home/phong/Documents/thesis/stm32f4/stm-idf/components/cmsis/include/cmsis_gcc.h ****   return(result);
 157:/home/phong/Documents/thesis/stm32f4/stm-idf/components/cmsis/include/cmsis_gcc.h **** }
 158:/home/phong/Documents/thesis/stm32f4/stm-idf/components/cmsis/include/cmsis_gcc.h **** 
 159:/home/phong/Documents/thesis/stm32f4/stm-idf/components/cmsis/include/cmsis_gcc.h **** 
 160:/home/phong/Documents/thesis/stm32f4/stm-idf/components/cmsis/include/cmsis_gcc.h **** #if (defined (__ARM_FEATURE_CMSE ) && (__ARM_FEATURE_CMSE == 3))
 161:/home/phong/Documents/thesis/stm32f4/stm-idf/components/cmsis/include/cmsis_gcc.h **** /**
 162:/home/phong/Documents/thesis/stm32f4/stm-idf/components/cmsis/include/cmsis_gcc.h ****   \brief   Get Control Register (non-secure)
 163:/home/phong/Documents/thesis/stm32f4/stm-idf/components/cmsis/include/cmsis_gcc.h ****   \details Returns the content of the non-secure Control Register when in secure mode.
 164:/home/phong/Documents/thesis/stm32f4/stm-idf/components/cmsis/include/cmsis_gcc.h ****   \return               non-secure Control Register value
 165:/home/phong/Documents/thesis/stm32f4/stm-idf/components/cmsis/include/cmsis_gcc.h ****  */
 166:/home/phong/Documents/thesis/stm32f4/stm-idf/components/cmsis/include/cmsis_gcc.h **** __STATIC_FORCEINLINE uint32_t __TZ_get_CONTROL_NS(void)
 167:/home/phong/Documents/thesis/stm32f4/stm-idf/components/cmsis/include/cmsis_gcc.h **** {
 168:/home/phong/Documents/thesis/stm32f4/stm-idf/components/cmsis/include/cmsis_gcc.h ****   uint32_t result;
 169:/home/phong/Documents/thesis/stm32f4/stm-idf/components/cmsis/include/cmsis_gcc.h **** 
 170:/home/phong/Documents/thesis/stm32f4/stm-idf/components/cmsis/include/cmsis_gcc.h ****   __ASM volatile ("MRS %0, control_ns" : "=r" (result) );
 171:/home/phong/Documents/thesis/stm32f4/stm-idf/components/cmsis/include/cmsis_gcc.h ****   return(result);
 172:/home/phong/Documents/thesis/stm32f4/stm-idf/components/cmsis/include/cmsis_gcc.h **** }
 173:/home/phong/Documents/thesis/stm32f4/stm-idf/components/cmsis/include/cmsis_gcc.h **** #endif
 174:/home/phong/Documents/thesis/stm32f4/stm-idf/components/cmsis/include/cmsis_gcc.h **** 
 175:/home/phong/Documents/thesis/stm32f4/stm-idf/components/cmsis/include/cmsis_gcc.h **** 
 176:/home/phong/Documents/thesis/stm32f4/stm-idf/components/cmsis/include/cmsis_gcc.h **** /**
 177:/home/phong/Documents/thesis/stm32f4/stm-idf/components/cmsis/include/cmsis_gcc.h ****   \brief   Set Control Register
 178:/home/phong/Documents/thesis/stm32f4/stm-idf/components/cmsis/include/cmsis_gcc.h ****   \details Writes the given value to the Control Register.
 179:/home/phong/Documents/thesis/stm32f4/stm-idf/components/cmsis/include/cmsis_gcc.h ****   \param [in]    control  Control Register value to set
 180:/home/phong/Documents/thesis/stm32f4/stm-idf/components/cmsis/include/cmsis_gcc.h ****  */
 181:/home/phong/Documents/thesis/stm32f4/stm-idf/components/cmsis/include/cmsis_gcc.h **** __STATIC_FORCEINLINE void __set_CONTROL(uint32_t control)
 182:/home/phong/Documents/thesis/stm32f4/stm-idf/components/cmsis/include/cmsis_gcc.h **** {
 183:/home/phong/Documents/thesis/stm32f4/stm-idf/components/cmsis/include/cmsis_gcc.h ****   __ASM volatile ("MSR control, %0" : : "r" (control) : "memory");
 184:/home/phong/Documents/thesis/stm32f4/stm-idf/components/cmsis/include/cmsis_gcc.h **** }
 185:/home/phong/Documents/thesis/stm32f4/stm-idf/components/cmsis/include/cmsis_gcc.h **** 
 186:/home/phong/Documents/thesis/stm32f4/stm-idf/components/cmsis/include/cmsis_gcc.h **** 
 187:/home/phong/Documents/thesis/stm32f4/stm-idf/components/cmsis/include/cmsis_gcc.h **** #if (defined (__ARM_FEATURE_CMSE ) && (__ARM_FEATURE_CMSE == 3))
 188:/home/phong/Documents/thesis/stm32f4/stm-idf/components/cmsis/include/cmsis_gcc.h **** /**
 189:/home/phong/Documents/thesis/stm32f4/stm-idf/components/cmsis/include/cmsis_gcc.h ****   \brief   Set Control Register (non-secure)
 190:/home/phong/Documents/thesis/stm32f4/stm-idf/components/cmsis/include/cmsis_gcc.h ****   \details Writes the given value to the non-secure Control Register when in secure state.
 191:/home/phong/Documents/thesis/stm32f4/stm-idf/components/cmsis/include/cmsis_gcc.h ****   \param [in]    control  Control Register value to set
 192:/home/phong/Documents/thesis/stm32f4/stm-idf/components/cmsis/include/cmsis_gcc.h ****  */
 193:/home/phong/Documents/thesis/stm32f4/stm-idf/components/cmsis/include/cmsis_gcc.h **** __STATIC_FORCEINLINE void __TZ_set_CONTROL_NS(uint32_t control)
 194:/home/phong/Documents/thesis/stm32f4/stm-idf/components/cmsis/include/cmsis_gcc.h **** {
 195:/home/phong/Documents/thesis/stm32f4/stm-idf/components/cmsis/include/cmsis_gcc.h ****   __ASM volatile ("MSR control_ns, %0" : : "r" (control) : "memory");
 196:/home/phong/Documents/thesis/stm32f4/stm-idf/components/cmsis/include/cmsis_gcc.h **** }
 197:/home/phong/Documents/thesis/stm32f4/stm-idf/components/cmsis/include/cmsis_gcc.h **** #endif
 198:/home/phong/Documents/thesis/stm32f4/stm-idf/components/cmsis/include/cmsis_gcc.h **** 
 199:/home/phong/Documents/thesis/stm32f4/stm-idf/components/cmsis/include/cmsis_gcc.h **** 
 200:/home/phong/Documents/thesis/stm32f4/stm-idf/components/cmsis/include/cmsis_gcc.h **** /**
 201:/home/phong/Documents/thesis/stm32f4/stm-idf/components/cmsis/include/cmsis_gcc.h ****   \brief   Get IPSR Register
 202:/home/phong/Documents/thesis/stm32f4/stm-idf/components/cmsis/include/cmsis_gcc.h ****   \details Returns the content of the IPSR Register.
 203:/home/phong/Documents/thesis/stm32f4/stm-idf/components/cmsis/include/cmsis_gcc.h ****   \return               IPSR Register value
 204:/home/phong/Documents/thesis/stm32f4/stm-idf/components/cmsis/include/cmsis_gcc.h ****  */
 205:/home/phong/Documents/thesis/stm32f4/stm-idf/components/cmsis/include/cmsis_gcc.h **** __STATIC_FORCEINLINE uint32_t __get_IPSR(void)
ARM GAS  /tmp/ccM6uMDT.s 			page 51


 206:/home/phong/Documents/thesis/stm32f4/stm-idf/components/cmsis/include/cmsis_gcc.h **** {
 207:/home/phong/Documents/thesis/stm32f4/stm-idf/components/cmsis/include/cmsis_gcc.h ****   uint32_t result;
 208:/home/phong/Documents/thesis/stm32f4/stm-idf/components/cmsis/include/cmsis_gcc.h **** 
 209:/home/phong/Documents/thesis/stm32f4/stm-idf/components/cmsis/include/cmsis_gcc.h ****   __ASM volatile ("MRS %0, ipsr" : "=r" (result) );
 210:/home/phong/Documents/thesis/stm32f4/stm-idf/components/cmsis/include/cmsis_gcc.h ****   return(result);
 211:/home/phong/Documents/thesis/stm32f4/stm-idf/components/cmsis/include/cmsis_gcc.h **** }
 212:/home/phong/Documents/thesis/stm32f4/stm-idf/components/cmsis/include/cmsis_gcc.h **** 
 213:/home/phong/Documents/thesis/stm32f4/stm-idf/components/cmsis/include/cmsis_gcc.h **** 
 214:/home/phong/Documents/thesis/stm32f4/stm-idf/components/cmsis/include/cmsis_gcc.h **** /**
 215:/home/phong/Documents/thesis/stm32f4/stm-idf/components/cmsis/include/cmsis_gcc.h ****   \brief   Get APSR Register
 216:/home/phong/Documents/thesis/stm32f4/stm-idf/components/cmsis/include/cmsis_gcc.h ****   \details Returns the content of the APSR Register.
 217:/home/phong/Documents/thesis/stm32f4/stm-idf/components/cmsis/include/cmsis_gcc.h ****   \return               APSR Register value
 218:/home/phong/Documents/thesis/stm32f4/stm-idf/components/cmsis/include/cmsis_gcc.h ****  */
 219:/home/phong/Documents/thesis/stm32f4/stm-idf/components/cmsis/include/cmsis_gcc.h **** __STATIC_FORCEINLINE uint32_t __get_APSR(void)
 220:/home/phong/Documents/thesis/stm32f4/stm-idf/components/cmsis/include/cmsis_gcc.h **** {
 221:/home/phong/Documents/thesis/stm32f4/stm-idf/components/cmsis/include/cmsis_gcc.h ****   uint32_t result;
 222:/home/phong/Documents/thesis/stm32f4/stm-idf/components/cmsis/include/cmsis_gcc.h **** 
 223:/home/phong/Documents/thesis/stm32f4/stm-idf/components/cmsis/include/cmsis_gcc.h ****   __ASM volatile ("MRS %0, apsr" : "=r" (result) );
 224:/home/phong/Documents/thesis/stm32f4/stm-idf/components/cmsis/include/cmsis_gcc.h ****   return(result);
 225:/home/phong/Documents/thesis/stm32f4/stm-idf/components/cmsis/include/cmsis_gcc.h **** }
 226:/home/phong/Documents/thesis/stm32f4/stm-idf/components/cmsis/include/cmsis_gcc.h **** 
 227:/home/phong/Documents/thesis/stm32f4/stm-idf/components/cmsis/include/cmsis_gcc.h **** 
 228:/home/phong/Documents/thesis/stm32f4/stm-idf/components/cmsis/include/cmsis_gcc.h **** /**
 229:/home/phong/Documents/thesis/stm32f4/stm-idf/components/cmsis/include/cmsis_gcc.h ****   \brief   Get xPSR Register
 230:/home/phong/Documents/thesis/stm32f4/stm-idf/components/cmsis/include/cmsis_gcc.h ****   \details Returns the content of the xPSR Register.
 231:/home/phong/Documents/thesis/stm32f4/stm-idf/components/cmsis/include/cmsis_gcc.h ****   \return               xPSR Register value
 232:/home/phong/Documents/thesis/stm32f4/stm-idf/components/cmsis/include/cmsis_gcc.h ****  */
 233:/home/phong/Documents/thesis/stm32f4/stm-idf/components/cmsis/include/cmsis_gcc.h **** __STATIC_FORCEINLINE uint32_t __get_xPSR(void)
 234:/home/phong/Documents/thesis/stm32f4/stm-idf/components/cmsis/include/cmsis_gcc.h **** {
 235:/home/phong/Documents/thesis/stm32f4/stm-idf/components/cmsis/include/cmsis_gcc.h ****   uint32_t result;
 236:/home/phong/Documents/thesis/stm32f4/stm-idf/components/cmsis/include/cmsis_gcc.h **** 
 237:/home/phong/Documents/thesis/stm32f4/stm-idf/components/cmsis/include/cmsis_gcc.h ****   __ASM volatile ("MRS %0, xpsr" : "=r" (result) );
 238:/home/phong/Documents/thesis/stm32f4/stm-idf/components/cmsis/include/cmsis_gcc.h ****   return(result);
 239:/home/phong/Documents/thesis/stm32f4/stm-idf/components/cmsis/include/cmsis_gcc.h **** }
 240:/home/phong/Documents/thesis/stm32f4/stm-idf/components/cmsis/include/cmsis_gcc.h **** 
 241:/home/phong/Documents/thesis/stm32f4/stm-idf/components/cmsis/include/cmsis_gcc.h **** 
 242:/home/phong/Documents/thesis/stm32f4/stm-idf/components/cmsis/include/cmsis_gcc.h **** /**
 243:/home/phong/Documents/thesis/stm32f4/stm-idf/components/cmsis/include/cmsis_gcc.h ****   \brief   Get Process Stack Pointer
 244:/home/phong/Documents/thesis/stm32f4/stm-idf/components/cmsis/include/cmsis_gcc.h ****   \details Returns the current value of the Process Stack Pointer (PSP).
 245:/home/phong/Documents/thesis/stm32f4/stm-idf/components/cmsis/include/cmsis_gcc.h ****   \return               PSP Register value
 246:/home/phong/Documents/thesis/stm32f4/stm-idf/components/cmsis/include/cmsis_gcc.h ****  */
 247:/home/phong/Documents/thesis/stm32f4/stm-idf/components/cmsis/include/cmsis_gcc.h **** __STATIC_FORCEINLINE uint32_t __get_PSP(void)
 248:/home/phong/Documents/thesis/stm32f4/stm-idf/components/cmsis/include/cmsis_gcc.h **** {
 249:/home/phong/Documents/thesis/stm32f4/stm-idf/components/cmsis/include/cmsis_gcc.h ****   uint32_t result;
 250:/home/phong/Documents/thesis/stm32f4/stm-idf/components/cmsis/include/cmsis_gcc.h **** 
 251:/home/phong/Documents/thesis/stm32f4/stm-idf/components/cmsis/include/cmsis_gcc.h ****   __ASM volatile ("MRS %0, psp"  : "=r" (result) );
 252:/home/phong/Documents/thesis/stm32f4/stm-idf/components/cmsis/include/cmsis_gcc.h ****   return(result);
 253:/home/phong/Documents/thesis/stm32f4/stm-idf/components/cmsis/include/cmsis_gcc.h **** }
 254:/home/phong/Documents/thesis/stm32f4/stm-idf/components/cmsis/include/cmsis_gcc.h **** 
 255:/home/phong/Documents/thesis/stm32f4/stm-idf/components/cmsis/include/cmsis_gcc.h **** 
 256:/home/phong/Documents/thesis/stm32f4/stm-idf/components/cmsis/include/cmsis_gcc.h **** #if (defined (__ARM_FEATURE_CMSE ) && (__ARM_FEATURE_CMSE == 3))
 257:/home/phong/Documents/thesis/stm32f4/stm-idf/components/cmsis/include/cmsis_gcc.h **** /**
 258:/home/phong/Documents/thesis/stm32f4/stm-idf/components/cmsis/include/cmsis_gcc.h ****   \brief   Get Process Stack Pointer (non-secure)
 259:/home/phong/Documents/thesis/stm32f4/stm-idf/components/cmsis/include/cmsis_gcc.h ****   \details Returns the current value of the non-secure Process Stack Pointer (PSP) when in secure s
 260:/home/phong/Documents/thesis/stm32f4/stm-idf/components/cmsis/include/cmsis_gcc.h ****   \return               PSP Register value
 261:/home/phong/Documents/thesis/stm32f4/stm-idf/components/cmsis/include/cmsis_gcc.h ****  */
 262:/home/phong/Documents/thesis/stm32f4/stm-idf/components/cmsis/include/cmsis_gcc.h **** __STATIC_FORCEINLINE uint32_t __TZ_get_PSP_NS(void)
ARM GAS  /tmp/ccM6uMDT.s 			page 52


 263:/home/phong/Documents/thesis/stm32f4/stm-idf/components/cmsis/include/cmsis_gcc.h **** {
 264:/home/phong/Documents/thesis/stm32f4/stm-idf/components/cmsis/include/cmsis_gcc.h ****   uint32_t result;
 265:/home/phong/Documents/thesis/stm32f4/stm-idf/components/cmsis/include/cmsis_gcc.h **** 
 266:/home/phong/Documents/thesis/stm32f4/stm-idf/components/cmsis/include/cmsis_gcc.h ****   __ASM volatile ("MRS %0, psp_ns"  : "=r" (result) );
 267:/home/phong/Documents/thesis/stm32f4/stm-idf/components/cmsis/include/cmsis_gcc.h ****   return(result);
 268:/home/phong/Documents/thesis/stm32f4/stm-idf/components/cmsis/include/cmsis_gcc.h **** }
 269:/home/phong/Documents/thesis/stm32f4/stm-idf/components/cmsis/include/cmsis_gcc.h **** #endif
 270:/home/phong/Documents/thesis/stm32f4/stm-idf/components/cmsis/include/cmsis_gcc.h **** 
 271:/home/phong/Documents/thesis/stm32f4/stm-idf/components/cmsis/include/cmsis_gcc.h **** 
 272:/home/phong/Documents/thesis/stm32f4/stm-idf/components/cmsis/include/cmsis_gcc.h **** /**
 273:/home/phong/Documents/thesis/stm32f4/stm-idf/components/cmsis/include/cmsis_gcc.h ****   \brief   Set Process Stack Pointer
 274:/home/phong/Documents/thesis/stm32f4/stm-idf/components/cmsis/include/cmsis_gcc.h ****   \details Assigns the given value to the Process Stack Pointer (PSP).
 275:/home/phong/Documents/thesis/stm32f4/stm-idf/components/cmsis/include/cmsis_gcc.h ****   \param [in]    topOfProcStack  Process Stack Pointer value to set
 276:/home/phong/Documents/thesis/stm32f4/stm-idf/components/cmsis/include/cmsis_gcc.h ****  */
 277:/home/phong/Documents/thesis/stm32f4/stm-idf/components/cmsis/include/cmsis_gcc.h **** __STATIC_FORCEINLINE void __set_PSP(uint32_t topOfProcStack)
 278:/home/phong/Documents/thesis/stm32f4/stm-idf/components/cmsis/include/cmsis_gcc.h **** {
 279:/home/phong/Documents/thesis/stm32f4/stm-idf/components/cmsis/include/cmsis_gcc.h ****   __ASM volatile ("MSR psp, %0" : : "r" (topOfProcStack) : );
 280:/home/phong/Documents/thesis/stm32f4/stm-idf/components/cmsis/include/cmsis_gcc.h **** }
 281:/home/phong/Documents/thesis/stm32f4/stm-idf/components/cmsis/include/cmsis_gcc.h **** 
 282:/home/phong/Documents/thesis/stm32f4/stm-idf/components/cmsis/include/cmsis_gcc.h **** 
 283:/home/phong/Documents/thesis/stm32f4/stm-idf/components/cmsis/include/cmsis_gcc.h **** #if (defined (__ARM_FEATURE_CMSE ) && (__ARM_FEATURE_CMSE == 3))
 284:/home/phong/Documents/thesis/stm32f4/stm-idf/components/cmsis/include/cmsis_gcc.h **** /**
 285:/home/phong/Documents/thesis/stm32f4/stm-idf/components/cmsis/include/cmsis_gcc.h ****   \brief   Set Process Stack Pointer (non-secure)
 286:/home/phong/Documents/thesis/stm32f4/stm-idf/components/cmsis/include/cmsis_gcc.h ****   \details Assigns the given value to the non-secure Process Stack Pointer (PSP) when in secure sta
 287:/home/phong/Documents/thesis/stm32f4/stm-idf/components/cmsis/include/cmsis_gcc.h ****   \param [in]    topOfProcStack  Process Stack Pointer value to set
 288:/home/phong/Documents/thesis/stm32f4/stm-idf/components/cmsis/include/cmsis_gcc.h ****  */
 289:/home/phong/Documents/thesis/stm32f4/stm-idf/components/cmsis/include/cmsis_gcc.h **** __STATIC_FORCEINLINE void __TZ_set_PSP_NS(uint32_t topOfProcStack)
 290:/home/phong/Documents/thesis/stm32f4/stm-idf/components/cmsis/include/cmsis_gcc.h **** {
 291:/home/phong/Documents/thesis/stm32f4/stm-idf/components/cmsis/include/cmsis_gcc.h ****   __ASM volatile ("MSR psp_ns, %0" : : "r" (topOfProcStack) : );
 292:/home/phong/Documents/thesis/stm32f4/stm-idf/components/cmsis/include/cmsis_gcc.h **** }
 293:/home/phong/Documents/thesis/stm32f4/stm-idf/components/cmsis/include/cmsis_gcc.h **** #endif
 294:/home/phong/Documents/thesis/stm32f4/stm-idf/components/cmsis/include/cmsis_gcc.h **** 
 295:/home/phong/Documents/thesis/stm32f4/stm-idf/components/cmsis/include/cmsis_gcc.h **** 
 296:/home/phong/Documents/thesis/stm32f4/stm-idf/components/cmsis/include/cmsis_gcc.h **** /**
 297:/home/phong/Documents/thesis/stm32f4/stm-idf/components/cmsis/include/cmsis_gcc.h ****   \brief   Get Main Stack Pointer
 298:/home/phong/Documents/thesis/stm32f4/stm-idf/components/cmsis/include/cmsis_gcc.h ****   \details Returns the current value of the Main Stack Pointer (MSP).
 299:/home/phong/Documents/thesis/stm32f4/stm-idf/components/cmsis/include/cmsis_gcc.h ****   \return               MSP Register value
 300:/home/phong/Documents/thesis/stm32f4/stm-idf/components/cmsis/include/cmsis_gcc.h ****  */
 301:/home/phong/Documents/thesis/stm32f4/stm-idf/components/cmsis/include/cmsis_gcc.h **** __STATIC_FORCEINLINE uint32_t __get_MSP(void)
 302:/home/phong/Documents/thesis/stm32f4/stm-idf/components/cmsis/include/cmsis_gcc.h **** {
 303:/home/phong/Documents/thesis/stm32f4/stm-idf/components/cmsis/include/cmsis_gcc.h ****   uint32_t result;
 304:/home/phong/Documents/thesis/stm32f4/stm-idf/components/cmsis/include/cmsis_gcc.h **** 
 305:/home/phong/Documents/thesis/stm32f4/stm-idf/components/cmsis/include/cmsis_gcc.h ****   __ASM volatile ("MRS %0, msp" : "=r" (result) );
 306:/home/phong/Documents/thesis/stm32f4/stm-idf/components/cmsis/include/cmsis_gcc.h ****   return(result);
 307:/home/phong/Documents/thesis/stm32f4/stm-idf/components/cmsis/include/cmsis_gcc.h **** }
 308:/home/phong/Documents/thesis/stm32f4/stm-idf/components/cmsis/include/cmsis_gcc.h **** 
 309:/home/phong/Documents/thesis/stm32f4/stm-idf/components/cmsis/include/cmsis_gcc.h **** 
 310:/home/phong/Documents/thesis/stm32f4/stm-idf/components/cmsis/include/cmsis_gcc.h **** #if (defined (__ARM_FEATURE_CMSE ) && (__ARM_FEATURE_CMSE == 3))
 311:/home/phong/Documents/thesis/stm32f4/stm-idf/components/cmsis/include/cmsis_gcc.h **** /**
 312:/home/phong/Documents/thesis/stm32f4/stm-idf/components/cmsis/include/cmsis_gcc.h ****   \brief   Get Main Stack Pointer (non-secure)
 313:/home/phong/Documents/thesis/stm32f4/stm-idf/components/cmsis/include/cmsis_gcc.h ****   \details Returns the current value of the non-secure Main Stack Pointer (MSP) when in secure stat
 314:/home/phong/Documents/thesis/stm32f4/stm-idf/components/cmsis/include/cmsis_gcc.h ****   \return               MSP Register value
 315:/home/phong/Documents/thesis/stm32f4/stm-idf/components/cmsis/include/cmsis_gcc.h ****  */
 316:/home/phong/Documents/thesis/stm32f4/stm-idf/components/cmsis/include/cmsis_gcc.h **** __STATIC_FORCEINLINE uint32_t __TZ_get_MSP_NS(void)
 317:/home/phong/Documents/thesis/stm32f4/stm-idf/components/cmsis/include/cmsis_gcc.h **** {
 318:/home/phong/Documents/thesis/stm32f4/stm-idf/components/cmsis/include/cmsis_gcc.h ****   uint32_t result;
 319:/home/phong/Documents/thesis/stm32f4/stm-idf/components/cmsis/include/cmsis_gcc.h **** 
ARM GAS  /tmp/ccM6uMDT.s 			page 53


 320:/home/phong/Documents/thesis/stm32f4/stm-idf/components/cmsis/include/cmsis_gcc.h ****   __ASM volatile ("MRS %0, msp_ns" : "=r" (result) );
 321:/home/phong/Documents/thesis/stm32f4/stm-idf/components/cmsis/include/cmsis_gcc.h ****   return(result);
 322:/home/phong/Documents/thesis/stm32f4/stm-idf/components/cmsis/include/cmsis_gcc.h **** }
 323:/home/phong/Documents/thesis/stm32f4/stm-idf/components/cmsis/include/cmsis_gcc.h **** #endif
 324:/home/phong/Documents/thesis/stm32f4/stm-idf/components/cmsis/include/cmsis_gcc.h **** 
 325:/home/phong/Documents/thesis/stm32f4/stm-idf/components/cmsis/include/cmsis_gcc.h **** 
 326:/home/phong/Documents/thesis/stm32f4/stm-idf/components/cmsis/include/cmsis_gcc.h **** /**
 327:/home/phong/Documents/thesis/stm32f4/stm-idf/components/cmsis/include/cmsis_gcc.h ****   \brief   Set Main Stack Pointer
 328:/home/phong/Documents/thesis/stm32f4/stm-idf/components/cmsis/include/cmsis_gcc.h ****   \details Assigns the given value to the Main Stack Pointer (MSP).
 329:/home/phong/Documents/thesis/stm32f4/stm-idf/components/cmsis/include/cmsis_gcc.h ****   \param [in]    topOfMainStack  Main Stack Pointer value to set
 330:/home/phong/Documents/thesis/stm32f4/stm-idf/components/cmsis/include/cmsis_gcc.h ****  */
 331:/home/phong/Documents/thesis/stm32f4/stm-idf/components/cmsis/include/cmsis_gcc.h **** __STATIC_FORCEINLINE void __set_MSP(uint32_t topOfMainStack)
 332:/home/phong/Documents/thesis/stm32f4/stm-idf/components/cmsis/include/cmsis_gcc.h **** {
 333:/home/phong/Documents/thesis/stm32f4/stm-idf/components/cmsis/include/cmsis_gcc.h ****   __ASM volatile ("MSR msp, %0" : : "r" (topOfMainStack) : );
 334:/home/phong/Documents/thesis/stm32f4/stm-idf/components/cmsis/include/cmsis_gcc.h **** }
 335:/home/phong/Documents/thesis/stm32f4/stm-idf/components/cmsis/include/cmsis_gcc.h **** 
 336:/home/phong/Documents/thesis/stm32f4/stm-idf/components/cmsis/include/cmsis_gcc.h **** 
 337:/home/phong/Documents/thesis/stm32f4/stm-idf/components/cmsis/include/cmsis_gcc.h **** #if (defined (__ARM_FEATURE_CMSE ) && (__ARM_FEATURE_CMSE == 3))
 338:/home/phong/Documents/thesis/stm32f4/stm-idf/components/cmsis/include/cmsis_gcc.h **** /**
 339:/home/phong/Documents/thesis/stm32f4/stm-idf/components/cmsis/include/cmsis_gcc.h ****   \brief   Set Main Stack Pointer (non-secure)
 340:/home/phong/Documents/thesis/stm32f4/stm-idf/components/cmsis/include/cmsis_gcc.h ****   \details Assigns the given value to the non-secure Main Stack Pointer (MSP) when in secure state.
 341:/home/phong/Documents/thesis/stm32f4/stm-idf/components/cmsis/include/cmsis_gcc.h ****   \param [in]    topOfMainStack  Main Stack Pointer value to set
 342:/home/phong/Documents/thesis/stm32f4/stm-idf/components/cmsis/include/cmsis_gcc.h ****  */
 343:/home/phong/Documents/thesis/stm32f4/stm-idf/components/cmsis/include/cmsis_gcc.h **** __STATIC_FORCEINLINE void __TZ_set_MSP_NS(uint32_t topOfMainStack)
 344:/home/phong/Documents/thesis/stm32f4/stm-idf/components/cmsis/include/cmsis_gcc.h **** {
 345:/home/phong/Documents/thesis/stm32f4/stm-idf/components/cmsis/include/cmsis_gcc.h ****   __ASM volatile ("MSR msp_ns, %0" : : "r" (topOfMainStack) : );
 346:/home/phong/Documents/thesis/stm32f4/stm-idf/components/cmsis/include/cmsis_gcc.h **** }
 347:/home/phong/Documents/thesis/stm32f4/stm-idf/components/cmsis/include/cmsis_gcc.h **** #endif
 348:/home/phong/Documents/thesis/stm32f4/stm-idf/components/cmsis/include/cmsis_gcc.h **** 
 349:/home/phong/Documents/thesis/stm32f4/stm-idf/components/cmsis/include/cmsis_gcc.h **** 
 350:/home/phong/Documents/thesis/stm32f4/stm-idf/components/cmsis/include/cmsis_gcc.h **** #if (defined (__ARM_FEATURE_CMSE ) && (__ARM_FEATURE_CMSE == 3))
 351:/home/phong/Documents/thesis/stm32f4/stm-idf/components/cmsis/include/cmsis_gcc.h **** /**
 352:/home/phong/Documents/thesis/stm32f4/stm-idf/components/cmsis/include/cmsis_gcc.h ****   \brief   Get Stack Pointer (non-secure)
 353:/home/phong/Documents/thesis/stm32f4/stm-idf/components/cmsis/include/cmsis_gcc.h ****   \details Returns the current value of the non-secure Stack Pointer (SP) when in secure state.
 354:/home/phong/Documents/thesis/stm32f4/stm-idf/components/cmsis/include/cmsis_gcc.h ****   \return               SP Register value
 355:/home/phong/Documents/thesis/stm32f4/stm-idf/components/cmsis/include/cmsis_gcc.h ****  */
 356:/home/phong/Documents/thesis/stm32f4/stm-idf/components/cmsis/include/cmsis_gcc.h **** __STATIC_FORCEINLINE uint32_t __TZ_get_SP_NS(void)
 357:/home/phong/Documents/thesis/stm32f4/stm-idf/components/cmsis/include/cmsis_gcc.h **** {
 358:/home/phong/Documents/thesis/stm32f4/stm-idf/components/cmsis/include/cmsis_gcc.h ****   uint32_t result;
 359:/home/phong/Documents/thesis/stm32f4/stm-idf/components/cmsis/include/cmsis_gcc.h **** 
 360:/home/phong/Documents/thesis/stm32f4/stm-idf/components/cmsis/include/cmsis_gcc.h ****   __ASM volatile ("MRS %0, sp_ns" : "=r" (result) );
 361:/home/phong/Documents/thesis/stm32f4/stm-idf/components/cmsis/include/cmsis_gcc.h ****   return(result);
 362:/home/phong/Documents/thesis/stm32f4/stm-idf/components/cmsis/include/cmsis_gcc.h **** }
 363:/home/phong/Documents/thesis/stm32f4/stm-idf/components/cmsis/include/cmsis_gcc.h **** 
 364:/home/phong/Documents/thesis/stm32f4/stm-idf/components/cmsis/include/cmsis_gcc.h **** 
 365:/home/phong/Documents/thesis/stm32f4/stm-idf/components/cmsis/include/cmsis_gcc.h **** /**
 366:/home/phong/Documents/thesis/stm32f4/stm-idf/components/cmsis/include/cmsis_gcc.h ****   \brief   Set Stack Pointer (non-secure)
 367:/home/phong/Documents/thesis/stm32f4/stm-idf/components/cmsis/include/cmsis_gcc.h ****   \details Assigns the given value to the non-secure Stack Pointer (SP) when in secure state.
 368:/home/phong/Documents/thesis/stm32f4/stm-idf/components/cmsis/include/cmsis_gcc.h ****   \param [in]    topOfStack  Stack Pointer value to set
 369:/home/phong/Documents/thesis/stm32f4/stm-idf/components/cmsis/include/cmsis_gcc.h ****  */
 370:/home/phong/Documents/thesis/stm32f4/stm-idf/components/cmsis/include/cmsis_gcc.h **** __STATIC_FORCEINLINE void __TZ_set_SP_NS(uint32_t topOfStack)
 371:/home/phong/Documents/thesis/stm32f4/stm-idf/components/cmsis/include/cmsis_gcc.h **** {
 372:/home/phong/Documents/thesis/stm32f4/stm-idf/components/cmsis/include/cmsis_gcc.h ****   __ASM volatile ("MSR sp_ns, %0" : : "r" (topOfStack) : );
 373:/home/phong/Documents/thesis/stm32f4/stm-idf/components/cmsis/include/cmsis_gcc.h **** }
 374:/home/phong/Documents/thesis/stm32f4/stm-idf/components/cmsis/include/cmsis_gcc.h **** #endif
 375:/home/phong/Documents/thesis/stm32f4/stm-idf/components/cmsis/include/cmsis_gcc.h **** 
 376:/home/phong/Documents/thesis/stm32f4/stm-idf/components/cmsis/include/cmsis_gcc.h **** 
ARM GAS  /tmp/ccM6uMDT.s 			page 54


 377:/home/phong/Documents/thesis/stm32f4/stm-idf/components/cmsis/include/cmsis_gcc.h **** /**
 378:/home/phong/Documents/thesis/stm32f4/stm-idf/components/cmsis/include/cmsis_gcc.h ****   \brief   Get Priority Mask
 379:/home/phong/Documents/thesis/stm32f4/stm-idf/components/cmsis/include/cmsis_gcc.h ****   \details Returns the current state of the priority mask bit from the Priority Mask Register.
 380:/home/phong/Documents/thesis/stm32f4/stm-idf/components/cmsis/include/cmsis_gcc.h ****   \return               Priority Mask value
 381:/home/phong/Documents/thesis/stm32f4/stm-idf/components/cmsis/include/cmsis_gcc.h ****  */
 382:/home/phong/Documents/thesis/stm32f4/stm-idf/components/cmsis/include/cmsis_gcc.h **** __STATIC_FORCEINLINE uint32_t __get_PRIMASK(void)
 383:/home/phong/Documents/thesis/stm32f4/stm-idf/components/cmsis/include/cmsis_gcc.h **** {
 384:/home/phong/Documents/thesis/stm32f4/stm-idf/components/cmsis/include/cmsis_gcc.h ****   uint32_t result;
 385:/home/phong/Documents/thesis/stm32f4/stm-idf/components/cmsis/include/cmsis_gcc.h **** 
 386:/home/phong/Documents/thesis/stm32f4/stm-idf/components/cmsis/include/cmsis_gcc.h ****   __ASM volatile ("MRS %0, primask" : "=r" (result) :: "memory");
 387:/home/phong/Documents/thesis/stm32f4/stm-idf/components/cmsis/include/cmsis_gcc.h ****   return(result);
 388:/home/phong/Documents/thesis/stm32f4/stm-idf/components/cmsis/include/cmsis_gcc.h **** }
 389:/home/phong/Documents/thesis/stm32f4/stm-idf/components/cmsis/include/cmsis_gcc.h **** 
 390:/home/phong/Documents/thesis/stm32f4/stm-idf/components/cmsis/include/cmsis_gcc.h **** 
 391:/home/phong/Documents/thesis/stm32f4/stm-idf/components/cmsis/include/cmsis_gcc.h **** #if (defined (__ARM_FEATURE_CMSE ) && (__ARM_FEATURE_CMSE == 3))
 392:/home/phong/Documents/thesis/stm32f4/stm-idf/components/cmsis/include/cmsis_gcc.h **** /**
 393:/home/phong/Documents/thesis/stm32f4/stm-idf/components/cmsis/include/cmsis_gcc.h ****   \brief   Get Priority Mask (non-secure)
 394:/home/phong/Documents/thesis/stm32f4/stm-idf/components/cmsis/include/cmsis_gcc.h ****   \details Returns the current state of the non-secure priority mask bit from the Priority Mask Reg
 395:/home/phong/Documents/thesis/stm32f4/stm-idf/components/cmsis/include/cmsis_gcc.h ****   \return               Priority Mask value
 396:/home/phong/Documents/thesis/stm32f4/stm-idf/components/cmsis/include/cmsis_gcc.h ****  */
 397:/home/phong/Documents/thesis/stm32f4/stm-idf/components/cmsis/include/cmsis_gcc.h **** __STATIC_FORCEINLINE uint32_t __TZ_get_PRIMASK_NS(void)
 398:/home/phong/Documents/thesis/stm32f4/stm-idf/components/cmsis/include/cmsis_gcc.h **** {
 399:/home/phong/Documents/thesis/stm32f4/stm-idf/components/cmsis/include/cmsis_gcc.h ****   uint32_t result;
 400:/home/phong/Documents/thesis/stm32f4/stm-idf/components/cmsis/include/cmsis_gcc.h **** 
 401:/home/phong/Documents/thesis/stm32f4/stm-idf/components/cmsis/include/cmsis_gcc.h ****   __ASM volatile ("MRS %0, primask_ns" : "=r" (result) :: "memory");
 402:/home/phong/Documents/thesis/stm32f4/stm-idf/components/cmsis/include/cmsis_gcc.h ****   return(result);
 403:/home/phong/Documents/thesis/stm32f4/stm-idf/components/cmsis/include/cmsis_gcc.h **** }
 404:/home/phong/Documents/thesis/stm32f4/stm-idf/components/cmsis/include/cmsis_gcc.h **** #endif
 405:/home/phong/Documents/thesis/stm32f4/stm-idf/components/cmsis/include/cmsis_gcc.h **** 
 406:/home/phong/Documents/thesis/stm32f4/stm-idf/components/cmsis/include/cmsis_gcc.h **** 
 407:/home/phong/Documents/thesis/stm32f4/stm-idf/components/cmsis/include/cmsis_gcc.h **** /**
 408:/home/phong/Documents/thesis/stm32f4/stm-idf/components/cmsis/include/cmsis_gcc.h ****   \brief   Set Priority Mask
 409:/home/phong/Documents/thesis/stm32f4/stm-idf/components/cmsis/include/cmsis_gcc.h ****   \details Assigns the given value to the Priority Mask Register.
 410:/home/phong/Documents/thesis/stm32f4/stm-idf/components/cmsis/include/cmsis_gcc.h ****   \param [in]    priMask  Priority Mask
 411:/home/phong/Documents/thesis/stm32f4/stm-idf/components/cmsis/include/cmsis_gcc.h ****  */
 412:/home/phong/Documents/thesis/stm32f4/stm-idf/components/cmsis/include/cmsis_gcc.h **** __STATIC_FORCEINLINE void __set_PRIMASK(uint32_t priMask)
 413:/home/phong/Documents/thesis/stm32f4/stm-idf/components/cmsis/include/cmsis_gcc.h **** {
 414:/home/phong/Documents/thesis/stm32f4/stm-idf/components/cmsis/include/cmsis_gcc.h ****   __ASM volatile ("MSR primask, %0" : : "r" (priMask) : "memory");
 415:/home/phong/Documents/thesis/stm32f4/stm-idf/components/cmsis/include/cmsis_gcc.h **** }
 416:/home/phong/Documents/thesis/stm32f4/stm-idf/components/cmsis/include/cmsis_gcc.h **** 
 417:/home/phong/Documents/thesis/stm32f4/stm-idf/components/cmsis/include/cmsis_gcc.h **** 
 418:/home/phong/Documents/thesis/stm32f4/stm-idf/components/cmsis/include/cmsis_gcc.h **** #if (defined (__ARM_FEATURE_CMSE ) && (__ARM_FEATURE_CMSE == 3))
 419:/home/phong/Documents/thesis/stm32f4/stm-idf/components/cmsis/include/cmsis_gcc.h **** /**
 420:/home/phong/Documents/thesis/stm32f4/stm-idf/components/cmsis/include/cmsis_gcc.h ****   \brief   Set Priority Mask (non-secure)
 421:/home/phong/Documents/thesis/stm32f4/stm-idf/components/cmsis/include/cmsis_gcc.h ****   \details Assigns the given value to the non-secure Priority Mask Register when in secure state.
 422:/home/phong/Documents/thesis/stm32f4/stm-idf/components/cmsis/include/cmsis_gcc.h ****   \param [in]    priMask  Priority Mask
 423:/home/phong/Documents/thesis/stm32f4/stm-idf/components/cmsis/include/cmsis_gcc.h ****  */
 424:/home/phong/Documents/thesis/stm32f4/stm-idf/components/cmsis/include/cmsis_gcc.h **** __STATIC_FORCEINLINE void __TZ_set_PRIMASK_NS(uint32_t priMask)
 425:/home/phong/Documents/thesis/stm32f4/stm-idf/components/cmsis/include/cmsis_gcc.h **** {
 426:/home/phong/Documents/thesis/stm32f4/stm-idf/components/cmsis/include/cmsis_gcc.h ****   __ASM volatile ("MSR primask_ns, %0" : : "r" (priMask) : "memory");
 427:/home/phong/Documents/thesis/stm32f4/stm-idf/components/cmsis/include/cmsis_gcc.h **** }
 428:/home/phong/Documents/thesis/stm32f4/stm-idf/components/cmsis/include/cmsis_gcc.h **** #endif
 429:/home/phong/Documents/thesis/stm32f4/stm-idf/components/cmsis/include/cmsis_gcc.h **** 
 430:/home/phong/Documents/thesis/stm32f4/stm-idf/components/cmsis/include/cmsis_gcc.h **** 
 431:/home/phong/Documents/thesis/stm32f4/stm-idf/components/cmsis/include/cmsis_gcc.h **** #if ((defined (__ARM_ARCH_7M__      ) && (__ARM_ARCH_7M__      == 1)) || \
 432:/home/phong/Documents/thesis/stm32f4/stm-idf/components/cmsis/include/cmsis_gcc.h ****      (defined (__ARM_ARCH_7EM__     ) && (__ARM_ARCH_7EM__     == 1)) || \
 433:/home/phong/Documents/thesis/stm32f4/stm-idf/components/cmsis/include/cmsis_gcc.h ****      (defined (__ARM_ARCH_8M_MAIN__ ) && (__ARM_ARCH_8M_MAIN__ == 1))    )
ARM GAS  /tmp/ccM6uMDT.s 			page 55


 434:/home/phong/Documents/thesis/stm32f4/stm-idf/components/cmsis/include/cmsis_gcc.h **** /**
 435:/home/phong/Documents/thesis/stm32f4/stm-idf/components/cmsis/include/cmsis_gcc.h ****   \brief   Enable FIQ
 436:/home/phong/Documents/thesis/stm32f4/stm-idf/components/cmsis/include/cmsis_gcc.h ****   \details Enables FIQ interrupts by clearing the F-bit in the CPSR.
 437:/home/phong/Documents/thesis/stm32f4/stm-idf/components/cmsis/include/cmsis_gcc.h ****            Can only be executed in Privileged modes.
 438:/home/phong/Documents/thesis/stm32f4/stm-idf/components/cmsis/include/cmsis_gcc.h ****  */
 439:/home/phong/Documents/thesis/stm32f4/stm-idf/components/cmsis/include/cmsis_gcc.h **** __STATIC_FORCEINLINE void __enable_fault_irq(void)
 440:/home/phong/Documents/thesis/stm32f4/stm-idf/components/cmsis/include/cmsis_gcc.h **** {
 441:/home/phong/Documents/thesis/stm32f4/stm-idf/components/cmsis/include/cmsis_gcc.h ****   __ASM volatile ("cpsie f" : : : "memory");
 442:/home/phong/Documents/thesis/stm32f4/stm-idf/components/cmsis/include/cmsis_gcc.h **** }
 443:/home/phong/Documents/thesis/stm32f4/stm-idf/components/cmsis/include/cmsis_gcc.h **** 
 444:/home/phong/Documents/thesis/stm32f4/stm-idf/components/cmsis/include/cmsis_gcc.h **** 
 445:/home/phong/Documents/thesis/stm32f4/stm-idf/components/cmsis/include/cmsis_gcc.h **** /**
 446:/home/phong/Documents/thesis/stm32f4/stm-idf/components/cmsis/include/cmsis_gcc.h ****   \brief   Disable FIQ
 447:/home/phong/Documents/thesis/stm32f4/stm-idf/components/cmsis/include/cmsis_gcc.h ****   \details Disables FIQ interrupts by setting the F-bit in the CPSR.
 448:/home/phong/Documents/thesis/stm32f4/stm-idf/components/cmsis/include/cmsis_gcc.h ****            Can only be executed in Privileged modes.
 449:/home/phong/Documents/thesis/stm32f4/stm-idf/components/cmsis/include/cmsis_gcc.h ****  */
 450:/home/phong/Documents/thesis/stm32f4/stm-idf/components/cmsis/include/cmsis_gcc.h **** __STATIC_FORCEINLINE void __disable_fault_irq(void)
 451:/home/phong/Documents/thesis/stm32f4/stm-idf/components/cmsis/include/cmsis_gcc.h **** {
 452:/home/phong/Documents/thesis/stm32f4/stm-idf/components/cmsis/include/cmsis_gcc.h ****   __ASM volatile ("cpsid f" : : : "memory");
 453:/home/phong/Documents/thesis/stm32f4/stm-idf/components/cmsis/include/cmsis_gcc.h **** }
 454:/home/phong/Documents/thesis/stm32f4/stm-idf/components/cmsis/include/cmsis_gcc.h **** 
 455:/home/phong/Documents/thesis/stm32f4/stm-idf/components/cmsis/include/cmsis_gcc.h **** 
 456:/home/phong/Documents/thesis/stm32f4/stm-idf/components/cmsis/include/cmsis_gcc.h **** /**
 457:/home/phong/Documents/thesis/stm32f4/stm-idf/components/cmsis/include/cmsis_gcc.h ****   \brief   Get Base Priority
 458:/home/phong/Documents/thesis/stm32f4/stm-idf/components/cmsis/include/cmsis_gcc.h ****   \details Returns the current value of the Base Priority register.
 459:/home/phong/Documents/thesis/stm32f4/stm-idf/components/cmsis/include/cmsis_gcc.h ****   \return               Base Priority register value
 460:/home/phong/Documents/thesis/stm32f4/stm-idf/components/cmsis/include/cmsis_gcc.h ****  */
 461:/home/phong/Documents/thesis/stm32f4/stm-idf/components/cmsis/include/cmsis_gcc.h **** __STATIC_FORCEINLINE uint32_t __get_BASEPRI(void)
 462:/home/phong/Documents/thesis/stm32f4/stm-idf/components/cmsis/include/cmsis_gcc.h **** {
 463:/home/phong/Documents/thesis/stm32f4/stm-idf/components/cmsis/include/cmsis_gcc.h ****   uint32_t result;
 464:/home/phong/Documents/thesis/stm32f4/stm-idf/components/cmsis/include/cmsis_gcc.h **** 
 465:/home/phong/Documents/thesis/stm32f4/stm-idf/components/cmsis/include/cmsis_gcc.h ****   __ASM volatile ("MRS %0, basepri" : "=r" (result) );
 466:/home/phong/Documents/thesis/stm32f4/stm-idf/components/cmsis/include/cmsis_gcc.h ****   return(result);
 467:/home/phong/Documents/thesis/stm32f4/stm-idf/components/cmsis/include/cmsis_gcc.h **** }
 468:/home/phong/Documents/thesis/stm32f4/stm-idf/components/cmsis/include/cmsis_gcc.h **** 
 469:/home/phong/Documents/thesis/stm32f4/stm-idf/components/cmsis/include/cmsis_gcc.h **** 
 470:/home/phong/Documents/thesis/stm32f4/stm-idf/components/cmsis/include/cmsis_gcc.h **** #if (defined (__ARM_FEATURE_CMSE ) && (__ARM_FEATURE_CMSE == 3))
 471:/home/phong/Documents/thesis/stm32f4/stm-idf/components/cmsis/include/cmsis_gcc.h **** /**
 472:/home/phong/Documents/thesis/stm32f4/stm-idf/components/cmsis/include/cmsis_gcc.h ****   \brief   Get Base Priority (non-secure)
 473:/home/phong/Documents/thesis/stm32f4/stm-idf/components/cmsis/include/cmsis_gcc.h ****   \details Returns the current value of the non-secure Base Priority register when in secure state.
 474:/home/phong/Documents/thesis/stm32f4/stm-idf/components/cmsis/include/cmsis_gcc.h ****   \return               Base Priority register value
 475:/home/phong/Documents/thesis/stm32f4/stm-idf/components/cmsis/include/cmsis_gcc.h ****  */
 476:/home/phong/Documents/thesis/stm32f4/stm-idf/components/cmsis/include/cmsis_gcc.h **** __STATIC_FORCEINLINE uint32_t __TZ_get_BASEPRI_NS(void)
 477:/home/phong/Documents/thesis/stm32f4/stm-idf/components/cmsis/include/cmsis_gcc.h **** {
 478:/home/phong/Documents/thesis/stm32f4/stm-idf/components/cmsis/include/cmsis_gcc.h ****   uint32_t result;
 479:/home/phong/Documents/thesis/stm32f4/stm-idf/components/cmsis/include/cmsis_gcc.h **** 
 480:/home/phong/Documents/thesis/stm32f4/stm-idf/components/cmsis/include/cmsis_gcc.h ****   __ASM volatile ("MRS %0, basepri_ns" : "=r" (result) );
 481:/home/phong/Documents/thesis/stm32f4/stm-idf/components/cmsis/include/cmsis_gcc.h ****   return(result);
 482:/home/phong/Documents/thesis/stm32f4/stm-idf/components/cmsis/include/cmsis_gcc.h **** }
 483:/home/phong/Documents/thesis/stm32f4/stm-idf/components/cmsis/include/cmsis_gcc.h **** #endif
 484:/home/phong/Documents/thesis/stm32f4/stm-idf/components/cmsis/include/cmsis_gcc.h **** 
 485:/home/phong/Documents/thesis/stm32f4/stm-idf/components/cmsis/include/cmsis_gcc.h **** 
 486:/home/phong/Documents/thesis/stm32f4/stm-idf/components/cmsis/include/cmsis_gcc.h **** /**
 487:/home/phong/Documents/thesis/stm32f4/stm-idf/components/cmsis/include/cmsis_gcc.h ****   \brief   Set Base Priority
 488:/home/phong/Documents/thesis/stm32f4/stm-idf/components/cmsis/include/cmsis_gcc.h ****   \details Assigns the given value to the Base Priority register.
 489:/home/phong/Documents/thesis/stm32f4/stm-idf/components/cmsis/include/cmsis_gcc.h ****   \param [in]    basePri  Base Priority value to set
 490:/home/phong/Documents/thesis/stm32f4/stm-idf/components/cmsis/include/cmsis_gcc.h ****  */
ARM GAS  /tmp/ccM6uMDT.s 			page 56


 491:/home/phong/Documents/thesis/stm32f4/stm-idf/components/cmsis/include/cmsis_gcc.h **** __STATIC_FORCEINLINE void __set_BASEPRI(uint32_t basePri)
 492:/home/phong/Documents/thesis/stm32f4/stm-idf/components/cmsis/include/cmsis_gcc.h **** {
 493:/home/phong/Documents/thesis/stm32f4/stm-idf/components/cmsis/include/cmsis_gcc.h ****   __ASM volatile ("MSR basepri, %0" : : "r" (basePri) : "memory");
 494:/home/phong/Documents/thesis/stm32f4/stm-idf/components/cmsis/include/cmsis_gcc.h **** }
 495:/home/phong/Documents/thesis/stm32f4/stm-idf/components/cmsis/include/cmsis_gcc.h **** 
 496:/home/phong/Documents/thesis/stm32f4/stm-idf/components/cmsis/include/cmsis_gcc.h **** 
 497:/home/phong/Documents/thesis/stm32f4/stm-idf/components/cmsis/include/cmsis_gcc.h **** #if (defined (__ARM_FEATURE_CMSE ) && (__ARM_FEATURE_CMSE == 3))
 498:/home/phong/Documents/thesis/stm32f4/stm-idf/components/cmsis/include/cmsis_gcc.h **** /**
 499:/home/phong/Documents/thesis/stm32f4/stm-idf/components/cmsis/include/cmsis_gcc.h ****   \brief   Set Base Priority (non-secure)
 500:/home/phong/Documents/thesis/stm32f4/stm-idf/components/cmsis/include/cmsis_gcc.h ****   \details Assigns the given value to the non-secure Base Priority register when in secure state.
 501:/home/phong/Documents/thesis/stm32f4/stm-idf/components/cmsis/include/cmsis_gcc.h ****   \param [in]    basePri  Base Priority value to set
 502:/home/phong/Documents/thesis/stm32f4/stm-idf/components/cmsis/include/cmsis_gcc.h ****  */
 503:/home/phong/Documents/thesis/stm32f4/stm-idf/components/cmsis/include/cmsis_gcc.h **** __STATIC_FORCEINLINE void __TZ_set_BASEPRI_NS(uint32_t basePri)
 504:/home/phong/Documents/thesis/stm32f4/stm-idf/components/cmsis/include/cmsis_gcc.h **** {
 505:/home/phong/Documents/thesis/stm32f4/stm-idf/components/cmsis/include/cmsis_gcc.h ****   __ASM volatile ("MSR basepri_ns, %0" : : "r" (basePri) : "memory");
 506:/home/phong/Documents/thesis/stm32f4/stm-idf/components/cmsis/include/cmsis_gcc.h **** }
 507:/home/phong/Documents/thesis/stm32f4/stm-idf/components/cmsis/include/cmsis_gcc.h **** #endif
 508:/home/phong/Documents/thesis/stm32f4/stm-idf/components/cmsis/include/cmsis_gcc.h **** 
 509:/home/phong/Documents/thesis/stm32f4/stm-idf/components/cmsis/include/cmsis_gcc.h **** 
 510:/home/phong/Documents/thesis/stm32f4/stm-idf/components/cmsis/include/cmsis_gcc.h **** /**
 511:/home/phong/Documents/thesis/stm32f4/stm-idf/components/cmsis/include/cmsis_gcc.h ****   \brief   Set Base Priority with condition
 512:/home/phong/Documents/thesis/stm32f4/stm-idf/components/cmsis/include/cmsis_gcc.h ****   \details Assigns the given value to the Base Priority register only if BASEPRI masking is disable
 513:/home/phong/Documents/thesis/stm32f4/stm-idf/components/cmsis/include/cmsis_gcc.h ****            or the new value increases the BASEPRI priority level.
 514:/home/phong/Documents/thesis/stm32f4/stm-idf/components/cmsis/include/cmsis_gcc.h ****   \param [in]    basePri  Base Priority value to set
 515:/home/phong/Documents/thesis/stm32f4/stm-idf/components/cmsis/include/cmsis_gcc.h ****  */
 516:/home/phong/Documents/thesis/stm32f4/stm-idf/components/cmsis/include/cmsis_gcc.h **** __STATIC_FORCEINLINE void __set_BASEPRI_MAX(uint32_t basePri)
 517:/home/phong/Documents/thesis/stm32f4/stm-idf/components/cmsis/include/cmsis_gcc.h **** {
 518:/home/phong/Documents/thesis/stm32f4/stm-idf/components/cmsis/include/cmsis_gcc.h ****   __ASM volatile ("MSR basepri_max, %0" : : "r" (basePri) : "memory");
 519:/home/phong/Documents/thesis/stm32f4/stm-idf/components/cmsis/include/cmsis_gcc.h **** }
 520:/home/phong/Documents/thesis/stm32f4/stm-idf/components/cmsis/include/cmsis_gcc.h **** 
 521:/home/phong/Documents/thesis/stm32f4/stm-idf/components/cmsis/include/cmsis_gcc.h **** 
 522:/home/phong/Documents/thesis/stm32f4/stm-idf/components/cmsis/include/cmsis_gcc.h **** /**
 523:/home/phong/Documents/thesis/stm32f4/stm-idf/components/cmsis/include/cmsis_gcc.h ****   \brief   Get Fault Mask
 524:/home/phong/Documents/thesis/stm32f4/stm-idf/components/cmsis/include/cmsis_gcc.h ****   \details Returns the current value of the Fault Mask register.
 525:/home/phong/Documents/thesis/stm32f4/stm-idf/components/cmsis/include/cmsis_gcc.h ****   \return               Fault Mask register value
 526:/home/phong/Documents/thesis/stm32f4/stm-idf/components/cmsis/include/cmsis_gcc.h ****  */
 527:/home/phong/Documents/thesis/stm32f4/stm-idf/components/cmsis/include/cmsis_gcc.h **** __STATIC_FORCEINLINE uint32_t __get_FAULTMASK(void)
 528:/home/phong/Documents/thesis/stm32f4/stm-idf/components/cmsis/include/cmsis_gcc.h **** {
 529:/home/phong/Documents/thesis/stm32f4/stm-idf/components/cmsis/include/cmsis_gcc.h ****   uint32_t result;
 530:/home/phong/Documents/thesis/stm32f4/stm-idf/components/cmsis/include/cmsis_gcc.h **** 
 531:/home/phong/Documents/thesis/stm32f4/stm-idf/components/cmsis/include/cmsis_gcc.h ****   __ASM volatile ("MRS %0, faultmask" : "=r" (result) );
 532:/home/phong/Documents/thesis/stm32f4/stm-idf/components/cmsis/include/cmsis_gcc.h ****   return(result);
 533:/home/phong/Documents/thesis/stm32f4/stm-idf/components/cmsis/include/cmsis_gcc.h **** }
 534:/home/phong/Documents/thesis/stm32f4/stm-idf/components/cmsis/include/cmsis_gcc.h **** 
 535:/home/phong/Documents/thesis/stm32f4/stm-idf/components/cmsis/include/cmsis_gcc.h **** 
 536:/home/phong/Documents/thesis/stm32f4/stm-idf/components/cmsis/include/cmsis_gcc.h **** #if (defined (__ARM_FEATURE_CMSE ) && (__ARM_FEATURE_CMSE == 3))
 537:/home/phong/Documents/thesis/stm32f4/stm-idf/components/cmsis/include/cmsis_gcc.h **** /**
 538:/home/phong/Documents/thesis/stm32f4/stm-idf/components/cmsis/include/cmsis_gcc.h ****   \brief   Get Fault Mask (non-secure)
 539:/home/phong/Documents/thesis/stm32f4/stm-idf/components/cmsis/include/cmsis_gcc.h ****   \details Returns the current value of the non-secure Fault Mask register when in secure state.
 540:/home/phong/Documents/thesis/stm32f4/stm-idf/components/cmsis/include/cmsis_gcc.h ****   \return               Fault Mask register value
 541:/home/phong/Documents/thesis/stm32f4/stm-idf/components/cmsis/include/cmsis_gcc.h ****  */
 542:/home/phong/Documents/thesis/stm32f4/stm-idf/components/cmsis/include/cmsis_gcc.h **** __STATIC_FORCEINLINE uint32_t __TZ_get_FAULTMASK_NS(void)
 543:/home/phong/Documents/thesis/stm32f4/stm-idf/components/cmsis/include/cmsis_gcc.h **** {
 544:/home/phong/Documents/thesis/stm32f4/stm-idf/components/cmsis/include/cmsis_gcc.h ****   uint32_t result;
 545:/home/phong/Documents/thesis/stm32f4/stm-idf/components/cmsis/include/cmsis_gcc.h **** 
 546:/home/phong/Documents/thesis/stm32f4/stm-idf/components/cmsis/include/cmsis_gcc.h ****   __ASM volatile ("MRS %0, faultmask_ns" : "=r" (result) );
 547:/home/phong/Documents/thesis/stm32f4/stm-idf/components/cmsis/include/cmsis_gcc.h ****   return(result);
ARM GAS  /tmp/ccM6uMDT.s 			page 57


 548:/home/phong/Documents/thesis/stm32f4/stm-idf/components/cmsis/include/cmsis_gcc.h **** }
 549:/home/phong/Documents/thesis/stm32f4/stm-idf/components/cmsis/include/cmsis_gcc.h **** #endif
 550:/home/phong/Documents/thesis/stm32f4/stm-idf/components/cmsis/include/cmsis_gcc.h **** 
 551:/home/phong/Documents/thesis/stm32f4/stm-idf/components/cmsis/include/cmsis_gcc.h **** 
 552:/home/phong/Documents/thesis/stm32f4/stm-idf/components/cmsis/include/cmsis_gcc.h **** /**
 553:/home/phong/Documents/thesis/stm32f4/stm-idf/components/cmsis/include/cmsis_gcc.h ****   \brief   Set Fault Mask
 554:/home/phong/Documents/thesis/stm32f4/stm-idf/components/cmsis/include/cmsis_gcc.h ****   \details Assigns the given value to the Fault Mask register.
 555:/home/phong/Documents/thesis/stm32f4/stm-idf/components/cmsis/include/cmsis_gcc.h ****   \param [in]    faultMask  Fault Mask value to set
 556:/home/phong/Documents/thesis/stm32f4/stm-idf/components/cmsis/include/cmsis_gcc.h ****  */
 557:/home/phong/Documents/thesis/stm32f4/stm-idf/components/cmsis/include/cmsis_gcc.h **** __STATIC_FORCEINLINE void __set_FAULTMASK(uint32_t faultMask)
 558:/home/phong/Documents/thesis/stm32f4/stm-idf/components/cmsis/include/cmsis_gcc.h **** {
 559:/home/phong/Documents/thesis/stm32f4/stm-idf/components/cmsis/include/cmsis_gcc.h ****   __ASM volatile ("MSR faultmask, %0" : : "r" (faultMask) : "memory");
 560:/home/phong/Documents/thesis/stm32f4/stm-idf/components/cmsis/include/cmsis_gcc.h **** }
 561:/home/phong/Documents/thesis/stm32f4/stm-idf/components/cmsis/include/cmsis_gcc.h **** 
 562:/home/phong/Documents/thesis/stm32f4/stm-idf/components/cmsis/include/cmsis_gcc.h **** 
 563:/home/phong/Documents/thesis/stm32f4/stm-idf/components/cmsis/include/cmsis_gcc.h **** #if (defined (__ARM_FEATURE_CMSE ) && (__ARM_FEATURE_CMSE == 3))
 564:/home/phong/Documents/thesis/stm32f4/stm-idf/components/cmsis/include/cmsis_gcc.h **** /**
 565:/home/phong/Documents/thesis/stm32f4/stm-idf/components/cmsis/include/cmsis_gcc.h ****   \brief   Set Fault Mask (non-secure)
 566:/home/phong/Documents/thesis/stm32f4/stm-idf/components/cmsis/include/cmsis_gcc.h ****   \details Assigns the given value to the non-secure Fault Mask register when in secure state.
 567:/home/phong/Documents/thesis/stm32f4/stm-idf/components/cmsis/include/cmsis_gcc.h ****   \param [in]    faultMask  Fault Mask value to set
 568:/home/phong/Documents/thesis/stm32f4/stm-idf/components/cmsis/include/cmsis_gcc.h ****  */
 569:/home/phong/Documents/thesis/stm32f4/stm-idf/components/cmsis/include/cmsis_gcc.h **** __STATIC_FORCEINLINE void __TZ_set_FAULTMASK_NS(uint32_t faultMask)
 570:/home/phong/Documents/thesis/stm32f4/stm-idf/components/cmsis/include/cmsis_gcc.h **** {
 571:/home/phong/Documents/thesis/stm32f4/stm-idf/components/cmsis/include/cmsis_gcc.h ****   __ASM volatile ("MSR faultmask_ns, %0" : : "r" (faultMask) : "memory");
 572:/home/phong/Documents/thesis/stm32f4/stm-idf/components/cmsis/include/cmsis_gcc.h **** }
 573:/home/phong/Documents/thesis/stm32f4/stm-idf/components/cmsis/include/cmsis_gcc.h **** #endif
 574:/home/phong/Documents/thesis/stm32f4/stm-idf/components/cmsis/include/cmsis_gcc.h **** 
 575:/home/phong/Documents/thesis/stm32f4/stm-idf/components/cmsis/include/cmsis_gcc.h **** #endif /* ((defined (__ARM_ARCH_7M__      ) && (__ARM_ARCH_7M__      == 1)) || \
 576:/home/phong/Documents/thesis/stm32f4/stm-idf/components/cmsis/include/cmsis_gcc.h ****            (defined (__ARM_ARCH_7EM__     ) && (__ARM_ARCH_7EM__     == 1)) || \
 577:/home/phong/Documents/thesis/stm32f4/stm-idf/components/cmsis/include/cmsis_gcc.h ****            (defined (__ARM_ARCH_8M_MAIN__ ) && (__ARM_ARCH_8M_MAIN__ == 1))    ) */
 578:/home/phong/Documents/thesis/stm32f4/stm-idf/components/cmsis/include/cmsis_gcc.h **** 
 579:/home/phong/Documents/thesis/stm32f4/stm-idf/components/cmsis/include/cmsis_gcc.h **** 
 580:/home/phong/Documents/thesis/stm32f4/stm-idf/components/cmsis/include/cmsis_gcc.h **** #if ((defined (__ARM_ARCH_8M_MAIN__ ) && (__ARM_ARCH_8M_MAIN__ == 1)) || \
 581:/home/phong/Documents/thesis/stm32f4/stm-idf/components/cmsis/include/cmsis_gcc.h ****      (defined (__ARM_ARCH_8M_BASE__ ) && (__ARM_ARCH_8M_BASE__ == 1))    )
 582:/home/phong/Documents/thesis/stm32f4/stm-idf/components/cmsis/include/cmsis_gcc.h **** 
 583:/home/phong/Documents/thesis/stm32f4/stm-idf/components/cmsis/include/cmsis_gcc.h **** /**
 584:/home/phong/Documents/thesis/stm32f4/stm-idf/components/cmsis/include/cmsis_gcc.h ****   \brief   Get Process Stack Pointer Limit
 585:/home/phong/Documents/thesis/stm32f4/stm-idf/components/cmsis/include/cmsis_gcc.h ****   Devices without ARMv8-M Main Extensions (i.e. Cortex-M23) lack the non-secure
 586:/home/phong/Documents/thesis/stm32f4/stm-idf/components/cmsis/include/cmsis_gcc.h ****   Stack Pointer Limit register hence zero is returned always in non-secure
 587:/home/phong/Documents/thesis/stm32f4/stm-idf/components/cmsis/include/cmsis_gcc.h ****   mode.
 588:/home/phong/Documents/thesis/stm32f4/stm-idf/components/cmsis/include/cmsis_gcc.h ****   
 589:/home/phong/Documents/thesis/stm32f4/stm-idf/components/cmsis/include/cmsis_gcc.h ****   \details Returns the current value of the Process Stack Pointer Limit (PSPLIM).
 590:/home/phong/Documents/thesis/stm32f4/stm-idf/components/cmsis/include/cmsis_gcc.h ****   \return               PSPLIM Register value
 591:/home/phong/Documents/thesis/stm32f4/stm-idf/components/cmsis/include/cmsis_gcc.h ****  */
 592:/home/phong/Documents/thesis/stm32f4/stm-idf/components/cmsis/include/cmsis_gcc.h **** __STATIC_FORCEINLINE uint32_t __get_PSPLIM(void)
 593:/home/phong/Documents/thesis/stm32f4/stm-idf/components/cmsis/include/cmsis_gcc.h **** {
 594:/home/phong/Documents/thesis/stm32f4/stm-idf/components/cmsis/include/cmsis_gcc.h **** #if (!(defined (__ARM_ARCH_8M_MAIN__ ) && (__ARM_ARCH_8M_MAIN__ == 1)) && \
 595:/home/phong/Documents/thesis/stm32f4/stm-idf/components/cmsis/include/cmsis_gcc.h ****     (!defined (__ARM_FEATURE_CMSE) || (__ARM_FEATURE_CMSE < 3)))
 596:/home/phong/Documents/thesis/stm32f4/stm-idf/components/cmsis/include/cmsis_gcc.h ****     // without main extensions, the non-secure PSPLIM is RAZ/WI
 597:/home/phong/Documents/thesis/stm32f4/stm-idf/components/cmsis/include/cmsis_gcc.h ****   return 0U;
 598:/home/phong/Documents/thesis/stm32f4/stm-idf/components/cmsis/include/cmsis_gcc.h **** #else
 599:/home/phong/Documents/thesis/stm32f4/stm-idf/components/cmsis/include/cmsis_gcc.h ****   uint32_t result;
 600:/home/phong/Documents/thesis/stm32f4/stm-idf/components/cmsis/include/cmsis_gcc.h ****   __ASM volatile ("MRS %0, psplim"  : "=r" (result) );
 601:/home/phong/Documents/thesis/stm32f4/stm-idf/components/cmsis/include/cmsis_gcc.h ****   return result;
 602:/home/phong/Documents/thesis/stm32f4/stm-idf/components/cmsis/include/cmsis_gcc.h **** #endif
 603:/home/phong/Documents/thesis/stm32f4/stm-idf/components/cmsis/include/cmsis_gcc.h **** }
 604:/home/phong/Documents/thesis/stm32f4/stm-idf/components/cmsis/include/cmsis_gcc.h **** 
ARM GAS  /tmp/ccM6uMDT.s 			page 58


 605:/home/phong/Documents/thesis/stm32f4/stm-idf/components/cmsis/include/cmsis_gcc.h **** #if (defined (__ARM_FEATURE_CMSE) && (__ARM_FEATURE_CMSE == 3))
 606:/home/phong/Documents/thesis/stm32f4/stm-idf/components/cmsis/include/cmsis_gcc.h **** /**
 607:/home/phong/Documents/thesis/stm32f4/stm-idf/components/cmsis/include/cmsis_gcc.h ****   \brief   Get Process Stack Pointer Limit (non-secure)
 608:/home/phong/Documents/thesis/stm32f4/stm-idf/components/cmsis/include/cmsis_gcc.h ****   Devices without ARMv8-M Main Extensions (i.e. Cortex-M23) lack the non-secure
 609:/home/phong/Documents/thesis/stm32f4/stm-idf/components/cmsis/include/cmsis_gcc.h ****   Stack Pointer Limit register hence zero is returned always.
 610:/home/phong/Documents/thesis/stm32f4/stm-idf/components/cmsis/include/cmsis_gcc.h **** 
 611:/home/phong/Documents/thesis/stm32f4/stm-idf/components/cmsis/include/cmsis_gcc.h ****   \details Returns the current value of the non-secure Process Stack Pointer Limit (PSPLIM) when in
 612:/home/phong/Documents/thesis/stm32f4/stm-idf/components/cmsis/include/cmsis_gcc.h ****   \return               PSPLIM Register value
 613:/home/phong/Documents/thesis/stm32f4/stm-idf/components/cmsis/include/cmsis_gcc.h ****  */
 614:/home/phong/Documents/thesis/stm32f4/stm-idf/components/cmsis/include/cmsis_gcc.h **** __STATIC_FORCEINLINE uint32_t __TZ_get_PSPLIM_NS(void)
 615:/home/phong/Documents/thesis/stm32f4/stm-idf/components/cmsis/include/cmsis_gcc.h **** {
 616:/home/phong/Documents/thesis/stm32f4/stm-idf/components/cmsis/include/cmsis_gcc.h **** #if (!(defined (__ARM_ARCH_8M_MAIN__ ) && (__ARM_ARCH_8M_MAIN__ == 1)))
 617:/home/phong/Documents/thesis/stm32f4/stm-idf/components/cmsis/include/cmsis_gcc.h ****   // without main extensions, the non-secure PSPLIM is RAZ/WI
 618:/home/phong/Documents/thesis/stm32f4/stm-idf/components/cmsis/include/cmsis_gcc.h ****   return 0U;
 619:/home/phong/Documents/thesis/stm32f4/stm-idf/components/cmsis/include/cmsis_gcc.h **** #else
 620:/home/phong/Documents/thesis/stm32f4/stm-idf/components/cmsis/include/cmsis_gcc.h ****   uint32_t result;
 621:/home/phong/Documents/thesis/stm32f4/stm-idf/components/cmsis/include/cmsis_gcc.h ****   __ASM volatile ("MRS %0, psplim_ns"  : "=r" (result) );
 622:/home/phong/Documents/thesis/stm32f4/stm-idf/components/cmsis/include/cmsis_gcc.h ****   return result;
 623:/home/phong/Documents/thesis/stm32f4/stm-idf/components/cmsis/include/cmsis_gcc.h **** #endif
 624:/home/phong/Documents/thesis/stm32f4/stm-idf/components/cmsis/include/cmsis_gcc.h **** }
 625:/home/phong/Documents/thesis/stm32f4/stm-idf/components/cmsis/include/cmsis_gcc.h **** #endif
 626:/home/phong/Documents/thesis/stm32f4/stm-idf/components/cmsis/include/cmsis_gcc.h **** 
 627:/home/phong/Documents/thesis/stm32f4/stm-idf/components/cmsis/include/cmsis_gcc.h **** 
 628:/home/phong/Documents/thesis/stm32f4/stm-idf/components/cmsis/include/cmsis_gcc.h **** /**
 629:/home/phong/Documents/thesis/stm32f4/stm-idf/components/cmsis/include/cmsis_gcc.h ****   \brief   Set Process Stack Pointer Limit
 630:/home/phong/Documents/thesis/stm32f4/stm-idf/components/cmsis/include/cmsis_gcc.h ****   Devices without ARMv8-M Main Extensions (i.e. Cortex-M23) lack the non-secure
 631:/home/phong/Documents/thesis/stm32f4/stm-idf/components/cmsis/include/cmsis_gcc.h ****   Stack Pointer Limit register hence the write is silently ignored in non-secure
 632:/home/phong/Documents/thesis/stm32f4/stm-idf/components/cmsis/include/cmsis_gcc.h ****   mode.
 633:/home/phong/Documents/thesis/stm32f4/stm-idf/components/cmsis/include/cmsis_gcc.h ****   
 634:/home/phong/Documents/thesis/stm32f4/stm-idf/components/cmsis/include/cmsis_gcc.h ****   \details Assigns the given value to the Process Stack Pointer Limit (PSPLIM).
 635:/home/phong/Documents/thesis/stm32f4/stm-idf/components/cmsis/include/cmsis_gcc.h ****   \param [in]    ProcStackPtrLimit  Process Stack Pointer Limit value to set
 636:/home/phong/Documents/thesis/stm32f4/stm-idf/components/cmsis/include/cmsis_gcc.h ****  */
 637:/home/phong/Documents/thesis/stm32f4/stm-idf/components/cmsis/include/cmsis_gcc.h **** __STATIC_FORCEINLINE void __set_PSPLIM(uint32_t ProcStackPtrLimit)
 638:/home/phong/Documents/thesis/stm32f4/stm-idf/components/cmsis/include/cmsis_gcc.h **** {
 639:/home/phong/Documents/thesis/stm32f4/stm-idf/components/cmsis/include/cmsis_gcc.h **** #if (!(defined (__ARM_ARCH_8M_MAIN__ ) && (__ARM_ARCH_8M_MAIN__ == 1)) && \
 640:/home/phong/Documents/thesis/stm32f4/stm-idf/components/cmsis/include/cmsis_gcc.h ****     (!defined (__ARM_FEATURE_CMSE) || (__ARM_FEATURE_CMSE < 3)))
 641:/home/phong/Documents/thesis/stm32f4/stm-idf/components/cmsis/include/cmsis_gcc.h ****   // without main extensions, the non-secure PSPLIM is RAZ/WI
 642:/home/phong/Documents/thesis/stm32f4/stm-idf/components/cmsis/include/cmsis_gcc.h ****   (void)ProcStackPtrLimit;
 643:/home/phong/Documents/thesis/stm32f4/stm-idf/components/cmsis/include/cmsis_gcc.h **** #else
 644:/home/phong/Documents/thesis/stm32f4/stm-idf/components/cmsis/include/cmsis_gcc.h ****   __ASM volatile ("MSR psplim, %0" : : "r" (ProcStackPtrLimit));
 645:/home/phong/Documents/thesis/stm32f4/stm-idf/components/cmsis/include/cmsis_gcc.h **** #endif
 646:/home/phong/Documents/thesis/stm32f4/stm-idf/components/cmsis/include/cmsis_gcc.h **** }
 647:/home/phong/Documents/thesis/stm32f4/stm-idf/components/cmsis/include/cmsis_gcc.h **** 
 648:/home/phong/Documents/thesis/stm32f4/stm-idf/components/cmsis/include/cmsis_gcc.h **** 
 649:/home/phong/Documents/thesis/stm32f4/stm-idf/components/cmsis/include/cmsis_gcc.h **** #if (defined (__ARM_FEATURE_CMSE  ) && (__ARM_FEATURE_CMSE   == 3))
 650:/home/phong/Documents/thesis/stm32f4/stm-idf/components/cmsis/include/cmsis_gcc.h **** /**
 651:/home/phong/Documents/thesis/stm32f4/stm-idf/components/cmsis/include/cmsis_gcc.h ****   \brief   Set Process Stack Pointer (non-secure)
 652:/home/phong/Documents/thesis/stm32f4/stm-idf/components/cmsis/include/cmsis_gcc.h ****   Devices without ARMv8-M Main Extensions (i.e. Cortex-M23) lack the non-secure
 653:/home/phong/Documents/thesis/stm32f4/stm-idf/components/cmsis/include/cmsis_gcc.h ****   Stack Pointer Limit register hence the write is silently ignored.
 654:/home/phong/Documents/thesis/stm32f4/stm-idf/components/cmsis/include/cmsis_gcc.h **** 
 655:/home/phong/Documents/thesis/stm32f4/stm-idf/components/cmsis/include/cmsis_gcc.h ****   \details Assigns the given value to the non-secure Process Stack Pointer Limit (PSPLIM) when in s
 656:/home/phong/Documents/thesis/stm32f4/stm-idf/components/cmsis/include/cmsis_gcc.h ****   \param [in]    ProcStackPtrLimit  Process Stack Pointer Limit value to set
 657:/home/phong/Documents/thesis/stm32f4/stm-idf/components/cmsis/include/cmsis_gcc.h ****  */
 658:/home/phong/Documents/thesis/stm32f4/stm-idf/components/cmsis/include/cmsis_gcc.h **** __STATIC_FORCEINLINE void __TZ_set_PSPLIM_NS(uint32_t ProcStackPtrLimit)
 659:/home/phong/Documents/thesis/stm32f4/stm-idf/components/cmsis/include/cmsis_gcc.h **** {
 660:/home/phong/Documents/thesis/stm32f4/stm-idf/components/cmsis/include/cmsis_gcc.h **** #if (!(defined (__ARM_ARCH_8M_MAIN__ ) && (__ARM_ARCH_8M_MAIN__ == 1)))
 661:/home/phong/Documents/thesis/stm32f4/stm-idf/components/cmsis/include/cmsis_gcc.h ****   // without main extensions, the non-secure PSPLIM is RAZ/WI
ARM GAS  /tmp/ccM6uMDT.s 			page 59


 662:/home/phong/Documents/thesis/stm32f4/stm-idf/components/cmsis/include/cmsis_gcc.h ****   (void)ProcStackPtrLimit;
 663:/home/phong/Documents/thesis/stm32f4/stm-idf/components/cmsis/include/cmsis_gcc.h **** #else
 664:/home/phong/Documents/thesis/stm32f4/stm-idf/components/cmsis/include/cmsis_gcc.h ****   __ASM volatile ("MSR psplim_ns, %0\n" : : "r" (ProcStackPtrLimit));
 665:/home/phong/Documents/thesis/stm32f4/stm-idf/components/cmsis/include/cmsis_gcc.h **** #endif
 666:/home/phong/Documents/thesis/stm32f4/stm-idf/components/cmsis/include/cmsis_gcc.h **** }
 667:/home/phong/Documents/thesis/stm32f4/stm-idf/components/cmsis/include/cmsis_gcc.h **** #endif
 668:/home/phong/Documents/thesis/stm32f4/stm-idf/components/cmsis/include/cmsis_gcc.h **** 
 669:/home/phong/Documents/thesis/stm32f4/stm-idf/components/cmsis/include/cmsis_gcc.h **** 
 670:/home/phong/Documents/thesis/stm32f4/stm-idf/components/cmsis/include/cmsis_gcc.h **** /**
 671:/home/phong/Documents/thesis/stm32f4/stm-idf/components/cmsis/include/cmsis_gcc.h ****   \brief   Get Main Stack Pointer Limit
 672:/home/phong/Documents/thesis/stm32f4/stm-idf/components/cmsis/include/cmsis_gcc.h ****   Devices without ARMv8-M Main Extensions (i.e. Cortex-M23) lack the non-secure
 673:/home/phong/Documents/thesis/stm32f4/stm-idf/components/cmsis/include/cmsis_gcc.h ****   Stack Pointer Limit register hence zero is returned always in non-secure
 674:/home/phong/Documents/thesis/stm32f4/stm-idf/components/cmsis/include/cmsis_gcc.h ****   mode.
 675:/home/phong/Documents/thesis/stm32f4/stm-idf/components/cmsis/include/cmsis_gcc.h **** 
 676:/home/phong/Documents/thesis/stm32f4/stm-idf/components/cmsis/include/cmsis_gcc.h ****   \details Returns the current value of the Main Stack Pointer Limit (MSPLIM).
 677:/home/phong/Documents/thesis/stm32f4/stm-idf/components/cmsis/include/cmsis_gcc.h ****   \return               MSPLIM Register value
 678:/home/phong/Documents/thesis/stm32f4/stm-idf/components/cmsis/include/cmsis_gcc.h ****  */
 679:/home/phong/Documents/thesis/stm32f4/stm-idf/components/cmsis/include/cmsis_gcc.h **** __STATIC_FORCEINLINE uint32_t __get_MSPLIM(void)
 680:/home/phong/Documents/thesis/stm32f4/stm-idf/components/cmsis/include/cmsis_gcc.h **** {
 681:/home/phong/Documents/thesis/stm32f4/stm-idf/components/cmsis/include/cmsis_gcc.h **** #if (!(defined (__ARM_ARCH_8M_MAIN__ ) && (__ARM_ARCH_8M_MAIN__ == 1)) && \
 682:/home/phong/Documents/thesis/stm32f4/stm-idf/components/cmsis/include/cmsis_gcc.h ****     (!defined (__ARM_FEATURE_CMSE) || (__ARM_FEATURE_CMSE < 3)))
 683:/home/phong/Documents/thesis/stm32f4/stm-idf/components/cmsis/include/cmsis_gcc.h ****   // without main extensions, the non-secure MSPLIM is RAZ/WI
 684:/home/phong/Documents/thesis/stm32f4/stm-idf/components/cmsis/include/cmsis_gcc.h ****   return 0U;
 685:/home/phong/Documents/thesis/stm32f4/stm-idf/components/cmsis/include/cmsis_gcc.h **** #else
 686:/home/phong/Documents/thesis/stm32f4/stm-idf/components/cmsis/include/cmsis_gcc.h ****   uint32_t result;
 687:/home/phong/Documents/thesis/stm32f4/stm-idf/components/cmsis/include/cmsis_gcc.h ****   __ASM volatile ("MRS %0, msplim" : "=r" (result) );
 688:/home/phong/Documents/thesis/stm32f4/stm-idf/components/cmsis/include/cmsis_gcc.h ****   return result;
 689:/home/phong/Documents/thesis/stm32f4/stm-idf/components/cmsis/include/cmsis_gcc.h **** #endif
 690:/home/phong/Documents/thesis/stm32f4/stm-idf/components/cmsis/include/cmsis_gcc.h **** }
 691:/home/phong/Documents/thesis/stm32f4/stm-idf/components/cmsis/include/cmsis_gcc.h **** 
 692:/home/phong/Documents/thesis/stm32f4/stm-idf/components/cmsis/include/cmsis_gcc.h **** 
 693:/home/phong/Documents/thesis/stm32f4/stm-idf/components/cmsis/include/cmsis_gcc.h **** #if (defined (__ARM_FEATURE_CMSE  ) && (__ARM_FEATURE_CMSE   == 3))
 694:/home/phong/Documents/thesis/stm32f4/stm-idf/components/cmsis/include/cmsis_gcc.h **** /**
 695:/home/phong/Documents/thesis/stm32f4/stm-idf/components/cmsis/include/cmsis_gcc.h ****   \brief   Get Main Stack Pointer Limit (non-secure)
 696:/home/phong/Documents/thesis/stm32f4/stm-idf/components/cmsis/include/cmsis_gcc.h ****   Devices without ARMv8-M Main Extensions (i.e. Cortex-M23) lack the non-secure
 697:/home/phong/Documents/thesis/stm32f4/stm-idf/components/cmsis/include/cmsis_gcc.h ****   Stack Pointer Limit register hence zero is returned always.
 698:/home/phong/Documents/thesis/stm32f4/stm-idf/components/cmsis/include/cmsis_gcc.h **** 
 699:/home/phong/Documents/thesis/stm32f4/stm-idf/components/cmsis/include/cmsis_gcc.h ****   \details Returns the current value of the non-secure Main Stack Pointer Limit(MSPLIM) when in sec
 700:/home/phong/Documents/thesis/stm32f4/stm-idf/components/cmsis/include/cmsis_gcc.h ****   \return               MSPLIM Register value
 701:/home/phong/Documents/thesis/stm32f4/stm-idf/components/cmsis/include/cmsis_gcc.h ****  */
 702:/home/phong/Documents/thesis/stm32f4/stm-idf/components/cmsis/include/cmsis_gcc.h **** __STATIC_FORCEINLINE uint32_t __TZ_get_MSPLIM_NS(void)
 703:/home/phong/Documents/thesis/stm32f4/stm-idf/components/cmsis/include/cmsis_gcc.h **** {
 704:/home/phong/Documents/thesis/stm32f4/stm-idf/components/cmsis/include/cmsis_gcc.h **** #if (!(defined (__ARM_ARCH_8M_MAIN__ ) && (__ARM_ARCH_8M_MAIN__ == 1)))
 705:/home/phong/Documents/thesis/stm32f4/stm-idf/components/cmsis/include/cmsis_gcc.h ****   // without main extensions, the non-secure MSPLIM is RAZ/WI
 706:/home/phong/Documents/thesis/stm32f4/stm-idf/components/cmsis/include/cmsis_gcc.h ****   return 0U;
 707:/home/phong/Documents/thesis/stm32f4/stm-idf/components/cmsis/include/cmsis_gcc.h **** #else
 708:/home/phong/Documents/thesis/stm32f4/stm-idf/components/cmsis/include/cmsis_gcc.h ****   uint32_t result;
 709:/home/phong/Documents/thesis/stm32f4/stm-idf/components/cmsis/include/cmsis_gcc.h ****   __ASM volatile ("MRS %0, msplim_ns" : "=r" (result) );
 710:/home/phong/Documents/thesis/stm32f4/stm-idf/components/cmsis/include/cmsis_gcc.h ****   return result;
 711:/home/phong/Documents/thesis/stm32f4/stm-idf/components/cmsis/include/cmsis_gcc.h **** #endif
 712:/home/phong/Documents/thesis/stm32f4/stm-idf/components/cmsis/include/cmsis_gcc.h **** }
 713:/home/phong/Documents/thesis/stm32f4/stm-idf/components/cmsis/include/cmsis_gcc.h **** #endif
 714:/home/phong/Documents/thesis/stm32f4/stm-idf/components/cmsis/include/cmsis_gcc.h **** 
 715:/home/phong/Documents/thesis/stm32f4/stm-idf/components/cmsis/include/cmsis_gcc.h **** 
 716:/home/phong/Documents/thesis/stm32f4/stm-idf/components/cmsis/include/cmsis_gcc.h **** /**
 717:/home/phong/Documents/thesis/stm32f4/stm-idf/components/cmsis/include/cmsis_gcc.h ****   \brief   Set Main Stack Pointer Limit
 718:/home/phong/Documents/thesis/stm32f4/stm-idf/components/cmsis/include/cmsis_gcc.h ****   Devices without ARMv8-M Main Extensions (i.e. Cortex-M23) lack the non-secure
ARM GAS  /tmp/ccM6uMDT.s 			page 60


 719:/home/phong/Documents/thesis/stm32f4/stm-idf/components/cmsis/include/cmsis_gcc.h ****   Stack Pointer Limit register hence the write is silently ignored in non-secure
 720:/home/phong/Documents/thesis/stm32f4/stm-idf/components/cmsis/include/cmsis_gcc.h ****   mode.
 721:/home/phong/Documents/thesis/stm32f4/stm-idf/components/cmsis/include/cmsis_gcc.h **** 
 722:/home/phong/Documents/thesis/stm32f4/stm-idf/components/cmsis/include/cmsis_gcc.h ****   \details Assigns the given value to the Main Stack Pointer Limit (MSPLIM).
 723:/home/phong/Documents/thesis/stm32f4/stm-idf/components/cmsis/include/cmsis_gcc.h ****   \param [in]    MainStackPtrLimit  Main Stack Pointer Limit value to set
 724:/home/phong/Documents/thesis/stm32f4/stm-idf/components/cmsis/include/cmsis_gcc.h ****  */
 725:/home/phong/Documents/thesis/stm32f4/stm-idf/components/cmsis/include/cmsis_gcc.h **** __STATIC_FORCEINLINE void __set_MSPLIM(uint32_t MainStackPtrLimit)
 726:/home/phong/Documents/thesis/stm32f4/stm-idf/components/cmsis/include/cmsis_gcc.h **** {
 727:/home/phong/Documents/thesis/stm32f4/stm-idf/components/cmsis/include/cmsis_gcc.h **** #if (!(defined (__ARM_ARCH_8M_MAIN__ ) && (__ARM_ARCH_8M_MAIN__ == 1)) && \
 728:/home/phong/Documents/thesis/stm32f4/stm-idf/components/cmsis/include/cmsis_gcc.h ****     (!defined (__ARM_FEATURE_CMSE) || (__ARM_FEATURE_CMSE < 3)))
 729:/home/phong/Documents/thesis/stm32f4/stm-idf/components/cmsis/include/cmsis_gcc.h ****   // without main extensions, the non-secure MSPLIM is RAZ/WI
 730:/home/phong/Documents/thesis/stm32f4/stm-idf/components/cmsis/include/cmsis_gcc.h ****   (void)MainStackPtrLimit;
 731:/home/phong/Documents/thesis/stm32f4/stm-idf/components/cmsis/include/cmsis_gcc.h **** #else
 732:/home/phong/Documents/thesis/stm32f4/stm-idf/components/cmsis/include/cmsis_gcc.h ****   __ASM volatile ("MSR msplim, %0" : : "r" (MainStackPtrLimit));
 733:/home/phong/Documents/thesis/stm32f4/stm-idf/components/cmsis/include/cmsis_gcc.h **** #endif
 734:/home/phong/Documents/thesis/stm32f4/stm-idf/components/cmsis/include/cmsis_gcc.h **** }
 735:/home/phong/Documents/thesis/stm32f4/stm-idf/components/cmsis/include/cmsis_gcc.h **** 
 736:/home/phong/Documents/thesis/stm32f4/stm-idf/components/cmsis/include/cmsis_gcc.h **** 
 737:/home/phong/Documents/thesis/stm32f4/stm-idf/components/cmsis/include/cmsis_gcc.h **** #if (defined (__ARM_FEATURE_CMSE  ) && (__ARM_FEATURE_CMSE   == 3))
 738:/home/phong/Documents/thesis/stm32f4/stm-idf/components/cmsis/include/cmsis_gcc.h **** /**
 739:/home/phong/Documents/thesis/stm32f4/stm-idf/components/cmsis/include/cmsis_gcc.h ****   \brief   Set Main Stack Pointer Limit (non-secure)
 740:/home/phong/Documents/thesis/stm32f4/stm-idf/components/cmsis/include/cmsis_gcc.h ****   Devices without ARMv8-M Main Extensions (i.e. Cortex-M23) lack the non-secure
 741:/home/phong/Documents/thesis/stm32f4/stm-idf/components/cmsis/include/cmsis_gcc.h ****   Stack Pointer Limit register hence the write is silently ignored.
 742:/home/phong/Documents/thesis/stm32f4/stm-idf/components/cmsis/include/cmsis_gcc.h **** 
 743:/home/phong/Documents/thesis/stm32f4/stm-idf/components/cmsis/include/cmsis_gcc.h ****   \details Assigns the given value to the non-secure Main Stack Pointer Limit (MSPLIM) when in secu
 744:/home/phong/Documents/thesis/stm32f4/stm-idf/components/cmsis/include/cmsis_gcc.h ****   \param [in]    MainStackPtrLimit  Main Stack Pointer value to set
 745:/home/phong/Documents/thesis/stm32f4/stm-idf/components/cmsis/include/cmsis_gcc.h ****  */
 746:/home/phong/Documents/thesis/stm32f4/stm-idf/components/cmsis/include/cmsis_gcc.h **** __STATIC_FORCEINLINE void __TZ_set_MSPLIM_NS(uint32_t MainStackPtrLimit)
 747:/home/phong/Documents/thesis/stm32f4/stm-idf/components/cmsis/include/cmsis_gcc.h **** {
 748:/home/phong/Documents/thesis/stm32f4/stm-idf/components/cmsis/include/cmsis_gcc.h **** #if (!(defined (__ARM_ARCH_8M_MAIN__ ) && (__ARM_ARCH_8M_MAIN__ == 1)))
 749:/home/phong/Documents/thesis/stm32f4/stm-idf/components/cmsis/include/cmsis_gcc.h ****   // without main extensions, the non-secure MSPLIM is RAZ/WI
 750:/home/phong/Documents/thesis/stm32f4/stm-idf/components/cmsis/include/cmsis_gcc.h ****   (void)MainStackPtrLimit;
 751:/home/phong/Documents/thesis/stm32f4/stm-idf/components/cmsis/include/cmsis_gcc.h **** #else
 752:/home/phong/Documents/thesis/stm32f4/stm-idf/components/cmsis/include/cmsis_gcc.h ****   __ASM volatile ("MSR msplim_ns, %0" : : "r" (MainStackPtrLimit));
 753:/home/phong/Documents/thesis/stm32f4/stm-idf/components/cmsis/include/cmsis_gcc.h **** #endif
 754:/home/phong/Documents/thesis/stm32f4/stm-idf/components/cmsis/include/cmsis_gcc.h **** }
 755:/home/phong/Documents/thesis/stm32f4/stm-idf/components/cmsis/include/cmsis_gcc.h **** #endif
 756:/home/phong/Documents/thesis/stm32f4/stm-idf/components/cmsis/include/cmsis_gcc.h **** 
 757:/home/phong/Documents/thesis/stm32f4/stm-idf/components/cmsis/include/cmsis_gcc.h **** #endif /* ((defined (__ARM_ARCH_8M_MAIN__ ) && (__ARM_ARCH_8M_MAIN__ == 1)) || \
 758:/home/phong/Documents/thesis/stm32f4/stm-idf/components/cmsis/include/cmsis_gcc.h ****            (defined (__ARM_ARCH_8M_BASE__ ) && (__ARM_ARCH_8M_BASE__ == 1))    ) */
 759:/home/phong/Documents/thesis/stm32f4/stm-idf/components/cmsis/include/cmsis_gcc.h **** 
 760:/home/phong/Documents/thesis/stm32f4/stm-idf/components/cmsis/include/cmsis_gcc.h **** 
 761:/home/phong/Documents/thesis/stm32f4/stm-idf/components/cmsis/include/cmsis_gcc.h **** /**
 762:/home/phong/Documents/thesis/stm32f4/stm-idf/components/cmsis/include/cmsis_gcc.h ****   \brief   Get FPSCR
 763:/home/phong/Documents/thesis/stm32f4/stm-idf/components/cmsis/include/cmsis_gcc.h ****   \details Returns the current value of the Floating Point Status/Control register.
 764:/home/phong/Documents/thesis/stm32f4/stm-idf/components/cmsis/include/cmsis_gcc.h ****   \return               Floating Point Status/Control register value
 765:/home/phong/Documents/thesis/stm32f4/stm-idf/components/cmsis/include/cmsis_gcc.h ****  */
 766:/home/phong/Documents/thesis/stm32f4/stm-idf/components/cmsis/include/cmsis_gcc.h **** __STATIC_FORCEINLINE uint32_t __get_FPSCR(void)
 767:/home/phong/Documents/thesis/stm32f4/stm-idf/components/cmsis/include/cmsis_gcc.h **** {
 768:/home/phong/Documents/thesis/stm32f4/stm-idf/components/cmsis/include/cmsis_gcc.h **** #if ((defined (__FPU_PRESENT) && (__FPU_PRESENT == 1U)) && \
 769:/home/phong/Documents/thesis/stm32f4/stm-idf/components/cmsis/include/cmsis_gcc.h ****      (defined (__FPU_USED   ) && (__FPU_USED    == 1U))     )
 770:/home/phong/Documents/thesis/stm32f4/stm-idf/components/cmsis/include/cmsis_gcc.h **** #if __has_builtin(__builtin_arm_get_fpscr) 
 771:/home/phong/Documents/thesis/stm32f4/stm-idf/components/cmsis/include/cmsis_gcc.h **** // Re-enable using built-in when GCC has been fixed
 772:/home/phong/Documents/thesis/stm32f4/stm-idf/components/cmsis/include/cmsis_gcc.h **** // || (__GNUC__ > 7) || (__GNUC__ == 7 && __GNUC_MINOR__ >= 2)
 773:/home/phong/Documents/thesis/stm32f4/stm-idf/components/cmsis/include/cmsis_gcc.h ****   /* see https://gcc.gnu.org/ml/gcc-patches/2017-04/msg00443.html */
 774:/home/phong/Documents/thesis/stm32f4/stm-idf/components/cmsis/include/cmsis_gcc.h ****   return __builtin_arm_get_fpscr();
 775:/home/phong/Documents/thesis/stm32f4/stm-idf/components/cmsis/include/cmsis_gcc.h **** #else
ARM GAS  /tmp/ccM6uMDT.s 			page 61


 776:/home/phong/Documents/thesis/stm32f4/stm-idf/components/cmsis/include/cmsis_gcc.h ****   uint32_t result;
 777:/home/phong/Documents/thesis/stm32f4/stm-idf/components/cmsis/include/cmsis_gcc.h **** 
 778:/home/phong/Documents/thesis/stm32f4/stm-idf/components/cmsis/include/cmsis_gcc.h ****   __ASM volatile ("VMRS %0, fpscr" : "=r" (result) );
 779:/home/phong/Documents/thesis/stm32f4/stm-idf/components/cmsis/include/cmsis_gcc.h ****   return(result);
 780:/home/phong/Documents/thesis/stm32f4/stm-idf/components/cmsis/include/cmsis_gcc.h **** #endif
 781:/home/phong/Documents/thesis/stm32f4/stm-idf/components/cmsis/include/cmsis_gcc.h **** #else
 782:/home/phong/Documents/thesis/stm32f4/stm-idf/components/cmsis/include/cmsis_gcc.h ****   return(0U);
 783:/home/phong/Documents/thesis/stm32f4/stm-idf/components/cmsis/include/cmsis_gcc.h **** #endif
 784:/home/phong/Documents/thesis/stm32f4/stm-idf/components/cmsis/include/cmsis_gcc.h **** }
 785:/home/phong/Documents/thesis/stm32f4/stm-idf/components/cmsis/include/cmsis_gcc.h **** 
 786:/home/phong/Documents/thesis/stm32f4/stm-idf/components/cmsis/include/cmsis_gcc.h **** 
 787:/home/phong/Documents/thesis/stm32f4/stm-idf/components/cmsis/include/cmsis_gcc.h **** /**
 788:/home/phong/Documents/thesis/stm32f4/stm-idf/components/cmsis/include/cmsis_gcc.h ****   \brief   Set FPSCR
 789:/home/phong/Documents/thesis/stm32f4/stm-idf/components/cmsis/include/cmsis_gcc.h ****   \details Assigns the given value to the Floating Point Status/Control register.
 790:/home/phong/Documents/thesis/stm32f4/stm-idf/components/cmsis/include/cmsis_gcc.h ****   \param [in]    fpscr  Floating Point Status/Control value to set
 791:/home/phong/Documents/thesis/stm32f4/stm-idf/components/cmsis/include/cmsis_gcc.h ****  */
 792:/home/phong/Documents/thesis/stm32f4/stm-idf/components/cmsis/include/cmsis_gcc.h **** __STATIC_FORCEINLINE void __set_FPSCR(uint32_t fpscr)
 793:/home/phong/Documents/thesis/stm32f4/stm-idf/components/cmsis/include/cmsis_gcc.h **** {
 794:/home/phong/Documents/thesis/stm32f4/stm-idf/components/cmsis/include/cmsis_gcc.h **** #if ((defined (__FPU_PRESENT) && (__FPU_PRESENT == 1U)) && \
 795:/home/phong/Documents/thesis/stm32f4/stm-idf/components/cmsis/include/cmsis_gcc.h ****      (defined (__FPU_USED   ) && (__FPU_USED    == 1U))     )
 796:/home/phong/Documents/thesis/stm32f4/stm-idf/components/cmsis/include/cmsis_gcc.h **** #if __has_builtin(__builtin_arm_set_fpscr)
 797:/home/phong/Documents/thesis/stm32f4/stm-idf/components/cmsis/include/cmsis_gcc.h **** // Re-enable using built-in when GCC has been fixed
 798:/home/phong/Documents/thesis/stm32f4/stm-idf/components/cmsis/include/cmsis_gcc.h **** // || (__GNUC__ > 7) || (__GNUC__ == 7 && __GNUC_MINOR__ >= 2)
 799:/home/phong/Documents/thesis/stm32f4/stm-idf/components/cmsis/include/cmsis_gcc.h ****   /* see https://gcc.gnu.org/ml/gcc-patches/2017-04/msg00443.html */
 800:/home/phong/Documents/thesis/stm32f4/stm-idf/components/cmsis/include/cmsis_gcc.h ****   __builtin_arm_set_fpscr(fpscr);
 801:/home/phong/Documents/thesis/stm32f4/stm-idf/components/cmsis/include/cmsis_gcc.h **** #else
 802:/home/phong/Documents/thesis/stm32f4/stm-idf/components/cmsis/include/cmsis_gcc.h ****   __ASM volatile ("VMSR fpscr, %0" : : "r" (fpscr) : "vfpcc", "memory");
 803:/home/phong/Documents/thesis/stm32f4/stm-idf/components/cmsis/include/cmsis_gcc.h **** #endif
 804:/home/phong/Documents/thesis/stm32f4/stm-idf/components/cmsis/include/cmsis_gcc.h **** #else
 805:/home/phong/Documents/thesis/stm32f4/stm-idf/components/cmsis/include/cmsis_gcc.h ****   (void)fpscr;
 806:/home/phong/Documents/thesis/stm32f4/stm-idf/components/cmsis/include/cmsis_gcc.h **** #endif
 807:/home/phong/Documents/thesis/stm32f4/stm-idf/components/cmsis/include/cmsis_gcc.h **** }
 808:/home/phong/Documents/thesis/stm32f4/stm-idf/components/cmsis/include/cmsis_gcc.h **** 
 809:/home/phong/Documents/thesis/stm32f4/stm-idf/components/cmsis/include/cmsis_gcc.h **** 
 810:/home/phong/Documents/thesis/stm32f4/stm-idf/components/cmsis/include/cmsis_gcc.h **** /*@} end of CMSIS_Core_RegAccFunctions */
 811:/home/phong/Documents/thesis/stm32f4/stm-idf/components/cmsis/include/cmsis_gcc.h **** 
 812:/home/phong/Documents/thesis/stm32f4/stm-idf/components/cmsis/include/cmsis_gcc.h **** 
 813:/home/phong/Documents/thesis/stm32f4/stm-idf/components/cmsis/include/cmsis_gcc.h **** /* ##########################  Core Instruction Access  ######################### */
 814:/home/phong/Documents/thesis/stm32f4/stm-idf/components/cmsis/include/cmsis_gcc.h **** /** \defgroup CMSIS_Core_InstructionInterface CMSIS Core Instruction Interface
 815:/home/phong/Documents/thesis/stm32f4/stm-idf/components/cmsis/include/cmsis_gcc.h ****   Access to dedicated instructions
 816:/home/phong/Documents/thesis/stm32f4/stm-idf/components/cmsis/include/cmsis_gcc.h ****   @{
 817:/home/phong/Documents/thesis/stm32f4/stm-idf/components/cmsis/include/cmsis_gcc.h **** */
 818:/home/phong/Documents/thesis/stm32f4/stm-idf/components/cmsis/include/cmsis_gcc.h **** 
 819:/home/phong/Documents/thesis/stm32f4/stm-idf/components/cmsis/include/cmsis_gcc.h **** /* Define macros for porting to both thumb1 and thumb2.
 820:/home/phong/Documents/thesis/stm32f4/stm-idf/components/cmsis/include/cmsis_gcc.h ****  * For thumb1, use low register (r0-r7), specified by constraint "l"
 821:/home/phong/Documents/thesis/stm32f4/stm-idf/components/cmsis/include/cmsis_gcc.h ****  * Otherwise, use general registers, specified by constraint "r" */
 822:/home/phong/Documents/thesis/stm32f4/stm-idf/components/cmsis/include/cmsis_gcc.h **** #if defined (__thumb__) && !defined (__thumb2__)
 823:/home/phong/Documents/thesis/stm32f4/stm-idf/components/cmsis/include/cmsis_gcc.h **** #define __CMSIS_GCC_OUT_REG(r) "=l" (r)
 824:/home/phong/Documents/thesis/stm32f4/stm-idf/components/cmsis/include/cmsis_gcc.h **** #define __CMSIS_GCC_RW_REG(r) "+l" (r)
 825:/home/phong/Documents/thesis/stm32f4/stm-idf/components/cmsis/include/cmsis_gcc.h **** #define __CMSIS_GCC_USE_REG(r) "l" (r)
 826:/home/phong/Documents/thesis/stm32f4/stm-idf/components/cmsis/include/cmsis_gcc.h **** #else
 827:/home/phong/Documents/thesis/stm32f4/stm-idf/components/cmsis/include/cmsis_gcc.h **** #define __CMSIS_GCC_OUT_REG(r) "=r" (r)
 828:/home/phong/Documents/thesis/stm32f4/stm-idf/components/cmsis/include/cmsis_gcc.h **** #define __CMSIS_GCC_RW_REG(r) "+r" (r)
 829:/home/phong/Documents/thesis/stm32f4/stm-idf/components/cmsis/include/cmsis_gcc.h **** #define __CMSIS_GCC_USE_REG(r) "r" (r)
 830:/home/phong/Documents/thesis/stm32f4/stm-idf/components/cmsis/include/cmsis_gcc.h **** #endif
 831:/home/phong/Documents/thesis/stm32f4/stm-idf/components/cmsis/include/cmsis_gcc.h **** 
 832:/home/phong/Documents/thesis/stm32f4/stm-idf/components/cmsis/include/cmsis_gcc.h **** /**
ARM GAS  /tmp/ccM6uMDT.s 			page 62


 833:/home/phong/Documents/thesis/stm32f4/stm-idf/components/cmsis/include/cmsis_gcc.h ****   \brief   No Operation
 834:/home/phong/Documents/thesis/stm32f4/stm-idf/components/cmsis/include/cmsis_gcc.h ****   \details No Operation does nothing. This instruction can be used for code alignment purposes.
 835:/home/phong/Documents/thesis/stm32f4/stm-idf/components/cmsis/include/cmsis_gcc.h ****  */
 836:/home/phong/Documents/thesis/stm32f4/stm-idf/components/cmsis/include/cmsis_gcc.h **** #define __NOP()                             __ASM volatile ("nop")
 837:/home/phong/Documents/thesis/stm32f4/stm-idf/components/cmsis/include/cmsis_gcc.h **** 
 838:/home/phong/Documents/thesis/stm32f4/stm-idf/components/cmsis/include/cmsis_gcc.h **** /**
 839:/home/phong/Documents/thesis/stm32f4/stm-idf/components/cmsis/include/cmsis_gcc.h ****   \brief   Wait For Interrupt
 840:/home/phong/Documents/thesis/stm32f4/stm-idf/components/cmsis/include/cmsis_gcc.h ****   \details Wait For Interrupt is a hint instruction that suspends execution until one of a number o
 841:/home/phong/Documents/thesis/stm32f4/stm-idf/components/cmsis/include/cmsis_gcc.h ****  */
 842:/home/phong/Documents/thesis/stm32f4/stm-idf/components/cmsis/include/cmsis_gcc.h **** #define __WFI()                             __ASM volatile ("wfi")
 843:/home/phong/Documents/thesis/stm32f4/stm-idf/components/cmsis/include/cmsis_gcc.h **** 
 844:/home/phong/Documents/thesis/stm32f4/stm-idf/components/cmsis/include/cmsis_gcc.h **** 
 845:/home/phong/Documents/thesis/stm32f4/stm-idf/components/cmsis/include/cmsis_gcc.h **** /**
 846:/home/phong/Documents/thesis/stm32f4/stm-idf/components/cmsis/include/cmsis_gcc.h ****   \brief   Wait For Event
 847:/home/phong/Documents/thesis/stm32f4/stm-idf/components/cmsis/include/cmsis_gcc.h ****   \details Wait For Event is a hint instruction that permits the processor to enter
 848:/home/phong/Documents/thesis/stm32f4/stm-idf/components/cmsis/include/cmsis_gcc.h ****            a low-power state until one of a number of events occurs.
 849:/home/phong/Documents/thesis/stm32f4/stm-idf/components/cmsis/include/cmsis_gcc.h ****  */
 850:/home/phong/Documents/thesis/stm32f4/stm-idf/components/cmsis/include/cmsis_gcc.h **** #define __WFE()                             __ASM volatile ("wfe")
 851:/home/phong/Documents/thesis/stm32f4/stm-idf/components/cmsis/include/cmsis_gcc.h **** 
 852:/home/phong/Documents/thesis/stm32f4/stm-idf/components/cmsis/include/cmsis_gcc.h **** 
 853:/home/phong/Documents/thesis/stm32f4/stm-idf/components/cmsis/include/cmsis_gcc.h **** /**
 854:/home/phong/Documents/thesis/stm32f4/stm-idf/components/cmsis/include/cmsis_gcc.h ****   \brief   Send Event
 855:/home/phong/Documents/thesis/stm32f4/stm-idf/components/cmsis/include/cmsis_gcc.h ****   \details Send Event is a hint instruction. It causes an event to be signaled to the CPU.
 856:/home/phong/Documents/thesis/stm32f4/stm-idf/components/cmsis/include/cmsis_gcc.h ****  */
 857:/home/phong/Documents/thesis/stm32f4/stm-idf/components/cmsis/include/cmsis_gcc.h **** #define __SEV()                             __ASM volatile ("sev")
 858:/home/phong/Documents/thesis/stm32f4/stm-idf/components/cmsis/include/cmsis_gcc.h **** 
 859:/home/phong/Documents/thesis/stm32f4/stm-idf/components/cmsis/include/cmsis_gcc.h **** 
 860:/home/phong/Documents/thesis/stm32f4/stm-idf/components/cmsis/include/cmsis_gcc.h **** /**
 861:/home/phong/Documents/thesis/stm32f4/stm-idf/components/cmsis/include/cmsis_gcc.h ****   \brief   Instruction Synchronization Barrier
 862:/home/phong/Documents/thesis/stm32f4/stm-idf/components/cmsis/include/cmsis_gcc.h ****   \details Instruction Synchronization Barrier flushes the pipeline in the processor,
 863:/home/phong/Documents/thesis/stm32f4/stm-idf/components/cmsis/include/cmsis_gcc.h ****            so that all instructions following the ISB are fetched from cache or memory,
 864:/home/phong/Documents/thesis/stm32f4/stm-idf/components/cmsis/include/cmsis_gcc.h ****            after the instruction has been completed.
 865:/home/phong/Documents/thesis/stm32f4/stm-idf/components/cmsis/include/cmsis_gcc.h ****  */
 866:/home/phong/Documents/thesis/stm32f4/stm-idf/components/cmsis/include/cmsis_gcc.h **** __STATIC_FORCEINLINE void __ISB(void)
 867:/home/phong/Documents/thesis/stm32f4/stm-idf/components/cmsis/include/cmsis_gcc.h **** {
 868:/home/phong/Documents/thesis/stm32f4/stm-idf/components/cmsis/include/cmsis_gcc.h ****   __ASM volatile ("isb 0xF":::"memory");
 869:/home/phong/Documents/thesis/stm32f4/stm-idf/components/cmsis/include/cmsis_gcc.h **** }
 870:/home/phong/Documents/thesis/stm32f4/stm-idf/components/cmsis/include/cmsis_gcc.h **** 
 871:/home/phong/Documents/thesis/stm32f4/stm-idf/components/cmsis/include/cmsis_gcc.h **** 
 872:/home/phong/Documents/thesis/stm32f4/stm-idf/components/cmsis/include/cmsis_gcc.h **** /**
 873:/home/phong/Documents/thesis/stm32f4/stm-idf/components/cmsis/include/cmsis_gcc.h ****   \brief   Data Synchronization Barrier
 874:/home/phong/Documents/thesis/stm32f4/stm-idf/components/cmsis/include/cmsis_gcc.h ****   \details Acts as a special kind of Data Memory Barrier.
 875:/home/phong/Documents/thesis/stm32f4/stm-idf/components/cmsis/include/cmsis_gcc.h ****            It completes when all explicit memory accesses before this instruction complete.
 876:/home/phong/Documents/thesis/stm32f4/stm-idf/components/cmsis/include/cmsis_gcc.h ****  */
 877:/home/phong/Documents/thesis/stm32f4/stm-idf/components/cmsis/include/cmsis_gcc.h **** __STATIC_FORCEINLINE void __DSB(void)
 878:/home/phong/Documents/thesis/stm32f4/stm-idf/components/cmsis/include/cmsis_gcc.h **** {
 879:/home/phong/Documents/thesis/stm32f4/stm-idf/components/cmsis/include/cmsis_gcc.h ****   __ASM volatile ("dsb 0xF":::"memory");
 883              		.loc 2 879 0
 884              		.syntax unified
 885              	@ 879 "/home/phong/Documents/thesis/stm32f4/stm-idf/components/cmsis/include/cmsis_gcc.h" 1
 886 00c2 BFF34F8F 		dsb 0xF
 887              	@ 0 "" 2
 888              		.thumb
 889              		.syntax unified
 890 00c6 05E0     		b	.L84
 891              	.LVL65:
 892              	.L85:
ARM GAS  /tmp/ccM6uMDT.s 			page 63


 893              	.LBE15:
 894              	.LBE14:
 636:/home/phong/Documents/thesis/stm32f4/stm-idf/components/stm32f4xx_hal_driver/stm32f4xx_hal_nand.c ****     }
 895              		.loc 1 636 0 discriminator 2
 896 00c8 3378     		ldrb	r3, [r6]	@ zero_extendqisi2
 897 00ca 2370     		strb	r3, [r4]
 634:/home/phong/Documents/thesis/stm32f4/stm-idf/components/stm32f4xx_hal_driver/stm32f4xx_hal_nand.c ****     {
 898              		.loc 1 634 0 discriminator 2
 899 00cc 039B     		ldr	r3, [sp, #12]
 900 00ce 0133     		adds	r3, r3, #1
 901 00d0 0393     		str	r3, [sp, #12]
 636:/home/phong/Documents/thesis/stm32f4/stm-idf/components/stm32f4xx_hal_driver/stm32f4xx_hal_nand.c ****     }
 902              		.loc 1 636 0 discriminator 2
 903 00d2 0134     		adds	r4, r4, #1
 904              	.LVL66:
 905              	.L84:
 634:/home/phong/Documents/thesis/stm32f4/stm-idf/components/stm32f4xx_hal_driver/stm32f4xx_hal_nand.c ****     {
 906              		.loc 1 634 0 discriminator 1
 907 00d4 039B     		ldr	r3, [sp, #12]
 908 00d6 9D42     		cmp	r5, r3
 909 00d8 F6D8     		bhi	.L85
 910              	.LVL67:
 643:/home/phong/Documents/thesis/stm32f4/stm-idf/components/stm32f4xx_hal_driver/stm32f4xx_hal_nand.c ****     
 911              		.loc 1 643 0
 912 00da 09F1FF39 		add	r9, r9, #-1
 913              	.LVL68:
 646:/home/phong/Documents/thesis/stm32f4/stm-idf/components/stm32f4xx_hal_driver/stm32f4xx_hal_nand.c ****   }
 914              		.loc 1 646 0
 915 00de 08F10108 		add	r8, r8, #1
 916              	.LVL69:
 917              	.L76:
 567:/home/phong/Documents/thesis/stm32f4/stm-idf/components/stm32f4xx_hal_driver/stm32f4xx_hal_nand.c ****   {
 918              		.loc 1 567 0
 919 00e2 B9F1000F 		cmp	r9, #0
 920 00e6 3CD0     		beq	.L86
 567:/home/phong/Documents/thesis/stm32f4/stm-idf/components/stm32f4xx_hal_driver/stm32f4xx_hal_nand.c ****   {
 921              		.loc 1 567 0 is_stmt 0 discriminator 1
 922 00e8 FA6A     		ldr	r2, [r7, #44]
 923 00ea 3B6B     		ldr	r3, [r7, #48]
 924 00ec 03FB02F3 		mul	r3, r3, r2
 925 00f0 9845     		cmp	r8, r3
 926 00f2 36D2     		bcs	.L86
 570:/home/phong/Documents/thesis/stm32f4/stm-idf/components/stm32f4xx_hal_driver/stm32f4xx_hal_nand.c ****     
 927              		.loc 1 570 0 is_stmt 1
 928 00f4 0AF1010A 		add	r10, r10, #1
 929              	.LVL70:
 930 00f8 7D6A     		ldr	r5, [r7, #36]
 931 00fa 05FB0AF5 		mul	r5, r5, r10
 932              	.LVL71:
 573:/home/phong/Documents/thesis/stm32f4/stm-idf/components/stm32f4xx_hal_driver/stm32f4xx_hal_nand.c ****    
 933              		.loc 1 573 0
 934 00fe 46F4803B 		orr	fp, r6, #65536
 935 0102 0023     		movs	r3, #0
 936 0104 8BF80030 		strb	r3, [fp]
 576:/home/phong/Documents/thesis/stm32f4/stm-idf/components/stm32f4xx_hal_driver/stm32f4xx_hal_nand.c ****     {
 937              		.loc 1 576 0
 938 0108 7B6A     		ldr	r3, [r7, #36]
ARM GAS  /tmp/ccM6uMDT.s 			page 64


 939 010a B3F5007F 		cmp	r3, #512
 940 010e B3D8     		bhi	.L77
 578:/home/phong/Documents/thesis/stm32f4/stm-idf/components/stm32f4xx_hal_driver/stm32f4xx_hal_nand.c ****       {
 941              		.loc 1 578 0
 942 0110 FA6A     		ldr	r2, [r7, #44]
 943 0112 3B6B     		ldr	r3, [r7, #48]
 944 0114 03FB02F3 		mul	r3, r3, r2
 945 0118 B3F5803F 		cmp	r3, #65536
 946 011c 9ED2     		bcs	.L78
 580:/home/phong/Documents/thesis/stm32f4/stm-idf/components/stm32f4xx_hal_driver/stm32f4xx_hal_nand.c ****         *(__IO uint8_t *)((uint32_t)(deviceaddress | ADDR_AREA)) = ADDR_1ST_CYCLE(nandaddress);
 947              		.loc 1 580 0
 948 011e 46F40033 		orr	r3, r6, #131072
 949 0122 0022     		movs	r2, #0
 950 0124 1A70     		strb	r2, [r3]
 581:/home/phong/Documents/thesis/stm32f4/stm-idf/components/stm32f4xx_hal_driver/stm32f4xx_hal_nand.c ****         *(__IO uint8_t *)((uint32_t)(deviceaddress | ADDR_AREA)) = ADDR_2ND_CYCLE(nandaddress);
 951              		.loc 1 581 0
 952 0126 5FFA88F2 		uxtb	r2, r8
 953 012a 1A70     		strb	r2, [r3]
 582:/home/phong/Documents/thesis/stm32f4/stm-idf/components/stm32f4xx_hal_driver/stm32f4xx_hal_nand.c ****       }
 954              		.loc 1 582 0
 955 012c C8F30722 		ubfx	r2, r8, #8, #8
 956 0130 1A70     		strb	r2, [r3]
 957              	.L79:
 611:/home/phong/Documents/thesis/stm32f4/stm-idf/components/stm32f4xx_hal_driver/stm32f4xx_hal_nand.c ****       
 958              		.loc 1 611 0
 959 0132 3023     		movs	r3, #48
 960 0134 8BF80030 		strb	r3, [fp]
 614:/home/phong/Documents/thesis/stm32f4/stm-idf/components/stm32f4xx_hal_driver/stm32f4xx_hal_nand.c ****     {
 961              		.loc 1 614 0
 962 0138 97F83C30 		ldrb	r3, [r7, #60]	@ zero_extendqisi2
 963 013c 012B     		cmp	r3, #1
 964 013e C9D1     		bne	.L84
 617:/home/phong/Documents/thesis/stm32f4/stm-idf/components/stm32f4xx_hal_driver/stm32f4xx_hal_nand.c ****       
 965              		.loc 1 617 0
 966 0140 FFF7FEFF 		bl	HAL_GetTick
 967              	.LVL72:
 968 0144 0190     		str	r0, [sp, #4]
 969              	.LVL73:
 970              	.L82:
 620:/home/phong/Documents/thesis/stm32f4/stm-idf/components/stm32f4xx_hal_driver/stm32f4xx_hal_nand.c ****       {
 971              		.loc 1 620 0
 972 0146 3846     		mov	r0, r7
 973 0148 FFF7FEFF 		bl	HAL_NAND_Read_Status
 974              	.LVL74:
 975 014c 4028     		cmp	r0, #64
 976 014e B5D0     		beq	.L94
 622:/home/phong/Documents/thesis/stm32f4/stm-idf/components/stm32f4xx_hal_driver/stm32f4xx_hal_nand.c ****         {
 977              		.loc 1 622 0
 978 0150 FFF7FEFF 		bl	HAL_GetTick
 979              	.LVL75:
 980 0154 019B     		ldr	r3, [sp, #4]
 981 0156 C01A     		subs	r0, r0, r3
 982 0158 B0F1807F 		cmp	r0, #16777216
 983 015c F3D9     		bls	.L82
 624:/home/phong/Documents/thesis/stm32f4/stm-idf/components/stm32f4xx_hal_driver/stm32f4xx_hal_nand.c ****         }
 984              		.loc 1 624 0
 985 015e 0320     		movs	r0, #3
ARM GAS  /tmp/ccM6uMDT.s 			page 65


 986 0160 07E0     		b	.L74
 987              	.LVL76:
 988              	.L86:
 650:/home/phong/Documents/thesis/stm32f4/stm-idf/components/stm32f4xx_hal_driver/stm32f4xx_hal_nand.c ****   
 989              		.loc 1 650 0
 990 0162 0123     		movs	r3, #1
 991 0164 87F82130 		strb	r3, [r7, #33]
 653:/home/phong/Documents/thesis/stm32f4/stm-idf/components/stm32f4xx_hal_driver/stm32f4xx_hal_nand.c **** 
 992              		.loc 1 653 0
 993 0168 0020     		movs	r0, #0
 994 016a 87F82000 		strb	r0, [r7, #32]
 655:/home/phong/Documents/thesis/stm32f4/stm-idf/components/stm32f4xx_hal_driver/stm32f4xx_hal_nand.c **** }
 995              		.loc 1 655 0
 996 016e 00E0     		b	.L74
 997              	.LVL77:
 998              	.L88:
 542:/home/phong/Documents/thesis/stm32f4/stm-idf/components/stm32f4xx_hal_driver/stm32f4xx_hal_nand.c ****   
 999              		.loc 1 542 0
 1000 0170 0220     		movs	r0, #2
 1001              	.LVL78:
 1002              	.L74:
 656:/home/phong/Documents/thesis/stm32f4/stm-idf/components/stm32f4xx_hal_driver/stm32f4xx_hal_nand.c **** 
 1003              		.loc 1 656 0
 1004 0172 05B0     		add	sp, sp, #20
 1005              	.LCFI11:
 1006              		.cfi_remember_state
 1007              		.cfi_def_cfa_offset 36
 1008              		@ sp needed
 1009 0174 BDE8F08F 		pop	{r4, r5, r6, r7, r8, r9, r10, fp, pc}
 1010              	.LVL79:
 1011              	.L89:
 1012              	.LCFI12:
 1013              		.cfi_restore_state
 547:/home/phong/Documents/thesis/stm32f4/stm-idf/components/stm32f4xx_hal_driver/stm32f4xx_hal_nand.c ****   }
 1014              		.loc 1 547 0
 1015 0178 0220     		movs	r0, #2
 1016              	.LVL80:
 1017 017a FAE7     		b	.L74
 1018              		.cfi_endproc
 1019              	.LFE139:
 1021              		.section	.text.HAL_NAND_Read_Page_16b,"ax",%progbits
 1022              		.align	1
 1023              		.global	HAL_NAND_Read_Page_16b
 1024              		.syntax unified
 1025              		.thumb
 1026              		.thumb_func
 1027              		.fpu fpv4-sp-d16
 1029              	HAL_NAND_Read_Page_16b:
 1030              	.LFB140:
 668:/home/phong/Documents/thesis/stm32f4/stm-idf/components/stm32f4xx_hal_driver/stm32f4xx_hal_nand.c ****   __IO uint32_t index  = 0U;
 1031              		.loc 1 668 0
 1032              		.cfi_startproc
 1033              		@ args = 0, pretend = 0, frame = 16
 1034              		@ frame_needed = 0, uses_anonymous_args = 0
 1035              	.LVL81:
 1036 0000 2DE9F04F 		push	{r4, r5, r6, r7, r8, r9, r10, fp, lr}
 1037              	.LCFI13:
ARM GAS  /tmp/ccM6uMDT.s 			page 66


 1038              		.cfi_def_cfa_offset 36
 1039              		.cfi_offset 4, -36
 1040              		.cfi_offset 5, -32
 1041              		.cfi_offset 6, -28
 1042              		.cfi_offset 7, -24
 1043              		.cfi_offset 8, -20
 1044              		.cfi_offset 9, -16
 1045              		.cfi_offset 10, -12
 1046              		.cfi_offset 11, -8
 1047              		.cfi_offset 14, -4
 1048 0004 85B0     		sub	sp, sp, #20
 1049              	.LCFI14:
 1050              		.cfi_def_cfa_offset 56
 1051 0006 9946     		mov	r9, r3
 669:/home/phong/Documents/thesis/stm32f4/stm-idf/components/stm32f4xx_hal_driver/stm32f4xx_hal_nand.c ****   uint32_t tickstart = 0U;
 1052              		.loc 1 669 0
 1053 0008 0023     		movs	r3, #0
 1054              	.LVL82:
 1055 000a 0393     		str	r3, [sp, #12]
 1056              	.LVL83:
 674:/home/phong/Documents/thesis/stm32f4/stm-idf/components/stm32f4xx_hal_driver/stm32f4xx_hal_nand.c ****   
 1057              		.loc 1 674 0
 1058 000c 90F82030 		ldrb	r3, [r0, #32]	@ zero_extendqisi2
 1059 0010 012B     		cmp	r3, #1
 1060 0012 00F0AD80 		beq	.L110
 1061 0016 0746     		mov	r7, r0
 1062 0018 1446     		mov	r4, r2
 674:/home/phong/Documents/thesis/stm32f4/stm-idf/components/stm32f4xx_hal_driver/stm32f4xx_hal_nand.c ****   
 1063              		.loc 1 674 0 is_stmt 0 discriminator 2
 1064 001a 0123     		movs	r3, #1
 1065 001c 80F82030 		strb	r3, [r0, #32]
 677:/home/phong/Documents/thesis/stm32f4/stm-idf/components/stm32f4xx_hal_driver/stm32f4xx_hal_nand.c ****   {
 1066              		.loc 1 677 0 is_stmt 1 discriminator 2
 1067 0020 90F82130 		ldrb	r3, [r0, #33]	@ zero_extendqisi2
 1068 0024 DBB2     		uxtb	r3, r3
 1069 0026 022B     		cmp	r3, #2
 1070 0028 00F0A680 		beq	.L111
 683:/home/phong/Documents/thesis/stm32f4/stm-idf/components/stm32f4xx_hal_driver/stm32f4xx_hal_nand.c ****   {
 1071              		.loc 1 683 0
 1072 002c 4368     		ldr	r3, [r0, #4]
 1073 002e 102B     		cmp	r3, #16
 1074 0030 11D0     		beq	.L115
 689:/home/phong/Documents/thesis/stm32f4/stm-idf/components/stm32f4xx_hal_driver/stm32f4xx_hal_nand.c ****   }
 1075              		.loc 1 689 0
 1076 0032 4FF00046 		mov	r6, #-2147483648
 1077              	.L97:
 1078              	.LVL84:
 693:/home/phong/Documents/thesis/stm32f4/stm-idf/components/stm32f4xx_hal_driver/stm32f4xx_hal_nand.c ****   
 1079              		.loc 1 693 0
 1080 0036 0223     		movs	r3, #2
 1081 0038 87F82130 		strb	r3, [r7, #33]
 696:/home/phong/Documents/thesis/stm32f4/stm-idf/components/stm32f4xx_hal_driver/stm32f4xx_hal_nand.c ****   
 1082              		.loc 1 696 0
 1083 003c 0B88     		ldrh	r3, [r1]
 1084 003e 8A88     		ldrh	r2, [r1, #4]
 1085              	.LVL85:
 1086 0040 B1F80280 		ldrh	r8, [r1, #2]
ARM GAS  /tmp/ccM6uMDT.s 			page 67


 1087 0044 B96B     		ldr	r1, [r7, #56]
 1088              	.LVL86:
 1089 0046 01FB0828 		mla	r8, r1, r8, r2
 1090 004a FA6A     		ldr	r2, [r7, #44]
 1091 004c 02FB0838 		mla	r8, r2, r8, r3
 1092              	.LVL87:
 671:/home/phong/Documents/thesis/stm32f4/stm-idf/components/stm32f4xx_hal_driver/stm32f4xx_hal_nand.c ****   
 1093              		.loc 1 671 0
 1094 0050 4FF0000A 		mov	r10, #0
 699:/home/phong/Documents/thesis/stm32f4/stm-idf/components/stm32f4xx_hal_driver/stm32f4xx_hal_nand.c ****   {
 1095              		.loc 1 699 0
 1096 0054 43E0     		b	.L98
 1097              	.LVL88:
 1098              	.L115:
 685:/home/phong/Documents/thesis/stm32f4/stm-idf/components/stm32f4xx_hal_driver/stm32f4xx_hal_nand.c ****   }
 1099              		.loc 1 685 0
 1100 0056 4FF0E046 		mov	r6, #1879048192
 1101 005a ECE7     		b	.L97
 1102              	.LVL89:
 1103              	.L100:
 719:/home/phong/Documents/thesis/stm32f4/stm-idf/components/stm32f4xx_hal_driver/stm32f4xx_hal_nand.c ****         *(__IO uint8_t *)((uint32_t)(deviceaddress | ADDR_AREA)) = ADDR_1ST_CYCLE(nandaddress);
 1104              		.loc 1 719 0
 1105 005c 46F40033 		orr	r3, r6, #131072
 1106 0060 0022     		movs	r2, #0
 1107 0062 1A70     		strb	r2, [r3]
 720:/home/phong/Documents/thesis/stm32f4/stm-idf/components/stm32f4xx_hal_driver/stm32f4xx_hal_nand.c ****         *(__IO uint8_t *)((uint32_t)(deviceaddress | ADDR_AREA)) = ADDR_2ND_CYCLE(nandaddress);
 1108              		.loc 1 720 0
 1109 0064 5FFA88F2 		uxtb	r2, r8
 1110 0068 1A70     		strb	r2, [r3]
 721:/home/phong/Documents/thesis/stm32f4/stm-idf/components/stm32f4xx_hal_driver/stm32f4xx_hal_nand.c ****         *(__IO uint8_t *)((uint32_t)(deviceaddress | ADDR_AREA)) = ADDR_3RD_CYCLE(nandaddress);
 1111              		.loc 1 721 0
 1112 006a C8F30722 		ubfx	r2, r8, #8, #8
 1113 006e 1A70     		strb	r2, [r3]
 722:/home/phong/Documents/thesis/stm32f4/stm-idf/components/stm32f4xx_hal_driver/stm32f4xx_hal_nand.c ****       }
 1114              		.loc 1 722 0
 1115 0070 C8F30742 		ubfx	r2, r8, #16, #8
 1116 0074 1A70     		strb	r2, [r3]
 1117 0076 5CE0     		b	.L101
 1118              	.L99:
 727:/home/phong/Documents/thesis/stm32f4/stm-idf/components/stm32f4xx_hal_driver/stm32f4xx_hal_nand.c ****       {
 1119              		.loc 1 727 0
 1120 0078 FA6A     		ldr	r2, [r7, #44]
 1121 007a 3B6B     		ldr	r3, [r7, #48]
 1122 007c 03FB02F3 		mul	r3, r3, r2
 1123 0080 B3F5803F 		cmp	r3, #65536
 1124 0084 0BD2     		bcs	.L102
 729:/home/phong/Documents/thesis/stm32f4/stm-idf/components/stm32f4xx_hal_driver/stm32f4xx_hal_nand.c ****         *(__IO uint8_t *)((uint32_t)(deviceaddress | ADDR_AREA)) = 0x00;
 1125              		.loc 1 729 0
 1126 0086 46F40033 		orr	r3, r6, #131072
 1127 008a 0022     		movs	r2, #0
 1128 008c 1A70     		strb	r2, [r3]
 730:/home/phong/Documents/thesis/stm32f4/stm-idf/components/stm32f4xx_hal_driver/stm32f4xx_hal_nand.c ****         *(__IO uint8_t *)((uint32_t)(deviceaddress | ADDR_AREA)) = ADDR_1ST_CYCLE(nandaddress);
 1129              		.loc 1 730 0
 1130 008e 1A70     		strb	r2, [r3]
 731:/home/phong/Documents/thesis/stm32f4/stm-idf/components/stm32f4xx_hal_driver/stm32f4xx_hal_nand.c ****         *(__IO uint8_t *)((uint32_t)(deviceaddress | ADDR_AREA)) = ADDR_2ND_CYCLE(nandaddress);
 1131              		.loc 1 731 0
 1132 0090 5FFA88F2 		uxtb	r2, r8
ARM GAS  /tmp/ccM6uMDT.s 			page 68


 1133 0094 1A70     		strb	r2, [r3]
 732:/home/phong/Documents/thesis/stm32f4/stm-idf/components/stm32f4xx_hal_driver/stm32f4xx_hal_nand.c ****       }
 1134              		.loc 1 732 0
 1135 0096 C8F30722 		ubfx	r2, r8, #8, #8
 1136 009a 1A70     		strb	r2, [r3]
 1137 009c 49E0     		b	.L101
 1138              	.L102:
 736:/home/phong/Documents/thesis/stm32f4/stm-idf/components/stm32f4xx_hal_driver/stm32f4xx_hal_nand.c ****         *(__IO uint8_t *)((uint32_t)(deviceaddress | ADDR_AREA)) = 0x00;
 1139              		.loc 1 736 0
 1140 009e 46F40033 		orr	r3, r6, #131072
 1141 00a2 0022     		movs	r2, #0
 1142 00a4 1A70     		strb	r2, [r3]
 737:/home/phong/Documents/thesis/stm32f4/stm-idf/components/stm32f4xx_hal_driver/stm32f4xx_hal_nand.c ****         *(__IO uint8_t *)((uint32_t)(deviceaddress | ADDR_AREA)) = ADDR_1ST_CYCLE(nandaddress);
 1143              		.loc 1 737 0
 1144 00a6 1A70     		strb	r2, [r3]
 738:/home/phong/Documents/thesis/stm32f4/stm-idf/components/stm32f4xx_hal_driver/stm32f4xx_hal_nand.c ****         *(__IO uint8_t *)((uint32_t)(deviceaddress | ADDR_AREA)) = ADDR_2ND_CYCLE(nandaddress);
 1145              		.loc 1 738 0
 1146 00a8 5FFA88F2 		uxtb	r2, r8
 1147 00ac 1A70     		strb	r2, [r3]
 739:/home/phong/Documents/thesis/stm32f4/stm-idf/components/stm32f4xx_hal_driver/stm32f4xx_hal_nand.c ****         *(__IO uint8_t *)((uint32_t)(deviceaddress | ADDR_AREA)) = ADDR_3RD_CYCLE(nandaddress);
 1148              		.loc 1 739 0
 1149 00ae C8F30722 		ubfx	r2, r8, #8, #8
 1150 00b2 1A70     		strb	r2, [r3]
 740:/home/phong/Documents/thesis/stm32f4/stm-idf/components/stm32f4xx_hal_driver/stm32f4xx_hal_nand.c ****       }
 1151              		.loc 1 740 0
 1152 00b4 C8F30742 		ubfx	r2, r8, #16, #8
 1153 00b8 1A70     		strb	r2, [r3]
 1154 00ba 3AE0     		b	.L101
 1155              	.LVL90:
 1156              	.L116:
 761:/home/phong/Documents/thesis/stm32f4/stm-idf/components/stm32f4xx_hal_driver/stm32f4xx_hal_nand.c ****     }
 1157              		.loc 1 761 0
 1158 00bc 0023     		movs	r3, #0
 1159 00be 8BF80030 		strb	r3, [fp]
 1160 00c2 05E0     		b	.L106
 1161              	.LVL91:
 1162              	.L107:
 767:/home/phong/Documents/thesis/stm32f4/stm-idf/components/stm32f4xx_hal_driver/stm32f4xx_hal_nand.c ****     }
 1163              		.loc 1 767 0 discriminator 2
 1164 00c4 3388     		ldrh	r3, [r6]
 1165 00c6 2380     		strh	r3, [r4]	@ movhi
 765:/home/phong/Documents/thesis/stm32f4/stm-idf/components/stm32f4xx_hal_driver/stm32f4xx_hal_nand.c ****     {
 1166              		.loc 1 765 0 discriminator 2
 1167 00c8 039B     		ldr	r3, [sp, #12]
 1168 00ca 0133     		adds	r3, r3, #1
 1169 00cc 0393     		str	r3, [sp, #12]
 767:/home/phong/Documents/thesis/stm32f4/stm-idf/components/stm32f4xx_hal_driver/stm32f4xx_hal_nand.c ****     }
 1170              		.loc 1 767 0 discriminator 2
 1171 00ce 0234     		adds	r4, r4, #2
 1172              	.LVL92:
 1173              	.L106:
 765:/home/phong/Documents/thesis/stm32f4/stm-idf/components/stm32f4xx_hal_driver/stm32f4xx_hal_nand.c ****     {
 1174              		.loc 1 765 0 discriminator 1
 1175 00d0 039B     		ldr	r3, [sp, #12]
 1176 00d2 9D42     		cmp	r5, r3
 1177 00d4 F6D8     		bhi	.L107
 1178              	.LVL93:
ARM GAS  /tmp/ccM6uMDT.s 			page 69


 774:/home/phong/Documents/thesis/stm32f4/stm-idf/components/stm32f4xx_hal_driver/stm32f4xx_hal_nand.c ****     
 1179              		.loc 1 774 0
 1180 00d6 09F1FF39 		add	r9, r9, #-1
 1181              	.LVL94:
 777:/home/phong/Documents/thesis/stm32f4/stm-idf/components/stm32f4xx_hal_driver/stm32f4xx_hal_nand.c ****   }
 1182              		.loc 1 777 0
 1183 00da 08F10108 		add	r8, r8, #1
 1184              	.LVL95:
 1185              	.L98:
 699:/home/phong/Documents/thesis/stm32f4/stm-idf/components/stm32f4xx_hal_driver/stm32f4xx_hal_nand.c ****   {
 1186              		.loc 1 699 0
 1187 00de B9F1000F 		cmp	r9, #0
 1188 00e2 3ED0     		beq	.L108
 699:/home/phong/Documents/thesis/stm32f4/stm-idf/components/stm32f4xx_hal_driver/stm32f4xx_hal_nand.c ****   {
 1189              		.loc 1 699 0 is_stmt 0 discriminator 1
 1190 00e4 FA6A     		ldr	r2, [r7, #44]
 1191 00e6 3B6B     		ldr	r3, [r7, #48]
 1192 00e8 03FB02F3 		mul	r3, r3, r2
 1193 00ec 9845     		cmp	r8, r3
 1194 00ee 38D2     		bcs	.L108
 702:/home/phong/Documents/thesis/stm32f4/stm-idf/components/stm32f4xx_hal_driver/stm32f4xx_hal_nand.c ****     
 1195              		.loc 1 702 0 is_stmt 1
 1196 00f0 0AF1010A 		add	r10, r10, #1
 1197              	.LVL96:
 1198 00f4 7D6A     		ldr	r5, [r7, #36]
 1199 00f6 05FB0AF5 		mul	r5, r5, r10
 1200              	.LVL97:
 705:/home/phong/Documents/thesis/stm32f4/stm-idf/components/stm32f4xx_hal_driver/stm32f4xx_hal_nand.c ****     __DSB();
 1201              		.loc 1 705 0
 1202 00fa 46F4803B 		orr	fp, r6, #65536
 1203 00fe 0023     		movs	r3, #0
 1204 0100 8BF80030 		strb	r3, [fp]
 1205              	.LBB16:
 1206              	.LBB17:
 1207              		.loc 2 879 0
 1208              		.syntax unified
 1209              	@ 879 "/home/phong/Documents/thesis/stm32f4/stm-idf/components/cmsis/include/cmsis_gcc.h" 1
 1210 0104 BFF34F8F 		dsb 0xF
 1211              	@ 0 "" 2
 1212              		.thumb
 1213              		.syntax unified
 1214              	.LBE17:
 1215              	.LBE16:
 709:/home/phong/Documents/thesis/stm32f4/stm-idf/components/stm32f4xx_hal_driver/stm32f4xx_hal_nand.c ****     {
 1216              		.loc 1 709 0
 1217 0108 7B6A     		ldr	r3, [r7, #36]
 1218 010a B3F5007F 		cmp	r3, #512
 1219 010e B3D8     		bhi	.L99
 711:/home/phong/Documents/thesis/stm32f4/stm-idf/components/stm32f4xx_hal_driver/stm32f4xx_hal_nand.c ****       {
 1220              		.loc 1 711 0
 1221 0110 FA6A     		ldr	r2, [r7, #44]
 1222 0112 3B6B     		ldr	r3, [r7, #48]
 1223 0114 03FB02F3 		mul	r3, r3, r2
 1224 0118 B3F5803F 		cmp	r3, #65536
 1225 011c 9ED2     		bcs	.L100
 713:/home/phong/Documents/thesis/stm32f4/stm-idf/components/stm32f4xx_hal_driver/stm32f4xx_hal_nand.c ****         *(__IO uint8_t *)((uint32_t)(deviceaddress | ADDR_AREA)) = ADDR_1ST_CYCLE(nandaddress);
 1226              		.loc 1 713 0
ARM GAS  /tmp/ccM6uMDT.s 			page 70


 1227 011e 46F40033 		orr	r3, r6, #131072
 1228 0122 0022     		movs	r2, #0
 1229 0124 1A70     		strb	r2, [r3]
 714:/home/phong/Documents/thesis/stm32f4/stm-idf/components/stm32f4xx_hal_driver/stm32f4xx_hal_nand.c ****         *(__IO uint8_t *)((uint32_t)(deviceaddress | ADDR_AREA)) = ADDR_2ND_CYCLE(nandaddress);
 1230              		.loc 1 714 0
 1231 0126 5FFA88F2 		uxtb	r2, r8
 1232 012a 1A70     		strb	r2, [r3]
 715:/home/phong/Documents/thesis/stm32f4/stm-idf/components/stm32f4xx_hal_driver/stm32f4xx_hal_nand.c ****       }
 1233              		.loc 1 715 0
 1234 012c C8F30722 		ubfx	r2, r8, #8, #8
 1235 0130 1A70     		strb	r2, [r3]
 1236              	.L101:
 744:/home/phong/Documents/thesis/stm32f4/stm-idf/components/stm32f4xx_hal_driver/stm32f4xx_hal_nand.c ****     
 1237              		.loc 1 744 0
 1238 0132 3023     		movs	r3, #48
 1239 0134 8BF80030 		strb	r3, [fp]
 746:/home/phong/Documents/thesis/stm32f4/stm-idf/components/stm32f4xx_hal_driver/stm32f4xx_hal_nand.c ****     {
 1240              		.loc 1 746 0
 1241 0138 97F83C30 		ldrb	r3, [r7, #60]	@ zero_extendqisi2
 1242 013c 012B     		cmp	r3, #1
 1243 013e C7D1     		bne	.L106
 749:/home/phong/Documents/thesis/stm32f4/stm-idf/components/stm32f4xx_hal_driver/stm32f4xx_hal_nand.c ****       
 1244              		.loc 1 749 0
 1245 0140 FFF7FEFF 		bl	HAL_GetTick
 1246              	.LVL98:
 1247 0144 0190     		str	r0, [sp, #4]
 1248              	.LVL99:
 1249              	.L104:
 752:/home/phong/Documents/thesis/stm32f4/stm-idf/components/stm32f4xx_hal_driver/stm32f4xx_hal_nand.c ****       {
 1250              		.loc 1 752 0
 1251 0146 3846     		mov	r0, r7
 1252 0148 FFF7FEFF 		bl	HAL_NAND_Read_Status
 1253              	.LVL100:
 1254 014c 4028     		cmp	r0, #64
 1255 014e B5D0     		beq	.L116
 754:/home/phong/Documents/thesis/stm32f4/stm-idf/components/stm32f4xx_hal_driver/stm32f4xx_hal_nand.c ****         {
 1256              		.loc 1 754 0
 1257 0150 FFF7FEFF 		bl	HAL_GetTick
 1258              	.LVL101:
 1259 0154 019B     		ldr	r3, [sp, #4]
 1260 0156 C01A     		subs	r0, r0, r3
 1261 0158 B0F1807F 		cmp	r0, #16777216
 1262 015c F3D9     		bls	.L104
 756:/home/phong/Documents/thesis/stm32f4/stm-idf/components/stm32f4xx_hal_driver/stm32f4xx_hal_nand.c ****         }
 1263              		.loc 1 756 0
 1264 015e 0320     		movs	r0, #3
 1265 0160 07E0     		b	.L96
 1266              	.LVL102:
 1267              	.L108:
 781:/home/phong/Documents/thesis/stm32f4/stm-idf/components/stm32f4xx_hal_driver/stm32f4xx_hal_nand.c ****   
 1268              		.loc 1 781 0
 1269 0162 0123     		movs	r3, #1
 1270 0164 87F82130 		strb	r3, [r7, #33]
 784:/home/phong/Documents/thesis/stm32f4/stm-idf/components/stm32f4xx_hal_driver/stm32f4xx_hal_nand.c ****     
 1271              		.loc 1 784 0
 1272 0168 0020     		movs	r0, #0
 1273 016a 87F82000 		strb	r0, [r7, #32]
ARM GAS  /tmp/ccM6uMDT.s 			page 71


 786:/home/phong/Documents/thesis/stm32f4/stm-idf/components/stm32f4xx_hal_driver/stm32f4xx_hal_nand.c **** }
 1274              		.loc 1 786 0
 1275 016e 00E0     		b	.L96
 1276              	.LVL103:
 1277              	.L110:
 674:/home/phong/Documents/thesis/stm32f4/stm-idf/components/stm32f4xx_hal_driver/stm32f4xx_hal_nand.c ****   
 1278              		.loc 1 674 0
 1279 0170 0220     		movs	r0, #2
 1280              	.LVL104:
 1281              	.L96:
 787:/home/phong/Documents/thesis/stm32f4/stm-idf/components/stm32f4xx_hal_driver/stm32f4xx_hal_nand.c **** 
 1282              		.loc 1 787 0
 1283 0172 05B0     		add	sp, sp, #20
 1284              	.LCFI15:
 1285              		.cfi_remember_state
 1286              		.cfi_def_cfa_offset 36
 1287              		@ sp needed
 1288 0174 BDE8F08F 		pop	{r4, r5, r6, r7, r8, r9, r10, fp, pc}
 1289              	.LVL105:
 1290              	.L111:
 1291              	.LCFI16:
 1292              		.cfi_restore_state
 679:/home/phong/Documents/thesis/stm32f4/stm-idf/components/stm32f4xx_hal_driver/stm32f4xx_hal_nand.c ****   }
 1293              		.loc 1 679 0
 1294 0178 0220     		movs	r0, #2
 1295              	.LVL106:
 1296 017a FAE7     		b	.L96
 1297              		.cfi_endproc
 1298              	.LFE140:
 1300              		.section	.text.HAL_NAND_Write_Page_8b,"ax",%progbits
 1301              		.align	1
 1302              		.global	HAL_NAND_Write_Page_8b
 1303              		.syntax unified
 1304              		.thumb
 1305              		.thumb_func
 1306              		.fpu fpv4-sp-d16
 1308              	HAL_NAND_Write_Page_8b:
 1309              	.LFB141:
 799:/home/phong/Documents/thesis/stm32f4/stm-idf/components/stm32f4xx_hal_driver/stm32f4xx_hal_nand.c ****   __IO uint32_t index = 0U;
 1310              		.loc 1 799 0
 1311              		.cfi_startproc
 1312              		@ args = 0, pretend = 0, frame = 8
 1313              		@ frame_needed = 0, uses_anonymous_args = 0
 1314              	.LVL107:
 1315 0000 2DE9F047 		push	{r4, r5, r6, r7, r8, r9, r10, lr}
 1316              	.LCFI17:
 1317              		.cfi_def_cfa_offset 32
 1318              		.cfi_offset 4, -32
 1319              		.cfi_offset 5, -28
 1320              		.cfi_offset 6, -24
 1321              		.cfi_offset 7, -20
 1322              		.cfi_offset 8, -16
 1323              		.cfi_offset 9, -12
 1324              		.cfi_offset 10, -8
 1325              		.cfi_offset 14, -4
 1326 0004 82B0     		sub	sp, sp, #8
 1327              	.LCFI18:
ARM GAS  /tmp/ccM6uMDT.s 			page 72


 1328              		.cfi_def_cfa_offset 40
 1329 0006 9846     		mov	r8, r3
 800:/home/phong/Documents/thesis/stm32f4/stm-idf/components/stm32f4xx_hal_driver/stm32f4xx_hal_nand.c ****   uint32_t tickstart = 0U;
 1330              		.loc 1 800 0
 1331 0008 0023     		movs	r3, #0
 1332              	.LVL108:
 1333 000a 0193     		str	r3, [sp, #4]
 1334              	.LVL109:
 805:/home/phong/Documents/thesis/stm32f4/stm-idf/components/stm32f4xx_hal_driver/stm32f4xx_hal_nand.c **** 
 1335              		.loc 1 805 0
 1336 000c 90F82030 		ldrb	r3, [r0, #32]	@ zero_extendqisi2
 1337 0010 012B     		cmp	r3, #1
 1338 0012 00F0A280 		beq	.L131
 1339 0016 0546     		mov	r5, r0
 1340 0018 1446     		mov	r4, r2
 805:/home/phong/Documents/thesis/stm32f4/stm-idf/components/stm32f4xx_hal_driver/stm32f4xx_hal_nand.c **** 
 1341              		.loc 1 805 0 is_stmt 0 discriminator 2
 1342 001a 0123     		movs	r3, #1
 1343 001c 80F82030 		strb	r3, [r0, #32]
 808:/home/phong/Documents/thesis/stm32f4/stm-idf/components/stm32f4xx_hal_driver/stm32f4xx_hal_nand.c ****   {
 1344              		.loc 1 808 0 is_stmt 1 discriminator 2
 1345 0020 90F82130 		ldrb	r3, [r0, #33]	@ zero_extendqisi2
 1346 0024 DBB2     		uxtb	r3, r3
 1347 0026 022B     		cmp	r3, #2
 1348 0028 00F09B80 		beq	.L132
 814:/home/phong/Documents/thesis/stm32f4/stm-idf/components/stm32f4xx_hal_driver/stm32f4xx_hal_nand.c ****   {
 1349              		.loc 1 814 0
 1350 002c 4368     		ldr	r3, [r0, #4]
 1351 002e 102B     		cmp	r3, #16
 1352 0030 38D0     		beq	.L136
 820:/home/phong/Documents/thesis/stm32f4/stm-idf/components/stm32f4xx_hal_driver/stm32f4xx_hal_nand.c ****   }
 1353              		.loc 1 820 0
 1354 0032 4FF00046 		mov	r6, #-2147483648
 1355              	.L119:
 1356              	.LVL110:
 824:/home/phong/Documents/thesis/stm32f4/stm-idf/components/stm32f4xx_hal_driver/stm32f4xx_hal_nand.c ****   
 1357              		.loc 1 824 0
 1358 0036 0223     		movs	r3, #2
 1359 0038 85F82130 		strb	r3, [r5, #33]
 827:/home/phong/Documents/thesis/stm32f4/stm-idf/components/stm32f4xx_hal_driver/stm32f4xx_hal_nand.c ****     
 1360              		.loc 1 827 0
 1361 003c 0B88     		ldrh	r3, [r1]
 1362 003e 8A88     		ldrh	r2, [r1, #4]
 1363              	.LVL111:
 1364 0040 4F88     		ldrh	r7, [r1, #2]
 1365 0042 A96B     		ldr	r1, [r5, #56]
 1366              	.LVL112:
 1367 0044 01FB0727 		mla	r7, r1, r7, r2
 1368 0048 EA6A     		ldr	r2, [r5, #44]
 1369 004a 02FB0737 		mla	r7, r2, r7, r3
 1370              	.LVL113:
 802:/home/phong/Documents/thesis/stm32f4/stm-idf/components/stm32f4xx_hal_driver/stm32f4xx_hal_nand.c ****   
 1371              		.loc 1 802 0
 1372 004e 4FF00009 		mov	r9, #0
 1373              	.LVL114:
 1374              	.L120:
 830:/home/phong/Documents/thesis/stm32f4/stm-idf/components/stm32f4xx_hal_driver/stm32f4xx_hal_nand.c ****   {
ARM GAS  /tmp/ccM6uMDT.s 			page 73


 1375              		.loc 1 830 0
 1376 0052 B8F1000F 		cmp	r8, #0
 1377 0056 79D0     		beq	.L129
 830:/home/phong/Documents/thesis/stm32f4/stm-idf/components/stm32f4xx_hal_driver/stm32f4xx_hal_nand.c ****   {
 1378              		.loc 1 830 0 is_stmt 0 discriminator 1
 1379 0058 EA6A     		ldr	r2, [r5, #44]
 1380 005a 2B6B     		ldr	r3, [r5, #48]
 1381 005c 03FB02F3 		mul	r3, r3, r2
 1382 0060 9F42     		cmp	r7, r3
 1383 0062 73D2     		bcs	.L129
 833:/home/phong/Documents/thesis/stm32f4/stm-idf/components/stm32f4xx_hal_driver/stm32f4xx_hal_nand.c ****     
 1384              		.loc 1 833 0 is_stmt 1
 1385 0064 09F10109 		add	r9, r9, #1
 1386              	.LVL115:
 1387 0068 6A6A     		ldr	r2, [r5, #36]
 1388 006a 02FB09F2 		mul	r2, r2, r9
 1389              	.LVL116:
 836:/home/phong/Documents/thesis/stm32f4/stm-idf/components/stm32f4xx_hal_driver/stm32f4xx_hal_nand.c ****     *(__IO uint8_t *)((uint32_t)(deviceaddress | CMD_AREA)) = NAND_CMD_WRITE0;
 1390              		.loc 1 836 0
 1391 006e 46F48031 		orr	r1, r6, #65536
 1392 0072 0023     		movs	r3, #0
 1393 0074 0B70     		strb	r3, [r1]
 837:/home/phong/Documents/thesis/stm32f4/stm-idf/components/stm32f4xx_hal_driver/stm32f4xx_hal_nand.c **** 
 1394              		.loc 1 837 0
 1395 0076 8023     		movs	r3, #128
 1396 0078 0B70     		strb	r3, [r1]
 840:/home/phong/Documents/thesis/stm32f4/stm-idf/components/stm32f4xx_hal_driver/stm32f4xx_hal_nand.c ****     {
 1397              		.loc 1 840 0
 1398 007a 6B6A     		ldr	r3, [r5, #36]
 1399 007c B3F5007F 		cmp	r3, #512
 1400 0080 20D8     		bhi	.L121
 842:/home/phong/Documents/thesis/stm32f4/stm-idf/components/stm32f4xx_hal_driver/stm32f4xx_hal_nand.c ****       {
 1401              		.loc 1 842 0
 1402 0082 E86A     		ldr	r0, [r5, #44]
 1403 0084 2B6B     		ldr	r3, [r5, #48]
 1404 0086 03FB00F3 		mul	r3, r3, r0
 1405 008a B3F5803F 		cmp	r3, #65536
 1406 008e 0CD2     		bcs	.L122
 844:/home/phong/Documents/thesis/stm32f4/stm-idf/components/stm32f4xx_hal_driver/stm32f4xx_hal_nand.c ****         *(__IO uint8_t *)((uint32_t)(deviceaddress | ADDR_AREA)) = ADDR_1ST_CYCLE(nandaddress);
 1407              		.loc 1 844 0
 1408 0090 46F40033 		orr	r3, r6, #131072
 1409 0094 0020     		movs	r0, #0
 1410 0096 1870     		strb	r0, [r3]
 845:/home/phong/Documents/thesis/stm32f4/stm-idf/components/stm32f4xx_hal_driver/stm32f4xx_hal_nand.c ****         *(__IO uint8_t *)((uint32_t)(deviceaddress | ADDR_AREA)) = ADDR_2ND_CYCLE(nandaddress);
 1411              		.loc 1 845 0
 1412 0098 F8B2     		uxtb	r0, r7
 1413 009a 1870     		strb	r0, [r3]
 846:/home/phong/Documents/thesis/stm32f4/stm-idf/components/stm32f4xx_hal_driver/stm32f4xx_hal_nand.c ****       }
 1414              		.loc 1 846 0
 1415 009c C7F30720 		ubfx	r0, r7, #8, #8
 1416 00a0 1870     		strb	r0, [r3]
 1417 00a2 39E0     		b	.L125
 1418              	.LVL117:
 1419              	.L136:
 816:/home/phong/Documents/thesis/stm32f4/stm-idf/components/stm32f4xx_hal_driver/stm32f4xx_hal_nand.c ****   }
 1420              		.loc 1 816 0
 1421 00a4 4FF0E046 		mov	r6, #1879048192
ARM GAS  /tmp/ccM6uMDT.s 			page 74


 1422 00a8 C5E7     		b	.L119
 1423              	.LVL118:
 1424              	.L122:
 850:/home/phong/Documents/thesis/stm32f4/stm-idf/components/stm32f4xx_hal_driver/stm32f4xx_hal_nand.c ****         *(__IO uint8_t *)((uint32_t)(deviceaddress | ADDR_AREA)) = ADDR_1ST_CYCLE(nandaddress);
 1425              		.loc 1 850 0
 1426 00aa 46F40033 		orr	r3, r6, #131072
 1427 00ae 0020     		movs	r0, #0
 1428 00b0 1870     		strb	r0, [r3]
 851:/home/phong/Documents/thesis/stm32f4/stm-idf/components/stm32f4xx_hal_driver/stm32f4xx_hal_nand.c ****         *(__IO uint8_t *)((uint32_t)(deviceaddress | ADDR_AREA)) = ADDR_2ND_CYCLE(nandaddress);
 1429              		.loc 1 851 0
 1430 00b2 F8B2     		uxtb	r0, r7
 1431 00b4 1870     		strb	r0, [r3]
 852:/home/phong/Documents/thesis/stm32f4/stm-idf/components/stm32f4xx_hal_driver/stm32f4xx_hal_nand.c ****         *(__IO uint8_t *)((uint32_t)(deviceaddress | ADDR_AREA)) = ADDR_3RD_CYCLE(nandaddress);
 1432              		.loc 1 852 0
 1433 00b6 C7F30720 		ubfx	r0, r7, #8, #8
 1434 00ba 1870     		strb	r0, [r3]
 853:/home/phong/Documents/thesis/stm32f4/stm-idf/components/stm32f4xx_hal_driver/stm32f4xx_hal_nand.c ****       }
 1435              		.loc 1 853 0
 1436 00bc C7F30740 		ubfx	r0, r7, #16, #8
 1437 00c0 1870     		strb	r0, [r3]
 1438 00c2 29E0     		b	.L125
 1439              	.L121:
 858:/home/phong/Documents/thesis/stm32f4/stm-idf/components/stm32f4xx_hal_driver/stm32f4xx_hal_nand.c ****       {
 1440              		.loc 1 858 0
 1441 00c4 E86A     		ldr	r0, [r5, #44]
 1442 00c6 2B6B     		ldr	r3, [r5, #48]
 1443 00c8 03FB00F3 		mul	r3, r3, r0
 1444 00cc B3F5803F 		cmp	r3, #65536
 1445 00d0 0AD2     		bcs	.L124
 860:/home/phong/Documents/thesis/stm32f4/stm-idf/components/stm32f4xx_hal_driver/stm32f4xx_hal_nand.c ****         *(__IO uint8_t *)((uint32_t)(deviceaddress | ADDR_AREA)) = 0x00;
 1446              		.loc 1 860 0
 1447 00d2 46F40033 		orr	r3, r6, #131072
 1448 00d6 0020     		movs	r0, #0
 1449 00d8 1870     		strb	r0, [r3]
 861:/home/phong/Documents/thesis/stm32f4/stm-idf/components/stm32f4xx_hal_driver/stm32f4xx_hal_nand.c ****         *(__IO uint8_t *)((uint32_t)(deviceaddress | ADDR_AREA)) = ADDR_1ST_CYCLE(nandaddress);
 1450              		.loc 1 861 0
 1451 00da 1870     		strb	r0, [r3]
 862:/home/phong/Documents/thesis/stm32f4/stm-idf/components/stm32f4xx_hal_driver/stm32f4xx_hal_nand.c ****         *(__IO uint8_t *)((uint32_t)(deviceaddress | ADDR_AREA)) = ADDR_2ND_CYCLE(nandaddress);
 1452              		.loc 1 862 0
 1453 00dc F8B2     		uxtb	r0, r7
 1454 00de 1870     		strb	r0, [r3]
 863:/home/phong/Documents/thesis/stm32f4/stm-idf/components/stm32f4xx_hal_driver/stm32f4xx_hal_nand.c ****       }
 1455              		.loc 1 863 0
 1456 00e0 C7F30720 		ubfx	r0, r7, #8, #8
 1457 00e4 1870     		strb	r0, [r3]
 1458 00e6 17E0     		b	.L125
 1459              	.L124:
 867:/home/phong/Documents/thesis/stm32f4/stm-idf/components/stm32f4xx_hal_driver/stm32f4xx_hal_nand.c ****         *(__IO uint8_t *)((uint32_t)(deviceaddress | ADDR_AREA)) = 0x00;
 1460              		.loc 1 867 0
 1461 00e8 46F40033 		orr	r3, r6, #131072
 1462 00ec 0020     		movs	r0, #0
 1463 00ee 1870     		strb	r0, [r3]
 868:/home/phong/Documents/thesis/stm32f4/stm-idf/components/stm32f4xx_hal_driver/stm32f4xx_hal_nand.c ****         *(__IO uint8_t *)((uint32_t)(deviceaddress | ADDR_AREA)) = ADDR_1ST_CYCLE(nandaddress);
 1464              		.loc 1 868 0
 1465 00f0 1870     		strb	r0, [r3]
 869:/home/phong/Documents/thesis/stm32f4/stm-idf/components/stm32f4xx_hal_driver/stm32f4xx_hal_nand.c ****         *(__IO uint8_t *)((uint32_t)(deviceaddress | ADDR_AREA)) = ADDR_2ND_CYCLE(nandaddress);
 1466              		.loc 1 869 0
ARM GAS  /tmp/ccM6uMDT.s 			page 75


 1467 00f2 F8B2     		uxtb	r0, r7
 1468 00f4 1870     		strb	r0, [r3]
 870:/home/phong/Documents/thesis/stm32f4/stm-idf/components/stm32f4xx_hal_driver/stm32f4xx_hal_nand.c ****         __DSB();
 1469              		.loc 1 870 0
 1470 00f6 C7F30720 		ubfx	r0, r7, #8, #8
 1471 00fa 1870     		strb	r0, [r3]
 1472              	.LBB18:
 1473              	.LBB19:
 1474              		.loc 2 879 0
 1475              		.syntax unified
 1476              	@ 879 "/home/phong/Documents/thesis/stm32f4/stm-idf/components/cmsis/include/cmsis_gcc.h" 1
 1477 00fc BFF34F8F 		dsb 0xF
 1478              	@ 0 "" 2
 1479              		.thumb
 1480              		.syntax unified
 1481              	.LBE19:
 1482              	.LBE18:
 872:/home/phong/Documents/thesis/stm32f4/stm-idf/components/stm32f4xx_hal_driver/stm32f4xx_hal_nand.c ****         __DSB();
 1483              		.loc 1 872 0
 1484 0100 C7F30740 		ubfx	r0, r7, #16, #8
 1485 0104 1870     		strb	r0, [r3]
 1486              	.LBB20:
 1487              	.LBB21:
 1488              		.loc 2 879 0
 1489              		.syntax unified
 1490              	@ 879 "/home/phong/Documents/thesis/stm32f4/stm-idf/components/cmsis/include/cmsis_gcc.h" 1
 1491 0106 BFF34F8F 		dsb 0xF
 1492              	@ 0 "" 2
 1493              		.thumb
 1494              		.syntax unified
 1495 010a 05E0     		b	.L125
 1496              	.L126:
 1497              	.LVL119:
 1498              	.LBE21:
 1499              	.LBE20:
 881:/home/phong/Documents/thesis/stm32f4/stm-idf/components/stm32f4xx_hal_driver/stm32f4xx_hal_nand.c ****     }
 1500              		.loc 1 881 0 discriminator 2
 1501 010c 2378     		ldrb	r3, [r4]	@ zero_extendqisi2
 1502 010e 3370     		strb	r3, [r6]
 879:/home/phong/Documents/thesis/stm32f4/stm-idf/components/stm32f4xx_hal_driver/stm32f4xx_hal_nand.c ****     {
 1503              		.loc 1 879 0 discriminator 2
 1504 0110 019B     		ldr	r3, [sp, #4]
 1505 0112 0133     		adds	r3, r3, #1
 1506 0114 0193     		str	r3, [sp, #4]
 881:/home/phong/Documents/thesis/stm32f4/stm-idf/components/stm32f4xx_hal_driver/stm32f4xx_hal_nand.c ****     }
 1507              		.loc 1 881 0 discriminator 2
 1508 0116 0134     		adds	r4, r4, #1
 1509              	.LVL120:
 1510              	.L125:
 879:/home/phong/Documents/thesis/stm32f4/stm-idf/components/stm32f4xx_hal_driver/stm32f4xx_hal_nand.c ****     {
 1511              		.loc 1 879 0 discriminator 1
 1512 0118 019B     		ldr	r3, [sp, #4]
 1513 011a 9A42     		cmp	r2, r3
 1514 011c F6D8     		bhi	.L126
 884:/home/phong/Documents/thesis/stm32f4/stm-idf/components/stm32f4xx_hal_driver/stm32f4xx_hal_nand.c **** 
 1515              		.loc 1 884 0
 1516 011e 1023     		movs	r3, #16
ARM GAS  /tmp/ccM6uMDT.s 			page 76


 1517 0120 0B70     		strb	r3, [r1]
 887:/home/phong/Documents/thesis/stm32f4/stm-idf/components/stm32f4xx_hal_driver/stm32f4xx_hal_nand.c **** 
 1518              		.loc 1 887 0
 1519 0122 FFF7FEFF 		bl	HAL_GetTick
 1520              	.LVL121:
 1521 0126 8246     		mov	r10, r0
 1522              	.LVL122:
 1523              	.L127:
 890:/home/phong/Documents/thesis/stm32f4/stm-idf/components/stm32f4xx_hal_driver/stm32f4xx_hal_nand.c ****     {
 1524              		.loc 1 890 0
 1525 0128 2846     		mov	r0, r5
 1526 012a FFF7FEFF 		bl	HAL_NAND_Read_Status
 1527              	.LVL123:
 1528 012e 4028     		cmp	r0, #64
 1529 0130 08D0     		beq	.L137
 893:/home/phong/Documents/thesis/stm32f4/stm-idf/components/stm32f4xx_hal_driver/stm32f4xx_hal_nand.c ****       {
 1530              		.loc 1 893 0
 1531 0132 FFF7FEFF 		bl	HAL_GetTick
 1532              	.LVL124:
 1533 0136 A0EB0A00 		sub	r0, r0, r10
 1534 013a B0F1807F 		cmp	r0, #16777216
 1535 013e F3D9     		bls	.L127
 895:/home/phong/Documents/thesis/stm32f4/stm-idf/components/stm32f4xx_hal_driver/stm32f4xx_hal_nand.c ****       }
 1536              		.loc 1 895 0
 1537 0140 0320     		movs	r0, #3
 1538 0142 0BE0     		b	.L118
 1539              	.L137:
 1540              	.LVL125:
 903:/home/phong/Documents/thesis/stm32f4/stm-idf/components/stm32f4xx_hal_driver/stm32f4xx_hal_nand.c ****     
 1541              		.loc 1 903 0
 1542 0144 08F1FF38 		add	r8, r8, #-1
 1543              	.LVL126:
 906:/home/phong/Documents/thesis/stm32f4/stm-idf/components/stm32f4xx_hal_driver/stm32f4xx_hal_nand.c ****   }
 1544              		.loc 1 906 0
 1545 0148 0137     		adds	r7, r7, #1
 1546              	.LVL127:
 1547 014a 82E7     		b	.L120
 1548              	.LVL128:
 1549              	.L129:
 910:/home/phong/Documents/thesis/stm32f4/stm-idf/components/stm32f4xx_hal_driver/stm32f4xx_hal_nand.c ****   
 1550              		.loc 1 910 0
 1551 014c 0123     		movs	r3, #1
 1552 014e 85F82130 		strb	r3, [r5, #33]
 913:/home/phong/Documents/thesis/stm32f4/stm-idf/components/stm32f4xx_hal_driver/stm32f4xx_hal_nand.c ****   
 1553              		.loc 1 913 0
 1554 0152 0020     		movs	r0, #0
 1555 0154 85F82000 		strb	r0, [r5, #32]
 915:/home/phong/Documents/thesis/stm32f4/stm-idf/components/stm32f4xx_hal_driver/stm32f4xx_hal_nand.c **** }
 1556              		.loc 1 915 0
 1557 0158 00E0     		b	.L118
 1558              	.LVL129:
 1559              	.L131:
 805:/home/phong/Documents/thesis/stm32f4/stm-idf/components/stm32f4xx_hal_driver/stm32f4xx_hal_nand.c **** 
 1560              		.loc 1 805 0
 1561 015a 0220     		movs	r0, #2
 1562              	.LVL130:
 1563              	.L118:
ARM GAS  /tmp/ccM6uMDT.s 			page 77


 916:/home/phong/Documents/thesis/stm32f4/stm-idf/components/stm32f4xx_hal_driver/stm32f4xx_hal_nand.c **** 
 1564              		.loc 1 916 0
 1565 015c 02B0     		add	sp, sp, #8
 1566              	.LCFI19:
 1567              		.cfi_remember_state
 1568              		.cfi_def_cfa_offset 32
 1569              		@ sp needed
 1570 015e BDE8F087 		pop	{r4, r5, r6, r7, r8, r9, r10, pc}
 1571              	.LVL131:
 1572              	.L132:
 1573              	.LCFI20:
 1574              		.cfi_restore_state
 810:/home/phong/Documents/thesis/stm32f4/stm-idf/components/stm32f4xx_hal_driver/stm32f4xx_hal_nand.c ****   }
 1575              		.loc 1 810 0
 1576 0162 0220     		movs	r0, #2
 1577              	.LVL132:
 1578 0164 FAE7     		b	.L118
 1579              		.cfi_endproc
 1580              	.LFE141:
 1582              		.section	.text.HAL_NAND_Write_Page_16b,"ax",%progbits
 1583              		.align	1
 1584              		.global	HAL_NAND_Write_Page_16b
 1585              		.syntax unified
 1586              		.thumb
 1587              		.thumb_func
 1588              		.fpu fpv4-sp-d16
 1590              	HAL_NAND_Write_Page_16b:
 1591              	.LFB142:
 928:/home/phong/Documents/thesis/stm32f4/stm-idf/components/stm32f4xx_hal_driver/stm32f4xx_hal_nand.c ****   __IO uint32_t index = 0U;
 1592              		.loc 1 928 0
 1593              		.cfi_startproc
 1594              		@ args = 0, pretend = 0, frame = 8
 1595              		@ frame_needed = 0, uses_anonymous_args = 0
 1596              	.LVL133:
 1597 0000 2DE9F047 		push	{r4, r5, r6, r7, r8, r9, r10, lr}
 1598              	.LCFI21:
 1599              		.cfi_def_cfa_offset 32
 1600              		.cfi_offset 4, -32
 1601              		.cfi_offset 5, -28
 1602              		.cfi_offset 6, -24
 1603              		.cfi_offset 7, -20
 1604              		.cfi_offset 8, -16
 1605              		.cfi_offset 9, -12
 1606              		.cfi_offset 10, -8
 1607              		.cfi_offset 14, -4
 1608 0004 82B0     		sub	sp, sp, #8
 1609              	.LCFI22:
 1610              		.cfi_def_cfa_offset 40
 1611 0006 9846     		mov	r8, r3
 929:/home/phong/Documents/thesis/stm32f4/stm-idf/components/stm32f4xx_hal_driver/stm32f4xx_hal_nand.c ****   uint32_t tickstart = 0U;
 1612              		.loc 1 929 0
 1613 0008 0023     		movs	r3, #0
 1614              	.LVL134:
 1615 000a 0193     		str	r3, [sp, #4]
 1616              	.LVL135:
 934:/home/phong/Documents/thesis/stm32f4/stm-idf/components/stm32f4xx_hal_driver/stm32f4xx_hal_nand.c **** 
 1617              		.loc 1 934 0
ARM GAS  /tmp/ccM6uMDT.s 			page 78


 1618 000c 90F82030 		ldrb	r3, [r0, #32]	@ zero_extendqisi2
 1619 0010 012B     		cmp	r3, #1
 1620 0012 00F0A280 		beq	.L152
 1621 0016 0546     		mov	r5, r0
 1622 0018 1446     		mov	r4, r2
 934:/home/phong/Documents/thesis/stm32f4/stm-idf/components/stm32f4xx_hal_driver/stm32f4xx_hal_nand.c **** 
 1623              		.loc 1 934 0 is_stmt 0 discriminator 2
 1624 001a 0123     		movs	r3, #1
 1625 001c 80F82030 		strb	r3, [r0, #32]
 937:/home/phong/Documents/thesis/stm32f4/stm-idf/components/stm32f4xx_hal_driver/stm32f4xx_hal_nand.c ****   {
 1626              		.loc 1 937 0 is_stmt 1 discriminator 2
 1627 0020 90F82130 		ldrb	r3, [r0, #33]	@ zero_extendqisi2
 1628 0024 DBB2     		uxtb	r3, r3
 1629 0026 022B     		cmp	r3, #2
 1630 0028 00F09B80 		beq	.L153
 943:/home/phong/Documents/thesis/stm32f4/stm-idf/components/stm32f4xx_hal_driver/stm32f4xx_hal_nand.c ****   {
 1631              		.loc 1 943 0
 1632 002c 4368     		ldr	r3, [r0, #4]
 1633 002e 102B     		cmp	r3, #16
 1634 0030 3CD0     		beq	.L157
 949:/home/phong/Documents/thesis/stm32f4/stm-idf/components/stm32f4xx_hal_driver/stm32f4xx_hal_nand.c ****   }
 1635              		.loc 1 949 0
 1636 0032 4FF00046 		mov	r6, #-2147483648
 1637              	.L140:
 1638              	.LVL136:
 953:/home/phong/Documents/thesis/stm32f4/stm-idf/components/stm32f4xx_hal_driver/stm32f4xx_hal_nand.c ****   
 1639              		.loc 1 953 0
 1640 0036 0223     		movs	r3, #2
 1641 0038 85F82130 		strb	r3, [r5, #33]
 956:/home/phong/Documents/thesis/stm32f4/stm-idf/components/stm32f4xx_hal_driver/stm32f4xx_hal_nand.c ****   
 1642              		.loc 1 956 0
 1643 003c 0B88     		ldrh	r3, [r1]
 1644 003e 8A88     		ldrh	r2, [r1, #4]
 1645              	.LVL137:
 1646 0040 4F88     		ldrh	r7, [r1, #2]
 1647 0042 A96B     		ldr	r1, [r5, #56]
 1648              	.LVL138:
 1649 0044 01FB0727 		mla	r7, r1, r7, r2
 1650 0048 EA6A     		ldr	r2, [r5, #44]
 1651 004a 02FB0737 		mla	r7, r2, r7, r3
 1652              	.LVL139:
 931:/home/phong/Documents/thesis/stm32f4/stm-idf/components/stm32f4xx_hal_driver/stm32f4xx_hal_nand.c ****   
 1653              		.loc 1 931 0
 1654 004e 4FF00009 		mov	r9, #0
 1655              	.LVL140:
 1656              	.L141:
 959:/home/phong/Documents/thesis/stm32f4/stm-idf/components/stm32f4xx_hal_driver/stm32f4xx_hal_nand.c ****   {
 1657              		.loc 1 959 0
 1658 0052 B8F1000F 		cmp	r8, #0
 1659 0056 79D0     		beq	.L150
 959:/home/phong/Documents/thesis/stm32f4/stm-idf/components/stm32f4xx_hal_driver/stm32f4xx_hal_nand.c ****   {
 1660              		.loc 1 959 0 is_stmt 0 discriminator 1
 1661 0058 EA6A     		ldr	r2, [r5, #44]
 1662 005a 2B6B     		ldr	r3, [r5, #48]
 1663 005c 03FB02F3 		mul	r3, r3, r2
 1664 0060 9F42     		cmp	r7, r3
 1665 0062 73D2     		bcs	.L150
ARM GAS  /tmp/ccM6uMDT.s 			page 79


 962:/home/phong/Documents/thesis/stm32f4/stm-idf/components/stm32f4xx_hal_driver/stm32f4xx_hal_nand.c ****  
 1666              		.loc 1 962 0 is_stmt 1
 1667 0064 09F10109 		add	r9, r9, #1
 1668              	.LVL141:
 1669 0068 6A6A     		ldr	r2, [r5, #36]
 1670 006a 02FB09F2 		mul	r2, r2, r9
 1671              	.LVL142:
 965:/home/phong/Documents/thesis/stm32f4/stm-idf/components/stm32f4xx_hal_driver/stm32f4xx_hal_nand.c ****     __DSB();
 1672              		.loc 1 965 0
 1673 006e 46F48031 		orr	r1, r6, #65536
 1674 0072 0023     		movs	r3, #0
 1675 0074 0B70     		strb	r3, [r1]
 1676              	.LBB22:
 1677              	.LBB23:
 1678              		.loc 2 879 0
 1679              		.syntax unified
 1680              	@ 879 "/home/phong/Documents/thesis/stm32f4/stm-idf/components/cmsis/include/cmsis_gcc.h" 1
 1681 0076 BFF34F8F 		dsb 0xF
 1682              	@ 0 "" 2
 1683              		.thumb
 1684              		.syntax unified
 1685              	.LBE23:
 1686              	.LBE22:
 967:/home/phong/Documents/thesis/stm32f4/stm-idf/components/stm32f4xx_hal_driver/stm32f4xx_hal_nand.c ****     __DSB();
 1687              		.loc 1 967 0
 1688 007a 8023     		movs	r3, #128
 1689 007c 0B70     		strb	r3, [r1]
 1690              	.LBB24:
 1691              	.LBB25:
 1692              		.loc 2 879 0
 1693              		.syntax unified
 1694              	@ 879 "/home/phong/Documents/thesis/stm32f4/stm-idf/components/cmsis/include/cmsis_gcc.h" 1
 1695 007e BFF34F8F 		dsb 0xF
 1696              	@ 0 "" 2
 1697              		.thumb
 1698              		.syntax unified
 1699              	.LBE25:
 1700              	.LBE24:
 971:/home/phong/Documents/thesis/stm32f4/stm-idf/components/stm32f4xx_hal_driver/stm32f4xx_hal_nand.c ****     {
 1701              		.loc 1 971 0
 1702 0082 6B6A     		ldr	r3, [r5, #36]
 1703 0084 B3F5007F 		cmp	r3, #512
 1704 0088 20D8     		bhi	.L142
 973:/home/phong/Documents/thesis/stm32f4/stm-idf/components/stm32f4xx_hal_driver/stm32f4xx_hal_nand.c ****       {
 1705              		.loc 1 973 0
 1706 008a E86A     		ldr	r0, [r5, #44]
 1707 008c 2B6B     		ldr	r3, [r5, #48]
 1708 008e 03FB00F3 		mul	r3, r3, r0
 1709 0092 B3F5803F 		cmp	r3, #65536
 1710 0096 0CD2     		bcs	.L143
 975:/home/phong/Documents/thesis/stm32f4/stm-idf/components/stm32f4xx_hal_driver/stm32f4xx_hal_nand.c ****         *(__IO uint8_t *)((uint32_t)(deviceaddress | ADDR_AREA)) = ADDR_1ST_CYCLE(nandaddress);
 1711              		.loc 1 975 0
 1712 0098 46F40033 		orr	r3, r6, #131072
 1713 009c 0020     		movs	r0, #0
 1714 009e 1870     		strb	r0, [r3]
 976:/home/phong/Documents/thesis/stm32f4/stm-idf/components/stm32f4xx_hal_driver/stm32f4xx_hal_nand.c ****         *(__IO uint8_t *)((uint32_t)(deviceaddress | ADDR_AREA)) = ADDR_2ND_CYCLE(nandaddress);
 1715              		.loc 1 976 0
ARM GAS  /tmp/ccM6uMDT.s 			page 80


 1716 00a0 F8B2     		uxtb	r0, r7
 1717 00a2 1870     		strb	r0, [r3]
 977:/home/phong/Documents/thesis/stm32f4/stm-idf/components/stm32f4xx_hal_driver/stm32f4xx_hal_nand.c ****       }
 1718              		.loc 1 977 0
 1719 00a4 C7F30720 		ubfx	r0, r7, #8, #8
 1720 00a8 1870     		strb	r0, [r3]
 1721 00aa 35E0     		b	.L146
 1722              	.LVL143:
 1723              	.L157:
 945:/home/phong/Documents/thesis/stm32f4/stm-idf/components/stm32f4xx_hal_driver/stm32f4xx_hal_nand.c ****   }
 1724              		.loc 1 945 0
 1725 00ac 4FF0E046 		mov	r6, #1879048192
 1726 00b0 C1E7     		b	.L140
 1727              	.LVL144:
 1728              	.L143:
 981:/home/phong/Documents/thesis/stm32f4/stm-idf/components/stm32f4xx_hal_driver/stm32f4xx_hal_nand.c ****         *(__IO uint8_t *)((uint32_t)(deviceaddress | ADDR_AREA)) = ADDR_1ST_CYCLE(nandaddress);
 1729              		.loc 1 981 0
 1730 00b2 46F40033 		orr	r3, r6, #131072
 1731 00b6 0020     		movs	r0, #0
 1732 00b8 1870     		strb	r0, [r3]
 982:/home/phong/Documents/thesis/stm32f4/stm-idf/components/stm32f4xx_hal_driver/stm32f4xx_hal_nand.c ****         *(__IO uint8_t *)((uint32_t)(deviceaddress | ADDR_AREA)) = ADDR_2ND_CYCLE(nandaddress);
 1733              		.loc 1 982 0
 1734 00ba F8B2     		uxtb	r0, r7
 1735 00bc 1870     		strb	r0, [r3]
 983:/home/phong/Documents/thesis/stm32f4/stm-idf/components/stm32f4xx_hal_driver/stm32f4xx_hal_nand.c ****         *(__IO uint8_t *)((uint32_t)(deviceaddress | ADDR_AREA)) = ADDR_3RD_CYCLE(nandaddress);
 1736              		.loc 1 983 0
 1737 00be C7F30720 		ubfx	r0, r7, #8, #8
 1738 00c2 1870     		strb	r0, [r3]
 984:/home/phong/Documents/thesis/stm32f4/stm-idf/components/stm32f4xx_hal_driver/stm32f4xx_hal_nand.c ****       }
 1739              		.loc 1 984 0
 1740 00c4 C7F30740 		ubfx	r0, r7, #16, #8
 1741 00c8 1870     		strb	r0, [r3]
 1742 00ca 25E0     		b	.L146
 1743              	.L142:
 989:/home/phong/Documents/thesis/stm32f4/stm-idf/components/stm32f4xx_hal_driver/stm32f4xx_hal_nand.c ****       {
 1744              		.loc 1 989 0
 1745 00cc E86A     		ldr	r0, [r5, #44]
 1746 00ce 2B6B     		ldr	r3, [r5, #48]
 1747 00d0 03FB00F3 		mul	r3, r3, r0
 1748 00d4 B3F5803F 		cmp	r3, #65536
 1749 00d8 0AD2     		bcs	.L145
 991:/home/phong/Documents/thesis/stm32f4/stm-idf/components/stm32f4xx_hal_driver/stm32f4xx_hal_nand.c ****         *(__IO uint8_t *)((uint32_t)(deviceaddress | ADDR_AREA)) = 0x00;
 1750              		.loc 1 991 0
 1751 00da 46F40033 		orr	r3, r6, #131072
 1752 00de 0020     		movs	r0, #0
 1753 00e0 1870     		strb	r0, [r3]
 992:/home/phong/Documents/thesis/stm32f4/stm-idf/components/stm32f4xx_hal_driver/stm32f4xx_hal_nand.c ****         *(__IO uint8_t *)((uint32_t)(deviceaddress | ADDR_AREA)) = ADDR_1ST_CYCLE(nandaddress);
 1754              		.loc 1 992 0
 1755 00e2 1870     		strb	r0, [r3]
 993:/home/phong/Documents/thesis/stm32f4/stm-idf/components/stm32f4xx_hal_driver/stm32f4xx_hal_nand.c ****         *(__IO uint8_t *)((uint32_t)(deviceaddress | ADDR_AREA)) = ADDR_2ND_CYCLE(nandaddress);
 1756              		.loc 1 993 0
 1757 00e4 F8B2     		uxtb	r0, r7
 1758 00e6 1870     		strb	r0, [r3]
 994:/home/phong/Documents/thesis/stm32f4/stm-idf/components/stm32f4xx_hal_driver/stm32f4xx_hal_nand.c ****       }
 1759              		.loc 1 994 0
 1760 00e8 C7F30720 		ubfx	r0, r7, #8, #8
 1761 00ec 1870     		strb	r0, [r3]
ARM GAS  /tmp/ccM6uMDT.s 			page 81


 1762 00ee 13E0     		b	.L146
 1763              	.L145:
 998:/home/phong/Documents/thesis/stm32f4/stm-idf/components/stm32f4xx_hal_driver/stm32f4xx_hal_nand.c ****         *(__IO uint8_t *)((uint32_t)(deviceaddress | ADDR_AREA)) = 0x00;
 1764              		.loc 1 998 0
 1765 00f0 46F40033 		orr	r3, r6, #131072
 1766 00f4 0020     		movs	r0, #0
 1767 00f6 1870     		strb	r0, [r3]
 999:/home/phong/Documents/thesis/stm32f4/stm-idf/components/stm32f4xx_hal_driver/stm32f4xx_hal_nand.c ****         *(__IO uint8_t *)((uint32_t)(deviceaddress | ADDR_AREA)) = ADDR_1ST_CYCLE(nandaddress);
 1768              		.loc 1 999 0
 1769 00f8 1870     		strb	r0, [r3]
1000:/home/phong/Documents/thesis/stm32f4/stm-idf/components/stm32f4xx_hal_driver/stm32f4xx_hal_nand.c ****         *(__IO uint8_t *)((uint32_t)(deviceaddress | ADDR_AREA)) = ADDR_2ND_CYCLE(nandaddress);
 1770              		.loc 1 1000 0
 1771 00fa F8B2     		uxtb	r0, r7
 1772 00fc 1870     		strb	r0, [r3]
1001:/home/phong/Documents/thesis/stm32f4/stm-idf/components/stm32f4xx_hal_driver/stm32f4xx_hal_nand.c ****         *(__IO uint8_t *)((uint32_t)(deviceaddress | ADDR_AREA)) = ADDR_3RD_CYCLE(nandaddress);
 1773              		.loc 1 1001 0
 1774 00fe C7F30720 		ubfx	r0, r7, #8, #8
 1775 0102 1870     		strb	r0, [r3]
1002:/home/phong/Documents/thesis/stm32f4/stm-idf/components/stm32f4xx_hal_driver/stm32f4xx_hal_nand.c ****       }
 1776              		.loc 1 1002 0
 1777 0104 C7F30740 		ubfx	r0, r7, #16, #8
 1778 0108 1870     		strb	r0, [r3]
 1779 010a 05E0     		b	.L146
 1780              	.L147:
 1781              	.LVL145:
1009:/home/phong/Documents/thesis/stm32f4/stm-idf/components/stm32f4xx_hal_driver/stm32f4xx_hal_nand.c ****     }
 1782              		.loc 1 1009 0 discriminator 2
 1783 010c 2388     		ldrh	r3, [r4]
 1784 010e 3380     		strh	r3, [r6]	@ movhi
1007:/home/phong/Documents/thesis/stm32f4/stm-idf/components/stm32f4xx_hal_driver/stm32f4xx_hal_nand.c ****     {
 1785              		.loc 1 1007 0 discriminator 2
 1786 0110 019B     		ldr	r3, [sp, #4]
 1787 0112 0133     		adds	r3, r3, #1
 1788 0114 0193     		str	r3, [sp, #4]
1009:/home/phong/Documents/thesis/stm32f4/stm-idf/components/stm32f4xx_hal_driver/stm32f4xx_hal_nand.c ****     }
 1789              		.loc 1 1009 0 discriminator 2
 1790 0116 0234     		adds	r4, r4, #2
 1791              	.LVL146:
 1792              	.L146:
1007:/home/phong/Documents/thesis/stm32f4/stm-idf/components/stm32f4xx_hal_driver/stm32f4xx_hal_nand.c ****     {
 1793              		.loc 1 1007 0 discriminator 1
 1794 0118 019B     		ldr	r3, [sp, #4]
 1795 011a 9A42     		cmp	r2, r3
 1796 011c F6D8     		bhi	.L147
1012:/home/phong/Documents/thesis/stm32f4/stm-idf/components/stm32f4xx_hal_driver/stm32f4xx_hal_nand.c ****     
 1797              		.loc 1 1012 0
 1798 011e 1023     		movs	r3, #16
 1799 0120 0B70     		strb	r3, [r1]
1015:/home/phong/Documents/thesis/stm32f4/stm-idf/components/stm32f4xx_hal_driver/stm32f4xx_hal_nand.c **** 
 1800              		.loc 1 1015 0
 1801 0122 FFF7FEFF 		bl	HAL_GetTick
 1802              	.LVL147:
 1803 0126 8246     		mov	r10, r0
 1804              	.LVL148:
 1805              	.L148:
1018:/home/phong/Documents/thesis/stm32f4/stm-idf/components/stm32f4xx_hal_driver/stm32f4xx_hal_nand.c ****     { 
 1806              		.loc 1 1018 0
ARM GAS  /tmp/ccM6uMDT.s 			page 82


 1807 0128 2846     		mov	r0, r5
 1808 012a FFF7FEFF 		bl	HAL_NAND_Read_Status
 1809              	.LVL149:
 1810 012e 4028     		cmp	r0, #64
 1811 0130 08D0     		beq	.L158
1020:/home/phong/Documents/thesis/stm32f4/stm-idf/components/stm32f4xx_hal_driver/stm32f4xx_hal_nand.c ****       {
 1812              		.loc 1 1020 0
 1813 0132 FFF7FEFF 		bl	HAL_GetTick
 1814              	.LVL150:
 1815 0136 A0EB0A00 		sub	r0, r0, r10
 1816 013a B0F1807F 		cmp	r0, #16777216
 1817 013e F3D9     		bls	.L148
1022:/home/phong/Documents/thesis/stm32f4/stm-idf/components/stm32f4xx_hal_driver/stm32f4xx_hal_nand.c ****       } 
 1818              		.loc 1 1022 0
 1819 0140 0320     		movs	r0, #3
 1820 0142 0BE0     		b	.L139
 1821              	.L158:
 1822              	.LVL151:
1030:/home/phong/Documents/thesis/stm32f4/stm-idf/components/stm32f4xx_hal_driver/stm32f4xx_hal_nand.c ****     
 1823              		.loc 1 1030 0
 1824 0144 08F1FF38 		add	r8, r8, #-1
 1825              	.LVL152:
1033:/home/phong/Documents/thesis/stm32f4/stm-idf/components/stm32f4xx_hal_driver/stm32f4xx_hal_nand.c ****   }
 1826              		.loc 1 1033 0
 1827 0148 0137     		adds	r7, r7, #1
 1828              	.LVL153:
 1829 014a 82E7     		b	.L141
 1830              	.LVL154:
 1831              	.L150:
1037:/home/phong/Documents/thesis/stm32f4/stm-idf/components/stm32f4xx_hal_driver/stm32f4xx_hal_nand.c ****   
 1832              		.loc 1 1037 0
 1833 014c 0123     		movs	r3, #1
 1834 014e 85F82130 		strb	r3, [r5, #33]
1040:/home/phong/Documents/thesis/stm32f4/stm-idf/components/stm32f4xx_hal_driver/stm32f4xx_hal_nand.c ****   
 1835              		.loc 1 1040 0
 1836 0152 0020     		movs	r0, #0
 1837 0154 85F82000 		strb	r0, [r5, #32]
1042:/home/phong/Documents/thesis/stm32f4/stm-idf/components/stm32f4xx_hal_driver/stm32f4xx_hal_nand.c **** }
 1838              		.loc 1 1042 0
 1839 0158 00E0     		b	.L139
 1840              	.LVL155:
 1841              	.L152:
 934:/home/phong/Documents/thesis/stm32f4/stm-idf/components/stm32f4xx_hal_driver/stm32f4xx_hal_nand.c **** 
 1842              		.loc 1 934 0
 1843 015a 0220     		movs	r0, #2
 1844              	.LVL156:
 1845              	.L139:
1043:/home/phong/Documents/thesis/stm32f4/stm-idf/components/stm32f4xx_hal_driver/stm32f4xx_hal_nand.c **** 
 1846              		.loc 1 1043 0
 1847 015c 02B0     		add	sp, sp, #8
 1848              	.LCFI23:
 1849              		.cfi_remember_state
 1850              		.cfi_def_cfa_offset 32
 1851              		@ sp needed
 1852 015e BDE8F087 		pop	{r4, r5, r6, r7, r8, r9, r10, pc}
 1853              	.LVL157:
 1854              	.L153:
ARM GAS  /tmp/ccM6uMDT.s 			page 83


 1855              	.LCFI24:
 1856              		.cfi_restore_state
 939:/home/phong/Documents/thesis/stm32f4/stm-idf/components/stm32f4xx_hal_driver/stm32f4xx_hal_nand.c ****   }
 1857              		.loc 1 939 0
 1858 0162 0220     		movs	r0, #2
 1859              	.LVL158:
 1860 0164 FAE7     		b	.L139
 1861              		.cfi_endproc
 1862              	.LFE142:
 1864              		.section	.text.HAL_NAND_Read_SpareArea_8b,"ax",%progbits
 1865              		.align	1
 1866              		.global	HAL_NAND_Read_SpareArea_8b
 1867              		.syntax unified
 1868              		.thumb
 1869              		.thumb_func
 1870              		.fpu fpv4-sp-d16
 1872              	HAL_NAND_Read_SpareArea_8b:
 1873              	.LFB143:
1055:/home/phong/Documents/thesis/stm32f4/stm-idf/components/stm32f4xx_hal_driver/stm32f4xx_hal_nand.c ****   __IO uint32_t index = 0U;
 1874              		.loc 1 1055 0
 1875              		.cfi_startproc
 1876              		@ args = 0, pretend = 0, frame = 16
 1877              		@ frame_needed = 0, uses_anonymous_args = 0
 1878              	.LVL159:
 1879 0000 2DE9F04F 		push	{r4, r5, r6, r7, r8, r9, r10, fp, lr}
 1880              	.LCFI25:
 1881              		.cfi_def_cfa_offset 36
 1882              		.cfi_offset 4, -36
 1883              		.cfi_offset 5, -32
 1884              		.cfi_offset 6, -28
 1885              		.cfi_offset 7, -24
 1886              		.cfi_offset 8, -20
 1887              		.cfi_offset 9, -16
 1888              		.cfi_offset 10, -12
 1889              		.cfi_offset 11, -8
 1890              		.cfi_offset 14, -4
 1891 0004 85B0     		sub	sp, sp, #20
 1892              	.LCFI26:
 1893              		.cfi_def_cfa_offset 56
 1894 0006 9946     		mov	r9, r3
1056:/home/phong/Documents/thesis/stm32f4/stm-idf/components/stm32f4xx_hal_driver/stm32f4xx_hal_nand.c ****   uint32_t tickstart = 0U;
 1895              		.loc 1 1056 0
 1896 0008 0023     		movs	r3, #0
 1897              	.LVL160:
 1898 000a 0393     		str	r3, [sp, #12]
 1899              	.LVL161:
1061:/home/phong/Documents/thesis/stm32f4/stm-idf/components/stm32f4xx_hal_driver/stm32f4xx_hal_nand.c ****   
 1900              		.loc 1 1061 0
 1901 000c 90F82030 		ldrb	r3, [r0, #32]	@ zero_extendqisi2
 1902 0010 012B     		cmp	r3, #1
 1903 0012 00F0B880 		beq	.L174
 1904 0016 0746     		mov	r7, r0
 1905 0018 1446     		mov	r4, r2
1061:/home/phong/Documents/thesis/stm32f4/stm-idf/components/stm32f4xx_hal_driver/stm32f4xx_hal_nand.c ****   
 1906              		.loc 1 1061 0 is_stmt 0 discriminator 2
 1907 001a 0123     		movs	r3, #1
 1908 001c 80F82030 		strb	r3, [r0, #32]
ARM GAS  /tmp/ccM6uMDT.s 			page 84


1064:/home/phong/Documents/thesis/stm32f4/stm-idf/components/stm32f4xx_hal_driver/stm32f4xx_hal_nand.c ****   {
 1909              		.loc 1 1064 0 is_stmt 1 discriminator 2
 1910 0020 90F82130 		ldrb	r3, [r0, #33]	@ zero_extendqisi2
 1911 0024 DBB2     		uxtb	r3, r3
 1912 0026 022B     		cmp	r3, #2
 1913 0028 00F0B180 		beq	.L175
1070:/home/phong/Documents/thesis/stm32f4/stm-idf/components/stm32f4xx_hal_driver/stm32f4xx_hal_nand.c ****   {
 1914              		.loc 1 1070 0
 1915 002c 4368     		ldr	r3, [r0, #4]
 1916 002e 102B     		cmp	r3, #16
 1917 0030 13D0     		beq	.L179
1076:/home/phong/Documents/thesis/stm32f4/stm-idf/components/stm32f4xx_hal_driver/stm32f4xx_hal_nand.c ****   }
 1918              		.loc 1 1076 0
 1919 0032 4FF00046 		mov	r6, #-2147483648
 1920              	.L161:
 1921              	.LVL162:
1080:/home/phong/Documents/thesis/stm32f4/stm-idf/components/stm32f4xx_hal_driver/stm32f4xx_hal_nand.c ****   
 1922              		.loc 1 1080 0
 1923 0036 0223     		movs	r3, #2
 1924 0038 87F82130 		strb	r3, [r7, #33]
1083:/home/phong/Documents/thesis/stm32f4/stm-idf/components/stm32f4xx_hal_driver/stm32f4xx_hal_nand.c ****   
 1925              		.loc 1 1083 0
 1926 003c 0B88     		ldrh	r3, [r1]
 1927 003e 8A88     		ldrh	r2, [r1, #4]
 1928              	.LVL163:
 1929 0040 B1F80280 		ldrh	r8, [r1, #2]
 1930 0044 B96B     		ldr	r1, [r7, #56]
 1931              	.LVL164:
 1932 0046 01FB0828 		mla	r8, r1, r8, r2
 1933 004a FA6A     		ldr	r2, [r7, #44]
 1934 004c 02FB0838 		mla	r8, r2, r8, r3
 1935              	.LVL165:
1086:/home/phong/Documents/thesis/stm32f4/stm-idf/components/stm32f4xx_hal_driver/stm32f4xx_hal_nand.c ****   
 1936              		.loc 1 1086 0
 1937 0050 7B6A     		ldr	r3, [r7, #36]
 1938 0052 0193     		str	r3, [sp, #4]
 1939              	.LVL166:
1058:/home/phong/Documents/thesis/stm32f4/stm-idf/components/stm32f4xx_hal_driver/stm32f4xx_hal_nand.c ****   
 1940              		.loc 1 1058 0
 1941 0054 4FF0000A 		mov	r10, #0
1089:/home/phong/Documents/thesis/stm32f4/stm-idf/components/stm32f4xx_hal_driver/stm32f4xx_hal_nand.c ****   {     
 1942              		.loc 1 1089 0
 1943 0058 4DE0     		b	.L162
 1944              	.LVL167:
 1945              	.L179:
1072:/home/phong/Documents/thesis/stm32f4/stm-idf/components/stm32f4xx_hal_driver/stm32f4xx_hal_nand.c ****   }
 1946              		.loc 1 1072 0
 1947 005a 4FF0E046 		mov	r6, #1879048192
 1948 005e EAE7     		b	.L161
 1949              	.LVL168:
 1950              	.L164:
1108:/home/phong/Documents/thesis/stm32f4/stm-idf/components/stm32f4xx_hal_driver/stm32f4xx_hal_nand.c ****         *(__IO uint8_t *)((uint32_t)(deviceaddress | ADDR_AREA)) = ADDR_1ST_CYCLE(nandaddress);
 1951              		.loc 1 1108 0
 1952 0060 46F40033 		orr	r3, r6, #131072
 1953 0064 0022     		movs	r2, #0
 1954 0066 1A70     		strb	r2, [r3]
1109:/home/phong/Documents/thesis/stm32f4/stm-idf/components/stm32f4xx_hal_driver/stm32f4xx_hal_nand.c ****         *(__IO uint8_t *)((uint32_t)(deviceaddress | ADDR_AREA)) = ADDR_2ND_CYCLE(nandaddress);
ARM GAS  /tmp/ccM6uMDT.s 			page 85


 1955              		.loc 1 1109 0
 1956 0068 5FFA88F2 		uxtb	r2, r8
 1957 006c 1A70     		strb	r2, [r3]
1110:/home/phong/Documents/thesis/stm32f4/stm-idf/components/stm32f4xx_hal_driver/stm32f4xx_hal_nand.c ****         *(__IO uint8_t *)((uint32_t)(deviceaddress | ADDR_AREA)) = ADDR_3RD_CYCLE(nandaddress);
 1958              		.loc 1 1110 0
 1959 006e C8F30722 		ubfx	r2, r8, #8, #8
 1960 0072 1A70     		strb	r2, [r3]
1111:/home/phong/Documents/thesis/stm32f4/stm-idf/components/stm32f4xx_hal_driver/stm32f4xx_hal_nand.c ****       }
 1961              		.loc 1 1111 0
 1962 0074 C8F30742 		ubfx	r2, r8, #16, #8
 1963 0078 1A70     		strb	r2, [r3]
 1964 007a 63E0     		b	.L165
 1965              	.L163:
1117:/home/phong/Documents/thesis/stm32f4/stm-idf/components/stm32f4xx_hal_driver/stm32f4xx_hal_nand.c ****       
 1966              		.loc 1 1117 0
 1967 007c 46F48033 		orr	r3, r6, #65536
 1968 0080 0022     		movs	r2, #0
 1969 0082 1A70     		strb	r2, [r3]
1119:/home/phong/Documents/thesis/stm32f4/stm-idf/components/stm32f4xx_hal_driver/stm32f4xx_hal_nand.c ****       {
 1970              		.loc 1 1119 0
 1971 0084 FA6A     		ldr	r2, [r7, #44]
 1972 0086 3B6B     		ldr	r3, [r7, #48]
 1973 0088 03FB02F3 		mul	r3, r3, r2
 1974 008c B3F5803F 		cmp	r3, #65536
 1975 0090 0ED2     		bcs	.L166
1121:/home/phong/Documents/thesis/stm32f4/stm-idf/components/stm32f4xx_hal_driver/stm32f4xx_hal_nand.c ****         *(__IO uint8_t *)((uint32_t)(deviceaddress | ADDR_AREA)) = COLUMN_2ND_CYCLE(columnaddress);
 1976              		.loc 1 1121 0
 1977 0092 46F40033 		orr	r3, r6, #131072
 1978 0096 0199     		ldr	r1, [sp, #4]
 1979 0098 CAB2     		uxtb	r2, r1
 1980 009a 1A70     		strb	r2, [r3]
1122:/home/phong/Documents/thesis/stm32f4/stm-idf/components/stm32f4xx_hal_driver/stm32f4xx_hal_nand.c ****         *(__IO uint8_t *)((uint32_t)(deviceaddress | ADDR_AREA)) = ADDR_1ST_CYCLE(nandaddress);
 1981              		.loc 1 1122 0
 1982 009c C1F30722 		ubfx	r2, r1, #8, #8
 1983 00a0 1A70     		strb	r2, [r3]
1123:/home/phong/Documents/thesis/stm32f4/stm-idf/components/stm32f4xx_hal_driver/stm32f4xx_hal_nand.c ****         *(__IO uint8_t *)((uint32_t)(deviceaddress | ADDR_AREA)) = ADDR_2ND_CYCLE(nandaddress);
 1984              		.loc 1 1123 0
 1985 00a2 5FFA88F2 		uxtb	r2, r8
 1986 00a6 1A70     		strb	r2, [r3]
1124:/home/phong/Documents/thesis/stm32f4/stm-idf/components/stm32f4xx_hal_driver/stm32f4xx_hal_nand.c ****       }
 1987              		.loc 1 1124 0
 1988 00a8 C8F30722 		ubfx	r2, r8, #8, #8
 1989 00ac 1A70     		strb	r2, [r3]
 1990 00ae 49E0     		b	.L165
 1991              	.L166:
1128:/home/phong/Documents/thesis/stm32f4/stm-idf/components/stm32f4xx_hal_driver/stm32f4xx_hal_nand.c ****         *(__IO uint8_t *)((uint32_t)(deviceaddress | ADDR_AREA)) = COLUMN_2ND_CYCLE(columnaddress);
 1992              		.loc 1 1128 0
 1993 00b0 46F40033 		orr	r3, r6, #131072
 1994 00b4 0199     		ldr	r1, [sp, #4]
 1995 00b6 CAB2     		uxtb	r2, r1
 1996 00b8 1A70     		strb	r2, [r3]
1129:/home/phong/Documents/thesis/stm32f4/stm-idf/components/stm32f4xx_hal_driver/stm32f4xx_hal_nand.c ****         *(__IO uint8_t *)((uint32_t)(deviceaddress | ADDR_AREA)) = ADDR_1ST_CYCLE(nandaddress);
 1997              		.loc 1 1129 0
 1998 00ba C1F30722 		ubfx	r2, r1, #8, #8
 1999 00be 1A70     		strb	r2, [r3]
1130:/home/phong/Documents/thesis/stm32f4/stm-idf/components/stm32f4xx_hal_driver/stm32f4xx_hal_nand.c ****         *(__IO uint8_t *)((uint32_t)(deviceaddress | ADDR_AREA)) = ADDR_2ND_CYCLE(nandaddress);
 2000              		.loc 1 1130 0
ARM GAS  /tmp/ccM6uMDT.s 			page 86


 2001 00c0 5FFA88F2 		uxtb	r2, r8
 2002 00c4 1A70     		strb	r2, [r3]
1131:/home/phong/Documents/thesis/stm32f4/stm-idf/components/stm32f4xx_hal_driver/stm32f4xx_hal_nand.c ****         *(__IO uint8_t *)((uint32_t)(deviceaddress | ADDR_AREA)) = ADDR_3RD_CYCLE(nandaddress);
 2003              		.loc 1 1131 0
 2004 00c6 C8F30722 		ubfx	r2, r8, #8, #8
 2005 00ca 1A70     		strb	r2, [r3]
1132:/home/phong/Documents/thesis/stm32f4/stm-idf/components/stm32f4xx_hal_driver/stm32f4xx_hal_nand.c ****       }
 2006              		.loc 1 1132 0
 2007 00cc C8F30742 		ubfx	r2, r8, #16, #8
 2008 00d0 1A70     		strb	r2, [r3]
 2009 00d2 37E0     		b	.L165
 2010              	.LVL169:
 2011              	.L180:
1153:/home/phong/Documents/thesis/stm32f4/stm-idf/components/stm32f4xx_hal_driver/stm32f4xx_hal_nand.c ****     }
 2012              		.loc 1 1153 0
 2013 00d4 0023     		movs	r3, #0
 2014 00d6 8BF80030 		strb	r3, [fp]
 2015 00da 05E0     		b	.L170
 2016              	.LVL170:
 2017              	.L171:
1159:/home/phong/Documents/thesis/stm32f4/stm-idf/components/stm32f4xx_hal_driver/stm32f4xx_hal_nand.c ****     }
 2018              		.loc 1 1159 0 discriminator 2
 2019 00dc 3378     		ldrb	r3, [r6]	@ zero_extendqisi2
 2020 00de 2370     		strb	r3, [r4]
1157:/home/phong/Documents/thesis/stm32f4/stm-idf/components/stm32f4xx_hal_driver/stm32f4xx_hal_nand.c ****     {
 2021              		.loc 1 1157 0 discriminator 2
 2022 00e0 039B     		ldr	r3, [sp, #12]
 2023 00e2 0133     		adds	r3, r3, #1
 2024 00e4 0393     		str	r3, [sp, #12]
1159:/home/phong/Documents/thesis/stm32f4/stm-idf/components/stm32f4xx_hal_driver/stm32f4xx_hal_nand.c ****     }
 2025              		.loc 1 1159 0 discriminator 2
 2026 00e6 0134     		adds	r4, r4, #1
 2027              	.LVL171:
 2028              	.L170:
1157:/home/phong/Documents/thesis/stm32f4/stm-idf/components/stm32f4xx_hal_driver/stm32f4xx_hal_nand.c ****     {
 2029              		.loc 1 1157 0 discriminator 1
 2030 00e8 039B     		ldr	r3, [sp, #12]
 2031 00ea 9D42     		cmp	r5, r3
 2032 00ec F6D8     		bhi	.L171
 2033              	.LVL172:
1166:/home/phong/Documents/thesis/stm32f4/stm-idf/components/stm32f4xx_hal_driver/stm32f4xx_hal_nand.c ****     
 2034              		.loc 1 1166 0
 2035 00ee 09F1FF39 		add	r9, r9, #-1
 2036              	.LVL173:
1169:/home/phong/Documents/thesis/stm32f4/stm-idf/components/stm32f4xx_hal_driver/stm32f4xx_hal_nand.c ****   }
 2037              		.loc 1 1169 0
 2038 00f2 08F10108 		add	r8, r8, #1
 2039              	.LVL174:
 2040              	.L162:
1089:/home/phong/Documents/thesis/stm32f4/stm-idf/components/stm32f4xx_hal_driver/stm32f4xx_hal_nand.c ****   {     
 2041              		.loc 1 1089 0
 2042 00f6 B9F1000F 		cmp	r9, #0
 2043 00fa 3DD0     		beq	.L172
1089:/home/phong/Documents/thesis/stm32f4/stm-idf/components/stm32f4xx_hal_driver/stm32f4xx_hal_nand.c ****   {     
 2044              		.loc 1 1089 0 is_stmt 0 discriminator 1
 2045 00fc FA6A     		ldr	r2, [r7, #44]
 2046 00fe 3B6B     		ldr	r3, [r7, #48]
ARM GAS  /tmp/ccM6uMDT.s 			page 87


 2047 0100 03FB02F3 		mul	r3, r3, r2
 2048 0104 9845     		cmp	r8, r3
 2049 0106 37D2     		bcs	.L172
1092:/home/phong/Documents/thesis/stm32f4/stm-idf/components/stm32f4xx_hal_driver/stm32f4xx_hal_nand.c **** 
 2050              		.loc 1 1092 0 is_stmt 1
 2051 0108 0AF1010A 		add	r10, r10, #1
 2052              	.LVL175:
 2053 010c BD6A     		ldr	r5, [r7, #40]
 2054 010e 05FB0AF5 		mul	r5, r5, r10
 2055              	.LVL176:
1095:/home/phong/Documents/thesis/stm32f4/stm-idf/components/stm32f4xx_hal_driver/stm32f4xx_hal_nand.c ****     {
 2056              		.loc 1 1095 0
 2057 0112 7B6A     		ldr	r3, [r7, #36]
 2058 0114 B3F5007F 		cmp	r3, #512
 2059 0118 B0D8     		bhi	.L163
1098:/home/phong/Documents/thesis/stm32f4/stm-idf/components/stm32f4xx_hal_driver/stm32f4xx_hal_nand.c ****       
 2060              		.loc 1 1098 0
 2061 011a 46F48033 		orr	r3, r6, #65536
 2062 011e 5022     		movs	r2, #80
 2063 0120 1A70     		strb	r2, [r3]
1100:/home/phong/Documents/thesis/stm32f4/stm-idf/components/stm32f4xx_hal_driver/stm32f4xx_hal_nand.c ****       {
 2064              		.loc 1 1100 0
 2065 0122 FA6A     		ldr	r2, [r7, #44]
 2066 0124 3B6B     		ldr	r3, [r7, #48]
 2067 0126 03FB02F3 		mul	r3, r3, r2
 2068 012a B3F5803F 		cmp	r3, #65536
 2069 012e 97D2     		bcs	.L164
1102:/home/phong/Documents/thesis/stm32f4/stm-idf/components/stm32f4xx_hal_driver/stm32f4xx_hal_nand.c ****         *(__IO uint8_t *)((uint32_t)(deviceaddress | ADDR_AREA)) = ADDR_1ST_CYCLE(nandaddress);
 2070              		.loc 1 1102 0
 2071 0130 46F40033 		orr	r3, r6, #131072
 2072 0134 0022     		movs	r2, #0
 2073 0136 1A70     		strb	r2, [r3]
1103:/home/phong/Documents/thesis/stm32f4/stm-idf/components/stm32f4xx_hal_driver/stm32f4xx_hal_nand.c ****         *(__IO uint8_t *)((uint32_t)(deviceaddress | ADDR_AREA)) = ADDR_2ND_CYCLE(nandaddress);
 2074              		.loc 1 1103 0
 2075 0138 5FFA88F2 		uxtb	r2, r8
 2076 013c 1A70     		strb	r2, [r3]
1104:/home/phong/Documents/thesis/stm32f4/stm-idf/components/stm32f4xx_hal_driver/stm32f4xx_hal_nand.c ****       }
 2077              		.loc 1 1104 0
 2078 013e C8F30722 		ubfx	r2, r8, #8, #8
 2079 0142 1A70     		strb	r2, [r3]
 2080              	.L165:
1136:/home/phong/Documents/thesis/stm32f4/stm-idf/components/stm32f4xx_hal_driver/stm32f4xx_hal_nand.c ****     
 2081              		.loc 1 1136 0
 2082 0144 46F4803B 		orr	fp, r6, #65536
 2083 0148 3023     		movs	r3, #48
 2084 014a 8BF80030 		strb	r3, [fp]
1138:/home/phong/Documents/thesis/stm32f4/stm-idf/components/stm32f4xx_hal_driver/stm32f4xx_hal_nand.c ****     {
 2085              		.loc 1 1138 0
 2086 014e 97F83C30 		ldrb	r3, [r7, #60]	@ zero_extendqisi2
 2087 0152 012B     		cmp	r3, #1
 2088 0154 C8D1     		bne	.L170
1141:/home/phong/Documents/thesis/stm32f4/stm-idf/components/stm32f4xx_hal_driver/stm32f4xx_hal_nand.c ****       
 2089              		.loc 1 1141 0
 2090 0156 FFF7FEFF 		bl	HAL_GetTick
 2091              	.LVL177:
 2092 015a 0090     		str	r0, [sp]
 2093              	.LVL178:
ARM GAS  /tmp/ccM6uMDT.s 			page 88


 2094              	.L168:
1144:/home/phong/Documents/thesis/stm32f4/stm-idf/components/stm32f4xx_hal_driver/stm32f4xx_hal_nand.c ****       {
 2095              		.loc 1 1144 0
 2096 015c 3846     		mov	r0, r7
 2097 015e FFF7FEFF 		bl	HAL_NAND_Read_Status
 2098              	.LVL179:
 2099 0162 4028     		cmp	r0, #64
 2100 0164 B6D0     		beq	.L180
1146:/home/phong/Documents/thesis/stm32f4/stm-idf/components/stm32f4xx_hal_driver/stm32f4xx_hal_nand.c ****         {
 2101              		.loc 1 1146 0
 2102 0166 FFF7FEFF 		bl	HAL_GetTick
 2103              	.LVL180:
 2104 016a 009B     		ldr	r3, [sp]
 2105 016c C01A     		subs	r0, r0, r3
 2106 016e B0F1807F 		cmp	r0, #16777216
 2107 0172 F3D9     		bls	.L168
1148:/home/phong/Documents/thesis/stm32f4/stm-idf/components/stm32f4xx_hal_driver/stm32f4xx_hal_nand.c ****         }
 2108              		.loc 1 1148 0
 2109 0174 0320     		movs	r0, #3
 2110 0176 07E0     		b	.L160
 2111              	.LVL181:
 2112              	.L172:
1173:/home/phong/Documents/thesis/stm32f4/stm-idf/components/stm32f4xx_hal_driver/stm32f4xx_hal_nand.c ****   
 2113              		.loc 1 1173 0
 2114 0178 0123     		movs	r3, #1
 2115 017a 87F82130 		strb	r3, [r7, #33]
1176:/home/phong/Documents/thesis/stm32f4/stm-idf/components/stm32f4xx_hal_driver/stm32f4xx_hal_nand.c **** 
 2116              		.loc 1 1176 0
 2117 017e 0020     		movs	r0, #0
 2118 0180 87F82000 		strb	r0, [r7, #32]
1178:/home/phong/Documents/thesis/stm32f4/stm-idf/components/stm32f4xx_hal_driver/stm32f4xx_hal_nand.c **** }
 2119              		.loc 1 1178 0
 2120 0184 00E0     		b	.L160
 2121              	.LVL182:
 2122              	.L174:
1061:/home/phong/Documents/thesis/stm32f4/stm-idf/components/stm32f4xx_hal_driver/stm32f4xx_hal_nand.c ****   
 2123              		.loc 1 1061 0
 2124 0186 0220     		movs	r0, #2
 2125              	.LVL183:
 2126              	.L160:
1179:/home/phong/Documents/thesis/stm32f4/stm-idf/components/stm32f4xx_hal_driver/stm32f4xx_hal_nand.c **** 
 2127              		.loc 1 1179 0
 2128 0188 05B0     		add	sp, sp, #20
 2129              	.LCFI27:
 2130              		.cfi_remember_state
 2131              		.cfi_def_cfa_offset 36
 2132              		@ sp needed
 2133 018a BDE8F08F 		pop	{r4, r5, r6, r7, r8, r9, r10, fp, pc}
 2134              	.LVL184:
 2135              	.L175:
 2136              	.LCFI28:
 2137              		.cfi_restore_state
1066:/home/phong/Documents/thesis/stm32f4/stm-idf/components/stm32f4xx_hal_driver/stm32f4xx_hal_nand.c ****   }
 2138              		.loc 1 1066 0
 2139 018e 0220     		movs	r0, #2
 2140              	.LVL185:
 2141 0190 FAE7     		b	.L160
ARM GAS  /tmp/ccM6uMDT.s 			page 89


 2142              		.cfi_endproc
 2143              	.LFE143:
 2145              		.section	.text.HAL_NAND_Read_SpareArea_16b,"ax",%progbits
 2146              		.align	1
 2147              		.global	HAL_NAND_Read_SpareArea_16b
 2148              		.syntax unified
 2149              		.thumb
 2150              		.thumb_func
 2151              		.fpu fpv4-sp-d16
 2153              	HAL_NAND_Read_SpareArea_16b:
 2154              	.LFB144:
1191:/home/phong/Documents/thesis/stm32f4/stm-idf/components/stm32f4xx_hal_driver/stm32f4xx_hal_nand.c ****   __IO uint32_t index = 0U; 
 2155              		.loc 1 1191 0
 2156              		.cfi_startproc
 2157              		@ args = 0, pretend = 0, frame = 16
 2158              		@ frame_needed = 0, uses_anonymous_args = 0
 2159              	.LVL186:
 2160 0000 2DE9F04F 		push	{r4, r5, r6, r7, r8, r9, r10, fp, lr}
 2161              	.LCFI29:
 2162              		.cfi_def_cfa_offset 36
 2163              		.cfi_offset 4, -36
 2164              		.cfi_offset 5, -32
 2165              		.cfi_offset 6, -28
 2166              		.cfi_offset 7, -24
 2167              		.cfi_offset 8, -20
 2168              		.cfi_offset 9, -16
 2169              		.cfi_offset 10, -12
 2170              		.cfi_offset 11, -8
 2171              		.cfi_offset 14, -4
 2172 0004 85B0     		sub	sp, sp, #20
 2173              	.LCFI30:
 2174              		.cfi_def_cfa_offset 56
 2175 0006 9946     		mov	r9, r3
1192:/home/phong/Documents/thesis/stm32f4/stm-idf/components/stm32f4xx_hal_driver/stm32f4xx_hal_nand.c ****   uint32_t tickstart = 0U;
 2176              		.loc 1 1192 0
 2177 0008 0023     		movs	r3, #0
 2178              	.LVL187:
 2179 000a 0393     		str	r3, [sp, #12]
 2180              	.LVL188:
1197:/home/phong/Documents/thesis/stm32f4/stm-idf/components/stm32f4xx_hal_driver/stm32f4xx_hal_nand.c ****   
 2181              		.loc 1 1197 0
 2182 000c 90F82030 		ldrb	r3, [r0, #32]	@ zero_extendqisi2
 2183 0010 012B     		cmp	r3, #1
 2184 0012 00F0B980 		beq	.L196
 2185 0016 0746     		mov	r7, r0
 2186 0018 1446     		mov	r4, r2
1197:/home/phong/Documents/thesis/stm32f4/stm-idf/components/stm32f4xx_hal_driver/stm32f4xx_hal_nand.c ****   
 2187              		.loc 1 1197 0 is_stmt 0 discriminator 2
 2188 001a 0123     		movs	r3, #1
 2189 001c 80F82030 		strb	r3, [r0, #32]
1200:/home/phong/Documents/thesis/stm32f4/stm-idf/components/stm32f4xx_hal_driver/stm32f4xx_hal_nand.c ****   {
 2190              		.loc 1 1200 0 is_stmt 1 discriminator 2
 2191 0020 90F82130 		ldrb	r3, [r0, #33]	@ zero_extendqisi2
 2192 0024 DBB2     		uxtb	r3, r3
 2193 0026 022B     		cmp	r3, #2
 2194 0028 00F0B280 		beq	.L197
1206:/home/phong/Documents/thesis/stm32f4/stm-idf/components/stm32f4xx_hal_driver/stm32f4xx_hal_nand.c ****   {
ARM GAS  /tmp/ccM6uMDT.s 			page 90


 2195              		.loc 1 1206 0
 2196 002c 4368     		ldr	r3, [r0, #4]
 2197 002e 102B     		cmp	r3, #16
 2198 0030 14D0     		beq	.L201
1212:/home/phong/Documents/thesis/stm32f4/stm-idf/components/stm32f4xx_hal_driver/stm32f4xx_hal_nand.c ****   }
 2199              		.loc 1 1212 0
 2200 0032 4FF00046 		mov	r6, #-2147483648
 2201              	.L183:
 2202              	.LVL189:
1216:/home/phong/Documents/thesis/stm32f4/stm-idf/components/stm32f4xx_hal_driver/stm32f4xx_hal_nand.c ****   
 2203              		.loc 1 1216 0
 2204 0036 0223     		movs	r3, #2
 2205 0038 87F82130 		strb	r3, [r7, #33]
1219:/home/phong/Documents/thesis/stm32f4/stm-idf/components/stm32f4xx_hal_driver/stm32f4xx_hal_nand.c ****   
 2206              		.loc 1 1219 0
 2207 003c 0B88     		ldrh	r3, [r1]
 2208 003e 8A88     		ldrh	r2, [r1, #4]
 2209              	.LVL190:
 2210 0040 B1F80280 		ldrh	r8, [r1, #2]
 2211 0044 B96B     		ldr	r1, [r7, #56]
 2212              	.LVL191:
 2213 0046 01FB0828 		mla	r8, r1, r8, r2
 2214 004a FA6A     		ldr	r2, [r7, #44]
 2215 004c 02FB0838 		mla	r8, r2, r8, r3
 2216              	.LVL192:
1222:/home/phong/Documents/thesis/stm32f4/stm-idf/components/stm32f4xx_hal_driver/stm32f4xx_hal_nand.c ****   
 2217              		.loc 1 1222 0
 2218 0050 7B6A     		ldr	r3, [r7, #36]
 2219 0052 5B00     		lsls	r3, r3, #1
 2220 0054 0193     		str	r3, [sp, #4]
 2221              	.LVL193:
1194:/home/phong/Documents/thesis/stm32f4/stm-idf/components/stm32f4xx_hal_driver/stm32f4xx_hal_nand.c ****   
 2222              		.loc 1 1194 0
 2223 0056 4FF0000A 		mov	r10, #0
1225:/home/phong/Documents/thesis/stm32f4/stm-idf/components/stm32f4xx_hal_driver/stm32f4xx_hal_nand.c ****   {
 2224              		.loc 1 1225 0
 2225 005a 4DE0     		b	.L184
 2226              	.LVL194:
 2227              	.L201:
1208:/home/phong/Documents/thesis/stm32f4/stm-idf/components/stm32f4xx_hal_driver/stm32f4xx_hal_nand.c ****   }
 2228              		.loc 1 1208 0
 2229 005c 4FF0E046 		mov	r6, #1879048192
 2230 0060 E9E7     		b	.L183
 2231              	.LVL195:
 2232              	.L186:
1244:/home/phong/Documents/thesis/stm32f4/stm-idf/components/stm32f4xx_hal_driver/stm32f4xx_hal_nand.c ****         *(__IO uint8_t *)((uint32_t)(deviceaddress | ADDR_AREA)) = ADDR_1ST_CYCLE(nandaddress);
 2233              		.loc 1 1244 0
 2234 0062 46F40033 		orr	r3, r6, #131072
 2235 0066 0022     		movs	r2, #0
 2236 0068 1A70     		strb	r2, [r3]
1245:/home/phong/Documents/thesis/stm32f4/stm-idf/components/stm32f4xx_hal_driver/stm32f4xx_hal_nand.c ****         *(__IO uint8_t *)((uint32_t)(deviceaddress | ADDR_AREA)) = ADDR_2ND_CYCLE(nandaddress);
 2237              		.loc 1 1245 0
 2238 006a 5FFA88F2 		uxtb	r2, r8
 2239 006e 1A70     		strb	r2, [r3]
1246:/home/phong/Documents/thesis/stm32f4/stm-idf/components/stm32f4xx_hal_driver/stm32f4xx_hal_nand.c ****         *(__IO uint8_t *)((uint32_t)(deviceaddress | ADDR_AREA)) = ADDR_3RD_CYCLE(nandaddress);
 2240              		.loc 1 1246 0
 2241 0070 C8F30722 		ubfx	r2, r8, #8, #8
ARM GAS  /tmp/ccM6uMDT.s 			page 91


 2242 0074 1A70     		strb	r2, [r3]
1247:/home/phong/Documents/thesis/stm32f4/stm-idf/components/stm32f4xx_hal_driver/stm32f4xx_hal_nand.c ****       }
 2243              		.loc 1 1247 0
 2244 0076 C8F30742 		ubfx	r2, r8, #16, #8
 2245 007a 1A70     		strb	r2, [r3]
 2246 007c 63E0     		b	.L187
 2247              	.L185:
1253:/home/phong/Documents/thesis/stm32f4/stm-idf/components/stm32f4xx_hal_driver/stm32f4xx_hal_nand.c ****       
 2248              		.loc 1 1253 0
 2249 007e 46F48033 		orr	r3, r6, #65536
 2250 0082 0022     		movs	r2, #0
 2251 0084 1A70     		strb	r2, [r3]
1255:/home/phong/Documents/thesis/stm32f4/stm-idf/components/stm32f4xx_hal_driver/stm32f4xx_hal_nand.c ****       {
 2252              		.loc 1 1255 0
 2253 0086 FA6A     		ldr	r2, [r7, #44]
 2254 0088 3B6B     		ldr	r3, [r7, #48]
 2255 008a 03FB02F3 		mul	r3, r3, r2
 2256 008e B3F5803F 		cmp	r3, #65536
 2257 0092 0ED2     		bcs	.L188
1257:/home/phong/Documents/thesis/stm32f4/stm-idf/components/stm32f4xx_hal_driver/stm32f4xx_hal_nand.c ****         *(__IO uint8_t *)((uint32_t)(deviceaddress | ADDR_AREA)) = COLUMN_2ND_CYCLE(columnaddress);
 2258              		.loc 1 1257 0
 2259 0094 46F40033 		orr	r3, r6, #131072
 2260 0098 0199     		ldr	r1, [sp, #4]
 2261 009a CAB2     		uxtb	r2, r1
 2262 009c 1A70     		strb	r2, [r3]
1258:/home/phong/Documents/thesis/stm32f4/stm-idf/components/stm32f4xx_hal_driver/stm32f4xx_hal_nand.c ****         *(__IO uint8_t *)((uint32_t)(deviceaddress | ADDR_AREA)) = ADDR_1ST_CYCLE(nandaddress);
 2263              		.loc 1 1258 0
 2264 009e C1F30722 		ubfx	r2, r1, #8, #8
 2265 00a2 1A70     		strb	r2, [r3]
1259:/home/phong/Documents/thesis/stm32f4/stm-idf/components/stm32f4xx_hal_driver/stm32f4xx_hal_nand.c ****         *(__IO uint8_t *)((uint32_t)(deviceaddress | ADDR_AREA)) = ADDR_2ND_CYCLE(nandaddress);
 2266              		.loc 1 1259 0
 2267 00a4 5FFA88F2 		uxtb	r2, r8
 2268 00a8 1A70     		strb	r2, [r3]
1260:/home/phong/Documents/thesis/stm32f4/stm-idf/components/stm32f4xx_hal_driver/stm32f4xx_hal_nand.c ****       }
 2269              		.loc 1 1260 0
 2270 00aa C8F30722 		ubfx	r2, r8, #8, #8
 2271 00ae 1A70     		strb	r2, [r3]
 2272 00b0 49E0     		b	.L187
 2273              	.L188:
1264:/home/phong/Documents/thesis/stm32f4/stm-idf/components/stm32f4xx_hal_driver/stm32f4xx_hal_nand.c ****         *(__IO uint8_t *)((uint32_t)(deviceaddress | ADDR_AREA)) = COLUMN_2ND_CYCLE(columnaddress);
 2274              		.loc 1 1264 0
 2275 00b2 46F40033 		orr	r3, r6, #131072
 2276 00b6 0199     		ldr	r1, [sp, #4]
 2277 00b8 CAB2     		uxtb	r2, r1
 2278 00ba 1A70     		strb	r2, [r3]
1265:/home/phong/Documents/thesis/stm32f4/stm-idf/components/stm32f4xx_hal_driver/stm32f4xx_hal_nand.c ****         *(__IO uint8_t *)((uint32_t)(deviceaddress | ADDR_AREA)) = ADDR_1ST_CYCLE(nandaddress);
 2279              		.loc 1 1265 0
 2280 00bc C1F30722 		ubfx	r2, r1, #8, #8
 2281 00c0 1A70     		strb	r2, [r3]
1266:/home/phong/Documents/thesis/stm32f4/stm-idf/components/stm32f4xx_hal_driver/stm32f4xx_hal_nand.c ****         *(__IO uint8_t *)((uint32_t)(deviceaddress | ADDR_AREA)) = ADDR_2ND_CYCLE(nandaddress);
 2282              		.loc 1 1266 0
 2283 00c2 5FFA88F2 		uxtb	r2, r8
 2284 00c6 1A70     		strb	r2, [r3]
1267:/home/phong/Documents/thesis/stm32f4/stm-idf/components/stm32f4xx_hal_driver/stm32f4xx_hal_nand.c ****         *(__IO uint8_t *)((uint32_t)(deviceaddress | ADDR_AREA)) = ADDR_3RD_CYCLE(nandaddress);
 2285              		.loc 1 1267 0
 2286 00c8 C8F30722 		ubfx	r2, r8, #8, #8
 2287 00cc 1A70     		strb	r2, [r3]
ARM GAS  /tmp/ccM6uMDT.s 			page 92


1268:/home/phong/Documents/thesis/stm32f4/stm-idf/components/stm32f4xx_hal_driver/stm32f4xx_hal_nand.c ****       }
 2288              		.loc 1 1268 0
 2289 00ce C8F30742 		ubfx	r2, r8, #16, #8
 2290 00d2 1A70     		strb	r2, [r3]
 2291 00d4 37E0     		b	.L187
 2292              	.LVL196:
 2293              	.L202:
1289:/home/phong/Documents/thesis/stm32f4/stm-idf/components/stm32f4xx_hal_driver/stm32f4xx_hal_nand.c ****     }
 2294              		.loc 1 1289 0
 2295 00d6 0023     		movs	r3, #0
 2296 00d8 8BF80030 		strb	r3, [fp]
 2297 00dc 05E0     		b	.L192
 2298              	.LVL197:
 2299              	.L193:
1295:/home/phong/Documents/thesis/stm32f4/stm-idf/components/stm32f4xx_hal_driver/stm32f4xx_hal_nand.c ****     }
 2300              		.loc 1 1295 0 discriminator 2
 2301 00de 3388     		ldrh	r3, [r6]
 2302 00e0 2380     		strh	r3, [r4]	@ movhi
1293:/home/phong/Documents/thesis/stm32f4/stm-idf/components/stm32f4xx_hal_driver/stm32f4xx_hal_nand.c ****     {
 2303              		.loc 1 1293 0 discriminator 2
 2304 00e2 039B     		ldr	r3, [sp, #12]
 2305 00e4 0133     		adds	r3, r3, #1
 2306 00e6 0393     		str	r3, [sp, #12]
1295:/home/phong/Documents/thesis/stm32f4/stm-idf/components/stm32f4xx_hal_driver/stm32f4xx_hal_nand.c ****     }
 2307              		.loc 1 1295 0 discriminator 2
 2308 00e8 0234     		adds	r4, r4, #2
 2309              	.LVL198:
 2310              	.L192:
1293:/home/phong/Documents/thesis/stm32f4/stm-idf/components/stm32f4xx_hal_driver/stm32f4xx_hal_nand.c ****     {
 2311              		.loc 1 1293 0 discriminator 1
 2312 00ea 039B     		ldr	r3, [sp, #12]
 2313 00ec 9D42     		cmp	r5, r3
 2314 00ee F6D8     		bhi	.L193
 2315              	.LVL199:
1302:/home/phong/Documents/thesis/stm32f4/stm-idf/components/stm32f4xx_hal_driver/stm32f4xx_hal_nand.c ****     
 2316              		.loc 1 1302 0
 2317 00f0 09F1FF39 		add	r9, r9, #-1
 2318              	.LVL200:
1305:/home/phong/Documents/thesis/stm32f4/stm-idf/components/stm32f4xx_hal_driver/stm32f4xx_hal_nand.c ****   }
 2319              		.loc 1 1305 0
 2320 00f4 08F10108 		add	r8, r8, #1
 2321              	.LVL201:
 2322              	.L184:
1225:/home/phong/Documents/thesis/stm32f4/stm-idf/components/stm32f4xx_hal_driver/stm32f4xx_hal_nand.c ****   {
 2323              		.loc 1 1225 0
 2324 00f8 B9F1000F 		cmp	r9, #0
 2325 00fc 3DD0     		beq	.L194
1225:/home/phong/Documents/thesis/stm32f4/stm-idf/components/stm32f4xx_hal_driver/stm32f4xx_hal_nand.c ****   {
 2326              		.loc 1 1225 0 is_stmt 0 discriminator 1
 2327 00fe FA6A     		ldr	r2, [r7, #44]
 2328 0100 3B6B     		ldr	r3, [r7, #48]
 2329 0102 03FB02F3 		mul	r3, r3, r2
 2330 0106 9845     		cmp	r8, r3
 2331 0108 37D2     		bcs	.L194
1228:/home/phong/Documents/thesis/stm32f4/stm-idf/components/stm32f4xx_hal_driver/stm32f4xx_hal_nand.c **** 
 2332              		.loc 1 1228 0 is_stmt 1
 2333 010a 0AF1010A 		add	r10, r10, #1
ARM GAS  /tmp/ccM6uMDT.s 			page 93


 2334              	.LVL202:
 2335 010e BD6A     		ldr	r5, [r7, #40]
 2336 0110 05FB0AF5 		mul	r5, r5, r10
 2337              	.LVL203:
1231:/home/phong/Documents/thesis/stm32f4/stm-idf/components/stm32f4xx_hal_driver/stm32f4xx_hal_nand.c ****     {
 2338              		.loc 1 1231 0
 2339 0114 7B6A     		ldr	r3, [r7, #36]
 2340 0116 B3F5007F 		cmp	r3, #512
 2341 011a B0D8     		bhi	.L185
1234:/home/phong/Documents/thesis/stm32f4/stm-idf/components/stm32f4xx_hal_driver/stm32f4xx_hal_nand.c ****       
 2342              		.loc 1 1234 0
 2343 011c 46F48033 		orr	r3, r6, #65536
 2344 0120 5022     		movs	r2, #80
 2345 0122 1A70     		strb	r2, [r3]
1236:/home/phong/Documents/thesis/stm32f4/stm-idf/components/stm32f4xx_hal_driver/stm32f4xx_hal_nand.c ****       {
 2346              		.loc 1 1236 0
 2347 0124 FA6A     		ldr	r2, [r7, #44]
 2348 0126 3B6B     		ldr	r3, [r7, #48]
 2349 0128 03FB02F3 		mul	r3, r3, r2
 2350 012c B3F5803F 		cmp	r3, #65536
 2351 0130 97D2     		bcs	.L186
1238:/home/phong/Documents/thesis/stm32f4/stm-idf/components/stm32f4xx_hal_driver/stm32f4xx_hal_nand.c ****         *(__IO uint8_t *)((uint32_t)(deviceaddress | ADDR_AREA)) = ADDR_1ST_CYCLE(nandaddress);
 2352              		.loc 1 1238 0
 2353 0132 46F40033 		orr	r3, r6, #131072
 2354 0136 0022     		movs	r2, #0
 2355 0138 1A70     		strb	r2, [r3]
1239:/home/phong/Documents/thesis/stm32f4/stm-idf/components/stm32f4xx_hal_driver/stm32f4xx_hal_nand.c ****         *(__IO uint8_t *)((uint32_t)(deviceaddress | ADDR_AREA)) = ADDR_2ND_CYCLE(nandaddress);
 2356              		.loc 1 1239 0
 2357 013a 5FFA88F2 		uxtb	r2, r8
 2358 013e 1A70     		strb	r2, [r3]
1240:/home/phong/Documents/thesis/stm32f4/stm-idf/components/stm32f4xx_hal_driver/stm32f4xx_hal_nand.c ****       }
 2359              		.loc 1 1240 0
 2360 0140 C8F30722 		ubfx	r2, r8, #8, #8
 2361 0144 1A70     		strb	r2, [r3]
 2362              	.L187:
1272:/home/phong/Documents/thesis/stm32f4/stm-idf/components/stm32f4xx_hal_driver/stm32f4xx_hal_nand.c **** 
 2363              		.loc 1 1272 0
 2364 0146 46F4803B 		orr	fp, r6, #65536
 2365 014a 3023     		movs	r3, #48
 2366 014c 8BF80030 		strb	r3, [fp]
1274:/home/phong/Documents/thesis/stm32f4/stm-idf/components/stm32f4xx_hal_driver/stm32f4xx_hal_nand.c ****     {
 2367              		.loc 1 1274 0
 2368 0150 97F83C30 		ldrb	r3, [r7, #60]	@ zero_extendqisi2
 2369 0154 012B     		cmp	r3, #1
 2370 0156 C8D1     		bne	.L192
1277:/home/phong/Documents/thesis/stm32f4/stm-idf/components/stm32f4xx_hal_driver/stm32f4xx_hal_nand.c ****       
 2371              		.loc 1 1277 0
 2372 0158 FFF7FEFF 		bl	HAL_GetTick
 2373              	.LVL204:
 2374 015c 0090     		str	r0, [sp]
 2375              	.LVL205:
 2376              	.L190:
1280:/home/phong/Documents/thesis/stm32f4/stm-idf/components/stm32f4xx_hal_driver/stm32f4xx_hal_nand.c ****       {
 2377              		.loc 1 1280 0
 2378 015e 3846     		mov	r0, r7
 2379 0160 FFF7FEFF 		bl	HAL_NAND_Read_Status
 2380              	.LVL206:
ARM GAS  /tmp/ccM6uMDT.s 			page 94


 2381 0164 4028     		cmp	r0, #64
 2382 0166 B6D0     		beq	.L202
1282:/home/phong/Documents/thesis/stm32f4/stm-idf/components/stm32f4xx_hal_driver/stm32f4xx_hal_nand.c ****         {
 2383              		.loc 1 1282 0
 2384 0168 FFF7FEFF 		bl	HAL_GetTick
 2385              	.LVL207:
 2386 016c 009B     		ldr	r3, [sp]
 2387 016e C01A     		subs	r0, r0, r3
 2388 0170 B0F1807F 		cmp	r0, #16777216
 2389 0174 F3D9     		bls	.L190
1284:/home/phong/Documents/thesis/stm32f4/stm-idf/components/stm32f4xx_hal_driver/stm32f4xx_hal_nand.c ****         }
 2390              		.loc 1 1284 0
 2391 0176 0320     		movs	r0, #3
 2392 0178 07E0     		b	.L182
 2393              	.LVL208:
 2394              	.L194:
1309:/home/phong/Documents/thesis/stm32f4/stm-idf/components/stm32f4xx_hal_driver/stm32f4xx_hal_nand.c ****   
 2395              		.loc 1 1309 0
 2396 017a 0123     		movs	r3, #1
 2397 017c 87F82130 		strb	r3, [r7, #33]
1312:/home/phong/Documents/thesis/stm32f4/stm-idf/components/stm32f4xx_hal_driver/stm32f4xx_hal_nand.c **** 
 2398              		.loc 1 1312 0
 2399 0180 0020     		movs	r0, #0
 2400 0182 87F82000 		strb	r0, [r7, #32]
1314:/home/phong/Documents/thesis/stm32f4/stm-idf/components/stm32f4xx_hal_driver/stm32f4xx_hal_nand.c **** }
 2401              		.loc 1 1314 0
 2402 0186 00E0     		b	.L182
 2403              	.LVL209:
 2404              	.L196:
1197:/home/phong/Documents/thesis/stm32f4/stm-idf/components/stm32f4xx_hal_driver/stm32f4xx_hal_nand.c ****   
 2405              		.loc 1 1197 0
 2406 0188 0220     		movs	r0, #2
 2407              	.LVL210:
 2408              	.L182:
1315:/home/phong/Documents/thesis/stm32f4/stm-idf/components/stm32f4xx_hal_driver/stm32f4xx_hal_nand.c **** 
 2409              		.loc 1 1315 0
 2410 018a 05B0     		add	sp, sp, #20
 2411              	.LCFI31:
 2412              		.cfi_remember_state
 2413              		.cfi_def_cfa_offset 36
 2414              		@ sp needed
 2415 018c BDE8F08F 		pop	{r4, r5, r6, r7, r8, r9, r10, fp, pc}
 2416              	.LVL211:
 2417              	.L197:
 2418              	.LCFI32:
 2419              		.cfi_restore_state
1202:/home/phong/Documents/thesis/stm32f4/stm-idf/components/stm32f4xx_hal_driver/stm32f4xx_hal_nand.c ****   }
 2420              		.loc 1 1202 0
 2421 0190 0220     		movs	r0, #2
 2422              	.LVL212:
 2423 0192 FAE7     		b	.L182
 2424              		.cfi_endproc
 2425              	.LFE144:
 2427              		.section	.text.HAL_NAND_Write_SpareArea_8b,"ax",%progbits
 2428              		.align	1
 2429              		.global	HAL_NAND_Write_SpareArea_8b
 2430              		.syntax unified
ARM GAS  /tmp/ccM6uMDT.s 			page 95


 2431              		.thumb
 2432              		.thumb_func
 2433              		.fpu fpv4-sp-d16
 2435              	HAL_NAND_Write_SpareArea_8b:
 2436              	.LFB145:
1327:/home/phong/Documents/thesis/stm32f4/stm-idf/components/stm32f4xx_hal_driver/stm32f4xx_hal_nand.c ****   __IO uint32_t index = 0U;
 2437              		.loc 1 1327 0
 2438              		.cfi_startproc
 2439              		@ args = 0, pretend = 0, frame = 8
 2440              		@ frame_needed = 0, uses_anonymous_args = 0
 2441              	.LVL213:
 2442 0000 2DE9F04F 		push	{r4, r5, r6, r7, r8, r9, r10, fp, lr}
 2443              	.LCFI33:
 2444              		.cfi_def_cfa_offset 36
 2445              		.cfi_offset 4, -36
 2446              		.cfi_offset 5, -32
 2447              		.cfi_offset 6, -28
 2448              		.cfi_offset 7, -24
 2449              		.cfi_offset 8, -20
 2450              		.cfi_offset 9, -16
 2451              		.cfi_offset 10, -12
 2452              		.cfi_offset 11, -8
 2453              		.cfi_offset 14, -4
 2454 0004 83B0     		sub	sp, sp, #12
 2455              	.LCFI34:
 2456              		.cfi_def_cfa_offset 48
 2457 0006 9846     		mov	r8, r3
1328:/home/phong/Documents/thesis/stm32f4/stm-idf/components/stm32f4xx_hal_driver/stm32f4xx_hal_nand.c ****   uint32_t tickstart = 0U;
 2458              		.loc 1 1328 0
 2459 0008 0023     		movs	r3, #0
 2460              	.LVL214:
 2461 000a 0193     		str	r3, [sp, #4]
 2462              	.LVL215:
1333:/home/phong/Documents/thesis/stm32f4/stm-idf/components/stm32f4xx_hal_driver/stm32f4xx_hal_nand.c ****   
 2463              		.loc 1 1333 0
 2464 000c 90F82030 		ldrb	r3, [r0, #32]	@ zero_extendqisi2
 2465 0010 012B     		cmp	r3, #1
 2466 0012 00F0AF80 		beq	.L217
 2467 0016 0546     		mov	r5, r0
 2468 0018 1446     		mov	r4, r2
1333:/home/phong/Documents/thesis/stm32f4/stm-idf/components/stm32f4xx_hal_driver/stm32f4xx_hal_nand.c ****   
 2469              		.loc 1 1333 0 is_stmt 0 discriminator 2
 2470 001a 0123     		movs	r3, #1
 2471 001c 80F82030 		strb	r3, [r0, #32]
1336:/home/phong/Documents/thesis/stm32f4/stm-idf/components/stm32f4xx_hal_driver/stm32f4xx_hal_nand.c ****   {
 2472              		.loc 1 1336 0 is_stmt 1 discriminator 2
 2473 0020 90F82130 		ldrb	r3, [r0, #33]	@ zero_extendqisi2
 2474 0024 DBB2     		uxtb	r3, r3
 2475 0026 022B     		cmp	r3, #2
 2476 0028 00F0A880 		beq	.L218
1342:/home/phong/Documents/thesis/stm32f4/stm-idf/components/stm32f4xx_hal_driver/stm32f4xx_hal_nand.c ****   {
 2477              		.loc 1 1342 0
 2478 002c 4368     		ldr	r3, [r0, #4]
 2479 002e 102B     		cmp	r3, #16
 2480 0030 3BD0     		beq	.L222
1348:/home/phong/Documents/thesis/stm32f4/stm-idf/components/stm32f4xx_hal_driver/stm32f4xx_hal_nand.c ****   }
 2481              		.loc 1 1348 0
ARM GAS  /tmp/ccM6uMDT.s 			page 96


 2482 0032 4FF00046 		mov	r6, #-2147483648
 2483              	.L205:
 2484              	.LVL216:
1352:/home/phong/Documents/thesis/stm32f4/stm-idf/components/stm32f4xx_hal_driver/stm32f4xx_hal_nand.c ****   
 2485              		.loc 1 1352 0
 2486 0036 0223     		movs	r3, #2
 2487 0038 85F82130 		strb	r3, [r5, #33]
1355:/home/phong/Documents/thesis/stm32f4/stm-idf/components/stm32f4xx_hal_driver/stm32f4xx_hal_nand.c ****   
 2488              		.loc 1 1355 0
 2489 003c 0B88     		ldrh	r3, [r1]
 2490 003e 8A88     		ldrh	r2, [r1, #4]
 2491              	.LVL217:
 2492 0040 4F88     		ldrh	r7, [r1, #2]
 2493 0042 A96B     		ldr	r1, [r5, #56]
 2494              	.LVL218:
 2495 0044 01FB0727 		mla	r7, r1, r7, r2
 2496 0048 EA6A     		ldr	r2, [r5, #44]
 2497 004a 02FB0737 		mla	r7, r2, r7, r3
 2498              	.LVL219:
1358:/home/phong/Documents/thesis/stm32f4/stm-idf/components/stm32f4xx_hal_driver/stm32f4xx_hal_nand.c ****   
 2499              		.loc 1 1358 0
 2500 004e D5F824A0 		ldr	r10, [r5, #36]
 2501              	.LVL220:
1330:/home/phong/Documents/thesis/stm32f4/stm-idf/components/stm32f4xx_hal_driver/stm32f4xx_hal_nand.c **** 
 2502              		.loc 1 1330 0
 2503 0052 4FF00009 		mov	r9, #0
 2504              	.LVL221:
 2505              	.L206:
1361:/home/phong/Documents/thesis/stm32f4/stm-idf/components/stm32f4xx_hal_driver/stm32f4xx_hal_nand.c ****   {
 2506              		.loc 1 1361 0
 2507 0056 B8F1000F 		cmp	r8, #0
 2508 005a 00F08480 		beq	.L215
1361:/home/phong/Documents/thesis/stm32f4/stm-idf/components/stm32f4xx_hal_driver/stm32f4xx_hal_nand.c ****   {
 2509              		.loc 1 1361 0 is_stmt 0 discriminator 1
 2510 005e EA6A     		ldr	r2, [r5, #44]
 2511 0060 2B6B     		ldr	r3, [r5, #48]
 2512 0062 03FB02F3 		mul	r3, r3, r2
 2513 0066 9F42     		cmp	r7, r3
 2514 0068 7DD2     		bcs	.L215
1364:/home/phong/Documents/thesis/stm32f4/stm-idf/components/stm32f4xx_hal_driver/stm32f4xx_hal_nand.c **** 
 2515              		.loc 1 1364 0 is_stmt 1
 2516 006a 09F10109 		add	r9, r9, #1
 2517              	.LVL222:
 2518 006e AA6A     		ldr	r2, [r5, #40]
 2519 0070 02FB09F2 		mul	r2, r2, r9
 2520              	.LVL223:
1367:/home/phong/Documents/thesis/stm32f4/stm-idf/components/stm32f4xx_hal_driver/stm32f4xx_hal_nand.c ****     {
 2521              		.loc 1 1367 0
 2522 0074 6B6A     		ldr	r3, [r5, #36]
 2523 0076 B3F5007F 		cmp	r3, #512
 2524 007a 26D8     		bhi	.L207
1370:/home/phong/Documents/thesis/stm32f4/stm-idf/components/stm32f4xx_hal_driver/stm32f4xx_hal_nand.c ****       *(__IO uint8_t *)((uint32_t)(deviceaddress | CMD_AREA)) = NAND_CMD_WRITE0;
 2525              		.loc 1 1370 0
 2526 007c 46F48033 		orr	r3, r6, #65536
 2527 0080 5021     		movs	r1, #80
 2528 0082 1970     		strb	r1, [r3]
1371:/home/phong/Documents/thesis/stm32f4/stm-idf/components/stm32f4xx_hal_driver/stm32f4xx_hal_nand.c ****       
ARM GAS  /tmp/ccM6uMDT.s 			page 97


 2529              		.loc 1 1371 0
 2530 0084 8021     		movs	r1, #128
 2531 0086 1970     		strb	r1, [r3]
1373:/home/phong/Documents/thesis/stm32f4/stm-idf/components/stm32f4xx_hal_driver/stm32f4xx_hal_nand.c ****       {
 2532              		.loc 1 1373 0
 2533 0088 E96A     		ldr	r1, [r5, #44]
 2534 008a 2B6B     		ldr	r3, [r5, #48]
 2535 008c 03FB01F3 		mul	r3, r3, r1
 2536 0090 B3F5803F 		cmp	r3, #65536
 2537 0094 0CD2     		bcs	.L208
1375:/home/phong/Documents/thesis/stm32f4/stm-idf/components/stm32f4xx_hal_driver/stm32f4xx_hal_nand.c ****         *(__IO uint8_t *)((uint32_t)(deviceaddress | ADDR_AREA)) = ADDR_1ST_CYCLE(nandaddress);
 2538              		.loc 1 1375 0
 2539 0096 46F40033 		orr	r3, r6, #131072
 2540 009a 0021     		movs	r1, #0
 2541 009c 1970     		strb	r1, [r3]
1376:/home/phong/Documents/thesis/stm32f4/stm-idf/components/stm32f4xx_hal_driver/stm32f4xx_hal_nand.c ****         *(__IO uint8_t *)((uint32_t)(deviceaddress | ADDR_AREA)) = ADDR_2ND_CYCLE(nandaddress);
 2542              		.loc 1 1376 0
 2543 009e F9B2     		uxtb	r1, r7
 2544 00a0 1970     		strb	r1, [r3]
1377:/home/phong/Documents/thesis/stm32f4/stm-idf/components/stm32f4xx_hal_driver/stm32f4xx_hal_nand.c ****       }
 2545              		.loc 1 1377 0
 2546 00a2 C7F30721 		ubfx	r1, r7, #8, #8
 2547 00a6 1970     		strb	r1, [r3]
 2548 00a8 41E0     		b	.L211
 2549              	.LVL224:
 2550              	.L222:
1344:/home/phong/Documents/thesis/stm32f4/stm-idf/components/stm32f4xx_hal_driver/stm32f4xx_hal_nand.c ****   }
 2551              		.loc 1 1344 0
 2552 00aa 4FF0E046 		mov	r6, #1879048192
 2553 00ae C2E7     		b	.L205
 2554              	.LVL225:
 2555              	.L208:
1381:/home/phong/Documents/thesis/stm32f4/stm-idf/components/stm32f4xx_hal_driver/stm32f4xx_hal_nand.c ****         *(__IO uint8_t *)((uint32_t)(deviceaddress | ADDR_AREA)) = ADDR_1ST_CYCLE(nandaddress);
 2556              		.loc 1 1381 0
 2557 00b0 46F40033 		orr	r3, r6, #131072
 2558 00b4 0021     		movs	r1, #0
 2559 00b6 1970     		strb	r1, [r3]
1382:/home/phong/Documents/thesis/stm32f4/stm-idf/components/stm32f4xx_hal_driver/stm32f4xx_hal_nand.c ****         *(__IO uint8_t *)((uint32_t)(deviceaddress | ADDR_AREA)) = ADDR_2ND_CYCLE(nandaddress);
 2560              		.loc 1 1382 0
 2561 00b8 F9B2     		uxtb	r1, r7
 2562 00ba 1970     		strb	r1, [r3]
1383:/home/phong/Documents/thesis/stm32f4/stm-idf/components/stm32f4xx_hal_driver/stm32f4xx_hal_nand.c ****         *(__IO uint8_t *)((uint32_t)(deviceaddress | ADDR_AREA)) = ADDR_3RD_CYCLE(nandaddress);
 2563              		.loc 1 1383 0
 2564 00bc C7F30721 		ubfx	r1, r7, #8, #8
 2565 00c0 1970     		strb	r1, [r3]
1384:/home/phong/Documents/thesis/stm32f4/stm-idf/components/stm32f4xx_hal_driver/stm32f4xx_hal_nand.c ****       }
 2566              		.loc 1 1384 0
 2567 00c2 C7F30741 		ubfx	r1, r7, #16, #8
 2568 00c6 1970     		strb	r1, [r3]
 2569 00c8 31E0     		b	.L211
 2570              	.L207:
1390:/home/phong/Documents/thesis/stm32f4/stm-idf/components/stm32f4xx_hal_driver/stm32f4xx_hal_nand.c ****       *(__IO uint8_t *)((uint32_t)(deviceaddress | CMD_AREA)) = NAND_CMD_WRITE0;
 2571              		.loc 1 1390 0
 2572 00ca 46F48033 		orr	r3, r6, #65536
 2573 00ce 0021     		movs	r1, #0
 2574 00d0 1970     		strb	r1, [r3]
1391:/home/phong/Documents/thesis/stm32f4/stm-idf/components/stm32f4xx_hal_driver/stm32f4xx_hal_nand.c ****     
ARM GAS  /tmp/ccM6uMDT.s 			page 98


 2575              		.loc 1 1391 0
 2576 00d2 8021     		movs	r1, #128
 2577 00d4 1970     		strb	r1, [r3]
1393:/home/phong/Documents/thesis/stm32f4/stm-idf/components/stm32f4xx_hal_driver/stm32f4xx_hal_nand.c ****       {
 2578              		.loc 1 1393 0
 2579 00d6 E96A     		ldr	r1, [r5, #44]
 2580 00d8 2B6B     		ldr	r3, [r5, #48]
 2581 00da 03FB01F3 		mul	r3, r3, r1
 2582 00de B3F5803F 		cmp	r3, #65536
 2583 00e2 0DD2     		bcs	.L210
1395:/home/phong/Documents/thesis/stm32f4/stm-idf/components/stm32f4xx_hal_driver/stm32f4xx_hal_nand.c ****         *(__IO uint8_t *)((uint32_t)(deviceaddress | ADDR_AREA)) = COLUMN_2ND_CYCLE(columnaddress);
 2584              		.loc 1 1395 0
 2585 00e4 46F40033 		orr	r3, r6, #131072
 2586 00e8 5FFA8AF1 		uxtb	r1, r10
 2587 00ec 1970     		strb	r1, [r3]
1396:/home/phong/Documents/thesis/stm32f4/stm-idf/components/stm32f4xx_hal_driver/stm32f4xx_hal_nand.c ****         *(__IO uint8_t *)((uint32_t)(deviceaddress | ADDR_AREA)) = ADDR_1ST_CYCLE(nandaddress);
 2588              		.loc 1 1396 0
 2589 00ee CAF30721 		ubfx	r1, r10, #8, #8
 2590 00f2 1970     		strb	r1, [r3]
1397:/home/phong/Documents/thesis/stm32f4/stm-idf/components/stm32f4xx_hal_driver/stm32f4xx_hal_nand.c ****         *(__IO uint8_t *)((uint32_t)(deviceaddress | ADDR_AREA)) = ADDR_2ND_CYCLE(nandaddress);
 2591              		.loc 1 1397 0
 2592 00f4 F9B2     		uxtb	r1, r7
 2593 00f6 1970     		strb	r1, [r3]
1398:/home/phong/Documents/thesis/stm32f4/stm-idf/components/stm32f4xx_hal_driver/stm32f4xx_hal_nand.c ****       }
 2594              		.loc 1 1398 0
 2595 00f8 C7F30721 		ubfx	r1, r7, #8, #8
 2596 00fc 1970     		strb	r1, [r3]
 2597 00fe 16E0     		b	.L211
 2598              	.L210:
1402:/home/phong/Documents/thesis/stm32f4/stm-idf/components/stm32f4xx_hal_driver/stm32f4xx_hal_nand.c ****         *(__IO uint8_t *)((uint32_t)(deviceaddress | ADDR_AREA)) = COLUMN_2ND_CYCLE(columnaddress);
 2599              		.loc 1 1402 0
 2600 0100 46F40033 		orr	r3, r6, #131072
 2601 0104 5FFA8AF1 		uxtb	r1, r10
 2602 0108 1970     		strb	r1, [r3]
1403:/home/phong/Documents/thesis/stm32f4/stm-idf/components/stm32f4xx_hal_driver/stm32f4xx_hal_nand.c ****         *(__IO uint8_t *)((uint32_t)(deviceaddress | ADDR_AREA)) = ADDR_1ST_CYCLE(nandaddress);
 2603              		.loc 1 1403 0
 2604 010a CAF30721 		ubfx	r1, r10, #8, #8
 2605 010e 1970     		strb	r1, [r3]
1404:/home/phong/Documents/thesis/stm32f4/stm-idf/components/stm32f4xx_hal_driver/stm32f4xx_hal_nand.c ****         *(__IO uint8_t *)((uint32_t)(deviceaddress | ADDR_AREA)) = ADDR_2ND_CYCLE(nandaddress);
 2606              		.loc 1 1404 0
 2607 0110 F9B2     		uxtb	r1, r7
 2608 0112 1970     		strb	r1, [r3]
1405:/home/phong/Documents/thesis/stm32f4/stm-idf/components/stm32f4xx_hal_driver/stm32f4xx_hal_nand.c ****         *(__IO uint8_t *)((uint32_t)(deviceaddress | ADDR_AREA)) = ADDR_3RD_CYCLE(nandaddress);
 2609              		.loc 1 1405 0
 2610 0114 C7F30721 		ubfx	r1, r7, #8, #8
 2611 0118 1970     		strb	r1, [r3]
1406:/home/phong/Documents/thesis/stm32f4/stm-idf/components/stm32f4xx_hal_driver/stm32f4xx_hal_nand.c ****       }
 2612              		.loc 1 1406 0
 2613 011a C7F30741 		ubfx	r1, r7, #16, #8
 2614 011e 1970     		strb	r1, [r3]
 2615 0120 05E0     		b	.L211
 2616              	.L212:
 2617              	.LVL226:
1413:/home/phong/Documents/thesis/stm32f4/stm-idf/components/stm32f4xx_hal_driver/stm32f4xx_hal_nand.c ****     }
 2618              		.loc 1 1413 0 discriminator 2
 2619 0122 2378     		ldrb	r3, [r4]	@ zero_extendqisi2
 2620 0124 3370     		strb	r3, [r6]
ARM GAS  /tmp/ccM6uMDT.s 			page 99


1411:/home/phong/Documents/thesis/stm32f4/stm-idf/components/stm32f4xx_hal_driver/stm32f4xx_hal_nand.c ****     {
 2621              		.loc 1 1411 0 discriminator 2
 2622 0126 019B     		ldr	r3, [sp, #4]
 2623 0128 0133     		adds	r3, r3, #1
 2624 012a 0193     		str	r3, [sp, #4]
1413:/home/phong/Documents/thesis/stm32f4/stm-idf/components/stm32f4xx_hal_driver/stm32f4xx_hal_nand.c ****     }
 2625              		.loc 1 1413 0 discriminator 2
 2626 012c 0134     		adds	r4, r4, #1
 2627              	.LVL227:
 2628              	.L211:
1411:/home/phong/Documents/thesis/stm32f4/stm-idf/components/stm32f4xx_hal_driver/stm32f4xx_hal_nand.c ****     {
 2629              		.loc 1 1411 0 discriminator 1
 2630 012e 019B     		ldr	r3, [sp, #4]
 2631 0130 9A42     		cmp	r2, r3
 2632 0132 F6D8     		bhi	.L212
1416:/home/phong/Documents/thesis/stm32f4/stm-idf/components/stm32f4xx_hal_driver/stm32f4xx_hal_nand.c ****     
 2633              		.loc 1 1416 0
 2634 0134 46F48033 		orr	r3, r6, #65536
 2635 0138 1022     		movs	r2, #16
 2636              	.LVL228:
 2637 013a 1A70     		strb	r2, [r3]
1419:/home/phong/Documents/thesis/stm32f4/stm-idf/components/stm32f4xx_hal_driver/stm32f4xx_hal_nand.c ****     
 2638              		.loc 1 1419 0
 2639 013c FFF7FEFF 		bl	HAL_GetTick
 2640              	.LVL229:
 2641 0140 8346     		mov	fp, r0
 2642              	.LVL230:
 2643              	.L213:
1422:/home/phong/Documents/thesis/stm32f4/stm-idf/components/stm32f4xx_hal_driver/stm32f4xx_hal_nand.c ****     {
 2644              		.loc 1 1422 0
 2645 0142 2846     		mov	r0, r5
 2646 0144 FFF7FEFF 		bl	HAL_NAND_Read_Status
 2647              	.LVL231:
 2648 0148 4028     		cmp	r0, #64
 2649 014a 08D0     		beq	.L223
1424:/home/phong/Documents/thesis/stm32f4/stm-idf/components/stm32f4xx_hal_driver/stm32f4xx_hal_nand.c ****       {
 2650              		.loc 1 1424 0
 2651 014c FFF7FEFF 		bl	HAL_GetTick
 2652              	.LVL232:
 2653 0150 A0EB0B00 		sub	r0, r0, fp
 2654 0154 B0F1807F 		cmp	r0, #16777216
 2655 0158 F3D9     		bls	.L213
1426:/home/phong/Documents/thesis/stm32f4/stm-idf/components/stm32f4xx_hal_driver/stm32f4xx_hal_nand.c ****       }
 2656              		.loc 1 1426 0
 2657 015a 0320     		movs	r0, #3
 2658 015c 0BE0     		b	.L204
 2659              	.L223:
 2660              	.LVL233:
1434:/home/phong/Documents/thesis/stm32f4/stm-idf/components/stm32f4xx_hal_driver/stm32f4xx_hal_nand.c ****     
 2661              		.loc 1 1434 0
 2662 015e 08F1FF38 		add	r8, r8, #-1
 2663              	.LVL234:
1437:/home/phong/Documents/thesis/stm32f4/stm-idf/components/stm32f4xx_hal_driver/stm32f4xx_hal_nand.c ****   }
 2664              		.loc 1 1437 0
 2665 0162 0137     		adds	r7, r7, #1
 2666              	.LVL235:
 2667 0164 77E7     		b	.L206
ARM GAS  /tmp/ccM6uMDT.s 			page 100


 2668              	.LVL236:
 2669              	.L215:
1441:/home/phong/Documents/thesis/stm32f4/stm-idf/components/stm32f4xx_hal_driver/stm32f4xx_hal_nand.c **** 
 2670              		.loc 1 1441 0
 2671 0166 0123     		movs	r3, #1
 2672 0168 85F82130 		strb	r3, [r5, #33]
1444:/home/phong/Documents/thesis/stm32f4/stm-idf/components/stm32f4xx_hal_driver/stm32f4xx_hal_nand.c ****     
 2673              		.loc 1 1444 0
 2674 016c 0020     		movs	r0, #0
 2675 016e 85F82000 		strb	r0, [r5, #32]
1446:/home/phong/Documents/thesis/stm32f4/stm-idf/components/stm32f4xx_hal_driver/stm32f4xx_hal_nand.c **** }
 2676              		.loc 1 1446 0
 2677 0172 00E0     		b	.L204
 2678              	.LVL237:
 2679              	.L217:
1333:/home/phong/Documents/thesis/stm32f4/stm-idf/components/stm32f4xx_hal_driver/stm32f4xx_hal_nand.c ****   
 2680              		.loc 1 1333 0
 2681 0174 0220     		movs	r0, #2
 2682              	.LVL238:
 2683              	.L204:
1447:/home/phong/Documents/thesis/stm32f4/stm-idf/components/stm32f4xx_hal_driver/stm32f4xx_hal_nand.c **** 
 2684              		.loc 1 1447 0
 2685 0176 03B0     		add	sp, sp, #12
 2686              	.LCFI35:
 2687              		.cfi_remember_state
 2688              		.cfi_def_cfa_offset 36
 2689              		@ sp needed
 2690 0178 BDE8F08F 		pop	{r4, r5, r6, r7, r8, r9, r10, fp, pc}
 2691              	.LVL239:
 2692              	.L218:
 2693              	.LCFI36:
 2694              		.cfi_restore_state
1338:/home/phong/Documents/thesis/stm32f4/stm-idf/components/stm32f4xx_hal_driver/stm32f4xx_hal_nand.c ****   }
 2695              		.loc 1 1338 0
 2696 017c 0220     		movs	r0, #2
 2697              	.LVL240:
 2698 017e FAE7     		b	.L204
 2699              		.cfi_endproc
 2700              	.LFE145:
 2702              		.section	.text.HAL_NAND_Write_SpareArea_16b,"ax",%progbits
 2703              		.align	1
 2704              		.global	HAL_NAND_Write_SpareArea_16b
 2705              		.syntax unified
 2706              		.thumb
 2707              		.thumb_func
 2708              		.fpu fpv4-sp-d16
 2710              	HAL_NAND_Write_SpareArea_16b:
 2711              	.LFB146:
1459:/home/phong/Documents/thesis/stm32f4/stm-idf/components/stm32f4xx_hal_driver/stm32f4xx_hal_nand.c ****   __IO uint32_t index = 0U;
 2712              		.loc 1 1459 0
 2713              		.cfi_startproc
 2714              		@ args = 0, pretend = 0, frame = 8
 2715              		@ frame_needed = 0, uses_anonymous_args = 0
 2716              	.LVL241:
 2717 0000 2DE9F04F 		push	{r4, r5, r6, r7, r8, r9, r10, fp, lr}
 2718              	.LCFI37:
 2719              		.cfi_def_cfa_offset 36
ARM GAS  /tmp/ccM6uMDT.s 			page 101


 2720              		.cfi_offset 4, -36
 2721              		.cfi_offset 5, -32
 2722              		.cfi_offset 6, -28
 2723              		.cfi_offset 7, -24
 2724              		.cfi_offset 8, -20
 2725              		.cfi_offset 9, -16
 2726              		.cfi_offset 10, -12
 2727              		.cfi_offset 11, -8
 2728              		.cfi_offset 14, -4
 2729 0004 83B0     		sub	sp, sp, #12
 2730              	.LCFI38:
 2731              		.cfi_def_cfa_offset 48
 2732 0006 9846     		mov	r8, r3
1460:/home/phong/Documents/thesis/stm32f4/stm-idf/components/stm32f4xx_hal_driver/stm32f4xx_hal_nand.c ****   uint32_t tickstart = 0U;
 2733              		.loc 1 1460 0
 2734 0008 0023     		movs	r3, #0
 2735              	.LVL242:
 2736 000a 0193     		str	r3, [sp, #4]
 2737              	.LVL243:
1465:/home/phong/Documents/thesis/stm32f4/stm-idf/components/stm32f4xx_hal_driver/stm32f4xx_hal_nand.c ****   
 2738              		.loc 1 1465 0
 2739 000c 90F82030 		ldrb	r3, [r0, #32]	@ zero_extendqisi2
 2740 0010 012B     		cmp	r3, #1
 2741 0012 00F0B080 		beq	.L238
 2742 0016 0546     		mov	r5, r0
 2743 0018 1446     		mov	r4, r2
1465:/home/phong/Documents/thesis/stm32f4/stm-idf/components/stm32f4xx_hal_driver/stm32f4xx_hal_nand.c ****   
 2744              		.loc 1 1465 0 is_stmt 0 discriminator 2
 2745 001a 0123     		movs	r3, #1
 2746 001c 80F82030 		strb	r3, [r0, #32]
1468:/home/phong/Documents/thesis/stm32f4/stm-idf/components/stm32f4xx_hal_driver/stm32f4xx_hal_nand.c ****   {
 2747              		.loc 1 1468 0 is_stmt 1 discriminator 2
 2748 0020 90F82130 		ldrb	r3, [r0, #33]	@ zero_extendqisi2
 2749 0024 DBB2     		uxtb	r3, r3
 2750 0026 022B     		cmp	r3, #2
 2751 0028 00F0A980 		beq	.L239
1474:/home/phong/Documents/thesis/stm32f4/stm-idf/components/stm32f4xx_hal_driver/stm32f4xx_hal_nand.c ****   {
 2752              		.loc 1 1474 0
 2753 002c 4368     		ldr	r3, [r0, #4]
 2754 002e 102B     		cmp	r3, #16
 2755 0030 3CD0     		beq	.L243
1480:/home/phong/Documents/thesis/stm32f4/stm-idf/components/stm32f4xx_hal_driver/stm32f4xx_hal_nand.c ****   }
 2756              		.loc 1 1480 0
 2757 0032 4FF00046 		mov	r6, #-2147483648
 2758              	.L226:
 2759              	.LVL244:
1484:/home/phong/Documents/thesis/stm32f4/stm-idf/components/stm32f4xx_hal_driver/stm32f4xx_hal_nand.c ****   
 2760              		.loc 1 1484 0
 2761 0036 0223     		movs	r3, #2
 2762 0038 85F82130 		strb	r3, [r5, #33]
1487:/home/phong/Documents/thesis/stm32f4/stm-idf/components/stm32f4xx_hal_driver/stm32f4xx_hal_nand.c ****   
 2763              		.loc 1 1487 0
 2764 003c 0B88     		ldrh	r3, [r1]
 2765 003e 8A88     		ldrh	r2, [r1, #4]
 2766              	.LVL245:
 2767 0040 4F88     		ldrh	r7, [r1, #2]
 2768 0042 A96B     		ldr	r1, [r5, #56]
ARM GAS  /tmp/ccM6uMDT.s 			page 102


 2769              	.LVL246:
 2770 0044 01FB0727 		mla	r7, r1, r7, r2
 2771 0048 EA6A     		ldr	r2, [r5, #44]
 2772 004a 02FB0737 		mla	r7, r2, r7, r3
 2773              	.LVL247:
1490:/home/phong/Documents/thesis/stm32f4/stm-idf/components/stm32f4xx_hal_driver/stm32f4xx_hal_nand.c ****   
 2774              		.loc 1 1490 0
 2775 004e 6B6A     		ldr	r3, [r5, #36]
 2776 0050 4FEA430A 		lsl	r10, r3, #1
 2777              	.LVL248:
1462:/home/phong/Documents/thesis/stm32f4/stm-idf/components/stm32f4xx_hal_driver/stm32f4xx_hal_nand.c **** 
 2778              		.loc 1 1462 0
 2779 0054 4FF00009 		mov	r9, #0
 2780              	.LVL249:
 2781              	.L227:
1493:/home/phong/Documents/thesis/stm32f4/stm-idf/components/stm32f4xx_hal_driver/stm32f4xx_hal_nand.c ****   {
 2782              		.loc 1 1493 0
 2783 0058 B8F1000F 		cmp	r8, #0
 2784 005c 00F08480 		beq	.L236
1493:/home/phong/Documents/thesis/stm32f4/stm-idf/components/stm32f4xx_hal_driver/stm32f4xx_hal_nand.c ****   {
 2785              		.loc 1 1493 0 is_stmt 0 discriminator 1
 2786 0060 EA6A     		ldr	r2, [r5, #44]
 2787 0062 2B6B     		ldr	r3, [r5, #48]
 2788 0064 03FB02F3 		mul	r3, r3, r2
 2789 0068 9F42     		cmp	r7, r3
 2790 006a 7DD2     		bcs	.L236
1496:/home/phong/Documents/thesis/stm32f4/stm-idf/components/stm32f4xx_hal_driver/stm32f4xx_hal_nand.c **** 
 2791              		.loc 1 1496 0 is_stmt 1
 2792 006c 09F10109 		add	r9, r9, #1
 2793              	.LVL250:
 2794 0070 AA6A     		ldr	r2, [r5, #40]
 2795 0072 02FB09F2 		mul	r2, r2, r9
 2796              	.LVL251:
1499:/home/phong/Documents/thesis/stm32f4/stm-idf/components/stm32f4xx_hal_driver/stm32f4xx_hal_nand.c ****     {
 2797              		.loc 1 1499 0
 2798 0076 6B6A     		ldr	r3, [r5, #36]
 2799 0078 B3F5007F 		cmp	r3, #512
 2800 007c 26D8     		bhi	.L228
1502:/home/phong/Documents/thesis/stm32f4/stm-idf/components/stm32f4xx_hal_driver/stm32f4xx_hal_nand.c ****       *(__IO uint8_t *)((uint32_t)(deviceaddress | CMD_AREA)) = NAND_CMD_WRITE0;
 2801              		.loc 1 1502 0
 2802 007e 46F48033 		orr	r3, r6, #65536
 2803 0082 5021     		movs	r1, #80
 2804 0084 1970     		strb	r1, [r3]
1503:/home/phong/Documents/thesis/stm32f4/stm-idf/components/stm32f4xx_hal_driver/stm32f4xx_hal_nand.c ****     
 2805              		.loc 1 1503 0
 2806 0086 8021     		movs	r1, #128
 2807 0088 1970     		strb	r1, [r3]
1505:/home/phong/Documents/thesis/stm32f4/stm-idf/components/stm32f4xx_hal_driver/stm32f4xx_hal_nand.c ****       {
 2808              		.loc 1 1505 0
 2809 008a E96A     		ldr	r1, [r5, #44]
 2810 008c 2B6B     		ldr	r3, [r5, #48]
 2811 008e 03FB01F3 		mul	r3, r3, r1
 2812 0092 B3F5803F 		cmp	r3, #65536
 2813 0096 0CD2     		bcs	.L229
1507:/home/phong/Documents/thesis/stm32f4/stm-idf/components/stm32f4xx_hal_driver/stm32f4xx_hal_nand.c ****         *(__IO uint8_t *)((uint32_t)(deviceaddress | ADDR_AREA)) = ADDR_1ST_CYCLE(nandaddress);
 2814              		.loc 1 1507 0
 2815 0098 46F40033 		orr	r3, r6, #131072
ARM GAS  /tmp/ccM6uMDT.s 			page 103


 2816 009c 0021     		movs	r1, #0
 2817 009e 1970     		strb	r1, [r3]
1508:/home/phong/Documents/thesis/stm32f4/stm-idf/components/stm32f4xx_hal_driver/stm32f4xx_hal_nand.c ****         *(__IO uint8_t *)((uint32_t)(deviceaddress | ADDR_AREA)) = ADDR_2ND_CYCLE(nandaddress);
 2818              		.loc 1 1508 0
 2819 00a0 F9B2     		uxtb	r1, r7
 2820 00a2 1970     		strb	r1, [r3]
1509:/home/phong/Documents/thesis/stm32f4/stm-idf/components/stm32f4xx_hal_driver/stm32f4xx_hal_nand.c ****       }
 2821              		.loc 1 1509 0
 2822 00a4 C7F30721 		ubfx	r1, r7, #8, #8
 2823 00a8 1970     		strb	r1, [r3]
 2824 00aa 41E0     		b	.L232
 2825              	.LVL252:
 2826              	.L243:
1476:/home/phong/Documents/thesis/stm32f4/stm-idf/components/stm32f4xx_hal_driver/stm32f4xx_hal_nand.c ****   }
 2827              		.loc 1 1476 0
 2828 00ac 4FF0E046 		mov	r6, #1879048192
 2829 00b0 C1E7     		b	.L226
 2830              	.LVL253:
 2831              	.L229:
1513:/home/phong/Documents/thesis/stm32f4/stm-idf/components/stm32f4xx_hal_driver/stm32f4xx_hal_nand.c ****         *(__IO uint8_t *)((uint32_t)(deviceaddress | ADDR_AREA)) = ADDR_1ST_CYCLE(nandaddress);
 2832              		.loc 1 1513 0
 2833 00b2 46F40033 		orr	r3, r6, #131072
 2834 00b6 0021     		movs	r1, #0
 2835 00b8 1970     		strb	r1, [r3]
1514:/home/phong/Documents/thesis/stm32f4/stm-idf/components/stm32f4xx_hal_driver/stm32f4xx_hal_nand.c ****         *(__IO uint8_t *)((uint32_t)(deviceaddress | ADDR_AREA)) = ADDR_2ND_CYCLE(nandaddress);
 2836              		.loc 1 1514 0
 2837 00ba F9B2     		uxtb	r1, r7
 2838 00bc 1970     		strb	r1, [r3]
1515:/home/phong/Documents/thesis/stm32f4/stm-idf/components/stm32f4xx_hal_driver/stm32f4xx_hal_nand.c ****         *(__IO uint8_t *)((uint32_t)(deviceaddress | ADDR_AREA)) = ADDR_3RD_CYCLE(nandaddress);
 2839              		.loc 1 1515 0
 2840 00be C7F30721 		ubfx	r1, r7, #8, #8
 2841 00c2 1970     		strb	r1, [r3]
1516:/home/phong/Documents/thesis/stm32f4/stm-idf/components/stm32f4xx_hal_driver/stm32f4xx_hal_nand.c ****       }
 2842              		.loc 1 1516 0
 2843 00c4 C7F30741 		ubfx	r1, r7, #16, #8
 2844 00c8 1970     		strb	r1, [r3]
 2845 00ca 31E0     		b	.L232
 2846              	.L228:
1522:/home/phong/Documents/thesis/stm32f4/stm-idf/components/stm32f4xx_hal_driver/stm32f4xx_hal_nand.c ****       *(__IO uint8_t *)((uint32_t)(deviceaddress | CMD_AREA)) = NAND_CMD_WRITE0;
 2847              		.loc 1 1522 0
 2848 00cc 46F48033 		orr	r3, r6, #65536
 2849 00d0 0021     		movs	r1, #0
 2850 00d2 1970     		strb	r1, [r3]
1523:/home/phong/Documents/thesis/stm32f4/stm-idf/components/stm32f4xx_hal_driver/stm32f4xx_hal_nand.c ****     
 2851              		.loc 1 1523 0
 2852 00d4 8021     		movs	r1, #128
 2853 00d6 1970     		strb	r1, [r3]
1525:/home/phong/Documents/thesis/stm32f4/stm-idf/components/stm32f4xx_hal_driver/stm32f4xx_hal_nand.c ****       {
 2854              		.loc 1 1525 0
 2855 00d8 E96A     		ldr	r1, [r5, #44]
 2856 00da 2B6B     		ldr	r3, [r5, #48]
 2857 00dc 03FB01F3 		mul	r3, r3, r1
 2858 00e0 B3F5803F 		cmp	r3, #65536
 2859 00e4 0DD2     		bcs	.L231
1527:/home/phong/Documents/thesis/stm32f4/stm-idf/components/stm32f4xx_hal_driver/stm32f4xx_hal_nand.c ****         *(__IO uint8_t *)((uint32_t)(deviceaddress | ADDR_AREA)) = COLUMN_2ND_CYCLE(columnaddress);
 2860              		.loc 1 1527 0
 2861 00e6 46F40033 		orr	r3, r6, #131072
ARM GAS  /tmp/ccM6uMDT.s 			page 104


 2862 00ea 5FFA8AF1 		uxtb	r1, r10
 2863 00ee 1970     		strb	r1, [r3]
1528:/home/phong/Documents/thesis/stm32f4/stm-idf/components/stm32f4xx_hal_driver/stm32f4xx_hal_nand.c ****         *(__IO uint8_t *)((uint32_t)(deviceaddress | ADDR_AREA)) = ADDR_1ST_CYCLE(nandaddress);
 2864              		.loc 1 1528 0
 2865 00f0 CAF30721 		ubfx	r1, r10, #8, #8
 2866 00f4 1970     		strb	r1, [r3]
1529:/home/phong/Documents/thesis/stm32f4/stm-idf/components/stm32f4xx_hal_driver/stm32f4xx_hal_nand.c ****         *(__IO uint8_t *)((uint32_t)(deviceaddress | ADDR_AREA)) = ADDR_2ND_CYCLE(nandaddress);
 2867              		.loc 1 1529 0
 2868 00f6 F9B2     		uxtb	r1, r7
 2869 00f8 1970     		strb	r1, [r3]
1530:/home/phong/Documents/thesis/stm32f4/stm-idf/components/stm32f4xx_hal_driver/stm32f4xx_hal_nand.c ****       }
 2870              		.loc 1 1530 0
 2871 00fa C7F30721 		ubfx	r1, r7, #8, #8
 2872 00fe 1970     		strb	r1, [r3]
 2873 0100 16E0     		b	.L232
 2874              	.L231:
1534:/home/phong/Documents/thesis/stm32f4/stm-idf/components/stm32f4xx_hal_driver/stm32f4xx_hal_nand.c ****         *(__IO uint8_t *)((uint32_t)(deviceaddress | ADDR_AREA)) = COLUMN_2ND_CYCLE(columnaddress);
 2875              		.loc 1 1534 0
 2876 0102 46F40033 		orr	r3, r6, #131072
 2877 0106 5FFA8AF1 		uxtb	r1, r10
 2878 010a 1970     		strb	r1, [r3]
1535:/home/phong/Documents/thesis/stm32f4/stm-idf/components/stm32f4xx_hal_driver/stm32f4xx_hal_nand.c ****         *(__IO uint8_t *)((uint32_t)(deviceaddress | ADDR_AREA)) = ADDR_1ST_CYCLE(nandaddress);
 2879              		.loc 1 1535 0
 2880 010c CAF30721 		ubfx	r1, r10, #8, #8
 2881 0110 1970     		strb	r1, [r3]
1536:/home/phong/Documents/thesis/stm32f4/stm-idf/components/stm32f4xx_hal_driver/stm32f4xx_hal_nand.c ****         *(__IO uint8_t *)((uint32_t)(deviceaddress | ADDR_AREA)) = ADDR_2ND_CYCLE(nandaddress);
 2882              		.loc 1 1536 0
 2883 0112 F9B2     		uxtb	r1, r7
 2884 0114 1970     		strb	r1, [r3]
1537:/home/phong/Documents/thesis/stm32f4/stm-idf/components/stm32f4xx_hal_driver/stm32f4xx_hal_nand.c ****         *(__IO uint8_t *)((uint32_t)(deviceaddress | ADDR_AREA)) = ADDR_3RD_CYCLE(nandaddress);
 2885              		.loc 1 1537 0
 2886 0116 C7F30721 		ubfx	r1, r7, #8, #8
 2887 011a 1970     		strb	r1, [r3]
1538:/home/phong/Documents/thesis/stm32f4/stm-idf/components/stm32f4xx_hal_driver/stm32f4xx_hal_nand.c ****       }
 2888              		.loc 1 1538 0
 2889 011c C7F30741 		ubfx	r1, r7, #16, #8
 2890 0120 1970     		strb	r1, [r3]
 2891 0122 05E0     		b	.L232
 2892              	.L233:
 2893              	.LVL254:
1545:/home/phong/Documents/thesis/stm32f4/stm-idf/components/stm32f4xx_hal_driver/stm32f4xx_hal_nand.c ****     }
 2894              		.loc 1 1545 0 discriminator 2
 2895 0124 2388     		ldrh	r3, [r4]
 2896 0126 3380     		strh	r3, [r6]	@ movhi
1543:/home/phong/Documents/thesis/stm32f4/stm-idf/components/stm32f4xx_hal_driver/stm32f4xx_hal_nand.c ****     {
 2897              		.loc 1 1543 0 discriminator 2
 2898 0128 019B     		ldr	r3, [sp, #4]
 2899 012a 0133     		adds	r3, r3, #1
 2900 012c 0193     		str	r3, [sp, #4]
1545:/home/phong/Documents/thesis/stm32f4/stm-idf/components/stm32f4xx_hal_driver/stm32f4xx_hal_nand.c ****     }
 2901              		.loc 1 1545 0 discriminator 2
 2902 012e 0234     		adds	r4, r4, #2
 2903              	.LVL255:
 2904              	.L232:
1543:/home/phong/Documents/thesis/stm32f4/stm-idf/components/stm32f4xx_hal_driver/stm32f4xx_hal_nand.c ****     {
 2905              		.loc 1 1543 0 discriminator 1
 2906 0130 019B     		ldr	r3, [sp, #4]
ARM GAS  /tmp/ccM6uMDT.s 			page 105


 2907 0132 9A42     		cmp	r2, r3
 2908 0134 F6D8     		bhi	.L233
1548:/home/phong/Documents/thesis/stm32f4/stm-idf/components/stm32f4xx_hal_driver/stm32f4xx_hal_nand.c ****    
 2909              		.loc 1 1548 0
 2910 0136 46F48033 		orr	r3, r6, #65536
 2911 013a 1022     		movs	r2, #16
 2912              	.LVL256:
 2913 013c 1A70     		strb	r2, [r3]
1551:/home/phong/Documents/thesis/stm32f4/stm-idf/components/stm32f4xx_hal_driver/stm32f4xx_hal_nand.c **** 
 2914              		.loc 1 1551 0
 2915 013e FFF7FEFF 		bl	HAL_GetTick
 2916              	.LVL257:
 2917 0142 8346     		mov	fp, r0
 2918              	.LVL258:
 2919              	.L234:
1554:/home/phong/Documents/thesis/stm32f4/stm-idf/components/stm32f4xx_hal_driver/stm32f4xx_hal_nand.c ****     {    
 2920              		.loc 1 1554 0
 2921 0144 2846     		mov	r0, r5
 2922 0146 FFF7FEFF 		bl	HAL_NAND_Read_Status
 2923              	.LVL259:
 2924 014a 4028     		cmp	r0, #64
 2925 014c 08D0     		beq	.L244
1556:/home/phong/Documents/thesis/stm32f4/stm-idf/components/stm32f4xx_hal_driver/stm32f4xx_hal_nand.c ****       {
 2926              		.loc 1 1556 0
 2927 014e FFF7FEFF 		bl	HAL_GetTick
 2928              	.LVL260:
 2929 0152 A0EB0B00 		sub	r0, r0, fp
 2930 0156 B0F1807F 		cmp	r0, #16777216
 2931 015a F3D9     		bls	.L234
1558:/home/phong/Documents/thesis/stm32f4/stm-idf/components/stm32f4xx_hal_driver/stm32f4xx_hal_nand.c ****       }
 2932              		.loc 1 1558 0
 2933 015c 0320     		movs	r0, #3
 2934 015e 0BE0     		b	.L225
 2935              	.L244:
 2936              	.LVL261:
1566:/home/phong/Documents/thesis/stm32f4/stm-idf/components/stm32f4xx_hal_driver/stm32f4xx_hal_nand.c ****     
 2937              		.loc 1 1566 0
 2938 0160 08F1FF38 		add	r8, r8, #-1
 2939              	.LVL262:
1569:/home/phong/Documents/thesis/stm32f4/stm-idf/components/stm32f4xx_hal_driver/stm32f4xx_hal_nand.c ****   }
 2940              		.loc 1 1569 0
 2941 0164 0137     		adds	r7, r7, #1
 2942              	.LVL263:
 2943 0166 77E7     		b	.L227
 2944              	.LVL264:
 2945              	.L236:
1573:/home/phong/Documents/thesis/stm32f4/stm-idf/components/stm32f4xx_hal_driver/stm32f4xx_hal_nand.c **** 
 2946              		.loc 1 1573 0
 2947 0168 0123     		movs	r3, #1
 2948 016a 85F82130 		strb	r3, [r5, #33]
1576:/home/phong/Documents/thesis/stm32f4/stm-idf/components/stm32f4xx_hal_driver/stm32f4xx_hal_nand.c **** 
 2949              		.loc 1 1576 0
 2950 016e 0020     		movs	r0, #0
 2951 0170 85F82000 		strb	r0, [r5, #32]
1578:/home/phong/Documents/thesis/stm32f4/stm-idf/components/stm32f4xx_hal_driver/stm32f4xx_hal_nand.c **** }
 2952              		.loc 1 1578 0
 2953 0174 00E0     		b	.L225
ARM GAS  /tmp/ccM6uMDT.s 			page 106


 2954              	.LVL265:
 2955              	.L238:
1465:/home/phong/Documents/thesis/stm32f4/stm-idf/components/stm32f4xx_hal_driver/stm32f4xx_hal_nand.c ****   
 2956              		.loc 1 1465 0
 2957 0176 0220     		movs	r0, #2
 2958              	.LVL266:
 2959              	.L225:
1579:/home/phong/Documents/thesis/stm32f4/stm-idf/components/stm32f4xx_hal_driver/stm32f4xx_hal_nand.c **** 
 2960              		.loc 1 1579 0
 2961 0178 03B0     		add	sp, sp, #12
 2962              	.LCFI39:
 2963              		.cfi_remember_state
 2964              		.cfi_def_cfa_offset 36
 2965              		@ sp needed
 2966 017a BDE8F08F 		pop	{r4, r5, r6, r7, r8, r9, r10, fp, pc}
 2967              	.LVL267:
 2968              	.L239:
 2969              	.LCFI40:
 2970              		.cfi_restore_state
1470:/home/phong/Documents/thesis/stm32f4/stm-idf/components/stm32f4xx_hal_driver/stm32f4xx_hal_nand.c ****   }
 2971              		.loc 1 1470 0
 2972 017e 0220     		movs	r0, #2
 2973              	.LVL268:
 2974 0180 FAE7     		b	.L225
 2975              		.cfi_endproc
 2976              	.LFE146:
 2978              		.section	.text.HAL_NAND_Erase_Block,"ax",%progbits
 2979              		.align	1
 2980              		.global	HAL_NAND_Erase_Block
 2981              		.syntax unified
 2982              		.thumb
 2983              		.thumb_func
 2984              		.fpu fpv4-sp-d16
 2986              	HAL_NAND_Erase_Block:
 2987              	.LFB147:
1589:/home/phong/Documents/thesis/stm32f4/stm-idf/components/stm32f4xx_hal_driver/stm32f4xx_hal_nand.c ****   uint32_t deviceaddress = 0U;
 2988              		.loc 1 1589 0
 2989              		.cfi_startproc
 2990              		@ args = 0, pretend = 0, frame = 0
 2991              		@ frame_needed = 0, uses_anonymous_args = 0
 2992              	.LVL269:
 2993 0000 F8B5     		push	{r3, r4, r5, r6, r7, lr}
 2994              	.LCFI41:
 2995              		.cfi_def_cfa_offset 24
 2996              		.cfi_offset 3, -24
 2997              		.cfi_offset 4, -20
 2998              		.cfi_offset 5, -16
 2999              		.cfi_offset 6, -12
 3000              		.cfi_offset 7, -8
 3001              		.cfi_offset 14, -4
 3002              	.LVL270:
1594:/home/phong/Documents/thesis/stm32f4/stm-idf/components/stm32f4xx_hal_driver/stm32f4xx_hal_nand.c ****   
 3003              		.loc 1 1594 0
 3004 0002 90F82030 		ldrb	r3, [r0, #32]	@ zero_extendqisi2
 3005 0006 012B     		cmp	r3, #1
 3006 0008 58D0     		beq	.L250
1594:/home/phong/Documents/thesis/stm32f4/stm-idf/components/stm32f4xx_hal_driver/stm32f4xx_hal_nand.c ****   
ARM GAS  /tmp/ccM6uMDT.s 			page 107


 3007              		.loc 1 1594 0 is_stmt 0 discriminator 2
 3008 000a 0123     		movs	r3, #1
 3009 000c 80F82030 		strb	r3, [r0, #32]
1597:/home/phong/Documents/thesis/stm32f4/stm-idf/components/stm32f4xx_hal_driver/stm32f4xx_hal_nand.c ****   {
 3010              		.loc 1 1597 0 is_stmt 1 discriminator 2
 3011 0010 90F82130 		ldrb	r3, [r0, #33]	@ zero_extendqisi2
 3012 0014 DBB2     		uxtb	r3, r3
 3013 0016 022B     		cmp	r3, #2
 3014 0018 52D0     		beq	.L251
1603:/home/phong/Documents/thesis/stm32f4/stm-idf/components/stm32f4xx_hal_driver/stm32f4xx_hal_nand.c ****   {
 3015              		.loc 1 1603 0
 3016 001a 4368     		ldr	r3, [r0, #4]
 3017 001c 102B     		cmp	r3, #16
 3018 001e 46D0     		beq	.L254
1609:/home/phong/Documents/thesis/stm32f4/stm-idf/components/stm32f4xx_hal_driver/stm32f4xx_hal_nand.c ****   }
 3019              		.loc 1 1609 0
 3020 0020 4FF00042 		mov	r2, #-2147483648
 3021              	.L247:
 3022 0024 0446     		mov	r4, r0
 3023              	.LVL271:
1613:/home/phong/Documents/thesis/stm32f4/stm-idf/components/stm32f4xx_hal_driver/stm32f4xx_hal_nand.c ****   
 3024              		.loc 1 1613 0
 3025 0026 0223     		movs	r3, #2
 3026 0028 80F82130 		strb	r3, [r0, #33]
1616:/home/phong/Documents/thesis/stm32f4/stm-idf/components/stm32f4xx_hal_driver/stm32f4xx_hal_nand.c **** 
 3027              		.loc 1 1616 0
 3028 002c 42F48030 		orr	r0, r2, #65536
 3029              	.LVL272:
 3030 0030 6023     		movs	r3, #96
 3031 0032 0370     		strb	r3, [r0]
1618:/home/phong/Documents/thesis/stm32f4/stm-idf/components/stm32f4xx_hal_driver/stm32f4xx_hal_nand.c ****   *(__IO uint8_t *)((uint32_t)(deviceaddress | ADDR_AREA)) = ADDR_2ND_CYCLE(ARRAY_ADDRESS(pAddress,
 3032              		.loc 1 1618 0
 3033 0034 42F40032 		orr	r2, r2, #131072
 3034              	.LVL273:
 3035 0038 0D88     		ldrh	r5, [r1]
 3036 003a 8E88     		ldrh	r6, [r1, #4]
 3037 003c 4B88     		ldrh	r3, [r1, #2]
 3038 003e A76B     		ldr	r7, [r4, #56]
 3039 0040 07FB0363 		mla	r3, r7, r3, r6
 3040 0044 E66A     		ldr	r6, [r4, #44]
 3041 0046 13FB0653 		smlabb	r3, r3, r6, r5
 3042 004a DBB2     		uxtb	r3, r3
 3043 004c 1370     		strb	r3, [r2]
1619:/home/phong/Documents/thesis/stm32f4/stm-idf/components/stm32f4xx_hal_driver/stm32f4xx_hal_nand.c ****   *(__IO uint8_t *)((uint32_t)(deviceaddress | ADDR_AREA)) = ADDR_3RD_CYCLE(ARRAY_ADDRESS(pAddress,
 3044              		.loc 1 1619 0
 3045 004e 0D88     		ldrh	r5, [r1]
 3046 0050 8E88     		ldrh	r6, [r1, #4]
 3047 0052 4B88     		ldrh	r3, [r1, #2]
 3048 0054 A76B     		ldr	r7, [r4, #56]
 3049 0056 07FB0363 		mla	r3, r7, r3, r6
 3050 005a E66A     		ldr	r6, [r4, #44]
 3051 005c 06FB0353 		mla	r3, r6, r3, r5
 3052 0060 C3F30723 		ubfx	r3, r3, #8, #8
 3053 0064 1370     		strb	r3, [r2]
1620:/home/phong/Documents/thesis/stm32f4/stm-idf/components/stm32f4xx_hal_driver/stm32f4xx_hal_nand.c ****     
 3054              		.loc 1 1620 0
 3055 0066 0D88     		ldrh	r5, [r1]
ARM GAS  /tmp/ccM6uMDT.s 			page 108


 3056 0068 8E88     		ldrh	r6, [r1, #4]
 3057 006a 4B88     		ldrh	r3, [r1, #2]
 3058 006c A16B     		ldr	r1, [r4, #56]
 3059              	.LVL274:
 3060 006e 01FB0363 		mla	r3, r1, r3, r6
 3061 0072 E16A     		ldr	r1, [r4, #44]
 3062 0074 01FB0353 		mla	r3, r1, r3, r5
 3063 0078 C3F30743 		ubfx	r3, r3, #16, #8
 3064 007c 1370     		strb	r3, [r2]
1622:/home/phong/Documents/thesis/stm32f4/stm-idf/components/stm32f4xx_hal_driver/stm32f4xx_hal_nand.c ****   
 3065              		.loc 1 1622 0
 3066 007e D023     		movs	r3, #208
 3067 0080 0370     		strb	r3, [r0]
1625:/home/phong/Documents/thesis/stm32f4/stm-idf/components/stm32f4xx_hal_driver/stm32f4xx_hal_nand.c ****   
 3068              		.loc 1 1625 0
 3069 0082 0123     		movs	r3, #1
 3070 0084 84F82130 		strb	r3, [r4, #33]
1628:/home/phong/Documents/thesis/stm32f4/stm-idf/components/stm32f4xx_hal_driver/stm32f4xx_hal_nand.c ****   
 3071              		.loc 1 1628 0
 3072 0088 FFF7FEFF 		bl	HAL_GetTick
 3073              	.LVL275:
 3074 008c 0546     		mov	r5, r0
 3075              	.LVL276:
 3076              	.L248:
1631:/home/phong/Documents/thesis/stm32f4/stm-idf/components/stm32f4xx_hal_driver/stm32f4xx_hal_nand.c ****   {
 3077              		.loc 1 1631 0
 3078 008e 2046     		mov	r0, r4
 3079 0090 FFF7FEFF 		bl	HAL_NAND_Read_Status
 3080              	.LVL277:
 3081 0094 4028     		cmp	r0, #64
 3082 0096 0DD0     		beq	.L255
1633:/home/phong/Documents/thesis/stm32f4/stm-idf/components/stm32f4xx_hal_driver/stm32f4xx_hal_nand.c ****     {
 3083              		.loc 1 1633 0
 3084 0098 FFF7FEFF 		bl	HAL_GetTick
 3085              	.LVL278:
 3086 009c 401B     		subs	r0, r0, r5
 3087 009e B0F1807F 		cmp	r0, #16777216
 3088 00a2 F4D9     		bls	.L248
1636:/home/phong/Documents/thesis/stm32f4/stm-idf/components/stm32f4xx_hal_driver/stm32f4xx_hal_nand.c ****   
 3089              		.loc 1 1636 0
 3090 00a4 0023     		movs	r3, #0
 3091 00a6 84F82030 		strb	r3, [r4, #32]
1638:/home/phong/Documents/thesis/stm32f4/stm-idf/components/stm32f4xx_hal_driver/stm32f4xx_hal_nand.c ****     } 
 3092              		.loc 1 1638 0
 3093 00aa 0320     		movs	r0, #3
 3094 00ac F8BD     		pop	{r3, r4, r5, r6, r7, pc}
 3095              	.LVL279:
 3096              	.L254:
1605:/home/phong/Documents/thesis/stm32f4/stm-idf/components/stm32f4xx_hal_driver/stm32f4xx_hal_nand.c ****   }
 3097              		.loc 1 1605 0
 3098 00ae 4FF0E042 		mov	r2, #1879048192
 3099 00b2 B7E7     		b	.L247
 3100              	.LVL280:
 3101              	.L255:
1643:/home/phong/Documents/thesis/stm32f4/stm-idf/components/stm32f4xx_hal_driver/stm32f4xx_hal_nand.c ****   
 3102              		.loc 1 1643 0
 3103 00b4 0020     		movs	r0, #0
ARM GAS  /tmp/ccM6uMDT.s 			page 109


 3104 00b6 84F82000 		strb	r0, [r4, #32]
1645:/home/phong/Documents/thesis/stm32f4/stm-idf/components/stm32f4xx_hal_driver/stm32f4xx_hal_nand.c **** }
 3105              		.loc 1 1645 0
 3106 00ba F8BD     		pop	{r3, r4, r5, r6, r7, pc}
 3107              	.LVL281:
 3108              	.L250:
1594:/home/phong/Documents/thesis/stm32f4/stm-idf/components/stm32f4xx_hal_driver/stm32f4xx_hal_nand.c ****   
 3109              		.loc 1 1594 0
 3110 00bc 0220     		movs	r0, #2
 3111              	.LVL282:
 3112 00be F8BD     		pop	{r3, r4, r5, r6, r7, pc}
 3113              	.LVL283:
 3114              	.L251:
1599:/home/phong/Documents/thesis/stm32f4/stm-idf/components/stm32f4xx_hal_driver/stm32f4xx_hal_nand.c ****   }
 3115              		.loc 1 1599 0
 3116 00c0 0220     		movs	r0, #2
 3117              	.LVL284:
1646:/home/phong/Documents/thesis/stm32f4/stm-idf/components/stm32f4xx_hal_driver/stm32f4xx_hal_nand.c **** 
 3118              		.loc 1 1646 0
 3119 00c2 F8BD     		pop	{r3, r4, r5, r6, r7, pc}
 3120              		.cfi_endproc
 3121              	.LFE147:
 3123              		.section	.text.HAL_NAND_Address_Inc,"ax",%progbits
 3124              		.align	1
 3125              		.global	HAL_NAND_Address_Inc
 3126              		.syntax unified
 3127              		.thumb
 3128              		.thumb_func
 3129              		.fpu fpv4-sp-d16
 3131              	HAL_NAND_Address_Inc:
 3132              	.LFB149:
1687:/home/phong/Documents/thesis/stm32f4/stm-idf/components/stm32f4xx_hal_driver/stm32f4xx_hal_nand.c **** 
1688:/home/phong/Documents/thesis/stm32f4/stm-idf/components/stm32f4xx_hal_driver/stm32f4xx_hal_nand.c **** /**
1689:/home/phong/Documents/thesis/stm32f4/stm-idf/components/stm32f4xx_hal_driver/stm32f4xx_hal_nand.c ****   * @brief  Increment the NAND memory address
1690:/home/phong/Documents/thesis/stm32f4/stm-idf/components/stm32f4xx_hal_driver/stm32f4xx_hal_nand.c ****   * @param  hnand pointer to a NAND_HandleTypeDef structure that contains
1691:/home/phong/Documents/thesis/stm32f4/stm-idf/components/stm32f4xx_hal_driver/stm32f4xx_hal_nand.c ****   *                the configuration information for NAND module.
1692:/home/phong/Documents/thesis/stm32f4/stm-idf/components/stm32f4xx_hal_driver/stm32f4xx_hal_nand.c ****   * @param pAddress pointer to NAND address structure
1693:/home/phong/Documents/thesis/stm32f4/stm-idf/components/stm32f4xx_hal_driver/stm32f4xx_hal_nand.c ****   * @retval The new status of the increment address operation. It can be:
1694:/home/phong/Documents/thesis/stm32f4/stm-idf/components/stm32f4xx_hal_driver/stm32f4xx_hal_nand.c ****   *           - NAND_VALID_ADDRESS: When the new address is valid address
1695:/home/phong/Documents/thesis/stm32f4/stm-idf/components/stm32f4xx_hal_driver/stm32f4xx_hal_nand.c ****   *           - NAND_INVALID_ADDRESS: When the new address is invalid address
1696:/home/phong/Documents/thesis/stm32f4/stm-idf/components/stm32f4xx_hal_driver/stm32f4xx_hal_nand.c ****   */
1697:/home/phong/Documents/thesis/stm32f4/stm-idf/components/stm32f4xx_hal_driver/stm32f4xx_hal_nand.c **** uint32_t HAL_NAND_Address_Inc(NAND_HandleTypeDef *hnand, NAND_AddressTypeDef *pAddress)
1698:/home/phong/Documents/thesis/stm32f4/stm-idf/components/stm32f4xx_hal_driver/stm32f4xx_hal_nand.c **** {
 3133              		.loc 1 1698 0
 3134              		.cfi_startproc
 3135              		@ args = 0, pretend = 0, frame = 0
 3136              		@ frame_needed = 0, uses_anonymous_args = 0
 3137              		@ link register save eliminated.
 3138              	.LVL285:
1699:/home/phong/Documents/thesis/stm32f4/stm-idf/components/stm32f4xx_hal_driver/stm32f4xx_hal_nand.c ****   uint32_t status = NAND_VALID_ADDRESS;
1700:/home/phong/Documents/thesis/stm32f4/stm-idf/components/stm32f4xx_hal_driver/stm32f4xx_hal_nand.c ****  
1701:/home/phong/Documents/thesis/stm32f4/stm-idf/components/stm32f4xx_hal_driver/stm32f4xx_hal_nand.c ****   /* Increment page address */
1702:/home/phong/Documents/thesis/stm32f4/stm-idf/components/stm32f4xx_hal_driver/stm32f4xx_hal_nand.c ****   pAddress->Page++;
 3139              		.loc 1 1702 0
 3140 0000 0B88     		ldrh	r3, [r1]
 3141 0002 0133     		adds	r3, r3, #1
 3142 0004 9BB2     		uxth	r3, r3
ARM GAS  /tmp/ccM6uMDT.s 			page 110


 3143 0006 0B80     		strh	r3, [r1]	@ movhi
1703:/home/phong/Documents/thesis/stm32f4/stm-idf/components/stm32f4xx_hal_driver/stm32f4xx_hal_nand.c **** 
1704:/home/phong/Documents/thesis/stm32f4/stm-idf/components/stm32f4xx_hal_driver/stm32f4xx_hal_nand.c ****   /* Check NAND address is valid */
1705:/home/phong/Documents/thesis/stm32f4/stm-idf/components/stm32f4xx_hal_driver/stm32f4xx_hal_nand.c ****   if(pAddress->Page == hnand->Config.BlockSize)
 3144              		.loc 1 1705 0
 3145 0008 C26A     		ldr	r2, [r0, #44]
 3146 000a 9342     		cmp	r3, r2
 3147 000c 02D0     		beq	.L261
1699:/home/phong/Documents/thesis/stm32f4/stm-idf/components/stm32f4xx_hal_driver/stm32f4xx_hal_nand.c ****   uint32_t status = NAND_VALID_ADDRESS;
 3148              		.loc 1 1699 0
 3149 000e 4FF48070 		mov	r0, #256
 3150              	.LVL286:
 3151 0012 7047     		bx	lr
 3152              	.LVL287:
 3153              	.L261:
1706:/home/phong/Documents/thesis/stm32f4/stm-idf/components/stm32f4xx_hal_driver/stm32f4xx_hal_nand.c ****   {
1707:/home/phong/Documents/thesis/stm32f4/stm-idf/components/stm32f4xx_hal_driver/stm32f4xx_hal_nand.c ****     pAddress->Page = 0U;
 3154              		.loc 1 1707 0
 3155 0014 0023     		movs	r3, #0
 3156 0016 0B80     		strh	r3, [r1]	@ movhi
1708:/home/phong/Documents/thesis/stm32f4/stm-idf/components/stm32f4xx_hal_driver/stm32f4xx_hal_nand.c ****     pAddress->Block++;
 3157              		.loc 1 1708 0
 3158 0018 8B88     		ldrh	r3, [r1, #4]
 3159 001a 0133     		adds	r3, r3, #1
 3160 001c 9BB2     		uxth	r3, r3
 3161 001e 8B80     		strh	r3, [r1, #4]	@ movhi
1709:/home/phong/Documents/thesis/stm32f4/stm-idf/components/stm32f4xx_hal_driver/stm32f4xx_hal_nand.c ****     
1710:/home/phong/Documents/thesis/stm32f4/stm-idf/components/stm32f4xx_hal_driver/stm32f4xx_hal_nand.c ****     if(pAddress->Block == hnand->Config.PlaneSize)
 3162              		.loc 1 1710 0
 3163 0020 826B     		ldr	r2, [r0, #56]
 3164 0022 9342     		cmp	r3, r2
 3165 0024 02D0     		beq	.L262
1699:/home/phong/Documents/thesis/stm32f4/stm-idf/components/stm32f4xx_hal_driver/stm32f4xx_hal_nand.c ****  
 3166              		.loc 1 1699 0
 3167 0026 4FF48070 		mov	r0, #256
 3168              	.LVL288:
 3169 002a 7047     		bx	lr
 3170              	.LVL289:
 3171              	.L262:
1711:/home/phong/Documents/thesis/stm32f4/stm-idf/components/stm32f4xx_hal_driver/stm32f4xx_hal_nand.c ****     {
1712:/home/phong/Documents/thesis/stm32f4/stm-idf/components/stm32f4xx_hal_driver/stm32f4xx_hal_nand.c ****       pAddress->Block = 0U;
 3172              		.loc 1 1712 0
 3173 002c 0023     		movs	r3, #0
 3174 002e 8B80     		strh	r3, [r1, #4]	@ movhi
1713:/home/phong/Documents/thesis/stm32f4/stm-idf/components/stm32f4xx_hal_driver/stm32f4xx_hal_nand.c ****       pAddress->Plane++;
 3175              		.loc 1 1713 0
 3176 0030 4B88     		ldrh	r3, [r1, #2]
 3177 0032 0133     		adds	r3, r3, #1
 3178 0034 9BB2     		uxth	r3, r3
 3179 0036 4B80     		strh	r3, [r1, #2]	@ movhi
1714:/home/phong/Documents/thesis/stm32f4/stm-idf/components/stm32f4xx_hal_driver/stm32f4xx_hal_nand.c **** 
1715:/home/phong/Documents/thesis/stm32f4/stm-idf/components/stm32f4xx_hal_driver/stm32f4xx_hal_nand.c ****       if(pAddress->Plane == (hnand->Config.PlaneNbr))
 3180              		.loc 1 1715 0
 3181 0038 426B     		ldr	r2, [r0, #52]
 3182 003a 9342     		cmp	r3, r2
 3183 003c 02D0     		beq	.L260
1699:/home/phong/Documents/thesis/stm32f4/stm-idf/components/stm32f4xx_hal_driver/stm32f4xx_hal_nand.c ****  
ARM GAS  /tmp/ccM6uMDT.s 			page 111


 3184              		.loc 1 1699 0
 3185 003e 4FF48070 		mov	r0, #256
 3186              	.LVL290:
 3187 0042 7047     		bx	lr
 3188              	.LVL291:
 3189              	.L260:
1716:/home/phong/Documents/thesis/stm32f4/stm-idf/components/stm32f4xx_hal_driver/stm32f4xx_hal_nand.c ****       {
1717:/home/phong/Documents/thesis/stm32f4/stm-idf/components/stm32f4xx_hal_driver/stm32f4xx_hal_nand.c ****         status = NAND_INVALID_ADDRESS;
 3190              		.loc 1 1717 0
 3191 0044 4FF40070 		mov	r0, #512
 3192              	.LVL292:
1718:/home/phong/Documents/thesis/stm32f4/stm-idf/components/stm32f4xx_hal_driver/stm32f4xx_hal_nand.c ****       }
1719:/home/phong/Documents/thesis/stm32f4/stm-idf/components/stm32f4xx_hal_driver/stm32f4xx_hal_nand.c ****     }
1720:/home/phong/Documents/thesis/stm32f4/stm-idf/components/stm32f4xx_hal_driver/stm32f4xx_hal_nand.c ****   } 
1721:/home/phong/Documents/thesis/stm32f4/stm-idf/components/stm32f4xx_hal_driver/stm32f4xx_hal_nand.c ****   
1722:/home/phong/Documents/thesis/stm32f4/stm-idf/components/stm32f4xx_hal_driver/stm32f4xx_hal_nand.c ****   return (status);
1723:/home/phong/Documents/thesis/stm32f4/stm-idf/components/stm32f4xx_hal_driver/stm32f4xx_hal_nand.c **** }
 3193              		.loc 1 1723 0
 3194 0048 7047     		bx	lr
 3195              		.cfi_endproc
 3196              	.LFE149:
 3198              		.section	.text.HAL_NAND_ECC_Enable,"ax",%progbits
 3199              		.align	1
 3200              		.global	HAL_NAND_ECC_Enable
 3201              		.syntax unified
 3202              		.thumb
 3203              		.thumb_func
 3204              		.fpu fpv4-sp-d16
 3206              	HAL_NAND_ECC_Enable:
 3207              	.LFB150:
1724:/home/phong/Documents/thesis/stm32f4/stm-idf/components/stm32f4xx_hal_driver/stm32f4xx_hal_nand.c **** 
1725:/home/phong/Documents/thesis/stm32f4/stm-idf/components/stm32f4xx_hal_driver/stm32f4xx_hal_nand.c **** #if (USE_HAL_NAND_REGISTER_CALLBACKS == 1)
1726:/home/phong/Documents/thesis/stm32f4/stm-idf/components/stm32f4xx_hal_driver/stm32f4xx_hal_nand.c **** /**
1727:/home/phong/Documents/thesis/stm32f4/stm-idf/components/stm32f4xx_hal_driver/stm32f4xx_hal_nand.c ****   * @brief  Register a User NAND Callback
1728:/home/phong/Documents/thesis/stm32f4/stm-idf/components/stm32f4xx_hal_driver/stm32f4xx_hal_nand.c ****   *         To be used instead of the weak (surcharged) predefined callback
1729:/home/phong/Documents/thesis/stm32f4/stm-idf/components/stm32f4xx_hal_driver/stm32f4xx_hal_nand.c ****   * @param hnand : NAND handle
1730:/home/phong/Documents/thesis/stm32f4/stm-idf/components/stm32f4xx_hal_driver/stm32f4xx_hal_nand.c ****   * @param CallbackId : ID of the callback to be registered
1731:/home/phong/Documents/thesis/stm32f4/stm-idf/components/stm32f4xx_hal_driver/stm32f4xx_hal_nand.c ****   *        This parameter can be one of the following values:
1732:/home/phong/Documents/thesis/stm32f4/stm-idf/components/stm32f4xx_hal_driver/stm32f4xx_hal_nand.c ****   *          @arg @ref HAL_NAND_MSP_INIT_CB_ID       NAND MspInit callback ID
1733:/home/phong/Documents/thesis/stm32f4/stm-idf/components/stm32f4xx_hal_driver/stm32f4xx_hal_nand.c ****   *          @arg @ref HAL_NAND_MSP_DEINIT_CB_ID     NAND MspDeInit callback ID
1734:/home/phong/Documents/thesis/stm32f4/stm-idf/components/stm32f4xx_hal_driver/stm32f4xx_hal_nand.c ****   *          @arg @ref HAL_NAND_IT_CB_ID             NAND IT callback ID
1735:/home/phong/Documents/thesis/stm32f4/stm-idf/components/stm32f4xx_hal_driver/stm32f4xx_hal_nand.c ****   * @param pCallback : pointer to the Callback function
1736:/home/phong/Documents/thesis/stm32f4/stm-idf/components/stm32f4xx_hal_driver/stm32f4xx_hal_nand.c ****   * @retval status
1737:/home/phong/Documents/thesis/stm32f4/stm-idf/components/stm32f4xx_hal_driver/stm32f4xx_hal_nand.c ****   */
1738:/home/phong/Documents/thesis/stm32f4/stm-idf/components/stm32f4xx_hal_driver/stm32f4xx_hal_nand.c **** HAL_StatusTypeDef HAL_NAND_RegisterCallback (NAND_HandleTypeDef *hnand, HAL_NAND_CallbackIDTypeDef 
1739:/home/phong/Documents/thesis/stm32f4/stm-idf/components/stm32f4xx_hal_driver/stm32f4xx_hal_nand.c **** {
1740:/home/phong/Documents/thesis/stm32f4/stm-idf/components/stm32f4xx_hal_driver/stm32f4xx_hal_nand.c ****   HAL_StatusTypeDef status = HAL_OK;
1741:/home/phong/Documents/thesis/stm32f4/stm-idf/components/stm32f4xx_hal_driver/stm32f4xx_hal_nand.c **** 
1742:/home/phong/Documents/thesis/stm32f4/stm-idf/components/stm32f4xx_hal_driver/stm32f4xx_hal_nand.c ****   if(pCallback == NULL)
1743:/home/phong/Documents/thesis/stm32f4/stm-idf/components/stm32f4xx_hal_driver/stm32f4xx_hal_nand.c ****   {
1744:/home/phong/Documents/thesis/stm32f4/stm-idf/components/stm32f4xx_hal_driver/stm32f4xx_hal_nand.c ****     return HAL_ERROR;
1745:/home/phong/Documents/thesis/stm32f4/stm-idf/components/stm32f4xx_hal_driver/stm32f4xx_hal_nand.c ****   }
1746:/home/phong/Documents/thesis/stm32f4/stm-idf/components/stm32f4xx_hal_driver/stm32f4xx_hal_nand.c **** 
1747:/home/phong/Documents/thesis/stm32f4/stm-idf/components/stm32f4xx_hal_driver/stm32f4xx_hal_nand.c ****   /* Process locked */
1748:/home/phong/Documents/thesis/stm32f4/stm-idf/components/stm32f4xx_hal_driver/stm32f4xx_hal_nand.c ****   __HAL_LOCK(hnand);
1749:/home/phong/Documents/thesis/stm32f4/stm-idf/components/stm32f4xx_hal_driver/stm32f4xx_hal_nand.c **** 
1750:/home/phong/Documents/thesis/stm32f4/stm-idf/components/stm32f4xx_hal_driver/stm32f4xx_hal_nand.c ****   if(hnand->State == HAL_NAND_STATE_READY)
ARM GAS  /tmp/ccM6uMDT.s 			page 112


1751:/home/phong/Documents/thesis/stm32f4/stm-idf/components/stm32f4xx_hal_driver/stm32f4xx_hal_nand.c ****   {
1752:/home/phong/Documents/thesis/stm32f4/stm-idf/components/stm32f4xx_hal_driver/stm32f4xx_hal_nand.c ****     switch (CallbackId)
1753:/home/phong/Documents/thesis/stm32f4/stm-idf/components/stm32f4xx_hal_driver/stm32f4xx_hal_nand.c ****     {
1754:/home/phong/Documents/thesis/stm32f4/stm-idf/components/stm32f4xx_hal_driver/stm32f4xx_hal_nand.c ****     case HAL_NAND_MSP_INIT_CB_ID :
1755:/home/phong/Documents/thesis/stm32f4/stm-idf/components/stm32f4xx_hal_driver/stm32f4xx_hal_nand.c ****       hnand->MspInitCallback = pCallback;
1756:/home/phong/Documents/thesis/stm32f4/stm-idf/components/stm32f4xx_hal_driver/stm32f4xx_hal_nand.c ****       break;
1757:/home/phong/Documents/thesis/stm32f4/stm-idf/components/stm32f4xx_hal_driver/stm32f4xx_hal_nand.c ****     case HAL_NAND_MSP_DEINIT_CB_ID :
1758:/home/phong/Documents/thesis/stm32f4/stm-idf/components/stm32f4xx_hal_driver/stm32f4xx_hal_nand.c ****       hnand->MspDeInitCallback = pCallback;
1759:/home/phong/Documents/thesis/stm32f4/stm-idf/components/stm32f4xx_hal_driver/stm32f4xx_hal_nand.c ****       break;
1760:/home/phong/Documents/thesis/stm32f4/stm-idf/components/stm32f4xx_hal_driver/stm32f4xx_hal_nand.c ****     case HAL_NAND_IT_CB_ID :
1761:/home/phong/Documents/thesis/stm32f4/stm-idf/components/stm32f4xx_hal_driver/stm32f4xx_hal_nand.c ****       hnand->ItCallback = pCallback;
1762:/home/phong/Documents/thesis/stm32f4/stm-idf/components/stm32f4xx_hal_driver/stm32f4xx_hal_nand.c ****       break;
1763:/home/phong/Documents/thesis/stm32f4/stm-idf/components/stm32f4xx_hal_driver/stm32f4xx_hal_nand.c ****     default :
1764:/home/phong/Documents/thesis/stm32f4/stm-idf/components/stm32f4xx_hal_driver/stm32f4xx_hal_nand.c ****       /* update return status */
1765:/home/phong/Documents/thesis/stm32f4/stm-idf/components/stm32f4xx_hal_driver/stm32f4xx_hal_nand.c ****       status =  HAL_ERROR;
1766:/home/phong/Documents/thesis/stm32f4/stm-idf/components/stm32f4xx_hal_driver/stm32f4xx_hal_nand.c ****       break;
1767:/home/phong/Documents/thesis/stm32f4/stm-idf/components/stm32f4xx_hal_driver/stm32f4xx_hal_nand.c ****     }
1768:/home/phong/Documents/thesis/stm32f4/stm-idf/components/stm32f4xx_hal_driver/stm32f4xx_hal_nand.c ****   }
1769:/home/phong/Documents/thesis/stm32f4/stm-idf/components/stm32f4xx_hal_driver/stm32f4xx_hal_nand.c ****   else if(hnand->State == HAL_NAND_STATE_RESET)
1770:/home/phong/Documents/thesis/stm32f4/stm-idf/components/stm32f4xx_hal_driver/stm32f4xx_hal_nand.c ****   {
1771:/home/phong/Documents/thesis/stm32f4/stm-idf/components/stm32f4xx_hal_driver/stm32f4xx_hal_nand.c ****     switch (CallbackId)
1772:/home/phong/Documents/thesis/stm32f4/stm-idf/components/stm32f4xx_hal_driver/stm32f4xx_hal_nand.c ****     {
1773:/home/phong/Documents/thesis/stm32f4/stm-idf/components/stm32f4xx_hal_driver/stm32f4xx_hal_nand.c ****     case HAL_NAND_MSP_INIT_CB_ID :
1774:/home/phong/Documents/thesis/stm32f4/stm-idf/components/stm32f4xx_hal_driver/stm32f4xx_hal_nand.c ****       hnand->MspInitCallback = pCallback;
1775:/home/phong/Documents/thesis/stm32f4/stm-idf/components/stm32f4xx_hal_driver/stm32f4xx_hal_nand.c ****       break;
1776:/home/phong/Documents/thesis/stm32f4/stm-idf/components/stm32f4xx_hal_driver/stm32f4xx_hal_nand.c ****     case HAL_NAND_MSP_DEINIT_CB_ID :
1777:/home/phong/Documents/thesis/stm32f4/stm-idf/components/stm32f4xx_hal_driver/stm32f4xx_hal_nand.c ****       hnand->MspDeInitCallback = pCallback;
1778:/home/phong/Documents/thesis/stm32f4/stm-idf/components/stm32f4xx_hal_driver/stm32f4xx_hal_nand.c ****       break;
1779:/home/phong/Documents/thesis/stm32f4/stm-idf/components/stm32f4xx_hal_driver/stm32f4xx_hal_nand.c ****     default :
1780:/home/phong/Documents/thesis/stm32f4/stm-idf/components/stm32f4xx_hal_driver/stm32f4xx_hal_nand.c ****       /* update return status */
1781:/home/phong/Documents/thesis/stm32f4/stm-idf/components/stm32f4xx_hal_driver/stm32f4xx_hal_nand.c ****       status =  HAL_ERROR;
1782:/home/phong/Documents/thesis/stm32f4/stm-idf/components/stm32f4xx_hal_driver/stm32f4xx_hal_nand.c ****       break;
1783:/home/phong/Documents/thesis/stm32f4/stm-idf/components/stm32f4xx_hal_driver/stm32f4xx_hal_nand.c ****     }
1784:/home/phong/Documents/thesis/stm32f4/stm-idf/components/stm32f4xx_hal_driver/stm32f4xx_hal_nand.c ****   }
1785:/home/phong/Documents/thesis/stm32f4/stm-idf/components/stm32f4xx_hal_driver/stm32f4xx_hal_nand.c ****   else
1786:/home/phong/Documents/thesis/stm32f4/stm-idf/components/stm32f4xx_hal_driver/stm32f4xx_hal_nand.c ****   {
1787:/home/phong/Documents/thesis/stm32f4/stm-idf/components/stm32f4xx_hal_driver/stm32f4xx_hal_nand.c ****     /* update return status */
1788:/home/phong/Documents/thesis/stm32f4/stm-idf/components/stm32f4xx_hal_driver/stm32f4xx_hal_nand.c ****     status =  HAL_ERROR;
1789:/home/phong/Documents/thesis/stm32f4/stm-idf/components/stm32f4xx_hal_driver/stm32f4xx_hal_nand.c ****   }
1790:/home/phong/Documents/thesis/stm32f4/stm-idf/components/stm32f4xx_hal_driver/stm32f4xx_hal_nand.c **** 
1791:/home/phong/Documents/thesis/stm32f4/stm-idf/components/stm32f4xx_hal_driver/stm32f4xx_hal_nand.c ****   /* Release Lock */
1792:/home/phong/Documents/thesis/stm32f4/stm-idf/components/stm32f4xx_hal_driver/stm32f4xx_hal_nand.c ****   __HAL_UNLOCK(hnand);
1793:/home/phong/Documents/thesis/stm32f4/stm-idf/components/stm32f4xx_hal_driver/stm32f4xx_hal_nand.c ****   return status;
1794:/home/phong/Documents/thesis/stm32f4/stm-idf/components/stm32f4xx_hal_driver/stm32f4xx_hal_nand.c **** }
1795:/home/phong/Documents/thesis/stm32f4/stm-idf/components/stm32f4xx_hal_driver/stm32f4xx_hal_nand.c **** 
1796:/home/phong/Documents/thesis/stm32f4/stm-idf/components/stm32f4xx_hal_driver/stm32f4xx_hal_nand.c **** /**
1797:/home/phong/Documents/thesis/stm32f4/stm-idf/components/stm32f4xx_hal_driver/stm32f4xx_hal_nand.c ****   * @brief  Unregister a User NAND Callback
1798:/home/phong/Documents/thesis/stm32f4/stm-idf/components/stm32f4xx_hal_driver/stm32f4xx_hal_nand.c ****   *         NAND Callback is redirected to the weak (surcharged) predefined callback
1799:/home/phong/Documents/thesis/stm32f4/stm-idf/components/stm32f4xx_hal_driver/stm32f4xx_hal_nand.c ****   * @param hnand : NAND handle
1800:/home/phong/Documents/thesis/stm32f4/stm-idf/components/stm32f4xx_hal_driver/stm32f4xx_hal_nand.c ****   * @param CallbackId : ID of the callback to be unregistered
1801:/home/phong/Documents/thesis/stm32f4/stm-idf/components/stm32f4xx_hal_driver/stm32f4xx_hal_nand.c ****   *        This parameter can be one of the following values:
1802:/home/phong/Documents/thesis/stm32f4/stm-idf/components/stm32f4xx_hal_driver/stm32f4xx_hal_nand.c ****   *          @arg @ref HAL_NAND_MSP_INIT_CB_ID       NAND MspInit callback ID
1803:/home/phong/Documents/thesis/stm32f4/stm-idf/components/stm32f4xx_hal_driver/stm32f4xx_hal_nand.c ****   *          @arg @ref HAL_NAND_MSP_DEINIT_CB_ID     NAND MspDeInit callback ID
1804:/home/phong/Documents/thesis/stm32f4/stm-idf/components/stm32f4xx_hal_driver/stm32f4xx_hal_nand.c ****   *          @arg @ref HAL_NAND_IT_CB_ID             NAND IT callback ID
1805:/home/phong/Documents/thesis/stm32f4/stm-idf/components/stm32f4xx_hal_driver/stm32f4xx_hal_nand.c ****   * @retval status
1806:/home/phong/Documents/thesis/stm32f4/stm-idf/components/stm32f4xx_hal_driver/stm32f4xx_hal_nand.c ****   */
1807:/home/phong/Documents/thesis/stm32f4/stm-idf/components/stm32f4xx_hal_driver/stm32f4xx_hal_nand.c **** HAL_StatusTypeDef HAL_NAND_UnRegisterCallback (NAND_HandleTypeDef *hnand, HAL_NAND_CallbackIDTypeDe
ARM GAS  /tmp/ccM6uMDT.s 			page 113


1808:/home/phong/Documents/thesis/stm32f4/stm-idf/components/stm32f4xx_hal_driver/stm32f4xx_hal_nand.c **** {
1809:/home/phong/Documents/thesis/stm32f4/stm-idf/components/stm32f4xx_hal_driver/stm32f4xx_hal_nand.c ****   HAL_StatusTypeDef status = HAL_OK;
1810:/home/phong/Documents/thesis/stm32f4/stm-idf/components/stm32f4xx_hal_driver/stm32f4xx_hal_nand.c **** 
1811:/home/phong/Documents/thesis/stm32f4/stm-idf/components/stm32f4xx_hal_driver/stm32f4xx_hal_nand.c ****   /* Process locked */
1812:/home/phong/Documents/thesis/stm32f4/stm-idf/components/stm32f4xx_hal_driver/stm32f4xx_hal_nand.c ****   __HAL_LOCK(hnand);
1813:/home/phong/Documents/thesis/stm32f4/stm-idf/components/stm32f4xx_hal_driver/stm32f4xx_hal_nand.c **** 
1814:/home/phong/Documents/thesis/stm32f4/stm-idf/components/stm32f4xx_hal_driver/stm32f4xx_hal_nand.c ****   if(hnand->State == HAL_NAND_STATE_READY)
1815:/home/phong/Documents/thesis/stm32f4/stm-idf/components/stm32f4xx_hal_driver/stm32f4xx_hal_nand.c ****   {
1816:/home/phong/Documents/thesis/stm32f4/stm-idf/components/stm32f4xx_hal_driver/stm32f4xx_hal_nand.c ****     switch (CallbackId)
1817:/home/phong/Documents/thesis/stm32f4/stm-idf/components/stm32f4xx_hal_driver/stm32f4xx_hal_nand.c ****     {
1818:/home/phong/Documents/thesis/stm32f4/stm-idf/components/stm32f4xx_hal_driver/stm32f4xx_hal_nand.c ****     case HAL_NAND_MSP_INIT_CB_ID :
1819:/home/phong/Documents/thesis/stm32f4/stm-idf/components/stm32f4xx_hal_driver/stm32f4xx_hal_nand.c ****       hnand->MspInitCallback = HAL_NAND_MspInit;
1820:/home/phong/Documents/thesis/stm32f4/stm-idf/components/stm32f4xx_hal_driver/stm32f4xx_hal_nand.c ****       break;
1821:/home/phong/Documents/thesis/stm32f4/stm-idf/components/stm32f4xx_hal_driver/stm32f4xx_hal_nand.c ****     case HAL_NAND_MSP_DEINIT_CB_ID :
1822:/home/phong/Documents/thesis/stm32f4/stm-idf/components/stm32f4xx_hal_driver/stm32f4xx_hal_nand.c ****       hnand->MspDeInitCallback = HAL_NAND_MspDeInit;
1823:/home/phong/Documents/thesis/stm32f4/stm-idf/components/stm32f4xx_hal_driver/stm32f4xx_hal_nand.c ****       break;
1824:/home/phong/Documents/thesis/stm32f4/stm-idf/components/stm32f4xx_hal_driver/stm32f4xx_hal_nand.c ****     case HAL_NAND_IT_CB_ID :
1825:/home/phong/Documents/thesis/stm32f4/stm-idf/components/stm32f4xx_hal_driver/stm32f4xx_hal_nand.c ****       hnand->ItCallback = HAL_NAND_ITCallback;
1826:/home/phong/Documents/thesis/stm32f4/stm-idf/components/stm32f4xx_hal_driver/stm32f4xx_hal_nand.c ****       break;
1827:/home/phong/Documents/thesis/stm32f4/stm-idf/components/stm32f4xx_hal_driver/stm32f4xx_hal_nand.c ****     default :
1828:/home/phong/Documents/thesis/stm32f4/stm-idf/components/stm32f4xx_hal_driver/stm32f4xx_hal_nand.c ****       /* update return status */
1829:/home/phong/Documents/thesis/stm32f4/stm-idf/components/stm32f4xx_hal_driver/stm32f4xx_hal_nand.c ****       status =  HAL_ERROR;
1830:/home/phong/Documents/thesis/stm32f4/stm-idf/components/stm32f4xx_hal_driver/stm32f4xx_hal_nand.c ****       break;
1831:/home/phong/Documents/thesis/stm32f4/stm-idf/components/stm32f4xx_hal_driver/stm32f4xx_hal_nand.c ****     }
1832:/home/phong/Documents/thesis/stm32f4/stm-idf/components/stm32f4xx_hal_driver/stm32f4xx_hal_nand.c ****   }
1833:/home/phong/Documents/thesis/stm32f4/stm-idf/components/stm32f4xx_hal_driver/stm32f4xx_hal_nand.c ****   else if(hnand->State == HAL_NAND_STATE_RESET)
1834:/home/phong/Documents/thesis/stm32f4/stm-idf/components/stm32f4xx_hal_driver/stm32f4xx_hal_nand.c ****   {
1835:/home/phong/Documents/thesis/stm32f4/stm-idf/components/stm32f4xx_hal_driver/stm32f4xx_hal_nand.c ****     switch (CallbackId)
1836:/home/phong/Documents/thesis/stm32f4/stm-idf/components/stm32f4xx_hal_driver/stm32f4xx_hal_nand.c ****     {
1837:/home/phong/Documents/thesis/stm32f4/stm-idf/components/stm32f4xx_hal_driver/stm32f4xx_hal_nand.c ****     case HAL_NAND_MSP_INIT_CB_ID :
1838:/home/phong/Documents/thesis/stm32f4/stm-idf/components/stm32f4xx_hal_driver/stm32f4xx_hal_nand.c ****       hnand->MspInitCallback = HAL_NAND_MspInit;
1839:/home/phong/Documents/thesis/stm32f4/stm-idf/components/stm32f4xx_hal_driver/stm32f4xx_hal_nand.c ****       break;
1840:/home/phong/Documents/thesis/stm32f4/stm-idf/components/stm32f4xx_hal_driver/stm32f4xx_hal_nand.c ****     case HAL_NAND_MSP_DEINIT_CB_ID :
1841:/home/phong/Documents/thesis/stm32f4/stm-idf/components/stm32f4xx_hal_driver/stm32f4xx_hal_nand.c ****       hnand->MspDeInitCallback = HAL_NAND_MspDeInit;
1842:/home/phong/Documents/thesis/stm32f4/stm-idf/components/stm32f4xx_hal_driver/stm32f4xx_hal_nand.c ****       break;
1843:/home/phong/Documents/thesis/stm32f4/stm-idf/components/stm32f4xx_hal_driver/stm32f4xx_hal_nand.c ****     default :
1844:/home/phong/Documents/thesis/stm32f4/stm-idf/components/stm32f4xx_hal_driver/stm32f4xx_hal_nand.c ****       /* update return status */
1845:/home/phong/Documents/thesis/stm32f4/stm-idf/components/stm32f4xx_hal_driver/stm32f4xx_hal_nand.c ****       status =  HAL_ERROR;
1846:/home/phong/Documents/thesis/stm32f4/stm-idf/components/stm32f4xx_hal_driver/stm32f4xx_hal_nand.c ****       break;
1847:/home/phong/Documents/thesis/stm32f4/stm-idf/components/stm32f4xx_hal_driver/stm32f4xx_hal_nand.c ****     }
1848:/home/phong/Documents/thesis/stm32f4/stm-idf/components/stm32f4xx_hal_driver/stm32f4xx_hal_nand.c ****   }
1849:/home/phong/Documents/thesis/stm32f4/stm-idf/components/stm32f4xx_hal_driver/stm32f4xx_hal_nand.c ****   else
1850:/home/phong/Documents/thesis/stm32f4/stm-idf/components/stm32f4xx_hal_driver/stm32f4xx_hal_nand.c ****   {
1851:/home/phong/Documents/thesis/stm32f4/stm-idf/components/stm32f4xx_hal_driver/stm32f4xx_hal_nand.c ****     /* update return status */
1852:/home/phong/Documents/thesis/stm32f4/stm-idf/components/stm32f4xx_hal_driver/stm32f4xx_hal_nand.c ****     status =  HAL_ERROR;
1853:/home/phong/Documents/thesis/stm32f4/stm-idf/components/stm32f4xx_hal_driver/stm32f4xx_hal_nand.c ****   }
1854:/home/phong/Documents/thesis/stm32f4/stm-idf/components/stm32f4xx_hal_driver/stm32f4xx_hal_nand.c **** 
1855:/home/phong/Documents/thesis/stm32f4/stm-idf/components/stm32f4xx_hal_driver/stm32f4xx_hal_nand.c ****   /* Release Lock */
1856:/home/phong/Documents/thesis/stm32f4/stm-idf/components/stm32f4xx_hal_driver/stm32f4xx_hal_nand.c ****   __HAL_UNLOCK(hnand);
1857:/home/phong/Documents/thesis/stm32f4/stm-idf/components/stm32f4xx_hal_driver/stm32f4xx_hal_nand.c ****   return status;
1858:/home/phong/Documents/thesis/stm32f4/stm-idf/components/stm32f4xx_hal_driver/stm32f4xx_hal_nand.c **** }
1859:/home/phong/Documents/thesis/stm32f4/stm-idf/components/stm32f4xx_hal_driver/stm32f4xx_hal_nand.c **** #endif
1860:/home/phong/Documents/thesis/stm32f4/stm-idf/components/stm32f4xx_hal_driver/stm32f4xx_hal_nand.c **** 
1861:/home/phong/Documents/thesis/stm32f4/stm-idf/components/stm32f4xx_hal_driver/stm32f4xx_hal_nand.c **** /**
1862:/home/phong/Documents/thesis/stm32f4/stm-idf/components/stm32f4xx_hal_driver/stm32f4xx_hal_nand.c ****   * @}
1863:/home/phong/Documents/thesis/stm32f4/stm-idf/components/stm32f4xx_hal_driver/stm32f4xx_hal_nand.c ****   */
1864:/home/phong/Documents/thesis/stm32f4/stm-idf/components/stm32f4xx_hal_driver/stm32f4xx_hal_nand.c **** 
ARM GAS  /tmp/ccM6uMDT.s 			page 114


1865:/home/phong/Documents/thesis/stm32f4/stm-idf/components/stm32f4xx_hal_driver/stm32f4xx_hal_nand.c **** /** @defgroup NAND_Exported_Functions_Group3 Peripheral Control functions 
1866:/home/phong/Documents/thesis/stm32f4/stm-idf/components/stm32f4xx_hal_driver/stm32f4xx_hal_nand.c ****  *  @brief   management functions 
1867:/home/phong/Documents/thesis/stm32f4/stm-idf/components/stm32f4xx_hal_driver/stm32f4xx_hal_nand.c ****  *
1868:/home/phong/Documents/thesis/stm32f4/stm-idf/components/stm32f4xx_hal_driver/stm32f4xx_hal_nand.c **** @verbatim   
1869:/home/phong/Documents/thesis/stm32f4/stm-idf/components/stm32f4xx_hal_driver/stm32f4xx_hal_nand.c ****   ==============================================================================
1870:/home/phong/Documents/thesis/stm32f4/stm-idf/components/stm32f4xx_hal_driver/stm32f4xx_hal_nand.c ****                          ##### NAND Control functions #####
1871:/home/phong/Documents/thesis/stm32f4/stm-idf/components/stm32f4xx_hal_driver/stm32f4xx_hal_nand.c ****   ==============================================================================  
1872:/home/phong/Documents/thesis/stm32f4/stm-idf/components/stm32f4xx_hal_driver/stm32f4xx_hal_nand.c ****   [..]
1873:/home/phong/Documents/thesis/stm32f4/stm-idf/components/stm32f4xx_hal_driver/stm32f4xx_hal_nand.c ****     This subsection provides a set of functions allowing to control dynamically
1874:/home/phong/Documents/thesis/stm32f4/stm-idf/components/stm32f4xx_hal_driver/stm32f4xx_hal_nand.c ****     the NAND interface.
1875:/home/phong/Documents/thesis/stm32f4/stm-idf/components/stm32f4xx_hal_driver/stm32f4xx_hal_nand.c **** 
1876:/home/phong/Documents/thesis/stm32f4/stm-idf/components/stm32f4xx_hal_driver/stm32f4xx_hal_nand.c **** @endverbatim
1877:/home/phong/Documents/thesis/stm32f4/stm-idf/components/stm32f4xx_hal_driver/stm32f4xx_hal_nand.c ****   * @{
1878:/home/phong/Documents/thesis/stm32f4/stm-idf/components/stm32f4xx_hal_driver/stm32f4xx_hal_nand.c ****   */ 
1879:/home/phong/Documents/thesis/stm32f4/stm-idf/components/stm32f4xx_hal_driver/stm32f4xx_hal_nand.c **** 
1880:/home/phong/Documents/thesis/stm32f4/stm-idf/components/stm32f4xx_hal_driver/stm32f4xx_hal_nand.c ****     
1881:/home/phong/Documents/thesis/stm32f4/stm-idf/components/stm32f4xx_hal_driver/stm32f4xx_hal_nand.c **** /**
1882:/home/phong/Documents/thesis/stm32f4/stm-idf/components/stm32f4xx_hal_driver/stm32f4xx_hal_nand.c ****   * @brief  Enables dynamically NAND ECC feature.
1883:/home/phong/Documents/thesis/stm32f4/stm-idf/components/stm32f4xx_hal_driver/stm32f4xx_hal_nand.c ****   * @param  hnand pointer to a NAND_HandleTypeDef structure that contains
1884:/home/phong/Documents/thesis/stm32f4/stm-idf/components/stm32f4xx_hal_driver/stm32f4xx_hal_nand.c ****   *                the configuration information for NAND module.
1885:/home/phong/Documents/thesis/stm32f4/stm-idf/components/stm32f4xx_hal_driver/stm32f4xx_hal_nand.c ****   * @retval HAL status
1886:/home/phong/Documents/thesis/stm32f4/stm-idf/components/stm32f4xx_hal_driver/stm32f4xx_hal_nand.c ****   */    
1887:/home/phong/Documents/thesis/stm32f4/stm-idf/components/stm32f4xx_hal_driver/stm32f4xx_hal_nand.c **** HAL_StatusTypeDef  HAL_NAND_ECC_Enable(NAND_HandleTypeDef *hnand)
1888:/home/phong/Documents/thesis/stm32f4/stm-idf/components/stm32f4xx_hal_driver/stm32f4xx_hal_nand.c **** {
 3208              		.loc 1 1888 0
 3209              		.cfi_startproc
 3210              		@ args = 0, pretend = 0, frame = 0
 3211              		@ frame_needed = 0, uses_anonymous_args = 0
 3212              	.LVL293:
1889:/home/phong/Documents/thesis/stm32f4/stm-idf/components/stm32f4xx_hal_driver/stm32f4xx_hal_nand.c ****   /* Check the NAND controller state */
1890:/home/phong/Documents/thesis/stm32f4/stm-idf/components/stm32f4xx_hal_driver/stm32f4xx_hal_nand.c ****   if(hnand->State == HAL_NAND_STATE_BUSY)
 3213              		.loc 1 1890 0
 3214 0000 90F82130 		ldrb	r3, [r0, #33]	@ zero_extendqisi2
 3215 0004 DBB2     		uxtb	r3, r3
 3216 0006 022B     		cmp	r3, #2
 3217 0008 01D1     		bne	.L270
1891:/home/phong/Documents/thesis/stm32f4/stm-idf/components/stm32f4xx_hal_driver/stm32f4xx_hal_nand.c ****   {
1892:/home/phong/Documents/thesis/stm32f4/stm-idf/components/stm32f4xx_hal_driver/stm32f4xx_hal_nand.c ****      return HAL_BUSY;
 3218              		.loc 1 1892 0
 3219 000a 0220     		movs	r0, #2
 3220              	.LVL294:
 3221 000c 7047     		bx	lr
 3222              	.LVL295:
 3223              	.L270:
1888:/home/phong/Documents/thesis/stm32f4/stm-idf/components/stm32f4xx_hal_driver/stm32f4xx_hal_nand.c ****   /* Check the NAND controller state */
 3224              		.loc 1 1888 0
 3225 000e 10B5     		push	{r4, lr}
 3226              	.LCFI42:
 3227              		.cfi_def_cfa_offset 8
 3228              		.cfi_offset 4, -8
 3229              		.cfi_offset 14, -4
 3230 0010 0446     		mov	r4, r0
1893:/home/phong/Documents/thesis/stm32f4/stm-idf/components/stm32f4xx_hal_driver/stm32f4xx_hal_nand.c ****   }
1894:/home/phong/Documents/thesis/stm32f4/stm-idf/components/stm32f4xx_hal_driver/stm32f4xx_hal_nand.c **** 
1895:/home/phong/Documents/thesis/stm32f4/stm-idf/components/stm32f4xx_hal_driver/stm32f4xx_hal_nand.c ****   /* Update the NAND state */
1896:/home/phong/Documents/thesis/stm32f4/stm-idf/components/stm32f4xx_hal_driver/stm32f4xx_hal_nand.c ****   hnand->State = HAL_NAND_STATE_BUSY;
 3231              		.loc 1 1896 0
ARM GAS  /tmp/ccM6uMDT.s 			page 115


 3232 0012 0223     		movs	r3, #2
 3233 0014 80F82130 		strb	r3, [r0, #33]
1897:/home/phong/Documents/thesis/stm32f4/stm-idf/components/stm32f4xx_hal_driver/stm32f4xx_hal_nand.c ****    
1898:/home/phong/Documents/thesis/stm32f4/stm-idf/components/stm32f4xx_hal_driver/stm32f4xx_hal_nand.c ****   /* Enable ECC feature */
1899:/home/phong/Documents/thesis/stm32f4/stm-idf/components/stm32f4xx_hal_driver/stm32f4xx_hal_nand.c ****   FMC_NAND_ECC_Enable(hnand->Instance, hnand->Init.NandBank);
 3234              		.loc 1 1899 0
 3235 0018 4168     		ldr	r1, [r0, #4]
 3236 001a 0068     		ldr	r0, [r0]
 3237              	.LVL296:
 3238 001c FFF7FEFF 		bl	FSMC_NAND_ECC_Enable
 3239              	.LVL297:
1900:/home/phong/Documents/thesis/stm32f4/stm-idf/components/stm32f4xx_hal_driver/stm32f4xx_hal_nand.c ****   
1901:/home/phong/Documents/thesis/stm32f4/stm-idf/components/stm32f4xx_hal_driver/stm32f4xx_hal_nand.c ****   /* Update the NAND state */
1902:/home/phong/Documents/thesis/stm32f4/stm-idf/components/stm32f4xx_hal_driver/stm32f4xx_hal_nand.c ****   hnand->State = HAL_NAND_STATE_READY;
 3240              		.loc 1 1902 0
 3241 0020 0123     		movs	r3, #1
 3242 0022 84F82130 		strb	r3, [r4, #33]
1903:/home/phong/Documents/thesis/stm32f4/stm-idf/components/stm32f4xx_hal_driver/stm32f4xx_hal_nand.c ****   
1904:/home/phong/Documents/thesis/stm32f4/stm-idf/components/stm32f4xx_hal_driver/stm32f4xx_hal_nand.c ****   return HAL_OK;
 3243              		.loc 1 1904 0
 3244 0026 0020     		movs	r0, #0
 3245 0028 10BD     		pop	{r4, pc}
 3246              		.cfi_endproc
 3247              	.LFE150:
 3249              		.section	.text.HAL_NAND_ECC_Disable,"ax",%progbits
 3250              		.align	1
 3251              		.global	HAL_NAND_ECC_Disable
 3252              		.syntax unified
 3253              		.thumb
 3254              		.thumb_func
 3255              		.fpu fpv4-sp-d16
 3257              	HAL_NAND_ECC_Disable:
 3258              	.LFB151:
1905:/home/phong/Documents/thesis/stm32f4/stm-idf/components/stm32f4xx_hal_driver/stm32f4xx_hal_nand.c **** }
1906:/home/phong/Documents/thesis/stm32f4/stm-idf/components/stm32f4xx_hal_driver/stm32f4xx_hal_nand.c **** 
1907:/home/phong/Documents/thesis/stm32f4/stm-idf/components/stm32f4xx_hal_driver/stm32f4xx_hal_nand.c **** /**
1908:/home/phong/Documents/thesis/stm32f4/stm-idf/components/stm32f4xx_hal_driver/stm32f4xx_hal_nand.c ****   * @brief  Disables dynamically FMC_NAND ECC feature.
1909:/home/phong/Documents/thesis/stm32f4/stm-idf/components/stm32f4xx_hal_driver/stm32f4xx_hal_nand.c ****   * @param  hnand pointer to a NAND_HandleTypeDef structure that contains
1910:/home/phong/Documents/thesis/stm32f4/stm-idf/components/stm32f4xx_hal_driver/stm32f4xx_hal_nand.c ****   *                the configuration information for NAND module.
1911:/home/phong/Documents/thesis/stm32f4/stm-idf/components/stm32f4xx_hal_driver/stm32f4xx_hal_nand.c ****   * @retval HAL status
1912:/home/phong/Documents/thesis/stm32f4/stm-idf/components/stm32f4xx_hal_driver/stm32f4xx_hal_nand.c ****   */  
1913:/home/phong/Documents/thesis/stm32f4/stm-idf/components/stm32f4xx_hal_driver/stm32f4xx_hal_nand.c **** HAL_StatusTypeDef  HAL_NAND_ECC_Disable(NAND_HandleTypeDef *hnand)
1914:/home/phong/Documents/thesis/stm32f4/stm-idf/components/stm32f4xx_hal_driver/stm32f4xx_hal_nand.c **** {
 3259              		.loc 1 1914 0
 3260              		.cfi_startproc
 3261              		@ args = 0, pretend = 0, frame = 0
 3262              		@ frame_needed = 0, uses_anonymous_args = 0
 3263              	.LVL298:
1915:/home/phong/Documents/thesis/stm32f4/stm-idf/components/stm32f4xx_hal_driver/stm32f4xx_hal_nand.c ****   /* Check the NAND controller state */
1916:/home/phong/Documents/thesis/stm32f4/stm-idf/components/stm32f4xx_hal_driver/stm32f4xx_hal_nand.c ****   if(hnand->State == HAL_NAND_STATE_BUSY)
 3264              		.loc 1 1916 0
 3265 0000 90F82130 		ldrb	r3, [r0, #33]	@ zero_extendqisi2
 3266 0004 DBB2     		uxtb	r3, r3
 3267 0006 022B     		cmp	r3, #2
 3268 0008 01D1     		bne	.L278
1917:/home/phong/Documents/thesis/stm32f4/stm-idf/components/stm32f4xx_hal_driver/stm32f4xx_hal_nand.c ****   {
1918:/home/phong/Documents/thesis/stm32f4/stm-idf/components/stm32f4xx_hal_driver/stm32f4xx_hal_nand.c ****      return HAL_BUSY;
ARM GAS  /tmp/ccM6uMDT.s 			page 116


 3269              		.loc 1 1918 0
 3270 000a 0220     		movs	r0, #2
 3271              	.LVL299:
 3272 000c 7047     		bx	lr
 3273              	.LVL300:
 3274              	.L278:
1914:/home/phong/Documents/thesis/stm32f4/stm-idf/components/stm32f4xx_hal_driver/stm32f4xx_hal_nand.c ****   /* Check the NAND controller state */
 3275              		.loc 1 1914 0
 3276 000e 10B5     		push	{r4, lr}
 3277              	.LCFI43:
 3278              		.cfi_def_cfa_offset 8
 3279              		.cfi_offset 4, -8
 3280              		.cfi_offset 14, -4
 3281 0010 0446     		mov	r4, r0
1919:/home/phong/Documents/thesis/stm32f4/stm-idf/components/stm32f4xx_hal_driver/stm32f4xx_hal_nand.c ****   }
1920:/home/phong/Documents/thesis/stm32f4/stm-idf/components/stm32f4xx_hal_driver/stm32f4xx_hal_nand.c **** 
1921:/home/phong/Documents/thesis/stm32f4/stm-idf/components/stm32f4xx_hal_driver/stm32f4xx_hal_nand.c ****   /* Update the NAND state */
1922:/home/phong/Documents/thesis/stm32f4/stm-idf/components/stm32f4xx_hal_driver/stm32f4xx_hal_nand.c ****   hnand->State = HAL_NAND_STATE_BUSY;
 3282              		.loc 1 1922 0
 3283 0012 0223     		movs	r3, #2
 3284 0014 80F82130 		strb	r3, [r0, #33]
1923:/home/phong/Documents/thesis/stm32f4/stm-idf/components/stm32f4xx_hal_driver/stm32f4xx_hal_nand.c ****     
1924:/home/phong/Documents/thesis/stm32f4/stm-idf/components/stm32f4xx_hal_driver/stm32f4xx_hal_nand.c ****   /* Disable ECC feature */
1925:/home/phong/Documents/thesis/stm32f4/stm-idf/components/stm32f4xx_hal_driver/stm32f4xx_hal_nand.c ****   FMC_NAND_ECC_Disable(hnand->Instance, hnand->Init.NandBank);
 3285              		.loc 1 1925 0
 3286 0018 4168     		ldr	r1, [r0, #4]
 3287 001a 0068     		ldr	r0, [r0]
 3288              	.LVL301:
 3289 001c FFF7FEFF 		bl	FSMC_NAND_ECC_Disable
 3290              	.LVL302:
1926:/home/phong/Documents/thesis/stm32f4/stm-idf/components/stm32f4xx_hal_driver/stm32f4xx_hal_nand.c ****   
1927:/home/phong/Documents/thesis/stm32f4/stm-idf/components/stm32f4xx_hal_driver/stm32f4xx_hal_nand.c ****   /* Update the NAND state */
1928:/home/phong/Documents/thesis/stm32f4/stm-idf/components/stm32f4xx_hal_driver/stm32f4xx_hal_nand.c ****   hnand->State = HAL_NAND_STATE_READY;
 3291              		.loc 1 1928 0
 3292 0020 0123     		movs	r3, #1
 3293 0022 84F82130 		strb	r3, [r4, #33]
1929:/home/phong/Documents/thesis/stm32f4/stm-idf/components/stm32f4xx_hal_driver/stm32f4xx_hal_nand.c ****   
1930:/home/phong/Documents/thesis/stm32f4/stm-idf/components/stm32f4xx_hal_driver/stm32f4xx_hal_nand.c ****   return HAL_OK;  
 3294              		.loc 1 1930 0
 3295 0026 0020     		movs	r0, #0
 3296 0028 10BD     		pop	{r4, pc}
 3297              		.cfi_endproc
 3298              	.LFE151:
 3300              		.section	.text.HAL_NAND_GetECC,"ax",%progbits
 3301              		.align	1
 3302              		.global	HAL_NAND_GetECC
 3303              		.syntax unified
 3304              		.thumb
 3305              		.thumb_func
 3306              		.fpu fpv4-sp-d16
 3308              	HAL_NAND_GetECC:
 3309              	.LFB152:
1931:/home/phong/Documents/thesis/stm32f4/stm-idf/components/stm32f4xx_hal_driver/stm32f4xx_hal_nand.c **** }
1932:/home/phong/Documents/thesis/stm32f4/stm-idf/components/stm32f4xx_hal_driver/stm32f4xx_hal_nand.c **** 
1933:/home/phong/Documents/thesis/stm32f4/stm-idf/components/stm32f4xx_hal_driver/stm32f4xx_hal_nand.c **** /**
1934:/home/phong/Documents/thesis/stm32f4/stm-idf/components/stm32f4xx_hal_driver/stm32f4xx_hal_nand.c ****   * @brief  Disables dynamically NAND ECC feature.
1935:/home/phong/Documents/thesis/stm32f4/stm-idf/components/stm32f4xx_hal_driver/stm32f4xx_hal_nand.c ****   * @param  hnand pointer to a NAND_HandleTypeDef structure that contains
ARM GAS  /tmp/ccM6uMDT.s 			page 117


1936:/home/phong/Documents/thesis/stm32f4/stm-idf/components/stm32f4xx_hal_driver/stm32f4xx_hal_nand.c ****   *                the configuration information for NAND module.
1937:/home/phong/Documents/thesis/stm32f4/stm-idf/components/stm32f4xx_hal_driver/stm32f4xx_hal_nand.c ****   * @param  ECCval pointer to ECC value 
1938:/home/phong/Documents/thesis/stm32f4/stm-idf/components/stm32f4xx_hal_driver/stm32f4xx_hal_nand.c ****   * @param  Timeout maximum timeout to wait    
1939:/home/phong/Documents/thesis/stm32f4/stm-idf/components/stm32f4xx_hal_driver/stm32f4xx_hal_nand.c ****   * @retval HAL status
1940:/home/phong/Documents/thesis/stm32f4/stm-idf/components/stm32f4xx_hal_driver/stm32f4xx_hal_nand.c ****   */
1941:/home/phong/Documents/thesis/stm32f4/stm-idf/components/stm32f4xx_hal_driver/stm32f4xx_hal_nand.c **** HAL_StatusTypeDef  HAL_NAND_GetECC(NAND_HandleTypeDef *hnand, uint32_t *ECCval, uint32_t Timeout)
1942:/home/phong/Documents/thesis/stm32f4/stm-idf/components/stm32f4xx_hal_driver/stm32f4xx_hal_nand.c **** {
 3310              		.loc 1 1942 0
 3311              		.cfi_startproc
 3312              		@ args = 0, pretend = 0, frame = 0
 3313              		@ frame_needed = 0, uses_anonymous_args = 0
 3314              	.LVL303:
 3315 0000 10B5     		push	{r4, lr}
 3316              	.LCFI44:
 3317              		.cfi_def_cfa_offset 8
 3318              		.cfi_offset 4, -8
 3319              		.cfi_offset 14, -4
 3320              	.LVL304:
1943:/home/phong/Documents/thesis/stm32f4/stm-idf/components/stm32f4xx_hal_driver/stm32f4xx_hal_nand.c ****   HAL_StatusTypeDef status = HAL_OK;
1944:/home/phong/Documents/thesis/stm32f4/stm-idf/components/stm32f4xx_hal_driver/stm32f4xx_hal_nand.c ****   
1945:/home/phong/Documents/thesis/stm32f4/stm-idf/components/stm32f4xx_hal_driver/stm32f4xx_hal_nand.c ****   /* Check the NAND controller state */
1946:/home/phong/Documents/thesis/stm32f4/stm-idf/components/stm32f4xx_hal_driver/stm32f4xx_hal_nand.c ****   if(hnand->State == HAL_NAND_STATE_BUSY)
 3321              		.loc 1 1946 0
 3322 0002 90F82140 		ldrb	r4, [r0, #33]	@ zero_extendqisi2
 3323 0006 E4B2     		uxtb	r4, r4
 3324 0008 022C     		cmp	r4, #2
 3325 000a 01D1     		bne	.L283
1947:/home/phong/Documents/thesis/stm32f4/stm-idf/components/stm32f4xx_hal_driver/stm32f4xx_hal_nand.c ****   {
1948:/home/phong/Documents/thesis/stm32f4/stm-idf/components/stm32f4xx_hal_driver/stm32f4xx_hal_nand.c ****      return HAL_BUSY;
 3326              		.loc 1 1948 0
 3327 000c 0220     		movs	r0, #2
 3328              	.LVL305:
1949:/home/phong/Documents/thesis/stm32f4/stm-idf/components/stm32f4xx_hal_driver/stm32f4xx_hal_nand.c ****   }
1950:/home/phong/Documents/thesis/stm32f4/stm-idf/components/stm32f4xx_hal_driver/stm32f4xx_hal_nand.c ****   
1951:/home/phong/Documents/thesis/stm32f4/stm-idf/components/stm32f4xx_hal_driver/stm32f4xx_hal_nand.c ****   /* Update the NAND state */
1952:/home/phong/Documents/thesis/stm32f4/stm-idf/components/stm32f4xx_hal_driver/stm32f4xx_hal_nand.c ****   hnand->State = HAL_NAND_STATE_BUSY;  
1953:/home/phong/Documents/thesis/stm32f4/stm-idf/components/stm32f4xx_hal_driver/stm32f4xx_hal_nand.c ****    
1954:/home/phong/Documents/thesis/stm32f4/stm-idf/components/stm32f4xx_hal_driver/stm32f4xx_hal_nand.c ****   /* Get NAND ECC value */
1955:/home/phong/Documents/thesis/stm32f4/stm-idf/components/stm32f4xx_hal_driver/stm32f4xx_hal_nand.c ****   status = FMC_NAND_GetECC(hnand->Instance, ECCval, hnand->Init.NandBank, Timeout);
1956:/home/phong/Documents/thesis/stm32f4/stm-idf/components/stm32f4xx_hal_driver/stm32f4xx_hal_nand.c ****   
1957:/home/phong/Documents/thesis/stm32f4/stm-idf/components/stm32f4xx_hal_driver/stm32f4xx_hal_nand.c ****   /* Update the NAND state */
1958:/home/phong/Documents/thesis/stm32f4/stm-idf/components/stm32f4xx_hal_driver/stm32f4xx_hal_nand.c ****   hnand->State = HAL_NAND_STATE_READY;
1959:/home/phong/Documents/thesis/stm32f4/stm-idf/components/stm32f4xx_hal_driver/stm32f4xx_hal_nand.c **** 
1960:/home/phong/Documents/thesis/stm32f4/stm-idf/components/stm32f4xx_hal_driver/stm32f4xx_hal_nand.c ****   return status;  
1961:/home/phong/Documents/thesis/stm32f4/stm-idf/components/stm32f4xx_hal_driver/stm32f4xx_hal_nand.c **** }
 3329              		.loc 1 1961 0
 3330 000e 10BD     		pop	{r4, pc}
 3331              	.LVL306:
 3332              	.L283:
 3333 0010 1346     		mov	r3, r2
 3334 0012 0446     		mov	r4, r0
1952:/home/phong/Documents/thesis/stm32f4/stm-idf/components/stm32f4xx_hal_driver/stm32f4xx_hal_nand.c ****    
 3335              		.loc 1 1952 0
 3336 0014 0222     		movs	r2, #2
 3337              	.LVL307:
 3338 0016 80F82120 		strb	r2, [r0, #33]
1955:/home/phong/Documents/thesis/stm32f4/stm-idf/components/stm32f4xx_hal_driver/stm32f4xx_hal_nand.c ****   
ARM GAS  /tmp/ccM6uMDT.s 			page 118


 3339              		.loc 1 1955 0
 3340 001a 4268     		ldr	r2, [r0, #4]
 3341 001c 0068     		ldr	r0, [r0]
 3342              	.LVL308:
 3343 001e FFF7FEFF 		bl	FSMC_NAND_GetECC
 3344              	.LVL309:
1958:/home/phong/Documents/thesis/stm32f4/stm-idf/components/stm32f4xx_hal_driver/stm32f4xx_hal_nand.c **** 
 3345              		.loc 1 1958 0
 3346 0022 0123     		movs	r3, #1
 3347 0024 84F82130 		strb	r3, [r4, #33]
1960:/home/phong/Documents/thesis/stm32f4/stm-idf/components/stm32f4xx_hal_driver/stm32f4xx_hal_nand.c **** }
 3348              		.loc 1 1960 0
 3349 0028 10BD     		pop	{r4, pc}
 3350              		.cfi_endproc
 3351              	.LFE152:
 3353              		.section	.text.HAL_NAND_GetState,"ax",%progbits
 3354              		.align	1
 3355              		.global	HAL_NAND_GetState
 3356              		.syntax unified
 3357              		.thumb
 3358              		.thumb_func
 3359              		.fpu fpv4-sp-d16
 3361              	HAL_NAND_GetState:
 3362              	.LFB153:
1962:/home/phong/Documents/thesis/stm32f4/stm-idf/components/stm32f4xx_hal_driver/stm32f4xx_hal_nand.c **** 
1963:/home/phong/Documents/thesis/stm32f4/stm-idf/components/stm32f4xx_hal_driver/stm32f4xx_hal_nand.c **** /**
1964:/home/phong/Documents/thesis/stm32f4/stm-idf/components/stm32f4xx_hal_driver/stm32f4xx_hal_nand.c ****   * @}
1965:/home/phong/Documents/thesis/stm32f4/stm-idf/components/stm32f4xx_hal_driver/stm32f4xx_hal_nand.c ****   */
1966:/home/phong/Documents/thesis/stm32f4/stm-idf/components/stm32f4xx_hal_driver/stm32f4xx_hal_nand.c ****   
1967:/home/phong/Documents/thesis/stm32f4/stm-idf/components/stm32f4xx_hal_driver/stm32f4xx_hal_nand.c ****     
1968:/home/phong/Documents/thesis/stm32f4/stm-idf/components/stm32f4xx_hal_driver/stm32f4xx_hal_nand.c **** /** @defgroup NAND_Exported_Functions_Group4 Peripheral State functions 
1969:/home/phong/Documents/thesis/stm32f4/stm-idf/components/stm32f4xx_hal_driver/stm32f4xx_hal_nand.c ****  *  @brief   Peripheral State functions 
1970:/home/phong/Documents/thesis/stm32f4/stm-idf/components/stm32f4xx_hal_driver/stm32f4xx_hal_nand.c ****  *
1971:/home/phong/Documents/thesis/stm32f4/stm-idf/components/stm32f4xx_hal_driver/stm32f4xx_hal_nand.c **** @verbatim   
1972:/home/phong/Documents/thesis/stm32f4/stm-idf/components/stm32f4xx_hal_driver/stm32f4xx_hal_nand.c ****   ==============================================================================
1973:/home/phong/Documents/thesis/stm32f4/stm-idf/components/stm32f4xx_hal_driver/stm32f4xx_hal_nand.c ****                          ##### NAND State functions #####
1974:/home/phong/Documents/thesis/stm32f4/stm-idf/components/stm32f4xx_hal_driver/stm32f4xx_hal_nand.c ****   ==============================================================================  
1975:/home/phong/Documents/thesis/stm32f4/stm-idf/components/stm32f4xx_hal_driver/stm32f4xx_hal_nand.c ****   [..]
1976:/home/phong/Documents/thesis/stm32f4/stm-idf/components/stm32f4xx_hal_driver/stm32f4xx_hal_nand.c ****     This subsection permits to get in run-time the status of the NAND controller 
1977:/home/phong/Documents/thesis/stm32f4/stm-idf/components/stm32f4xx_hal_driver/stm32f4xx_hal_nand.c ****     and the data flow.
1978:/home/phong/Documents/thesis/stm32f4/stm-idf/components/stm32f4xx_hal_driver/stm32f4xx_hal_nand.c **** 
1979:/home/phong/Documents/thesis/stm32f4/stm-idf/components/stm32f4xx_hal_driver/stm32f4xx_hal_nand.c **** @endverbatim
1980:/home/phong/Documents/thesis/stm32f4/stm-idf/components/stm32f4xx_hal_driver/stm32f4xx_hal_nand.c ****   * @{
1981:/home/phong/Documents/thesis/stm32f4/stm-idf/components/stm32f4xx_hal_driver/stm32f4xx_hal_nand.c ****   */
1982:/home/phong/Documents/thesis/stm32f4/stm-idf/components/stm32f4xx_hal_driver/stm32f4xx_hal_nand.c ****   
1983:/home/phong/Documents/thesis/stm32f4/stm-idf/components/stm32f4xx_hal_driver/stm32f4xx_hal_nand.c **** /**
1984:/home/phong/Documents/thesis/stm32f4/stm-idf/components/stm32f4xx_hal_driver/stm32f4xx_hal_nand.c ****   * @brief  return the NAND state
1985:/home/phong/Documents/thesis/stm32f4/stm-idf/components/stm32f4xx_hal_driver/stm32f4xx_hal_nand.c ****   * @param  hnand pointer to a NAND_HandleTypeDef structure that contains
1986:/home/phong/Documents/thesis/stm32f4/stm-idf/components/stm32f4xx_hal_driver/stm32f4xx_hal_nand.c ****   *                the configuration information for NAND module.
1987:/home/phong/Documents/thesis/stm32f4/stm-idf/components/stm32f4xx_hal_driver/stm32f4xx_hal_nand.c ****   * @retval HAL state
1988:/home/phong/Documents/thesis/stm32f4/stm-idf/components/stm32f4xx_hal_driver/stm32f4xx_hal_nand.c ****   */
1989:/home/phong/Documents/thesis/stm32f4/stm-idf/components/stm32f4xx_hal_driver/stm32f4xx_hal_nand.c **** HAL_NAND_StateTypeDef HAL_NAND_GetState(NAND_HandleTypeDef *hnand)
1990:/home/phong/Documents/thesis/stm32f4/stm-idf/components/stm32f4xx_hal_driver/stm32f4xx_hal_nand.c **** {
 3363              		.loc 1 1990 0
 3364              		.cfi_startproc
 3365              		@ args = 0, pretend = 0, frame = 0
 3366              		@ frame_needed = 0, uses_anonymous_args = 0
ARM GAS  /tmp/ccM6uMDT.s 			page 119


 3367              		@ link register save eliminated.
 3368              	.LVL310:
1991:/home/phong/Documents/thesis/stm32f4/stm-idf/components/stm32f4xx_hal_driver/stm32f4xx_hal_nand.c ****   return hnand->State;
 3369              		.loc 1 1991 0
 3370 0000 90F82100 		ldrb	r0, [r0, #33]	@ zero_extendqisi2
 3371              	.LVL311:
1992:/home/phong/Documents/thesis/stm32f4/stm-idf/components/stm32f4xx_hal_driver/stm32f4xx_hal_nand.c **** }
 3372              		.loc 1 1992 0
 3373 0004 7047     		bx	lr
 3374              		.cfi_endproc
 3375              	.LFE153:
 3377              		.text
 3378              	.Letext0:
 3379              		.file 3 "/home/phong/Documents/thesis/stm32f4/stm-idf/components/newlib/include/machine/_default_t
 3380              		.file 4 "/home/phong/Documents/thesis/stm32f4/stm-idf/components/newlib/include/sys/_stdint.h"
 3381              		.file 5 "/home/phong/Documents/thesis/stm32f4/stm-idf/components/cmsis/include/core_cm4.h"
 3382              		.file 6 "/home/phong/Documents/thesis/stm32f4/stm-idf/components/cmsis/device/stm32/stm32f4xx/incl
 3383              		.file 7 "/home/phong/Documents/thesis/stm32f4/stm-idf/components/cmsis/device/stm32/stm32f4xx/incl
 3384              		.file 8 "/home/phong/Documents/thesis/stm32f4/stm-idf/components/cmsis/device/stm32/stm32f4xx/incl
 3385              		.file 9 "/home/phong/Documents/thesis/stm32f4/stm-idf/components/stm32f4xx_hal_driver/include/stm3
 3386              		.file 10 "/home/phong/Documents/thesis/stm32f4/stm-idf/components/stm32f4xx_hal_driver/include/stm
 3387              		.file 11 "/home/phong/Documents/thesis/stm32f4/stm-idf/components/stm32f4xx_hal_driver/include/stm
 3388              		.file 12 "/home/phong/Documents/thesis/stm32f4/stm-idf/components/stm32f4xx_hal_driver/include/stm
ARM GAS  /tmp/ccM6uMDT.s 			page 120


DEFINED SYMBOLS
                            *ABS*:0000000000000000 stm32f4xx_hal_nand.c
     /tmp/ccM6uMDT.s:18     .text.HAL_NAND_MspInit:0000000000000000 $t
     /tmp/ccM6uMDT.s:25     .text.HAL_NAND_MspInit:0000000000000000 HAL_NAND_MspInit
     /tmp/ccM6uMDT.s:39     .text.HAL_NAND_Init:0000000000000000 $t
     /tmp/ccM6uMDT.s:46     .text.HAL_NAND_Init:0000000000000000 HAL_NAND_Init
     /tmp/ccM6uMDT.s:135    .text.HAL_NAND_MspDeInit:0000000000000000 $t
     /tmp/ccM6uMDT.s:142    .text.HAL_NAND_MspDeInit:0000000000000000 HAL_NAND_MspDeInit
     /tmp/ccM6uMDT.s:155    .text.HAL_NAND_DeInit:0000000000000000 $t
     /tmp/ccM6uMDT.s:162    .text.HAL_NAND_DeInit:0000000000000000 HAL_NAND_DeInit
     /tmp/ccM6uMDT.s:195    .text.HAL_NAND_ITCallback:0000000000000000 $t
     /tmp/ccM6uMDT.s:202    .text.HAL_NAND_ITCallback:0000000000000000 HAL_NAND_ITCallback
     /tmp/ccM6uMDT.s:215    .text.HAL_NAND_IRQHandler:0000000000000000 $t
     /tmp/ccM6uMDT.s:222    .text.HAL_NAND_IRQHandler:0000000000000000 HAL_NAND_IRQHandler
     /tmp/ccM6uMDT.s:410    .text.HAL_NAND_Read_ID:0000000000000000 $t
     /tmp/ccM6uMDT.s:417    .text.HAL_NAND_Read_ID:0000000000000000 HAL_NAND_Read_ID
     /tmp/ccM6uMDT.s:560    .text.HAL_NAND_Reset:0000000000000000 $t
     /tmp/ccM6uMDT.s:567    .text.HAL_NAND_Reset:0000000000000000 HAL_NAND_Reset
     /tmp/ccM6uMDT.s:634    .text.HAL_NAND_ConfigDevice:0000000000000000 $t
     /tmp/ccM6uMDT.s:641    .text.HAL_NAND_ConfigDevice:0000000000000000 HAL_NAND_ConfigDevice
     /tmp/ccM6uMDT.s:678    .text.HAL_NAND_Read_Status:0000000000000000 $t
     /tmp/ccM6uMDT.s:685    .text.HAL_NAND_Read_Status:0000000000000000 HAL_NAND_Read_Status
     /tmp/ccM6uMDT.s:742    .text.HAL_NAND_Read_Page_8b:0000000000000000 $t
     /tmp/ccM6uMDT.s:749    .text.HAL_NAND_Read_Page_8b:0000000000000000 HAL_NAND_Read_Page_8b
     /tmp/ccM6uMDT.s:1022   .text.HAL_NAND_Read_Page_16b:0000000000000000 $t
     /tmp/ccM6uMDT.s:1029   .text.HAL_NAND_Read_Page_16b:0000000000000000 HAL_NAND_Read_Page_16b
     /tmp/ccM6uMDT.s:1301   .text.HAL_NAND_Write_Page_8b:0000000000000000 $t
     /tmp/ccM6uMDT.s:1308   .text.HAL_NAND_Write_Page_8b:0000000000000000 HAL_NAND_Write_Page_8b
     /tmp/ccM6uMDT.s:1583   .text.HAL_NAND_Write_Page_16b:0000000000000000 $t
     /tmp/ccM6uMDT.s:1590   .text.HAL_NAND_Write_Page_16b:0000000000000000 HAL_NAND_Write_Page_16b
     /tmp/ccM6uMDT.s:1865   .text.HAL_NAND_Read_SpareArea_8b:0000000000000000 $t
     /tmp/ccM6uMDT.s:1872   .text.HAL_NAND_Read_SpareArea_8b:0000000000000000 HAL_NAND_Read_SpareArea_8b
     /tmp/ccM6uMDT.s:2146   .text.HAL_NAND_Read_SpareArea_16b:0000000000000000 $t
     /tmp/ccM6uMDT.s:2153   .text.HAL_NAND_Read_SpareArea_16b:0000000000000000 HAL_NAND_Read_SpareArea_16b
     /tmp/ccM6uMDT.s:2428   .text.HAL_NAND_Write_SpareArea_8b:0000000000000000 $t
     /tmp/ccM6uMDT.s:2435   .text.HAL_NAND_Write_SpareArea_8b:0000000000000000 HAL_NAND_Write_SpareArea_8b
     /tmp/ccM6uMDT.s:2703   .text.HAL_NAND_Write_SpareArea_16b:0000000000000000 $t
     /tmp/ccM6uMDT.s:2710   .text.HAL_NAND_Write_SpareArea_16b:0000000000000000 HAL_NAND_Write_SpareArea_16b
     /tmp/ccM6uMDT.s:2979   .text.HAL_NAND_Erase_Block:0000000000000000 $t
     /tmp/ccM6uMDT.s:2986   .text.HAL_NAND_Erase_Block:0000000000000000 HAL_NAND_Erase_Block
     /tmp/ccM6uMDT.s:3124   .text.HAL_NAND_Address_Inc:0000000000000000 $t
     /tmp/ccM6uMDT.s:3131   .text.HAL_NAND_Address_Inc:0000000000000000 HAL_NAND_Address_Inc
     /tmp/ccM6uMDT.s:3199   .text.HAL_NAND_ECC_Enable:0000000000000000 $t
     /tmp/ccM6uMDT.s:3206   .text.HAL_NAND_ECC_Enable:0000000000000000 HAL_NAND_ECC_Enable
     /tmp/ccM6uMDT.s:3250   .text.HAL_NAND_ECC_Disable:0000000000000000 $t
     /tmp/ccM6uMDT.s:3257   .text.HAL_NAND_ECC_Disable:0000000000000000 HAL_NAND_ECC_Disable
     /tmp/ccM6uMDT.s:3301   .text.HAL_NAND_GetECC:0000000000000000 $t
     /tmp/ccM6uMDT.s:3308   .text.HAL_NAND_GetECC:0000000000000000 HAL_NAND_GetECC
     /tmp/ccM6uMDT.s:3354   .text.HAL_NAND_GetState:0000000000000000 $t
     /tmp/ccM6uMDT.s:3361   .text.HAL_NAND_GetState:0000000000000000 HAL_NAND_GetState
                     .debug_frame:0000000000000010 $d

UNDEFINED SYMBOLS
FSMC_NAND_Init
FSMC_NAND_CommonSpace_Timing_Init
FSMC_NAND_AttributeSpace_Timing_Init
FSMC_NAND_DeInit
ARM GAS  /tmp/ccM6uMDT.s 			page 121


HAL_GetTick
FSMC_NAND_ECC_Enable
FSMC_NAND_ECC_Disable
FSMC_NAND_GetECC
