ARM GAS  /tmp/ccV4nfVF.s 			page 1


   1              		.cpu cortex-m4
   2              		.eabi_attribute 27, 1
   3              		.eabi_attribute 28, 1
   4              		.eabi_attribute 20, 1
   5              		.eabi_attribute 21, 1
   6              		.eabi_attribute 23, 3
   7              		.eabi_attribute 24, 1
   8              		.eabi_attribute 25, 1
   9              		.eabi_attribute 26, 1
  10              		.eabi_attribute 30, 1
  11              		.eabi_attribute 34, 1
  12              		.eabi_attribute 18, 4
  13              		.file	"stm32f4xx_hal_pccard.c"
  14              		.text
  15              	.Ltext0:
  16              		.cfi_sections	.debug_frame
  17              		.section	.text.HAL_PCCARD_MspInit,"ax",%progbits
  18              		.align	1
  19              		.weak	HAL_PCCARD_MspInit
  20              		.syntax unified
  21              		.thumb
  22              		.thumb_func
  23              		.fpu fpv4-sp-d16
  25              	HAL_PCCARD_MspInit:
  26              	.LFB132:
  27              		.file 1 "/home/phong/Documents/thesis/stm32f4/stm-idf/components/stm32f4xx_hal_driver/stm32f4xx_ha
   1:/home/phong/Documents/thesis/stm32f4/stm-idf/components/stm32f4xx_hal_driver/stm32f4xx_hal_pccard.c **** /**
   2:/home/phong/Documents/thesis/stm32f4/stm-idf/components/stm32f4xx_hal_driver/stm32f4xx_hal_pccard.c ****   ******************************************************************************
   3:/home/phong/Documents/thesis/stm32f4/stm-idf/components/stm32f4xx_hal_driver/stm32f4xx_hal_pccard.c ****   * @file    stm32f4xx_hal_pccard.c
   4:/home/phong/Documents/thesis/stm32f4/stm-idf/components/stm32f4xx_hal_driver/stm32f4xx_hal_pccard.c ****   * @author  MCD Application Team
   5:/home/phong/Documents/thesis/stm32f4/stm-idf/components/stm32f4xx_hal_driver/stm32f4xx_hal_pccard.c ****   * @brief   PCCARD HAL module driver.
   6:/home/phong/Documents/thesis/stm32f4/stm-idf/components/stm32f4xx_hal_driver/stm32f4xx_hal_pccard.c ****   *          This file provides a generic firmware to drive PCCARD memories mounted 
   7:/home/phong/Documents/thesis/stm32f4/stm-idf/components/stm32f4xx_hal_driver/stm32f4xx_hal_pccard.c ****   *          as external device.
   8:/home/phong/Documents/thesis/stm32f4/stm-idf/components/stm32f4xx_hal_driver/stm32f4xx_hal_pccard.c ****   *         
   9:/home/phong/Documents/thesis/stm32f4/stm-idf/components/stm32f4xx_hal_driver/stm32f4xx_hal_pccard.c ****   @verbatim
  10:/home/phong/Documents/thesis/stm32f4/stm-idf/components/stm32f4xx_hal_driver/stm32f4xx_hal_pccard.c ****  ===============================================================================
  11:/home/phong/Documents/thesis/stm32f4/stm-idf/components/stm32f4xx_hal_driver/stm32f4xx_hal_pccard.c ****                         ##### How to use this driver #####
  12:/home/phong/Documents/thesis/stm32f4/stm-idf/components/stm32f4xx_hal_driver/stm32f4xx_hal_pccard.c ****  ===============================================================================  
  13:/home/phong/Documents/thesis/stm32f4/stm-idf/components/stm32f4xx_hal_driver/stm32f4xx_hal_pccard.c ****    [..]
  14:/home/phong/Documents/thesis/stm32f4/stm-idf/components/stm32f4xx_hal_driver/stm32f4xx_hal_pccard.c ****      This driver is a generic layered driver which contains a set of APIs used to 
  15:/home/phong/Documents/thesis/stm32f4/stm-idf/components/stm32f4xx_hal_driver/stm32f4xx_hal_pccard.c ****      control PCCARD/compact flash memories. It uses the FMC/FSMC layer functions 
  16:/home/phong/Documents/thesis/stm32f4/stm-idf/components/stm32f4xx_hal_driver/stm32f4xx_hal_pccard.c ****      to interface with PCCARD devices. This driver is used for:
  17:/home/phong/Documents/thesis/stm32f4/stm-idf/components/stm32f4xx_hal_driver/stm32f4xx_hal_pccard.c ****     
  18:/home/phong/Documents/thesis/stm32f4/stm-idf/components/stm32f4xx_hal_driver/stm32f4xx_hal_pccard.c ****     (+) PCCARD/Compact Flash memory configuration sequence using the function 
  19:/home/phong/Documents/thesis/stm32f4/stm-idf/components/stm32f4xx_hal_driver/stm32f4xx_hal_pccard.c ****         HAL_PCCARD_Init()/HAL_CF_Init() with control and timing parameters for
  20:/home/phong/Documents/thesis/stm32f4/stm-idf/components/stm32f4xx_hal_driver/stm32f4xx_hal_pccard.c ****         both common and attribute spaces.
  21:/home/phong/Documents/thesis/stm32f4/stm-idf/components/stm32f4xx_hal_driver/stm32f4xx_hal_pccard.c ****             
  22:/home/phong/Documents/thesis/stm32f4/stm-idf/components/stm32f4xx_hal_driver/stm32f4xx_hal_pccard.c ****     (+) Read PCCARD/Compact Flash memory maker and device IDs using the function
  23:/home/phong/Documents/thesis/stm32f4/stm-idf/components/stm32f4xx_hal_driver/stm32f4xx_hal_pccard.c ****         HAL_PCCARD_Read_ID()/HAL_CF_Read_ID(). The read information is stored in
  24:/home/phong/Documents/thesis/stm32f4/stm-idf/components/stm32f4xx_hal_driver/stm32f4xx_hal_pccard.c ****         the CompactFlash_ID structure declared by the function caller. 
  25:/home/phong/Documents/thesis/stm32f4/stm-idf/components/stm32f4xx_hal_driver/stm32f4xx_hal_pccard.c ****         
  26:/home/phong/Documents/thesis/stm32f4/stm-idf/components/stm32f4xx_hal_driver/stm32f4xx_hal_pccard.c ****     (+) Access PCCARD/Compact Flash memory by read/write operations using the functions
  27:/home/phong/Documents/thesis/stm32f4/stm-idf/components/stm32f4xx_hal_driver/stm32f4xx_hal_pccard.c ****         HAL_PCCARD_Read_Sector()/ HAL_PCCARD_Write_Sector() - 
  28:/home/phong/Documents/thesis/stm32f4/stm-idf/components/stm32f4xx_hal_driver/stm32f4xx_hal_pccard.c ****         HAL_CF_Read_Sector()/HAL_CF_Write_Sector(), to read/write sector. 
  29:/home/phong/Documents/thesis/stm32f4/stm-idf/components/stm32f4xx_hal_driver/stm32f4xx_hal_pccard.c ****         
  30:/home/phong/Documents/thesis/stm32f4/stm-idf/components/stm32f4xx_hal_driver/stm32f4xx_hal_pccard.c ****     (+) Perform PCCARD/Compact Flash Reset chip operation using the function
  31:/home/phong/Documents/thesis/stm32f4/stm-idf/components/stm32f4xx_hal_driver/stm32f4xx_hal_pccard.c ****         HAL_PCCARD_Reset()/HAL_CF_Reset.
ARM GAS  /tmp/ccV4nfVF.s 			page 2


  32:/home/phong/Documents/thesis/stm32f4/stm-idf/components/stm32f4xx_hal_driver/stm32f4xx_hal_pccard.c ****         
  33:/home/phong/Documents/thesis/stm32f4/stm-idf/components/stm32f4xx_hal_driver/stm32f4xx_hal_pccard.c ****     (+) Perform PCCARD/Compact Flash erase sector operation using the function 
  34:/home/phong/Documents/thesis/stm32f4/stm-idf/components/stm32f4xx_hal_driver/stm32f4xx_hal_pccard.c ****         HAL_PCCARD_Erase_Sector()/HAL_CF_Erase_Sector.
  35:/home/phong/Documents/thesis/stm32f4/stm-idf/components/stm32f4xx_hal_driver/stm32f4xx_hal_pccard.c ****     
  36:/home/phong/Documents/thesis/stm32f4/stm-idf/components/stm32f4xx_hal_driver/stm32f4xx_hal_pccard.c ****     (+) Read the PCCARD/Compact Flash status operation using the function
  37:/home/phong/Documents/thesis/stm32f4/stm-idf/components/stm32f4xx_hal_driver/stm32f4xx_hal_pccard.c ****         HAL_PCCARD_ReadStatus()/HAL_CF_ReadStatus().
  38:/home/phong/Documents/thesis/stm32f4/stm-idf/components/stm32f4xx_hal_driver/stm32f4xx_hal_pccard.c ****      
  39:/home/phong/Documents/thesis/stm32f4/stm-idf/components/stm32f4xx_hal_driver/stm32f4xx_hal_pccard.c ****     (+) You can monitor the PCCARD/Compact Flash  device HAL state by calling
  40:/home/phong/Documents/thesis/stm32f4/stm-idf/components/stm32f4xx_hal_driver/stm32f4xx_hal_pccard.c ****         the function HAL_PCCARD_GetState()/HAL_CF_GetState()
  41:/home/phong/Documents/thesis/stm32f4/stm-idf/components/stm32f4xx_hal_driver/stm32f4xx_hal_pccard.c ****         
  42:/home/phong/Documents/thesis/stm32f4/stm-idf/components/stm32f4xx_hal_driver/stm32f4xx_hal_pccard.c ****    [..]
  43:/home/phong/Documents/thesis/stm32f4/stm-idf/components/stm32f4xx_hal_driver/stm32f4xx_hal_pccard.c ****      (@) This driver is a set of generic APIs which handle standard PCCARD/compact flash 
  44:/home/phong/Documents/thesis/stm32f4/stm-idf/components/stm32f4xx_hal_driver/stm32f4xx_hal_pccard.c ****          operations. If a PCCARD/Compact Flash device contains different operations 
  45:/home/phong/Documents/thesis/stm32f4/stm-idf/components/stm32f4xx_hal_driver/stm32f4xx_hal_pccard.c ****          and/or implementations, it should be implemented separately.
  46:/home/phong/Documents/thesis/stm32f4/stm-idf/components/stm32f4xx_hal_driver/stm32f4xx_hal_pccard.c ****    
  47:/home/phong/Documents/thesis/stm32f4/stm-idf/components/stm32f4xx_hal_driver/stm32f4xx_hal_pccard.c ****       *** Callback registration ***
  48:/home/phong/Documents/thesis/stm32f4/stm-idf/components/stm32f4xx_hal_driver/stm32f4xx_hal_pccard.c ****     =============================================
  49:/home/phong/Documents/thesis/stm32f4/stm-idf/components/stm32f4xx_hal_driver/stm32f4xx_hal_pccard.c ****     [..]
  50:/home/phong/Documents/thesis/stm32f4/stm-idf/components/stm32f4xx_hal_driver/stm32f4xx_hal_pccard.c ****       The compilation define  USE_HAL_PCCARD_REGISTER_CALLBACKS when set to 1
  51:/home/phong/Documents/thesis/stm32f4/stm-idf/components/stm32f4xx_hal_driver/stm32f4xx_hal_pccard.c ****       allows the user to configure dynamically the driver callbacks.
  52:/home/phong/Documents/thesis/stm32f4/stm-idf/components/stm32f4xx_hal_driver/stm32f4xx_hal_pccard.c **** 
  53:/home/phong/Documents/thesis/stm32f4/stm-idf/components/stm32f4xx_hal_driver/stm32f4xx_hal_pccard.c ****       Use Functions @ref HAL_PCCARD_RegisterCallback() to register a user callback,
  54:/home/phong/Documents/thesis/stm32f4/stm-idf/components/stm32f4xx_hal_driver/stm32f4xx_hal_pccard.c ****       it allows to register following callbacks:
  55:/home/phong/Documents/thesis/stm32f4/stm-idf/components/stm32f4xx_hal_driver/stm32f4xx_hal_pccard.c ****         (+) MspInitCallback    : PCCARD MspInit.
  56:/home/phong/Documents/thesis/stm32f4/stm-idf/components/stm32f4xx_hal_driver/stm32f4xx_hal_pccard.c ****         (+) MspDeInitCallback  : PCCARD MspDeInit.
  57:/home/phong/Documents/thesis/stm32f4/stm-idf/components/stm32f4xx_hal_driver/stm32f4xx_hal_pccard.c ****       This function takes as parameters the HAL peripheral handle, the Callback ID
  58:/home/phong/Documents/thesis/stm32f4/stm-idf/components/stm32f4xx_hal_driver/stm32f4xx_hal_pccard.c ****       and a pointer to the user callback function.
  59:/home/phong/Documents/thesis/stm32f4/stm-idf/components/stm32f4xx_hal_driver/stm32f4xx_hal_pccard.c **** 
  60:/home/phong/Documents/thesis/stm32f4/stm-idf/components/stm32f4xx_hal_driver/stm32f4xx_hal_pccard.c ****       Use function @ref HAL_PCCARD_UnRegisterCallback() to reset a callback to the default
  61:/home/phong/Documents/thesis/stm32f4/stm-idf/components/stm32f4xx_hal_driver/stm32f4xx_hal_pccard.c ****       weak (surcharged) function. It allows to reset following callbacks:
  62:/home/phong/Documents/thesis/stm32f4/stm-idf/components/stm32f4xx_hal_driver/stm32f4xx_hal_pccard.c ****         (+) MspInitCallback    : PCCARD MspInit.
  63:/home/phong/Documents/thesis/stm32f4/stm-idf/components/stm32f4xx_hal_driver/stm32f4xx_hal_pccard.c ****         (+) MspDeInitCallback  : PCCARD MspDeInit.
  64:/home/phong/Documents/thesis/stm32f4/stm-idf/components/stm32f4xx_hal_driver/stm32f4xx_hal_pccard.c ****       This function) takes as parameters the HAL peripheral handle and the Callback ID.
  65:/home/phong/Documents/thesis/stm32f4/stm-idf/components/stm32f4xx_hal_driver/stm32f4xx_hal_pccard.c **** 
  66:/home/phong/Documents/thesis/stm32f4/stm-idf/components/stm32f4xx_hal_driver/stm32f4xx_hal_pccard.c ****       By default, after the @ref HAL_PCCARD_Init and if the state is HAL_PCCARD_STATE_RESET
  67:/home/phong/Documents/thesis/stm32f4/stm-idf/components/stm32f4xx_hal_driver/stm32f4xx_hal_pccard.c ****       all callbacks are reset to the corresponding legacy weak (surcharged) functions.
  68:/home/phong/Documents/thesis/stm32f4/stm-idf/components/stm32f4xx_hal_driver/stm32f4xx_hal_pccard.c ****       Exception done for MspInit and MspDeInit callbacks that are respectively
  69:/home/phong/Documents/thesis/stm32f4/stm-idf/components/stm32f4xx_hal_driver/stm32f4xx_hal_pccard.c ****       reset to the legacy weak (surcharged) functions in the @ref HAL_PCCARD_Init
  70:/home/phong/Documents/thesis/stm32f4/stm-idf/components/stm32f4xx_hal_driver/stm32f4xx_hal_pccard.c ****       and @ref  HAL_PCCARD_DeInit only when these callbacks are null (not registered beforehand).
  71:/home/phong/Documents/thesis/stm32f4/stm-idf/components/stm32f4xx_hal_driver/stm32f4xx_hal_pccard.c ****       If not, MspInit or MspDeInit are not null, the @ref HAL_PCCARD_Init and @ref HAL_PCCARD_DeIni
  72:/home/phong/Documents/thesis/stm32f4/stm-idf/components/stm32f4xx_hal_driver/stm32f4xx_hal_pccard.c ****       keep and use the user MspInit/MspDeInit callbacks (registered beforehand)
  73:/home/phong/Documents/thesis/stm32f4/stm-idf/components/stm32f4xx_hal_driver/stm32f4xx_hal_pccard.c **** 
  74:/home/phong/Documents/thesis/stm32f4/stm-idf/components/stm32f4xx_hal_driver/stm32f4xx_hal_pccard.c ****       Callbacks can be registered/unregistered in READY state only.
  75:/home/phong/Documents/thesis/stm32f4/stm-idf/components/stm32f4xx_hal_driver/stm32f4xx_hal_pccard.c ****       Exception done for MspInit/MspDeInit callbacks that can be registered/unregistered
  76:/home/phong/Documents/thesis/stm32f4/stm-idf/components/stm32f4xx_hal_driver/stm32f4xx_hal_pccard.c ****       in READY or RESET state, thus registered (user) MspInit/DeInit callbacks can be used
  77:/home/phong/Documents/thesis/stm32f4/stm-idf/components/stm32f4xx_hal_driver/stm32f4xx_hal_pccard.c ****       during the Init/DeInit.
  78:/home/phong/Documents/thesis/stm32f4/stm-idf/components/stm32f4xx_hal_driver/stm32f4xx_hal_pccard.c ****       In that case first register the MspInit/MspDeInit user callbacks
  79:/home/phong/Documents/thesis/stm32f4/stm-idf/components/stm32f4xx_hal_driver/stm32f4xx_hal_pccard.c ****       using @ref HAL_PCCARD_RegisterCallback before calling @ref HAL_PCCARD_DeInit
  80:/home/phong/Documents/thesis/stm32f4/stm-idf/components/stm32f4xx_hal_driver/stm32f4xx_hal_pccard.c ****       or @ref HAL_PCCARD_Init function.
  81:/home/phong/Documents/thesis/stm32f4/stm-idf/components/stm32f4xx_hal_driver/stm32f4xx_hal_pccard.c **** 
  82:/home/phong/Documents/thesis/stm32f4/stm-idf/components/stm32f4xx_hal_driver/stm32f4xx_hal_pccard.c ****       When The compilation define USE_HAL_PCCARD_REGISTER_CALLBACKS is set to 0 or
  83:/home/phong/Documents/thesis/stm32f4/stm-idf/components/stm32f4xx_hal_driver/stm32f4xx_hal_pccard.c ****       not defined, the callback registering feature is not available
  84:/home/phong/Documents/thesis/stm32f4/stm-idf/components/stm32f4xx_hal_driver/stm32f4xx_hal_pccard.c ****       and weak (surcharged) callbacks are used.
  85:/home/phong/Documents/thesis/stm32f4/stm-idf/components/stm32f4xx_hal_driver/stm32f4xx_hal_pccard.c **** 
  86:/home/phong/Documents/thesis/stm32f4/stm-idf/components/stm32f4xx_hal_driver/stm32f4xx_hal_pccard.c ****   @endverbatim
  87:/home/phong/Documents/thesis/stm32f4/stm-idf/components/stm32f4xx_hal_driver/stm32f4xx_hal_pccard.c ****   ******************************************************************************
  88:/home/phong/Documents/thesis/stm32f4/stm-idf/components/stm32f4xx_hal_driver/stm32f4xx_hal_pccard.c ****   * @attention
ARM GAS  /tmp/ccV4nfVF.s 			page 3


  89:/home/phong/Documents/thesis/stm32f4/stm-idf/components/stm32f4xx_hal_driver/stm32f4xx_hal_pccard.c ****   *
  90:/home/phong/Documents/thesis/stm32f4/stm-idf/components/stm32f4xx_hal_driver/stm32f4xx_hal_pccard.c ****   * <h2><center>&copy; Copyright (c) 2017 STMicroelectronics.
  91:/home/phong/Documents/thesis/stm32f4/stm-idf/components/stm32f4xx_hal_driver/stm32f4xx_hal_pccard.c ****   * All rights reserved.</center></h2>
  92:/home/phong/Documents/thesis/stm32f4/stm-idf/components/stm32f4xx_hal_driver/stm32f4xx_hal_pccard.c ****   *
  93:/home/phong/Documents/thesis/stm32f4/stm-idf/components/stm32f4xx_hal_driver/stm32f4xx_hal_pccard.c ****   * This software component is licensed by ST under BSD 3-Clause license,
  94:/home/phong/Documents/thesis/stm32f4/stm-idf/components/stm32f4xx_hal_driver/stm32f4xx_hal_pccard.c ****   * the "License"; You may not use this file except in compliance with the
  95:/home/phong/Documents/thesis/stm32f4/stm-idf/components/stm32f4xx_hal_driver/stm32f4xx_hal_pccard.c ****   * License. You may obtain a copy of the License at:
  96:/home/phong/Documents/thesis/stm32f4/stm-idf/components/stm32f4xx_hal_driver/stm32f4xx_hal_pccard.c ****   *                        opensource.org/licenses/BSD-3-Clause
  97:/home/phong/Documents/thesis/stm32f4/stm-idf/components/stm32f4xx_hal_driver/stm32f4xx_hal_pccard.c ****   *
  98:/home/phong/Documents/thesis/stm32f4/stm-idf/components/stm32f4xx_hal_driver/stm32f4xx_hal_pccard.c ****   ******************************************************************************
  99:/home/phong/Documents/thesis/stm32f4/stm-idf/components/stm32f4xx_hal_driver/stm32f4xx_hal_pccard.c ****   */ 
 100:/home/phong/Documents/thesis/stm32f4/stm-idf/components/stm32f4xx_hal_driver/stm32f4xx_hal_pccard.c **** 
 101:/home/phong/Documents/thesis/stm32f4/stm-idf/components/stm32f4xx_hal_driver/stm32f4xx_hal_pccard.c **** /* Includes ------------------------------------------------------------------*/
 102:/home/phong/Documents/thesis/stm32f4/stm-idf/components/stm32f4xx_hal_driver/stm32f4xx_hal_pccard.c **** #include "stm32f4xx_hal.h"
 103:/home/phong/Documents/thesis/stm32f4/stm-idf/components/stm32f4xx_hal_driver/stm32f4xx_hal_pccard.c **** 
 104:/home/phong/Documents/thesis/stm32f4/stm-idf/components/stm32f4xx_hal_driver/stm32f4xx_hal_pccard.c **** /** @addtogroup STM32F4xx_HAL_Driver
 105:/home/phong/Documents/thesis/stm32f4/stm-idf/components/stm32f4xx_hal_driver/stm32f4xx_hal_pccard.c ****   * @{
 106:/home/phong/Documents/thesis/stm32f4/stm-idf/components/stm32f4xx_hal_driver/stm32f4xx_hal_pccard.c ****   */
 107:/home/phong/Documents/thesis/stm32f4/stm-idf/components/stm32f4xx_hal_driver/stm32f4xx_hal_pccard.c **** 
 108:/home/phong/Documents/thesis/stm32f4/stm-idf/components/stm32f4xx_hal_driver/stm32f4xx_hal_pccard.c **** #ifdef HAL_PCCARD_MODULE_ENABLED
 109:/home/phong/Documents/thesis/stm32f4/stm-idf/components/stm32f4xx_hal_driver/stm32f4xx_hal_pccard.c **** #if defined(STM32F405xx) || defined(STM32F415xx) || defined(STM32F407xx) || defined(STM32F417xx) ||
 110:/home/phong/Documents/thesis/stm32f4/stm-idf/components/stm32f4xx_hal_driver/stm32f4xx_hal_pccard.c ****     defined(STM32F427xx) || defined(STM32F437xx) || defined(STM32F429xx) || defined(STM32F439xx)
 111:/home/phong/Documents/thesis/stm32f4/stm-idf/components/stm32f4xx_hal_driver/stm32f4xx_hal_pccard.c **** /** @defgroup PCCARD PCCARD  
 112:/home/phong/Documents/thesis/stm32f4/stm-idf/components/stm32f4xx_hal_driver/stm32f4xx_hal_pccard.c ****   * @brief PCCARD HAL module driver
 113:/home/phong/Documents/thesis/stm32f4/stm-idf/components/stm32f4xx_hal_driver/stm32f4xx_hal_pccard.c ****   * @{
 114:/home/phong/Documents/thesis/stm32f4/stm-idf/components/stm32f4xx_hal_driver/stm32f4xx_hal_pccard.c ****   */
 115:/home/phong/Documents/thesis/stm32f4/stm-idf/components/stm32f4xx_hal_driver/stm32f4xx_hal_pccard.c **** /* Private typedef -----------------------------------------------------------*/
 116:/home/phong/Documents/thesis/stm32f4/stm-idf/components/stm32f4xx_hal_driver/stm32f4xx_hal_pccard.c **** /* Private define ------------------------------------------------------------*/
 117:/home/phong/Documents/thesis/stm32f4/stm-idf/components/stm32f4xx_hal_driver/stm32f4xx_hal_pccard.c ****     
 118:/home/phong/Documents/thesis/stm32f4/stm-idf/components/stm32f4xx_hal_driver/stm32f4xx_hal_pccard.c **** /** @defgroup PCCARD_Private_Defines PCCARD Private Defines
 119:/home/phong/Documents/thesis/stm32f4/stm-idf/components/stm32f4xx_hal_driver/stm32f4xx_hal_pccard.c ****   * @{
 120:/home/phong/Documents/thesis/stm32f4/stm-idf/components/stm32f4xx_hal_driver/stm32f4xx_hal_pccard.c ****   */
 121:/home/phong/Documents/thesis/stm32f4/stm-idf/components/stm32f4xx_hal_driver/stm32f4xx_hal_pccard.c **** #define PCCARD_TIMEOUT_READ_ID                 0x0000FFFFU
 122:/home/phong/Documents/thesis/stm32f4/stm-idf/components/stm32f4xx_hal_driver/stm32f4xx_hal_pccard.c **** #define PCCARD_TIMEOUT_READ_WRITE_SECTOR       0x0000FFFFU
 123:/home/phong/Documents/thesis/stm32f4/stm-idf/components/stm32f4xx_hal_driver/stm32f4xx_hal_pccard.c **** #define PCCARD_TIMEOUT_ERASE_SECTOR            0x00000400U
 124:/home/phong/Documents/thesis/stm32f4/stm-idf/components/stm32f4xx_hal_driver/stm32f4xx_hal_pccard.c **** #define PCCARD_TIMEOUT_STATUS                  0x01000000U
 125:/home/phong/Documents/thesis/stm32f4/stm-idf/components/stm32f4xx_hal_driver/stm32f4xx_hal_pccard.c **** 
 126:/home/phong/Documents/thesis/stm32f4/stm-idf/components/stm32f4xx_hal_driver/stm32f4xx_hal_pccard.c **** #define PCCARD_STATUS_OK                       (uint8_t)0x58
 127:/home/phong/Documents/thesis/stm32f4/stm-idf/components/stm32f4xx_hal_driver/stm32f4xx_hal_pccard.c **** #define PCCARD_STATUS_WRITE_OK                 (uint8_t)0x50
 128:/home/phong/Documents/thesis/stm32f4/stm-idf/components/stm32f4xx_hal_driver/stm32f4xx_hal_pccard.c **** /**
 129:/home/phong/Documents/thesis/stm32f4/stm-idf/components/stm32f4xx_hal_driver/stm32f4xx_hal_pccard.c ****   * @}
 130:/home/phong/Documents/thesis/stm32f4/stm-idf/components/stm32f4xx_hal_driver/stm32f4xx_hal_pccard.c ****   */ 
 131:/home/phong/Documents/thesis/stm32f4/stm-idf/components/stm32f4xx_hal_driver/stm32f4xx_hal_pccard.c ****     
 132:/home/phong/Documents/thesis/stm32f4/stm-idf/components/stm32f4xx_hal_driver/stm32f4xx_hal_pccard.c **** /* Private macro -------------------------------------------------------------*/
 133:/home/phong/Documents/thesis/stm32f4/stm-idf/components/stm32f4xx_hal_driver/stm32f4xx_hal_pccard.c **** /* Private variables ---------------------------------------------------------*/
 134:/home/phong/Documents/thesis/stm32f4/stm-idf/components/stm32f4xx_hal_driver/stm32f4xx_hal_pccard.c **** /* Private function ----------------------------------------------------------*/
 135:/home/phong/Documents/thesis/stm32f4/stm-idf/components/stm32f4xx_hal_driver/stm32f4xx_hal_pccard.c **** /* Exported functions --------------------------------------------------------*/
 136:/home/phong/Documents/thesis/stm32f4/stm-idf/components/stm32f4xx_hal_driver/stm32f4xx_hal_pccard.c **** /** @defgroup PCCARD_Exported_Functions PCCARD Exported Functions
 137:/home/phong/Documents/thesis/stm32f4/stm-idf/components/stm32f4xx_hal_driver/stm32f4xx_hal_pccard.c ****   * @{
 138:/home/phong/Documents/thesis/stm32f4/stm-idf/components/stm32f4xx_hal_driver/stm32f4xx_hal_pccard.c ****   */
 139:/home/phong/Documents/thesis/stm32f4/stm-idf/components/stm32f4xx_hal_driver/stm32f4xx_hal_pccard.c **** 
 140:/home/phong/Documents/thesis/stm32f4/stm-idf/components/stm32f4xx_hal_driver/stm32f4xx_hal_pccard.c **** /** @defgroup PCCARD_Exported_Functions_Group1 Initialization and de-initialization functions 
 141:/home/phong/Documents/thesis/stm32f4/stm-idf/components/stm32f4xx_hal_driver/stm32f4xx_hal_pccard.c ****   * @brief    Initialization and Configuration functions 
 142:/home/phong/Documents/thesis/stm32f4/stm-idf/components/stm32f4xx_hal_driver/stm32f4xx_hal_pccard.c ****   *
 143:/home/phong/Documents/thesis/stm32f4/stm-idf/components/stm32f4xx_hal_driver/stm32f4xx_hal_pccard.c ****   @verbatim    
 144:/home/phong/Documents/thesis/stm32f4/stm-idf/components/stm32f4xx_hal_driver/stm32f4xx_hal_pccard.c ****   ==============================================================================
 145:/home/phong/Documents/thesis/stm32f4/stm-idf/components/stm32f4xx_hal_driver/stm32f4xx_hal_pccard.c ****           ##### PCCARD Initialization and de-initialization functions #####
ARM GAS  /tmp/ccV4nfVF.s 			page 4


 146:/home/phong/Documents/thesis/stm32f4/stm-idf/components/stm32f4xx_hal_driver/stm32f4xx_hal_pccard.c ****   ==============================================================================
 147:/home/phong/Documents/thesis/stm32f4/stm-idf/components/stm32f4xx_hal_driver/stm32f4xx_hal_pccard.c ****   [..]  
 148:/home/phong/Documents/thesis/stm32f4/stm-idf/components/stm32f4xx_hal_driver/stm32f4xx_hal_pccard.c ****     This section provides functions allowing to initialize/de-initialize
 149:/home/phong/Documents/thesis/stm32f4/stm-idf/components/stm32f4xx_hal_driver/stm32f4xx_hal_pccard.c ****     the PCCARD memory
 150:/home/phong/Documents/thesis/stm32f4/stm-idf/components/stm32f4xx_hal_driver/stm32f4xx_hal_pccard.c ****   
 151:/home/phong/Documents/thesis/stm32f4/stm-idf/components/stm32f4xx_hal_driver/stm32f4xx_hal_pccard.c **** @endverbatim
 152:/home/phong/Documents/thesis/stm32f4/stm-idf/components/stm32f4xx_hal_driver/stm32f4xx_hal_pccard.c ****   * @{
 153:/home/phong/Documents/thesis/stm32f4/stm-idf/components/stm32f4xx_hal_driver/stm32f4xx_hal_pccard.c ****   */
 154:/home/phong/Documents/thesis/stm32f4/stm-idf/components/stm32f4xx_hal_driver/stm32f4xx_hal_pccard.c ****     
 155:/home/phong/Documents/thesis/stm32f4/stm-idf/components/stm32f4xx_hal_driver/stm32f4xx_hal_pccard.c **** /**
 156:/home/phong/Documents/thesis/stm32f4/stm-idf/components/stm32f4xx_hal_driver/stm32f4xx_hal_pccard.c ****   * @brief  Perform the PCCARD memory Initialization sequence
 157:/home/phong/Documents/thesis/stm32f4/stm-idf/components/stm32f4xx_hal_driver/stm32f4xx_hal_pccard.c ****   * @param  hpccard pointer to a PCCARD_HandleTypeDef structure that contains
 158:/home/phong/Documents/thesis/stm32f4/stm-idf/components/stm32f4xx_hal_driver/stm32f4xx_hal_pccard.c ****   *                the configuration information for PCCARD module.
 159:/home/phong/Documents/thesis/stm32f4/stm-idf/components/stm32f4xx_hal_driver/stm32f4xx_hal_pccard.c ****   * @param  ComSpaceTiming Common space timing structure
 160:/home/phong/Documents/thesis/stm32f4/stm-idf/components/stm32f4xx_hal_driver/stm32f4xx_hal_pccard.c ****   * @param  AttSpaceTiming Attribute space timing structure
 161:/home/phong/Documents/thesis/stm32f4/stm-idf/components/stm32f4xx_hal_driver/stm32f4xx_hal_pccard.c ****   * @param  IOSpaceTiming IO space timing structure     
 162:/home/phong/Documents/thesis/stm32f4/stm-idf/components/stm32f4xx_hal_driver/stm32f4xx_hal_pccard.c ****   * @retval HAL status
 163:/home/phong/Documents/thesis/stm32f4/stm-idf/components/stm32f4xx_hal_driver/stm32f4xx_hal_pccard.c ****   */
 164:/home/phong/Documents/thesis/stm32f4/stm-idf/components/stm32f4xx_hal_driver/stm32f4xx_hal_pccard.c **** HAL_StatusTypeDef HAL_PCCARD_Init(PCCARD_HandleTypeDef *hpccard, FMC_NAND_PCC_TimingTypeDef *ComSpa
 165:/home/phong/Documents/thesis/stm32f4/stm-idf/components/stm32f4xx_hal_driver/stm32f4xx_hal_pccard.c **** {
 166:/home/phong/Documents/thesis/stm32f4/stm-idf/components/stm32f4xx_hal_driver/stm32f4xx_hal_pccard.c ****   /* Check the PCCARD controller state */
 167:/home/phong/Documents/thesis/stm32f4/stm-idf/components/stm32f4xx_hal_driver/stm32f4xx_hal_pccard.c ****   if(hpccard == NULL)
 168:/home/phong/Documents/thesis/stm32f4/stm-idf/components/stm32f4xx_hal_driver/stm32f4xx_hal_pccard.c ****   {
 169:/home/phong/Documents/thesis/stm32f4/stm-idf/components/stm32f4xx_hal_driver/stm32f4xx_hal_pccard.c ****      return HAL_ERROR;
 170:/home/phong/Documents/thesis/stm32f4/stm-idf/components/stm32f4xx_hal_driver/stm32f4xx_hal_pccard.c ****   }
 171:/home/phong/Documents/thesis/stm32f4/stm-idf/components/stm32f4xx_hal_driver/stm32f4xx_hal_pccard.c ****   
 172:/home/phong/Documents/thesis/stm32f4/stm-idf/components/stm32f4xx_hal_driver/stm32f4xx_hal_pccard.c ****   if(hpccard->State == HAL_PCCARD_STATE_RESET)
 173:/home/phong/Documents/thesis/stm32f4/stm-idf/components/stm32f4xx_hal_driver/stm32f4xx_hal_pccard.c ****   {  
 174:/home/phong/Documents/thesis/stm32f4/stm-idf/components/stm32f4xx_hal_driver/stm32f4xx_hal_pccard.c ****     /* Allocate lock resource and initialize it */
 175:/home/phong/Documents/thesis/stm32f4/stm-idf/components/stm32f4xx_hal_driver/stm32f4xx_hal_pccard.c ****     hpccard->Lock = HAL_UNLOCKED;
 176:/home/phong/Documents/thesis/stm32f4/stm-idf/components/stm32f4xx_hal_driver/stm32f4xx_hal_pccard.c **** #if (USE_HAL_PCCARD_REGISTER_CALLBACKS == 1)
 177:/home/phong/Documents/thesis/stm32f4/stm-idf/components/stm32f4xx_hal_driver/stm32f4xx_hal_pccard.c ****     if(hpccard->MspInitCallback == NULL)
 178:/home/phong/Documents/thesis/stm32f4/stm-idf/components/stm32f4xx_hal_driver/stm32f4xx_hal_pccard.c ****     {
 179:/home/phong/Documents/thesis/stm32f4/stm-idf/components/stm32f4xx_hal_driver/stm32f4xx_hal_pccard.c ****       hpccard->MspInitCallback = HAL_PCCARD_MspInit;
 180:/home/phong/Documents/thesis/stm32f4/stm-idf/components/stm32f4xx_hal_driver/stm32f4xx_hal_pccard.c ****     }
 181:/home/phong/Documents/thesis/stm32f4/stm-idf/components/stm32f4xx_hal_driver/stm32f4xx_hal_pccard.c ****     hpccard->ItCallback = HAL_PCCARD_ITCallback;
 182:/home/phong/Documents/thesis/stm32f4/stm-idf/components/stm32f4xx_hal_driver/stm32f4xx_hal_pccard.c **** 
 183:/home/phong/Documents/thesis/stm32f4/stm-idf/components/stm32f4xx_hal_driver/stm32f4xx_hal_pccard.c ****     /* Init the low level hardware */
 184:/home/phong/Documents/thesis/stm32f4/stm-idf/components/stm32f4xx_hal_driver/stm32f4xx_hal_pccard.c ****     hpccard->MspInitCallback(hpccard);
 185:/home/phong/Documents/thesis/stm32f4/stm-idf/components/stm32f4xx_hal_driver/stm32f4xx_hal_pccard.c **** #else
 186:/home/phong/Documents/thesis/stm32f4/stm-idf/components/stm32f4xx_hal_driver/stm32f4xx_hal_pccard.c ****     /* Initialize the low level hardware (MSP) */
 187:/home/phong/Documents/thesis/stm32f4/stm-idf/components/stm32f4xx_hal_driver/stm32f4xx_hal_pccard.c ****     HAL_PCCARD_MspInit(hpccard);
 188:/home/phong/Documents/thesis/stm32f4/stm-idf/components/stm32f4xx_hal_driver/stm32f4xx_hal_pccard.c **** #endif
 189:/home/phong/Documents/thesis/stm32f4/stm-idf/components/stm32f4xx_hal_driver/stm32f4xx_hal_pccard.c ****   }
 190:/home/phong/Documents/thesis/stm32f4/stm-idf/components/stm32f4xx_hal_driver/stm32f4xx_hal_pccard.c ****   
 191:/home/phong/Documents/thesis/stm32f4/stm-idf/components/stm32f4xx_hal_driver/stm32f4xx_hal_pccard.c ****   /* Initialize the PCCARD state */
 192:/home/phong/Documents/thesis/stm32f4/stm-idf/components/stm32f4xx_hal_driver/stm32f4xx_hal_pccard.c ****   hpccard->State = HAL_PCCARD_STATE_BUSY;    
 193:/home/phong/Documents/thesis/stm32f4/stm-idf/components/stm32f4xx_hal_driver/stm32f4xx_hal_pccard.c **** 
 194:/home/phong/Documents/thesis/stm32f4/stm-idf/components/stm32f4xx_hal_driver/stm32f4xx_hal_pccard.c ****   /* Initialize PCCARD control Interface */
 195:/home/phong/Documents/thesis/stm32f4/stm-idf/components/stm32f4xx_hal_driver/stm32f4xx_hal_pccard.c ****   FMC_PCCARD_Init(hpccard->Instance, &(hpccard->Init));
 196:/home/phong/Documents/thesis/stm32f4/stm-idf/components/stm32f4xx_hal_driver/stm32f4xx_hal_pccard.c ****   
 197:/home/phong/Documents/thesis/stm32f4/stm-idf/components/stm32f4xx_hal_driver/stm32f4xx_hal_pccard.c ****   /* Init PCCARD common space timing Interface */
 198:/home/phong/Documents/thesis/stm32f4/stm-idf/components/stm32f4xx_hal_driver/stm32f4xx_hal_pccard.c ****   FMC_PCCARD_CommonSpace_Timing_Init(hpccard->Instance, ComSpaceTiming);
 199:/home/phong/Documents/thesis/stm32f4/stm-idf/components/stm32f4xx_hal_driver/stm32f4xx_hal_pccard.c ****   
 200:/home/phong/Documents/thesis/stm32f4/stm-idf/components/stm32f4xx_hal_driver/stm32f4xx_hal_pccard.c ****   /* Init PCCARD attribute space timing Interface */  
 201:/home/phong/Documents/thesis/stm32f4/stm-idf/components/stm32f4xx_hal_driver/stm32f4xx_hal_pccard.c ****   FMC_PCCARD_AttributeSpace_Timing_Init(hpccard->Instance, AttSpaceTiming);
 202:/home/phong/Documents/thesis/stm32f4/stm-idf/components/stm32f4xx_hal_driver/stm32f4xx_hal_pccard.c ****   
ARM GAS  /tmp/ccV4nfVF.s 			page 5


 203:/home/phong/Documents/thesis/stm32f4/stm-idf/components/stm32f4xx_hal_driver/stm32f4xx_hal_pccard.c ****   /* Init PCCARD IO space timing Interface */  
 204:/home/phong/Documents/thesis/stm32f4/stm-idf/components/stm32f4xx_hal_driver/stm32f4xx_hal_pccard.c ****   FMC_PCCARD_IOSpace_Timing_Init(hpccard->Instance, IOSpaceTiming);
 205:/home/phong/Documents/thesis/stm32f4/stm-idf/components/stm32f4xx_hal_driver/stm32f4xx_hal_pccard.c ****   
 206:/home/phong/Documents/thesis/stm32f4/stm-idf/components/stm32f4xx_hal_driver/stm32f4xx_hal_pccard.c ****   /* Enable the PCCARD device */
 207:/home/phong/Documents/thesis/stm32f4/stm-idf/components/stm32f4xx_hal_driver/stm32f4xx_hal_pccard.c ****   __FMC_PCCARD_ENABLE(hpccard->Instance); 
 208:/home/phong/Documents/thesis/stm32f4/stm-idf/components/stm32f4xx_hal_driver/stm32f4xx_hal_pccard.c ****   
 209:/home/phong/Documents/thesis/stm32f4/stm-idf/components/stm32f4xx_hal_driver/stm32f4xx_hal_pccard.c ****   /* Update the PCCARD state */
 210:/home/phong/Documents/thesis/stm32f4/stm-idf/components/stm32f4xx_hal_driver/stm32f4xx_hal_pccard.c ****   hpccard->State = HAL_PCCARD_STATE_READY;  
 211:/home/phong/Documents/thesis/stm32f4/stm-idf/components/stm32f4xx_hal_driver/stm32f4xx_hal_pccard.c ****   
 212:/home/phong/Documents/thesis/stm32f4/stm-idf/components/stm32f4xx_hal_driver/stm32f4xx_hal_pccard.c ****   return HAL_OK;
 213:/home/phong/Documents/thesis/stm32f4/stm-idf/components/stm32f4xx_hal_driver/stm32f4xx_hal_pccard.c **** 
 214:/home/phong/Documents/thesis/stm32f4/stm-idf/components/stm32f4xx_hal_driver/stm32f4xx_hal_pccard.c **** }
 215:/home/phong/Documents/thesis/stm32f4/stm-idf/components/stm32f4xx_hal_driver/stm32f4xx_hal_pccard.c **** 
 216:/home/phong/Documents/thesis/stm32f4/stm-idf/components/stm32f4xx_hal_driver/stm32f4xx_hal_pccard.c **** /**
 217:/home/phong/Documents/thesis/stm32f4/stm-idf/components/stm32f4xx_hal_driver/stm32f4xx_hal_pccard.c ****   * @brief  Perform the PCCARD memory De-initialization sequence
 218:/home/phong/Documents/thesis/stm32f4/stm-idf/components/stm32f4xx_hal_driver/stm32f4xx_hal_pccard.c ****   * @param  hpccard pointer to a PCCARD_HandleTypeDef structure that contains
 219:/home/phong/Documents/thesis/stm32f4/stm-idf/components/stm32f4xx_hal_driver/stm32f4xx_hal_pccard.c ****   *                the configuration information for PCCARD module.
 220:/home/phong/Documents/thesis/stm32f4/stm-idf/components/stm32f4xx_hal_driver/stm32f4xx_hal_pccard.c ****   * @retval HAL status
 221:/home/phong/Documents/thesis/stm32f4/stm-idf/components/stm32f4xx_hal_driver/stm32f4xx_hal_pccard.c ****   */
 222:/home/phong/Documents/thesis/stm32f4/stm-idf/components/stm32f4xx_hal_driver/stm32f4xx_hal_pccard.c **** HAL_StatusTypeDef  HAL_PCCARD_DeInit(PCCARD_HandleTypeDef *hpccard)
 223:/home/phong/Documents/thesis/stm32f4/stm-idf/components/stm32f4xx_hal_driver/stm32f4xx_hal_pccard.c **** {
 224:/home/phong/Documents/thesis/stm32f4/stm-idf/components/stm32f4xx_hal_driver/stm32f4xx_hal_pccard.c **** #if (USE_HAL_PCCARD_REGISTER_CALLBACKS == 1)
 225:/home/phong/Documents/thesis/stm32f4/stm-idf/components/stm32f4xx_hal_driver/stm32f4xx_hal_pccard.c ****   if(hpccard->MspDeInitCallback == NULL)
 226:/home/phong/Documents/thesis/stm32f4/stm-idf/components/stm32f4xx_hal_driver/stm32f4xx_hal_pccard.c ****   {
 227:/home/phong/Documents/thesis/stm32f4/stm-idf/components/stm32f4xx_hal_driver/stm32f4xx_hal_pccard.c ****     hpccard->MspDeInitCallback = HAL_PCCARD_MspDeInit;
 228:/home/phong/Documents/thesis/stm32f4/stm-idf/components/stm32f4xx_hal_driver/stm32f4xx_hal_pccard.c ****   }
 229:/home/phong/Documents/thesis/stm32f4/stm-idf/components/stm32f4xx_hal_driver/stm32f4xx_hal_pccard.c **** 
 230:/home/phong/Documents/thesis/stm32f4/stm-idf/components/stm32f4xx_hal_driver/stm32f4xx_hal_pccard.c ****   /* DeInit the low level hardware */
 231:/home/phong/Documents/thesis/stm32f4/stm-idf/components/stm32f4xx_hal_driver/stm32f4xx_hal_pccard.c ****   hpccard->MspDeInitCallback(hpccard);
 232:/home/phong/Documents/thesis/stm32f4/stm-idf/components/stm32f4xx_hal_driver/stm32f4xx_hal_pccard.c **** #else
 233:/home/phong/Documents/thesis/stm32f4/stm-idf/components/stm32f4xx_hal_driver/stm32f4xx_hal_pccard.c ****   /* De-Initialize the low level hardware (MSP) */
 234:/home/phong/Documents/thesis/stm32f4/stm-idf/components/stm32f4xx_hal_driver/stm32f4xx_hal_pccard.c ****   HAL_PCCARD_MspDeInit(hpccard);
 235:/home/phong/Documents/thesis/stm32f4/stm-idf/components/stm32f4xx_hal_driver/stm32f4xx_hal_pccard.c **** #endif
 236:/home/phong/Documents/thesis/stm32f4/stm-idf/components/stm32f4xx_hal_driver/stm32f4xx_hal_pccard.c **** 
 237:/home/phong/Documents/thesis/stm32f4/stm-idf/components/stm32f4xx_hal_driver/stm32f4xx_hal_pccard.c ****   /* Configure the PCCARD registers with their reset values */
 238:/home/phong/Documents/thesis/stm32f4/stm-idf/components/stm32f4xx_hal_driver/stm32f4xx_hal_pccard.c ****   FMC_PCCARD_DeInit(hpccard->Instance);
 239:/home/phong/Documents/thesis/stm32f4/stm-idf/components/stm32f4xx_hal_driver/stm32f4xx_hal_pccard.c ****   
 240:/home/phong/Documents/thesis/stm32f4/stm-idf/components/stm32f4xx_hal_driver/stm32f4xx_hal_pccard.c ****   /* Update the PCCARD controller state */
 241:/home/phong/Documents/thesis/stm32f4/stm-idf/components/stm32f4xx_hal_driver/stm32f4xx_hal_pccard.c ****   hpccard->State = HAL_PCCARD_STATE_RESET;
 242:/home/phong/Documents/thesis/stm32f4/stm-idf/components/stm32f4xx_hal_driver/stm32f4xx_hal_pccard.c **** 
 243:/home/phong/Documents/thesis/stm32f4/stm-idf/components/stm32f4xx_hal_driver/stm32f4xx_hal_pccard.c ****   /* Release Lock */
 244:/home/phong/Documents/thesis/stm32f4/stm-idf/components/stm32f4xx_hal_driver/stm32f4xx_hal_pccard.c ****   __HAL_UNLOCK(hpccard);
 245:/home/phong/Documents/thesis/stm32f4/stm-idf/components/stm32f4xx_hal_driver/stm32f4xx_hal_pccard.c **** 
 246:/home/phong/Documents/thesis/stm32f4/stm-idf/components/stm32f4xx_hal_driver/stm32f4xx_hal_pccard.c ****   return HAL_OK; 
 247:/home/phong/Documents/thesis/stm32f4/stm-idf/components/stm32f4xx_hal_driver/stm32f4xx_hal_pccard.c **** }
 248:/home/phong/Documents/thesis/stm32f4/stm-idf/components/stm32f4xx_hal_driver/stm32f4xx_hal_pccard.c **** 
 249:/home/phong/Documents/thesis/stm32f4/stm-idf/components/stm32f4xx_hal_driver/stm32f4xx_hal_pccard.c **** /**
 250:/home/phong/Documents/thesis/stm32f4/stm-idf/components/stm32f4xx_hal_driver/stm32f4xx_hal_pccard.c ****   * @brief  PCCARD MSP Init
 251:/home/phong/Documents/thesis/stm32f4/stm-idf/components/stm32f4xx_hal_driver/stm32f4xx_hal_pccard.c ****   * @param  hpccard pointer to a PCCARD_HandleTypeDef structure that contains
 252:/home/phong/Documents/thesis/stm32f4/stm-idf/components/stm32f4xx_hal_driver/stm32f4xx_hal_pccard.c ****   *                the configuration information for PCCARD module.
 253:/home/phong/Documents/thesis/stm32f4/stm-idf/components/stm32f4xx_hal_driver/stm32f4xx_hal_pccard.c ****   * @retval None
 254:/home/phong/Documents/thesis/stm32f4/stm-idf/components/stm32f4xx_hal_driver/stm32f4xx_hal_pccard.c ****   */
 255:/home/phong/Documents/thesis/stm32f4/stm-idf/components/stm32f4xx_hal_driver/stm32f4xx_hal_pccard.c **** __weak void HAL_PCCARD_MspInit(PCCARD_HandleTypeDef *hpccard)
 256:/home/phong/Documents/thesis/stm32f4/stm-idf/components/stm32f4xx_hal_driver/stm32f4xx_hal_pccard.c **** {
  28              		.loc 1 256 0
  29              		.cfi_startproc
  30              		@ args = 0, pretend = 0, frame = 0
ARM GAS  /tmp/ccV4nfVF.s 			page 6


  31              		@ frame_needed = 0, uses_anonymous_args = 0
  32              		@ link register save eliminated.
  33              	.LVL0:
  34 0000 7047     		bx	lr
  35              		.cfi_endproc
  36              	.LFE132:
  38              		.section	.text.HAL_PCCARD_Init,"ax",%progbits
  39              		.align	1
  40              		.global	HAL_PCCARD_Init
  41              		.syntax unified
  42              		.thumb
  43              		.thumb_func
  44              		.fpu fpv4-sp-d16
  46              	HAL_PCCARD_Init:
  47              	.LFB130:
 165:/home/phong/Documents/thesis/stm32f4/stm-idf/components/stm32f4xx_hal_driver/stm32f4xx_hal_pccard.c ****   /* Check the PCCARD controller state */
  48              		.loc 1 165 0
  49              		.cfi_startproc
  50              		@ args = 0, pretend = 0, frame = 0
  51              		@ frame_needed = 0, uses_anonymous_args = 0
  52              	.LVL1:
 167:/home/phong/Documents/thesis/stm32f4/stm-idf/components/stm32f4xx_hal_driver/stm32f4xx_hal_pccard.c ****   {
  53              		.loc 1 167 0
  54 0000 28B3     		cbz	r0, .L5
 165:/home/phong/Documents/thesis/stm32f4/stm-idf/components/stm32f4xx_hal_driver/stm32f4xx_hal_pccard.c ****   /* Check the PCCARD controller state */
  55              		.loc 1 165 0
  56 0002 F8B5     		push	{r3, r4, r5, r6, r7, lr}
  57              	.LCFI0:
  58              		.cfi_def_cfa_offset 24
  59              		.cfi_offset 3, -24
  60              		.cfi_offset 4, -20
  61              		.cfi_offset 5, -16
  62              		.cfi_offset 6, -12
  63              		.cfi_offset 7, -8
  64              		.cfi_offset 14, -4
  65 0004 0446     		mov	r4, r0
  66 0006 1F46     		mov	r7, r3
  67 0008 1546     		mov	r5, r2
  68 000a 0E46     		mov	r6, r1
 172:/home/phong/Documents/thesis/stm32f4/stm-idf/components/stm32f4xx_hal_driver/stm32f4xx_hal_pccard.c ****   {  
  69              		.loc 1 172 0
  70 000c 037C     		ldrb	r3, [r0, #16]	@ zero_extendqisi2
  71              	.LVL2:
  72 000e D3B1     		cbz	r3, .L10
  73              	.LVL3:
  74              	.L4:
 192:/home/phong/Documents/thesis/stm32f4/stm-idf/components/stm32f4xx_hal_driver/stm32f4xx_hal_pccard.c **** 
  75              		.loc 1 192 0
  76 0010 0223     		movs	r3, #2
  77 0012 2374     		strb	r3, [r4, #16]
 195:/home/phong/Documents/thesis/stm32f4/stm-idf/components/stm32f4xx_hal_driver/stm32f4xx_hal_pccard.c ****   
  78              		.loc 1 195 0
  79 0014 211D     		adds	r1, r4, #4
  80 0016 2068     		ldr	r0, [r4]
  81 0018 FFF7FEFF 		bl	FSMC_PCCARD_Init
  82              	.LVL4:
 198:/home/phong/Documents/thesis/stm32f4/stm-idf/components/stm32f4xx_hal_driver/stm32f4xx_hal_pccard.c ****   
ARM GAS  /tmp/ccV4nfVF.s 			page 7


  83              		.loc 1 198 0
  84 001c 3146     		mov	r1, r6
  85 001e 2068     		ldr	r0, [r4]
  86 0020 FFF7FEFF 		bl	FSMC_PCCARD_CommonSpace_Timing_Init
  87              	.LVL5:
 201:/home/phong/Documents/thesis/stm32f4/stm-idf/components/stm32f4xx_hal_driver/stm32f4xx_hal_pccard.c ****   
  88              		.loc 1 201 0
  89 0024 2946     		mov	r1, r5
  90 0026 2068     		ldr	r0, [r4]
  91 0028 FFF7FEFF 		bl	FSMC_PCCARD_AttributeSpace_Timing_Init
  92              	.LVL6:
 204:/home/phong/Documents/thesis/stm32f4/stm-idf/components/stm32f4xx_hal_driver/stm32f4xx_hal_pccard.c ****   
  93              		.loc 1 204 0
  94 002c 3946     		mov	r1, r7
  95 002e 2068     		ldr	r0, [r4]
  96 0030 FFF7FEFF 		bl	FSMC_PCCARD_IOSpace_Timing_Init
  97              	.LVL7:
 207:/home/phong/Documents/thesis/stm32f4/stm-idf/components/stm32f4xx_hal_driver/stm32f4xx_hal_pccard.c ****   
  98              		.loc 1 207 0
  99 0034 2268     		ldr	r2, [r4]
 100 0036 1368     		ldr	r3, [r2]
 101 0038 43F00403 		orr	r3, r3, #4
 102 003c 1360     		str	r3, [r2]
 210:/home/phong/Documents/thesis/stm32f4/stm-idf/components/stm32f4xx_hal_driver/stm32f4xx_hal_pccard.c ****   
 103              		.loc 1 210 0
 104 003e 0123     		movs	r3, #1
 105 0040 2374     		strb	r3, [r4, #16]
 212:/home/phong/Documents/thesis/stm32f4/stm-idf/components/stm32f4xx_hal_driver/stm32f4xx_hal_pccard.c **** 
 106              		.loc 1 212 0
 107 0042 0020     		movs	r0, #0
 108 0044 F8BD     		pop	{r3, r4, r5, r6, r7, pc}
 109              	.LVL8:
 110              	.L10:
 175:/home/phong/Documents/thesis/stm32f4/stm-idf/components/stm32f4xx_hal_driver/stm32f4xx_hal_pccard.c **** #if (USE_HAL_PCCARD_REGISTER_CALLBACKS == 1)
 111              		.loc 1 175 0
 112 0046 4374     		strb	r3, [r0, #17]
 187:/home/phong/Documents/thesis/stm32f4/stm-idf/components/stm32f4xx_hal_driver/stm32f4xx_hal_pccard.c **** #endif
 113              		.loc 1 187 0
 114 0048 FFF7FEFF 		bl	HAL_PCCARD_MspInit
 115              	.LVL9:
 116 004c E0E7     		b	.L4
 117              	.LVL10:
 118              	.L5:
 119              	.LCFI1:
 120              		.cfi_def_cfa_offset 0
 121              		.cfi_restore 3
 122              		.cfi_restore 4
 123              		.cfi_restore 5
 124              		.cfi_restore 6
 125              		.cfi_restore 7
 126              		.cfi_restore 14
 169:/home/phong/Documents/thesis/stm32f4/stm-idf/components/stm32f4xx_hal_driver/stm32f4xx_hal_pccard.c ****   }
 127              		.loc 1 169 0
 128 004e 0120     		movs	r0, #1
 129              	.LVL11:
 130 0050 7047     		bx	lr
 131              		.cfi_endproc
ARM GAS  /tmp/ccV4nfVF.s 			page 8


 132              	.LFE130:
 134              		.section	.text.HAL_PCCARD_MspDeInit,"ax",%progbits
 135              		.align	1
 136              		.weak	HAL_PCCARD_MspDeInit
 137              		.syntax unified
 138              		.thumb
 139              		.thumb_func
 140              		.fpu fpv4-sp-d16
 142              	HAL_PCCARD_MspDeInit:
 143              	.LFB133:
 257:/home/phong/Documents/thesis/stm32f4/stm-idf/components/stm32f4xx_hal_driver/stm32f4xx_hal_pccard.c ****   /* Prevent unused argument(s) compilation warning */
 258:/home/phong/Documents/thesis/stm32f4/stm-idf/components/stm32f4xx_hal_driver/stm32f4xx_hal_pccard.c ****   UNUSED(hpccard);
 259:/home/phong/Documents/thesis/stm32f4/stm-idf/components/stm32f4xx_hal_driver/stm32f4xx_hal_pccard.c ****   /* NOTE : This function Should not be modified, when the callback is needed,
 260:/home/phong/Documents/thesis/stm32f4/stm-idf/components/stm32f4xx_hal_driver/stm32f4xx_hal_pccard.c ****             the HAL_PCCARD_MspInit could be implemented in the user file
 261:/home/phong/Documents/thesis/stm32f4/stm-idf/components/stm32f4xx_hal_driver/stm32f4xx_hal_pccard.c ****    */ 
 262:/home/phong/Documents/thesis/stm32f4/stm-idf/components/stm32f4xx_hal_driver/stm32f4xx_hal_pccard.c **** }
 263:/home/phong/Documents/thesis/stm32f4/stm-idf/components/stm32f4xx_hal_driver/stm32f4xx_hal_pccard.c **** 
 264:/home/phong/Documents/thesis/stm32f4/stm-idf/components/stm32f4xx_hal_driver/stm32f4xx_hal_pccard.c **** /**
 265:/home/phong/Documents/thesis/stm32f4/stm-idf/components/stm32f4xx_hal_driver/stm32f4xx_hal_pccard.c ****   * @brief  PCCARD MSP DeInit
 266:/home/phong/Documents/thesis/stm32f4/stm-idf/components/stm32f4xx_hal_driver/stm32f4xx_hal_pccard.c ****   * @param  hpccard pointer to a PCCARD_HandleTypeDef structure that contains
 267:/home/phong/Documents/thesis/stm32f4/stm-idf/components/stm32f4xx_hal_driver/stm32f4xx_hal_pccard.c ****   *                the configuration information for PCCARD module.
 268:/home/phong/Documents/thesis/stm32f4/stm-idf/components/stm32f4xx_hal_driver/stm32f4xx_hal_pccard.c ****   * @retval None
 269:/home/phong/Documents/thesis/stm32f4/stm-idf/components/stm32f4xx_hal_driver/stm32f4xx_hal_pccard.c ****   */
 270:/home/phong/Documents/thesis/stm32f4/stm-idf/components/stm32f4xx_hal_driver/stm32f4xx_hal_pccard.c **** __weak void HAL_PCCARD_MspDeInit(PCCARD_HandleTypeDef *hpccard)
 271:/home/phong/Documents/thesis/stm32f4/stm-idf/components/stm32f4xx_hal_driver/stm32f4xx_hal_pccard.c **** {
 144              		.loc 1 271 0
 145              		.cfi_startproc
 146              		@ args = 0, pretend = 0, frame = 0
 147              		@ frame_needed = 0, uses_anonymous_args = 0
 148              		@ link register save eliminated.
 149              	.LVL12:
 150 0000 7047     		bx	lr
 151              		.cfi_endproc
 152              	.LFE133:
 154              		.section	.text.HAL_PCCARD_DeInit,"ax",%progbits
 155              		.align	1
 156              		.global	HAL_PCCARD_DeInit
 157              		.syntax unified
 158              		.thumb
 159              		.thumb_func
 160              		.fpu fpv4-sp-d16
 162              	HAL_PCCARD_DeInit:
 163              	.LFB131:
 223:/home/phong/Documents/thesis/stm32f4/stm-idf/components/stm32f4xx_hal_driver/stm32f4xx_hal_pccard.c **** #if (USE_HAL_PCCARD_REGISTER_CALLBACKS == 1)
 164              		.loc 1 223 0
 165              		.cfi_startproc
 166              		@ args = 0, pretend = 0, frame = 0
 167              		@ frame_needed = 0, uses_anonymous_args = 0
 168              	.LVL13:
 223:/home/phong/Documents/thesis/stm32f4/stm-idf/components/stm32f4xx_hal_driver/stm32f4xx_hal_pccard.c **** #if (USE_HAL_PCCARD_REGISTER_CALLBACKS == 1)
 169              		.loc 1 223 0
 170 0000 10B5     		push	{r4, lr}
 171              	.LCFI2:
 172              		.cfi_def_cfa_offset 8
 173              		.cfi_offset 4, -8
 174              		.cfi_offset 14, -4
 175 0002 0446     		mov	r4, r0
ARM GAS  /tmp/ccV4nfVF.s 			page 9


 234:/home/phong/Documents/thesis/stm32f4/stm-idf/components/stm32f4xx_hal_driver/stm32f4xx_hal_pccard.c **** #endif
 176              		.loc 1 234 0
 177 0004 FFF7FEFF 		bl	HAL_PCCARD_MspDeInit
 178              	.LVL14:
 238:/home/phong/Documents/thesis/stm32f4/stm-idf/components/stm32f4xx_hal_driver/stm32f4xx_hal_pccard.c ****   
 179              		.loc 1 238 0
 180 0008 2068     		ldr	r0, [r4]
 181 000a FFF7FEFF 		bl	FSMC_PCCARD_DeInit
 182              	.LVL15:
 241:/home/phong/Documents/thesis/stm32f4/stm-idf/components/stm32f4xx_hal_driver/stm32f4xx_hal_pccard.c **** 
 183              		.loc 1 241 0
 184 000e 0020     		movs	r0, #0
 185 0010 2074     		strb	r0, [r4, #16]
 244:/home/phong/Documents/thesis/stm32f4/stm-idf/components/stm32f4xx_hal_driver/stm32f4xx_hal_pccard.c **** 
 186              		.loc 1 244 0
 187 0012 6074     		strb	r0, [r4, #17]
 247:/home/phong/Documents/thesis/stm32f4/stm-idf/components/stm32f4xx_hal_driver/stm32f4xx_hal_pccard.c **** 
 188              		.loc 1 247 0
 189 0014 10BD     		pop	{r4, pc}
 190              		.cfi_endproc
 191              	.LFE131:
 193              		.section	.text.HAL_PCCARD_Read_ID,"ax",%progbits
 194              		.align	1
 195              		.global	HAL_PCCARD_Read_ID
 196              		.syntax unified
 197              		.thumb
 198              		.thumb_func
 199              		.fpu fpv4-sp-d16
 201              	HAL_PCCARD_Read_ID:
 202              	.LFB134:
 272:/home/phong/Documents/thesis/stm32f4/stm-idf/components/stm32f4xx_hal_driver/stm32f4xx_hal_pccard.c ****   /* Prevent unused argument(s) compilation warning */
 273:/home/phong/Documents/thesis/stm32f4/stm-idf/components/stm32f4xx_hal_driver/stm32f4xx_hal_pccard.c ****   UNUSED(hpccard);
 274:/home/phong/Documents/thesis/stm32f4/stm-idf/components/stm32f4xx_hal_driver/stm32f4xx_hal_pccard.c ****   /* NOTE : This function Should not be modified, when the callback is needed,
 275:/home/phong/Documents/thesis/stm32f4/stm-idf/components/stm32f4xx_hal_driver/stm32f4xx_hal_pccard.c ****             the HAL_PCCARD_MspDeInit could be implemented in the user file
 276:/home/phong/Documents/thesis/stm32f4/stm-idf/components/stm32f4xx_hal_driver/stm32f4xx_hal_pccard.c ****    */ 
 277:/home/phong/Documents/thesis/stm32f4/stm-idf/components/stm32f4xx_hal_driver/stm32f4xx_hal_pccard.c **** }
 278:/home/phong/Documents/thesis/stm32f4/stm-idf/components/stm32f4xx_hal_driver/stm32f4xx_hal_pccard.c **** 
 279:/home/phong/Documents/thesis/stm32f4/stm-idf/components/stm32f4xx_hal_driver/stm32f4xx_hal_pccard.c **** /**
 280:/home/phong/Documents/thesis/stm32f4/stm-idf/components/stm32f4xx_hal_driver/stm32f4xx_hal_pccard.c ****   * @}
 281:/home/phong/Documents/thesis/stm32f4/stm-idf/components/stm32f4xx_hal_driver/stm32f4xx_hal_pccard.c ****   */
 282:/home/phong/Documents/thesis/stm32f4/stm-idf/components/stm32f4xx_hal_driver/stm32f4xx_hal_pccard.c **** 
 283:/home/phong/Documents/thesis/stm32f4/stm-idf/components/stm32f4xx_hal_driver/stm32f4xx_hal_pccard.c **** /** @defgroup PCCARD_Exported_Functions_Group2 Input and Output functions 
 284:/home/phong/Documents/thesis/stm32f4/stm-idf/components/stm32f4xx_hal_driver/stm32f4xx_hal_pccard.c ****   * @brief    Input Output and memory control functions 
 285:/home/phong/Documents/thesis/stm32f4/stm-idf/components/stm32f4xx_hal_driver/stm32f4xx_hal_pccard.c ****   *
 286:/home/phong/Documents/thesis/stm32f4/stm-idf/components/stm32f4xx_hal_driver/stm32f4xx_hal_pccard.c ****   @verbatim    
 287:/home/phong/Documents/thesis/stm32f4/stm-idf/components/stm32f4xx_hal_driver/stm32f4xx_hal_pccard.c ****   ==============================================================================
 288:/home/phong/Documents/thesis/stm32f4/stm-idf/components/stm32f4xx_hal_driver/stm32f4xx_hal_pccard.c ****                     ##### PCCARD Input and Output functions #####
 289:/home/phong/Documents/thesis/stm32f4/stm-idf/components/stm32f4xx_hal_driver/stm32f4xx_hal_pccard.c ****   ==============================================================================
 290:/home/phong/Documents/thesis/stm32f4/stm-idf/components/stm32f4xx_hal_driver/stm32f4xx_hal_pccard.c ****   [..]  
 291:/home/phong/Documents/thesis/stm32f4/stm-idf/components/stm32f4xx_hal_driver/stm32f4xx_hal_pccard.c ****     This section provides functions allowing to use and control the PCCARD memory
 292:/home/phong/Documents/thesis/stm32f4/stm-idf/components/stm32f4xx_hal_driver/stm32f4xx_hal_pccard.c ****   
 293:/home/phong/Documents/thesis/stm32f4/stm-idf/components/stm32f4xx_hal_driver/stm32f4xx_hal_pccard.c **** @endverbatim
 294:/home/phong/Documents/thesis/stm32f4/stm-idf/components/stm32f4xx_hal_driver/stm32f4xx_hal_pccard.c ****   * @{
 295:/home/phong/Documents/thesis/stm32f4/stm-idf/components/stm32f4xx_hal_driver/stm32f4xx_hal_pccard.c ****   */
 296:/home/phong/Documents/thesis/stm32f4/stm-idf/components/stm32f4xx_hal_driver/stm32f4xx_hal_pccard.c ****   
 297:/home/phong/Documents/thesis/stm32f4/stm-idf/components/stm32f4xx_hal_driver/stm32f4xx_hal_pccard.c **** /**
 298:/home/phong/Documents/thesis/stm32f4/stm-idf/components/stm32f4xx_hal_driver/stm32f4xx_hal_pccard.c ****   * @brief  Read Compact Flash's ID.
ARM GAS  /tmp/ccV4nfVF.s 			page 10


 299:/home/phong/Documents/thesis/stm32f4/stm-idf/components/stm32f4xx_hal_driver/stm32f4xx_hal_pccard.c ****   * @param  hpccard pointer to a PCCARD_HandleTypeDef structure that contains
 300:/home/phong/Documents/thesis/stm32f4/stm-idf/components/stm32f4xx_hal_driver/stm32f4xx_hal_pccard.c ****   *                the configuration information for PCCARD module.
 301:/home/phong/Documents/thesis/stm32f4/stm-idf/components/stm32f4xx_hal_driver/stm32f4xx_hal_pccard.c ****   * @param  CompactFlash_ID Compact flash ID structure.  
 302:/home/phong/Documents/thesis/stm32f4/stm-idf/components/stm32f4xx_hal_driver/stm32f4xx_hal_pccard.c ****   * @param  pStatus pointer to compact flash status         
 303:/home/phong/Documents/thesis/stm32f4/stm-idf/components/stm32f4xx_hal_driver/stm32f4xx_hal_pccard.c ****   * @retval HAL status
 304:/home/phong/Documents/thesis/stm32f4/stm-idf/components/stm32f4xx_hal_driver/stm32f4xx_hal_pccard.c ****   *   
 305:/home/phong/Documents/thesis/stm32f4/stm-idf/components/stm32f4xx_hal_driver/stm32f4xx_hal_pccard.c ****   */ 
 306:/home/phong/Documents/thesis/stm32f4/stm-idf/components/stm32f4xx_hal_driver/stm32f4xx_hal_pccard.c **** HAL_StatusTypeDef HAL_PCCARD_Read_ID(PCCARD_HandleTypeDef *hpccard, uint8_t CompactFlash_ID[], uint
 307:/home/phong/Documents/thesis/stm32f4/stm-idf/components/stm32f4xx_hal_driver/stm32f4xx_hal_pccard.c **** {
 203              		.loc 1 307 0
 204              		.cfi_startproc
 205              		@ args = 0, pretend = 0, frame = 0
 206              		@ frame_needed = 0, uses_anonymous_args = 0
 207              		@ link register save eliminated.
 208              	.LVL16:
 308:/home/phong/Documents/thesis/stm32f4/stm-idf/components/stm32f4xx_hal_driver/stm32f4xx_hal_pccard.c ****   uint32_t timeout = PCCARD_TIMEOUT_READ_ID, index = 0U;
 309:/home/phong/Documents/thesis/stm32f4/stm-idf/components/stm32f4xx_hal_driver/stm32f4xx_hal_pccard.c ****   uint8_t status = 0;
 310:/home/phong/Documents/thesis/stm32f4/stm-idf/components/stm32f4xx_hal_driver/stm32f4xx_hal_pccard.c ****   
 311:/home/phong/Documents/thesis/stm32f4/stm-idf/components/stm32f4xx_hal_driver/stm32f4xx_hal_pccard.c ****   /* Process Locked */
 312:/home/phong/Documents/thesis/stm32f4/stm-idf/components/stm32f4xx_hal_driver/stm32f4xx_hal_pccard.c ****   __HAL_LOCK(hpccard);  
 209              		.loc 1 312 0
 210 0000 437C     		ldrb	r3, [r0, #17]	@ zero_extendqisi2
 211 0002 012B     		cmp	r3, #1
 212 0004 2CD0     		beq	.L21
 213              		.loc 1 312 0 is_stmt 0 discriminator 2
 214 0006 0123     		movs	r3, #1
 215 0008 4374     		strb	r3, [r0, #17]
 313:/home/phong/Documents/thesis/stm32f4/stm-idf/components/stm32f4xx_hal_driver/stm32f4xx_hal_pccard.c ****   
 314:/home/phong/Documents/thesis/stm32f4/stm-idf/components/stm32f4xx_hal_driver/stm32f4xx_hal_pccard.c ****   /* Check the PCCARD controller state */
 315:/home/phong/Documents/thesis/stm32f4/stm-idf/components/stm32f4xx_hal_driver/stm32f4xx_hal_pccard.c ****   if(hpccard->State == HAL_PCCARD_STATE_BUSY)
 216              		.loc 1 315 0 is_stmt 1 discriminator 2
 217 000a 037C     		ldrb	r3, [r0, #16]	@ zero_extendqisi2
 218 000c DBB2     		uxtb	r3, r3
 219 000e 022B     		cmp	r3, #2
 220 0010 28D0     		beq	.L22
 307:/home/phong/Documents/thesis/stm32f4/stm-idf/components/stm32f4xx_hal_driver/stm32f4xx_hal_pccard.c ****   uint32_t timeout = PCCARD_TIMEOUT_READ_ID, index = 0U;
 221              		.loc 1 307 0
 222 0012 10B4     		push	{r4}
 223              	.LCFI3:
 224              		.cfi_def_cfa_offset 4
 225              		.cfi_offset 4, -4
 316:/home/phong/Documents/thesis/stm32f4/stm-idf/components/stm32f4xx_hal_driver/stm32f4xx_hal_pccard.c ****   {
 317:/home/phong/Documents/thesis/stm32f4/stm-idf/components/stm32f4xx_hal_driver/stm32f4xx_hal_pccard.c ****      return HAL_BUSY;
 318:/home/phong/Documents/thesis/stm32f4/stm-idf/components/stm32f4xx_hal_driver/stm32f4xx_hal_pccard.c ****   }
 319:/home/phong/Documents/thesis/stm32f4/stm-idf/components/stm32f4xx_hal_driver/stm32f4xx_hal_pccard.c ****   
 320:/home/phong/Documents/thesis/stm32f4/stm-idf/components/stm32f4xx_hal_driver/stm32f4xx_hal_pccard.c ****   /* Update the PCCARD controller state */
 321:/home/phong/Documents/thesis/stm32f4/stm-idf/components/stm32f4xx_hal_driver/stm32f4xx_hal_pccard.c ****   hpccard->State = HAL_PCCARD_STATE_BUSY;
 226              		.loc 1 321 0
 227 0014 0223     		movs	r3, #2
 228 0016 0374     		strb	r3, [r0, #16]
 322:/home/phong/Documents/thesis/stm32f4/stm-idf/components/stm32f4xx_hal_driver/stm32f4xx_hal_pccard.c ****   
 323:/home/phong/Documents/thesis/stm32f4/stm-idf/components/stm32f4xx_hal_driver/stm32f4xx_hal_pccard.c ****   /* Initialize the PCCARD status */
 324:/home/phong/Documents/thesis/stm32f4/stm-idf/components/stm32f4xx_hal_driver/stm32f4xx_hal_pccard.c ****   *pStatus = PCCARD_READY;  
 229              		.loc 1 324 0
 230 0018 4023     		movs	r3, #64
 231 001a 1370     		strb	r3, [r2]
 325:/home/phong/Documents/thesis/stm32f4/stm-idf/components/stm32f4xx_hal_driver/stm32f4xx_hal_pccard.c ****   
ARM GAS  /tmp/ccV4nfVF.s 			page 11


 326:/home/phong/Documents/thesis/stm32f4/stm-idf/components/stm32f4xx_hal_driver/stm32f4xx_hal_pccard.c ****   /* Send the Identify Command */
 327:/home/phong/Documents/thesis/stm32f4/stm-idf/components/stm32f4xx_hal_driver/stm32f4xx_hal_pccard.c ****   *(__IO uint16_t *)(PCCARD_IO_SPACE_PRIMARY_ADDR | ATA_STATUS_CMD)  = 0xECEC;
 232              		.loc 1 327 0
 233 001c 4EF6EC44 		movw	r4, 60652	@ movhi
 234 0020 114B     		ldr	r3, .L28
 235 0022 1C80     		strh	r4, [r3]	@ unaligned
 308:/home/phong/Documents/thesis/stm32f4/stm-idf/components/stm32f4xx_hal_driver/stm32f4xx_hal_pccard.c ****   uint8_t status = 0;
 236              		.loc 1 308 0
 237 0024 4FF6FF74 		movw	r4, #65535
 238              	.LVL17:
 239              	.L17:
 328:/home/phong/Documents/thesis/stm32f4/stm-idf/components/stm32f4xx_hal_driver/stm32f4xx_hal_pccard.c ****     
 329:/home/phong/Documents/thesis/stm32f4/stm-idf/components/stm32f4xx_hal_driver/stm32f4xx_hal_pccard.c ****   /* Read PCCARD IDs and timeout treatment */
 330:/home/phong/Documents/thesis/stm32f4/stm-idf/components/stm32f4xx_hal_driver/stm32f4xx_hal_pccard.c ****   do 
 331:/home/phong/Documents/thesis/stm32f4/stm-idf/components/stm32f4xx_hal_driver/stm32f4xx_hal_pccard.c ****   {
 332:/home/phong/Documents/thesis/stm32f4/stm-idf/components/stm32f4xx_hal_driver/stm32f4xx_hal_pccard.c ****      /* Read the PCCARD status */
 333:/home/phong/Documents/thesis/stm32f4/stm-idf/components/stm32f4xx_hal_driver/stm32f4xx_hal_pccard.c ****      status = *(__IO uint8_t *)(PCCARD_IO_SPACE_PRIMARY_ADDR | ATA_STATUS_CMD_ALTERNATE);
 240              		.loc 1 333 0 discriminator 2
 241 0028 104B     		ldr	r3, .L28+4
 242 002a 1B78     		ldrb	r3, [r3]	@ zero_extendqisi2
 243 002c DBB2     		uxtb	r3, r3
 244              	.LVL18:
 334:/home/phong/Documents/thesis/stm32f4/stm-idf/components/stm32f4xx_hal_driver/stm32f4xx_hal_pccard.c ****      
 335:/home/phong/Documents/thesis/stm32f4/stm-idf/components/stm32f4xx_hal_driver/stm32f4xx_hal_pccard.c ****      timeout--;
 245              		.loc 1 335 0 discriminator 2
 246 002e 013C     		subs	r4, r4, #1
 247              	.LVL19:
 336:/home/phong/Documents/thesis/stm32f4/stm-idf/components/stm32f4xx_hal_driver/stm32f4xx_hal_pccard.c ****   }while((status != PCCARD_STATUS_OK) && timeout); 
 248              		.loc 1 336 0 discriminator 2
 249 0030 582B     		cmp	r3, #88
 250 0032 01D0     		beq	.L16
 251              		.loc 1 336 0 is_stmt 0 discriminator 1
 252 0034 002C     		cmp	r4, #0
 253 0036 F7D1     		bne	.L17
 254              	.L16:
 337:/home/phong/Documents/thesis/stm32f4/stm-idf/components/stm32f4xx_hal_driver/stm32f4xx_hal_pccard.c ****   
 338:/home/phong/Documents/thesis/stm32f4/stm-idf/components/stm32f4xx_hal_driver/stm32f4xx_hal_pccard.c ****   if(timeout == 0U)
 255              		.loc 1 338 0 is_stmt 1
 256 0038 84B9     		cbnz	r4, .L23
 339:/home/phong/Documents/thesis/stm32f4/stm-idf/components/stm32f4xx_hal_driver/stm32f4xx_hal_pccard.c ****   {
 340:/home/phong/Documents/thesis/stm32f4/stm-idf/components/stm32f4xx_hal_driver/stm32f4xx_hal_pccard.c ****     *pStatus = PCCARD_TIMEOUT_ERROR;
 257              		.loc 1 340 0
 258 003a 6023     		movs	r3, #96
 259              	.LVL20:
 260 003c 1370     		strb	r3, [r2]
 261              	.LVL21:
 262              	.L19:
 341:/home/phong/Documents/thesis/stm32f4/stm-idf/components/stm32f4xx_hal_driver/stm32f4xx_hal_pccard.c ****   }
 342:/home/phong/Documents/thesis/stm32f4/stm-idf/components/stm32f4xx_hal_driver/stm32f4xx_hal_pccard.c ****   else
 343:/home/phong/Documents/thesis/stm32f4/stm-idf/components/stm32f4xx_hal_driver/stm32f4xx_hal_pccard.c ****   {
 344:/home/phong/Documents/thesis/stm32f4/stm-idf/components/stm32f4xx_hal_driver/stm32f4xx_hal_pccard.c ****      /* Read PCCARD ID bytes */
 345:/home/phong/Documents/thesis/stm32f4/stm-idf/components/stm32f4xx_hal_driver/stm32f4xx_hal_pccard.c ****     for(index = 0U; index < 16U; index++)
 346:/home/phong/Documents/thesis/stm32f4/stm-idf/components/stm32f4xx_hal_driver/stm32f4xx_hal_pccard.c ****     {
 347:/home/phong/Documents/thesis/stm32f4/stm-idf/components/stm32f4xx_hal_driver/stm32f4xx_hal_pccard.c ****       CompactFlash_ID[index] = *(__IO uint8_t *)(PCCARD_IO_SPACE_PRIMARY_ADDR | ATA_DATA);
 348:/home/phong/Documents/thesis/stm32f4/stm-idf/components/stm32f4xx_hal_driver/stm32f4xx_hal_pccard.c ****     }    
 349:/home/phong/Documents/thesis/stm32f4/stm-idf/components/stm32f4xx_hal_driver/stm32f4xx_hal_pccard.c ****   }
 350:/home/phong/Documents/thesis/stm32f4/stm-idf/components/stm32f4xx_hal_driver/stm32f4xx_hal_pccard.c ****   
ARM GAS  /tmp/ccV4nfVF.s 			page 12


 351:/home/phong/Documents/thesis/stm32f4/stm-idf/components/stm32f4xx_hal_driver/stm32f4xx_hal_pccard.c ****   /* Update the PCCARD controller state */
 352:/home/phong/Documents/thesis/stm32f4/stm-idf/components/stm32f4xx_hal_driver/stm32f4xx_hal_pccard.c ****   hpccard->State = HAL_PCCARD_STATE_READY;
 263              		.loc 1 352 0
 264 003e 0123     		movs	r3, #1
 265 0040 0374     		strb	r3, [r0, #16]
 353:/home/phong/Documents/thesis/stm32f4/stm-idf/components/stm32f4xx_hal_driver/stm32f4xx_hal_pccard.c ****   
 354:/home/phong/Documents/thesis/stm32f4/stm-idf/components/stm32f4xx_hal_driver/stm32f4xx_hal_pccard.c ****   /* Process unlocked */
 355:/home/phong/Documents/thesis/stm32f4/stm-idf/components/stm32f4xx_hal_driver/stm32f4xx_hal_pccard.c ****   __HAL_UNLOCK(hpccard);  
 266              		.loc 1 355 0
 267 0042 0023     		movs	r3, #0
 268 0044 4374     		strb	r3, [r0, #17]
 356:/home/phong/Documents/thesis/stm32f4/stm-idf/components/stm32f4xx_hal_driver/stm32f4xx_hal_pccard.c ****   
 357:/home/phong/Documents/thesis/stm32f4/stm-idf/components/stm32f4xx_hal_driver/stm32f4xx_hal_pccard.c ****   return HAL_OK;
 269              		.loc 1 357 0
 270 0046 1846     		mov	r0, r3
 271              	.LVL22:
 358:/home/phong/Documents/thesis/stm32f4/stm-idf/components/stm32f4xx_hal_driver/stm32f4xx_hal_pccard.c **** }
 272              		.loc 1 358 0
 273 0048 5DF8044B 		ldr	r4, [sp], #4
 274              	.LCFI4:
 275              		.cfi_remember_state
 276              		.cfi_restore 4
 277              		.cfi_def_cfa_offset 0
 278              	.LVL23:
 279 004c 7047     		bx	lr
 280              	.LVL24:
 281              	.L20:
 282              	.LCFI5:
 283              		.cfi_restore_state
 347:/home/phong/Documents/thesis/stm32f4/stm-idf/components/stm32f4xx_hal_driver/stm32f4xx_hal_pccard.c ****     }    
 284              		.loc 1 347 0 discriminator 3
 285 004e 084A     		ldr	r2, .L28+8
 286 0050 1278     		ldrb	r2, [r2]	@ zero_extendqisi2
 287 0052 CA54     		strb	r2, [r1, r3]
 345:/home/phong/Documents/thesis/stm32f4/stm-idf/components/stm32f4xx_hal_driver/stm32f4xx_hal_pccard.c ****     {
 288              		.loc 1 345 0 discriminator 3
 289 0054 0133     		adds	r3, r3, #1
 290              	.LVL25:
 291              	.L18:
 345:/home/phong/Documents/thesis/stm32f4/stm-idf/components/stm32f4xx_hal_driver/stm32f4xx_hal_pccard.c ****     {
 292              		.loc 1 345 0 is_stmt 0 discriminator 1
 293 0056 0F2B     		cmp	r3, #15
 294 0058 F9D9     		bls	.L20
 295 005a F0E7     		b	.L19
 296              	.LVL26:
 297              	.L23:
 298 005c 0023     		movs	r3, #0
 299              	.LVL27:
 300 005e FAE7     		b	.L18
 301              	.LVL28:
 302              	.L21:
 303              	.LCFI6:
 304              		.cfi_def_cfa_offset 0
 305              		.cfi_restore 4
 312:/home/phong/Documents/thesis/stm32f4/stm-idf/components/stm32f4xx_hal_driver/stm32f4xx_hal_pccard.c ****   
 306              		.loc 1 312 0 is_stmt 1
 307 0060 0220     		movs	r0, #2
ARM GAS  /tmp/ccV4nfVF.s 			page 13


 308              	.LVL29:
 309 0062 7047     		bx	lr
 310              	.LVL30:
 311              	.L22:
 317:/home/phong/Documents/thesis/stm32f4/stm-idf/components/stm32f4xx_hal_driver/stm32f4xx_hal_pccard.c ****   }
 312              		.loc 1 317 0
 313 0064 0220     		movs	r0, #2
 314              	.LVL31:
 315 0066 7047     		bx	lr
 316              	.L29:
 317              		.align	2
 318              	.L28:
 319 0068 F701009C 		.word	-1677721097
 320 006c FE01009C 		.word	-1677721090
 321 0070 F001009C 		.word	-1677721104
 322              		.cfi_endproc
 323              	.LFE134:
 325              		.section	.text.HAL_PCCARD_Read_Sector,"ax",%progbits
 326              		.align	1
 327              		.global	HAL_PCCARD_Read_Sector
 328              		.syntax unified
 329              		.thumb
 330              		.thumb_func
 331              		.fpu fpv4-sp-d16
 333              	HAL_PCCARD_Read_Sector:
 334              	.LFB135:
 359:/home/phong/Documents/thesis/stm32f4/stm-idf/components/stm32f4xx_hal_driver/stm32f4xx_hal_pccard.c ****    
 360:/home/phong/Documents/thesis/stm32f4/stm-idf/components/stm32f4xx_hal_driver/stm32f4xx_hal_pccard.c **** /**
 361:/home/phong/Documents/thesis/stm32f4/stm-idf/components/stm32f4xx_hal_driver/stm32f4xx_hal_pccard.c ****   * @brief  Read sector from PCCARD memory
 362:/home/phong/Documents/thesis/stm32f4/stm-idf/components/stm32f4xx_hal_driver/stm32f4xx_hal_pccard.c ****   * @param  hpccard pointer to a PCCARD_HandleTypeDef structure that contains
 363:/home/phong/Documents/thesis/stm32f4/stm-idf/components/stm32f4xx_hal_driver/stm32f4xx_hal_pccard.c ****   *                the configuration information for PCCARD module.
 364:/home/phong/Documents/thesis/stm32f4/stm-idf/components/stm32f4xx_hal_driver/stm32f4xx_hal_pccard.c ****   * @param  pBuffer pointer to destination read buffer
 365:/home/phong/Documents/thesis/stm32f4/stm-idf/components/stm32f4xx_hal_driver/stm32f4xx_hal_pccard.c ****   * @param  SectorAddress Sector address to read
 366:/home/phong/Documents/thesis/stm32f4/stm-idf/components/stm32f4xx_hal_driver/stm32f4xx_hal_pccard.c ****   * @param  pStatus pointer to PCCARD status
 367:/home/phong/Documents/thesis/stm32f4/stm-idf/components/stm32f4xx_hal_driver/stm32f4xx_hal_pccard.c ****   * @retval HAL status
 368:/home/phong/Documents/thesis/stm32f4/stm-idf/components/stm32f4xx_hal_driver/stm32f4xx_hal_pccard.c ****   */    
 369:/home/phong/Documents/thesis/stm32f4/stm-idf/components/stm32f4xx_hal_driver/stm32f4xx_hal_pccard.c **** HAL_StatusTypeDef HAL_PCCARD_Read_Sector(PCCARD_HandleTypeDef *hpccard, uint16_t *pBuffer, uint16_t
 370:/home/phong/Documents/thesis/stm32f4/stm-idf/components/stm32f4xx_hal_driver/stm32f4xx_hal_pccard.c **** {
 335              		.loc 1 370 0
 336              		.cfi_startproc
 337              		@ args = 0, pretend = 0, frame = 0
 338              		@ frame_needed = 0, uses_anonymous_args = 0
 339              		@ link register save eliminated.
 340              	.LVL32:
 341 0000 30B4     		push	{r4, r5}
 342              	.LCFI7:
 343              		.cfi_def_cfa_offset 8
 344              		.cfi_offset 4, -8
 345              		.cfi_offset 5, -4
 346              	.LVL33:
 371:/home/phong/Documents/thesis/stm32f4/stm-idf/components/stm32f4xx_hal_driver/stm32f4xx_hal_pccard.c ****   uint32_t timeout = PCCARD_TIMEOUT_READ_WRITE_SECTOR, index = 0U;
 372:/home/phong/Documents/thesis/stm32f4/stm-idf/components/stm32f4xx_hal_driver/stm32f4xx_hal_pccard.c ****   uint8_t status = 0;
 373:/home/phong/Documents/thesis/stm32f4/stm-idf/components/stm32f4xx_hal_driver/stm32f4xx_hal_pccard.c **** 
 374:/home/phong/Documents/thesis/stm32f4/stm-idf/components/stm32f4xx_hal_driver/stm32f4xx_hal_pccard.c ****   /* Process Locked */
 375:/home/phong/Documents/thesis/stm32f4/stm-idf/components/stm32f4xx_hal_driver/stm32f4xx_hal_pccard.c ****   __HAL_LOCK(hpccard);
 347              		.loc 1 375 0
 348 0002 447C     		ldrb	r4, [r0, #17]	@ zero_extendqisi2
ARM GAS  /tmp/ccV4nfVF.s 			page 14


 349 0004 012C     		cmp	r4, #1
 350 0006 3ED0     		beq	.L40
 351              		.loc 1 375 0 is_stmt 0 discriminator 2
 352 0008 0124     		movs	r4, #1
 353 000a 4474     		strb	r4, [r0, #17]
 376:/home/phong/Documents/thesis/stm32f4/stm-idf/components/stm32f4xx_hal_driver/stm32f4xx_hal_pccard.c ****   
 377:/home/phong/Documents/thesis/stm32f4/stm-idf/components/stm32f4xx_hal_driver/stm32f4xx_hal_pccard.c ****   /* Check the PCCARD controller state */
 378:/home/phong/Documents/thesis/stm32f4/stm-idf/components/stm32f4xx_hal_driver/stm32f4xx_hal_pccard.c ****   if(hpccard->State == HAL_PCCARD_STATE_BUSY)
 354              		.loc 1 378 0 is_stmt 1 discriminator 2
 355 000c 047C     		ldrb	r4, [r0, #16]	@ zero_extendqisi2
 356 000e E4B2     		uxtb	r4, r4
 357 0010 022C     		cmp	r4, #2
 358 0012 3BD0     		beq	.L41
 379:/home/phong/Documents/thesis/stm32f4/stm-idf/components/stm32f4xx_hal_driver/stm32f4xx_hal_pccard.c ****   {
 380:/home/phong/Documents/thesis/stm32f4/stm-idf/components/stm32f4xx_hal_driver/stm32f4xx_hal_pccard.c ****      return HAL_BUSY;
 381:/home/phong/Documents/thesis/stm32f4/stm-idf/components/stm32f4xx_hal_driver/stm32f4xx_hal_pccard.c ****   }
 382:/home/phong/Documents/thesis/stm32f4/stm-idf/components/stm32f4xx_hal_driver/stm32f4xx_hal_pccard.c ****   
 383:/home/phong/Documents/thesis/stm32f4/stm-idf/components/stm32f4xx_hal_driver/stm32f4xx_hal_pccard.c ****   /* Update the PCCARD controller state */
 384:/home/phong/Documents/thesis/stm32f4/stm-idf/components/stm32f4xx_hal_driver/stm32f4xx_hal_pccard.c ****   hpccard->State = HAL_PCCARD_STATE_BUSY;
 359              		.loc 1 384 0
 360 0014 0224     		movs	r4, #2
 361 0016 0474     		strb	r4, [r0, #16]
 385:/home/phong/Documents/thesis/stm32f4/stm-idf/components/stm32f4xx_hal_driver/stm32f4xx_hal_pccard.c **** 
 386:/home/phong/Documents/thesis/stm32f4/stm-idf/components/stm32f4xx_hal_driver/stm32f4xx_hal_pccard.c ****   /* Initialize PCCARD status */
 387:/home/phong/Documents/thesis/stm32f4/stm-idf/components/stm32f4xx_hal_driver/stm32f4xx_hal_pccard.c ****   *pStatus = PCCARD_READY;
 362              		.loc 1 387 0
 363 0018 4024     		movs	r4, #64
 364 001a 1C70     		strb	r4, [r3]
 388:/home/phong/Documents/thesis/stm32f4/stm-idf/components/stm32f4xx_hal_driver/stm32f4xx_hal_pccard.c **** 
 389:/home/phong/Documents/thesis/stm32f4/stm-idf/components/stm32f4xx_hal_driver/stm32f4xx_hal_pccard.c ****   /* Set the parameters to write a sector */
 390:/home/phong/Documents/thesis/stm32f4/stm-idf/components/stm32f4xx_hal_driver/stm32f4xx_hal_pccard.c ****   *(__IO uint16_t *)(PCCARD_IO_SPACE_PRIMARY_ADDR | ATA_CYLINDER_HIGH) = (uint16_t)0x00;
 365              		.loc 1 390 0
 366 001c 4FF00005 		mov	r5, #0	@ movhi
 367 0020 1B4C     		ldr	r4, .L43
 368 0022 2580     		strh	r5, [r4]	@ unaligned
 391:/home/phong/Documents/thesis/stm32f4/stm-idf/components/stm32f4xx_hal_driver/stm32f4xx_hal_pccard.c ****   *(__IO uint16_t *)(PCCARD_IO_SPACE_PRIMARY_ADDR | ATA_SECTOR_COUNT)  = ((uint16_t)0x0100) | ((uin
 369              		.loc 1 391 0
 370 0024 42F48072 		orr	r2, r2, #256
 371              	.LVL34:
 372 0028 033C     		subs	r4, r4, #3
 373 002a 2280     		strh	r2, [r4]	@ movhi
 392:/home/phong/Documents/thesis/stm32f4/stm-idf/components/stm32f4xx_hal_driver/stm32f4xx_hal_pccard.c ****   *(__IO uint16_t *)(PCCARD_IO_SPACE_PRIMARY_ADDR | ATA_STATUS_CMD)    = (uint16_t)0xE4A0;  
 374              		.loc 1 392 0
 375 002c 4EF2A044 		movw	r4, 58528	@ movhi
 376 0030 184A     		ldr	r2, .L43+4
 377 0032 1480     		strh	r4, [r2]	@ unaligned
 371:/home/phong/Documents/thesis/stm32f4/stm-idf/components/stm32f4xx_hal_driver/stm32f4xx_hal_pccard.c ****   uint8_t status = 0;
 378              		.loc 1 371 0
 379 0034 4FF6FF74 		movw	r4, #65535
 380              	.LVL35:
 381              	.L33:
 393:/home/phong/Documents/thesis/stm32f4/stm-idf/components/stm32f4xx_hal_driver/stm32f4xx_hal_pccard.c **** 
 394:/home/phong/Documents/thesis/stm32f4/stm-idf/components/stm32f4xx_hal_driver/stm32f4xx_hal_pccard.c ****   do
 395:/home/phong/Documents/thesis/stm32f4/stm-idf/components/stm32f4xx_hal_driver/stm32f4xx_hal_pccard.c ****   {
 396:/home/phong/Documents/thesis/stm32f4/stm-idf/components/stm32f4xx_hal_driver/stm32f4xx_hal_pccard.c ****     /* wait till the Status = 0x80 */
 397:/home/phong/Documents/thesis/stm32f4/stm-idf/components/stm32f4xx_hal_driver/stm32f4xx_hal_pccard.c ****     status =  *(__IO uint16_t *)(PCCARD_IO_SPACE_PRIMARY_ADDR | ATA_STATUS_CMD_ALTERNATE);
 382              		.loc 1 397 0 discriminator 2
ARM GAS  /tmp/ccV4nfVF.s 			page 15


 383 0038 174A     		ldr	r2, .L43+8
 384 003a 1288     		ldrh	r2, [r2]
 385 003c D2B2     		uxtb	r2, r2
 386              	.LVL36:
 398:/home/phong/Documents/thesis/stm32f4/stm-idf/components/stm32f4xx_hal_driver/stm32f4xx_hal_pccard.c ****     timeout--;
 387              		.loc 1 398 0 discriminator 2
 388 003e 013C     		subs	r4, r4, #1
 389              	.LVL37:
 399:/home/phong/Documents/thesis/stm32f4/stm-idf/components/stm32f4xx_hal_driver/stm32f4xx_hal_pccard.c ****   }while((status == 0x80) && timeout);
 390              		.loc 1 399 0 discriminator 2
 391 0040 802A     		cmp	r2, #128
 392 0042 01D1     		bne	.L32
 393              		.loc 1 399 0 is_stmt 0 discriminator 1
 394 0044 002C     		cmp	r4, #0
 395 0046 F7D1     		bne	.L33
 396              	.L32:
 400:/home/phong/Documents/thesis/stm32f4/stm-idf/components/stm32f4xx_hal_driver/stm32f4xx_hal_pccard.c ****   
 401:/home/phong/Documents/thesis/stm32f4/stm-idf/components/stm32f4xx_hal_driver/stm32f4xx_hal_pccard.c ****   if(timeout == 0U)
 397              		.loc 1 401 0 is_stmt 1
 398 0048 0CB9     		cbnz	r4, .L34
 402:/home/phong/Documents/thesis/stm32f4/stm-idf/components/stm32f4xx_hal_driver/stm32f4xx_hal_pccard.c ****   {
 403:/home/phong/Documents/thesis/stm32f4/stm-idf/components/stm32f4xx_hal_driver/stm32f4xx_hal_pccard.c ****     *pStatus = PCCARD_TIMEOUT_ERROR;
 399              		.loc 1 403 0
 400 004a 6022     		movs	r2, #96
 401              	.LVL38:
 402 004c 1A70     		strb	r2, [r3]
 403              	.L34:
 404              	.LVL39:
 404:/home/phong/Documents/thesis/stm32f4/stm-idf/components/stm32f4xx_hal_driver/stm32f4xx_hal_pccard.c ****   }
 405:/home/phong/Documents/thesis/stm32f4/stm-idf/components/stm32f4xx_hal_driver/stm32f4xx_hal_pccard.c ****   
 406:/home/phong/Documents/thesis/stm32f4/stm-idf/components/stm32f4xx_hal_driver/stm32f4xx_hal_pccard.c ****   timeout = PCCARD_TIMEOUT_READ_WRITE_SECTOR;
 405              		.loc 1 406 0
 406 004e 4FF6FF74 		movw	r4, #65535
 407              	.LVL40:
 408              	.L36:
 407:/home/phong/Documents/thesis/stm32f4/stm-idf/components/stm32f4xx_hal_driver/stm32f4xx_hal_pccard.c **** 
 408:/home/phong/Documents/thesis/stm32f4/stm-idf/components/stm32f4xx_hal_driver/stm32f4xx_hal_pccard.c ****   do
 409:/home/phong/Documents/thesis/stm32f4/stm-idf/components/stm32f4xx_hal_driver/stm32f4xx_hal_pccard.c ****   {
 410:/home/phong/Documents/thesis/stm32f4/stm-idf/components/stm32f4xx_hal_driver/stm32f4xx_hal_pccard.c ****     /* wait till the Status = PCCARD_STATUS_OK */
 411:/home/phong/Documents/thesis/stm32f4/stm-idf/components/stm32f4xx_hal_driver/stm32f4xx_hal_pccard.c ****     status =  *(__IO uint16_t *)(PCCARD_IO_SPACE_PRIMARY_ADDR | ATA_STATUS_CMD_ALTERNATE);
 409              		.loc 1 411 0 discriminator 2
 410 0052 114A     		ldr	r2, .L43+8
 411 0054 1288     		ldrh	r2, [r2]
 412 0056 D2B2     		uxtb	r2, r2
 413              	.LVL41:
 412:/home/phong/Documents/thesis/stm32f4/stm-idf/components/stm32f4xx_hal_driver/stm32f4xx_hal_pccard.c ****     timeout--;
 414              		.loc 1 412 0 discriminator 2
 415 0058 013C     		subs	r4, r4, #1
 416              	.LVL42:
 413:/home/phong/Documents/thesis/stm32f4/stm-idf/components/stm32f4xx_hal_driver/stm32f4xx_hal_pccard.c ****   }while((status != PCCARD_STATUS_OK) && timeout);
 417              		.loc 1 413 0 discriminator 2
 418 005a 582A     		cmp	r2, #88
 419 005c 01D0     		beq	.L35
 420              		.loc 1 413 0 is_stmt 0 discriminator 1
 421 005e 002C     		cmp	r4, #0
 422 0060 F7D1     		bne	.L36
 423              	.L35:
ARM GAS  /tmp/ccV4nfVF.s 			page 16


 414:/home/phong/Documents/thesis/stm32f4/stm-idf/components/stm32f4xx_hal_driver/stm32f4xx_hal_pccard.c ****   
 415:/home/phong/Documents/thesis/stm32f4/stm-idf/components/stm32f4xx_hal_driver/stm32f4xx_hal_pccard.c ****   if(timeout == 0U)
 424              		.loc 1 415 0 is_stmt 1
 425 0062 0CB9     		cbnz	r4, .L37
 416:/home/phong/Documents/thesis/stm32f4/stm-idf/components/stm32f4xx_hal_driver/stm32f4xx_hal_pccard.c ****   {
 417:/home/phong/Documents/thesis/stm32f4/stm-idf/components/stm32f4xx_hal_driver/stm32f4xx_hal_pccard.c ****     *pStatus = PCCARD_TIMEOUT_ERROR;
 426              		.loc 1 417 0
 427 0064 6022     		movs	r2, #96
 428              	.LVL43:
 429 0066 1A70     		strb	r2, [r3]
 430              	.L37:
 406:/home/phong/Documents/thesis/stm32f4/stm-idf/components/stm32f4xx_hal_driver/stm32f4xx_hal_pccard.c **** 
 431              		.loc 1 406 0 discriminator 1
 432 0068 0023     		movs	r3, #0
 433              	.LVL44:
 434 006a 04E0     		b	.L38
 435              	.LVL45:
 436              	.L39:
 418:/home/phong/Documents/thesis/stm32f4/stm-idf/components/stm32f4xx_hal_driver/stm32f4xx_hal_pccard.c ****   }
 419:/home/phong/Documents/thesis/stm32f4/stm-idf/components/stm32f4xx_hal_driver/stm32f4xx_hal_pccard.c ****   
 420:/home/phong/Documents/thesis/stm32f4/stm-idf/components/stm32f4xx_hal_driver/stm32f4xx_hal_pccard.c ****   /* Read bytes */
 421:/home/phong/Documents/thesis/stm32f4/stm-idf/components/stm32f4xx_hal_driver/stm32f4xx_hal_pccard.c ****   for(; index < PCCARD_SECTOR_SIZE; index++)
 422:/home/phong/Documents/thesis/stm32f4/stm-idf/components/stm32f4xx_hal_driver/stm32f4xx_hal_pccard.c ****   {
 423:/home/phong/Documents/thesis/stm32f4/stm-idf/components/stm32f4xx_hal_driver/stm32f4xx_hal_pccard.c ****     *(uint16_t *)pBuffer++ = *(uint16_t *)(PCCARD_IO_SPACE_PRIMARY_ADDR);
 437              		.loc 1 423 0 discriminator 2
 438 006c 0B4A     		ldr	r2, .L43+12
 439 006e 1288     		ldrh	r2, [r2]
 440 0070 0A80     		strh	r2, [r1]	@ movhi
 421:/home/phong/Documents/thesis/stm32f4/stm-idf/components/stm32f4xx_hal_driver/stm32f4xx_hal_pccard.c ****   {
 441              		.loc 1 421 0 discriminator 2
 442 0072 0133     		adds	r3, r3, #1
 443              	.LVL46:
 444              		.loc 1 423 0 discriminator 2
 445 0074 0231     		adds	r1, r1, #2
 446              	.LVL47:
 447              	.L38:
 421:/home/phong/Documents/thesis/stm32f4/stm-idf/components/stm32f4xx_hal_driver/stm32f4xx_hal_pccard.c ****   {
 448              		.loc 1 421 0 discriminator 1
 449 0076 FE2B     		cmp	r3, #254
 450 0078 F8D9     		bls	.L39
 424:/home/phong/Documents/thesis/stm32f4/stm-idf/components/stm32f4xx_hal_driver/stm32f4xx_hal_pccard.c ****   } 
 425:/home/phong/Documents/thesis/stm32f4/stm-idf/components/stm32f4xx_hal_driver/stm32f4xx_hal_pccard.c **** 
 426:/home/phong/Documents/thesis/stm32f4/stm-idf/components/stm32f4xx_hal_driver/stm32f4xx_hal_pccard.c ****   /* Update the PCCARD controller state */
 427:/home/phong/Documents/thesis/stm32f4/stm-idf/components/stm32f4xx_hal_driver/stm32f4xx_hal_pccard.c ****   hpccard->State = HAL_PCCARD_STATE_READY;
 451              		.loc 1 427 0
 452 007a 0123     		movs	r3, #1
 453              	.LVL48:
 454 007c 0374     		strb	r3, [r0, #16]
 428:/home/phong/Documents/thesis/stm32f4/stm-idf/components/stm32f4xx_hal_driver/stm32f4xx_hal_pccard.c ****   
 429:/home/phong/Documents/thesis/stm32f4/stm-idf/components/stm32f4xx_hal_driver/stm32f4xx_hal_pccard.c ****   /* Process unlocked */
 430:/home/phong/Documents/thesis/stm32f4/stm-idf/components/stm32f4xx_hal_driver/stm32f4xx_hal_pccard.c ****   __HAL_UNLOCK(hpccard);
 455              		.loc 1 430 0
 456 007e 0023     		movs	r3, #0
 457 0080 4374     		strb	r3, [r0, #17]
 431:/home/phong/Documents/thesis/stm32f4/stm-idf/components/stm32f4xx_hal_driver/stm32f4xx_hal_pccard.c ****       
 432:/home/phong/Documents/thesis/stm32f4/stm-idf/components/stm32f4xx_hal_driver/stm32f4xx_hal_pccard.c ****   return HAL_OK;
 458              		.loc 1 432 0
ARM GAS  /tmp/ccV4nfVF.s 			page 17


 459 0082 1846     		mov	r0, r3
 460              	.LVL49:
 461 0084 00E0     		b	.L31
 462              	.LVL50:
 463              	.L40:
 375:/home/phong/Documents/thesis/stm32f4/stm-idf/components/stm32f4xx_hal_driver/stm32f4xx_hal_pccard.c ****   
 464              		.loc 1 375 0
 465 0086 0220     		movs	r0, #2
 466              	.LVL51:
 467              	.L31:
 433:/home/phong/Documents/thesis/stm32f4/stm-idf/components/stm32f4xx_hal_driver/stm32f4xx_hal_pccard.c **** }
 468              		.loc 1 433 0
 469 0088 30BC     		pop	{r4, r5}
 470              	.LCFI8:
 471              		.cfi_remember_state
 472              		.cfi_restore 5
 473              		.cfi_restore 4
 474              		.cfi_def_cfa_offset 0
 475 008a 7047     		bx	lr
 476              	.LVL52:
 477              	.L41:
 478              	.LCFI9:
 479              		.cfi_restore_state
 380:/home/phong/Documents/thesis/stm32f4/stm-idf/components/stm32f4xx_hal_driver/stm32f4xx_hal_pccard.c ****   }
 480              		.loc 1 380 0
 481 008c 0220     		movs	r0, #2
 482              	.LVL53:
 483 008e FBE7     		b	.L31
 484              	.L44:
 485              		.align	2
 486              	.L43:
 487 0090 F501009C 		.word	-1677721099
 488 0094 F701009C 		.word	-1677721097
 489 0098 FE01009C 		.word	-1677721090
 490 009c F001009C 		.word	-1677721104
 491              		.cfi_endproc
 492              	.LFE135:
 494              		.section	.text.HAL_PCCARD_Write_Sector,"ax",%progbits
 495              		.align	1
 496              		.global	HAL_PCCARD_Write_Sector
 497              		.syntax unified
 498              		.thumb
 499              		.thumb_func
 500              		.fpu fpv4-sp-d16
 502              	HAL_PCCARD_Write_Sector:
 503              	.LFB136:
 434:/home/phong/Documents/thesis/stm32f4/stm-idf/components/stm32f4xx_hal_driver/stm32f4xx_hal_pccard.c **** 
 435:/home/phong/Documents/thesis/stm32f4/stm-idf/components/stm32f4xx_hal_driver/stm32f4xx_hal_pccard.c **** 
 436:/home/phong/Documents/thesis/stm32f4/stm-idf/components/stm32f4xx_hal_driver/stm32f4xx_hal_pccard.c **** /**
 437:/home/phong/Documents/thesis/stm32f4/stm-idf/components/stm32f4xx_hal_driver/stm32f4xx_hal_pccard.c ****   * @brief  Write sector to PCCARD memory
 438:/home/phong/Documents/thesis/stm32f4/stm-idf/components/stm32f4xx_hal_driver/stm32f4xx_hal_pccard.c ****   * @param  hpccard pointer to a PCCARD_HandleTypeDef structure that contains
 439:/home/phong/Documents/thesis/stm32f4/stm-idf/components/stm32f4xx_hal_driver/stm32f4xx_hal_pccard.c ****   *                the configuration information for PCCARD module.
 440:/home/phong/Documents/thesis/stm32f4/stm-idf/components/stm32f4xx_hal_driver/stm32f4xx_hal_pccard.c ****   * @param  pBuffer pointer to source write buffer
 441:/home/phong/Documents/thesis/stm32f4/stm-idf/components/stm32f4xx_hal_driver/stm32f4xx_hal_pccard.c ****   * @param  SectorAddress Sector address to write
 442:/home/phong/Documents/thesis/stm32f4/stm-idf/components/stm32f4xx_hal_driver/stm32f4xx_hal_pccard.c ****   * @param  pStatus pointer to PCCARD status
 443:/home/phong/Documents/thesis/stm32f4/stm-idf/components/stm32f4xx_hal_driver/stm32f4xx_hal_pccard.c ****   * @retval HAL status
 444:/home/phong/Documents/thesis/stm32f4/stm-idf/components/stm32f4xx_hal_driver/stm32f4xx_hal_pccard.c ****   */
ARM GAS  /tmp/ccV4nfVF.s 			page 18


 445:/home/phong/Documents/thesis/stm32f4/stm-idf/components/stm32f4xx_hal_driver/stm32f4xx_hal_pccard.c **** HAL_StatusTypeDef HAL_PCCARD_Write_Sector(PCCARD_HandleTypeDef *hpccard, uint16_t *pBuffer, uint16_
 446:/home/phong/Documents/thesis/stm32f4/stm-idf/components/stm32f4xx_hal_driver/stm32f4xx_hal_pccard.c **** {
 504              		.loc 1 446 0
 505              		.cfi_startproc
 506              		@ args = 0, pretend = 0, frame = 0
 507              		@ frame_needed = 0, uses_anonymous_args = 0
 508              		@ link register save eliminated.
 509              	.LVL54:
 510 0000 70B4     		push	{r4, r5, r6}
 511              	.LCFI10:
 512              		.cfi_def_cfa_offset 12
 513              		.cfi_offset 4, -12
 514              		.cfi_offset 5, -8
 515              		.cfi_offset 6, -4
 516              	.LVL55:
 447:/home/phong/Documents/thesis/stm32f4/stm-idf/components/stm32f4xx_hal_driver/stm32f4xx_hal_pccard.c ****   uint32_t timeout = PCCARD_TIMEOUT_READ_WRITE_SECTOR, index = 0U;
 448:/home/phong/Documents/thesis/stm32f4/stm-idf/components/stm32f4xx_hal_driver/stm32f4xx_hal_pccard.c ****   uint8_t status = 0;
 449:/home/phong/Documents/thesis/stm32f4/stm-idf/components/stm32f4xx_hal_driver/stm32f4xx_hal_pccard.c **** 
 450:/home/phong/Documents/thesis/stm32f4/stm-idf/components/stm32f4xx_hal_driver/stm32f4xx_hal_pccard.c ****   /* Process Locked */
 451:/home/phong/Documents/thesis/stm32f4/stm-idf/components/stm32f4xx_hal_driver/stm32f4xx_hal_pccard.c ****   __HAL_LOCK(hpccard);  
 517              		.loc 1 451 0
 518 0002 447C     		ldrb	r4, [r0, #17]	@ zero_extendqisi2
 519 0004 012C     		cmp	r4, #1
 520 0006 3CD0     		beq	.L55
 521              		.loc 1 451 0 is_stmt 0 discriminator 2
 522 0008 0124     		movs	r4, #1
 523 000a 4474     		strb	r4, [r0, #17]
 452:/home/phong/Documents/thesis/stm32f4/stm-idf/components/stm32f4xx_hal_driver/stm32f4xx_hal_pccard.c ****   
 453:/home/phong/Documents/thesis/stm32f4/stm-idf/components/stm32f4xx_hal_driver/stm32f4xx_hal_pccard.c ****   /* Check the PCCARD controller state */
 454:/home/phong/Documents/thesis/stm32f4/stm-idf/components/stm32f4xx_hal_driver/stm32f4xx_hal_pccard.c ****   if(hpccard->State == HAL_PCCARD_STATE_BUSY)
 524              		.loc 1 454 0 is_stmt 1 discriminator 2
 525 000c 047C     		ldrb	r4, [r0, #16]	@ zero_extendqisi2
 526 000e E4B2     		uxtb	r4, r4
 527 0010 022C     		cmp	r4, #2
 528 0012 39D0     		beq	.L56
 455:/home/phong/Documents/thesis/stm32f4/stm-idf/components/stm32f4xx_hal_driver/stm32f4xx_hal_pccard.c ****   {
 456:/home/phong/Documents/thesis/stm32f4/stm-idf/components/stm32f4xx_hal_driver/stm32f4xx_hal_pccard.c ****      return HAL_BUSY;
 457:/home/phong/Documents/thesis/stm32f4/stm-idf/components/stm32f4xx_hal_driver/stm32f4xx_hal_pccard.c ****   }
 458:/home/phong/Documents/thesis/stm32f4/stm-idf/components/stm32f4xx_hal_driver/stm32f4xx_hal_pccard.c ****    
 459:/home/phong/Documents/thesis/stm32f4/stm-idf/components/stm32f4xx_hal_driver/stm32f4xx_hal_pccard.c ****   /* Update the PCCARD controller state */
 460:/home/phong/Documents/thesis/stm32f4/stm-idf/components/stm32f4xx_hal_driver/stm32f4xx_hal_pccard.c ****   hpccard->State = HAL_PCCARD_STATE_BUSY;
 529              		.loc 1 460 0
 530 0014 0224     		movs	r4, #2
 531 0016 0474     		strb	r4, [r0, #16]
 461:/home/phong/Documents/thesis/stm32f4/stm-idf/components/stm32f4xx_hal_driver/stm32f4xx_hal_pccard.c ****     
 462:/home/phong/Documents/thesis/stm32f4/stm-idf/components/stm32f4xx_hal_driver/stm32f4xx_hal_pccard.c ****   /* Initialize PCCARD status */
 463:/home/phong/Documents/thesis/stm32f4/stm-idf/components/stm32f4xx_hal_driver/stm32f4xx_hal_pccard.c ****   *pStatus = PCCARD_READY;  
 532              		.loc 1 463 0
 533 0018 4024     		movs	r4, #64
 534 001a 1C70     		strb	r4, [r3]
 464:/home/phong/Documents/thesis/stm32f4/stm-idf/components/stm32f4xx_hal_driver/stm32f4xx_hal_pccard.c ****     
 465:/home/phong/Documents/thesis/stm32f4/stm-idf/components/stm32f4xx_hal_driver/stm32f4xx_hal_pccard.c ****   /* Set the parameters to write a sector */
 466:/home/phong/Documents/thesis/stm32f4/stm-idf/components/stm32f4xx_hal_driver/stm32f4xx_hal_pccard.c ****   *(__IO uint16_t *)(PCCARD_IO_SPACE_PRIMARY_ADDR | ATA_CYLINDER_HIGH) = (uint16_t)0x00;
 535              		.loc 1 466 0
 536 001c 4FF00005 		mov	r5, #0	@ movhi
 537 0020 1A4C     		ldr	r4, .L58
 538 0022 2580     		strh	r5, [r4]	@ unaligned
ARM GAS  /tmp/ccV4nfVF.s 			page 19


 467:/home/phong/Documents/thesis/stm32f4/stm-idf/components/stm32f4xx_hal_driver/stm32f4xx_hal_pccard.c ****   *(__IO uint16_t *)(PCCARD_IO_SPACE_PRIMARY_ADDR | ATA_SECTOR_COUNT)  = ((uint16_t)0x0100) | ((uin
 539              		.loc 1 467 0
 540 0024 42F48072 		orr	r2, r2, #256
 541              	.LVL56:
 542 0028 033C     		subs	r4, r4, #3
 543 002a 2280     		strh	r2, [r4]	@ movhi
 468:/home/phong/Documents/thesis/stm32f4/stm-idf/components/stm32f4xx_hal_driver/stm32f4xx_hal_pccard.c ****   *(__IO uint16_t *)(PCCARD_IO_SPACE_PRIMARY_ADDR | ATA_STATUS_CMD)    = (uint16_t)0x30A0;
 544              		.loc 1 468 0
 545 002c 43F2A004 		movw	r4, 12448	@ movhi
 546 0030 174A     		ldr	r2, .L58+4
 547 0032 1480     		strh	r4, [r2]	@ unaligned
 447:/home/phong/Documents/thesis/stm32f4/stm-idf/components/stm32f4xx_hal_driver/stm32f4xx_hal_pccard.c ****   uint8_t status = 0;
 548              		.loc 1 447 0
 549 0034 4FF6FF76 		movw	r6, #65535
 550              	.LVL57:
 551              	.L48:
 469:/home/phong/Documents/thesis/stm32f4/stm-idf/components/stm32f4xx_hal_driver/stm32f4xx_hal_pccard.c ****   
 470:/home/phong/Documents/thesis/stm32f4/stm-idf/components/stm32f4xx_hal_driver/stm32f4xx_hal_pccard.c ****   do
 471:/home/phong/Documents/thesis/stm32f4/stm-idf/components/stm32f4xx_hal_driver/stm32f4xx_hal_pccard.c ****   {
 472:/home/phong/Documents/thesis/stm32f4/stm-idf/components/stm32f4xx_hal_driver/stm32f4xx_hal_pccard.c ****     /* Wait till the Status = PCCARD_STATUS_OK */
 473:/home/phong/Documents/thesis/stm32f4/stm-idf/components/stm32f4xx_hal_driver/stm32f4xx_hal_pccard.c ****     status =  *(__IO uint8_t *)(PCCARD_IO_SPACE_PRIMARY_ADDR | ATA_STATUS_CMD_ALTERNATE);
 552              		.loc 1 473 0 discriminator 2
 553 0038 164A     		ldr	r2, .L58+8
 554 003a 1278     		ldrb	r2, [r2]	@ zero_extendqisi2
 555 003c D2B2     		uxtb	r2, r2
 556              	.LVL58:
 474:/home/phong/Documents/thesis/stm32f4/stm-idf/components/stm32f4xx_hal_driver/stm32f4xx_hal_pccard.c ****     timeout--;
 557              		.loc 1 474 0 discriminator 2
 558 003e 013E     		subs	r6, r6, #1
 559              	.LVL59:
 475:/home/phong/Documents/thesis/stm32f4/stm-idf/components/stm32f4xx_hal_driver/stm32f4xx_hal_pccard.c ****   }while((status != PCCARD_STATUS_OK) && timeout);
 560              		.loc 1 475 0 discriminator 2
 561 0040 582A     		cmp	r2, #88
 562 0042 01D0     		beq	.L47
 563              		.loc 1 475 0 is_stmt 0 discriminator 1
 564 0044 002E     		cmp	r6, #0
 565 0046 F7D1     		bne	.L48
 566              	.L47:
 476:/home/phong/Documents/thesis/stm32f4/stm-idf/components/stm32f4xx_hal_driver/stm32f4xx_hal_pccard.c ****   
 477:/home/phong/Documents/thesis/stm32f4/stm-idf/components/stm32f4xx_hal_driver/stm32f4xx_hal_pccard.c ****   if(timeout == 0U)
 567              		.loc 1 477 0 is_stmt 1
 568 0048 0EB9     		cbnz	r6, .L49
 478:/home/phong/Documents/thesis/stm32f4/stm-idf/components/stm32f4xx_hal_driver/stm32f4xx_hal_pccard.c ****   {
 479:/home/phong/Documents/thesis/stm32f4/stm-idf/components/stm32f4xx_hal_driver/stm32f4xx_hal_pccard.c ****     *pStatus = PCCARD_TIMEOUT_ERROR;
 569              		.loc 1 479 0
 570 004a 6022     		movs	r2, #96
 571              	.LVL60:
 572 004c 1A70     		strb	r2, [r3]
 573              	.L49:
 447:/home/phong/Documents/thesis/stm32f4/stm-idf/components/stm32f4xx_hal_driver/stm32f4xx_hal_pccard.c ****   uint8_t status = 0;
 574              		.loc 1 447 0 discriminator 1
 575 004e 0022     		movs	r2, #0
 576 0050 04E0     		b	.L50
 577              	.LVL61:
 578              	.L51:
 480:/home/phong/Documents/thesis/stm32f4/stm-idf/components/stm32f4xx_hal_driver/stm32f4xx_hal_pccard.c ****   }
 481:/home/phong/Documents/thesis/stm32f4/stm-idf/components/stm32f4xx_hal_driver/stm32f4xx_hal_pccard.c ****   
ARM GAS  /tmp/ccV4nfVF.s 			page 20


 482:/home/phong/Documents/thesis/stm32f4/stm-idf/components/stm32f4xx_hal_driver/stm32f4xx_hal_pccard.c ****   /* Write bytes */
 483:/home/phong/Documents/thesis/stm32f4/stm-idf/components/stm32f4xx_hal_driver/stm32f4xx_hal_pccard.c ****   for(; index < PCCARD_SECTOR_SIZE; index++)
 484:/home/phong/Documents/thesis/stm32f4/stm-idf/components/stm32f4xx_hal_driver/stm32f4xx_hal_pccard.c ****   {
 485:/home/phong/Documents/thesis/stm32f4/stm-idf/components/stm32f4xx_hal_driver/stm32f4xx_hal_pccard.c ****     *(uint16_t *)(PCCARD_IO_SPACE_PRIMARY_ADDR) = *(uint16_t *)pBuffer++;
 579              		.loc 1 485 0 discriminator 2
 580 0052 0D88     		ldrh	r5, [r1]
 581 0054 104C     		ldr	r4, .L58+12
 582 0056 2580     		strh	r5, [r4]	@ movhi
 483:/home/phong/Documents/thesis/stm32f4/stm-idf/components/stm32f4xx_hal_driver/stm32f4xx_hal_pccard.c ****   {
 583              		.loc 1 483 0 discriminator 2
 584 0058 0132     		adds	r2, r2, #1
 585              	.LVL62:
 586              		.loc 1 485 0 discriminator 2
 587 005a 0231     		adds	r1, r1, #2
 588              	.LVL63:
 589              	.L50:
 483:/home/phong/Documents/thesis/stm32f4/stm-idf/components/stm32f4xx_hal_driver/stm32f4xx_hal_pccard.c ****   {
 590              		.loc 1 483 0 discriminator 1
 591 005c FE2A     		cmp	r2, #254
 592 005e F8D9     		bls	.L51
 593              	.LVL64:
 594              	.L53:
 486:/home/phong/Documents/thesis/stm32f4/stm-idf/components/stm32f4xx_hal_driver/stm32f4xx_hal_pccard.c ****   }
 487:/home/phong/Documents/thesis/stm32f4/stm-idf/components/stm32f4xx_hal_driver/stm32f4xx_hal_pccard.c **** 
 488:/home/phong/Documents/thesis/stm32f4/stm-idf/components/stm32f4xx_hal_driver/stm32f4xx_hal_pccard.c ****   do
 489:/home/phong/Documents/thesis/stm32f4/stm-idf/components/stm32f4xx_hal_driver/stm32f4xx_hal_pccard.c ****   {
 490:/home/phong/Documents/thesis/stm32f4/stm-idf/components/stm32f4xx_hal_driver/stm32f4xx_hal_pccard.c ****     /* Wait till the Status = PCCARD_STATUS_WRITE_OK */
 491:/home/phong/Documents/thesis/stm32f4/stm-idf/components/stm32f4xx_hal_driver/stm32f4xx_hal_pccard.c ****     status =  *(__IO uint8_t *)(PCCARD_IO_SPACE_PRIMARY_ADDR | ATA_STATUS_CMD_ALTERNATE);
 595              		.loc 1 491 0 discriminator 2
 596 0060 0C4A     		ldr	r2, .L58+8
 597 0062 1278     		ldrb	r2, [r2]	@ zero_extendqisi2
 598 0064 D2B2     		uxtb	r2, r2
 599              	.LVL65:
 492:/home/phong/Documents/thesis/stm32f4/stm-idf/components/stm32f4xx_hal_driver/stm32f4xx_hal_pccard.c ****     timeout--;
 600              		.loc 1 492 0 discriminator 2
 601 0066 013E     		subs	r6, r6, #1
 602              	.LVL66:
 493:/home/phong/Documents/thesis/stm32f4/stm-idf/components/stm32f4xx_hal_driver/stm32f4xx_hal_pccard.c ****   }while((status != PCCARD_STATUS_WRITE_OK) && timeout);
 603              		.loc 1 493 0 discriminator 2
 604 0068 502A     		cmp	r2, #80
 605 006a 01D0     		beq	.L52
 606              		.loc 1 493 0 is_stmt 0 discriminator 1
 607 006c 002E     		cmp	r6, #0
 608 006e F7D1     		bne	.L53
 609              	.L52:
 494:/home/phong/Documents/thesis/stm32f4/stm-idf/components/stm32f4xx_hal_driver/stm32f4xx_hal_pccard.c **** 
 495:/home/phong/Documents/thesis/stm32f4/stm-idf/components/stm32f4xx_hal_driver/stm32f4xx_hal_pccard.c ****   if(timeout == 0U)
 610              		.loc 1 495 0 is_stmt 1
 611 0070 0EB9     		cbnz	r6, .L54
 496:/home/phong/Documents/thesis/stm32f4/stm-idf/components/stm32f4xx_hal_driver/stm32f4xx_hal_pccard.c ****   {
 497:/home/phong/Documents/thesis/stm32f4/stm-idf/components/stm32f4xx_hal_driver/stm32f4xx_hal_pccard.c ****     *pStatus = PCCARD_TIMEOUT_ERROR;
 612              		.loc 1 497 0
 613 0072 6022     		movs	r2, #96
 614              	.LVL67:
 615 0074 1A70     		strb	r2, [r3]
 616              	.L54:
 498:/home/phong/Documents/thesis/stm32f4/stm-idf/components/stm32f4xx_hal_driver/stm32f4xx_hal_pccard.c ****   }  
ARM GAS  /tmp/ccV4nfVF.s 			page 21


 499:/home/phong/Documents/thesis/stm32f4/stm-idf/components/stm32f4xx_hal_driver/stm32f4xx_hal_pccard.c **** 
 500:/home/phong/Documents/thesis/stm32f4/stm-idf/components/stm32f4xx_hal_driver/stm32f4xx_hal_pccard.c ****   /* Update the PCCARD controller state */
 501:/home/phong/Documents/thesis/stm32f4/stm-idf/components/stm32f4xx_hal_driver/stm32f4xx_hal_pccard.c ****   hpccard->State = HAL_PCCARD_STATE_READY;
 617              		.loc 1 501 0
 618 0076 0123     		movs	r3, #1
 619              	.LVL68:
 620 0078 0374     		strb	r3, [r0, #16]
 502:/home/phong/Documents/thesis/stm32f4/stm-idf/components/stm32f4xx_hal_driver/stm32f4xx_hal_pccard.c ****   
 503:/home/phong/Documents/thesis/stm32f4/stm-idf/components/stm32f4xx_hal_driver/stm32f4xx_hal_pccard.c ****   /* Process unlocked */
 504:/home/phong/Documents/thesis/stm32f4/stm-idf/components/stm32f4xx_hal_driver/stm32f4xx_hal_pccard.c ****   __HAL_UNLOCK(hpccard);  
 621              		.loc 1 504 0
 622 007a 0023     		movs	r3, #0
 623 007c 4374     		strb	r3, [r0, #17]
 505:/home/phong/Documents/thesis/stm32f4/stm-idf/components/stm32f4xx_hal_driver/stm32f4xx_hal_pccard.c ****   
 506:/home/phong/Documents/thesis/stm32f4/stm-idf/components/stm32f4xx_hal_driver/stm32f4xx_hal_pccard.c ****   return HAL_OK;
 624              		.loc 1 506 0
 625 007e 1846     		mov	r0, r3
 626              	.LVL69:
 627 0080 00E0     		b	.L46
 628              	.LVL70:
 629              	.L55:
 451:/home/phong/Documents/thesis/stm32f4/stm-idf/components/stm32f4xx_hal_driver/stm32f4xx_hal_pccard.c ****   
 630              		.loc 1 451 0
 631 0082 0220     		movs	r0, #2
 632              	.LVL71:
 633              	.L46:
 507:/home/phong/Documents/thesis/stm32f4/stm-idf/components/stm32f4xx_hal_driver/stm32f4xx_hal_pccard.c **** }
 634              		.loc 1 507 0
 635 0084 70BC     		pop	{r4, r5, r6}
 636              	.LCFI11:
 637              		.cfi_remember_state
 638              		.cfi_restore 6
 639              		.cfi_restore 5
 640              		.cfi_restore 4
 641              		.cfi_def_cfa_offset 0
 642 0086 7047     		bx	lr
 643              	.LVL72:
 644              	.L56:
 645              	.LCFI12:
 646              		.cfi_restore_state
 456:/home/phong/Documents/thesis/stm32f4/stm-idf/components/stm32f4xx_hal_driver/stm32f4xx_hal_pccard.c ****   }
 647              		.loc 1 456 0
 648 0088 0220     		movs	r0, #2
 649              	.LVL73:
 650 008a FBE7     		b	.L46
 651              	.L59:
 652              		.align	2
 653              	.L58:
 654 008c F501009C 		.word	-1677721099
 655 0090 F701009C 		.word	-1677721097
 656 0094 FE01009C 		.word	-1677721090
 657 0098 F001009C 		.word	-1677721104
 658              		.cfi_endproc
 659              	.LFE136:
 661              		.section	.text.HAL_PCCARD_Erase_Sector,"ax",%progbits
 662              		.align	1
 663              		.global	HAL_PCCARD_Erase_Sector
ARM GAS  /tmp/ccV4nfVF.s 			page 22


 664              		.syntax unified
 665              		.thumb
 666              		.thumb_func
 667              		.fpu fpv4-sp-d16
 669              	HAL_PCCARD_Erase_Sector:
 670              	.LFB137:
 508:/home/phong/Documents/thesis/stm32f4/stm-idf/components/stm32f4xx_hal_driver/stm32f4xx_hal_pccard.c **** 
 509:/home/phong/Documents/thesis/stm32f4/stm-idf/components/stm32f4xx_hal_driver/stm32f4xx_hal_pccard.c **** 
 510:/home/phong/Documents/thesis/stm32f4/stm-idf/components/stm32f4xx_hal_driver/stm32f4xx_hal_pccard.c **** /**
 511:/home/phong/Documents/thesis/stm32f4/stm-idf/components/stm32f4xx_hal_driver/stm32f4xx_hal_pccard.c ****   * @brief  Erase sector from PCCARD memory 
 512:/home/phong/Documents/thesis/stm32f4/stm-idf/components/stm32f4xx_hal_driver/stm32f4xx_hal_pccard.c ****   * @param  hpccard pointer to a PCCARD_HandleTypeDef structure that contains
 513:/home/phong/Documents/thesis/stm32f4/stm-idf/components/stm32f4xx_hal_driver/stm32f4xx_hal_pccard.c ****   *                the configuration information for PCCARD module.
 514:/home/phong/Documents/thesis/stm32f4/stm-idf/components/stm32f4xx_hal_driver/stm32f4xx_hal_pccard.c ****   * @param  SectorAddress Sector address to erase
 515:/home/phong/Documents/thesis/stm32f4/stm-idf/components/stm32f4xx_hal_driver/stm32f4xx_hal_pccard.c ****   * @param  pStatus pointer to PCCARD status
 516:/home/phong/Documents/thesis/stm32f4/stm-idf/components/stm32f4xx_hal_driver/stm32f4xx_hal_pccard.c ****   * @retval HAL status
 517:/home/phong/Documents/thesis/stm32f4/stm-idf/components/stm32f4xx_hal_driver/stm32f4xx_hal_pccard.c ****   */
 518:/home/phong/Documents/thesis/stm32f4/stm-idf/components/stm32f4xx_hal_driver/stm32f4xx_hal_pccard.c **** HAL_StatusTypeDef  HAL_PCCARD_Erase_Sector(PCCARD_HandleTypeDef *hpccard, uint16_t SectorAddress, u
 519:/home/phong/Documents/thesis/stm32f4/stm-idf/components/stm32f4xx_hal_driver/stm32f4xx_hal_pccard.c **** {
 671              		.loc 1 519 0
 672              		.cfi_startproc
 673              		@ args = 0, pretend = 0, frame = 0
 674              		@ frame_needed = 0, uses_anonymous_args = 0
 675              		@ link register save eliminated.
 676              	.LVL74:
 520:/home/phong/Documents/thesis/stm32f4/stm-idf/components/stm32f4xx_hal_driver/stm32f4xx_hal_pccard.c ****   uint32_t timeout = PCCARD_TIMEOUT_ERASE_SECTOR;
 521:/home/phong/Documents/thesis/stm32f4/stm-idf/components/stm32f4xx_hal_driver/stm32f4xx_hal_pccard.c ****   uint8_t status = 0;
 522:/home/phong/Documents/thesis/stm32f4/stm-idf/components/stm32f4xx_hal_driver/stm32f4xx_hal_pccard.c ****   
 523:/home/phong/Documents/thesis/stm32f4/stm-idf/components/stm32f4xx_hal_driver/stm32f4xx_hal_pccard.c ****   /* Process Locked */
 524:/home/phong/Documents/thesis/stm32f4/stm-idf/components/stm32f4xx_hal_driver/stm32f4xx_hal_pccard.c ****   __HAL_LOCK(hpccard);  
 677              		.loc 1 524 0
 678 0000 437C     		ldrb	r3, [r0, #17]	@ zero_extendqisi2
 679 0002 012B     		cmp	r3, #1
 680 0004 33D0     		beq	.L66
 681              		.loc 1 524 0 is_stmt 0 discriminator 2
 682 0006 0123     		movs	r3, #1
 683 0008 4374     		strb	r3, [r0, #17]
 525:/home/phong/Documents/thesis/stm32f4/stm-idf/components/stm32f4xx_hal_driver/stm32f4xx_hal_pccard.c ****   
 526:/home/phong/Documents/thesis/stm32f4/stm-idf/components/stm32f4xx_hal_driver/stm32f4xx_hal_pccard.c ****   /* Check the PCCARD controller state */
 527:/home/phong/Documents/thesis/stm32f4/stm-idf/components/stm32f4xx_hal_driver/stm32f4xx_hal_pccard.c ****   if(hpccard->State == HAL_PCCARD_STATE_BUSY)
 684              		.loc 1 527 0 is_stmt 1 discriminator 2
 685 000a 037C     		ldrb	r3, [r0, #16]	@ zero_extendqisi2
 686 000c DBB2     		uxtb	r3, r3
 687 000e 022B     		cmp	r3, #2
 688 0010 2FD0     		beq	.L67
 519:/home/phong/Documents/thesis/stm32f4/stm-idf/components/stm32f4xx_hal_driver/stm32f4xx_hal_pccard.c ****   uint32_t timeout = PCCARD_TIMEOUT_ERASE_SECTOR;
 689              		.loc 1 519 0
 690 0012 10B4     		push	{r4}
 691              	.LCFI13:
 692              		.cfi_def_cfa_offset 4
 693              		.cfi_offset 4, -4
 528:/home/phong/Documents/thesis/stm32f4/stm-idf/components/stm32f4xx_hal_driver/stm32f4xx_hal_pccard.c ****   {
 529:/home/phong/Documents/thesis/stm32f4/stm-idf/components/stm32f4xx_hal_driver/stm32f4xx_hal_pccard.c ****      return HAL_BUSY;
 530:/home/phong/Documents/thesis/stm32f4/stm-idf/components/stm32f4xx_hal_driver/stm32f4xx_hal_pccard.c ****   }
 531:/home/phong/Documents/thesis/stm32f4/stm-idf/components/stm32f4xx_hal_driver/stm32f4xx_hal_pccard.c **** 
 532:/home/phong/Documents/thesis/stm32f4/stm-idf/components/stm32f4xx_hal_driver/stm32f4xx_hal_pccard.c ****   /* Update the PCCARD controller state */
 533:/home/phong/Documents/thesis/stm32f4/stm-idf/components/stm32f4xx_hal_driver/stm32f4xx_hal_pccard.c ****   hpccard->State = HAL_PCCARD_STATE_BUSY;
 694              		.loc 1 533 0
ARM GAS  /tmp/ccV4nfVF.s 			page 23


 695 0014 0223     		movs	r3, #2
 696 0016 0374     		strb	r3, [r0, #16]
 534:/home/phong/Documents/thesis/stm32f4/stm-idf/components/stm32f4xx_hal_driver/stm32f4xx_hal_pccard.c ****   
 535:/home/phong/Documents/thesis/stm32f4/stm-idf/components/stm32f4xx_hal_driver/stm32f4xx_hal_pccard.c ****   /* Initialize PCCARD status */ 
 536:/home/phong/Documents/thesis/stm32f4/stm-idf/components/stm32f4xx_hal_driver/stm32f4xx_hal_pccard.c ****   *pStatus = PCCARD_READY;
 697              		.loc 1 536 0
 698 0018 4023     		movs	r3, #64
 699 001a 1370     		strb	r3, [r2]
 537:/home/phong/Documents/thesis/stm32f4/stm-idf/components/stm32f4xx_hal_driver/stm32f4xx_hal_pccard.c ****     
 538:/home/phong/Documents/thesis/stm32f4/stm-idf/components/stm32f4xx_hal_driver/stm32f4xx_hal_pccard.c ****   /* Set the parameters to write a sector */
 539:/home/phong/Documents/thesis/stm32f4/stm-idf/components/stm32f4xx_hal_driver/stm32f4xx_hal_pccard.c ****   *(__IO uint8_t *)(PCCARD_IO_SPACE_PRIMARY_ADDR | ATA_CYLINDER_LOW)  = 0x00;
 700              		.loc 1 539 0
 701 001c 0023     		movs	r3, #0
 702 001e 164C     		ldr	r4, .L72
 703 0020 2370     		strb	r3, [r4]
 540:/home/phong/Documents/thesis/stm32f4/stm-idf/components/stm32f4xx_hal_driver/stm32f4xx_hal_pccard.c ****   *(__IO uint8_t *)(PCCARD_IO_SPACE_PRIMARY_ADDR | ATA_CYLINDER_HIGH) = 0x00;
 704              		.loc 1 540 0
 705 0022 0134     		adds	r4, r4, #1
 706 0024 2370     		strb	r3, [r4]
 541:/home/phong/Documents/thesis/stm32f4/stm-idf/components/stm32f4xx_hal_driver/stm32f4xx_hal_pccard.c ****   *(__IO uint8_t *)(PCCARD_IO_SPACE_PRIMARY_ADDR | ATA_SECTOR_NUMBER) = SectorAddress;
 707              		.loc 1 541 0
 708 0026 C9B2     		uxtb	r1, r1
 709              	.LVL75:
 710 0028 144B     		ldr	r3, .L72+4
 711 002a 1970     		strb	r1, [r3]
 542:/home/phong/Documents/thesis/stm32f4/stm-idf/components/stm32f4xx_hal_driver/stm32f4xx_hal_pccard.c ****   *(__IO uint8_t *)(PCCARD_IO_SPACE_PRIMARY_ADDR | ATA_SECTOR_COUNT)  = 0x01;
 712              		.loc 1 542 0
 713 002c 0121     		movs	r1, #1
 714 002e 013B     		subs	r3, r3, #1
 715 0030 1970     		strb	r1, [r3]
 543:/home/phong/Documents/thesis/stm32f4/stm-idf/components/stm32f4xx_hal_driver/stm32f4xx_hal_pccard.c ****   *(__IO uint8_t *)(PCCARD_IO_SPACE_PRIMARY_ADDR | ATA_CARD_HEAD)     = 0xA0;
 716              		.loc 1 543 0
 717 0032 A021     		movs	r1, #160
 718 0034 0433     		adds	r3, r3, #4
 719 0036 1970     		strb	r1, [r3]
 544:/home/phong/Documents/thesis/stm32f4/stm-idf/components/stm32f4xx_hal_driver/stm32f4xx_hal_pccard.c ****   *(__IO uint8_t *)(PCCARD_IO_SPACE_PRIMARY_ADDR | ATA_STATUS_CMD)    = ATA_ERASE_SECTOR_CMD;
 720              		.loc 1 544 0
 721 0038 C021     		movs	r1, #192
 722 003a 0133     		adds	r3, r3, #1
 723 003c 1970     		strb	r1, [r3]
 545:/home/phong/Documents/thesis/stm32f4/stm-idf/components/stm32f4xx_hal_driver/stm32f4xx_hal_pccard.c ****   
 546:/home/phong/Documents/thesis/stm32f4/stm-idf/components/stm32f4xx_hal_driver/stm32f4xx_hal_pccard.c ****   /* wait till the PCCARD is ready */
 547:/home/phong/Documents/thesis/stm32f4/stm-idf/components/stm32f4xx_hal_driver/stm32f4xx_hal_pccard.c ****   status =  *(__IO uint8_t *)(PCCARD_IO_SPACE_PRIMARY_ADDR | ATA_STATUS_CMD_ALTERNATE);
 724              		.loc 1 547 0
 725 003e 0733     		adds	r3, r3, #7
 726 0040 1B78     		ldrb	r3, [r3]	@ zero_extendqisi2
 727 0042 DBB2     		uxtb	r3, r3
 728              	.LVL76:
 520:/home/phong/Documents/thesis/stm32f4/stm-idf/components/stm32f4xx_hal_driver/stm32f4xx_hal_pccard.c ****   uint8_t status = 0;
 729              		.loc 1 520 0
 730 0044 4FF48061 		mov	r1, #1024
 731              	.LVL77:
 732              	.L62:
 548:/home/phong/Documents/thesis/stm32f4/stm-idf/components/stm32f4xx_hal_driver/stm32f4xx_hal_pccard.c ****   
 549:/home/phong/Documents/thesis/stm32f4/stm-idf/components/stm32f4xx_hal_driver/stm32f4xx_hal_pccard.c ****   while((status != PCCARD_STATUS_WRITE_OK) && timeout)
 733              		.loc 1 549 0
 734 0048 502B     		cmp	r3, #80
ARM GAS  /tmp/ccV4nfVF.s 			page 24


 735 004a 05D0     		beq	.L63
 736              		.loc 1 549 0 is_stmt 0 discriminator 1
 737 004c 21B1     		cbz	r1, .L63
 550:/home/phong/Documents/thesis/stm32f4/stm-idf/components/stm32f4xx_hal_driver/stm32f4xx_hal_pccard.c ****   {
 551:/home/phong/Documents/thesis/stm32f4/stm-idf/components/stm32f4xx_hal_driver/stm32f4xx_hal_pccard.c ****     status =  *(__IO uint8_t *)(PCCARD_IO_SPACE_PRIMARY_ADDR | ATA_STATUS_CMD_ALTERNATE);
 738              		.loc 1 551 0 is_stmt 1
 739 004e 0C4B     		ldr	r3, .L72+8
 740              	.LVL78:
 741 0050 1B78     		ldrb	r3, [r3]	@ zero_extendqisi2
 742 0052 DBB2     		uxtb	r3, r3
 743              	.LVL79:
 552:/home/phong/Documents/thesis/stm32f4/stm-idf/components/stm32f4xx_hal_driver/stm32f4xx_hal_pccard.c ****     timeout--;
 744              		.loc 1 552 0
 745 0054 0139     		subs	r1, r1, #1
 746              	.LVL80:
 747 0056 F7E7     		b	.L62
 748              	.L63:
 553:/home/phong/Documents/thesis/stm32f4/stm-idf/components/stm32f4xx_hal_driver/stm32f4xx_hal_pccard.c ****   } 
 554:/home/phong/Documents/thesis/stm32f4/stm-idf/components/stm32f4xx_hal_driver/stm32f4xx_hal_pccard.c ****   
 555:/home/phong/Documents/thesis/stm32f4/stm-idf/components/stm32f4xx_hal_driver/stm32f4xx_hal_pccard.c ****   if(timeout == 0U)
 749              		.loc 1 555 0
 750 0058 09B9     		cbnz	r1, .L65
 556:/home/phong/Documents/thesis/stm32f4/stm-idf/components/stm32f4xx_hal_driver/stm32f4xx_hal_pccard.c ****   {
 557:/home/phong/Documents/thesis/stm32f4/stm-idf/components/stm32f4xx_hal_driver/stm32f4xx_hal_pccard.c ****     *pStatus = PCCARD_TIMEOUT_ERROR;
 751              		.loc 1 557 0
 752 005a 6023     		movs	r3, #96
 753              	.LVL81:
 754 005c 1370     		strb	r3, [r2]
 755              	.L65:
 558:/home/phong/Documents/thesis/stm32f4/stm-idf/components/stm32f4xx_hal_driver/stm32f4xx_hal_pccard.c ****   }
 559:/home/phong/Documents/thesis/stm32f4/stm-idf/components/stm32f4xx_hal_driver/stm32f4xx_hal_pccard.c ****   
 560:/home/phong/Documents/thesis/stm32f4/stm-idf/components/stm32f4xx_hal_driver/stm32f4xx_hal_pccard.c ****   /* Check the PCCARD controller state */
 561:/home/phong/Documents/thesis/stm32f4/stm-idf/components/stm32f4xx_hal_driver/stm32f4xx_hal_pccard.c ****   hpccard->State = HAL_PCCARD_STATE_READY;
 756              		.loc 1 561 0
 757 005e 0123     		movs	r3, #1
 758 0060 0374     		strb	r3, [r0, #16]
 562:/home/phong/Documents/thesis/stm32f4/stm-idf/components/stm32f4xx_hal_driver/stm32f4xx_hal_pccard.c ****   
 563:/home/phong/Documents/thesis/stm32f4/stm-idf/components/stm32f4xx_hal_driver/stm32f4xx_hal_pccard.c ****   /* Process unlocked */
 564:/home/phong/Documents/thesis/stm32f4/stm-idf/components/stm32f4xx_hal_driver/stm32f4xx_hal_pccard.c ****   __HAL_UNLOCK(hpccard);   
 759              		.loc 1 564 0
 760 0062 0023     		movs	r3, #0
 761 0064 4374     		strb	r3, [r0, #17]
 565:/home/phong/Documents/thesis/stm32f4/stm-idf/components/stm32f4xx_hal_driver/stm32f4xx_hal_pccard.c ****   
 566:/home/phong/Documents/thesis/stm32f4/stm-idf/components/stm32f4xx_hal_driver/stm32f4xx_hal_pccard.c ****   return HAL_OK;
 762              		.loc 1 566 0
 763 0066 1846     		mov	r0, r3
 764              	.LVL82:
 567:/home/phong/Documents/thesis/stm32f4/stm-idf/components/stm32f4xx_hal_driver/stm32f4xx_hal_pccard.c **** }
 765              		.loc 1 567 0
 766 0068 5DF8044B 		ldr	r4, [sp], #4
 767              	.LCFI14:
 768              		.cfi_restore 4
 769              		.cfi_def_cfa_offset 0
 770 006c 7047     		bx	lr
 771              	.LVL83:
 772              	.L66:
 524:/home/phong/Documents/thesis/stm32f4/stm-idf/components/stm32f4xx_hal_driver/stm32f4xx_hal_pccard.c ****   
ARM GAS  /tmp/ccV4nfVF.s 			page 25


 773              		.loc 1 524 0
 774 006e 0220     		movs	r0, #2
 775              	.LVL84:
 776 0070 7047     		bx	lr
 777              	.LVL85:
 778              	.L67:
 529:/home/phong/Documents/thesis/stm32f4/stm-idf/components/stm32f4xx_hal_driver/stm32f4xx_hal_pccard.c ****   }
 779              		.loc 1 529 0
 780 0072 0220     		movs	r0, #2
 781              	.LVL86:
 782 0074 7047     		bx	lr
 783              	.L73:
 784 0076 00BF     		.align	2
 785              	.L72:
 786 0078 F401009C 		.word	-1677721100
 787 007c F301009C 		.word	-1677721101
 788 0080 FE01009C 		.word	-1677721090
 789              		.cfi_endproc
 790              	.LFE137:
 792              		.section	.text.HAL_PCCARD_Reset,"ax",%progbits
 793              		.align	1
 794              		.global	HAL_PCCARD_Reset
 795              		.syntax unified
 796              		.thumb
 797              		.thumb_func
 798              		.fpu fpv4-sp-d16
 800              	HAL_PCCARD_Reset:
 801              	.LFB138:
 568:/home/phong/Documents/thesis/stm32f4/stm-idf/components/stm32f4xx_hal_driver/stm32f4xx_hal_pccard.c **** 
 569:/home/phong/Documents/thesis/stm32f4/stm-idf/components/stm32f4xx_hal_driver/stm32f4xx_hal_pccard.c **** /**
 570:/home/phong/Documents/thesis/stm32f4/stm-idf/components/stm32f4xx_hal_driver/stm32f4xx_hal_pccard.c ****   * @brief  Reset the PCCARD memory 
 571:/home/phong/Documents/thesis/stm32f4/stm-idf/components/stm32f4xx_hal_driver/stm32f4xx_hal_pccard.c ****   * @param  hpccard pointer to a PCCARD_HandleTypeDef structure that contains
 572:/home/phong/Documents/thesis/stm32f4/stm-idf/components/stm32f4xx_hal_driver/stm32f4xx_hal_pccard.c ****   *                the configuration information for PCCARD module.
 573:/home/phong/Documents/thesis/stm32f4/stm-idf/components/stm32f4xx_hal_driver/stm32f4xx_hal_pccard.c ****   * @retval HAL status
 574:/home/phong/Documents/thesis/stm32f4/stm-idf/components/stm32f4xx_hal_driver/stm32f4xx_hal_pccard.c ****   */
 575:/home/phong/Documents/thesis/stm32f4/stm-idf/components/stm32f4xx_hal_driver/stm32f4xx_hal_pccard.c **** HAL_StatusTypeDef HAL_PCCARD_Reset(PCCARD_HandleTypeDef *hpccard)
 576:/home/phong/Documents/thesis/stm32f4/stm-idf/components/stm32f4xx_hal_driver/stm32f4xx_hal_pccard.c **** {
 802              		.loc 1 576 0
 803              		.cfi_startproc
 804              		@ args = 0, pretend = 0, frame = 0
 805              		@ frame_needed = 0, uses_anonymous_args = 0
 806              		@ link register save eliminated.
 807              	.LVL87:
 577:/home/phong/Documents/thesis/stm32f4/stm-idf/components/stm32f4xx_hal_driver/stm32f4xx_hal_pccard.c ****   /* Process Locked */
 578:/home/phong/Documents/thesis/stm32f4/stm-idf/components/stm32f4xx_hal_driver/stm32f4xx_hal_pccard.c ****   __HAL_LOCK(hpccard);  
 808              		.loc 1 578 0
 809 0000 437C     		ldrb	r3, [r0, #17]	@ zero_extendqisi2
 810 0002 012B     		cmp	r3, #1
 811 0004 0FD0     		beq	.L76
 812              		.loc 1 578 0 is_stmt 0 discriminator 2
 813 0006 0123     		movs	r3, #1
 814 0008 4374     		strb	r3, [r0, #17]
 579:/home/phong/Documents/thesis/stm32f4/stm-idf/components/stm32f4xx_hal_driver/stm32f4xx_hal_pccard.c ****   
 580:/home/phong/Documents/thesis/stm32f4/stm-idf/components/stm32f4xx_hal_driver/stm32f4xx_hal_pccard.c ****   /* Check the PCCARD controller state */
 581:/home/phong/Documents/thesis/stm32f4/stm-idf/components/stm32f4xx_hal_driver/stm32f4xx_hal_pccard.c ****   if(hpccard->State == HAL_PCCARD_STATE_BUSY)
 815              		.loc 1 581 0 is_stmt 1 discriminator 2
 816 000a 037C     		ldrb	r3, [r0, #16]	@ zero_extendqisi2
ARM GAS  /tmp/ccV4nfVF.s 			page 26


 817 000c DBB2     		uxtb	r3, r3
 818 000e 022B     		cmp	r3, #2
 819 0010 0BD0     		beq	.L77
 582:/home/phong/Documents/thesis/stm32f4/stm-idf/components/stm32f4xx_hal_driver/stm32f4xx_hal_pccard.c ****   {
 583:/home/phong/Documents/thesis/stm32f4/stm-idf/components/stm32f4xx_hal_driver/stm32f4xx_hal_pccard.c ****      return HAL_BUSY;
 584:/home/phong/Documents/thesis/stm32f4/stm-idf/components/stm32f4xx_hal_driver/stm32f4xx_hal_pccard.c ****   }
 585:/home/phong/Documents/thesis/stm32f4/stm-idf/components/stm32f4xx_hal_driver/stm32f4xx_hal_pccard.c **** 
 586:/home/phong/Documents/thesis/stm32f4/stm-idf/components/stm32f4xx_hal_driver/stm32f4xx_hal_pccard.c ****   /* Provide a SW reset and Read and verify the:
 587:/home/phong/Documents/thesis/stm32f4/stm-idf/components/stm32f4xx_hal_driver/stm32f4xx_hal_pccard.c ****    - PCCard Configuration Option Register at address 0x98000200 --> 0x80
 588:/home/phong/Documents/thesis/stm32f4/stm-idf/components/stm32f4xx_hal_driver/stm32f4xx_hal_pccard.c ****    - Card Configuration and Status Register at address 0x98000202 --> 0x00
 589:/home/phong/Documents/thesis/stm32f4/stm-idf/components/stm32f4xx_hal_driver/stm32f4xx_hal_pccard.c ****    - Pin Replacement Register at address 0x98000204 --> 0x0C
 590:/home/phong/Documents/thesis/stm32f4/stm-idf/components/stm32f4xx_hal_driver/stm32f4xx_hal_pccard.c ****    - Socket and Copy Register at address 0x98000206 --> 0x00
 591:/home/phong/Documents/thesis/stm32f4/stm-idf/components/stm32f4xx_hal_driver/stm32f4xx_hal_pccard.c ****   */
 592:/home/phong/Documents/thesis/stm32f4/stm-idf/components/stm32f4xx_hal_driver/stm32f4xx_hal_pccard.c **** 
 593:/home/phong/Documents/thesis/stm32f4/stm-idf/components/stm32f4xx_hal_driver/stm32f4xx_hal_pccard.c ****   /* Check the PCCARD controller state */
 594:/home/phong/Documents/thesis/stm32f4/stm-idf/components/stm32f4xx_hal_driver/stm32f4xx_hal_pccard.c ****   hpccard->State = HAL_PCCARD_STATE_BUSY;
 820              		.loc 1 594 0
 821 0012 0223     		movs	r3, #2
 822 0014 0374     		strb	r3, [r0, #16]
 595:/home/phong/Documents/thesis/stm32f4/stm-idf/components/stm32f4xx_hal_driver/stm32f4xx_hal_pccard.c ****   
 596:/home/phong/Documents/thesis/stm32f4/stm-idf/components/stm32f4xx_hal_driver/stm32f4xx_hal_pccard.c ****   *(__IO uint8_t *)(PCCARD_ATTRIBUTE_SPACE_ADDRESS | ATA_CARD_CONFIGURATION ) = 0x01;
 823              		.loc 1 596 0
 824 0016 0123     		movs	r3, #1
 825 0018 054A     		ldr	r2, .L78
 826 001a 1370     		strb	r3, [r2]
 597:/home/phong/Documents/thesis/stm32f4/stm-idf/components/stm32f4xx_hal_driver/stm32f4xx_hal_pccard.c ****     
 598:/home/phong/Documents/thesis/stm32f4/stm-idf/components/stm32f4xx_hal_driver/stm32f4xx_hal_pccard.c ****   /* Check the PCCARD controller state */
 599:/home/phong/Documents/thesis/stm32f4/stm-idf/components/stm32f4xx_hal_driver/stm32f4xx_hal_pccard.c ****   hpccard->State = HAL_PCCARD_STATE_READY;
 827              		.loc 1 599 0
 828 001c 0374     		strb	r3, [r0, #16]
 600:/home/phong/Documents/thesis/stm32f4/stm-idf/components/stm32f4xx_hal_driver/stm32f4xx_hal_pccard.c ****   
 601:/home/phong/Documents/thesis/stm32f4/stm-idf/components/stm32f4xx_hal_driver/stm32f4xx_hal_pccard.c ****   /* Process unlocked */
 602:/home/phong/Documents/thesis/stm32f4/stm-idf/components/stm32f4xx_hal_driver/stm32f4xx_hal_pccard.c ****   __HAL_UNLOCK(hpccard);  
 829              		.loc 1 602 0
 830 001e 0023     		movs	r3, #0
 831 0020 4374     		strb	r3, [r0, #17]
 603:/home/phong/Documents/thesis/stm32f4/stm-idf/components/stm32f4xx_hal_driver/stm32f4xx_hal_pccard.c ****   
 604:/home/phong/Documents/thesis/stm32f4/stm-idf/components/stm32f4xx_hal_driver/stm32f4xx_hal_pccard.c ****   return HAL_OK;
 832              		.loc 1 604 0
 833 0022 1846     		mov	r0, r3
 834              	.LVL88:
 835 0024 7047     		bx	lr
 836              	.LVL89:
 837              	.L76:
 578:/home/phong/Documents/thesis/stm32f4/stm-idf/components/stm32f4xx_hal_driver/stm32f4xx_hal_pccard.c ****   
 838              		.loc 1 578 0
 839 0026 0220     		movs	r0, #2
 840              	.LVL90:
 841 0028 7047     		bx	lr
 842              	.LVL91:
 843              	.L77:
 583:/home/phong/Documents/thesis/stm32f4/stm-idf/components/stm32f4xx_hal_driver/stm32f4xx_hal_pccard.c ****   }
 844              		.loc 1 583 0
 845 002a 0220     		movs	r0, #2
 846              	.LVL92:
 605:/home/phong/Documents/thesis/stm32f4/stm-idf/components/stm32f4xx_hal_driver/stm32f4xx_hal_pccard.c **** }
 847              		.loc 1 605 0
ARM GAS  /tmp/ccV4nfVF.s 			page 27


 848 002c 7047     		bx	lr
 849              	.L79:
 850 002e 00BF     		.align	2
 851              	.L78:
 852 0030 02020098 		.word	-1744829950
 853              		.cfi_endproc
 854              	.LFE138:
 856              		.section	.text.HAL_PCCARD_ITCallback,"ax",%progbits
 857              		.align	1
 858              		.weak	HAL_PCCARD_ITCallback
 859              		.syntax unified
 860              		.thumb
 861              		.thumb_func
 862              		.fpu fpv4-sp-d16
 864              	HAL_PCCARD_ITCallback:
 865              	.LFB140:
 606:/home/phong/Documents/thesis/stm32f4/stm-idf/components/stm32f4xx_hal_driver/stm32f4xx_hal_pccard.c **** 
 607:/home/phong/Documents/thesis/stm32f4/stm-idf/components/stm32f4xx_hal_driver/stm32f4xx_hal_pccard.c **** /**
 608:/home/phong/Documents/thesis/stm32f4/stm-idf/components/stm32f4xx_hal_driver/stm32f4xx_hal_pccard.c ****   * @brief  This function handles PCCARD device interrupt request.
 609:/home/phong/Documents/thesis/stm32f4/stm-idf/components/stm32f4xx_hal_driver/stm32f4xx_hal_pccard.c ****   * @param  hpccard pointer to a PCCARD_HandleTypeDef structure that contains
 610:/home/phong/Documents/thesis/stm32f4/stm-idf/components/stm32f4xx_hal_driver/stm32f4xx_hal_pccard.c ****   *                the configuration information for PCCARD module.
 611:/home/phong/Documents/thesis/stm32f4/stm-idf/components/stm32f4xx_hal_driver/stm32f4xx_hal_pccard.c ****   * @retval HAL status
 612:/home/phong/Documents/thesis/stm32f4/stm-idf/components/stm32f4xx_hal_driver/stm32f4xx_hal_pccard.c **** */
 613:/home/phong/Documents/thesis/stm32f4/stm-idf/components/stm32f4xx_hal_driver/stm32f4xx_hal_pccard.c **** void HAL_PCCARD_IRQHandler(PCCARD_HandleTypeDef *hpccard)
 614:/home/phong/Documents/thesis/stm32f4/stm-idf/components/stm32f4xx_hal_driver/stm32f4xx_hal_pccard.c **** {
 615:/home/phong/Documents/thesis/stm32f4/stm-idf/components/stm32f4xx_hal_driver/stm32f4xx_hal_pccard.c ****   /* Check PCCARD interrupt Rising edge flag */
 616:/home/phong/Documents/thesis/stm32f4/stm-idf/components/stm32f4xx_hal_driver/stm32f4xx_hal_pccard.c ****   if(__FMC_PCCARD_GET_FLAG(hpccard->Instance, FMC_FLAG_RISING_EDGE))
 617:/home/phong/Documents/thesis/stm32f4/stm-idf/components/stm32f4xx_hal_driver/stm32f4xx_hal_pccard.c ****   {
 618:/home/phong/Documents/thesis/stm32f4/stm-idf/components/stm32f4xx_hal_driver/stm32f4xx_hal_pccard.c ****     /* PCCARD interrupt callback*/
 619:/home/phong/Documents/thesis/stm32f4/stm-idf/components/stm32f4xx_hal_driver/stm32f4xx_hal_pccard.c **** #if (USE_HAL_PCCARD_REGISTER_CALLBACKS == 1)
 620:/home/phong/Documents/thesis/stm32f4/stm-idf/components/stm32f4xx_hal_driver/stm32f4xx_hal_pccard.c ****     hpccard->ItCallback(hpccard);
 621:/home/phong/Documents/thesis/stm32f4/stm-idf/components/stm32f4xx_hal_driver/stm32f4xx_hal_pccard.c **** #else
 622:/home/phong/Documents/thesis/stm32f4/stm-idf/components/stm32f4xx_hal_driver/stm32f4xx_hal_pccard.c ****     HAL_PCCARD_ITCallback(hpccard);
 623:/home/phong/Documents/thesis/stm32f4/stm-idf/components/stm32f4xx_hal_driver/stm32f4xx_hal_pccard.c **** #endif
 624:/home/phong/Documents/thesis/stm32f4/stm-idf/components/stm32f4xx_hal_driver/stm32f4xx_hal_pccard.c **** 
 625:/home/phong/Documents/thesis/stm32f4/stm-idf/components/stm32f4xx_hal_driver/stm32f4xx_hal_pccard.c ****     /* Clear PCCARD interrupt Rising edge pending bit */
 626:/home/phong/Documents/thesis/stm32f4/stm-idf/components/stm32f4xx_hal_driver/stm32f4xx_hal_pccard.c ****     __FMC_PCCARD_CLEAR_FLAG(hpccard->Instance, FMC_FLAG_RISING_EDGE);
 627:/home/phong/Documents/thesis/stm32f4/stm-idf/components/stm32f4xx_hal_driver/stm32f4xx_hal_pccard.c ****   }
 628:/home/phong/Documents/thesis/stm32f4/stm-idf/components/stm32f4xx_hal_driver/stm32f4xx_hal_pccard.c ****   
 629:/home/phong/Documents/thesis/stm32f4/stm-idf/components/stm32f4xx_hal_driver/stm32f4xx_hal_pccard.c ****   /* Check PCCARD interrupt Level flag */
 630:/home/phong/Documents/thesis/stm32f4/stm-idf/components/stm32f4xx_hal_driver/stm32f4xx_hal_pccard.c ****   if(__FMC_PCCARD_GET_FLAG(hpccard->Instance, FMC_FLAG_LEVEL))
 631:/home/phong/Documents/thesis/stm32f4/stm-idf/components/stm32f4xx_hal_driver/stm32f4xx_hal_pccard.c ****   {
 632:/home/phong/Documents/thesis/stm32f4/stm-idf/components/stm32f4xx_hal_driver/stm32f4xx_hal_pccard.c ****     /* PCCARD interrupt callback*/
 633:/home/phong/Documents/thesis/stm32f4/stm-idf/components/stm32f4xx_hal_driver/stm32f4xx_hal_pccard.c **** #if (USE_HAL_PCCARD_REGISTER_CALLBACKS == 1)
 634:/home/phong/Documents/thesis/stm32f4/stm-idf/components/stm32f4xx_hal_driver/stm32f4xx_hal_pccard.c ****     hpccard->ItCallback(hpccard);
 635:/home/phong/Documents/thesis/stm32f4/stm-idf/components/stm32f4xx_hal_driver/stm32f4xx_hal_pccard.c **** #else
 636:/home/phong/Documents/thesis/stm32f4/stm-idf/components/stm32f4xx_hal_driver/stm32f4xx_hal_pccard.c ****     HAL_PCCARD_ITCallback(hpccard);
 637:/home/phong/Documents/thesis/stm32f4/stm-idf/components/stm32f4xx_hal_driver/stm32f4xx_hal_pccard.c **** #endif
 638:/home/phong/Documents/thesis/stm32f4/stm-idf/components/stm32f4xx_hal_driver/stm32f4xx_hal_pccard.c **** 
 639:/home/phong/Documents/thesis/stm32f4/stm-idf/components/stm32f4xx_hal_driver/stm32f4xx_hal_pccard.c ****     /* Clear PCCARD interrupt Level pending bit */
 640:/home/phong/Documents/thesis/stm32f4/stm-idf/components/stm32f4xx_hal_driver/stm32f4xx_hal_pccard.c ****     __FMC_PCCARD_CLEAR_FLAG(hpccard->Instance, FMC_FLAG_LEVEL);
 641:/home/phong/Documents/thesis/stm32f4/stm-idf/components/stm32f4xx_hal_driver/stm32f4xx_hal_pccard.c ****   }
 642:/home/phong/Documents/thesis/stm32f4/stm-idf/components/stm32f4xx_hal_driver/stm32f4xx_hal_pccard.c **** 
 643:/home/phong/Documents/thesis/stm32f4/stm-idf/components/stm32f4xx_hal_driver/stm32f4xx_hal_pccard.c ****   /* Check PCCARD interrupt Falling edge flag */
 644:/home/phong/Documents/thesis/stm32f4/stm-idf/components/stm32f4xx_hal_driver/stm32f4xx_hal_pccard.c ****   if(__FMC_PCCARD_GET_FLAG(hpccard->Instance, FMC_FLAG_FALLING_EDGE))
 645:/home/phong/Documents/thesis/stm32f4/stm-idf/components/stm32f4xx_hal_driver/stm32f4xx_hal_pccard.c ****   {
 646:/home/phong/Documents/thesis/stm32f4/stm-idf/components/stm32f4xx_hal_driver/stm32f4xx_hal_pccard.c ****     /* PCCARD interrupt callback*/
ARM GAS  /tmp/ccV4nfVF.s 			page 28


 647:/home/phong/Documents/thesis/stm32f4/stm-idf/components/stm32f4xx_hal_driver/stm32f4xx_hal_pccard.c **** #if (USE_HAL_PCCARD_REGISTER_CALLBACKS == 1)
 648:/home/phong/Documents/thesis/stm32f4/stm-idf/components/stm32f4xx_hal_driver/stm32f4xx_hal_pccard.c ****     hpccard->ItCallback(hpccard);
 649:/home/phong/Documents/thesis/stm32f4/stm-idf/components/stm32f4xx_hal_driver/stm32f4xx_hal_pccard.c **** #else
 650:/home/phong/Documents/thesis/stm32f4/stm-idf/components/stm32f4xx_hal_driver/stm32f4xx_hal_pccard.c ****     HAL_PCCARD_ITCallback(hpccard);
 651:/home/phong/Documents/thesis/stm32f4/stm-idf/components/stm32f4xx_hal_driver/stm32f4xx_hal_pccard.c **** #endif
 652:/home/phong/Documents/thesis/stm32f4/stm-idf/components/stm32f4xx_hal_driver/stm32f4xx_hal_pccard.c **** 
 653:/home/phong/Documents/thesis/stm32f4/stm-idf/components/stm32f4xx_hal_driver/stm32f4xx_hal_pccard.c ****     /* Clear PCCARD interrupt Falling edge pending bit */
 654:/home/phong/Documents/thesis/stm32f4/stm-idf/components/stm32f4xx_hal_driver/stm32f4xx_hal_pccard.c ****     __FMC_PCCARD_CLEAR_FLAG(hpccard->Instance, FMC_FLAG_FALLING_EDGE);
 655:/home/phong/Documents/thesis/stm32f4/stm-idf/components/stm32f4xx_hal_driver/stm32f4xx_hal_pccard.c ****   }
 656:/home/phong/Documents/thesis/stm32f4/stm-idf/components/stm32f4xx_hal_driver/stm32f4xx_hal_pccard.c ****   
 657:/home/phong/Documents/thesis/stm32f4/stm-idf/components/stm32f4xx_hal_driver/stm32f4xx_hal_pccard.c ****   /* Check PCCARD interrupt FIFO empty flag */
 658:/home/phong/Documents/thesis/stm32f4/stm-idf/components/stm32f4xx_hal_driver/stm32f4xx_hal_pccard.c ****   if(__FMC_PCCARD_GET_FLAG(hpccard->Instance, FMC_FLAG_FEMPT))
 659:/home/phong/Documents/thesis/stm32f4/stm-idf/components/stm32f4xx_hal_driver/stm32f4xx_hal_pccard.c ****   {
 660:/home/phong/Documents/thesis/stm32f4/stm-idf/components/stm32f4xx_hal_driver/stm32f4xx_hal_pccard.c ****     /* PCCARD interrupt callback*/
 661:/home/phong/Documents/thesis/stm32f4/stm-idf/components/stm32f4xx_hal_driver/stm32f4xx_hal_pccard.c **** #if (USE_HAL_PCCARD_REGISTER_CALLBACKS == 1)
 662:/home/phong/Documents/thesis/stm32f4/stm-idf/components/stm32f4xx_hal_driver/stm32f4xx_hal_pccard.c ****     hpccard->ItCallback(hpccard);
 663:/home/phong/Documents/thesis/stm32f4/stm-idf/components/stm32f4xx_hal_driver/stm32f4xx_hal_pccard.c **** #else
 664:/home/phong/Documents/thesis/stm32f4/stm-idf/components/stm32f4xx_hal_driver/stm32f4xx_hal_pccard.c ****     HAL_PCCARD_ITCallback(hpccard);
 665:/home/phong/Documents/thesis/stm32f4/stm-idf/components/stm32f4xx_hal_driver/stm32f4xx_hal_pccard.c **** #endif
 666:/home/phong/Documents/thesis/stm32f4/stm-idf/components/stm32f4xx_hal_driver/stm32f4xx_hal_pccard.c **** 
 667:/home/phong/Documents/thesis/stm32f4/stm-idf/components/stm32f4xx_hal_driver/stm32f4xx_hal_pccard.c ****     /* Clear PCCARD interrupt FIFO empty pending bit */
 668:/home/phong/Documents/thesis/stm32f4/stm-idf/components/stm32f4xx_hal_driver/stm32f4xx_hal_pccard.c ****     __FMC_PCCARD_CLEAR_FLAG(hpccard->Instance, FMC_FLAG_FEMPT);
 669:/home/phong/Documents/thesis/stm32f4/stm-idf/components/stm32f4xx_hal_driver/stm32f4xx_hal_pccard.c ****   }  
 670:/home/phong/Documents/thesis/stm32f4/stm-idf/components/stm32f4xx_hal_driver/stm32f4xx_hal_pccard.c **** }
 671:/home/phong/Documents/thesis/stm32f4/stm-idf/components/stm32f4xx_hal_driver/stm32f4xx_hal_pccard.c **** 
 672:/home/phong/Documents/thesis/stm32f4/stm-idf/components/stm32f4xx_hal_driver/stm32f4xx_hal_pccard.c **** /**
 673:/home/phong/Documents/thesis/stm32f4/stm-idf/components/stm32f4xx_hal_driver/stm32f4xx_hal_pccard.c ****   * @brief  PCCARD interrupt feature callback
 674:/home/phong/Documents/thesis/stm32f4/stm-idf/components/stm32f4xx_hal_driver/stm32f4xx_hal_pccard.c ****   * @param  hpccard pointer to a PCCARD_HandleTypeDef structure that contains
 675:/home/phong/Documents/thesis/stm32f4/stm-idf/components/stm32f4xx_hal_driver/stm32f4xx_hal_pccard.c ****   *                the configuration information for PCCARD module.
 676:/home/phong/Documents/thesis/stm32f4/stm-idf/components/stm32f4xx_hal_driver/stm32f4xx_hal_pccard.c ****   * @retval None
 677:/home/phong/Documents/thesis/stm32f4/stm-idf/components/stm32f4xx_hal_driver/stm32f4xx_hal_pccard.c ****   */
 678:/home/phong/Documents/thesis/stm32f4/stm-idf/components/stm32f4xx_hal_driver/stm32f4xx_hal_pccard.c **** __weak void HAL_PCCARD_ITCallback(PCCARD_HandleTypeDef *hpccard)
 679:/home/phong/Documents/thesis/stm32f4/stm-idf/components/stm32f4xx_hal_driver/stm32f4xx_hal_pccard.c **** {
 866              		.loc 1 679 0
 867              		.cfi_startproc
 868              		@ args = 0, pretend = 0, frame = 0
 869              		@ frame_needed = 0, uses_anonymous_args = 0
 870              		@ link register save eliminated.
 871              	.LVL93:
 872 0000 7047     		bx	lr
 873              		.cfi_endproc
 874              	.LFE140:
 876              		.section	.text.HAL_PCCARD_IRQHandler,"ax",%progbits
 877              		.align	1
 878              		.global	HAL_PCCARD_IRQHandler
 879              		.syntax unified
 880              		.thumb
 881              		.thumb_func
 882              		.fpu fpv4-sp-d16
 884              	HAL_PCCARD_IRQHandler:
 885              	.LFB139:
 614:/home/phong/Documents/thesis/stm32f4/stm-idf/components/stm32f4xx_hal_driver/stm32f4xx_hal_pccard.c ****   /* Check PCCARD interrupt Rising edge flag */
 886              		.loc 1 614 0
 887              		.cfi_startproc
 888              		@ args = 0, pretend = 0, frame = 0
 889              		@ frame_needed = 0, uses_anonymous_args = 0
 890              	.LVL94:
ARM GAS  /tmp/ccV4nfVF.s 			page 29


 614:/home/phong/Documents/thesis/stm32f4/stm-idf/components/stm32f4xx_hal_driver/stm32f4xx_hal_pccard.c ****   /* Check PCCARD interrupt Rising edge flag */
 891              		.loc 1 614 0
 892 0000 10B5     		push	{r4, lr}
 893              	.LCFI15:
 894              		.cfi_def_cfa_offset 8
 895              		.cfi_offset 4, -8
 896              		.cfi_offset 14, -4
 897 0002 0446     		mov	r4, r0
 616:/home/phong/Documents/thesis/stm32f4/stm-idf/components/stm32f4xx_hal_driver/stm32f4xx_hal_pccard.c ****   {
 898              		.loc 1 616 0
 899 0004 0368     		ldr	r3, [r0]
 900 0006 5B68     		ldr	r3, [r3, #4]
 901 0008 13F0010F 		tst	r3, #1
 902 000c 0FD1     		bne	.L87
 903              	.LVL95:
 904              	.L82:
 630:/home/phong/Documents/thesis/stm32f4/stm-idf/components/stm32f4xx_hal_driver/stm32f4xx_hal_pccard.c ****   {
 905              		.loc 1 630 0
 906 000e 2368     		ldr	r3, [r4]
 907 0010 5B68     		ldr	r3, [r3, #4]
 908 0012 13F0020F 		tst	r3, #2
 909 0016 12D1     		bne	.L88
 910              	.L83:
 644:/home/phong/Documents/thesis/stm32f4/stm-idf/components/stm32f4xx_hal_driver/stm32f4xx_hal_pccard.c ****   {
 911              		.loc 1 644 0
 912 0018 2368     		ldr	r3, [r4]
 913 001a 5B68     		ldr	r3, [r3, #4]
 914 001c 13F0040F 		tst	r3, #4
 915 0020 16D1     		bne	.L89
 916              	.L84:
 658:/home/phong/Documents/thesis/stm32f4/stm-idf/components/stm32f4xx_hal_driver/stm32f4xx_hal_pccard.c ****   {
 917              		.loc 1 658 0
 918 0022 2368     		ldr	r3, [r4]
 919 0024 5B68     		ldr	r3, [r3, #4]
 920 0026 13F0400F 		tst	r3, #64
 921 002a 1AD1     		bne	.L90
 922              	.L81:
 923 002c 10BD     		pop	{r4, pc}
 924              	.LVL96:
 925              	.L87:
 622:/home/phong/Documents/thesis/stm32f4/stm-idf/components/stm32f4xx_hal_driver/stm32f4xx_hal_pccard.c **** #endif
 926              		.loc 1 622 0
 927 002e FFF7FEFF 		bl	HAL_PCCARD_ITCallback
 928              	.LVL97:
 626:/home/phong/Documents/thesis/stm32f4/stm-idf/components/stm32f4xx_hal_driver/stm32f4xx_hal_pccard.c ****   }
 929              		.loc 1 626 0
 930 0032 2268     		ldr	r2, [r4]
 931 0034 5368     		ldr	r3, [r2, #4]
 932 0036 23F00103 		bic	r3, r3, #1
 933 003a 5360     		str	r3, [r2, #4]
 934 003c E7E7     		b	.L82
 935              	.L88:
 636:/home/phong/Documents/thesis/stm32f4/stm-idf/components/stm32f4xx_hal_driver/stm32f4xx_hal_pccard.c **** #endif
 936              		.loc 1 636 0
 937 003e 2046     		mov	r0, r4
 938 0040 FFF7FEFF 		bl	HAL_PCCARD_ITCallback
 939              	.LVL98:
ARM GAS  /tmp/ccV4nfVF.s 			page 30


 640:/home/phong/Documents/thesis/stm32f4/stm-idf/components/stm32f4xx_hal_driver/stm32f4xx_hal_pccard.c ****   }
 940              		.loc 1 640 0
 941 0044 2268     		ldr	r2, [r4]
 942 0046 5368     		ldr	r3, [r2, #4]
 943 0048 23F00203 		bic	r3, r3, #2
 944 004c 5360     		str	r3, [r2, #4]
 945 004e E3E7     		b	.L83
 946              	.L89:
 650:/home/phong/Documents/thesis/stm32f4/stm-idf/components/stm32f4xx_hal_driver/stm32f4xx_hal_pccard.c **** #endif
 947              		.loc 1 650 0
 948 0050 2046     		mov	r0, r4
 949 0052 FFF7FEFF 		bl	HAL_PCCARD_ITCallback
 950              	.LVL99:
 654:/home/phong/Documents/thesis/stm32f4/stm-idf/components/stm32f4xx_hal_driver/stm32f4xx_hal_pccard.c ****   }
 951              		.loc 1 654 0
 952 0056 2268     		ldr	r2, [r4]
 953 0058 5368     		ldr	r3, [r2, #4]
 954 005a 23F00403 		bic	r3, r3, #4
 955 005e 5360     		str	r3, [r2, #4]
 956 0060 DFE7     		b	.L84
 957              	.L90:
 664:/home/phong/Documents/thesis/stm32f4/stm-idf/components/stm32f4xx_hal_driver/stm32f4xx_hal_pccard.c **** #endif
 958              		.loc 1 664 0
 959 0062 2046     		mov	r0, r4
 960 0064 FFF7FEFF 		bl	HAL_PCCARD_ITCallback
 961              	.LVL100:
 668:/home/phong/Documents/thesis/stm32f4/stm-idf/components/stm32f4xx_hal_driver/stm32f4xx_hal_pccard.c ****   }  
 962              		.loc 1 668 0
 963 0068 2268     		ldr	r2, [r4]
 964 006a 5368     		ldr	r3, [r2, #4]
 965 006c 23F04003 		bic	r3, r3, #64
 966 0070 5360     		str	r3, [r2, #4]
 670:/home/phong/Documents/thesis/stm32f4/stm-idf/components/stm32f4xx_hal_driver/stm32f4xx_hal_pccard.c **** 
 967              		.loc 1 670 0
 968 0072 DBE7     		b	.L81
 969              		.cfi_endproc
 970              	.LFE139:
 972              		.section	.text.HAL_PCCARD_GetState,"ax",%progbits
 973              		.align	1
 974              		.global	HAL_PCCARD_GetState
 975              		.syntax unified
 976              		.thumb
 977              		.thumb_func
 978              		.fpu fpv4-sp-d16
 980              	HAL_PCCARD_GetState:
 981              	.LFB141:
 680:/home/phong/Documents/thesis/stm32f4/stm-idf/components/stm32f4xx_hal_driver/stm32f4xx_hal_pccard.c ****   /* Prevent unused argument(s) compilation warning */
 681:/home/phong/Documents/thesis/stm32f4/stm-idf/components/stm32f4xx_hal_driver/stm32f4xx_hal_pccard.c ****   UNUSED(hpccard);
 682:/home/phong/Documents/thesis/stm32f4/stm-idf/components/stm32f4xx_hal_driver/stm32f4xx_hal_pccard.c ****   /* NOTE : This function Should not be modified, when the callback is needed,
 683:/home/phong/Documents/thesis/stm32f4/stm-idf/components/stm32f4xx_hal_driver/stm32f4xx_hal_pccard.c ****             the HAL_PCCARD_ITCallback could be implemented in the user file
 684:/home/phong/Documents/thesis/stm32f4/stm-idf/components/stm32f4xx_hal_driver/stm32f4xx_hal_pccard.c ****    */
 685:/home/phong/Documents/thesis/stm32f4/stm-idf/components/stm32f4xx_hal_driver/stm32f4xx_hal_pccard.c **** }
 686:/home/phong/Documents/thesis/stm32f4/stm-idf/components/stm32f4xx_hal_driver/stm32f4xx_hal_pccard.c **** 
 687:/home/phong/Documents/thesis/stm32f4/stm-idf/components/stm32f4xx_hal_driver/stm32f4xx_hal_pccard.c **** #if (USE_HAL_PCCARD_REGISTER_CALLBACKS == 1)
 688:/home/phong/Documents/thesis/stm32f4/stm-idf/components/stm32f4xx_hal_driver/stm32f4xx_hal_pccard.c **** /**
 689:/home/phong/Documents/thesis/stm32f4/stm-idf/components/stm32f4xx_hal_driver/stm32f4xx_hal_pccard.c ****   * @brief  Register a User PCCARD Callback
 690:/home/phong/Documents/thesis/stm32f4/stm-idf/components/stm32f4xx_hal_driver/stm32f4xx_hal_pccard.c ****   *         To be used instead of the weak (surcharged) predefined callback
ARM GAS  /tmp/ccV4nfVF.s 			page 31


 691:/home/phong/Documents/thesis/stm32f4/stm-idf/components/stm32f4xx_hal_driver/stm32f4xx_hal_pccard.c ****   * @param hpccard : PCCARD handle
 692:/home/phong/Documents/thesis/stm32f4/stm-idf/components/stm32f4xx_hal_driver/stm32f4xx_hal_pccard.c ****   * @param CallbackId : ID of the callback to be registered
 693:/home/phong/Documents/thesis/stm32f4/stm-idf/components/stm32f4xx_hal_driver/stm32f4xx_hal_pccard.c ****   *        This parameter can be one of the following values:
 694:/home/phong/Documents/thesis/stm32f4/stm-idf/components/stm32f4xx_hal_driver/stm32f4xx_hal_pccard.c ****   *          @arg @ref HAL_PCCARD_MSP_INIT_CB_ID       PCCARD MspInit callback ID
 695:/home/phong/Documents/thesis/stm32f4/stm-idf/components/stm32f4xx_hal_driver/stm32f4xx_hal_pccard.c ****   *          @arg @ref HAL_PCCARD_MSP_DEINIT_CB_ID     PCCARD MspDeInit callback ID
 696:/home/phong/Documents/thesis/stm32f4/stm-idf/components/stm32f4xx_hal_driver/stm32f4xx_hal_pccard.c ****   *          @arg @ref HAL_PCCARD_IT_CB_ID             PCCARD IT callback ID
 697:/home/phong/Documents/thesis/stm32f4/stm-idf/components/stm32f4xx_hal_driver/stm32f4xx_hal_pccard.c ****   * @param pCallback : pointer to the Callback function
 698:/home/phong/Documents/thesis/stm32f4/stm-idf/components/stm32f4xx_hal_driver/stm32f4xx_hal_pccard.c ****   * @retval status
 699:/home/phong/Documents/thesis/stm32f4/stm-idf/components/stm32f4xx_hal_driver/stm32f4xx_hal_pccard.c ****   */
 700:/home/phong/Documents/thesis/stm32f4/stm-idf/components/stm32f4xx_hal_driver/stm32f4xx_hal_pccard.c **** HAL_StatusTypeDef HAL_PCCARD_RegisterCallback (PCCARD_HandleTypeDef *hpccard, HAL_PCCARD_CallbackID
 701:/home/phong/Documents/thesis/stm32f4/stm-idf/components/stm32f4xx_hal_driver/stm32f4xx_hal_pccard.c **** {
 702:/home/phong/Documents/thesis/stm32f4/stm-idf/components/stm32f4xx_hal_driver/stm32f4xx_hal_pccard.c ****   HAL_StatusTypeDef status = HAL_OK;
 703:/home/phong/Documents/thesis/stm32f4/stm-idf/components/stm32f4xx_hal_driver/stm32f4xx_hal_pccard.c **** 
 704:/home/phong/Documents/thesis/stm32f4/stm-idf/components/stm32f4xx_hal_driver/stm32f4xx_hal_pccard.c ****   if(pCallback == NULL)
 705:/home/phong/Documents/thesis/stm32f4/stm-idf/components/stm32f4xx_hal_driver/stm32f4xx_hal_pccard.c ****   {
 706:/home/phong/Documents/thesis/stm32f4/stm-idf/components/stm32f4xx_hal_driver/stm32f4xx_hal_pccard.c ****     return HAL_ERROR;
 707:/home/phong/Documents/thesis/stm32f4/stm-idf/components/stm32f4xx_hal_driver/stm32f4xx_hal_pccard.c ****   }
 708:/home/phong/Documents/thesis/stm32f4/stm-idf/components/stm32f4xx_hal_driver/stm32f4xx_hal_pccard.c **** 
 709:/home/phong/Documents/thesis/stm32f4/stm-idf/components/stm32f4xx_hal_driver/stm32f4xx_hal_pccard.c ****   /* Process locked */
 710:/home/phong/Documents/thesis/stm32f4/stm-idf/components/stm32f4xx_hal_driver/stm32f4xx_hal_pccard.c ****   __HAL_LOCK(hpccard);
 711:/home/phong/Documents/thesis/stm32f4/stm-idf/components/stm32f4xx_hal_driver/stm32f4xx_hal_pccard.c **** 
 712:/home/phong/Documents/thesis/stm32f4/stm-idf/components/stm32f4xx_hal_driver/stm32f4xx_hal_pccard.c ****   if(hpccard->State == HAL_PCCARD_STATE_READY)
 713:/home/phong/Documents/thesis/stm32f4/stm-idf/components/stm32f4xx_hal_driver/stm32f4xx_hal_pccard.c ****   {
 714:/home/phong/Documents/thesis/stm32f4/stm-idf/components/stm32f4xx_hal_driver/stm32f4xx_hal_pccard.c ****     switch (CallbackId)
 715:/home/phong/Documents/thesis/stm32f4/stm-idf/components/stm32f4xx_hal_driver/stm32f4xx_hal_pccard.c ****     {
 716:/home/phong/Documents/thesis/stm32f4/stm-idf/components/stm32f4xx_hal_driver/stm32f4xx_hal_pccard.c ****     case HAL_PCCARD_MSP_INIT_CB_ID :
 717:/home/phong/Documents/thesis/stm32f4/stm-idf/components/stm32f4xx_hal_driver/stm32f4xx_hal_pccard.c ****       hpccard->MspInitCallback = pCallback;
 718:/home/phong/Documents/thesis/stm32f4/stm-idf/components/stm32f4xx_hal_driver/stm32f4xx_hal_pccard.c ****       break;
 719:/home/phong/Documents/thesis/stm32f4/stm-idf/components/stm32f4xx_hal_driver/stm32f4xx_hal_pccard.c ****     case HAL_PCCARD_MSP_DEINIT_CB_ID :
 720:/home/phong/Documents/thesis/stm32f4/stm-idf/components/stm32f4xx_hal_driver/stm32f4xx_hal_pccard.c ****       hpccard->MspDeInitCallback = pCallback;
 721:/home/phong/Documents/thesis/stm32f4/stm-idf/components/stm32f4xx_hal_driver/stm32f4xx_hal_pccard.c ****       break;
 722:/home/phong/Documents/thesis/stm32f4/stm-idf/components/stm32f4xx_hal_driver/stm32f4xx_hal_pccard.c ****     case HAL_PCCARD_IT_CB_ID :
 723:/home/phong/Documents/thesis/stm32f4/stm-idf/components/stm32f4xx_hal_driver/stm32f4xx_hal_pccard.c ****       hpccard->ItCallback = pCallback;
 724:/home/phong/Documents/thesis/stm32f4/stm-idf/components/stm32f4xx_hal_driver/stm32f4xx_hal_pccard.c ****       break;
 725:/home/phong/Documents/thesis/stm32f4/stm-idf/components/stm32f4xx_hal_driver/stm32f4xx_hal_pccard.c ****     default :
 726:/home/phong/Documents/thesis/stm32f4/stm-idf/components/stm32f4xx_hal_driver/stm32f4xx_hal_pccard.c ****       /* update return status */
 727:/home/phong/Documents/thesis/stm32f4/stm-idf/components/stm32f4xx_hal_driver/stm32f4xx_hal_pccard.c ****       status =  HAL_ERROR;
 728:/home/phong/Documents/thesis/stm32f4/stm-idf/components/stm32f4xx_hal_driver/stm32f4xx_hal_pccard.c ****       break;
 729:/home/phong/Documents/thesis/stm32f4/stm-idf/components/stm32f4xx_hal_driver/stm32f4xx_hal_pccard.c ****     }
 730:/home/phong/Documents/thesis/stm32f4/stm-idf/components/stm32f4xx_hal_driver/stm32f4xx_hal_pccard.c ****   }
 731:/home/phong/Documents/thesis/stm32f4/stm-idf/components/stm32f4xx_hal_driver/stm32f4xx_hal_pccard.c ****   else if(hpccard->State == HAL_PCCARD_STATE_RESET)
 732:/home/phong/Documents/thesis/stm32f4/stm-idf/components/stm32f4xx_hal_driver/stm32f4xx_hal_pccard.c ****   {
 733:/home/phong/Documents/thesis/stm32f4/stm-idf/components/stm32f4xx_hal_driver/stm32f4xx_hal_pccard.c ****     switch (CallbackId)
 734:/home/phong/Documents/thesis/stm32f4/stm-idf/components/stm32f4xx_hal_driver/stm32f4xx_hal_pccard.c ****     {
 735:/home/phong/Documents/thesis/stm32f4/stm-idf/components/stm32f4xx_hal_driver/stm32f4xx_hal_pccard.c ****     case HAL_PCCARD_MSP_INIT_CB_ID :
 736:/home/phong/Documents/thesis/stm32f4/stm-idf/components/stm32f4xx_hal_driver/stm32f4xx_hal_pccard.c ****       hpccard->MspInitCallback = pCallback;
 737:/home/phong/Documents/thesis/stm32f4/stm-idf/components/stm32f4xx_hal_driver/stm32f4xx_hal_pccard.c ****       break;
 738:/home/phong/Documents/thesis/stm32f4/stm-idf/components/stm32f4xx_hal_driver/stm32f4xx_hal_pccard.c ****     case HAL_PCCARD_MSP_DEINIT_CB_ID :
 739:/home/phong/Documents/thesis/stm32f4/stm-idf/components/stm32f4xx_hal_driver/stm32f4xx_hal_pccard.c ****       hpccard->MspDeInitCallback = pCallback;
 740:/home/phong/Documents/thesis/stm32f4/stm-idf/components/stm32f4xx_hal_driver/stm32f4xx_hal_pccard.c ****       break;
 741:/home/phong/Documents/thesis/stm32f4/stm-idf/components/stm32f4xx_hal_driver/stm32f4xx_hal_pccard.c ****     default :
 742:/home/phong/Documents/thesis/stm32f4/stm-idf/components/stm32f4xx_hal_driver/stm32f4xx_hal_pccard.c ****       /* update return status */
 743:/home/phong/Documents/thesis/stm32f4/stm-idf/components/stm32f4xx_hal_driver/stm32f4xx_hal_pccard.c ****       status =  HAL_ERROR;
 744:/home/phong/Documents/thesis/stm32f4/stm-idf/components/stm32f4xx_hal_driver/stm32f4xx_hal_pccard.c ****       break;
 745:/home/phong/Documents/thesis/stm32f4/stm-idf/components/stm32f4xx_hal_driver/stm32f4xx_hal_pccard.c ****     }
 746:/home/phong/Documents/thesis/stm32f4/stm-idf/components/stm32f4xx_hal_driver/stm32f4xx_hal_pccard.c ****   }
 747:/home/phong/Documents/thesis/stm32f4/stm-idf/components/stm32f4xx_hal_driver/stm32f4xx_hal_pccard.c ****   else
ARM GAS  /tmp/ccV4nfVF.s 			page 32


 748:/home/phong/Documents/thesis/stm32f4/stm-idf/components/stm32f4xx_hal_driver/stm32f4xx_hal_pccard.c ****   {
 749:/home/phong/Documents/thesis/stm32f4/stm-idf/components/stm32f4xx_hal_driver/stm32f4xx_hal_pccard.c ****     /* update return status */
 750:/home/phong/Documents/thesis/stm32f4/stm-idf/components/stm32f4xx_hal_driver/stm32f4xx_hal_pccard.c ****     status =  HAL_ERROR;
 751:/home/phong/Documents/thesis/stm32f4/stm-idf/components/stm32f4xx_hal_driver/stm32f4xx_hal_pccard.c ****   }
 752:/home/phong/Documents/thesis/stm32f4/stm-idf/components/stm32f4xx_hal_driver/stm32f4xx_hal_pccard.c **** 
 753:/home/phong/Documents/thesis/stm32f4/stm-idf/components/stm32f4xx_hal_driver/stm32f4xx_hal_pccard.c ****   /* Release Lock */
 754:/home/phong/Documents/thesis/stm32f4/stm-idf/components/stm32f4xx_hal_driver/stm32f4xx_hal_pccard.c ****   __HAL_UNLOCK(hpccard);
 755:/home/phong/Documents/thesis/stm32f4/stm-idf/components/stm32f4xx_hal_driver/stm32f4xx_hal_pccard.c ****   return status;
 756:/home/phong/Documents/thesis/stm32f4/stm-idf/components/stm32f4xx_hal_driver/stm32f4xx_hal_pccard.c **** }
 757:/home/phong/Documents/thesis/stm32f4/stm-idf/components/stm32f4xx_hal_driver/stm32f4xx_hal_pccard.c **** 
 758:/home/phong/Documents/thesis/stm32f4/stm-idf/components/stm32f4xx_hal_driver/stm32f4xx_hal_pccard.c **** /**
 759:/home/phong/Documents/thesis/stm32f4/stm-idf/components/stm32f4xx_hal_driver/stm32f4xx_hal_pccard.c ****   * @brief  Unregister a User PCCARD Callback
 760:/home/phong/Documents/thesis/stm32f4/stm-idf/components/stm32f4xx_hal_driver/stm32f4xx_hal_pccard.c ****   *         PCCARD Callback is redirected to the weak (surcharged) predefined callback
 761:/home/phong/Documents/thesis/stm32f4/stm-idf/components/stm32f4xx_hal_driver/stm32f4xx_hal_pccard.c ****   * @param hpccard : PCCARD handle
 762:/home/phong/Documents/thesis/stm32f4/stm-idf/components/stm32f4xx_hal_driver/stm32f4xx_hal_pccard.c ****   * @param CallbackId : ID of the callback to be unregistered
 763:/home/phong/Documents/thesis/stm32f4/stm-idf/components/stm32f4xx_hal_driver/stm32f4xx_hal_pccard.c ****   *        This parameter can be one of the following values:
 764:/home/phong/Documents/thesis/stm32f4/stm-idf/components/stm32f4xx_hal_driver/stm32f4xx_hal_pccard.c ****   *          @arg @ref HAL_PCCARD_MSP_INIT_CB_ID       PCCARD MspInit callback ID
 765:/home/phong/Documents/thesis/stm32f4/stm-idf/components/stm32f4xx_hal_driver/stm32f4xx_hal_pccard.c ****   *          @arg @ref HAL_PCCARD_MSP_DEINIT_CB_ID     PCCARD MspDeInit callback ID
 766:/home/phong/Documents/thesis/stm32f4/stm-idf/components/stm32f4xx_hal_driver/stm32f4xx_hal_pccard.c ****   *          @arg @ref HAL_PCCARD_IT_CB_ID             PCCARD IT callback ID
 767:/home/phong/Documents/thesis/stm32f4/stm-idf/components/stm32f4xx_hal_driver/stm32f4xx_hal_pccard.c ****   * @retval status
 768:/home/phong/Documents/thesis/stm32f4/stm-idf/components/stm32f4xx_hal_driver/stm32f4xx_hal_pccard.c ****   */
 769:/home/phong/Documents/thesis/stm32f4/stm-idf/components/stm32f4xx_hal_driver/stm32f4xx_hal_pccard.c **** HAL_StatusTypeDef HAL_PCCARD_UnRegisterCallback (PCCARD_HandleTypeDef *hpccard, HAL_PCCARD_Callback
 770:/home/phong/Documents/thesis/stm32f4/stm-idf/components/stm32f4xx_hal_driver/stm32f4xx_hal_pccard.c **** {
 771:/home/phong/Documents/thesis/stm32f4/stm-idf/components/stm32f4xx_hal_driver/stm32f4xx_hal_pccard.c ****   HAL_StatusTypeDef status = HAL_OK;
 772:/home/phong/Documents/thesis/stm32f4/stm-idf/components/stm32f4xx_hal_driver/stm32f4xx_hal_pccard.c **** 
 773:/home/phong/Documents/thesis/stm32f4/stm-idf/components/stm32f4xx_hal_driver/stm32f4xx_hal_pccard.c ****   /* Process locked */
 774:/home/phong/Documents/thesis/stm32f4/stm-idf/components/stm32f4xx_hal_driver/stm32f4xx_hal_pccard.c ****   __HAL_LOCK(hpccard);
 775:/home/phong/Documents/thesis/stm32f4/stm-idf/components/stm32f4xx_hal_driver/stm32f4xx_hal_pccard.c **** 
 776:/home/phong/Documents/thesis/stm32f4/stm-idf/components/stm32f4xx_hal_driver/stm32f4xx_hal_pccard.c ****   if(hpccard->State == HAL_PCCARD_STATE_READY)
 777:/home/phong/Documents/thesis/stm32f4/stm-idf/components/stm32f4xx_hal_driver/stm32f4xx_hal_pccard.c ****   {
 778:/home/phong/Documents/thesis/stm32f4/stm-idf/components/stm32f4xx_hal_driver/stm32f4xx_hal_pccard.c ****     switch (CallbackId)
 779:/home/phong/Documents/thesis/stm32f4/stm-idf/components/stm32f4xx_hal_driver/stm32f4xx_hal_pccard.c ****     {
 780:/home/phong/Documents/thesis/stm32f4/stm-idf/components/stm32f4xx_hal_driver/stm32f4xx_hal_pccard.c ****     case HAL_PCCARD_MSP_INIT_CB_ID :
 781:/home/phong/Documents/thesis/stm32f4/stm-idf/components/stm32f4xx_hal_driver/stm32f4xx_hal_pccard.c ****       hpccard->MspInitCallback = HAL_PCCARD_MspInit;
 782:/home/phong/Documents/thesis/stm32f4/stm-idf/components/stm32f4xx_hal_driver/stm32f4xx_hal_pccard.c ****       break;
 783:/home/phong/Documents/thesis/stm32f4/stm-idf/components/stm32f4xx_hal_driver/stm32f4xx_hal_pccard.c ****     case HAL_PCCARD_MSP_DEINIT_CB_ID :
 784:/home/phong/Documents/thesis/stm32f4/stm-idf/components/stm32f4xx_hal_driver/stm32f4xx_hal_pccard.c ****       hpccard->MspDeInitCallback = HAL_PCCARD_MspDeInit;
 785:/home/phong/Documents/thesis/stm32f4/stm-idf/components/stm32f4xx_hal_driver/stm32f4xx_hal_pccard.c ****       break;
 786:/home/phong/Documents/thesis/stm32f4/stm-idf/components/stm32f4xx_hal_driver/stm32f4xx_hal_pccard.c ****     case HAL_PCCARD_IT_CB_ID :
 787:/home/phong/Documents/thesis/stm32f4/stm-idf/components/stm32f4xx_hal_driver/stm32f4xx_hal_pccard.c ****       hpccard->ItCallback = HAL_PCCARD_ITCallback;
 788:/home/phong/Documents/thesis/stm32f4/stm-idf/components/stm32f4xx_hal_driver/stm32f4xx_hal_pccard.c ****       break;
 789:/home/phong/Documents/thesis/stm32f4/stm-idf/components/stm32f4xx_hal_driver/stm32f4xx_hal_pccard.c ****     default :
 790:/home/phong/Documents/thesis/stm32f4/stm-idf/components/stm32f4xx_hal_driver/stm32f4xx_hal_pccard.c ****       /* update return status */
 791:/home/phong/Documents/thesis/stm32f4/stm-idf/components/stm32f4xx_hal_driver/stm32f4xx_hal_pccard.c ****       status =  HAL_ERROR;
 792:/home/phong/Documents/thesis/stm32f4/stm-idf/components/stm32f4xx_hal_driver/stm32f4xx_hal_pccard.c ****       break;
 793:/home/phong/Documents/thesis/stm32f4/stm-idf/components/stm32f4xx_hal_driver/stm32f4xx_hal_pccard.c ****     }
 794:/home/phong/Documents/thesis/stm32f4/stm-idf/components/stm32f4xx_hal_driver/stm32f4xx_hal_pccard.c ****   }
 795:/home/phong/Documents/thesis/stm32f4/stm-idf/components/stm32f4xx_hal_driver/stm32f4xx_hal_pccard.c ****   else if(hpccard->State == HAL_PCCARD_STATE_RESET)
 796:/home/phong/Documents/thesis/stm32f4/stm-idf/components/stm32f4xx_hal_driver/stm32f4xx_hal_pccard.c ****   {
 797:/home/phong/Documents/thesis/stm32f4/stm-idf/components/stm32f4xx_hal_driver/stm32f4xx_hal_pccard.c ****     switch (CallbackId)
 798:/home/phong/Documents/thesis/stm32f4/stm-idf/components/stm32f4xx_hal_driver/stm32f4xx_hal_pccard.c ****     {
 799:/home/phong/Documents/thesis/stm32f4/stm-idf/components/stm32f4xx_hal_driver/stm32f4xx_hal_pccard.c ****     case HAL_PCCARD_MSP_INIT_CB_ID :
 800:/home/phong/Documents/thesis/stm32f4/stm-idf/components/stm32f4xx_hal_driver/stm32f4xx_hal_pccard.c ****       hpccard->MspInitCallback = HAL_PCCARD_MspInit;
 801:/home/phong/Documents/thesis/stm32f4/stm-idf/components/stm32f4xx_hal_driver/stm32f4xx_hal_pccard.c ****       break;
 802:/home/phong/Documents/thesis/stm32f4/stm-idf/components/stm32f4xx_hal_driver/stm32f4xx_hal_pccard.c ****     case HAL_PCCARD_MSP_DEINIT_CB_ID :
 803:/home/phong/Documents/thesis/stm32f4/stm-idf/components/stm32f4xx_hal_driver/stm32f4xx_hal_pccard.c ****       hpccard->MspDeInitCallback = HAL_PCCARD_MspDeInit;
 804:/home/phong/Documents/thesis/stm32f4/stm-idf/components/stm32f4xx_hal_driver/stm32f4xx_hal_pccard.c ****       break;
ARM GAS  /tmp/ccV4nfVF.s 			page 33


 805:/home/phong/Documents/thesis/stm32f4/stm-idf/components/stm32f4xx_hal_driver/stm32f4xx_hal_pccard.c ****     default :
 806:/home/phong/Documents/thesis/stm32f4/stm-idf/components/stm32f4xx_hal_driver/stm32f4xx_hal_pccard.c ****       /* update return status */
 807:/home/phong/Documents/thesis/stm32f4/stm-idf/components/stm32f4xx_hal_driver/stm32f4xx_hal_pccard.c ****       status =  HAL_ERROR;
 808:/home/phong/Documents/thesis/stm32f4/stm-idf/components/stm32f4xx_hal_driver/stm32f4xx_hal_pccard.c ****       break;
 809:/home/phong/Documents/thesis/stm32f4/stm-idf/components/stm32f4xx_hal_driver/stm32f4xx_hal_pccard.c ****     }
 810:/home/phong/Documents/thesis/stm32f4/stm-idf/components/stm32f4xx_hal_driver/stm32f4xx_hal_pccard.c ****   }
 811:/home/phong/Documents/thesis/stm32f4/stm-idf/components/stm32f4xx_hal_driver/stm32f4xx_hal_pccard.c ****   else
 812:/home/phong/Documents/thesis/stm32f4/stm-idf/components/stm32f4xx_hal_driver/stm32f4xx_hal_pccard.c ****   {
 813:/home/phong/Documents/thesis/stm32f4/stm-idf/components/stm32f4xx_hal_driver/stm32f4xx_hal_pccard.c ****     /* update return status */
 814:/home/phong/Documents/thesis/stm32f4/stm-idf/components/stm32f4xx_hal_driver/stm32f4xx_hal_pccard.c ****     status =  HAL_ERROR;
 815:/home/phong/Documents/thesis/stm32f4/stm-idf/components/stm32f4xx_hal_driver/stm32f4xx_hal_pccard.c ****   }
 816:/home/phong/Documents/thesis/stm32f4/stm-idf/components/stm32f4xx_hal_driver/stm32f4xx_hal_pccard.c **** 
 817:/home/phong/Documents/thesis/stm32f4/stm-idf/components/stm32f4xx_hal_driver/stm32f4xx_hal_pccard.c ****   /* Release Lock */
 818:/home/phong/Documents/thesis/stm32f4/stm-idf/components/stm32f4xx_hal_driver/stm32f4xx_hal_pccard.c ****   __HAL_UNLOCK(hpccard);
 819:/home/phong/Documents/thesis/stm32f4/stm-idf/components/stm32f4xx_hal_driver/stm32f4xx_hal_pccard.c ****   return status;
 820:/home/phong/Documents/thesis/stm32f4/stm-idf/components/stm32f4xx_hal_driver/stm32f4xx_hal_pccard.c **** }
 821:/home/phong/Documents/thesis/stm32f4/stm-idf/components/stm32f4xx_hal_driver/stm32f4xx_hal_pccard.c **** #endif
 822:/home/phong/Documents/thesis/stm32f4/stm-idf/components/stm32f4xx_hal_driver/stm32f4xx_hal_pccard.c **** 
 823:/home/phong/Documents/thesis/stm32f4/stm-idf/components/stm32f4xx_hal_driver/stm32f4xx_hal_pccard.c **** /**
 824:/home/phong/Documents/thesis/stm32f4/stm-idf/components/stm32f4xx_hal_driver/stm32f4xx_hal_pccard.c ****   * @}
 825:/home/phong/Documents/thesis/stm32f4/stm-idf/components/stm32f4xx_hal_driver/stm32f4xx_hal_pccard.c ****   */
 826:/home/phong/Documents/thesis/stm32f4/stm-idf/components/stm32f4xx_hal_driver/stm32f4xx_hal_pccard.c **** 
 827:/home/phong/Documents/thesis/stm32f4/stm-idf/components/stm32f4xx_hal_driver/stm32f4xx_hal_pccard.c **** /** @defgroup PCCARD_Exported_Functions_Group3 State functions 
 828:/home/phong/Documents/thesis/stm32f4/stm-idf/components/stm32f4xx_hal_driver/stm32f4xx_hal_pccard.c ****  *  @brief   Peripheral State functions 
 829:/home/phong/Documents/thesis/stm32f4/stm-idf/components/stm32f4xx_hal_driver/stm32f4xx_hal_pccard.c ****  *
 830:/home/phong/Documents/thesis/stm32f4/stm-idf/components/stm32f4xx_hal_driver/stm32f4xx_hal_pccard.c **** @verbatim   
 831:/home/phong/Documents/thesis/stm32f4/stm-idf/components/stm32f4xx_hal_driver/stm32f4xx_hal_pccard.c ****   ==============================================================================
 832:/home/phong/Documents/thesis/stm32f4/stm-idf/components/stm32f4xx_hal_driver/stm32f4xx_hal_pccard.c ****                       ##### PCCARD State functions #####
 833:/home/phong/Documents/thesis/stm32f4/stm-idf/components/stm32f4xx_hal_driver/stm32f4xx_hal_pccard.c ****   ==============================================================================  
 834:/home/phong/Documents/thesis/stm32f4/stm-idf/components/stm32f4xx_hal_driver/stm32f4xx_hal_pccard.c ****   [..]
 835:/home/phong/Documents/thesis/stm32f4/stm-idf/components/stm32f4xx_hal_driver/stm32f4xx_hal_pccard.c ****     This subsection permits to get in run-time the status of the PCCARD controller 
 836:/home/phong/Documents/thesis/stm32f4/stm-idf/components/stm32f4xx_hal_driver/stm32f4xx_hal_pccard.c ****     and the data flow.
 837:/home/phong/Documents/thesis/stm32f4/stm-idf/components/stm32f4xx_hal_driver/stm32f4xx_hal_pccard.c **** 
 838:/home/phong/Documents/thesis/stm32f4/stm-idf/components/stm32f4xx_hal_driver/stm32f4xx_hal_pccard.c **** @endverbatim
 839:/home/phong/Documents/thesis/stm32f4/stm-idf/components/stm32f4xx_hal_driver/stm32f4xx_hal_pccard.c ****   * @{
 840:/home/phong/Documents/thesis/stm32f4/stm-idf/components/stm32f4xx_hal_driver/stm32f4xx_hal_pccard.c ****   */ 
 841:/home/phong/Documents/thesis/stm32f4/stm-idf/components/stm32f4xx_hal_driver/stm32f4xx_hal_pccard.c ****   
 842:/home/phong/Documents/thesis/stm32f4/stm-idf/components/stm32f4xx_hal_driver/stm32f4xx_hal_pccard.c **** /**
 843:/home/phong/Documents/thesis/stm32f4/stm-idf/components/stm32f4xx_hal_driver/stm32f4xx_hal_pccard.c ****   * @brief  return the PCCARD controller state
 844:/home/phong/Documents/thesis/stm32f4/stm-idf/components/stm32f4xx_hal_driver/stm32f4xx_hal_pccard.c ****   * @param  hpccard pointer to a PCCARD_HandleTypeDef structure that contains
 845:/home/phong/Documents/thesis/stm32f4/stm-idf/components/stm32f4xx_hal_driver/stm32f4xx_hal_pccard.c ****   *                the configuration information for PCCARD module.
 846:/home/phong/Documents/thesis/stm32f4/stm-idf/components/stm32f4xx_hal_driver/stm32f4xx_hal_pccard.c ****   * @retval HAL state
 847:/home/phong/Documents/thesis/stm32f4/stm-idf/components/stm32f4xx_hal_driver/stm32f4xx_hal_pccard.c ****   */
 848:/home/phong/Documents/thesis/stm32f4/stm-idf/components/stm32f4xx_hal_driver/stm32f4xx_hal_pccard.c **** HAL_PCCARD_StateTypeDef HAL_PCCARD_GetState(PCCARD_HandleTypeDef *hpccard)
 849:/home/phong/Documents/thesis/stm32f4/stm-idf/components/stm32f4xx_hal_driver/stm32f4xx_hal_pccard.c **** {
 982              		.loc 1 849 0
 983              		.cfi_startproc
 984              		@ args = 0, pretend = 0, frame = 0
 985              		@ frame_needed = 0, uses_anonymous_args = 0
 986              		@ link register save eliminated.
 987              	.LVL101:
 850:/home/phong/Documents/thesis/stm32f4/stm-idf/components/stm32f4xx_hal_driver/stm32f4xx_hal_pccard.c ****   return hpccard->State;
 988              		.loc 1 850 0
 989 0000 007C     		ldrb	r0, [r0, #16]	@ zero_extendqisi2
 990              	.LVL102:
 851:/home/phong/Documents/thesis/stm32f4/stm-idf/components/stm32f4xx_hal_driver/stm32f4xx_hal_pccard.c **** }  
 991              		.loc 1 851 0
ARM GAS  /tmp/ccV4nfVF.s 			page 34


 992 0002 7047     		bx	lr
 993              		.cfi_endproc
 994              	.LFE141:
 996              		.section	.text.HAL_PCCARD_GetStatus,"ax",%progbits
 997              		.align	1
 998              		.global	HAL_PCCARD_GetStatus
 999              		.syntax unified
 1000              		.thumb
 1001              		.thumb_func
 1002              		.fpu fpv4-sp-d16
 1004              	HAL_PCCARD_GetStatus:
 1005              	.LFB142:
 852:/home/phong/Documents/thesis/stm32f4/stm-idf/components/stm32f4xx_hal_driver/stm32f4xx_hal_pccard.c ****  
 853:/home/phong/Documents/thesis/stm32f4/stm-idf/components/stm32f4xx_hal_driver/stm32f4xx_hal_pccard.c **** /**
 854:/home/phong/Documents/thesis/stm32f4/stm-idf/components/stm32f4xx_hal_driver/stm32f4xx_hal_pccard.c ****   * @brief  Get the compact flash memory status
 855:/home/phong/Documents/thesis/stm32f4/stm-idf/components/stm32f4xx_hal_driver/stm32f4xx_hal_pccard.c ****   * @param  hpccard pointer to a PCCARD_HandleTypeDef structure that contains
 856:/home/phong/Documents/thesis/stm32f4/stm-idf/components/stm32f4xx_hal_driver/stm32f4xx_hal_pccard.c ****   *                the configuration information for PCCARD module.       
 857:/home/phong/Documents/thesis/stm32f4/stm-idf/components/stm32f4xx_hal_driver/stm32f4xx_hal_pccard.c ****   * @retval New status of the PCCARD operation. This parameter can be:
 858:/home/phong/Documents/thesis/stm32f4/stm-idf/components/stm32f4xx_hal_driver/stm32f4xx_hal_pccard.c ****   *          - CompactFlash_TIMEOUT_ERROR: when the previous operation generate 
 859:/home/phong/Documents/thesis/stm32f4/stm-idf/components/stm32f4xx_hal_driver/stm32f4xx_hal_pccard.c ****   *            a Timeout error
 860:/home/phong/Documents/thesis/stm32f4/stm-idf/components/stm32f4xx_hal_driver/stm32f4xx_hal_pccard.c ****   *          - CompactFlash_READY: when memory is ready for the next operation          
 861:/home/phong/Documents/thesis/stm32f4/stm-idf/components/stm32f4xx_hal_driver/stm32f4xx_hal_pccard.c ****   */
 862:/home/phong/Documents/thesis/stm32f4/stm-idf/components/stm32f4xx_hal_driver/stm32f4xx_hal_pccard.c **** HAL_PCCARD_StatusTypeDef HAL_PCCARD_GetStatus(PCCARD_HandleTypeDef *hpccard)
 863:/home/phong/Documents/thesis/stm32f4/stm-idf/components/stm32f4xx_hal_driver/stm32f4xx_hal_pccard.c **** {
 1006              		.loc 1 863 0
 1007              		.cfi_startproc
 1008              		@ args = 0, pretend = 0, frame = 0
 1009              		@ frame_needed = 0, uses_anonymous_args = 0
 1010              		@ link register save eliminated.
 1011              	.LVL103:
 864:/home/phong/Documents/thesis/stm32f4/stm-idf/components/stm32f4xx_hal_driver/stm32f4xx_hal_pccard.c ****   uint32_t timeout = PCCARD_TIMEOUT_STATUS, status_pccard = 0U;  
 865:/home/phong/Documents/thesis/stm32f4/stm-idf/components/stm32f4xx_hal_driver/stm32f4xx_hal_pccard.c ****   
 866:/home/phong/Documents/thesis/stm32f4/stm-idf/components/stm32f4xx_hal_driver/stm32f4xx_hal_pccard.c ****   /* Check the PCCARD controller state */
 867:/home/phong/Documents/thesis/stm32f4/stm-idf/components/stm32f4xx_hal_driver/stm32f4xx_hal_pccard.c ****   if(hpccard->State == HAL_PCCARD_STATE_BUSY)
 1012              		.loc 1 867 0
 1013 0000 037C     		ldrb	r3, [r0, #16]	@ zero_extendqisi2
 1014 0002 DBB2     		uxtb	r3, r3
 1015 0004 022B     		cmp	r3, #2
 1016 0006 10D0     		beq	.L98
 868:/home/phong/Documents/thesis/stm32f4/stm-idf/components/stm32f4xx_hal_driver/stm32f4xx_hal_pccard.c ****   {
 869:/home/phong/Documents/thesis/stm32f4/stm-idf/components/stm32f4xx_hal_driver/stm32f4xx_hal_pccard.c ****      return HAL_PCCARD_STATUS_ONGOING;
 870:/home/phong/Documents/thesis/stm32f4/stm-idf/components/stm32f4xx_hal_driver/stm32f4xx_hal_pccard.c ****   }
 871:/home/phong/Documents/thesis/stm32f4/stm-idf/components/stm32f4xx_hal_driver/stm32f4xx_hal_pccard.c **** 
 872:/home/phong/Documents/thesis/stm32f4/stm-idf/components/stm32f4xx_hal_driver/stm32f4xx_hal_pccard.c ****   status_pccard =  *(__IO uint8_t *)(PCCARD_IO_SPACE_PRIMARY_ADDR | ATA_STATUS_CMD_ALTERNATE);
 1017              		.loc 1 872 0
 1018 0008 094B     		ldr	r3, .L100
 1019 000a 1878     		ldrb	r0, [r3]	@ zero_extendqisi2
 1020              	.LVL104:
 1021 000c C0B2     		uxtb	r0, r0
 1022              	.LVL105:
 864:/home/phong/Documents/thesis/stm32f4/stm-idf/components/stm32f4xx_hal_driver/stm32f4xx_hal_pccard.c ****   uint32_t timeout = PCCARD_TIMEOUT_STATUS, status_pccard = 0U;  
 1023              		.loc 1 864 0
 1024 000e 4FF08073 		mov	r3, #16777216
 1025              	.LVL106:
 1026              	.L94:
 873:/home/phong/Documents/thesis/stm32f4/stm-idf/components/stm32f4xx_hal_driver/stm32f4xx_hal_pccard.c ****   
 874:/home/phong/Documents/thesis/stm32f4/stm-idf/components/stm32f4xx_hal_driver/stm32f4xx_hal_pccard.c ****   while((status_pccard == PCCARD_BUSY) && timeout)
ARM GAS  /tmp/ccV4nfVF.s 			page 35


 1027              		.loc 1 874 0
 1028 0012 8028     		cmp	r0, #128
 1029 0014 05D1     		bne	.L95
 1030              		.loc 1 874 0 is_stmt 0 discriminator 1
 1031 0016 23B1     		cbz	r3, .L95
 875:/home/phong/Documents/thesis/stm32f4/stm-idf/components/stm32f4xx_hal_driver/stm32f4xx_hal_pccard.c ****   {
 876:/home/phong/Documents/thesis/stm32f4/stm-idf/components/stm32f4xx_hal_driver/stm32f4xx_hal_pccard.c ****     status_pccard =  *(__IO uint8_t *)(PCCARD_IO_SPACE_PRIMARY_ADDR | ATA_STATUS_CMD_ALTERNATE);
 1032              		.loc 1 876 0 is_stmt 1
 1033 0018 054A     		ldr	r2, .L100
 1034 001a 1078     		ldrb	r0, [r2]	@ zero_extendqisi2
 1035              	.LVL107:
 1036 001c C0B2     		uxtb	r0, r0
 1037              	.LVL108:
 877:/home/phong/Documents/thesis/stm32f4/stm-idf/components/stm32f4xx_hal_driver/stm32f4xx_hal_pccard.c ****     timeout--;
 1038              		.loc 1 877 0
 1039 001e 013B     		subs	r3, r3, #1
 1040              	.LVL109:
 1041 0020 F7E7     		b	.L94
 1042              	.L95:
 878:/home/phong/Documents/thesis/stm32f4/stm-idf/components/stm32f4xx_hal_driver/stm32f4xx_hal_pccard.c ****   }
 879:/home/phong/Documents/thesis/stm32f4/stm-idf/components/stm32f4xx_hal_driver/stm32f4xx_hal_pccard.c **** 
 880:/home/phong/Documents/thesis/stm32f4/stm-idf/components/stm32f4xx_hal_driver/stm32f4xx_hal_pccard.c ****   if(timeout == 0U)
 1043              		.loc 1 880 0
 1044 0022 03B9     		cbnz	r3, .L97
 881:/home/phong/Documents/thesis/stm32f4/stm-idf/components/stm32f4xx_hal_driver/stm32f4xx_hal_pccard.c ****   {          
 882:/home/phong/Documents/thesis/stm32f4/stm-idf/components/stm32f4xx_hal_driver/stm32f4xx_hal_pccard.c ****     status_pccard =  PCCARD_TIMEOUT_ERROR;      
 1045              		.loc 1 882 0
 1046 0024 6020     		movs	r0, #96
 1047              	.LVL110:
 1048              	.L97:
 883:/home/phong/Documents/thesis/stm32f4/stm-idf/components/stm32f4xx_hal_driver/stm32f4xx_hal_pccard.c ****   }   
 884:/home/phong/Documents/thesis/stm32f4/stm-idf/components/stm32f4xx_hal_driver/stm32f4xx_hal_pccard.c **** 
 885:/home/phong/Documents/thesis/stm32f4/stm-idf/components/stm32f4xx_hal_driver/stm32f4xx_hal_pccard.c ****   /* Return the operation status */
 886:/home/phong/Documents/thesis/stm32f4/stm-idf/components/stm32f4xx_hal_driver/stm32f4xx_hal_pccard.c ****   return (HAL_PCCARD_StatusTypeDef) status_pccard;      
 1049              		.loc 1 886 0
 1050 0026 C0B2     		uxtb	r0, r0
 1051              	.LVL111:
 1052 0028 7047     		bx	lr
 1053              	.LVL112:
 1054              	.L98:
 869:/home/phong/Documents/thesis/stm32f4/stm-idf/components/stm32f4xx_hal_driver/stm32f4xx_hal_pccard.c ****   }
 1055              		.loc 1 869 0
 1056 002a 0120     		movs	r0, #1
 1057              	.LVL113:
 887:/home/phong/Documents/thesis/stm32f4/stm-idf/components/stm32f4xx_hal_driver/stm32f4xx_hal_pccard.c **** }
 1058              		.loc 1 887 0
 1059 002c 7047     		bx	lr
 1060              	.L101:
 1061 002e 00BF     		.align	2
 1062              	.L100:
 1063 0030 FE01009C 		.word	-1677721090
 1064              		.cfi_endproc
 1065              	.LFE142:
 1067              		.section	.text.HAL_PCCARD_ReadStatus,"ax",%progbits
 1068              		.align	1
 1069              		.global	HAL_PCCARD_ReadStatus
 1070              		.syntax unified
ARM GAS  /tmp/ccV4nfVF.s 			page 36


 1071              		.thumb
 1072              		.thumb_func
 1073              		.fpu fpv4-sp-d16
 1075              	HAL_PCCARD_ReadStatus:
 1076              	.LFB143:
 888:/home/phong/Documents/thesis/stm32f4/stm-idf/components/stm32f4xx_hal_driver/stm32f4xx_hal_pccard.c ****   
 889:/home/phong/Documents/thesis/stm32f4/stm-idf/components/stm32f4xx_hal_driver/stm32f4xx_hal_pccard.c **** /**
 890:/home/phong/Documents/thesis/stm32f4/stm-idf/components/stm32f4xx_hal_driver/stm32f4xx_hal_pccard.c ****   * @brief  Reads the Compact Flash memory status using the Read status command
 891:/home/phong/Documents/thesis/stm32f4/stm-idf/components/stm32f4xx_hal_driver/stm32f4xx_hal_pccard.c ****   * @param  hpccard pointer to a PCCARD_HandleTypeDef structure that contains
 892:/home/phong/Documents/thesis/stm32f4/stm-idf/components/stm32f4xx_hal_driver/stm32f4xx_hal_pccard.c ****   *                the configuration information for PCCARD module.      
 893:/home/phong/Documents/thesis/stm32f4/stm-idf/components/stm32f4xx_hal_driver/stm32f4xx_hal_pccard.c ****   * @retval The status of the Compact Flash memory. This parameter can be:
 894:/home/phong/Documents/thesis/stm32f4/stm-idf/components/stm32f4xx_hal_driver/stm32f4xx_hal_pccard.c ****   *          - CompactFlash_BUSY: when memory is busy
 895:/home/phong/Documents/thesis/stm32f4/stm-idf/components/stm32f4xx_hal_driver/stm32f4xx_hal_pccard.c ****   *          - CompactFlash_READY: when memory is ready for the next operation    
 896:/home/phong/Documents/thesis/stm32f4/stm-idf/components/stm32f4xx_hal_driver/stm32f4xx_hal_pccard.c ****   *          - CompactFlash_ERROR: when the previous operation generates error                
 897:/home/phong/Documents/thesis/stm32f4/stm-idf/components/stm32f4xx_hal_driver/stm32f4xx_hal_pccard.c ****   */
 898:/home/phong/Documents/thesis/stm32f4/stm-idf/components/stm32f4xx_hal_driver/stm32f4xx_hal_pccard.c **** HAL_PCCARD_StatusTypeDef HAL_PCCARD_ReadStatus(PCCARD_HandleTypeDef *hpccard)
 899:/home/phong/Documents/thesis/stm32f4/stm-idf/components/stm32f4xx_hal_driver/stm32f4xx_hal_pccard.c **** {
 1077              		.loc 1 899 0
 1078              		.cfi_startproc
 1079              		@ args = 0, pretend = 0, frame = 0
 1080              		@ frame_needed = 0, uses_anonymous_args = 0
 1081              		@ link register save eliminated.
 1082              	.LVL114:
 900:/home/phong/Documents/thesis/stm32f4/stm-idf/components/stm32f4xx_hal_driver/stm32f4xx_hal_pccard.c ****   uint8_t data = 0U, status_pccard = PCCARD_BUSY;
 901:/home/phong/Documents/thesis/stm32f4/stm-idf/components/stm32f4xx_hal_driver/stm32f4xx_hal_pccard.c ****   
 902:/home/phong/Documents/thesis/stm32f4/stm-idf/components/stm32f4xx_hal_driver/stm32f4xx_hal_pccard.c ****   /* Check the PCCARD controller state */
 903:/home/phong/Documents/thesis/stm32f4/stm-idf/components/stm32f4xx_hal_driver/stm32f4xx_hal_pccard.c ****   if(hpccard->State == HAL_PCCARD_STATE_BUSY)
 1083              		.loc 1 903 0
 1084 0000 037C     		ldrb	r3, [r0, #16]	@ zero_extendqisi2
 1085 0002 DBB2     		uxtb	r3, r3
 1086 0004 022B     		cmp	r3, #2
 1087 0006 0BD0     		beq	.L104
 904:/home/phong/Documents/thesis/stm32f4/stm-idf/components/stm32f4xx_hal_driver/stm32f4xx_hal_pccard.c ****   {
 905:/home/phong/Documents/thesis/stm32f4/stm-idf/components/stm32f4xx_hal_driver/stm32f4xx_hal_pccard.c ****      return HAL_PCCARD_STATUS_ONGOING;
 906:/home/phong/Documents/thesis/stm32f4/stm-idf/components/stm32f4xx_hal_driver/stm32f4xx_hal_pccard.c ****   } 
 907:/home/phong/Documents/thesis/stm32f4/stm-idf/components/stm32f4xx_hal_driver/stm32f4xx_hal_pccard.c **** 
 908:/home/phong/Documents/thesis/stm32f4/stm-idf/components/stm32f4xx_hal_driver/stm32f4xx_hal_pccard.c ****   /* Read status operation */
 909:/home/phong/Documents/thesis/stm32f4/stm-idf/components/stm32f4xx_hal_driver/stm32f4xx_hal_pccard.c ****   data =  *(__IO uint8_t *)(PCCARD_IO_SPACE_PRIMARY_ADDR | ATA_STATUS_CMD_ALTERNATE);
 1088              		.loc 1 909 0
 1089 0008 084B     		ldr	r3, .L107
 1090 000a 1B78     		ldrb	r3, [r3]	@ zero_extendqisi2
 1091 000c DBB2     		uxtb	r3, r3
 1092              	.LVL115:
 910:/home/phong/Documents/thesis/stm32f4/stm-idf/components/stm32f4xx_hal_driver/stm32f4xx_hal_pccard.c **** 
 911:/home/phong/Documents/thesis/stm32f4/stm-idf/components/stm32f4xx_hal_driver/stm32f4xx_hal_pccard.c ****   if((data & PCCARD_TIMEOUT_ERROR) == PCCARD_TIMEOUT_ERROR)
 1093              		.loc 1 911 0
 1094 000e 03F06002 		and	r2, r3, #96
 1095 0012 602A     		cmp	r2, #96
 1096 0014 06D0     		beq	.L105
 912:/home/phong/Documents/thesis/stm32f4/stm-idf/components/stm32f4xx_hal_driver/stm32f4xx_hal_pccard.c ****   {
 913:/home/phong/Documents/thesis/stm32f4/stm-idf/components/stm32f4xx_hal_driver/stm32f4xx_hal_pccard.c ****     status_pccard = PCCARD_TIMEOUT_ERROR;
 914:/home/phong/Documents/thesis/stm32f4/stm-idf/components/stm32f4xx_hal_driver/stm32f4xx_hal_pccard.c ****   } 
 915:/home/phong/Documents/thesis/stm32f4/stm-idf/components/stm32f4xx_hal_driver/stm32f4xx_hal_pccard.c ****   else if((data & PCCARD_READY) == PCCARD_READY)
 1097              		.loc 1 915 0
 1098 0016 13F0400F 		tst	r3, #64
 1099 001a 05D1     		bne	.L106
 900:/home/phong/Documents/thesis/stm32f4/stm-idf/components/stm32f4xx_hal_driver/stm32f4xx_hal_pccard.c ****   
ARM GAS  /tmp/ccV4nfVF.s 			page 37


 1100              		.loc 1 900 0
 1101 001c 8020     		movs	r0, #128
 1102              	.LVL116:
 1103 001e 7047     		bx	lr
 1104              	.LVL117:
 1105              	.L104:
 905:/home/phong/Documents/thesis/stm32f4/stm-idf/components/stm32f4xx_hal_driver/stm32f4xx_hal_pccard.c ****   } 
 1106              		.loc 1 905 0
 1107 0020 0120     		movs	r0, #1
 1108              	.LVL118:
 1109 0022 7047     		bx	lr
 1110              	.LVL119:
 1111              	.L105:
 913:/home/phong/Documents/thesis/stm32f4/stm-idf/components/stm32f4xx_hal_driver/stm32f4xx_hal_pccard.c ****   } 
 1112              		.loc 1 913 0
 1113 0024 6020     		movs	r0, #96
 1114              	.LVL120:
 1115 0026 7047     		bx	lr
 1116              	.LVL121:
 1117              	.L106:
 916:/home/phong/Documents/thesis/stm32f4/stm-idf/components/stm32f4xx_hal_driver/stm32f4xx_hal_pccard.c ****   {
 917:/home/phong/Documents/thesis/stm32f4/stm-idf/components/stm32f4xx_hal_driver/stm32f4xx_hal_pccard.c ****     status_pccard = PCCARD_READY;
 1118              		.loc 1 917 0
 1119 0028 4020     		movs	r0, #64
 1120              	.LVL122:
 918:/home/phong/Documents/thesis/stm32f4/stm-idf/components/stm32f4xx_hal_driver/stm32f4xx_hal_pccard.c ****   }
 919:/home/phong/Documents/thesis/stm32f4/stm-idf/components/stm32f4xx_hal_driver/stm32f4xx_hal_pccard.c ****   
 920:/home/phong/Documents/thesis/stm32f4/stm-idf/components/stm32f4xx_hal_driver/stm32f4xx_hal_pccard.c ****   return (HAL_PCCARD_StatusTypeDef) status_pccard;
 921:/home/phong/Documents/thesis/stm32f4/stm-idf/components/stm32f4xx_hal_driver/stm32f4xx_hal_pccard.c **** }  
 1121              		.loc 1 921 0
 1122 002a 7047     		bx	lr
 1123              	.L108:
 1124              		.align	2
 1125              	.L107:
 1126 002c FE01009C 		.word	-1677721090
 1127              		.cfi_endproc
 1128              	.LFE143:
 1130              		.text
 1131              	.Letext0:
 1132              		.file 2 "/home/phong/Documents/thesis/stm32f4/stm-idf/components/newlib/include/machine/_default_t
 1133              		.file 3 "/home/phong/Documents/thesis/stm32f4/stm-idf/components/newlib/include/sys/_stdint.h"
 1134              		.file 4 "/home/phong/Documents/thesis/stm32f4/stm-idf/components/cmsis/include/core_cm4.h"
 1135              		.file 5 "/home/phong/Documents/thesis/stm32f4/stm-idf/components/cmsis/device/stm32/stm32f4xx/incl
 1136              		.file 6 "/home/phong/Documents/thesis/stm32f4/stm-idf/components/cmsis/device/stm32/stm32f4xx/incl
 1137              		.file 7 "/home/phong/Documents/thesis/stm32f4/stm-idf/components/stm32f4xx_hal_driver/include/stm3
 1138              		.file 8 "/home/phong/Documents/thesis/stm32f4/stm-idf/components/stm32f4xx_hal_driver/include/stm3
 1139              		.file 9 "/home/phong/Documents/thesis/stm32f4/stm-idf/components/stm32f4xx_hal_driver/include/stm3
 1140              		.file 10 "/home/phong/Documents/thesis/stm32f4/stm-idf/components/stm32f4xx_hal_driver/include/stm
ARM GAS  /tmp/ccV4nfVF.s 			page 38

