ARM GAS  /tmp/ccAWIIBu.s 			page 1


   1              		.cpu cortex-m4
   2              		.eabi_attribute 27, 1
   3              		.eabi_attribute 28, 1
   4              		.eabi_attribute 20, 1
   5              		.eabi_attribute 21, 1
   6              		.eabi_attribute 23, 3
   7              		.eabi_attribute 24, 1
   8              		.eabi_attribute 25, 1
   9              		.eabi_attribute 26, 1
  10              		.eabi_attribute 30, 1
  11              		.eabi_attribute 34, 1
  12              		.eabi_attribute 18, 4
  13              		.file	"stm32f4xx_hal_dcmi_ex.c"
  14              		.text
  15              	.Ltext0:
  16              		.cfi_sections	.debug_frame
  17              		.section	.text.HAL_DCMI_Init,"ax",%progbits
  18              		.align	1
  19              		.global	HAL_DCMI_Init
  20              		.syntax unified
  21              		.thumb
  22              		.thumb_func
  23              		.fpu fpv4-sp-d16
  25              	HAL_DCMI_Init:
  26              	.LFB130:
  27              		.file 1 "/home/phong/Documents/thesis/stm32f4/stm-idf/components/stm32f4xx_hal_driver/stm32f4xx_ha
   1:/home/phong/Documents/thesis/stm32f4/stm-idf/components/stm32f4xx_hal_driver/stm32f4xx_hal_dcmi_ex.c **** /**
   2:/home/phong/Documents/thesis/stm32f4/stm-idf/components/stm32f4xx_hal_driver/stm32f4xx_hal_dcmi_ex.c ****   ******************************************************************************
   3:/home/phong/Documents/thesis/stm32f4/stm-idf/components/stm32f4xx_hal_driver/stm32f4xx_hal_dcmi_ex.c ****   * @file    stm32f4xx_hal_dcmi_ex.c
   4:/home/phong/Documents/thesis/stm32f4/stm-idf/components/stm32f4xx_hal_driver/stm32f4xx_hal_dcmi_ex.c ****   * @author  MCD Application Team
   5:/home/phong/Documents/thesis/stm32f4/stm-idf/components/stm32f4xx_hal_driver/stm32f4xx_hal_dcmi_ex.c ****   * @brief   DCMI Extension HAL module driver
   6:/home/phong/Documents/thesis/stm32f4/stm-idf/components/stm32f4xx_hal_driver/stm32f4xx_hal_dcmi_ex.c ****   *          This file provides firmware functions to manage the following
   7:/home/phong/Documents/thesis/stm32f4/stm-idf/components/stm32f4xx_hal_driver/stm32f4xx_hal_dcmi_ex.c ****   *          functionalities of DCMI extension peripheral:
   8:/home/phong/Documents/thesis/stm32f4/stm-idf/components/stm32f4xx_hal_driver/stm32f4xx_hal_dcmi_ex.c ****   *           + Extension features functions
   9:/home/phong/Documents/thesis/stm32f4/stm-idf/components/stm32f4xx_hal_driver/stm32f4xx_hal_dcmi_ex.c ****   *
  10:/home/phong/Documents/thesis/stm32f4/stm-idf/components/stm32f4xx_hal_driver/stm32f4xx_hal_dcmi_ex.c ****   @verbatim
  11:/home/phong/Documents/thesis/stm32f4/stm-idf/components/stm32f4xx_hal_driver/stm32f4xx_hal_dcmi_ex.c ****   ==============================================================================
  12:/home/phong/Documents/thesis/stm32f4/stm-idf/components/stm32f4xx_hal_driver/stm32f4xx_hal_dcmi_ex.c ****                ##### DCMI peripheral extension features  #####
  13:/home/phong/Documents/thesis/stm32f4/stm-idf/components/stm32f4xx_hal_driver/stm32f4xx_hal_dcmi_ex.c ****   ==============================================================================
  14:/home/phong/Documents/thesis/stm32f4/stm-idf/components/stm32f4xx_hal_driver/stm32f4xx_hal_dcmi_ex.c **** 
  15:/home/phong/Documents/thesis/stm32f4/stm-idf/components/stm32f4xx_hal_driver/stm32f4xx_hal_dcmi_ex.c ****   [..] Comparing to other previous devices, the DCMI interface for STM32F446xx 
  16:/home/phong/Documents/thesis/stm32f4/stm-idf/components/stm32f4xx_hal_driver/stm32f4xx_hal_dcmi_ex.c ****        devices contains the following additional features :
  17:/home/phong/Documents/thesis/stm32f4/stm-idf/components/stm32f4xx_hal_driver/stm32f4xx_hal_dcmi_ex.c **** 
  18:/home/phong/Documents/thesis/stm32f4/stm-idf/components/stm32f4xx_hal_driver/stm32f4xx_hal_dcmi_ex.c ****        (+) Support of Black and White cameras 
  19:/home/phong/Documents/thesis/stm32f4/stm-idf/components/stm32f4xx_hal_driver/stm32f4xx_hal_dcmi_ex.c **** 
  20:/home/phong/Documents/thesis/stm32f4/stm-idf/components/stm32f4xx_hal_driver/stm32f4xx_hal_dcmi_ex.c ****                      ##### How to use this driver #####
  21:/home/phong/Documents/thesis/stm32f4/stm-idf/components/stm32f4xx_hal_driver/stm32f4xx_hal_dcmi_ex.c ****   ==============================================================================
  22:/home/phong/Documents/thesis/stm32f4/stm-idf/components/stm32f4xx_hal_driver/stm32f4xx_hal_dcmi_ex.c ****   [..] This driver provides functions to manage the Black and White feature
  23:/home/phong/Documents/thesis/stm32f4/stm-idf/components/stm32f4xx_hal_driver/stm32f4xx_hal_dcmi_ex.c **** 
  24:/home/phong/Documents/thesis/stm32f4/stm-idf/components/stm32f4xx_hal_driver/stm32f4xx_hal_dcmi_ex.c ****   @endverbatim
  25:/home/phong/Documents/thesis/stm32f4/stm-idf/components/stm32f4xx_hal_driver/stm32f4xx_hal_dcmi_ex.c ****   ******************************************************************************
  26:/home/phong/Documents/thesis/stm32f4/stm-idf/components/stm32f4xx_hal_driver/stm32f4xx_hal_dcmi_ex.c ****   * @attention
  27:/home/phong/Documents/thesis/stm32f4/stm-idf/components/stm32f4xx_hal_driver/stm32f4xx_hal_dcmi_ex.c ****   *
  28:/home/phong/Documents/thesis/stm32f4/stm-idf/components/stm32f4xx_hal_driver/stm32f4xx_hal_dcmi_ex.c ****   * <h2><center>&copy; Copyright (c) 2017 STMicroelectronics.
  29:/home/phong/Documents/thesis/stm32f4/stm-idf/components/stm32f4xx_hal_driver/stm32f4xx_hal_dcmi_ex.c ****   * All rights reserved.</center></h2>
  30:/home/phong/Documents/thesis/stm32f4/stm-idf/components/stm32f4xx_hal_driver/stm32f4xx_hal_dcmi_ex.c ****   *
  31:/home/phong/Documents/thesis/stm32f4/stm-idf/components/stm32f4xx_hal_driver/stm32f4xx_hal_dcmi_ex.c ****   * This software component is licensed by ST under BSD 3-Clause license,
ARM GAS  /tmp/ccAWIIBu.s 			page 2


  32:/home/phong/Documents/thesis/stm32f4/stm-idf/components/stm32f4xx_hal_driver/stm32f4xx_hal_dcmi_ex.c ****   * the "License"; You may not use this file except in compliance with the
  33:/home/phong/Documents/thesis/stm32f4/stm-idf/components/stm32f4xx_hal_driver/stm32f4xx_hal_dcmi_ex.c ****   * License. You may obtain a copy of the License at:
  34:/home/phong/Documents/thesis/stm32f4/stm-idf/components/stm32f4xx_hal_driver/stm32f4xx_hal_dcmi_ex.c ****   *                        opensource.org/licenses/BSD-3-Clause
  35:/home/phong/Documents/thesis/stm32f4/stm-idf/components/stm32f4xx_hal_driver/stm32f4xx_hal_dcmi_ex.c ****   *
  36:/home/phong/Documents/thesis/stm32f4/stm-idf/components/stm32f4xx_hal_driver/stm32f4xx_hal_dcmi_ex.c ****   ******************************************************************************
  37:/home/phong/Documents/thesis/stm32f4/stm-idf/components/stm32f4xx_hal_driver/stm32f4xx_hal_dcmi_ex.c ****   */
  38:/home/phong/Documents/thesis/stm32f4/stm-idf/components/stm32f4xx_hal_driver/stm32f4xx_hal_dcmi_ex.c **** 
  39:/home/phong/Documents/thesis/stm32f4/stm-idf/components/stm32f4xx_hal_driver/stm32f4xx_hal_dcmi_ex.c **** /* Includes ------------------------------------------------------------------*/
  40:/home/phong/Documents/thesis/stm32f4/stm-idf/components/stm32f4xx_hal_driver/stm32f4xx_hal_dcmi_ex.c **** #include "stm32f4xx_hal.h"
  41:/home/phong/Documents/thesis/stm32f4/stm-idf/components/stm32f4xx_hal_driver/stm32f4xx_hal_dcmi_ex.c **** 
  42:/home/phong/Documents/thesis/stm32f4/stm-idf/components/stm32f4xx_hal_driver/stm32f4xx_hal_dcmi_ex.c **** /** @addtogroup STM32F4xx_HAL_Driver
  43:/home/phong/Documents/thesis/stm32f4/stm-idf/components/stm32f4xx_hal_driver/stm32f4xx_hal_dcmi_ex.c ****   * @{
  44:/home/phong/Documents/thesis/stm32f4/stm-idf/components/stm32f4xx_hal_driver/stm32f4xx_hal_dcmi_ex.c ****   */
  45:/home/phong/Documents/thesis/stm32f4/stm-idf/components/stm32f4xx_hal_driver/stm32f4xx_hal_dcmi_ex.c **** /** @defgroup DCMIEx DCMIEx
  46:/home/phong/Documents/thesis/stm32f4/stm-idf/components/stm32f4xx_hal_driver/stm32f4xx_hal_dcmi_ex.c ****   * @brief DCMI Extended HAL module driver
  47:/home/phong/Documents/thesis/stm32f4/stm-idf/components/stm32f4xx_hal_driver/stm32f4xx_hal_dcmi_ex.c ****   * @{
  48:/home/phong/Documents/thesis/stm32f4/stm-idf/components/stm32f4xx_hal_driver/stm32f4xx_hal_dcmi_ex.c ****   */
  49:/home/phong/Documents/thesis/stm32f4/stm-idf/components/stm32f4xx_hal_driver/stm32f4xx_hal_dcmi_ex.c **** 
  50:/home/phong/Documents/thesis/stm32f4/stm-idf/components/stm32f4xx_hal_driver/stm32f4xx_hal_dcmi_ex.c **** #ifdef HAL_DCMI_MODULE_ENABLED
  51:/home/phong/Documents/thesis/stm32f4/stm-idf/components/stm32f4xx_hal_driver/stm32f4xx_hal_dcmi_ex.c **** 
  52:/home/phong/Documents/thesis/stm32f4/stm-idf/components/stm32f4xx_hal_driver/stm32f4xx_hal_dcmi_ex.c **** #if defined(STM32F407xx) || defined(STM32F417xx) || defined(STM32F427xx) || defined(STM32F437xx) ||
  53:/home/phong/Documents/thesis/stm32f4/stm-idf/components/stm32f4xx_hal_driver/stm32f4xx_hal_dcmi_ex.c ****     defined(STM32F439xx) || defined(STM32F446xx) || defined(STM32F469xx) || defined(STM32F479xx)
  54:/home/phong/Documents/thesis/stm32f4/stm-idf/components/stm32f4xx_hal_driver/stm32f4xx_hal_dcmi_ex.c **** /* Private typedef -----------------------------------------------------------*/
  55:/home/phong/Documents/thesis/stm32f4/stm-idf/components/stm32f4xx_hal_driver/stm32f4xx_hal_dcmi_ex.c **** /* Private define ------------------------------------------------------------*/
  56:/home/phong/Documents/thesis/stm32f4/stm-idf/components/stm32f4xx_hal_driver/stm32f4xx_hal_dcmi_ex.c **** /* Private macro -------------------------------------------------------------*/
  57:/home/phong/Documents/thesis/stm32f4/stm-idf/components/stm32f4xx_hal_driver/stm32f4xx_hal_dcmi_ex.c **** /* Private variables ---------------------------------------------------------*/
  58:/home/phong/Documents/thesis/stm32f4/stm-idf/components/stm32f4xx_hal_driver/stm32f4xx_hal_dcmi_ex.c **** /* Private function prototypes -----------------------------------------------*/
  59:/home/phong/Documents/thesis/stm32f4/stm-idf/components/stm32f4xx_hal_driver/stm32f4xx_hal_dcmi_ex.c **** /* Exported functions --------------------------------------------------------*/
  60:/home/phong/Documents/thesis/stm32f4/stm-idf/components/stm32f4xx_hal_driver/stm32f4xx_hal_dcmi_ex.c **** 
  61:/home/phong/Documents/thesis/stm32f4/stm-idf/components/stm32f4xx_hal_driver/stm32f4xx_hal_dcmi_ex.c **** /** @defgroup DCMIEx_Exported_Functions DCMI Extended Exported Functions
  62:/home/phong/Documents/thesis/stm32f4/stm-idf/components/stm32f4xx_hal_driver/stm32f4xx_hal_dcmi_ex.c ****   * @{
  63:/home/phong/Documents/thesis/stm32f4/stm-idf/components/stm32f4xx_hal_driver/stm32f4xx_hal_dcmi_ex.c ****   */
  64:/home/phong/Documents/thesis/stm32f4/stm-idf/components/stm32f4xx_hal_driver/stm32f4xx_hal_dcmi_ex.c **** 
  65:/home/phong/Documents/thesis/stm32f4/stm-idf/components/stm32f4xx_hal_driver/stm32f4xx_hal_dcmi_ex.c **** /**
  66:/home/phong/Documents/thesis/stm32f4/stm-idf/components/stm32f4xx_hal_driver/stm32f4xx_hal_dcmi_ex.c ****   * @}
  67:/home/phong/Documents/thesis/stm32f4/stm-idf/components/stm32f4xx_hal_driver/stm32f4xx_hal_dcmi_ex.c ****   */
  68:/home/phong/Documents/thesis/stm32f4/stm-idf/components/stm32f4xx_hal_driver/stm32f4xx_hal_dcmi_ex.c **** 
  69:/home/phong/Documents/thesis/stm32f4/stm-idf/components/stm32f4xx_hal_driver/stm32f4xx_hal_dcmi_ex.c **** /** @addtogroup DCMI_Exported_Functions_Group1 Initialization and Configuration functions
  70:/home/phong/Documents/thesis/stm32f4/stm-idf/components/stm32f4xx_hal_driver/stm32f4xx_hal_dcmi_ex.c ****   * @{
  71:/home/phong/Documents/thesis/stm32f4/stm-idf/components/stm32f4xx_hal_driver/stm32f4xx_hal_dcmi_ex.c ****   */
  72:/home/phong/Documents/thesis/stm32f4/stm-idf/components/stm32f4xx_hal_driver/stm32f4xx_hal_dcmi_ex.c **** 
  73:/home/phong/Documents/thesis/stm32f4/stm-idf/components/stm32f4xx_hal_driver/stm32f4xx_hal_dcmi_ex.c **** /**
  74:/home/phong/Documents/thesis/stm32f4/stm-idf/components/stm32f4xx_hal_driver/stm32f4xx_hal_dcmi_ex.c ****   * @brief  Initializes the DCMI according to the specified
  75:/home/phong/Documents/thesis/stm32f4/stm-idf/components/stm32f4xx_hal_driver/stm32f4xx_hal_dcmi_ex.c ****   *         parameters in the DCMI_InitTypeDef and create the associated handle.
  76:/home/phong/Documents/thesis/stm32f4/stm-idf/components/stm32f4xx_hal_driver/stm32f4xx_hal_dcmi_ex.c ****   * @param  hdcmi pointer to a DCMI_HandleTypeDef structure that contains
  77:/home/phong/Documents/thesis/stm32f4/stm-idf/components/stm32f4xx_hal_driver/stm32f4xx_hal_dcmi_ex.c ****   *                the configuration information for DCMI.
  78:/home/phong/Documents/thesis/stm32f4/stm-idf/components/stm32f4xx_hal_driver/stm32f4xx_hal_dcmi_ex.c ****   * @retval HAL status
  79:/home/phong/Documents/thesis/stm32f4/stm-idf/components/stm32f4xx_hal_driver/stm32f4xx_hal_dcmi_ex.c ****   */
  80:/home/phong/Documents/thesis/stm32f4/stm-idf/components/stm32f4xx_hal_driver/stm32f4xx_hal_dcmi_ex.c **** HAL_StatusTypeDef HAL_DCMI_Init(DCMI_HandleTypeDef *hdcmi)
  81:/home/phong/Documents/thesis/stm32f4/stm-idf/components/stm32f4xx_hal_driver/stm32f4xx_hal_dcmi_ex.c **** {
  28              		.loc 1 81 0
  29              		.cfi_startproc
  30              		@ args = 0, pretend = 0, frame = 0
  31              		@ frame_needed = 0, uses_anonymous_args = 0
  32              	.LVL0:
  82:/home/phong/Documents/thesis/stm32f4/stm-idf/components/stm32f4xx_hal_driver/stm32f4xx_hal_dcmi_ex.c ****   /* Check the DCMI peripheral state */
  83:/home/phong/Documents/thesis/stm32f4/stm-idf/components/stm32f4xx_hal_driver/stm32f4xx_hal_dcmi_ex.c ****   if(hdcmi == NULL)
ARM GAS  /tmp/ccAWIIBu.s 			page 3


  33              		.loc 1 83 0
  34 0000 0028     		cmp	r0, #0
  35 0002 3DD0     		beq	.L5
  81:/home/phong/Documents/thesis/stm32f4/stm-idf/components/stm32f4xx_hal_driver/stm32f4xx_hal_dcmi_ex.c ****   /* Check the DCMI peripheral state */
  36              		.loc 1 81 0
  37 0004 10B5     		push	{r4, lr}
  38              	.LCFI0:
  39              		.cfi_def_cfa_offset 8
  40              		.cfi_offset 4, -8
  41              		.cfi_offset 14, -4
  42 0006 0446     		mov	r4, r0
  84:/home/phong/Documents/thesis/stm32f4/stm-idf/components/stm32f4xx_hal_driver/stm32f4xx_hal_dcmi_ex.c ****   {
  85:/home/phong/Documents/thesis/stm32f4/stm-idf/components/stm32f4xx_hal_driver/stm32f4xx_hal_dcmi_ex.c ****      return HAL_ERROR;
  86:/home/phong/Documents/thesis/stm32f4/stm-idf/components/stm32f4xx_hal_driver/stm32f4xx_hal_dcmi_ex.c ****   }
  87:/home/phong/Documents/thesis/stm32f4/stm-idf/components/stm32f4xx_hal_driver/stm32f4xx_hal_dcmi_ex.c **** 
  88:/home/phong/Documents/thesis/stm32f4/stm-idf/components/stm32f4xx_hal_driver/stm32f4xx_hal_dcmi_ex.c ****   /* Check function parameters */
  89:/home/phong/Documents/thesis/stm32f4/stm-idf/components/stm32f4xx_hal_driver/stm32f4xx_hal_dcmi_ex.c ****   assert_param(IS_DCMI_ALL_INSTANCE(hdcmi->Instance));
  90:/home/phong/Documents/thesis/stm32f4/stm-idf/components/stm32f4xx_hal_driver/stm32f4xx_hal_dcmi_ex.c ****   assert_param(IS_DCMI_PCKPOLARITY(hdcmi->Init.PCKPolarity));
  91:/home/phong/Documents/thesis/stm32f4/stm-idf/components/stm32f4xx_hal_driver/stm32f4xx_hal_dcmi_ex.c ****   assert_param(IS_DCMI_VSPOLARITY(hdcmi->Init.VSPolarity));
  92:/home/phong/Documents/thesis/stm32f4/stm-idf/components/stm32f4xx_hal_driver/stm32f4xx_hal_dcmi_ex.c ****   assert_param(IS_DCMI_HSPOLARITY(hdcmi->Init.HSPolarity));
  93:/home/phong/Documents/thesis/stm32f4/stm-idf/components/stm32f4xx_hal_driver/stm32f4xx_hal_dcmi_ex.c ****   assert_param(IS_DCMI_SYNCHRO(hdcmi->Init.SynchroMode));
  94:/home/phong/Documents/thesis/stm32f4/stm-idf/components/stm32f4xx_hal_driver/stm32f4xx_hal_dcmi_ex.c ****   assert_param(IS_DCMI_CAPTURE_RATE(hdcmi->Init.CaptureRate));
  95:/home/phong/Documents/thesis/stm32f4/stm-idf/components/stm32f4xx_hal_driver/stm32f4xx_hal_dcmi_ex.c ****   assert_param(IS_DCMI_EXTENDED_DATA(hdcmi->Init.ExtendedDataMode));
  96:/home/phong/Documents/thesis/stm32f4/stm-idf/components/stm32f4xx_hal_driver/stm32f4xx_hal_dcmi_ex.c ****   assert_param(IS_DCMI_MODE_JPEG(hdcmi->Init.JPEGMode));
  97:/home/phong/Documents/thesis/stm32f4/stm-idf/components/stm32f4xx_hal_driver/stm32f4xx_hal_dcmi_ex.c **** #if defined(STM32F446xx) || defined(STM32F469xx) || defined(STM32F479xx)
  98:/home/phong/Documents/thesis/stm32f4/stm-idf/components/stm32f4xx_hal_driver/stm32f4xx_hal_dcmi_ex.c ****   assert_param(IS_DCMI_BYTE_SELECT_MODE(hdcmi->Init.ByteSelectMode));
  99:/home/phong/Documents/thesis/stm32f4/stm-idf/components/stm32f4xx_hal_driver/stm32f4xx_hal_dcmi_ex.c ****   assert_param(IS_DCMI_BYTE_SELECT_START(hdcmi->Init.ByteSelectStart));
 100:/home/phong/Documents/thesis/stm32f4/stm-idf/components/stm32f4xx_hal_driver/stm32f4xx_hal_dcmi_ex.c ****   assert_param(IS_DCMI_LINE_SELECT_MODE(hdcmi->Init.LineSelectMode));
 101:/home/phong/Documents/thesis/stm32f4/stm-idf/components/stm32f4xx_hal_driver/stm32f4xx_hal_dcmi_ex.c ****   assert_param(IS_DCMI_LINE_SELECT_START(hdcmi->Init.LineSelectStart));
 102:/home/phong/Documents/thesis/stm32f4/stm-idf/components/stm32f4xx_hal_driver/stm32f4xx_hal_dcmi_ex.c **** #endif /* STM32F446xx || STM32F469xx || STM32F479xx */
 103:/home/phong/Documents/thesis/stm32f4/stm-idf/components/stm32f4xx_hal_driver/stm32f4xx_hal_dcmi_ex.c ****   if(hdcmi->State == HAL_DCMI_STATE_RESET)
  43              		.loc 1 103 0
  44 0008 90F82530 		ldrb	r3, [r0, #37]	@ zero_extendqisi2
  45 000c 43B3     		cbz	r3, .L10
  46              	.LVL1:
  47              	.L3:
 104:/home/phong/Documents/thesis/stm32f4/stm-idf/components/stm32f4xx_hal_driver/stm32f4xx_hal_dcmi_ex.c ****   {
 105:/home/phong/Documents/thesis/stm32f4/stm-idf/components/stm32f4xx_hal_driver/stm32f4xx_hal_dcmi_ex.c ****     /* Init the low level hardware */
 106:/home/phong/Documents/thesis/stm32f4/stm-idf/components/stm32f4xx_hal_driver/stm32f4xx_hal_dcmi_ex.c ****     HAL_DCMI_MspInit(hdcmi);
 107:/home/phong/Documents/thesis/stm32f4/stm-idf/components/stm32f4xx_hal_driver/stm32f4xx_hal_dcmi_ex.c ****   }
 108:/home/phong/Documents/thesis/stm32f4/stm-idf/components/stm32f4xx_hal_driver/stm32f4xx_hal_dcmi_ex.c **** 
 109:/home/phong/Documents/thesis/stm32f4/stm-idf/components/stm32f4xx_hal_driver/stm32f4xx_hal_dcmi_ex.c ****   /* Change the DCMI state */
 110:/home/phong/Documents/thesis/stm32f4/stm-idf/components/stm32f4xx_hal_driver/stm32f4xx_hal_dcmi_ex.c ****   hdcmi->State = HAL_DCMI_STATE_BUSY;
  48              		.loc 1 110 0
  49 000e 0223     		movs	r3, #2
  50 0010 84F82530 		strb	r3, [r4, #37]
 111:/home/phong/Documents/thesis/stm32f4/stm-idf/components/stm32f4xx_hal_driver/stm32f4xx_hal_dcmi_ex.c ****                           /* Configures the HS, VS, DE and PC polarity */
 112:/home/phong/Documents/thesis/stm32f4/stm-idf/components/stm32f4xx_hal_driver/stm32f4xx_hal_dcmi_ex.c ****   hdcmi->Instance->CR &= ~(DCMI_CR_PCKPOL | DCMI_CR_HSPOL  | DCMI_CR_VSPOL  | DCMI_CR_EDM_0 |\
  51              		.loc 1 112 0
  52 0014 2268     		ldr	r2, [r4]
  53 0016 1368     		ldr	r3, [r2]
  54 0018 23F47F63 		bic	r3, r3, #4080
  55 001c 23F00803 		bic	r3, r3, #8
  56 0020 1360     		str	r3, [r2]
 113:/home/phong/Documents/thesis/stm32f4/stm-idf/components/stm32f4xx_hal_driver/stm32f4xx_hal_dcmi_ex.c ****                            DCMI_CR_EDM_1  | DCMI_CR_FCRC_0 | DCMI_CR_FCRC_1 | DCMI_CR_JPEG  |\
 114:/home/phong/Documents/thesis/stm32f4/stm-idf/components/stm32f4xx_hal_driver/stm32f4xx_hal_dcmi_ex.c ****                            DCMI_CR_ESS
 115:/home/phong/Documents/thesis/stm32f4/stm-idf/components/stm32f4xx_hal_driver/stm32f4xx_hal_dcmi_ex.c **** #if defined(STM32F446xx) || defined(STM32F469xx) || defined(STM32F479xx)
ARM GAS  /tmp/ccAWIIBu.s 			page 4


 116:/home/phong/Documents/thesis/stm32f4/stm-idf/components/stm32f4xx_hal_driver/stm32f4xx_hal_dcmi_ex.c ****                            | DCMI_CR_BSM_0 | DCMI_CR_BSM_1 | DCMI_CR_OEBS |\
 117:/home/phong/Documents/thesis/stm32f4/stm-idf/components/stm32f4xx_hal_driver/stm32f4xx_hal_dcmi_ex.c ****                            DCMI_CR_LSM | DCMI_CR_OELS
 118:/home/phong/Documents/thesis/stm32f4/stm-idf/components/stm32f4xx_hal_driver/stm32f4xx_hal_dcmi_ex.c **** #endif /* STM32F446xx || STM32F469xx || STM32F479xx */
 119:/home/phong/Documents/thesis/stm32f4/stm-idf/components/stm32f4xx_hal_driver/stm32f4xx_hal_dcmi_ex.c ****                            );
 120:/home/phong/Documents/thesis/stm32f4/stm-idf/components/stm32f4xx_hal_driver/stm32f4xx_hal_dcmi_ex.c ****   hdcmi->Instance->CR |=  (uint32_t)(hdcmi->Init.SynchroMode | hdcmi->Init.CaptureRate |\
  57              		.loc 1 120 0
  58 0022 2168     		ldr	r1, [r4]
  59 0024 0A68     		ldr	r2, [r1]
  60 0026 6368     		ldr	r3, [r4, #4]
  61 0028 6069     		ldr	r0, [r4, #20]
  62 002a 0343     		orrs	r3, r3, r0
 121:/home/phong/Documents/thesis/stm32f4/stm-idf/components/stm32f4xx_hal_driver/stm32f4xx_hal_dcmi_ex.c ****                                      hdcmi->Init.VSPolarity  | hdcmi->Init.HSPolarity  |\
  63              		.loc 1 121 0
  64 002c E068     		ldr	r0, [r4, #12]
 120:/home/phong/Documents/thesis/stm32f4/stm-idf/components/stm32f4xx_hal_driver/stm32f4xx_hal_dcmi_ex.c ****                                      hdcmi->Init.VSPolarity  | hdcmi->Init.HSPolarity  |\
  65              		.loc 1 120 0
  66 002e 0343     		orrs	r3, r3, r0
  67              		.loc 1 121 0
  68 0030 2069     		ldr	r0, [r4, #16]
  69 0032 0343     		orrs	r3, r3, r0
 122:/home/phong/Documents/thesis/stm32f4/stm-idf/components/stm32f4xx_hal_driver/stm32f4xx_hal_dcmi_ex.c ****                                      hdcmi->Init.PCKPolarity | hdcmi->Init.ExtendedDataMode |\
  70              		.loc 1 122 0
  71 0034 A068     		ldr	r0, [r4, #8]
 121:/home/phong/Documents/thesis/stm32f4/stm-idf/components/stm32f4xx_hal_driver/stm32f4xx_hal_dcmi_ex.c ****                                      hdcmi->Init.VSPolarity  | hdcmi->Init.HSPolarity  |\
  72              		.loc 1 121 0
  73 0036 0343     		orrs	r3, r3, r0
  74              		.loc 1 122 0
  75 0038 A069     		ldr	r0, [r4, #24]
  76 003a 0343     		orrs	r3, r3, r0
 123:/home/phong/Documents/thesis/stm32f4/stm-idf/components/stm32f4xx_hal_driver/stm32f4xx_hal_dcmi_ex.c ****                                      hdcmi->Init.JPEGMode 
  77              		.loc 1 123 0
  78 003c 206A     		ldr	r0, [r4, #32]
 122:/home/phong/Documents/thesis/stm32f4/stm-idf/components/stm32f4xx_hal_driver/stm32f4xx_hal_dcmi_ex.c ****                                      hdcmi->Init.PCKPolarity | hdcmi->Init.ExtendedDataMode |\
  79              		.loc 1 122 0
  80 003e 0343     		orrs	r3, r3, r0
 120:/home/phong/Documents/thesis/stm32f4/stm-idf/components/stm32f4xx_hal_driver/stm32f4xx_hal_dcmi_ex.c ****                                      hdcmi->Init.VSPolarity  | hdcmi->Init.HSPolarity  |\
  81              		.loc 1 120 0
  82 0040 1343     		orrs	r3, r3, r2
  83 0042 0B60     		str	r3, [r1]
 124:/home/phong/Documents/thesis/stm32f4/stm-idf/components/stm32f4xx_hal_driver/stm32f4xx_hal_dcmi_ex.c **** #if defined(STM32F446xx) || defined(STM32F469xx) || defined(STM32F479xx)
 125:/home/phong/Documents/thesis/stm32f4/stm-idf/components/stm32f4xx_hal_driver/stm32f4xx_hal_dcmi_ex.c ****                                      | hdcmi->Init.ByteSelectMode |\
 126:/home/phong/Documents/thesis/stm32f4/stm-idf/components/stm32f4xx_hal_driver/stm32f4xx_hal_dcmi_ex.c ****                                      hdcmi->Init.ByteSelectStart | hdcmi->Init.LineSelectMode |\
 127:/home/phong/Documents/thesis/stm32f4/stm-idf/components/stm32f4xx_hal_driver/stm32f4xx_hal_dcmi_ex.c ****                                      hdcmi->Init.LineSelectStart
 128:/home/phong/Documents/thesis/stm32f4/stm-idf/components/stm32f4xx_hal_driver/stm32f4xx_hal_dcmi_ex.c **** #endif /* STM32F446xx || STM32F469xx || STM32F479xx */
 129:/home/phong/Documents/thesis/stm32f4/stm-idf/components/stm32f4xx_hal_driver/stm32f4xx_hal_dcmi_ex.c ****                                      );
 130:/home/phong/Documents/thesis/stm32f4/stm-idf/components/stm32f4xx_hal_driver/stm32f4xx_hal_dcmi_ex.c ****   if(hdcmi->Init.SynchroMode == DCMI_SYNCHRO_EMBEDDED)
  84              		.loc 1 130 0
  85 0044 6368     		ldr	r3, [r4, #4]
  86 0046 102B     		cmp	r3, #16
  87 0048 0DD0     		beq	.L11
  88              	.L4:
 131:/home/phong/Documents/thesis/stm32f4/stm-idf/components/stm32f4xx_hal_driver/stm32f4xx_hal_dcmi_ex.c ****   {
 132:/home/phong/Documents/thesis/stm32f4/stm-idf/components/stm32f4xx_hal_driver/stm32f4xx_hal_dcmi_ex.c ****     hdcmi->Instance->ESCR = (((uint32_t)hdcmi->Init.SyncroCode.FrameStartCode)    |
 133:/home/phong/Documents/thesis/stm32f4/stm-idf/components/stm32f4xx_hal_driver/stm32f4xx_hal_dcmi_ex.c ****                              ((uint32_t)hdcmi->Init.SyncroCode.LineStartCode << DCMI_POSITION_ESCR_
 134:/home/phong/Documents/thesis/stm32f4/stm-idf/components/stm32f4xx_hal_driver/stm32f4xx_hal_dcmi_ex.c ****                              ((uint32_t)hdcmi->Init.SyncroCode.LineEndCode << DCMI_POSITION_ESCR_LE
 135:/home/phong/Documents/thesis/stm32f4/stm-idf/components/stm32f4xx_hal_driver/stm32f4xx_hal_dcmi_ex.c ****                              ((uint32_t)hdcmi->Init.SyncroCode.FrameEndCode << DCMI_POSITION_ESCR_F
 136:/home/phong/Documents/thesis/stm32f4/stm-idf/components/stm32f4xx_hal_driver/stm32f4xx_hal_dcmi_ex.c **** 
ARM GAS  /tmp/ccAWIIBu.s 			page 5


 137:/home/phong/Documents/thesis/stm32f4/stm-idf/components/stm32f4xx_hal_driver/stm32f4xx_hal_dcmi_ex.c ****   }
 138:/home/phong/Documents/thesis/stm32f4/stm-idf/components/stm32f4xx_hal_driver/stm32f4xx_hal_dcmi_ex.c **** 
 139:/home/phong/Documents/thesis/stm32f4/stm-idf/components/stm32f4xx_hal_driver/stm32f4xx_hal_dcmi_ex.c ****   /* Enable the Line, Vsync, Error and Overrun interrupts */
 140:/home/phong/Documents/thesis/stm32f4/stm-idf/components/stm32f4xx_hal_driver/stm32f4xx_hal_dcmi_ex.c ****   __HAL_DCMI_ENABLE_IT(hdcmi, DCMI_IT_LINE | DCMI_IT_VSYNC | DCMI_IT_ERR | DCMI_IT_OVR);
  89              		.loc 1 140 0
  90 004a 2268     		ldr	r2, [r4]
  91 004c D368     		ldr	r3, [r2, #12]
  92 004e 43F01E03 		orr	r3, r3, #30
  93 0052 D360     		str	r3, [r2, #12]
 141:/home/phong/Documents/thesis/stm32f4/stm-idf/components/stm32f4xx_hal_driver/stm32f4xx_hal_dcmi_ex.c **** 
 142:/home/phong/Documents/thesis/stm32f4/stm-idf/components/stm32f4xx_hal_driver/stm32f4xx_hal_dcmi_ex.c ****   /* Update error code */
 143:/home/phong/Documents/thesis/stm32f4/stm-idf/components/stm32f4xx_hal_driver/stm32f4xx_hal_dcmi_ex.c ****   hdcmi->ErrorCode = HAL_DCMI_ERROR_NONE;
  94              		.loc 1 143 0
  95 0054 0020     		movs	r0, #0
  96 0056 E063     		str	r0, [r4, #60]
 144:/home/phong/Documents/thesis/stm32f4/stm-idf/components/stm32f4xx_hal_driver/stm32f4xx_hal_dcmi_ex.c **** 
 145:/home/phong/Documents/thesis/stm32f4/stm-idf/components/stm32f4xx_hal_driver/stm32f4xx_hal_dcmi_ex.c ****   /* Initialize the DCMI state*/
 146:/home/phong/Documents/thesis/stm32f4/stm-idf/components/stm32f4xx_hal_driver/stm32f4xx_hal_dcmi_ex.c ****   hdcmi->State  = HAL_DCMI_STATE_READY;
  97              		.loc 1 146 0
  98 0058 0123     		movs	r3, #1
  99 005a 84F82530 		strb	r3, [r4, #37]
 147:/home/phong/Documents/thesis/stm32f4/stm-idf/components/stm32f4xx_hal_driver/stm32f4xx_hal_dcmi_ex.c **** 
 148:/home/phong/Documents/thesis/stm32f4/stm-idf/components/stm32f4xx_hal_driver/stm32f4xx_hal_dcmi_ex.c ****   return HAL_OK;
 100              		.loc 1 148 0
 101 005e 10BD     		pop	{r4, pc}
 102              	.LVL2:
 103              	.L10:
 106:/home/phong/Documents/thesis/stm32f4/stm-idf/components/stm32f4xx_hal_driver/stm32f4xx_hal_dcmi_ex.c ****   }
 104              		.loc 1 106 0
 105 0060 FFF7FEFF 		bl	HAL_DCMI_MspInit
 106              	.LVL3:
 107 0064 D3E7     		b	.L3
 108              	.L11:
 132:/home/phong/Documents/thesis/stm32f4/stm-idf/components/stm32f4xx_hal_driver/stm32f4xx_hal_dcmi_ex.c ****                              ((uint32_t)hdcmi->Init.SyncroCode.LineStartCode << DCMI_POSITION_ESCR_
 109              		.loc 1 132 0
 110 0066 2268     		ldr	r2, [r4]
 111 0068 237F     		ldrb	r3, [r4, #28]	@ zero_extendqisi2
 133:/home/phong/Documents/thesis/stm32f4/stm-idf/components/stm32f4xx_hal_driver/stm32f4xx_hal_dcmi_ex.c ****                              ((uint32_t)hdcmi->Init.SyncroCode.LineEndCode << DCMI_POSITION_ESCR_LE
 112              		.loc 1 133 0
 113 006a 617F     		ldrb	r1, [r4, #29]	@ zero_extendqisi2
 132:/home/phong/Documents/thesis/stm32f4/stm-idf/components/stm32f4xx_hal_driver/stm32f4xx_hal_dcmi_ex.c ****                              ((uint32_t)hdcmi->Init.SyncroCode.LineStartCode << DCMI_POSITION_ESCR_
 114              		.loc 1 132 0
 115 006c 43EA0123 		orr	r3, r3, r1, lsl #8
 134:/home/phong/Documents/thesis/stm32f4/stm-idf/components/stm32f4xx_hal_driver/stm32f4xx_hal_dcmi_ex.c ****                              ((uint32_t)hdcmi->Init.SyncroCode.FrameEndCode << DCMI_POSITION_ESCR_F
 116              		.loc 1 134 0
 117 0070 A17F     		ldrb	r1, [r4, #30]	@ zero_extendqisi2
 133:/home/phong/Documents/thesis/stm32f4/stm-idf/components/stm32f4xx_hal_driver/stm32f4xx_hal_dcmi_ex.c ****                              ((uint32_t)hdcmi->Init.SyncroCode.LineEndCode << DCMI_POSITION_ESCR_LE
 118              		.loc 1 133 0
 119 0072 43EA0143 		orr	r3, r3, r1, lsl #16
 135:/home/phong/Documents/thesis/stm32f4/stm-idf/components/stm32f4xx_hal_driver/stm32f4xx_hal_dcmi_ex.c **** 
 120              		.loc 1 135 0
 121 0076 E17F     		ldrb	r1, [r4, #31]	@ zero_extendqisi2
 134:/home/phong/Documents/thesis/stm32f4/stm-idf/components/stm32f4xx_hal_driver/stm32f4xx_hal_dcmi_ex.c ****                              ((uint32_t)hdcmi->Init.SyncroCode.FrameEndCode << DCMI_POSITION_ESCR_F
 122              		.loc 1 134 0
 123 0078 43EA0163 		orr	r3, r3, r1, lsl #24
 132:/home/phong/Documents/thesis/stm32f4/stm-idf/components/stm32f4xx_hal_driver/stm32f4xx_hal_dcmi_ex.c ****                              ((uint32_t)hdcmi->Init.SyncroCode.LineStartCode << DCMI_POSITION_ESCR_
 124              		.loc 1 132 0
ARM GAS  /tmp/ccAWIIBu.s 			page 6


 125 007c 9361     		str	r3, [r2, #24]
 126 007e E4E7     		b	.L4
 127              	.LVL4:
 128              	.L5:
 129              	.LCFI1:
 130              		.cfi_def_cfa_offset 0
 131              		.cfi_restore 4
 132              		.cfi_restore 14
  85:/home/phong/Documents/thesis/stm32f4/stm-idf/components/stm32f4xx_hal_driver/stm32f4xx_hal_dcmi_ex.c ****   }
 133              		.loc 1 85 0
 134 0080 0120     		movs	r0, #1
 135              	.LVL5:
 136 0082 7047     		bx	lr
 137              		.cfi_endproc
 138              	.LFE130:
 140              		.text
 141              	.Letext0:
 142              		.file 2 "/home/phong/Documents/thesis/stm32f4/stm-idf/components/newlib/include/machine/_default_t
 143              		.file 3 "/home/phong/Documents/thesis/stm32f4/stm-idf/components/newlib/include/sys/_stdint.h"
 144              		.file 4 "/home/phong/Documents/thesis/stm32f4/stm-idf/components/cmsis/include/core_cm4.h"
 145              		.file 5 "/home/phong/Documents/thesis/stm32f4/stm-idf/components/cmsis/device/stm32/stm32f4xx/incl
 146              		.file 6 "/home/phong/Documents/thesis/stm32f4/stm-idf/components/cmsis/device/stm32/stm32f4xx/incl
 147              		.file 7 "/home/phong/Documents/thesis/stm32f4/stm-idf/components/stm32f4xx_hal_driver/include/stm3
 148              		.file 8 "/home/phong/Documents/thesis/stm32f4/stm-idf/components/stm32f4xx_hal_driver/include/stm3
 149              		.file 9 "/home/phong/Documents/thesis/stm32f4/stm-idf/components/stm32f4xx_hal_driver/include/stm3
 150              		.file 10 "/home/phong/Documents/thesis/stm32f4/stm-idf/components/stm32f4xx_hal_driver/include/stm
 151              		.file 11 "/home/phong/Documents/thesis/stm32f4/stm-idf/components/stm32f4xx_hal_driver/include/stm
ARM GAS  /tmp/ccAWIIBu.s 			page 7

