ARM GAS  /tmp/ccYos3sw.s 			page 1


   1              		.cpu cortex-m4
   2              		.eabi_attribute 27, 1
   3              		.eabi_attribute 28, 1
   4              		.eabi_attribute 20, 1
   5              		.eabi_attribute 21, 1
   6              		.eabi_attribute 23, 3
   7              		.eabi_attribute 24, 1
   8              		.eabi_attribute 25, 1
   9              		.eabi_attribute 26, 1
  10              		.eabi_attribute 30, 1
  11              		.eabi_attribute 34, 1
  12              		.eabi_attribute 18, 4
  13              		.file	"stm32f4xx_hal_rcc.c"
  14              		.text
  15              	.Ltext0:
  16              		.cfi_sections	.debug_frame
  17              		.section	.text.HAL_RCC_DeInit,"ax",%progbits
  18              		.align	1
  19              		.weak	HAL_RCC_DeInit
  20              		.syntax unified
  21              		.thumb
  22              		.thumb_func
  23              		.fpu fpv4-sp-d16
  25              	HAL_RCC_DeInit:
  26              	.LFB130:
  27              		.file 1 "/home/phong/Documents/thesis/stm32f4/stm-idf/components/stm32f4xx_hal_driver/stm32f4xx_ha
   1:/home/phong/Documents/thesis/stm32f4/stm-idf/components/stm32f4xx_hal_driver/stm32f4xx_hal_rcc.c **** /**
   2:/home/phong/Documents/thesis/stm32f4/stm-idf/components/stm32f4xx_hal_driver/stm32f4xx_hal_rcc.c ****   ******************************************************************************
   3:/home/phong/Documents/thesis/stm32f4/stm-idf/components/stm32f4xx_hal_driver/stm32f4xx_hal_rcc.c ****   * @file    stm32f4xx_hal_rcc.c
   4:/home/phong/Documents/thesis/stm32f4/stm-idf/components/stm32f4xx_hal_driver/stm32f4xx_hal_rcc.c ****   * @author  MCD Application Team
   5:/home/phong/Documents/thesis/stm32f4/stm-idf/components/stm32f4xx_hal_driver/stm32f4xx_hal_rcc.c ****   * @brief   RCC HAL module driver.
   6:/home/phong/Documents/thesis/stm32f4/stm-idf/components/stm32f4xx_hal_driver/stm32f4xx_hal_rcc.c ****   *          This file provides firmware functions to manage the following
   7:/home/phong/Documents/thesis/stm32f4/stm-idf/components/stm32f4xx_hal_driver/stm32f4xx_hal_rcc.c ****   *          functionalities of the Reset and Clock Control (RCC) peripheral:
   8:/home/phong/Documents/thesis/stm32f4/stm-idf/components/stm32f4xx_hal_driver/stm32f4xx_hal_rcc.c ****   *           + Initialization and de-initialization functions
   9:/home/phong/Documents/thesis/stm32f4/stm-idf/components/stm32f4xx_hal_driver/stm32f4xx_hal_rcc.c ****   *           + Peripheral Control functions
  10:/home/phong/Documents/thesis/stm32f4/stm-idf/components/stm32f4xx_hal_driver/stm32f4xx_hal_rcc.c ****   *
  11:/home/phong/Documents/thesis/stm32f4/stm-idf/components/stm32f4xx_hal_driver/stm32f4xx_hal_rcc.c ****   @verbatim
  12:/home/phong/Documents/thesis/stm32f4/stm-idf/components/stm32f4xx_hal_driver/stm32f4xx_hal_rcc.c ****   ==============================================================================
  13:/home/phong/Documents/thesis/stm32f4/stm-idf/components/stm32f4xx_hal_driver/stm32f4xx_hal_rcc.c ****                       ##### RCC specific features #####
  14:/home/phong/Documents/thesis/stm32f4/stm-idf/components/stm32f4xx_hal_driver/stm32f4xx_hal_rcc.c ****   ==============================================================================
  15:/home/phong/Documents/thesis/stm32f4/stm-idf/components/stm32f4xx_hal_driver/stm32f4xx_hal_rcc.c ****     [..]
  16:/home/phong/Documents/thesis/stm32f4/stm-idf/components/stm32f4xx_hal_driver/stm32f4xx_hal_rcc.c ****       After reset the device is running from Internal High Speed oscillator
  17:/home/phong/Documents/thesis/stm32f4/stm-idf/components/stm32f4xx_hal_driver/stm32f4xx_hal_rcc.c ****       (HSI 16MHz) with Flash 0 wait state, Flash prefetch buffer, D-Cache
  18:/home/phong/Documents/thesis/stm32f4/stm-idf/components/stm32f4xx_hal_driver/stm32f4xx_hal_rcc.c ****       and I-Cache are disabled, and all peripherals are off except internal
  19:/home/phong/Documents/thesis/stm32f4/stm-idf/components/stm32f4xx_hal_driver/stm32f4xx_hal_rcc.c ****       SRAM, Flash and JTAG.
  20:/home/phong/Documents/thesis/stm32f4/stm-idf/components/stm32f4xx_hal_driver/stm32f4xx_hal_rcc.c ****       (+) There is no prescaler on High speed (AHB) and Low speed (APB) busses;
  21:/home/phong/Documents/thesis/stm32f4/stm-idf/components/stm32f4xx_hal_driver/stm32f4xx_hal_rcc.c ****           all peripherals mapped on these busses are running at HSI speed.
  22:/home/phong/Documents/thesis/stm32f4/stm-idf/components/stm32f4xx_hal_driver/stm32f4xx_hal_rcc.c ****       (+) The clock for all peripherals is switched off, except the SRAM and FLASH.
  23:/home/phong/Documents/thesis/stm32f4/stm-idf/components/stm32f4xx_hal_driver/stm32f4xx_hal_rcc.c ****       (+) All GPIOs are in input floating state, except the JTAG pins which
  24:/home/phong/Documents/thesis/stm32f4/stm-idf/components/stm32f4xx_hal_driver/stm32f4xx_hal_rcc.c ****           are assigned to be used for debug purpose.
  25:/home/phong/Documents/thesis/stm32f4/stm-idf/components/stm32f4xx_hal_driver/stm32f4xx_hal_rcc.c **** 
  26:/home/phong/Documents/thesis/stm32f4/stm-idf/components/stm32f4xx_hal_driver/stm32f4xx_hal_rcc.c ****     [..]
  27:/home/phong/Documents/thesis/stm32f4/stm-idf/components/stm32f4xx_hal_driver/stm32f4xx_hal_rcc.c ****       Once the device started from reset, the user application has to:
  28:/home/phong/Documents/thesis/stm32f4/stm-idf/components/stm32f4xx_hal_driver/stm32f4xx_hal_rcc.c ****       (+) Configure the clock source to be used to drive the System clock
  29:/home/phong/Documents/thesis/stm32f4/stm-idf/components/stm32f4xx_hal_driver/stm32f4xx_hal_rcc.c ****           (if the application needs higher frequency/performance)
  30:/home/phong/Documents/thesis/stm32f4/stm-idf/components/stm32f4xx_hal_driver/stm32f4xx_hal_rcc.c ****       (+) Configure the System clock frequency and Flash settings
  31:/home/phong/Documents/thesis/stm32f4/stm-idf/components/stm32f4xx_hal_driver/stm32f4xx_hal_rcc.c ****       (+) Configure the AHB and APB busses prescalers
ARM GAS  /tmp/ccYos3sw.s 			page 2


  32:/home/phong/Documents/thesis/stm32f4/stm-idf/components/stm32f4xx_hal_driver/stm32f4xx_hal_rcc.c ****       (+) Enable the clock for the peripheral(s) to be used
  33:/home/phong/Documents/thesis/stm32f4/stm-idf/components/stm32f4xx_hal_driver/stm32f4xx_hal_rcc.c ****       (+) Configure the clock source(s) for peripherals which clocks are not
  34:/home/phong/Documents/thesis/stm32f4/stm-idf/components/stm32f4xx_hal_driver/stm32f4xx_hal_rcc.c ****           derived from the System clock (I2S, RTC, ADC, USB OTG FS/SDIO/RNG)
  35:/home/phong/Documents/thesis/stm32f4/stm-idf/components/stm32f4xx_hal_driver/stm32f4xx_hal_rcc.c **** 
  36:/home/phong/Documents/thesis/stm32f4/stm-idf/components/stm32f4xx_hal_driver/stm32f4xx_hal_rcc.c ****                       ##### RCC Limitations #####
  37:/home/phong/Documents/thesis/stm32f4/stm-idf/components/stm32f4xx_hal_driver/stm32f4xx_hal_rcc.c ****   ==============================================================================
  38:/home/phong/Documents/thesis/stm32f4/stm-idf/components/stm32f4xx_hal_driver/stm32f4xx_hal_rcc.c ****     [..]
  39:/home/phong/Documents/thesis/stm32f4/stm-idf/components/stm32f4xx_hal_driver/stm32f4xx_hal_rcc.c ****       A delay between an RCC peripheral clock enable and the effective peripheral
  40:/home/phong/Documents/thesis/stm32f4/stm-idf/components/stm32f4xx_hal_driver/stm32f4xx_hal_rcc.c ****       enabling should be taken into account in order to manage the peripheral read/write
  41:/home/phong/Documents/thesis/stm32f4/stm-idf/components/stm32f4xx_hal_driver/stm32f4xx_hal_rcc.c ****       from/to registers.
  42:/home/phong/Documents/thesis/stm32f4/stm-idf/components/stm32f4xx_hal_driver/stm32f4xx_hal_rcc.c ****       (+) This delay depends on the peripheral mapping.
  43:/home/phong/Documents/thesis/stm32f4/stm-idf/components/stm32f4xx_hal_driver/stm32f4xx_hal_rcc.c ****       (+) If peripheral is mapped on AHB: the delay is 2 AHB clock cycle
  44:/home/phong/Documents/thesis/stm32f4/stm-idf/components/stm32f4xx_hal_driver/stm32f4xx_hal_rcc.c ****           after the clock enable bit is set on the hardware register
  45:/home/phong/Documents/thesis/stm32f4/stm-idf/components/stm32f4xx_hal_driver/stm32f4xx_hal_rcc.c ****       (+) If peripheral is mapped on APB: the delay is 2 APB clock cycle
  46:/home/phong/Documents/thesis/stm32f4/stm-idf/components/stm32f4xx_hal_driver/stm32f4xx_hal_rcc.c ****           after the clock enable bit is set on the hardware register
  47:/home/phong/Documents/thesis/stm32f4/stm-idf/components/stm32f4xx_hal_driver/stm32f4xx_hal_rcc.c **** 
  48:/home/phong/Documents/thesis/stm32f4/stm-idf/components/stm32f4xx_hal_driver/stm32f4xx_hal_rcc.c ****     [..]
  49:/home/phong/Documents/thesis/stm32f4/stm-idf/components/stm32f4xx_hal_driver/stm32f4xx_hal_rcc.c ****       Implemented Workaround:
  50:/home/phong/Documents/thesis/stm32f4/stm-idf/components/stm32f4xx_hal_driver/stm32f4xx_hal_rcc.c ****       (+) For AHB & APB peripherals, a dummy read to the peripheral register has been
  51:/home/phong/Documents/thesis/stm32f4/stm-idf/components/stm32f4xx_hal_driver/stm32f4xx_hal_rcc.c ****           inserted in each __HAL_RCC_PPP_CLK_ENABLE() macro.
  52:/home/phong/Documents/thesis/stm32f4/stm-idf/components/stm32f4xx_hal_driver/stm32f4xx_hal_rcc.c **** 
  53:/home/phong/Documents/thesis/stm32f4/stm-idf/components/stm32f4xx_hal_driver/stm32f4xx_hal_rcc.c ****   @endverbatim
  54:/home/phong/Documents/thesis/stm32f4/stm-idf/components/stm32f4xx_hal_driver/stm32f4xx_hal_rcc.c ****   ******************************************************************************
  55:/home/phong/Documents/thesis/stm32f4/stm-idf/components/stm32f4xx_hal_driver/stm32f4xx_hal_rcc.c ****   * @attention
  56:/home/phong/Documents/thesis/stm32f4/stm-idf/components/stm32f4xx_hal_driver/stm32f4xx_hal_rcc.c ****   *
  57:/home/phong/Documents/thesis/stm32f4/stm-idf/components/stm32f4xx_hal_driver/stm32f4xx_hal_rcc.c ****   * <h2><center>&copy; Copyright (c) 2017 STMicroelectronics.
  58:/home/phong/Documents/thesis/stm32f4/stm-idf/components/stm32f4xx_hal_driver/stm32f4xx_hal_rcc.c ****   * All rights reserved.</center></h2>
  59:/home/phong/Documents/thesis/stm32f4/stm-idf/components/stm32f4xx_hal_driver/stm32f4xx_hal_rcc.c ****   *
  60:/home/phong/Documents/thesis/stm32f4/stm-idf/components/stm32f4xx_hal_driver/stm32f4xx_hal_rcc.c ****   * This software component is licensed by ST under BSD 3-Clause license,
  61:/home/phong/Documents/thesis/stm32f4/stm-idf/components/stm32f4xx_hal_driver/stm32f4xx_hal_rcc.c ****   * the "License"; You may not use this file except in compliance with the
  62:/home/phong/Documents/thesis/stm32f4/stm-idf/components/stm32f4xx_hal_driver/stm32f4xx_hal_rcc.c ****   * License. You may obtain a copy of the License at:
  63:/home/phong/Documents/thesis/stm32f4/stm-idf/components/stm32f4xx_hal_driver/stm32f4xx_hal_rcc.c ****   *                        opensource.org/licenses/BSD-3-Clause
  64:/home/phong/Documents/thesis/stm32f4/stm-idf/components/stm32f4xx_hal_driver/stm32f4xx_hal_rcc.c ****   *
  65:/home/phong/Documents/thesis/stm32f4/stm-idf/components/stm32f4xx_hal_driver/stm32f4xx_hal_rcc.c ****   ******************************************************************************
  66:/home/phong/Documents/thesis/stm32f4/stm-idf/components/stm32f4xx_hal_driver/stm32f4xx_hal_rcc.c ****   */
  67:/home/phong/Documents/thesis/stm32f4/stm-idf/components/stm32f4xx_hal_driver/stm32f4xx_hal_rcc.c **** 
  68:/home/phong/Documents/thesis/stm32f4/stm-idf/components/stm32f4xx_hal_driver/stm32f4xx_hal_rcc.c **** /* Includes ------------------------------------------------------------------*/
  69:/home/phong/Documents/thesis/stm32f4/stm-idf/components/stm32f4xx_hal_driver/stm32f4xx_hal_rcc.c **** #include "stm32f4xx_hal.h"
  70:/home/phong/Documents/thesis/stm32f4/stm-idf/components/stm32f4xx_hal_driver/stm32f4xx_hal_rcc.c **** 
  71:/home/phong/Documents/thesis/stm32f4/stm-idf/components/stm32f4xx_hal_driver/stm32f4xx_hal_rcc.c **** /** @addtogroup STM32F4xx_HAL_Driver
  72:/home/phong/Documents/thesis/stm32f4/stm-idf/components/stm32f4xx_hal_driver/stm32f4xx_hal_rcc.c ****   * @{
  73:/home/phong/Documents/thesis/stm32f4/stm-idf/components/stm32f4xx_hal_driver/stm32f4xx_hal_rcc.c ****   */
  74:/home/phong/Documents/thesis/stm32f4/stm-idf/components/stm32f4xx_hal_driver/stm32f4xx_hal_rcc.c **** 
  75:/home/phong/Documents/thesis/stm32f4/stm-idf/components/stm32f4xx_hal_driver/stm32f4xx_hal_rcc.c **** /** @defgroup RCC RCC
  76:/home/phong/Documents/thesis/stm32f4/stm-idf/components/stm32f4xx_hal_driver/stm32f4xx_hal_rcc.c ****   * @brief RCC HAL module driver
  77:/home/phong/Documents/thesis/stm32f4/stm-idf/components/stm32f4xx_hal_driver/stm32f4xx_hal_rcc.c ****   * @{
  78:/home/phong/Documents/thesis/stm32f4/stm-idf/components/stm32f4xx_hal_driver/stm32f4xx_hal_rcc.c ****   */
  79:/home/phong/Documents/thesis/stm32f4/stm-idf/components/stm32f4xx_hal_driver/stm32f4xx_hal_rcc.c **** 
  80:/home/phong/Documents/thesis/stm32f4/stm-idf/components/stm32f4xx_hal_driver/stm32f4xx_hal_rcc.c **** #ifdef HAL_RCC_MODULE_ENABLED
  81:/home/phong/Documents/thesis/stm32f4/stm-idf/components/stm32f4xx_hal_driver/stm32f4xx_hal_rcc.c **** 
  82:/home/phong/Documents/thesis/stm32f4/stm-idf/components/stm32f4xx_hal_driver/stm32f4xx_hal_rcc.c **** /* Private typedef -----------------------------------------------------------*/
  83:/home/phong/Documents/thesis/stm32f4/stm-idf/components/stm32f4xx_hal_driver/stm32f4xx_hal_rcc.c **** /* Private define ------------------------------------------------------------*/
  84:/home/phong/Documents/thesis/stm32f4/stm-idf/components/stm32f4xx_hal_driver/stm32f4xx_hal_rcc.c **** /** @addtogroup RCC_Private_Constants
  85:/home/phong/Documents/thesis/stm32f4/stm-idf/components/stm32f4xx_hal_driver/stm32f4xx_hal_rcc.c ****   * @{
  86:/home/phong/Documents/thesis/stm32f4/stm-idf/components/stm32f4xx_hal_driver/stm32f4xx_hal_rcc.c ****   */
  87:/home/phong/Documents/thesis/stm32f4/stm-idf/components/stm32f4xx_hal_driver/stm32f4xx_hal_rcc.c **** 
  88:/home/phong/Documents/thesis/stm32f4/stm-idf/components/stm32f4xx_hal_driver/stm32f4xx_hal_rcc.c **** /* Private macro -------------------------------------------------------------*/
ARM GAS  /tmp/ccYos3sw.s 			page 3


  89:/home/phong/Documents/thesis/stm32f4/stm-idf/components/stm32f4xx_hal_driver/stm32f4xx_hal_rcc.c **** #define __MCO1_CLK_ENABLE()   __HAL_RCC_GPIOA_CLK_ENABLE()
  90:/home/phong/Documents/thesis/stm32f4/stm-idf/components/stm32f4xx_hal_driver/stm32f4xx_hal_rcc.c **** #define MCO1_GPIO_PORT        GPIOA
  91:/home/phong/Documents/thesis/stm32f4/stm-idf/components/stm32f4xx_hal_driver/stm32f4xx_hal_rcc.c **** #define MCO1_PIN              GPIO_PIN_8
  92:/home/phong/Documents/thesis/stm32f4/stm-idf/components/stm32f4xx_hal_driver/stm32f4xx_hal_rcc.c **** 
  93:/home/phong/Documents/thesis/stm32f4/stm-idf/components/stm32f4xx_hal_driver/stm32f4xx_hal_rcc.c **** #define __MCO2_CLK_ENABLE()   __HAL_RCC_GPIOC_CLK_ENABLE()
  94:/home/phong/Documents/thesis/stm32f4/stm-idf/components/stm32f4xx_hal_driver/stm32f4xx_hal_rcc.c **** #define MCO2_GPIO_PORT         GPIOC
  95:/home/phong/Documents/thesis/stm32f4/stm-idf/components/stm32f4xx_hal_driver/stm32f4xx_hal_rcc.c **** #define MCO2_PIN               GPIO_PIN_9
  96:/home/phong/Documents/thesis/stm32f4/stm-idf/components/stm32f4xx_hal_driver/stm32f4xx_hal_rcc.c **** /**
  97:/home/phong/Documents/thesis/stm32f4/stm-idf/components/stm32f4xx_hal_driver/stm32f4xx_hal_rcc.c ****   * @}
  98:/home/phong/Documents/thesis/stm32f4/stm-idf/components/stm32f4xx_hal_driver/stm32f4xx_hal_rcc.c ****   */
  99:/home/phong/Documents/thesis/stm32f4/stm-idf/components/stm32f4xx_hal_driver/stm32f4xx_hal_rcc.c **** 
 100:/home/phong/Documents/thesis/stm32f4/stm-idf/components/stm32f4xx_hal_driver/stm32f4xx_hal_rcc.c **** /* Private variables ---------------------------------------------------------*/
 101:/home/phong/Documents/thesis/stm32f4/stm-idf/components/stm32f4xx_hal_driver/stm32f4xx_hal_rcc.c **** /** @defgroup RCC_Private_Variables RCC Private Variables
 102:/home/phong/Documents/thesis/stm32f4/stm-idf/components/stm32f4xx_hal_driver/stm32f4xx_hal_rcc.c ****   * @{
 103:/home/phong/Documents/thesis/stm32f4/stm-idf/components/stm32f4xx_hal_driver/stm32f4xx_hal_rcc.c ****   */
 104:/home/phong/Documents/thesis/stm32f4/stm-idf/components/stm32f4xx_hal_driver/stm32f4xx_hal_rcc.c **** /**
 105:/home/phong/Documents/thesis/stm32f4/stm-idf/components/stm32f4xx_hal_driver/stm32f4xx_hal_rcc.c ****   * @}
 106:/home/phong/Documents/thesis/stm32f4/stm-idf/components/stm32f4xx_hal_driver/stm32f4xx_hal_rcc.c ****   */
 107:/home/phong/Documents/thesis/stm32f4/stm-idf/components/stm32f4xx_hal_driver/stm32f4xx_hal_rcc.c **** /* Private function prototypes -----------------------------------------------*/
 108:/home/phong/Documents/thesis/stm32f4/stm-idf/components/stm32f4xx_hal_driver/stm32f4xx_hal_rcc.c **** /* Private functions ---------------------------------------------------------*/
 109:/home/phong/Documents/thesis/stm32f4/stm-idf/components/stm32f4xx_hal_driver/stm32f4xx_hal_rcc.c **** 
 110:/home/phong/Documents/thesis/stm32f4/stm-idf/components/stm32f4xx_hal_driver/stm32f4xx_hal_rcc.c **** /** @defgroup RCC_Exported_Functions RCC Exported Functions
 111:/home/phong/Documents/thesis/stm32f4/stm-idf/components/stm32f4xx_hal_driver/stm32f4xx_hal_rcc.c ****   *  @{
 112:/home/phong/Documents/thesis/stm32f4/stm-idf/components/stm32f4xx_hal_driver/stm32f4xx_hal_rcc.c ****   */
 113:/home/phong/Documents/thesis/stm32f4/stm-idf/components/stm32f4xx_hal_driver/stm32f4xx_hal_rcc.c **** 
 114:/home/phong/Documents/thesis/stm32f4/stm-idf/components/stm32f4xx_hal_driver/stm32f4xx_hal_rcc.c **** /** @defgroup RCC_Exported_Functions_Group1 Initialization and de-initialization functions
 115:/home/phong/Documents/thesis/stm32f4/stm-idf/components/stm32f4xx_hal_driver/stm32f4xx_hal_rcc.c ****  *  @brief    Initialization and Configuration functions
 116:/home/phong/Documents/thesis/stm32f4/stm-idf/components/stm32f4xx_hal_driver/stm32f4xx_hal_rcc.c ****  *
 117:/home/phong/Documents/thesis/stm32f4/stm-idf/components/stm32f4xx_hal_driver/stm32f4xx_hal_rcc.c **** @verbatim
 118:/home/phong/Documents/thesis/stm32f4/stm-idf/components/stm32f4xx_hal_driver/stm32f4xx_hal_rcc.c ****  ===============================================================================
 119:/home/phong/Documents/thesis/stm32f4/stm-idf/components/stm32f4xx_hal_driver/stm32f4xx_hal_rcc.c ****            ##### Initialization and de-initialization functions #####
 120:/home/phong/Documents/thesis/stm32f4/stm-idf/components/stm32f4xx_hal_driver/stm32f4xx_hal_rcc.c ****  ===============================================================================
 121:/home/phong/Documents/thesis/stm32f4/stm-idf/components/stm32f4xx_hal_driver/stm32f4xx_hal_rcc.c ****     [..]
 122:/home/phong/Documents/thesis/stm32f4/stm-idf/components/stm32f4xx_hal_driver/stm32f4xx_hal_rcc.c ****       This section provides functions allowing to configure the internal/external oscillators
 123:/home/phong/Documents/thesis/stm32f4/stm-idf/components/stm32f4xx_hal_driver/stm32f4xx_hal_rcc.c ****       (HSE, HSI, LSE, LSI, PLL, CSS and MCO) and the System busses clocks (SYSCLK, AHB, APB1
 124:/home/phong/Documents/thesis/stm32f4/stm-idf/components/stm32f4xx_hal_driver/stm32f4xx_hal_rcc.c ****        and APB2).
 125:/home/phong/Documents/thesis/stm32f4/stm-idf/components/stm32f4xx_hal_driver/stm32f4xx_hal_rcc.c **** 
 126:/home/phong/Documents/thesis/stm32f4/stm-idf/components/stm32f4xx_hal_driver/stm32f4xx_hal_rcc.c ****     [..] Internal/external clock and PLL configuration
 127:/home/phong/Documents/thesis/stm32f4/stm-idf/components/stm32f4xx_hal_driver/stm32f4xx_hal_rcc.c ****          (#) HSI (high-speed internal), 16 MHz factory-trimmed RC used directly or through
 128:/home/phong/Documents/thesis/stm32f4/stm-idf/components/stm32f4xx_hal_driver/stm32f4xx_hal_rcc.c ****              the PLL as System clock source.
 129:/home/phong/Documents/thesis/stm32f4/stm-idf/components/stm32f4xx_hal_driver/stm32f4xx_hal_rcc.c **** 
 130:/home/phong/Documents/thesis/stm32f4/stm-idf/components/stm32f4xx_hal_driver/stm32f4xx_hal_rcc.c ****          (#) LSI (low-speed internal), 32 KHz low consumption RC used as IWDG and/or RTC
 131:/home/phong/Documents/thesis/stm32f4/stm-idf/components/stm32f4xx_hal_driver/stm32f4xx_hal_rcc.c ****              clock source.
 132:/home/phong/Documents/thesis/stm32f4/stm-idf/components/stm32f4xx_hal_driver/stm32f4xx_hal_rcc.c **** 
 133:/home/phong/Documents/thesis/stm32f4/stm-idf/components/stm32f4xx_hal_driver/stm32f4xx_hal_rcc.c ****          (#) HSE (high-speed external), 4 to 26 MHz crystal oscillator used directly or
 134:/home/phong/Documents/thesis/stm32f4/stm-idf/components/stm32f4xx_hal_driver/stm32f4xx_hal_rcc.c ****              through the PLL as System clock source. Can be used also as RTC clock source.
 135:/home/phong/Documents/thesis/stm32f4/stm-idf/components/stm32f4xx_hal_driver/stm32f4xx_hal_rcc.c **** 
 136:/home/phong/Documents/thesis/stm32f4/stm-idf/components/stm32f4xx_hal_driver/stm32f4xx_hal_rcc.c ****          (#) LSE (low-speed external), 32 KHz oscillator used as RTC clock source.
 137:/home/phong/Documents/thesis/stm32f4/stm-idf/components/stm32f4xx_hal_driver/stm32f4xx_hal_rcc.c **** 
 138:/home/phong/Documents/thesis/stm32f4/stm-idf/components/stm32f4xx_hal_driver/stm32f4xx_hal_rcc.c ****          (#) PLL (clocked by HSI or HSE), featuring two different output clocks:
 139:/home/phong/Documents/thesis/stm32f4/stm-idf/components/stm32f4xx_hal_driver/stm32f4xx_hal_rcc.c ****            (++) The first output is used to generate the high speed system clock (up to 168 MHz)
 140:/home/phong/Documents/thesis/stm32f4/stm-idf/components/stm32f4xx_hal_driver/stm32f4xx_hal_rcc.c ****            (++) The second output is used to generate the clock for the USB OTG FS (48 MHz),
 141:/home/phong/Documents/thesis/stm32f4/stm-idf/components/stm32f4xx_hal_driver/stm32f4xx_hal_rcc.c ****                 the random analog generator (<=48 MHz) and the SDIO (<= 48 MHz).
 142:/home/phong/Documents/thesis/stm32f4/stm-idf/components/stm32f4xx_hal_driver/stm32f4xx_hal_rcc.c **** 
 143:/home/phong/Documents/thesis/stm32f4/stm-idf/components/stm32f4xx_hal_driver/stm32f4xx_hal_rcc.c ****          (#) CSS (Clock security system), once enable using the macro __HAL_RCC_CSS_ENABLE()
 144:/home/phong/Documents/thesis/stm32f4/stm-idf/components/stm32f4xx_hal_driver/stm32f4xx_hal_rcc.c ****              and if a HSE clock failure occurs(HSE used directly or through PLL as System
 145:/home/phong/Documents/thesis/stm32f4/stm-idf/components/stm32f4xx_hal_driver/stm32f4xx_hal_rcc.c ****              clock source), the System clocks automatically switched to HSI and an interrupt
ARM GAS  /tmp/ccYos3sw.s 			page 4


 146:/home/phong/Documents/thesis/stm32f4/stm-idf/components/stm32f4xx_hal_driver/stm32f4xx_hal_rcc.c ****              is generated if enabled. The interrupt is linked to the Cortex-M4 NMI
 147:/home/phong/Documents/thesis/stm32f4/stm-idf/components/stm32f4xx_hal_driver/stm32f4xx_hal_rcc.c ****              (Non-Maskable Interrupt) exception vector.
 148:/home/phong/Documents/thesis/stm32f4/stm-idf/components/stm32f4xx_hal_driver/stm32f4xx_hal_rcc.c **** 
 149:/home/phong/Documents/thesis/stm32f4/stm-idf/components/stm32f4xx_hal_driver/stm32f4xx_hal_rcc.c ****          (#) MCO1 (microcontroller clock output), used to output HSI, LSE, HSE or PLL
 150:/home/phong/Documents/thesis/stm32f4/stm-idf/components/stm32f4xx_hal_driver/stm32f4xx_hal_rcc.c ****              clock (through a configurable prescaler) on PA8 pin.
 151:/home/phong/Documents/thesis/stm32f4/stm-idf/components/stm32f4xx_hal_driver/stm32f4xx_hal_rcc.c **** 
 152:/home/phong/Documents/thesis/stm32f4/stm-idf/components/stm32f4xx_hal_driver/stm32f4xx_hal_rcc.c ****          (#) MCO2 (microcontroller clock output), used to output HSE, PLL, SYSCLK or PLLI2S
 153:/home/phong/Documents/thesis/stm32f4/stm-idf/components/stm32f4xx_hal_driver/stm32f4xx_hal_rcc.c ****              clock (through a configurable prescaler) on PC9 pin.
 154:/home/phong/Documents/thesis/stm32f4/stm-idf/components/stm32f4xx_hal_driver/stm32f4xx_hal_rcc.c **** 
 155:/home/phong/Documents/thesis/stm32f4/stm-idf/components/stm32f4xx_hal_driver/stm32f4xx_hal_rcc.c ****     [..] System, AHB and APB busses clocks configuration
 156:/home/phong/Documents/thesis/stm32f4/stm-idf/components/stm32f4xx_hal_driver/stm32f4xx_hal_rcc.c ****          (#) Several clock sources can be used to drive the System clock (SYSCLK): HSI,
 157:/home/phong/Documents/thesis/stm32f4/stm-idf/components/stm32f4xx_hal_driver/stm32f4xx_hal_rcc.c ****              HSE and PLL.
 158:/home/phong/Documents/thesis/stm32f4/stm-idf/components/stm32f4xx_hal_driver/stm32f4xx_hal_rcc.c ****              The AHB clock (HCLK) is derived from System clock through configurable
 159:/home/phong/Documents/thesis/stm32f4/stm-idf/components/stm32f4xx_hal_driver/stm32f4xx_hal_rcc.c ****              prescaler and used to clock the CPU, memory and peripherals mapped
 160:/home/phong/Documents/thesis/stm32f4/stm-idf/components/stm32f4xx_hal_driver/stm32f4xx_hal_rcc.c ****              on AHB bus (DMA, GPIO...). APB1 (PCLK1) and APB2 (PCLK2) clocks are derived
 161:/home/phong/Documents/thesis/stm32f4/stm-idf/components/stm32f4xx_hal_driver/stm32f4xx_hal_rcc.c ****              from AHB clock through configurable prescalers and used to clock
 162:/home/phong/Documents/thesis/stm32f4/stm-idf/components/stm32f4xx_hal_driver/stm32f4xx_hal_rcc.c ****              the peripherals mapped on these busses. You can use
 163:/home/phong/Documents/thesis/stm32f4/stm-idf/components/stm32f4xx_hal_driver/stm32f4xx_hal_rcc.c ****              "HAL_RCC_GetSysClockFreq()" function to retrieve the frequencies of these clocks.
 164:/home/phong/Documents/thesis/stm32f4/stm-idf/components/stm32f4xx_hal_driver/stm32f4xx_hal_rcc.c **** 
 165:/home/phong/Documents/thesis/stm32f4/stm-idf/components/stm32f4xx_hal_driver/stm32f4xx_hal_rcc.c ****          (#) For the STM32F405xx/07xx and STM32F415xx/17xx devices, the maximum
 166:/home/phong/Documents/thesis/stm32f4/stm-idf/components/stm32f4xx_hal_driver/stm32f4xx_hal_rcc.c ****              frequency of the SYSCLK and HCLK is 168 MHz, PCLK2 84 MHz and PCLK1 42 MHz.
 167:/home/phong/Documents/thesis/stm32f4/stm-idf/components/stm32f4xx_hal_driver/stm32f4xx_hal_rcc.c ****              Depending on the device voltage range, the maximum frequency should
 168:/home/phong/Documents/thesis/stm32f4/stm-idf/components/stm32f4xx_hal_driver/stm32f4xx_hal_rcc.c ****              be adapted accordingly (refer to the product datasheets for more details).
 169:/home/phong/Documents/thesis/stm32f4/stm-idf/components/stm32f4xx_hal_driver/stm32f4xx_hal_rcc.c **** 
 170:/home/phong/Documents/thesis/stm32f4/stm-idf/components/stm32f4xx_hal_driver/stm32f4xx_hal_rcc.c ****          (#) For the STM32F42xxx, STM32F43xxx, STM32F446xx, STM32F469xx and STM32F479xx devices,
 171:/home/phong/Documents/thesis/stm32f4/stm-idf/components/stm32f4xx_hal_driver/stm32f4xx_hal_rcc.c ****              the maximum frequency of the SYSCLK and HCLK is 180 MHz, PCLK2 90 MHz and PCLK1 45 MHz
 172:/home/phong/Documents/thesis/stm32f4/stm-idf/components/stm32f4xx_hal_driver/stm32f4xx_hal_rcc.c ****              Depending on the device voltage range, the maximum frequency should
 173:/home/phong/Documents/thesis/stm32f4/stm-idf/components/stm32f4xx_hal_driver/stm32f4xx_hal_rcc.c ****              be adapted accordingly (refer to the product datasheets for more details).
 174:/home/phong/Documents/thesis/stm32f4/stm-idf/components/stm32f4xx_hal_driver/stm32f4xx_hal_rcc.c **** 
 175:/home/phong/Documents/thesis/stm32f4/stm-idf/components/stm32f4xx_hal_driver/stm32f4xx_hal_rcc.c ****          (#) For the STM32F401xx, the maximum frequency of the SYSCLK and HCLK is 84 MHz,
 176:/home/phong/Documents/thesis/stm32f4/stm-idf/components/stm32f4xx_hal_driver/stm32f4xx_hal_rcc.c ****              PCLK2 84 MHz and PCLK1 42 MHz.
 177:/home/phong/Documents/thesis/stm32f4/stm-idf/components/stm32f4xx_hal_driver/stm32f4xx_hal_rcc.c ****              Depending on the device voltage range, the maximum frequency should
 178:/home/phong/Documents/thesis/stm32f4/stm-idf/components/stm32f4xx_hal_driver/stm32f4xx_hal_rcc.c ****              be adapted accordingly (refer to the product datasheets for more details).
 179:/home/phong/Documents/thesis/stm32f4/stm-idf/components/stm32f4xx_hal_driver/stm32f4xx_hal_rcc.c **** 
 180:/home/phong/Documents/thesis/stm32f4/stm-idf/components/stm32f4xx_hal_driver/stm32f4xx_hal_rcc.c ****          (#) For the STM32F41xxx, the maximum frequency of the SYSCLK and HCLK is 100 MHz,
 181:/home/phong/Documents/thesis/stm32f4/stm-idf/components/stm32f4xx_hal_driver/stm32f4xx_hal_rcc.c ****              PCLK2 100 MHz and PCLK1 50 MHz.
 182:/home/phong/Documents/thesis/stm32f4/stm-idf/components/stm32f4xx_hal_driver/stm32f4xx_hal_rcc.c ****              Depending on the device voltage range, the maximum frequency should
 183:/home/phong/Documents/thesis/stm32f4/stm-idf/components/stm32f4xx_hal_driver/stm32f4xx_hal_rcc.c ****              be adapted accordingly (refer to the product datasheets for more details).
 184:/home/phong/Documents/thesis/stm32f4/stm-idf/components/stm32f4xx_hal_driver/stm32f4xx_hal_rcc.c **** 
 185:/home/phong/Documents/thesis/stm32f4/stm-idf/components/stm32f4xx_hal_driver/stm32f4xx_hal_rcc.c **** @endverbatim
 186:/home/phong/Documents/thesis/stm32f4/stm-idf/components/stm32f4xx_hal_driver/stm32f4xx_hal_rcc.c ****   * @{
 187:/home/phong/Documents/thesis/stm32f4/stm-idf/components/stm32f4xx_hal_driver/stm32f4xx_hal_rcc.c ****   */
 188:/home/phong/Documents/thesis/stm32f4/stm-idf/components/stm32f4xx_hal_driver/stm32f4xx_hal_rcc.c **** 
 189:/home/phong/Documents/thesis/stm32f4/stm-idf/components/stm32f4xx_hal_driver/stm32f4xx_hal_rcc.c **** /**
 190:/home/phong/Documents/thesis/stm32f4/stm-idf/components/stm32f4xx_hal_driver/stm32f4xx_hal_rcc.c ****   * @brief  Resets the RCC clock configuration to the default reset state.
 191:/home/phong/Documents/thesis/stm32f4/stm-idf/components/stm32f4xx_hal_driver/stm32f4xx_hal_rcc.c ****   * @note   The default reset state of the clock configuration is given below:
 192:/home/phong/Documents/thesis/stm32f4/stm-idf/components/stm32f4xx_hal_driver/stm32f4xx_hal_rcc.c ****   *            - HSI ON and used as system clock source
 193:/home/phong/Documents/thesis/stm32f4/stm-idf/components/stm32f4xx_hal_driver/stm32f4xx_hal_rcc.c ****   *            - HSE and PLL OFF
 194:/home/phong/Documents/thesis/stm32f4/stm-idf/components/stm32f4xx_hal_driver/stm32f4xx_hal_rcc.c ****   *            - AHB, APB1 and APB2 prescaler set to 1.
 195:/home/phong/Documents/thesis/stm32f4/stm-idf/components/stm32f4xx_hal_driver/stm32f4xx_hal_rcc.c ****   *            - CSS, MCO1 and MCO2 OFF
 196:/home/phong/Documents/thesis/stm32f4/stm-idf/components/stm32f4xx_hal_driver/stm32f4xx_hal_rcc.c ****   *            - All interrupts disabled
 197:/home/phong/Documents/thesis/stm32f4/stm-idf/components/stm32f4xx_hal_driver/stm32f4xx_hal_rcc.c ****   * @note   This function doesn't modify the configuration of the
 198:/home/phong/Documents/thesis/stm32f4/stm-idf/components/stm32f4xx_hal_driver/stm32f4xx_hal_rcc.c ****   *            - Peripheral clocks
 199:/home/phong/Documents/thesis/stm32f4/stm-idf/components/stm32f4xx_hal_driver/stm32f4xx_hal_rcc.c ****   *            - LSI, LSE and RTC clocks
 200:/home/phong/Documents/thesis/stm32f4/stm-idf/components/stm32f4xx_hal_driver/stm32f4xx_hal_rcc.c ****   * @retval HAL status
 201:/home/phong/Documents/thesis/stm32f4/stm-idf/components/stm32f4xx_hal_driver/stm32f4xx_hal_rcc.c ****   */
 202:/home/phong/Documents/thesis/stm32f4/stm-idf/components/stm32f4xx_hal_driver/stm32f4xx_hal_rcc.c **** __weak HAL_StatusTypeDef HAL_RCC_DeInit(void)
ARM GAS  /tmp/ccYos3sw.s 			page 5


 203:/home/phong/Documents/thesis/stm32f4/stm-idf/components/stm32f4xx_hal_driver/stm32f4xx_hal_rcc.c **** {
  28              		.loc 1 203 0
  29              		.cfi_startproc
  30              		@ args = 0, pretend = 0, frame = 0
  31              		@ frame_needed = 0, uses_anonymous_args = 0
  32              		@ link register save eliminated.
 204:/home/phong/Documents/thesis/stm32f4/stm-idf/components/stm32f4xx_hal_driver/stm32f4xx_hal_rcc.c ****   return HAL_OK;
 205:/home/phong/Documents/thesis/stm32f4/stm-idf/components/stm32f4xx_hal_driver/stm32f4xx_hal_rcc.c **** }
  33              		.loc 1 205 0
  34 0000 0020     		movs	r0, #0
  35 0002 7047     		bx	lr
  36              		.cfi_endproc
  37              	.LFE130:
  39              		.section	.text.HAL_RCC_OscConfig,"ax",%progbits
  40              		.align	1
  41              		.weak	HAL_RCC_OscConfig
  42              		.syntax unified
  43              		.thumb
  44              		.thumb_func
  45              		.fpu fpv4-sp-d16
  47              	HAL_RCC_OscConfig:
  48              	.LFB131:
 206:/home/phong/Documents/thesis/stm32f4/stm-idf/components/stm32f4xx_hal_driver/stm32f4xx_hal_rcc.c **** 
 207:/home/phong/Documents/thesis/stm32f4/stm-idf/components/stm32f4xx_hal_driver/stm32f4xx_hal_rcc.c **** /**
 208:/home/phong/Documents/thesis/stm32f4/stm-idf/components/stm32f4xx_hal_driver/stm32f4xx_hal_rcc.c ****   * @brief  Initializes the RCC Oscillators according to the specified parameters in the
 209:/home/phong/Documents/thesis/stm32f4/stm-idf/components/stm32f4xx_hal_driver/stm32f4xx_hal_rcc.c ****   *         RCC_OscInitTypeDef.
 210:/home/phong/Documents/thesis/stm32f4/stm-idf/components/stm32f4xx_hal_driver/stm32f4xx_hal_rcc.c ****   * @param  RCC_OscInitStruct pointer to an RCC_OscInitTypeDef structure that
 211:/home/phong/Documents/thesis/stm32f4/stm-idf/components/stm32f4xx_hal_driver/stm32f4xx_hal_rcc.c ****   *         contains the configuration information for the RCC Oscillators.
 212:/home/phong/Documents/thesis/stm32f4/stm-idf/components/stm32f4xx_hal_driver/stm32f4xx_hal_rcc.c ****   * @note   The PLL is not disabled when used as system clock.
 213:/home/phong/Documents/thesis/stm32f4/stm-idf/components/stm32f4xx_hal_driver/stm32f4xx_hal_rcc.c ****   * @note   Transitions LSE Bypass to LSE On and LSE On to LSE Bypass are not
 214:/home/phong/Documents/thesis/stm32f4/stm-idf/components/stm32f4xx_hal_driver/stm32f4xx_hal_rcc.c ****   *         supported by this API. User should request a transition to LSE Off
 215:/home/phong/Documents/thesis/stm32f4/stm-idf/components/stm32f4xx_hal_driver/stm32f4xx_hal_rcc.c ****   *         first and then LSE On or LSE Bypass.
 216:/home/phong/Documents/thesis/stm32f4/stm-idf/components/stm32f4xx_hal_driver/stm32f4xx_hal_rcc.c ****   * @note   Transition HSE Bypass to HSE On and HSE On to HSE Bypass are not
 217:/home/phong/Documents/thesis/stm32f4/stm-idf/components/stm32f4xx_hal_driver/stm32f4xx_hal_rcc.c ****   *         supported by this API. User should request a transition to HSE Off
 218:/home/phong/Documents/thesis/stm32f4/stm-idf/components/stm32f4xx_hal_driver/stm32f4xx_hal_rcc.c ****   *         first and then HSE On or HSE Bypass.
 219:/home/phong/Documents/thesis/stm32f4/stm-idf/components/stm32f4xx_hal_driver/stm32f4xx_hal_rcc.c ****   * @retval HAL status
 220:/home/phong/Documents/thesis/stm32f4/stm-idf/components/stm32f4xx_hal_driver/stm32f4xx_hal_rcc.c ****   */
 221:/home/phong/Documents/thesis/stm32f4/stm-idf/components/stm32f4xx_hal_driver/stm32f4xx_hal_rcc.c **** __weak HAL_StatusTypeDef HAL_RCC_OscConfig(RCC_OscInitTypeDef  *RCC_OscInitStruct)
 222:/home/phong/Documents/thesis/stm32f4/stm-idf/components/stm32f4xx_hal_driver/stm32f4xx_hal_rcc.c **** {
  49              		.loc 1 222 0
  50              		.cfi_startproc
  51              		@ args = 0, pretend = 0, frame = 8
  52              		@ frame_needed = 0, uses_anonymous_args = 0
  53              	.LVL0:
 223:/home/phong/Documents/thesis/stm32f4/stm-idf/components/stm32f4xx_hal_driver/stm32f4xx_hal_rcc.c ****   uint32_t tickstart, pll_config;
 224:/home/phong/Documents/thesis/stm32f4/stm-idf/components/stm32f4xx_hal_driver/stm32f4xx_hal_rcc.c **** 
 225:/home/phong/Documents/thesis/stm32f4/stm-idf/components/stm32f4xx_hal_driver/stm32f4xx_hal_rcc.c ****   /* Check Null pointer */
 226:/home/phong/Documents/thesis/stm32f4/stm-idf/components/stm32f4xx_hal_driver/stm32f4xx_hal_rcc.c ****   if(RCC_OscInitStruct == NULL)
  54              		.loc 1 226 0
  55 0000 0028     		cmp	r0, #0
  56 0002 00F0E481 		beq	.L52
 222:/home/phong/Documents/thesis/stm32f4/stm-idf/components/stm32f4xx_hal_driver/stm32f4xx_hal_rcc.c ****   uint32_t tickstart, pll_config;
  57              		.loc 1 222 0
  58 0006 70B5     		push	{r4, r5, r6, lr}
  59              	.LCFI0:
  60              		.cfi_def_cfa_offset 16
  61              		.cfi_offset 4, -16
ARM GAS  /tmp/ccYos3sw.s 			page 6


  62              		.cfi_offset 5, -12
  63              		.cfi_offset 6, -8
  64              		.cfi_offset 14, -4
  65 0008 82B0     		sub	sp, sp, #8
  66              	.LCFI1:
  67              		.cfi_def_cfa_offset 24
  68 000a 0446     		mov	r4, r0
 227:/home/phong/Documents/thesis/stm32f4/stm-idf/components/stm32f4xx_hal_driver/stm32f4xx_hal_rcc.c ****   {
 228:/home/phong/Documents/thesis/stm32f4/stm-idf/components/stm32f4xx_hal_driver/stm32f4xx_hal_rcc.c ****     return HAL_ERROR;
 229:/home/phong/Documents/thesis/stm32f4/stm-idf/components/stm32f4xx_hal_driver/stm32f4xx_hal_rcc.c ****   }
 230:/home/phong/Documents/thesis/stm32f4/stm-idf/components/stm32f4xx_hal_driver/stm32f4xx_hal_rcc.c **** 
 231:/home/phong/Documents/thesis/stm32f4/stm-idf/components/stm32f4xx_hal_driver/stm32f4xx_hal_rcc.c ****   /* Check the parameters */
 232:/home/phong/Documents/thesis/stm32f4/stm-idf/components/stm32f4xx_hal_driver/stm32f4xx_hal_rcc.c ****   assert_param(IS_RCC_OSCILLATORTYPE(RCC_OscInitStruct->OscillatorType));
 233:/home/phong/Documents/thesis/stm32f4/stm-idf/components/stm32f4xx_hal_driver/stm32f4xx_hal_rcc.c ****   /*------------------------------- HSE Configuration ------------------------*/
 234:/home/phong/Documents/thesis/stm32f4/stm-idf/components/stm32f4xx_hal_driver/stm32f4xx_hal_rcc.c ****   if(((RCC_OscInitStruct->OscillatorType) & RCC_OSCILLATORTYPE_HSE) == RCC_OSCILLATORTYPE_HSE)
  69              		.loc 1 234 0
  70 000c 0368     		ldr	r3, [r0]
  71 000e 13F0010F 		tst	r3, #1
  72 0012 3BD0     		beq	.L4
 235:/home/phong/Documents/thesis/stm32f4/stm-idf/components/stm32f4xx_hal_driver/stm32f4xx_hal_rcc.c ****   {
 236:/home/phong/Documents/thesis/stm32f4/stm-idf/components/stm32f4xx_hal_driver/stm32f4xx_hal_rcc.c ****     /* Check the parameters */
 237:/home/phong/Documents/thesis/stm32f4/stm-idf/components/stm32f4xx_hal_driver/stm32f4xx_hal_rcc.c ****     assert_param(IS_RCC_HSE(RCC_OscInitStruct->HSEState));
 238:/home/phong/Documents/thesis/stm32f4/stm-idf/components/stm32f4xx_hal_driver/stm32f4xx_hal_rcc.c ****     /* When the HSE is used as system clock or clock source for PLL in these cases HSE will not dis
 239:/home/phong/Documents/thesis/stm32f4/stm-idf/components/stm32f4xx_hal_driver/stm32f4xx_hal_rcc.c ****     if((__HAL_RCC_GET_SYSCLK_SOURCE() == RCC_CFGR_SWS_HSE) ||\
  73              		.loc 1 239 0
  74 0014 A74B     		ldr	r3, .L97
  75 0016 9B68     		ldr	r3, [r3, #8]
  76 0018 03F00C03 		and	r3, r3, #12
  77 001c 042B     		cmp	r3, #4
  78 001e 2CD0     		beq	.L5
 240:/home/phong/Documents/thesis/stm32f4/stm-idf/components/stm32f4xx_hal_driver/stm32f4xx_hal_rcc.c ****       ((__HAL_RCC_GET_SYSCLK_SOURCE() == RCC_CFGR_SWS_PLL) && ((RCC->PLLCFGR & RCC_PLLCFGR_PLLSRC) 
  79              		.loc 1 240 0 discriminator 1
  80 0020 A44B     		ldr	r3, .L97
  81 0022 9B68     		ldr	r3, [r3, #8]
  82 0024 03F00C03 		and	r3, r3, #12
 239:/home/phong/Documents/thesis/stm32f4/stm-idf/components/stm32f4xx_hal_driver/stm32f4xx_hal_rcc.c ****       ((__HAL_RCC_GET_SYSCLK_SOURCE() == RCC_CFGR_SWS_PLL) && ((RCC->PLLCFGR & RCC_PLLCFGR_PLLSRC) 
  83              		.loc 1 239 0 discriminator 1
  84 0028 082B     		cmp	r3, #8
  85 002a 21D0     		beq	.L79
  86              	.L6:
 241:/home/phong/Documents/thesis/stm32f4/stm-idf/components/stm32f4xx_hal_driver/stm32f4xx_hal_rcc.c ****     {
 242:/home/phong/Documents/thesis/stm32f4/stm-idf/components/stm32f4xx_hal_driver/stm32f4xx_hal_rcc.c ****       if((__HAL_RCC_GET_FLAG(RCC_FLAG_HSERDY) != RESET) && (RCC_OscInitStruct->HSEState == RCC_HSE_
 243:/home/phong/Documents/thesis/stm32f4/stm-idf/components/stm32f4xx_hal_driver/stm32f4xx_hal_rcc.c ****       {
 244:/home/phong/Documents/thesis/stm32f4/stm-idf/components/stm32f4xx_hal_driver/stm32f4xx_hal_rcc.c ****         return HAL_ERROR;
 245:/home/phong/Documents/thesis/stm32f4/stm-idf/components/stm32f4xx_hal_driver/stm32f4xx_hal_rcc.c ****       }
 246:/home/phong/Documents/thesis/stm32f4/stm-idf/components/stm32f4xx_hal_driver/stm32f4xx_hal_rcc.c ****     }
 247:/home/phong/Documents/thesis/stm32f4/stm-idf/components/stm32f4xx_hal_driver/stm32f4xx_hal_rcc.c ****     else
 248:/home/phong/Documents/thesis/stm32f4/stm-idf/components/stm32f4xx_hal_driver/stm32f4xx_hal_rcc.c ****     {
 249:/home/phong/Documents/thesis/stm32f4/stm-idf/components/stm32f4xx_hal_driver/stm32f4xx_hal_rcc.c ****       /* Set the new HSE configuration ---------------------------------------*/
 250:/home/phong/Documents/thesis/stm32f4/stm-idf/components/stm32f4xx_hal_driver/stm32f4xx_hal_rcc.c ****       __HAL_RCC_HSE_CONFIG(RCC_OscInitStruct->HSEState);
  87              		.loc 1 250 0
  88 002c 6368     		ldr	r3, [r4, #4]
  89 002e B3F5803F 		cmp	r3, #65536
  90 0032 4FD0     		beq	.L80
  91              		.loc 1 250 0 is_stmt 0 discriminator 2
  92 0034 B3F5A02F 		cmp	r3, #327680
  93 0038 52D0     		beq	.L81
ARM GAS  /tmp/ccYos3sw.s 			page 7


  94              		.loc 1 250 0 discriminator 4
  95 003a 9E4B     		ldr	r3, .L97
  96 003c 1A68     		ldr	r2, [r3]
  97 003e 22F48032 		bic	r2, r2, #65536
  98 0042 1A60     		str	r2, [r3]
  99 0044 1A68     		ldr	r2, [r3]
 100 0046 22F48022 		bic	r2, r2, #262144
 101 004a 1A60     		str	r2, [r3]
 102              	.L8:
 251:/home/phong/Documents/thesis/stm32f4/stm-idf/components/stm32f4xx_hal_driver/stm32f4xx_hal_rcc.c **** 
 252:/home/phong/Documents/thesis/stm32f4/stm-idf/components/stm32f4xx_hal_driver/stm32f4xx_hal_rcc.c ****       /* Check the HSE State */
 253:/home/phong/Documents/thesis/stm32f4/stm-idf/components/stm32f4xx_hal_driver/stm32f4xx_hal_rcc.c ****       if((RCC_OscInitStruct->HSEState) != RCC_HSE_OFF)
 103              		.loc 1 253 0 is_stmt 1
 104 004c 6368     		ldr	r3, [r4, #4]
 105 004e 002B     		cmp	r3, #0
 106 0050 50D0     		beq	.L10
 254:/home/phong/Documents/thesis/stm32f4/stm-idf/components/stm32f4xx_hal_driver/stm32f4xx_hal_rcc.c ****       {
 255:/home/phong/Documents/thesis/stm32f4/stm-idf/components/stm32f4xx_hal_driver/stm32f4xx_hal_rcc.c ****         /* Get Start Tick */
 256:/home/phong/Documents/thesis/stm32f4/stm-idf/components/stm32f4xx_hal_driver/stm32f4xx_hal_rcc.c ****         tickstart = HAL_GetTick();
 107              		.loc 1 256 0
 108 0052 FFF7FEFF 		bl	HAL_GetTick
 109              	.LVL1:
 110 0056 0546     		mov	r5, r0
 111              	.LVL2:
 112              	.L11:
 257:/home/phong/Documents/thesis/stm32f4/stm-idf/components/stm32f4xx_hal_driver/stm32f4xx_hal_rcc.c **** 
 258:/home/phong/Documents/thesis/stm32f4/stm-idf/components/stm32f4xx_hal_driver/stm32f4xx_hal_rcc.c ****         /* Wait till HSE is ready */
 259:/home/phong/Documents/thesis/stm32f4/stm-idf/components/stm32f4xx_hal_driver/stm32f4xx_hal_rcc.c ****         while(__HAL_RCC_GET_FLAG(RCC_FLAG_HSERDY) == RESET)
 113              		.loc 1 259 0
 114 0058 964B     		ldr	r3, .L97
 115 005a 1B68     		ldr	r3, [r3]
 116 005c 13F4003F 		tst	r3, #131072
 117 0060 14D1     		bne	.L4
 260:/home/phong/Documents/thesis/stm32f4/stm-idf/components/stm32f4xx_hal_driver/stm32f4xx_hal_rcc.c ****         {
 261:/home/phong/Documents/thesis/stm32f4/stm-idf/components/stm32f4xx_hal_driver/stm32f4xx_hal_rcc.c ****           if((HAL_GetTick() - tickstart ) > HSE_TIMEOUT_VALUE)
 118              		.loc 1 261 0
 119 0062 FFF7FEFF 		bl	HAL_GetTick
 120              	.LVL3:
 121 0066 401B     		subs	r0, r0, r5
 122 0068 6428     		cmp	r0, #100
 123 006a F5D9     		bls	.L11
 262:/home/phong/Documents/thesis/stm32f4/stm-idf/components/stm32f4xx_hal_driver/stm32f4xx_hal_rcc.c ****           {
 263:/home/phong/Documents/thesis/stm32f4/stm-idf/components/stm32f4xx_hal_driver/stm32f4xx_hal_rcc.c ****             return HAL_TIMEOUT;
 124              		.loc 1 263 0
 125 006c 0320     		movs	r0, #3
 126 006e B3E1     		b	.L3
 127              	.LVL4:
 128              	.L79:
 240:/home/phong/Documents/thesis/stm32f4/stm-idf/components/stm32f4xx_hal_driver/stm32f4xx_hal_rcc.c ****     {
 129              		.loc 1 240 0
 130 0070 904B     		ldr	r3, .L97
 131 0072 5B68     		ldr	r3, [r3, #4]
 132 0074 13F4800F 		tst	r3, #4194304
 133 0078 D8D0     		beq	.L6
 134              	.L5:
 242:/home/phong/Documents/thesis/stm32f4/stm-idf/components/stm32f4xx_hal_driver/stm32f4xx_hal_rcc.c ****       {
 135              		.loc 1 242 0
ARM GAS  /tmp/ccYos3sw.s 			page 8


 136 007a 8E4B     		ldr	r3, .L97
 137 007c 1B68     		ldr	r3, [r3]
 138 007e 13F4003F 		tst	r3, #131072
 139 0082 03D0     		beq	.L4
 242:/home/phong/Documents/thesis/stm32f4/stm-idf/components/stm32f4xx_hal_driver/stm32f4xx_hal_rcc.c ****       {
 140              		.loc 1 242 0 is_stmt 0 discriminator 1
 141 0084 6368     		ldr	r3, [r4, #4]
 142 0086 002B     		cmp	r3, #0
 143 0088 00F0A381 		beq	.L82
 144              	.LVL5:
 145              	.L4:
 264:/home/phong/Documents/thesis/stm32f4/stm-idf/components/stm32f4xx_hal_driver/stm32f4xx_hal_rcc.c ****           }
 265:/home/phong/Documents/thesis/stm32f4/stm-idf/components/stm32f4xx_hal_driver/stm32f4xx_hal_rcc.c ****         }
 266:/home/phong/Documents/thesis/stm32f4/stm-idf/components/stm32f4xx_hal_driver/stm32f4xx_hal_rcc.c ****       }
 267:/home/phong/Documents/thesis/stm32f4/stm-idf/components/stm32f4xx_hal_driver/stm32f4xx_hal_rcc.c ****       else
 268:/home/phong/Documents/thesis/stm32f4/stm-idf/components/stm32f4xx_hal_driver/stm32f4xx_hal_rcc.c ****       {
 269:/home/phong/Documents/thesis/stm32f4/stm-idf/components/stm32f4xx_hal_driver/stm32f4xx_hal_rcc.c ****         /* Get Start Tick */
 270:/home/phong/Documents/thesis/stm32f4/stm-idf/components/stm32f4xx_hal_driver/stm32f4xx_hal_rcc.c ****         tickstart = HAL_GetTick();
 271:/home/phong/Documents/thesis/stm32f4/stm-idf/components/stm32f4xx_hal_driver/stm32f4xx_hal_rcc.c **** 
 272:/home/phong/Documents/thesis/stm32f4/stm-idf/components/stm32f4xx_hal_driver/stm32f4xx_hal_rcc.c ****         /* Wait till HSE is bypassed or disabled */
 273:/home/phong/Documents/thesis/stm32f4/stm-idf/components/stm32f4xx_hal_driver/stm32f4xx_hal_rcc.c ****         while(__HAL_RCC_GET_FLAG(RCC_FLAG_HSERDY) != RESET)
 274:/home/phong/Documents/thesis/stm32f4/stm-idf/components/stm32f4xx_hal_driver/stm32f4xx_hal_rcc.c ****         {
 275:/home/phong/Documents/thesis/stm32f4/stm-idf/components/stm32f4xx_hal_driver/stm32f4xx_hal_rcc.c ****           if((HAL_GetTick() - tickstart ) > HSE_TIMEOUT_VALUE)
 276:/home/phong/Documents/thesis/stm32f4/stm-idf/components/stm32f4xx_hal_driver/stm32f4xx_hal_rcc.c ****           {
 277:/home/phong/Documents/thesis/stm32f4/stm-idf/components/stm32f4xx_hal_driver/stm32f4xx_hal_rcc.c ****             return HAL_TIMEOUT;
 278:/home/phong/Documents/thesis/stm32f4/stm-idf/components/stm32f4xx_hal_driver/stm32f4xx_hal_rcc.c ****           }
 279:/home/phong/Documents/thesis/stm32f4/stm-idf/components/stm32f4xx_hal_driver/stm32f4xx_hal_rcc.c ****         }
 280:/home/phong/Documents/thesis/stm32f4/stm-idf/components/stm32f4xx_hal_driver/stm32f4xx_hal_rcc.c ****       }
 281:/home/phong/Documents/thesis/stm32f4/stm-idf/components/stm32f4xx_hal_driver/stm32f4xx_hal_rcc.c ****     }
 282:/home/phong/Documents/thesis/stm32f4/stm-idf/components/stm32f4xx_hal_driver/stm32f4xx_hal_rcc.c ****   }
 283:/home/phong/Documents/thesis/stm32f4/stm-idf/components/stm32f4xx_hal_driver/stm32f4xx_hal_rcc.c ****   /*----------------------------- HSI Configuration --------------------------*/
 284:/home/phong/Documents/thesis/stm32f4/stm-idf/components/stm32f4xx_hal_driver/stm32f4xx_hal_rcc.c ****   if(((RCC_OscInitStruct->OscillatorType) & RCC_OSCILLATORTYPE_HSI) == RCC_OSCILLATORTYPE_HSI)
 146              		.loc 1 284 0 is_stmt 1
 147 008c 2368     		ldr	r3, [r4]
 148 008e 13F0020F 		tst	r3, #2
 149 0092 55D0     		beq	.L15
 285:/home/phong/Documents/thesis/stm32f4/stm-idf/components/stm32f4xx_hal_driver/stm32f4xx_hal_rcc.c ****   {
 286:/home/phong/Documents/thesis/stm32f4/stm-idf/components/stm32f4xx_hal_driver/stm32f4xx_hal_rcc.c ****     /* Check the parameters */
 287:/home/phong/Documents/thesis/stm32f4/stm-idf/components/stm32f4xx_hal_driver/stm32f4xx_hal_rcc.c ****     assert_param(IS_RCC_HSI(RCC_OscInitStruct->HSIState));
 288:/home/phong/Documents/thesis/stm32f4/stm-idf/components/stm32f4xx_hal_driver/stm32f4xx_hal_rcc.c ****     assert_param(IS_RCC_CALIBRATION_VALUE(RCC_OscInitStruct->HSICalibrationValue));
 289:/home/phong/Documents/thesis/stm32f4/stm-idf/components/stm32f4xx_hal_driver/stm32f4xx_hal_rcc.c **** 
 290:/home/phong/Documents/thesis/stm32f4/stm-idf/components/stm32f4xx_hal_driver/stm32f4xx_hal_rcc.c ****     /* Check if HSI is used as system clock or as PLL source when PLL is selected as system clock *
 291:/home/phong/Documents/thesis/stm32f4/stm-idf/components/stm32f4xx_hal_driver/stm32f4xx_hal_rcc.c ****     if((__HAL_RCC_GET_SYSCLK_SOURCE() == RCC_CFGR_SWS_HSI) ||\
 150              		.loc 1 291 0
 151 0094 874B     		ldr	r3, .L97
 152 0096 9B68     		ldr	r3, [r3, #8]
 153 0098 13F00C0F 		tst	r3, #12
 154 009c 3ED0     		beq	.L16
 292:/home/phong/Documents/thesis/stm32f4/stm-idf/components/stm32f4xx_hal_driver/stm32f4xx_hal_rcc.c ****       ((__HAL_RCC_GET_SYSCLK_SOURCE() == RCC_CFGR_SWS_PLL) && ((RCC->PLLCFGR & RCC_PLLCFGR_PLLSRC) 
 155              		.loc 1 292 0 discriminator 1
 156 009e 854B     		ldr	r3, .L97
 157 00a0 9B68     		ldr	r3, [r3, #8]
 158 00a2 03F00C03 		and	r3, r3, #12
 291:/home/phong/Documents/thesis/stm32f4/stm-idf/components/stm32f4xx_hal_driver/stm32f4xx_hal_rcc.c ****       ((__HAL_RCC_GET_SYSCLK_SOURCE() == RCC_CFGR_SWS_PLL) && ((RCC->PLLCFGR & RCC_PLLCFGR_PLLSRC) 
 159              		.loc 1 291 0 discriminator 1
 160 00a6 082B     		cmp	r3, #8
 161 00a8 33D0     		beq	.L83
ARM GAS  /tmp/ccYos3sw.s 			page 9


 162              	.L17:
 293:/home/phong/Documents/thesis/stm32f4/stm-idf/components/stm32f4xx_hal_driver/stm32f4xx_hal_rcc.c ****     {
 294:/home/phong/Documents/thesis/stm32f4/stm-idf/components/stm32f4xx_hal_driver/stm32f4xx_hal_rcc.c ****       /* When HSI is used as system clock it will not disabled */
 295:/home/phong/Documents/thesis/stm32f4/stm-idf/components/stm32f4xx_hal_driver/stm32f4xx_hal_rcc.c ****       if((__HAL_RCC_GET_FLAG(RCC_FLAG_HSIRDY) != RESET) && (RCC_OscInitStruct->HSIState != RCC_HSI_
 296:/home/phong/Documents/thesis/stm32f4/stm-idf/components/stm32f4xx_hal_driver/stm32f4xx_hal_rcc.c ****       {
 297:/home/phong/Documents/thesis/stm32f4/stm-idf/components/stm32f4xx_hal_driver/stm32f4xx_hal_rcc.c ****         return HAL_ERROR;
 298:/home/phong/Documents/thesis/stm32f4/stm-idf/components/stm32f4xx_hal_driver/stm32f4xx_hal_rcc.c ****       }
 299:/home/phong/Documents/thesis/stm32f4/stm-idf/components/stm32f4xx_hal_driver/stm32f4xx_hal_rcc.c ****       /* Otherwise, just the calibration is allowed */
 300:/home/phong/Documents/thesis/stm32f4/stm-idf/components/stm32f4xx_hal_driver/stm32f4xx_hal_rcc.c ****       else
 301:/home/phong/Documents/thesis/stm32f4/stm-idf/components/stm32f4xx_hal_driver/stm32f4xx_hal_rcc.c ****       {
 302:/home/phong/Documents/thesis/stm32f4/stm-idf/components/stm32f4xx_hal_driver/stm32f4xx_hal_rcc.c ****         /* Adjusts the Internal High Speed oscillator (HSI) calibration value.*/
 303:/home/phong/Documents/thesis/stm32f4/stm-idf/components/stm32f4xx_hal_driver/stm32f4xx_hal_rcc.c ****         __HAL_RCC_HSI_CALIBRATIONVALUE_ADJUST(RCC_OscInitStruct->HSICalibrationValue);
 304:/home/phong/Documents/thesis/stm32f4/stm-idf/components/stm32f4xx_hal_driver/stm32f4xx_hal_rcc.c ****       }
 305:/home/phong/Documents/thesis/stm32f4/stm-idf/components/stm32f4xx_hal_driver/stm32f4xx_hal_rcc.c ****     }
 306:/home/phong/Documents/thesis/stm32f4/stm-idf/components/stm32f4xx_hal_driver/stm32f4xx_hal_rcc.c ****     else
 307:/home/phong/Documents/thesis/stm32f4/stm-idf/components/stm32f4xx_hal_driver/stm32f4xx_hal_rcc.c ****     {
 308:/home/phong/Documents/thesis/stm32f4/stm-idf/components/stm32f4xx_hal_driver/stm32f4xx_hal_rcc.c ****       /* Check the HSI State */
 309:/home/phong/Documents/thesis/stm32f4/stm-idf/components/stm32f4xx_hal_driver/stm32f4xx_hal_rcc.c ****       if((RCC_OscInitStruct->HSIState)!= RCC_HSI_OFF)
 163              		.loc 1 309 0
 164 00aa E368     		ldr	r3, [r4, #12]
 165 00ac 002B     		cmp	r3, #0
 166 00ae 68D0     		beq	.L19
 310:/home/phong/Documents/thesis/stm32f4/stm-idf/components/stm32f4xx_hal_driver/stm32f4xx_hal_rcc.c ****       {
 311:/home/phong/Documents/thesis/stm32f4/stm-idf/components/stm32f4xx_hal_driver/stm32f4xx_hal_rcc.c ****         /* Enable the Internal High Speed oscillator (HSI). */
 312:/home/phong/Documents/thesis/stm32f4/stm-idf/components/stm32f4xx_hal_driver/stm32f4xx_hal_rcc.c ****         __HAL_RCC_HSI_ENABLE();
 167              		.loc 1 312 0
 168 00b0 0122     		movs	r2, #1
 169 00b2 814B     		ldr	r3, .L97+4
 170 00b4 1A60     		str	r2, [r3]
 313:/home/phong/Documents/thesis/stm32f4/stm-idf/components/stm32f4xx_hal_driver/stm32f4xx_hal_rcc.c **** 
 314:/home/phong/Documents/thesis/stm32f4/stm-idf/components/stm32f4xx_hal_driver/stm32f4xx_hal_rcc.c ****         /* Get Start Tick*/
 315:/home/phong/Documents/thesis/stm32f4/stm-idf/components/stm32f4xx_hal_driver/stm32f4xx_hal_rcc.c ****         tickstart = HAL_GetTick();
 171              		.loc 1 315 0
 172 00b6 FFF7FEFF 		bl	HAL_GetTick
 173              	.LVL6:
 174 00ba 0546     		mov	r5, r0
 175              	.LVL7:
 176              	.L20:
 316:/home/phong/Documents/thesis/stm32f4/stm-idf/components/stm32f4xx_hal_driver/stm32f4xx_hal_rcc.c **** 
 317:/home/phong/Documents/thesis/stm32f4/stm-idf/components/stm32f4xx_hal_driver/stm32f4xx_hal_rcc.c ****         /* Wait till HSI is ready */
 318:/home/phong/Documents/thesis/stm32f4/stm-idf/components/stm32f4xx_hal_driver/stm32f4xx_hal_rcc.c ****         while(__HAL_RCC_GET_FLAG(RCC_FLAG_HSIRDY) == RESET)
 177              		.loc 1 318 0
 178 00bc 7D4B     		ldr	r3, .L97
 179 00be 1B68     		ldr	r3, [r3]
 180 00c0 13F0020F 		tst	r3, #2
 181 00c4 54D1     		bne	.L84
 319:/home/phong/Documents/thesis/stm32f4/stm-idf/components/stm32f4xx_hal_driver/stm32f4xx_hal_rcc.c ****         {
 320:/home/phong/Documents/thesis/stm32f4/stm-idf/components/stm32f4xx_hal_driver/stm32f4xx_hal_rcc.c ****           if((HAL_GetTick() - tickstart ) > HSI_TIMEOUT_VALUE)
 182              		.loc 1 320 0
 183 00c6 FFF7FEFF 		bl	HAL_GetTick
 184              	.LVL8:
 185 00ca 401B     		subs	r0, r0, r5
 186 00cc 0228     		cmp	r0, #2
 187 00ce F5D9     		bls	.L20
 321:/home/phong/Documents/thesis/stm32f4/stm-idf/components/stm32f4xx_hal_driver/stm32f4xx_hal_rcc.c ****           {
 322:/home/phong/Documents/thesis/stm32f4/stm-idf/components/stm32f4xx_hal_driver/stm32f4xx_hal_rcc.c ****             return HAL_TIMEOUT;
 188              		.loc 1 322 0
ARM GAS  /tmp/ccYos3sw.s 			page 10


 189 00d0 0320     		movs	r0, #3
 190 00d2 81E1     		b	.L3
 191              	.LVL9:
 192              	.L80:
 250:/home/phong/Documents/thesis/stm32f4/stm-idf/components/stm32f4xx_hal_driver/stm32f4xx_hal_rcc.c **** 
 193              		.loc 1 250 0 discriminator 1
 194 00d4 774A     		ldr	r2, .L97
 195 00d6 1368     		ldr	r3, [r2]
 196 00d8 43F48033 		orr	r3, r3, #65536
 197 00dc 1360     		str	r3, [r2]
 198 00de B5E7     		b	.L8
 199              	.L81:
 250:/home/phong/Documents/thesis/stm32f4/stm-idf/components/stm32f4xx_hal_driver/stm32f4xx_hal_rcc.c **** 
 200              		.loc 1 250 0 is_stmt 0 discriminator 3
 201 00e0 744B     		ldr	r3, .L97
 202 00e2 1A68     		ldr	r2, [r3]
 203 00e4 42F48022 		orr	r2, r2, #262144
 204 00e8 1A60     		str	r2, [r3]
 205 00ea 1A68     		ldr	r2, [r3]
 206 00ec 42F48032 		orr	r2, r2, #65536
 207 00f0 1A60     		str	r2, [r3]
 208 00f2 ABE7     		b	.L8
 209              	.L10:
 270:/home/phong/Documents/thesis/stm32f4/stm-idf/components/stm32f4xx_hal_driver/stm32f4xx_hal_rcc.c **** 
 210              		.loc 1 270 0 is_stmt 1
 211 00f4 FFF7FEFF 		bl	HAL_GetTick
 212              	.LVL10:
 213 00f8 0546     		mov	r5, r0
 214              	.LVL11:
 215              	.L13:
 273:/home/phong/Documents/thesis/stm32f4/stm-idf/components/stm32f4xx_hal_driver/stm32f4xx_hal_rcc.c ****         {
 216              		.loc 1 273 0
 217 00fa 6E4B     		ldr	r3, .L97
 218 00fc 1B68     		ldr	r3, [r3]
 219 00fe 13F4003F 		tst	r3, #131072
 220 0102 C3D0     		beq	.L4
 275:/home/phong/Documents/thesis/stm32f4/stm-idf/components/stm32f4xx_hal_driver/stm32f4xx_hal_rcc.c ****           {
 221              		.loc 1 275 0
 222 0104 FFF7FEFF 		bl	HAL_GetTick
 223              	.LVL12:
 224 0108 401B     		subs	r0, r0, r5
 225 010a 6428     		cmp	r0, #100
 226 010c F5D9     		bls	.L13
 277:/home/phong/Documents/thesis/stm32f4/stm-idf/components/stm32f4xx_hal_driver/stm32f4xx_hal_rcc.c ****           }
 227              		.loc 1 277 0
 228 010e 0320     		movs	r0, #3
 229 0110 62E1     		b	.L3
 230              	.LVL13:
 231              	.L83:
 292:/home/phong/Documents/thesis/stm32f4/stm-idf/components/stm32f4xx_hal_driver/stm32f4xx_hal_rcc.c ****     {
 232              		.loc 1 292 0
 233 0112 684B     		ldr	r3, .L97
 234 0114 5B68     		ldr	r3, [r3, #4]
 235 0116 13F4800F 		tst	r3, #4194304
 236 011a C6D1     		bne	.L17
 237              	.L16:
 295:/home/phong/Documents/thesis/stm32f4/stm-idf/components/stm32f4xx_hal_driver/stm32f4xx_hal_rcc.c ****       {
ARM GAS  /tmp/ccYos3sw.s 			page 11


 238              		.loc 1 295 0
 239 011c 654B     		ldr	r3, .L97
 240 011e 1B68     		ldr	r3, [r3]
 241 0120 13F0020F 		tst	r3, #2
 242 0124 04D0     		beq	.L18
 295:/home/phong/Documents/thesis/stm32f4/stm-idf/components/stm32f4xx_hal_driver/stm32f4xx_hal_rcc.c ****       {
 243              		.loc 1 295 0 is_stmt 0 discriminator 1
 244 0126 E368     		ldr	r3, [r4, #12]
 245 0128 012B     		cmp	r3, #1
 246 012a 01D0     		beq	.L18
 297:/home/phong/Documents/thesis/stm32f4/stm-idf/components/stm32f4xx_hal_driver/stm32f4xx_hal_rcc.c ****       }
 247              		.loc 1 297 0 is_stmt 1
 248 012c 0120     		movs	r0, #1
 249 012e 53E1     		b	.L3
 250              	.L18:
 303:/home/phong/Documents/thesis/stm32f4/stm-idf/components/stm32f4xx_hal_driver/stm32f4xx_hal_rcc.c ****       }
 251              		.loc 1 303 0
 252 0130 604A     		ldr	r2, .L97
 253 0132 1368     		ldr	r3, [r2]
 254 0134 23F0F803 		bic	r3, r3, #248
 255 0138 2169     		ldr	r1, [r4, #16]
 256 013a 43EAC103 		orr	r3, r3, r1, lsl #3
 257 013e 1360     		str	r3, [r2]
 258              	.L15:
 323:/home/phong/Documents/thesis/stm32f4/stm-idf/components/stm32f4xx_hal_driver/stm32f4xx_hal_rcc.c ****           }
 324:/home/phong/Documents/thesis/stm32f4/stm-idf/components/stm32f4xx_hal_driver/stm32f4xx_hal_rcc.c ****         }
 325:/home/phong/Documents/thesis/stm32f4/stm-idf/components/stm32f4xx_hal_driver/stm32f4xx_hal_rcc.c **** 
 326:/home/phong/Documents/thesis/stm32f4/stm-idf/components/stm32f4xx_hal_driver/stm32f4xx_hal_rcc.c ****         /* Adjusts the Internal High Speed oscillator (HSI) calibration value. */
 327:/home/phong/Documents/thesis/stm32f4/stm-idf/components/stm32f4xx_hal_driver/stm32f4xx_hal_rcc.c ****         __HAL_RCC_HSI_CALIBRATIONVALUE_ADJUST(RCC_OscInitStruct->HSICalibrationValue);
 328:/home/phong/Documents/thesis/stm32f4/stm-idf/components/stm32f4xx_hal_driver/stm32f4xx_hal_rcc.c ****       }
 329:/home/phong/Documents/thesis/stm32f4/stm-idf/components/stm32f4xx_hal_driver/stm32f4xx_hal_rcc.c ****       else
 330:/home/phong/Documents/thesis/stm32f4/stm-idf/components/stm32f4xx_hal_driver/stm32f4xx_hal_rcc.c ****       {
 331:/home/phong/Documents/thesis/stm32f4/stm-idf/components/stm32f4xx_hal_driver/stm32f4xx_hal_rcc.c ****         /* Disable the Internal High Speed oscillator (HSI). */
 332:/home/phong/Documents/thesis/stm32f4/stm-idf/components/stm32f4xx_hal_driver/stm32f4xx_hal_rcc.c ****         __HAL_RCC_HSI_DISABLE();
 333:/home/phong/Documents/thesis/stm32f4/stm-idf/components/stm32f4xx_hal_driver/stm32f4xx_hal_rcc.c **** 
 334:/home/phong/Documents/thesis/stm32f4/stm-idf/components/stm32f4xx_hal_driver/stm32f4xx_hal_rcc.c ****         /* Get Start Tick*/
 335:/home/phong/Documents/thesis/stm32f4/stm-idf/components/stm32f4xx_hal_driver/stm32f4xx_hal_rcc.c ****         tickstart = HAL_GetTick();
 336:/home/phong/Documents/thesis/stm32f4/stm-idf/components/stm32f4xx_hal_driver/stm32f4xx_hal_rcc.c **** 
 337:/home/phong/Documents/thesis/stm32f4/stm-idf/components/stm32f4xx_hal_driver/stm32f4xx_hal_rcc.c ****         /* Wait till HSI is ready */
 338:/home/phong/Documents/thesis/stm32f4/stm-idf/components/stm32f4xx_hal_driver/stm32f4xx_hal_rcc.c ****         while(__HAL_RCC_GET_FLAG(RCC_FLAG_HSIRDY) != RESET)
 339:/home/phong/Documents/thesis/stm32f4/stm-idf/components/stm32f4xx_hal_driver/stm32f4xx_hal_rcc.c ****         {
 340:/home/phong/Documents/thesis/stm32f4/stm-idf/components/stm32f4xx_hal_driver/stm32f4xx_hal_rcc.c ****           if((HAL_GetTick() - tickstart ) > HSI_TIMEOUT_VALUE)
 341:/home/phong/Documents/thesis/stm32f4/stm-idf/components/stm32f4xx_hal_driver/stm32f4xx_hal_rcc.c ****           {
 342:/home/phong/Documents/thesis/stm32f4/stm-idf/components/stm32f4xx_hal_driver/stm32f4xx_hal_rcc.c ****             return HAL_TIMEOUT;
 343:/home/phong/Documents/thesis/stm32f4/stm-idf/components/stm32f4xx_hal_driver/stm32f4xx_hal_rcc.c ****           }
 344:/home/phong/Documents/thesis/stm32f4/stm-idf/components/stm32f4xx_hal_driver/stm32f4xx_hal_rcc.c ****         }
 345:/home/phong/Documents/thesis/stm32f4/stm-idf/components/stm32f4xx_hal_driver/stm32f4xx_hal_rcc.c ****       }
 346:/home/phong/Documents/thesis/stm32f4/stm-idf/components/stm32f4xx_hal_driver/stm32f4xx_hal_rcc.c ****     }
 347:/home/phong/Documents/thesis/stm32f4/stm-idf/components/stm32f4xx_hal_driver/stm32f4xx_hal_rcc.c ****   }
 348:/home/phong/Documents/thesis/stm32f4/stm-idf/components/stm32f4xx_hal_driver/stm32f4xx_hal_rcc.c ****   /*------------------------------ LSI Configuration -------------------------*/
 349:/home/phong/Documents/thesis/stm32f4/stm-idf/components/stm32f4xx_hal_driver/stm32f4xx_hal_rcc.c ****   if(((RCC_OscInitStruct->OscillatorType) & RCC_OSCILLATORTYPE_LSI) == RCC_OSCILLATORTYPE_LSI)
 259              		.loc 1 349 0
 260 0140 2368     		ldr	r3, [r4]
 261 0142 13F0080F 		tst	r3, #8
 262 0146 40D0     		beq	.L24
 350:/home/phong/Documents/thesis/stm32f4/stm-idf/components/stm32f4xx_hal_driver/stm32f4xx_hal_rcc.c ****   {
 351:/home/phong/Documents/thesis/stm32f4/stm-idf/components/stm32f4xx_hal_driver/stm32f4xx_hal_rcc.c ****     /* Check the parameters */
ARM GAS  /tmp/ccYos3sw.s 			page 12


 352:/home/phong/Documents/thesis/stm32f4/stm-idf/components/stm32f4xx_hal_driver/stm32f4xx_hal_rcc.c ****     assert_param(IS_RCC_LSI(RCC_OscInitStruct->LSIState));
 353:/home/phong/Documents/thesis/stm32f4/stm-idf/components/stm32f4xx_hal_driver/stm32f4xx_hal_rcc.c **** 
 354:/home/phong/Documents/thesis/stm32f4/stm-idf/components/stm32f4xx_hal_driver/stm32f4xx_hal_rcc.c ****     /* Check the LSI State */
 355:/home/phong/Documents/thesis/stm32f4/stm-idf/components/stm32f4xx_hal_driver/stm32f4xx_hal_rcc.c ****     if((RCC_OscInitStruct->LSIState)!= RCC_LSI_OFF)
 263              		.loc 1 355 0
 264 0148 6369     		ldr	r3, [r4, #20]
 265 014a 63B3     		cbz	r3, .L25
 356:/home/phong/Documents/thesis/stm32f4/stm-idf/components/stm32f4xx_hal_driver/stm32f4xx_hal_rcc.c ****     {
 357:/home/phong/Documents/thesis/stm32f4/stm-idf/components/stm32f4xx_hal_driver/stm32f4xx_hal_rcc.c ****       /* Enable the Internal Low Speed oscillator (LSI). */
 358:/home/phong/Documents/thesis/stm32f4/stm-idf/components/stm32f4xx_hal_driver/stm32f4xx_hal_rcc.c ****       __HAL_RCC_LSI_ENABLE();
 266              		.loc 1 358 0
 267 014c 0122     		movs	r2, #1
 268 014e 5B4B     		ldr	r3, .L97+8
 269 0150 1A60     		str	r2, [r3]
 359:/home/phong/Documents/thesis/stm32f4/stm-idf/components/stm32f4xx_hal_driver/stm32f4xx_hal_rcc.c **** 
 360:/home/phong/Documents/thesis/stm32f4/stm-idf/components/stm32f4xx_hal_driver/stm32f4xx_hal_rcc.c ****       /* Get Start Tick*/
 361:/home/phong/Documents/thesis/stm32f4/stm-idf/components/stm32f4xx_hal_driver/stm32f4xx_hal_rcc.c ****       tickstart = HAL_GetTick();
 270              		.loc 1 361 0
 271 0152 FFF7FEFF 		bl	HAL_GetTick
 272              	.LVL14:
 273 0156 0546     		mov	r5, r0
 274              	.LVL15:
 275              	.L26:
 362:/home/phong/Documents/thesis/stm32f4/stm-idf/components/stm32f4xx_hal_driver/stm32f4xx_hal_rcc.c **** 
 363:/home/phong/Documents/thesis/stm32f4/stm-idf/components/stm32f4xx_hal_driver/stm32f4xx_hal_rcc.c ****       /* Wait till LSI is ready */
 364:/home/phong/Documents/thesis/stm32f4/stm-idf/components/stm32f4xx_hal_driver/stm32f4xx_hal_rcc.c ****       while(__HAL_RCC_GET_FLAG(RCC_FLAG_LSIRDY) == RESET)
 276              		.loc 1 364 0
 277 0158 564B     		ldr	r3, .L97
 278 015a 5B6F     		ldr	r3, [r3, #116]
 279 015c 13F0020F 		tst	r3, #2
 280 0160 33D1     		bne	.L24
 365:/home/phong/Documents/thesis/stm32f4/stm-idf/components/stm32f4xx_hal_driver/stm32f4xx_hal_rcc.c ****       {
 366:/home/phong/Documents/thesis/stm32f4/stm-idf/components/stm32f4xx_hal_driver/stm32f4xx_hal_rcc.c ****         if((HAL_GetTick() - tickstart ) > LSI_TIMEOUT_VALUE)
 281              		.loc 1 366 0
 282 0162 FFF7FEFF 		bl	HAL_GetTick
 283              	.LVL16:
 284 0166 401B     		subs	r0, r0, r5
 285 0168 0228     		cmp	r0, #2
 286 016a F5D9     		bls	.L26
 367:/home/phong/Documents/thesis/stm32f4/stm-idf/components/stm32f4xx_hal_driver/stm32f4xx_hal_rcc.c ****         {
 368:/home/phong/Documents/thesis/stm32f4/stm-idf/components/stm32f4xx_hal_driver/stm32f4xx_hal_rcc.c ****           return HAL_TIMEOUT;
 287              		.loc 1 368 0
 288 016c 0320     		movs	r0, #3
 289 016e 33E1     		b	.L3
 290              	.L84:
 327:/home/phong/Documents/thesis/stm32f4/stm-idf/components/stm32f4xx_hal_driver/stm32f4xx_hal_rcc.c ****       }
 291              		.loc 1 327 0
 292 0170 504A     		ldr	r2, .L97
 293 0172 1368     		ldr	r3, [r2]
 294 0174 23F0F803 		bic	r3, r3, #248
 295 0178 2169     		ldr	r1, [r4, #16]
 296 017a 43EAC103 		orr	r3, r3, r1, lsl #3
 297 017e 1360     		str	r3, [r2]
 298 0180 DEE7     		b	.L15
 299              	.LVL17:
 300              	.L19:
 332:/home/phong/Documents/thesis/stm32f4/stm-idf/components/stm32f4xx_hal_driver/stm32f4xx_hal_rcc.c **** 
ARM GAS  /tmp/ccYos3sw.s 			page 13


 301              		.loc 1 332 0
 302 0182 0022     		movs	r2, #0
 303 0184 4C4B     		ldr	r3, .L97+4
 304 0186 1A60     		str	r2, [r3]
 335:/home/phong/Documents/thesis/stm32f4/stm-idf/components/stm32f4xx_hal_driver/stm32f4xx_hal_rcc.c **** 
 305              		.loc 1 335 0
 306 0188 FFF7FEFF 		bl	HAL_GetTick
 307              	.LVL18:
 308 018c 0546     		mov	r5, r0
 309              	.LVL19:
 310              	.L22:
 338:/home/phong/Documents/thesis/stm32f4/stm-idf/components/stm32f4xx_hal_driver/stm32f4xx_hal_rcc.c ****         {
 311              		.loc 1 338 0
 312 018e 494B     		ldr	r3, .L97
 313 0190 1B68     		ldr	r3, [r3]
 314 0192 13F0020F 		tst	r3, #2
 315 0196 D3D0     		beq	.L15
 340:/home/phong/Documents/thesis/stm32f4/stm-idf/components/stm32f4xx_hal_driver/stm32f4xx_hal_rcc.c ****           {
 316              		.loc 1 340 0
 317 0198 FFF7FEFF 		bl	HAL_GetTick
 318              	.LVL20:
 319 019c 401B     		subs	r0, r0, r5
 320 019e 0228     		cmp	r0, #2
 321 01a0 F5D9     		bls	.L22
 342:/home/phong/Documents/thesis/stm32f4/stm-idf/components/stm32f4xx_hal_driver/stm32f4xx_hal_rcc.c ****           }
 322              		.loc 1 342 0
 323 01a2 0320     		movs	r0, #3
 324 01a4 18E1     		b	.L3
 325              	.LVL21:
 326              	.L25:
 369:/home/phong/Documents/thesis/stm32f4/stm-idf/components/stm32f4xx_hal_driver/stm32f4xx_hal_rcc.c ****         }
 370:/home/phong/Documents/thesis/stm32f4/stm-idf/components/stm32f4xx_hal_driver/stm32f4xx_hal_rcc.c ****       }
 371:/home/phong/Documents/thesis/stm32f4/stm-idf/components/stm32f4xx_hal_driver/stm32f4xx_hal_rcc.c ****     }
 372:/home/phong/Documents/thesis/stm32f4/stm-idf/components/stm32f4xx_hal_driver/stm32f4xx_hal_rcc.c ****     else
 373:/home/phong/Documents/thesis/stm32f4/stm-idf/components/stm32f4xx_hal_driver/stm32f4xx_hal_rcc.c ****     {
 374:/home/phong/Documents/thesis/stm32f4/stm-idf/components/stm32f4xx_hal_driver/stm32f4xx_hal_rcc.c ****       /* Disable the Internal Low Speed oscillator (LSI). */
 375:/home/phong/Documents/thesis/stm32f4/stm-idf/components/stm32f4xx_hal_driver/stm32f4xx_hal_rcc.c ****       __HAL_RCC_LSI_DISABLE();
 327              		.loc 1 375 0
 328 01a6 0022     		movs	r2, #0
 329 01a8 444B     		ldr	r3, .L97+8
 330 01aa 1A60     		str	r2, [r3]
 376:/home/phong/Documents/thesis/stm32f4/stm-idf/components/stm32f4xx_hal_driver/stm32f4xx_hal_rcc.c **** 
 377:/home/phong/Documents/thesis/stm32f4/stm-idf/components/stm32f4xx_hal_driver/stm32f4xx_hal_rcc.c ****       /* Get Start Tick */
 378:/home/phong/Documents/thesis/stm32f4/stm-idf/components/stm32f4xx_hal_driver/stm32f4xx_hal_rcc.c ****       tickstart = HAL_GetTick();
 331              		.loc 1 378 0
 332 01ac FFF7FEFF 		bl	HAL_GetTick
 333              	.LVL22:
 334 01b0 0546     		mov	r5, r0
 335              	.LVL23:
 336              	.L28:
 379:/home/phong/Documents/thesis/stm32f4/stm-idf/components/stm32f4xx_hal_driver/stm32f4xx_hal_rcc.c **** 
 380:/home/phong/Documents/thesis/stm32f4/stm-idf/components/stm32f4xx_hal_driver/stm32f4xx_hal_rcc.c ****       /* Wait till LSI is ready */
 381:/home/phong/Documents/thesis/stm32f4/stm-idf/components/stm32f4xx_hal_driver/stm32f4xx_hal_rcc.c ****       while(__HAL_RCC_GET_FLAG(RCC_FLAG_LSIRDY) != RESET)
 337              		.loc 1 381 0
 338 01b2 404B     		ldr	r3, .L97
 339 01b4 5B6F     		ldr	r3, [r3, #116]
 340 01b6 13F0020F 		tst	r3, #2
ARM GAS  /tmp/ccYos3sw.s 			page 14


 341 01ba 06D0     		beq	.L24
 382:/home/phong/Documents/thesis/stm32f4/stm-idf/components/stm32f4xx_hal_driver/stm32f4xx_hal_rcc.c ****       {
 383:/home/phong/Documents/thesis/stm32f4/stm-idf/components/stm32f4xx_hal_driver/stm32f4xx_hal_rcc.c ****         if((HAL_GetTick() - tickstart ) > LSI_TIMEOUT_VALUE)
 342              		.loc 1 383 0
 343 01bc FFF7FEFF 		bl	HAL_GetTick
 344              	.LVL24:
 345 01c0 401B     		subs	r0, r0, r5
 346 01c2 0228     		cmp	r0, #2
 347 01c4 F5D9     		bls	.L28
 384:/home/phong/Documents/thesis/stm32f4/stm-idf/components/stm32f4xx_hal_driver/stm32f4xx_hal_rcc.c ****         {
 385:/home/phong/Documents/thesis/stm32f4/stm-idf/components/stm32f4xx_hal_driver/stm32f4xx_hal_rcc.c ****           return HAL_TIMEOUT;
 348              		.loc 1 385 0
 349 01c6 0320     		movs	r0, #3
 350 01c8 06E1     		b	.L3
 351              	.LVL25:
 352              	.L24:
 386:/home/phong/Documents/thesis/stm32f4/stm-idf/components/stm32f4xx_hal_driver/stm32f4xx_hal_rcc.c ****         }
 387:/home/phong/Documents/thesis/stm32f4/stm-idf/components/stm32f4xx_hal_driver/stm32f4xx_hal_rcc.c ****       }
 388:/home/phong/Documents/thesis/stm32f4/stm-idf/components/stm32f4xx_hal_driver/stm32f4xx_hal_rcc.c ****     }
 389:/home/phong/Documents/thesis/stm32f4/stm-idf/components/stm32f4xx_hal_driver/stm32f4xx_hal_rcc.c ****   }
 390:/home/phong/Documents/thesis/stm32f4/stm-idf/components/stm32f4xx_hal_driver/stm32f4xx_hal_rcc.c ****   /*------------------------------ LSE Configuration -------------------------*/
 391:/home/phong/Documents/thesis/stm32f4/stm-idf/components/stm32f4xx_hal_driver/stm32f4xx_hal_rcc.c ****   if(((RCC_OscInitStruct->OscillatorType) & RCC_OSCILLATORTYPE_LSE) == RCC_OSCILLATORTYPE_LSE)
 353              		.loc 1 391 0
 354 01ca 2368     		ldr	r3, [r4]
 355 01cc 13F0040F 		tst	r3, #4
 356 01d0 79D0     		beq	.L30
 357              	.LVL26:
 358              	.LBB2:
 392:/home/phong/Documents/thesis/stm32f4/stm-idf/components/stm32f4xx_hal_driver/stm32f4xx_hal_rcc.c ****   {
 393:/home/phong/Documents/thesis/stm32f4/stm-idf/components/stm32f4xx_hal_driver/stm32f4xx_hal_rcc.c ****     FlagStatus       pwrclkchanged = RESET;
 394:/home/phong/Documents/thesis/stm32f4/stm-idf/components/stm32f4xx_hal_driver/stm32f4xx_hal_rcc.c **** 
 395:/home/phong/Documents/thesis/stm32f4/stm-idf/components/stm32f4xx_hal_driver/stm32f4xx_hal_rcc.c ****     /* Check the parameters */
 396:/home/phong/Documents/thesis/stm32f4/stm-idf/components/stm32f4xx_hal_driver/stm32f4xx_hal_rcc.c ****     assert_param(IS_RCC_LSE(RCC_OscInitStruct->LSEState));
 397:/home/phong/Documents/thesis/stm32f4/stm-idf/components/stm32f4xx_hal_driver/stm32f4xx_hal_rcc.c **** 
 398:/home/phong/Documents/thesis/stm32f4/stm-idf/components/stm32f4xx_hal_driver/stm32f4xx_hal_rcc.c ****     /* Update LSE configuration in Backup Domain control register    */
 399:/home/phong/Documents/thesis/stm32f4/stm-idf/components/stm32f4xx_hal_driver/stm32f4xx_hal_rcc.c ****     /* Requires to enable write access to Backup Domain of necessary */
 400:/home/phong/Documents/thesis/stm32f4/stm-idf/components/stm32f4xx_hal_driver/stm32f4xx_hal_rcc.c ****     if(__HAL_RCC_PWR_IS_CLK_DISABLED())
 359              		.loc 1 400 0
 360 01d2 384B     		ldr	r3, .L97
 361 01d4 1B6C     		ldr	r3, [r3, #64]
 362 01d6 13F0805F 		tst	r3, #268435456
 363 01da 33D1     		bne	.L61
 364              	.LBB3:
 401:/home/phong/Documents/thesis/stm32f4/stm-idf/components/stm32f4xx_hal_driver/stm32f4xx_hal_rcc.c ****     {
 402:/home/phong/Documents/thesis/stm32f4/stm-idf/components/stm32f4xx_hal_driver/stm32f4xx_hal_rcc.c ****       __HAL_RCC_PWR_CLK_ENABLE();
 365              		.loc 1 402 0
 366 01dc 0023     		movs	r3, #0
 367 01de 0193     		str	r3, [sp, #4]
 368 01e0 344B     		ldr	r3, .L97
 369 01e2 1A6C     		ldr	r2, [r3, #64]
 370 01e4 42F08052 		orr	r2, r2, #268435456
 371 01e8 1A64     		str	r2, [r3, #64]
 372 01ea 1B6C     		ldr	r3, [r3, #64]
 373 01ec 03F08053 		and	r3, r3, #268435456
 374 01f0 0193     		str	r3, [sp, #4]
 375 01f2 019B     		ldr	r3, [sp, #4]
 376              	.LVL27:
ARM GAS  /tmp/ccYos3sw.s 			page 15


 377              	.LBE3:
 403:/home/phong/Documents/thesis/stm32f4/stm-idf/components/stm32f4xx_hal_driver/stm32f4xx_hal_rcc.c ****       pwrclkchanged = SET;
 378              		.loc 1 403 0
 379 01f4 0125     		movs	r5, #1
 380              	.LVL28:
 381              	.L31:
 404:/home/phong/Documents/thesis/stm32f4/stm-idf/components/stm32f4xx_hal_driver/stm32f4xx_hal_rcc.c ****     }
 405:/home/phong/Documents/thesis/stm32f4/stm-idf/components/stm32f4xx_hal_driver/stm32f4xx_hal_rcc.c **** 
 406:/home/phong/Documents/thesis/stm32f4/stm-idf/components/stm32f4xx_hal_driver/stm32f4xx_hal_rcc.c ****     if(HAL_IS_BIT_CLR(PWR->CR, PWR_CR_DBP))
 382              		.loc 1 406 0
 383 01f6 324B     		ldr	r3, .L97+12
 384 01f8 1B68     		ldr	r3, [r3]
 385 01fa 13F4807F 		tst	r3, #256
 386 01fe 23D0     		beq	.L85
 387              	.L32:
 407:/home/phong/Documents/thesis/stm32f4/stm-idf/components/stm32f4xx_hal_driver/stm32f4xx_hal_rcc.c ****     {
 408:/home/phong/Documents/thesis/stm32f4/stm-idf/components/stm32f4xx_hal_driver/stm32f4xx_hal_rcc.c ****       /* Enable write access to Backup domain */
 409:/home/phong/Documents/thesis/stm32f4/stm-idf/components/stm32f4xx_hal_driver/stm32f4xx_hal_rcc.c ****       SET_BIT(PWR->CR, PWR_CR_DBP);
 410:/home/phong/Documents/thesis/stm32f4/stm-idf/components/stm32f4xx_hal_driver/stm32f4xx_hal_rcc.c **** 
 411:/home/phong/Documents/thesis/stm32f4/stm-idf/components/stm32f4xx_hal_driver/stm32f4xx_hal_rcc.c ****       /* Wait for Backup domain Write protection disable */
 412:/home/phong/Documents/thesis/stm32f4/stm-idf/components/stm32f4xx_hal_driver/stm32f4xx_hal_rcc.c ****       tickstart = HAL_GetTick();
 413:/home/phong/Documents/thesis/stm32f4/stm-idf/components/stm32f4xx_hal_driver/stm32f4xx_hal_rcc.c **** 
 414:/home/phong/Documents/thesis/stm32f4/stm-idf/components/stm32f4xx_hal_driver/stm32f4xx_hal_rcc.c ****       while(HAL_IS_BIT_CLR(PWR->CR, PWR_CR_DBP))
 415:/home/phong/Documents/thesis/stm32f4/stm-idf/components/stm32f4xx_hal_driver/stm32f4xx_hal_rcc.c ****       {
 416:/home/phong/Documents/thesis/stm32f4/stm-idf/components/stm32f4xx_hal_driver/stm32f4xx_hal_rcc.c ****         if((HAL_GetTick() - tickstart) > RCC_DBP_TIMEOUT_VALUE)
 417:/home/phong/Documents/thesis/stm32f4/stm-idf/components/stm32f4xx_hal_driver/stm32f4xx_hal_rcc.c ****         {
 418:/home/phong/Documents/thesis/stm32f4/stm-idf/components/stm32f4xx_hal_driver/stm32f4xx_hal_rcc.c ****           return HAL_TIMEOUT;
 419:/home/phong/Documents/thesis/stm32f4/stm-idf/components/stm32f4xx_hal_driver/stm32f4xx_hal_rcc.c ****         }
 420:/home/phong/Documents/thesis/stm32f4/stm-idf/components/stm32f4xx_hal_driver/stm32f4xx_hal_rcc.c ****       }
 421:/home/phong/Documents/thesis/stm32f4/stm-idf/components/stm32f4xx_hal_driver/stm32f4xx_hal_rcc.c ****     }
 422:/home/phong/Documents/thesis/stm32f4/stm-idf/components/stm32f4xx_hal_driver/stm32f4xx_hal_rcc.c **** 
 423:/home/phong/Documents/thesis/stm32f4/stm-idf/components/stm32f4xx_hal_driver/stm32f4xx_hal_rcc.c ****     /* Set the new LSE configuration -----------------------------------------*/
 424:/home/phong/Documents/thesis/stm32f4/stm-idf/components/stm32f4xx_hal_driver/stm32f4xx_hal_rcc.c ****     __HAL_RCC_LSE_CONFIG(RCC_OscInitStruct->LSEState);
 388              		.loc 1 424 0
 389 0200 A368     		ldr	r3, [r4, #8]
 390 0202 012B     		cmp	r3, #1
 391 0204 34D0     		beq	.L86
 392              		.loc 1 424 0 is_stmt 0 discriminator 2
 393 0206 052B     		cmp	r3, #5
 394 0208 38D0     		beq	.L87
 395              		.loc 1 424 0 discriminator 4
 396 020a 2A4B     		ldr	r3, .L97
 397 020c 1A6F     		ldr	r2, [r3, #112]
 398 020e 22F00102 		bic	r2, r2, #1
 399 0212 1A67     		str	r2, [r3, #112]
 400 0214 1A6F     		ldr	r2, [r3, #112]
 401 0216 22F00402 		bic	r2, r2, #4
 402 021a 1A67     		str	r2, [r3, #112]
 403              	.L36:
 425:/home/phong/Documents/thesis/stm32f4/stm-idf/components/stm32f4xx_hal_driver/stm32f4xx_hal_rcc.c ****     /* Check the LSE State */
 426:/home/phong/Documents/thesis/stm32f4/stm-idf/components/stm32f4xx_hal_driver/stm32f4xx_hal_rcc.c ****     if((RCC_OscInitStruct->LSEState) != RCC_LSE_OFF)
 404              		.loc 1 426 0 is_stmt 1
 405 021c A368     		ldr	r3, [r4, #8]
 406 021e 002B     		cmp	r3, #0
 407 0220 36D0     		beq	.L38
 427:/home/phong/Documents/thesis/stm32f4/stm-idf/components/stm32f4xx_hal_driver/stm32f4xx_hal_rcc.c ****     {
 428:/home/phong/Documents/thesis/stm32f4/stm-idf/components/stm32f4xx_hal_driver/stm32f4xx_hal_rcc.c ****       /* Get Start Tick*/
ARM GAS  /tmp/ccYos3sw.s 			page 16


 429:/home/phong/Documents/thesis/stm32f4/stm-idf/components/stm32f4xx_hal_driver/stm32f4xx_hal_rcc.c ****       tickstart = HAL_GetTick();
 408              		.loc 1 429 0
 409 0222 FFF7FEFF 		bl	HAL_GetTick
 410              	.LVL29:
 411 0226 0646     		mov	r6, r0
 412              	.LVL30:
 413              	.L39:
 430:/home/phong/Documents/thesis/stm32f4/stm-idf/components/stm32f4xx_hal_driver/stm32f4xx_hal_rcc.c **** 
 431:/home/phong/Documents/thesis/stm32f4/stm-idf/components/stm32f4xx_hal_driver/stm32f4xx_hal_rcc.c ****       /* Wait till LSE is ready */
 432:/home/phong/Documents/thesis/stm32f4/stm-idf/components/stm32f4xx_hal_driver/stm32f4xx_hal_rcc.c ****       while(__HAL_RCC_GET_FLAG(RCC_FLAG_LSERDY) == RESET)
 414              		.loc 1 432 0
 415 0228 224B     		ldr	r3, .L97
 416 022a 1B6F     		ldr	r3, [r3, #112]
 417 022c 13F0020F 		tst	r3, #2
 418 0230 48D1     		bne	.L41
 433:/home/phong/Documents/thesis/stm32f4/stm-idf/components/stm32f4xx_hal_driver/stm32f4xx_hal_rcc.c ****       {
 434:/home/phong/Documents/thesis/stm32f4/stm-idf/components/stm32f4xx_hal_driver/stm32f4xx_hal_rcc.c ****         if((HAL_GetTick() - tickstart ) > RCC_LSE_TIMEOUT_VALUE)
 419              		.loc 1 434 0
 420 0232 FFF7FEFF 		bl	HAL_GetTick
 421              	.LVL31:
 422 0236 801B     		subs	r0, r0, r6
 423 0238 41F28833 		movw	r3, #5000
 424 023c 9842     		cmp	r0, r3
 425 023e F3D9     		bls	.L39
 435:/home/phong/Documents/thesis/stm32f4/stm-idf/components/stm32f4xx_hal_driver/stm32f4xx_hal_rcc.c ****         {
 436:/home/phong/Documents/thesis/stm32f4/stm-idf/components/stm32f4xx_hal_driver/stm32f4xx_hal_rcc.c ****           return HAL_TIMEOUT;
 426              		.loc 1 436 0
 427 0240 0320     		movs	r0, #3
 428 0242 C9E0     		b	.L3
 429              	.LVL32:
 430              	.L61:
 393:/home/phong/Documents/thesis/stm32f4/stm-idf/components/stm32f4xx_hal_driver/stm32f4xx_hal_rcc.c **** 
 431              		.loc 1 393 0
 432 0244 0025     		movs	r5, #0
 433 0246 D6E7     		b	.L31
 434              	.LVL33:
 435              	.L85:
 409:/home/phong/Documents/thesis/stm32f4/stm-idf/components/stm32f4xx_hal_driver/stm32f4xx_hal_rcc.c **** 
 436              		.loc 1 409 0
 437 0248 1D4A     		ldr	r2, .L97+12
 438 024a 1368     		ldr	r3, [r2]
 439 024c 43F48073 		orr	r3, r3, #256
 440 0250 1360     		str	r3, [r2]
 412:/home/phong/Documents/thesis/stm32f4/stm-idf/components/stm32f4xx_hal_driver/stm32f4xx_hal_rcc.c **** 
 441              		.loc 1 412 0
 442 0252 FFF7FEFF 		bl	HAL_GetTick
 443              	.LVL34:
 444 0256 0646     		mov	r6, r0
 445              	.LVL35:
 446              	.L33:
 414:/home/phong/Documents/thesis/stm32f4/stm-idf/components/stm32f4xx_hal_driver/stm32f4xx_hal_rcc.c ****       {
 447              		.loc 1 414 0
 448 0258 194B     		ldr	r3, .L97+12
 449 025a 1B68     		ldr	r3, [r3]
 450 025c 13F4807F 		tst	r3, #256
 451 0260 CED1     		bne	.L32
 416:/home/phong/Documents/thesis/stm32f4/stm-idf/components/stm32f4xx_hal_driver/stm32f4xx_hal_rcc.c ****         {
ARM GAS  /tmp/ccYos3sw.s 			page 17


 452              		.loc 1 416 0
 453 0262 FFF7FEFF 		bl	HAL_GetTick
 454              	.LVL36:
 455 0266 801B     		subs	r0, r0, r6
 456 0268 0228     		cmp	r0, #2
 457 026a F5D9     		bls	.L33
 418:/home/phong/Documents/thesis/stm32f4/stm-idf/components/stm32f4xx_hal_driver/stm32f4xx_hal_rcc.c ****         }
 458              		.loc 1 418 0
 459 026c 0320     		movs	r0, #3
 460 026e B3E0     		b	.L3
 461              	.LVL37:
 462              	.L86:
 424:/home/phong/Documents/thesis/stm32f4/stm-idf/components/stm32f4xx_hal_driver/stm32f4xx_hal_rcc.c ****     /* Check the LSE State */
 463              		.loc 1 424 0 discriminator 1
 464 0270 104A     		ldr	r2, .L97
 465 0272 136F     		ldr	r3, [r2, #112]
 466 0274 43F00103 		orr	r3, r3, #1
 467 0278 1367     		str	r3, [r2, #112]
 468 027a CFE7     		b	.L36
 469              	.L87:
 424:/home/phong/Documents/thesis/stm32f4/stm-idf/components/stm32f4xx_hal_driver/stm32f4xx_hal_rcc.c ****     /* Check the LSE State */
 470              		.loc 1 424 0 is_stmt 0 discriminator 3
 471 027c 0D4B     		ldr	r3, .L97
 472 027e 1A6F     		ldr	r2, [r3, #112]
 473 0280 42F00402 		orr	r2, r2, #4
 474 0284 1A67     		str	r2, [r3, #112]
 475 0286 1A6F     		ldr	r2, [r3, #112]
 476 0288 42F00102 		orr	r2, r2, #1
 477 028c 1A67     		str	r2, [r3, #112]
 478 028e C5E7     		b	.L36
 479              	.L38:
 437:/home/phong/Documents/thesis/stm32f4/stm-idf/components/stm32f4xx_hal_driver/stm32f4xx_hal_rcc.c ****         }
 438:/home/phong/Documents/thesis/stm32f4/stm-idf/components/stm32f4xx_hal_driver/stm32f4xx_hal_rcc.c ****       }
 439:/home/phong/Documents/thesis/stm32f4/stm-idf/components/stm32f4xx_hal_driver/stm32f4xx_hal_rcc.c ****     }
 440:/home/phong/Documents/thesis/stm32f4/stm-idf/components/stm32f4xx_hal_driver/stm32f4xx_hal_rcc.c ****     else
 441:/home/phong/Documents/thesis/stm32f4/stm-idf/components/stm32f4xx_hal_driver/stm32f4xx_hal_rcc.c ****     {
 442:/home/phong/Documents/thesis/stm32f4/stm-idf/components/stm32f4xx_hal_driver/stm32f4xx_hal_rcc.c ****       /* Get Start Tick */
 443:/home/phong/Documents/thesis/stm32f4/stm-idf/components/stm32f4xx_hal_driver/stm32f4xx_hal_rcc.c ****       tickstart = HAL_GetTick();
 480              		.loc 1 443 0 is_stmt 1
 481 0290 FFF7FEFF 		bl	HAL_GetTick
 482              	.LVL38:
 483 0294 0646     		mov	r6, r0
 484              	.LVL39:
 485              	.L42:
 444:/home/phong/Documents/thesis/stm32f4/stm-idf/components/stm32f4xx_hal_driver/stm32f4xx_hal_rcc.c **** 
 445:/home/phong/Documents/thesis/stm32f4/stm-idf/components/stm32f4xx_hal_driver/stm32f4xx_hal_rcc.c ****       /* Wait till LSE is ready */
 446:/home/phong/Documents/thesis/stm32f4/stm-idf/components/stm32f4xx_hal_driver/stm32f4xx_hal_rcc.c ****       while(__HAL_RCC_GET_FLAG(RCC_FLAG_LSERDY) != RESET)
 486              		.loc 1 446 0
 487 0296 074B     		ldr	r3, .L97
 488 0298 1B6F     		ldr	r3, [r3, #112]
 489 029a 13F0020F 		tst	r3, #2
 490 029e 11D0     		beq	.L41
 447:/home/phong/Documents/thesis/stm32f4/stm-idf/components/stm32f4xx_hal_driver/stm32f4xx_hal_rcc.c ****       {
 448:/home/phong/Documents/thesis/stm32f4/stm-idf/components/stm32f4xx_hal_driver/stm32f4xx_hal_rcc.c ****         if((HAL_GetTick() - tickstart ) > RCC_LSE_TIMEOUT_VALUE)
 491              		.loc 1 448 0
 492 02a0 FFF7FEFF 		bl	HAL_GetTick
 493              	.LVL40:
ARM GAS  /tmp/ccYos3sw.s 			page 18


 494 02a4 801B     		subs	r0, r0, r6
 495 02a6 41F28833 		movw	r3, #5000
 496 02aa 9842     		cmp	r0, r3
 497 02ac F3D9     		bls	.L42
 449:/home/phong/Documents/thesis/stm32f4/stm-idf/components/stm32f4xx_hal_driver/stm32f4xx_hal_rcc.c ****         {
 450:/home/phong/Documents/thesis/stm32f4/stm-idf/components/stm32f4xx_hal_driver/stm32f4xx_hal_rcc.c ****           return HAL_TIMEOUT;
 498              		.loc 1 450 0
 499 02ae 0320     		movs	r0, #3
 500 02b0 92E0     		b	.L3
 501              	.L98:
 502 02b2 00BF     		.align	2
 503              	.L97:
 504 02b4 00380240 		.word	1073887232
 505 02b8 00004742 		.word	1111949312
 506 02bc 800E4742 		.word	1111953024
 507 02c0 00700040 		.word	1073770496
 508              	.L41:
 451:/home/phong/Documents/thesis/stm32f4/stm-idf/components/stm32f4xx_hal_driver/stm32f4xx_hal_rcc.c ****         }
 452:/home/phong/Documents/thesis/stm32f4/stm-idf/components/stm32f4xx_hal_driver/stm32f4xx_hal_rcc.c ****       }
 453:/home/phong/Documents/thesis/stm32f4/stm-idf/components/stm32f4xx_hal_driver/stm32f4xx_hal_rcc.c ****     }
 454:/home/phong/Documents/thesis/stm32f4/stm-idf/components/stm32f4xx_hal_driver/stm32f4xx_hal_rcc.c **** 
 455:/home/phong/Documents/thesis/stm32f4/stm-idf/components/stm32f4xx_hal_driver/stm32f4xx_hal_rcc.c ****     /* Restore clock configuration if changed */
 456:/home/phong/Documents/thesis/stm32f4/stm-idf/components/stm32f4xx_hal_driver/stm32f4xx_hal_rcc.c ****     if(pwrclkchanged == SET)
 509              		.loc 1 456 0
 510 02c4 EDB9     		cbnz	r5, .L88
 511              	.LVL41:
 512              	.L30:
 513              	.LBE2:
 457:/home/phong/Documents/thesis/stm32f4/stm-idf/components/stm32f4xx_hal_driver/stm32f4xx_hal_rcc.c ****     {
 458:/home/phong/Documents/thesis/stm32f4/stm-idf/components/stm32f4xx_hal_driver/stm32f4xx_hal_rcc.c ****       __HAL_RCC_PWR_CLK_DISABLE();
 459:/home/phong/Documents/thesis/stm32f4/stm-idf/components/stm32f4xx_hal_driver/stm32f4xx_hal_rcc.c ****     }
 460:/home/phong/Documents/thesis/stm32f4/stm-idf/components/stm32f4xx_hal_driver/stm32f4xx_hal_rcc.c ****   }
 461:/home/phong/Documents/thesis/stm32f4/stm-idf/components/stm32f4xx_hal_driver/stm32f4xx_hal_rcc.c ****   /*-------------------------------- PLL Configuration -----------------------*/
 462:/home/phong/Documents/thesis/stm32f4/stm-idf/components/stm32f4xx_hal_driver/stm32f4xx_hal_rcc.c ****   /* Check the parameters */
 463:/home/phong/Documents/thesis/stm32f4/stm-idf/components/stm32f4xx_hal_driver/stm32f4xx_hal_rcc.c ****   assert_param(IS_RCC_PLL(RCC_OscInitStruct->PLL.PLLState));
 464:/home/phong/Documents/thesis/stm32f4/stm-idf/components/stm32f4xx_hal_driver/stm32f4xx_hal_rcc.c ****   if ((RCC_OscInitStruct->PLL.PLLState) != RCC_PLL_NONE)
 514              		.loc 1 464 0
 515 02c6 A369     		ldr	r3, [r4, #24]
 516 02c8 002B     		cmp	r3, #0
 517 02ca 00F08480 		beq	.L65
 465:/home/phong/Documents/thesis/stm32f4/stm-idf/components/stm32f4xx_hal_driver/stm32f4xx_hal_rcc.c ****   {
 466:/home/phong/Documents/thesis/stm32f4/stm-idf/components/stm32f4xx_hal_driver/stm32f4xx_hal_rcc.c ****     /* Check if the PLL is used as system clock or not */
 467:/home/phong/Documents/thesis/stm32f4/stm-idf/components/stm32f4xx_hal_driver/stm32f4xx_hal_rcc.c ****     if(__HAL_RCC_GET_SYSCLK_SOURCE() != RCC_CFGR_SWS_PLL)
 518              		.loc 1 467 0
 519 02ce 454A     		ldr	r2, .L99
 520 02d0 9268     		ldr	r2, [r2, #8]
 521 02d2 02F00C02 		and	r2, r2, #12
 522 02d6 082A     		cmp	r2, #8
 523 02d8 51D0     		beq	.L44
 468:/home/phong/Documents/thesis/stm32f4/stm-idf/components/stm32f4xx_hal_driver/stm32f4xx_hal_rcc.c ****     {
 469:/home/phong/Documents/thesis/stm32f4/stm-idf/components/stm32f4xx_hal_driver/stm32f4xx_hal_rcc.c ****       if((RCC_OscInitStruct->PLL.PLLState) == RCC_PLL_ON)
 524              		.loc 1 469 0
 525 02da 022B     		cmp	r3, #2
 526 02dc 17D0     		beq	.L89
 470:/home/phong/Documents/thesis/stm32f4/stm-idf/components/stm32f4xx_hal_driver/stm32f4xx_hal_rcc.c ****       {
 471:/home/phong/Documents/thesis/stm32f4/stm-idf/components/stm32f4xx_hal_driver/stm32f4xx_hal_rcc.c ****         /* Check the parameters */
 472:/home/phong/Documents/thesis/stm32f4/stm-idf/components/stm32f4xx_hal_driver/stm32f4xx_hal_rcc.c ****         assert_param(IS_RCC_PLLSOURCE(RCC_OscInitStruct->PLL.PLLSource));
ARM GAS  /tmp/ccYos3sw.s 			page 19


 473:/home/phong/Documents/thesis/stm32f4/stm-idf/components/stm32f4xx_hal_driver/stm32f4xx_hal_rcc.c ****         assert_param(IS_RCC_PLLM_VALUE(RCC_OscInitStruct->PLL.PLLM));
 474:/home/phong/Documents/thesis/stm32f4/stm-idf/components/stm32f4xx_hal_driver/stm32f4xx_hal_rcc.c ****         assert_param(IS_RCC_PLLN_VALUE(RCC_OscInitStruct->PLL.PLLN));
 475:/home/phong/Documents/thesis/stm32f4/stm-idf/components/stm32f4xx_hal_driver/stm32f4xx_hal_rcc.c ****         assert_param(IS_RCC_PLLP_VALUE(RCC_OscInitStruct->PLL.PLLP));
 476:/home/phong/Documents/thesis/stm32f4/stm-idf/components/stm32f4xx_hal_driver/stm32f4xx_hal_rcc.c ****         assert_param(IS_RCC_PLLQ_VALUE(RCC_OscInitStruct->PLL.PLLQ));
 477:/home/phong/Documents/thesis/stm32f4/stm-idf/components/stm32f4xx_hal_driver/stm32f4xx_hal_rcc.c **** 
 478:/home/phong/Documents/thesis/stm32f4/stm-idf/components/stm32f4xx_hal_driver/stm32f4xx_hal_rcc.c ****         /* Disable the main PLL. */
 479:/home/phong/Documents/thesis/stm32f4/stm-idf/components/stm32f4xx_hal_driver/stm32f4xx_hal_rcc.c ****         __HAL_RCC_PLL_DISABLE();
 480:/home/phong/Documents/thesis/stm32f4/stm-idf/components/stm32f4xx_hal_driver/stm32f4xx_hal_rcc.c **** 
 481:/home/phong/Documents/thesis/stm32f4/stm-idf/components/stm32f4xx_hal_driver/stm32f4xx_hal_rcc.c ****         /* Get Start Tick */
 482:/home/phong/Documents/thesis/stm32f4/stm-idf/components/stm32f4xx_hal_driver/stm32f4xx_hal_rcc.c ****         tickstart = HAL_GetTick();
 483:/home/phong/Documents/thesis/stm32f4/stm-idf/components/stm32f4xx_hal_driver/stm32f4xx_hal_rcc.c **** 
 484:/home/phong/Documents/thesis/stm32f4/stm-idf/components/stm32f4xx_hal_driver/stm32f4xx_hal_rcc.c ****         /* Wait till PLL is ready */
 485:/home/phong/Documents/thesis/stm32f4/stm-idf/components/stm32f4xx_hal_driver/stm32f4xx_hal_rcc.c ****         while(__HAL_RCC_GET_FLAG(RCC_FLAG_PLLRDY) != RESET)
 486:/home/phong/Documents/thesis/stm32f4/stm-idf/components/stm32f4xx_hal_driver/stm32f4xx_hal_rcc.c ****         {
 487:/home/phong/Documents/thesis/stm32f4/stm-idf/components/stm32f4xx_hal_driver/stm32f4xx_hal_rcc.c ****           if((HAL_GetTick() - tickstart ) > PLL_TIMEOUT_VALUE)
 488:/home/phong/Documents/thesis/stm32f4/stm-idf/components/stm32f4xx_hal_driver/stm32f4xx_hal_rcc.c ****           {
 489:/home/phong/Documents/thesis/stm32f4/stm-idf/components/stm32f4xx_hal_driver/stm32f4xx_hal_rcc.c ****             return HAL_TIMEOUT;
 490:/home/phong/Documents/thesis/stm32f4/stm-idf/components/stm32f4xx_hal_driver/stm32f4xx_hal_rcc.c ****           }
 491:/home/phong/Documents/thesis/stm32f4/stm-idf/components/stm32f4xx_hal_driver/stm32f4xx_hal_rcc.c ****         }
 492:/home/phong/Documents/thesis/stm32f4/stm-idf/components/stm32f4xx_hal_driver/stm32f4xx_hal_rcc.c **** 
 493:/home/phong/Documents/thesis/stm32f4/stm-idf/components/stm32f4xx_hal_driver/stm32f4xx_hal_rcc.c ****         /* Configure the main PLL clock source, multiplication and division factors. */
 494:/home/phong/Documents/thesis/stm32f4/stm-idf/components/stm32f4xx_hal_driver/stm32f4xx_hal_rcc.c ****         WRITE_REG(RCC->PLLCFGR, (RCC_OscInitStruct->PLL.PLLSource                                  
 495:/home/phong/Documents/thesis/stm32f4/stm-idf/components/stm32f4xx_hal_driver/stm32f4xx_hal_rcc.c ****                                  RCC_OscInitStruct->PLL.PLLM                                       
 496:/home/phong/Documents/thesis/stm32f4/stm-idf/components/stm32f4xx_hal_driver/stm32f4xx_hal_rcc.c ****                                  (RCC_OscInitStruct->PLL.PLLN << RCC_PLLCFGR_PLLN_Pos)             
 497:/home/phong/Documents/thesis/stm32f4/stm-idf/components/stm32f4xx_hal_driver/stm32f4xx_hal_rcc.c ****                                  (((RCC_OscInitStruct->PLL.PLLP >> 1U) - 1U) << RCC_PLLCFGR_PLLP_Po
 498:/home/phong/Documents/thesis/stm32f4/stm-idf/components/stm32f4xx_hal_driver/stm32f4xx_hal_rcc.c ****                                  (RCC_OscInitStruct->PLL.PLLQ << RCC_PLLCFGR_PLLQ_Pos)));
 499:/home/phong/Documents/thesis/stm32f4/stm-idf/components/stm32f4xx_hal_driver/stm32f4xx_hal_rcc.c ****         /* Enable the main PLL. */
 500:/home/phong/Documents/thesis/stm32f4/stm-idf/components/stm32f4xx_hal_driver/stm32f4xx_hal_rcc.c ****         __HAL_RCC_PLL_ENABLE();
 501:/home/phong/Documents/thesis/stm32f4/stm-idf/components/stm32f4xx_hal_driver/stm32f4xx_hal_rcc.c **** 
 502:/home/phong/Documents/thesis/stm32f4/stm-idf/components/stm32f4xx_hal_driver/stm32f4xx_hal_rcc.c ****         /* Get Start Tick */
 503:/home/phong/Documents/thesis/stm32f4/stm-idf/components/stm32f4xx_hal_driver/stm32f4xx_hal_rcc.c ****         tickstart = HAL_GetTick();
 504:/home/phong/Documents/thesis/stm32f4/stm-idf/components/stm32f4xx_hal_driver/stm32f4xx_hal_rcc.c **** 
 505:/home/phong/Documents/thesis/stm32f4/stm-idf/components/stm32f4xx_hal_driver/stm32f4xx_hal_rcc.c ****         /* Wait till PLL is ready */
 506:/home/phong/Documents/thesis/stm32f4/stm-idf/components/stm32f4xx_hal_driver/stm32f4xx_hal_rcc.c ****         while(__HAL_RCC_GET_FLAG(RCC_FLAG_PLLRDY) == RESET)
 507:/home/phong/Documents/thesis/stm32f4/stm-idf/components/stm32f4xx_hal_driver/stm32f4xx_hal_rcc.c ****         {
 508:/home/phong/Documents/thesis/stm32f4/stm-idf/components/stm32f4xx_hal_driver/stm32f4xx_hal_rcc.c ****           if((HAL_GetTick() - tickstart ) > PLL_TIMEOUT_VALUE)
 509:/home/phong/Documents/thesis/stm32f4/stm-idf/components/stm32f4xx_hal_driver/stm32f4xx_hal_rcc.c ****           {
 510:/home/phong/Documents/thesis/stm32f4/stm-idf/components/stm32f4xx_hal_driver/stm32f4xx_hal_rcc.c ****             return HAL_TIMEOUT;
 511:/home/phong/Documents/thesis/stm32f4/stm-idf/components/stm32f4xx_hal_driver/stm32f4xx_hal_rcc.c ****           }
 512:/home/phong/Documents/thesis/stm32f4/stm-idf/components/stm32f4xx_hal_driver/stm32f4xx_hal_rcc.c ****         }
 513:/home/phong/Documents/thesis/stm32f4/stm-idf/components/stm32f4xx_hal_driver/stm32f4xx_hal_rcc.c ****       }
 514:/home/phong/Documents/thesis/stm32f4/stm-idf/components/stm32f4xx_hal_driver/stm32f4xx_hal_rcc.c ****       else
 515:/home/phong/Documents/thesis/stm32f4/stm-idf/components/stm32f4xx_hal_driver/stm32f4xx_hal_rcc.c ****       {
 516:/home/phong/Documents/thesis/stm32f4/stm-idf/components/stm32f4xx_hal_driver/stm32f4xx_hal_rcc.c ****         /* Disable the main PLL. */
 517:/home/phong/Documents/thesis/stm32f4/stm-idf/components/stm32f4xx_hal_driver/stm32f4xx_hal_rcc.c ****         __HAL_RCC_PLL_DISABLE();
 527              		.loc 1 517 0
 528 02de 0022     		movs	r2, #0
 529 02e0 414B     		ldr	r3, .L99+4
 530 02e2 1A60     		str	r2, [r3]
 518:/home/phong/Documents/thesis/stm32f4/stm-idf/components/stm32f4xx_hal_driver/stm32f4xx_hal_rcc.c **** 
 519:/home/phong/Documents/thesis/stm32f4/stm-idf/components/stm32f4xx_hal_driver/stm32f4xx_hal_rcc.c ****         /* Get Start Tick */
 520:/home/phong/Documents/thesis/stm32f4/stm-idf/components/stm32f4xx_hal_driver/stm32f4xx_hal_rcc.c ****         tickstart = HAL_GetTick();
 531              		.loc 1 520 0
 532 02e4 FFF7FEFF 		bl	HAL_GetTick
 533              	.LVL42:
 534 02e8 0446     		mov	r4, r0
 535              	.LVL43:
ARM GAS  /tmp/ccYos3sw.s 			page 20


 536              	.L50:
 521:/home/phong/Documents/thesis/stm32f4/stm-idf/components/stm32f4xx_hal_driver/stm32f4xx_hal_rcc.c **** 
 522:/home/phong/Documents/thesis/stm32f4/stm-idf/components/stm32f4xx_hal_driver/stm32f4xx_hal_rcc.c ****         /* Wait till PLL is ready */
 523:/home/phong/Documents/thesis/stm32f4/stm-idf/components/stm32f4xx_hal_driver/stm32f4xx_hal_rcc.c ****         while(__HAL_RCC_GET_FLAG(RCC_FLAG_PLLRDY) != RESET)
 537              		.loc 1 523 0
 538 02ea 3E4B     		ldr	r3, .L99
 539 02ec 1B68     		ldr	r3, [r3]
 540 02ee 13F0007F 		tst	r3, #33554432
 541 02f2 42D0     		beq	.L90
 524:/home/phong/Documents/thesis/stm32f4/stm-idf/components/stm32f4xx_hal_driver/stm32f4xx_hal_rcc.c ****         {
 525:/home/phong/Documents/thesis/stm32f4/stm-idf/components/stm32f4xx_hal_driver/stm32f4xx_hal_rcc.c ****           if((HAL_GetTick() - tickstart ) > PLL_TIMEOUT_VALUE)
 542              		.loc 1 525 0
 543 02f4 FFF7FEFF 		bl	HAL_GetTick
 544              	.LVL44:
 545 02f8 001B     		subs	r0, r0, r4
 546 02fa 0228     		cmp	r0, #2
 547 02fc F5D9     		bls	.L50
 526:/home/phong/Documents/thesis/stm32f4/stm-idf/components/stm32f4xx_hal_driver/stm32f4xx_hal_rcc.c ****           {
 527:/home/phong/Documents/thesis/stm32f4/stm-idf/components/stm32f4xx_hal_driver/stm32f4xx_hal_rcc.c ****             return HAL_TIMEOUT;
 548              		.loc 1 527 0
 549 02fe 0320     		movs	r0, #3
 550 0300 6AE0     		b	.L3
 551              	.LVL45:
 552              	.L88:
 553              	.LBB4:
 458:/home/phong/Documents/thesis/stm32f4/stm-idf/components/stm32f4xx_hal_driver/stm32f4xx_hal_rcc.c ****     }
 554              		.loc 1 458 0
 555 0302 384A     		ldr	r2, .L99
 556 0304 136C     		ldr	r3, [r2, #64]
 557 0306 23F08053 		bic	r3, r3, #268435456
 558 030a 1364     		str	r3, [r2, #64]
 559 030c DBE7     		b	.L30
 560              	.LVL46:
 561              	.L89:
 562              	.LBE4:
 479:/home/phong/Documents/thesis/stm32f4/stm-idf/components/stm32f4xx_hal_driver/stm32f4xx_hal_rcc.c **** 
 563              		.loc 1 479 0
 564 030e 0022     		movs	r2, #0
 565 0310 354B     		ldr	r3, .L99+4
 566 0312 1A60     		str	r2, [r3]
 482:/home/phong/Documents/thesis/stm32f4/stm-idf/components/stm32f4xx_hal_driver/stm32f4xx_hal_rcc.c **** 
 567              		.loc 1 482 0
 568 0314 FFF7FEFF 		bl	HAL_GetTick
 569              	.LVL47:
 570 0318 0546     		mov	r5, r0
 571              	.LVL48:
 572              	.L46:
 485:/home/phong/Documents/thesis/stm32f4/stm-idf/components/stm32f4xx_hal_driver/stm32f4xx_hal_rcc.c ****         {
 573              		.loc 1 485 0
 574 031a 324B     		ldr	r3, .L99
 575 031c 1B68     		ldr	r3, [r3]
 576 031e 13F0007F 		tst	r3, #33554432
 577 0322 06D0     		beq	.L91
 487:/home/phong/Documents/thesis/stm32f4/stm-idf/components/stm32f4xx_hal_driver/stm32f4xx_hal_rcc.c ****           {
 578              		.loc 1 487 0
 579 0324 FFF7FEFF 		bl	HAL_GetTick
 580              	.LVL49:
ARM GAS  /tmp/ccYos3sw.s 			page 21


 581 0328 401B     		subs	r0, r0, r5
 582 032a 0228     		cmp	r0, #2
 583 032c F5D9     		bls	.L46
 489:/home/phong/Documents/thesis/stm32f4/stm-idf/components/stm32f4xx_hal_driver/stm32f4xx_hal_rcc.c ****           }
 584              		.loc 1 489 0
 585 032e 0320     		movs	r0, #3
 586 0330 52E0     		b	.L3
 587              	.L91:
 494:/home/phong/Documents/thesis/stm32f4/stm-idf/components/stm32f4xx_hal_driver/stm32f4xx_hal_rcc.c ****                                  RCC_OscInitStruct->PLL.PLLM                                       
 588              		.loc 1 494 0
 589 0332 E369     		ldr	r3, [r4, #28]
 590 0334 226A     		ldr	r2, [r4, #32]
 591 0336 1343     		orrs	r3, r3, r2
 592 0338 626A     		ldr	r2, [r4, #36]
 593 033a 43EA8213 		orr	r3, r3, r2, lsl #6
 594 033e A26A     		ldr	r2, [r4, #40]
 595 0340 5208     		lsrs	r2, r2, #1
 596 0342 013A     		subs	r2, r2, #1
 597 0344 43EA0243 		orr	r3, r3, r2, lsl #16
 598 0348 E26A     		ldr	r2, [r4, #44]
 599 034a 43EA0263 		orr	r3, r3, r2, lsl #24
 600 034e 254A     		ldr	r2, .L99
 601 0350 5360     		str	r3, [r2, #4]
 500:/home/phong/Documents/thesis/stm32f4/stm-idf/components/stm32f4xx_hal_driver/stm32f4xx_hal_rcc.c **** 
 602              		.loc 1 500 0
 603 0352 0122     		movs	r2, #1
 604 0354 244B     		ldr	r3, .L99+4
 605 0356 1A60     		str	r2, [r3]
 503:/home/phong/Documents/thesis/stm32f4/stm-idf/components/stm32f4xx_hal_driver/stm32f4xx_hal_rcc.c **** 
 606              		.loc 1 503 0
 607 0358 FFF7FEFF 		bl	HAL_GetTick
 608              	.LVL50:
 609 035c 0446     		mov	r4, r0
 610              	.LVL51:
 611              	.L48:
 506:/home/phong/Documents/thesis/stm32f4/stm-idf/components/stm32f4xx_hal_driver/stm32f4xx_hal_rcc.c ****         {
 612              		.loc 1 506 0
 613 035e 214B     		ldr	r3, .L99
 614 0360 1B68     		ldr	r3, [r3]
 615 0362 13F0007F 		tst	r3, #33554432
 616 0366 06D1     		bne	.L92
 508:/home/phong/Documents/thesis/stm32f4/stm-idf/components/stm32f4xx_hal_driver/stm32f4xx_hal_rcc.c ****           {
 617              		.loc 1 508 0
 618 0368 FFF7FEFF 		bl	HAL_GetTick
 619              	.LVL52:
 620 036c 001B     		subs	r0, r0, r4
 621 036e 0228     		cmp	r0, #2
 622 0370 F5D9     		bls	.L48
 510:/home/phong/Documents/thesis/stm32f4/stm-idf/components/stm32f4xx_hal_driver/stm32f4xx_hal_rcc.c ****           }
 623              		.loc 1 510 0
 624 0372 0320     		movs	r0, #3
 625 0374 30E0     		b	.L3
 626              	.L92:
 528:/home/phong/Documents/thesis/stm32f4/stm-idf/components/stm32f4xx_hal_driver/stm32f4xx_hal_rcc.c ****           }
 529:/home/phong/Documents/thesis/stm32f4/stm-idf/components/stm32f4xx_hal_driver/stm32f4xx_hal_rcc.c ****         }
 530:/home/phong/Documents/thesis/stm32f4/stm-idf/components/stm32f4xx_hal_driver/stm32f4xx_hal_rcc.c ****       }
 531:/home/phong/Documents/thesis/stm32f4/stm-idf/components/stm32f4xx_hal_driver/stm32f4xx_hal_rcc.c ****     }
ARM GAS  /tmp/ccYos3sw.s 			page 22


 532:/home/phong/Documents/thesis/stm32f4/stm-idf/components/stm32f4xx_hal_driver/stm32f4xx_hal_rcc.c ****     else
 533:/home/phong/Documents/thesis/stm32f4/stm-idf/components/stm32f4xx_hal_driver/stm32f4xx_hal_rcc.c ****     {
 534:/home/phong/Documents/thesis/stm32f4/stm-idf/components/stm32f4xx_hal_driver/stm32f4xx_hal_rcc.c ****       /* Check if there is a request to disable the PLL used as System clock source */
 535:/home/phong/Documents/thesis/stm32f4/stm-idf/components/stm32f4xx_hal_driver/stm32f4xx_hal_rcc.c ****       if((RCC_OscInitStruct->PLL.PLLState) == RCC_PLL_OFF)
 536:/home/phong/Documents/thesis/stm32f4/stm-idf/components/stm32f4xx_hal_driver/stm32f4xx_hal_rcc.c ****       {
 537:/home/phong/Documents/thesis/stm32f4/stm-idf/components/stm32f4xx_hal_driver/stm32f4xx_hal_rcc.c ****         return HAL_ERROR;
 538:/home/phong/Documents/thesis/stm32f4/stm-idf/components/stm32f4xx_hal_driver/stm32f4xx_hal_rcc.c ****       }
 539:/home/phong/Documents/thesis/stm32f4/stm-idf/components/stm32f4xx_hal_driver/stm32f4xx_hal_rcc.c ****       else
 540:/home/phong/Documents/thesis/stm32f4/stm-idf/components/stm32f4xx_hal_driver/stm32f4xx_hal_rcc.c ****       {
 541:/home/phong/Documents/thesis/stm32f4/stm-idf/components/stm32f4xx_hal_driver/stm32f4xx_hal_rcc.c ****         /* Do not return HAL_ERROR if request repeats the current configuration */
 542:/home/phong/Documents/thesis/stm32f4/stm-idf/components/stm32f4xx_hal_driver/stm32f4xx_hal_rcc.c ****         pll_config = RCC->CFGR;
 543:/home/phong/Documents/thesis/stm32f4/stm-idf/components/stm32f4xx_hal_driver/stm32f4xx_hal_rcc.c ****         if((READ_BIT(pll_config, RCC_PLLCFGR_PLLSRC) != RCC_OscInitStruct->PLL.PLLSource) ||
 544:/home/phong/Documents/thesis/stm32f4/stm-idf/components/stm32f4xx_hal_driver/stm32f4xx_hal_rcc.c ****            (READ_BIT(pll_config, RCC_PLLCFGR_PLLM) != RCC_OscInitStruct->PLL.PLLM) ||
 545:/home/phong/Documents/thesis/stm32f4/stm-idf/components/stm32f4xx_hal_driver/stm32f4xx_hal_rcc.c ****            (READ_BIT(pll_config, RCC_PLLCFGR_PLLN) != RCC_OscInitStruct->PLL.PLLN) ||
 546:/home/phong/Documents/thesis/stm32f4/stm-idf/components/stm32f4xx_hal_driver/stm32f4xx_hal_rcc.c ****            (READ_BIT(pll_config, RCC_PLLCFGR_PLLP) != RCC_OscInitStruct->PLL.PLLP) ||
 547:/home/phong/Documents/thesis/stm32f4/stm-idf/components/stm32f4xx_hal_driver/stm32f4xx_hal_rcc.c ****            (READ_BIT(pll_config, RCC_PLLCFGR_PLLQ) != RCC_OscInitStruct->PLL.PLLQ))
 548:/home/phong/Documents/thesis/stm32f4/stm-idf/components/stm32f4xx_hal_driver/stm32f4xx_hal_rcc.c ****         {
 549:/home/phong/Documents/thesis/stm32f4/stm-idf/components/stm32f4xx_hal_driver/stm32f4xx_hal_rcc.c ****           return HAL_ERROR;
 550:/home/phong/Documents/thesis/stm32f4/stm-idf/components/stm32f4xx_hal_driver/stm32f4xx_hal_rcc.c ****         }
 551:/home/phong/Documents/thesis/stm32f4/stm-idf/components/stm32f4xx_hal_driver/stm32f4xx_hal_rcc.c ****       }
 552:/home/phong/Documents/thesis/stm32f4/stm-idf/components/stm32f4xx_hal_driver/stm32f4xx_hal_rcc.c ****     }
 553:/home/phong/Documents/thesis/stm32f4/stm-idf/components/stm32f4xx_hal_driver/stm32f4xx_hal_rcc.c ****   }
 554:/home/phong/Documents/thesis/stm32f4/stm-idf/components/stm32f4xx_hal_driver/stm32f4xx_hal_rcc.c ****   return HAL_OK;
 627              		.loc 1 554 0
 628 0376 0020     		movs	r0, #0
 629 0378 2EE0     		b	.L3
 630              	.L90:
 631 037a 0020     		movs	r0, #0
 632 037c 2CE0     		b	.L3
 633              	.LVL53:
 634              	.L44:
 535:/home/phong/Documents/thesis/stm32f4/stm-idf/components/stm32f4xx_hal_driver/stm32f4xx_hal_rcc.c ****       {
 635              		.loc 1 535 0
 636 037e 012B     		cmp	r3, #1
 637 0380 2CD0     		beq	.L69
 542:/home/phong/Documents/thesis/stm32f4/stm-idf/components/stm32f4xx_hal_driver/stm32f4xx_hal_rcc.c ****         if((READ_BIT(pll_config, RCC_PLLCFGR_PLLSRC) != RCC_OscInitStruct->PLL.PLLSource) ||
 638              		.loc 1 542 0
 639 0382 184B     		ldr	r3, .L99
 640 0384 9B68     		ldr	r3, [r3, #8]
 641              	.LVL54:
 543:/home/phong/Documents/thesis/stm32f4/stm-idf/components/stm32f4xx_hal_driver/stm32f4xx_hal_rcc.c ****            (READ_BIT(pll_config, RCC_PLLCFGR_PLLM) != RCC_OscInitStruct->PLL.PLLM) ||
 642              		.loc 1 543 0
 643 0386 03F48001 		and	r1, r3, #4194304
 644 038a E269     		ldr	r2, [r4, #28]
 645 038c 9142     		cmp	r1, r2
 646 038e 01D0     		beq	.L93
 549:/home/phong/Documents/thesis/stm32f4/stm-idf/components/stm32f4xx_hal_driver/stm32f4xx_hal_rcc.c ****         }
 647              		.loc 1 549 0
 648 0390 0120     		movs	r0, #1
 649 0392 21E0     		b	.L3
 650              	.L93:
 544:/home/phong/Documents/thesis/stm32f4/stm-idf/components/stm32f4xx_hal_driver/stm32f4xx_hal_rcc.c ****            (READ_BIT(pll_config, RCC_PLLCFGR_PLLN) != RCC_OscInitStruct->PLL.PLLN) ||
 651              		.loc 1 544 0 discriminator 1
 652 0394 03F03F02 		and	r2, r3, #63
 653 0398 216A     		ldr	r1, [r4, #32]
 543:/home/phong/Documents/thesis/stm32f4/stm-idf/components/stm32f4xx_hal_driver/stm32f4xx_hal_rcc.c ****            (READ_BIT(pll_config, RCC_PLLCFGR_PLLM) != RCC_OscInitStruct->PLL.PLLM) ||
 654              		.loc 1 543 0 discriminator 1
ARM GAS  /tmp/ccYos3sw.s 			page 23


 655 039a 8A42     		cmp	r2, r1
 656 039c 01D0     		beq	.L94
 549:/home/phong/Documents/thesis/stm32f4/stm-idf/components/stm32f4xx_hal_driver/stm32f4xx_hal_rcc.c ****         }
 657              		.loc 1 549 0
 658 039e 0120     		movs	r0, #1
 659 03a0 1AE0     		b	.L3
 660              	.L94:
 545:/home/phong/Documents/thesis/stm32f4/stm-idf/components/stm32f4xx_hal_driver/stm32f4xx_hal_rcc.c ****            (READ_BIT(pll_config, RCC_PLLCFGR_PLLP) != RCC_OscInitStruct->PLL.PLLP) ||
 661              		.loc 1 545 0
 662 03a2 616A     		ldr	r1, [r4, #36]
 544:/home/phong/Documents/thesis/stm32f4/stm-idf/components/stm32f4xx_hal_driver/stm32f4xx_hal_rcc.c ****            (READ_BIT(pll_config, RCC_PLLCFGR_PLLN) != RCC_OscInitStruct->PLL.PLLN) ||
 663              		.loc 1 544 0
 664 03a4 47F6C072 		movw	r2, #32704
 665 03a8 1A40     		ands	r2, r2, r3
 666 03aa 8A42     		cmp	r2, r1
 667 03ac 01D0     		beq	.L95
 549:/home/phong/Documents/thesis/stm32f4/stm-idf/components/stm32f4xx_hal_driver/stm32f4xx_hal_rcc.c ****         }
 668              		.loc 1 549 0
 669 03ae 0120     		movs	r0, #1
 670 03b0 12E0     		b	.L3
 671              	.L95:
 546:/home/phong/Documents/thesis/stm32f4/stm-idf/components/stm32f4xx_hal_driver/stm32f4xx_hal_rcc.c ****            (READ_BIT(pll_config, RCC_PLLCFGR_PLLQ) != RCC_OscInitStruct->PLL.PLLQ))
 672              		.loc 1 546 0
 673 03b2 03F44032 		and	r2, r3, #196608
 674 03b6 A16A     		ldr	r1, [r4, #40]
 545:/home/phong/Documents/thesis/stm32f4/stm-idf/components/stm32f4xx_hal_driver/stm32f4xx_hal_rcc.c ****            (READ_BIT(pll_config, RCC_PLLCFGR_PLLP) != RCC_OscInitStruct->PLL.PLLP) ||
 675              		.loc 1 545 0
 676 03b8 8A42     		cmp	r2, r1
 677 03ba 01D0     		beq	.L96
 549:/home/phong/Documents/thesis/stm32f4/stm-idf/components/stm32f4xx_hal_driver/stm32f4xx_hal_rcc.c ****         }
 678              		.loc 1 549 0
 679 03bc 0120     		movs	r0, #1
 680 03be 0BE0     		b	.L3
 681              	.L96:
 547:/home/phong/Documents/thesis/stm32f4/stm-idf/components/stm32f4xx_hal_driver/stm32f4xx_hal_rcc.c ****         {
 682              		.loc 1 547 0
 683 03c0 03F07063 		and	r3, r3, #251658240
 684              	.LVL55:
 685 03c4 E26A     		ldr	r2, [r4, #44]
 546:/home/phong/Documents/thesis/stm32f4/stm-idf/components/stm32f4xx_hal_driver/stm32f4xx_hal_rcc.c ****            (READ_BIT(pll_config, RCC_PLLCFGR_PLLQ) != RCC_OscInitStruct->PLL.PLLQ))
 686              		.loc 1 546 0
 687 03c6 9342     		cmp	r3, r2
 688 03c8 0AD0     		beq	.L74
 549:/home/phong/Documents/thesis/stm32f4/stm-idf/components/stm32f4xx_hal_driver/stm32f4xx_hal_rcc.c ****         }
 689              		.loc 1 549 0
 690 03ca 0120     		movs	r0, #1
 691 03cc 04E0     		b	.L3
 692              	.LVL56:
 693              	.L52:
 694              	.LCFI2:
 695              		.cfi_def_cfa_offset 0
 696              		.cfi_restore 4
 697              		.cfi_restore 5
 698              		.cfi_restore 6
 699              		.cfi_restore 14
 228:/home/phong/Documents/thesis/stm32f4/stm-idf/components/stm32f4xx_hal_driver/stm32f4xx_hal_rcc.c ****   }
 700              		.loc 1 228 0
ARM GAS  /tmp/ccYos3sw.s 			page 24


 701 03ce 0120     		movs	r0, #1
 702              	.LVL57:
 703 03d0 7047     		bx	lr
 704              	.LVL58:
 705              	.L82:
 706              	.LCFI3:
 707              		.cfi_def_cfa_offset 24
 708              		.cfi_offset 4, -16
 709              		.cfi_offset 5, -12
 710              		.cfi_offset 6, -8
 711              		.cfi_offset 14, -4
 244:/home/phong/Documents/thesis/stm32f4/stm-idf/components/stm32f4xx_hal_driver/stm32f4xx_hal_rcc.c ****       }
 712              		.loc 1 244 0
 713 03d2 0120     		movs	r0, #1
 714              	.LVL59:
 715 03d4 00E0     		b	.L3
 716              	.L65:
 717              		.loc 1 554 0
 718 03d6 0020     		movs	r0, #0
 719              	.LVL60:
 720              	.L3:
 555:/home/phong/Documents/thesis/stm32f4/stm-idf/components/stm32f4xx_hal_driver/stm32f4xx_hal_rcc.c **** }
 721              		.loc 1 555 0
 722 03d8 02B0     		add	sp, sp, #8
 723              	.LCFI4:
 724              		.cfi_remember_state
 725              		.cfi_def_cfa_offset 16
 726              		@ sp needed
 727 03da 70BD     		pop	{r4, r5, r6, pc}
 728              	.LVL61:
 729              	.L69:
 730              	.LCFI5:
 731              		.cfi_restore_state
 537:/home/phong/Documents/thesis/stm32f4/stm-idf/components/stm32f4xx_hal_driver/stm32f4xx_hal_rcc.c ****       }
 732              		.loc 1 537 0
 733 03dc 0120     		movs	r0, #1
 734 03de FBE7     		b	.L3
 735              	.L74:
 554:/home/phong/Documents/thesis/stm32f4/stm-idf/components/stm32f4xx_hal_driver/stm32f4xx_hal_rcc.c **** }
 736              		.loc 1 554 0
 737 03e0 0020     		movs	r0, #0
 738 03e2 F9E7     		b	.L3
 739              	.L100:
 740              		.align	2
 741              	.L99:
 742 03e4 00380240 		.word	1073887232
 743 03e8 60004742 		.word	1111949408
 744              		.cfi_endproc
 745              	.LFE131:
 747              		.section	.text.HAL_RCC_MCOConfig,"ax",%progbits
 748              		.align	1
 749              		.global	HAL_RCC_MCOConfig
 750              		.syntax unified
 751              		.thumb
 752              		.thumb_func
 753              		.fpu fpv4-sp-d16
 755              	HAL_RCC_MCOConfig:
ARM GAS  /tmp/ccYos3sw.s 			page 25


 756              	.LFB133:
 556:/home/phong/Documents/thesis/stm32f4/stm-idf/components/stm32f4xx_hal_driver/stm32f4xx_hal_rcc.c **** 
 557:/home/phong/Documents/thesis/stm32f4/stm-idf/components/stm32f4xx_hal_driver/stm32f4xx_hal_rcc.c **** /**
 558:/home/phong/Documents/thesis/stm32f4/stm-idf/components/stm32f4xx_hal_driver/stm32f4xx_hal_rcc.c ****   * @brief  Initializes the CPU, AHB and APB busses clocks according to the specified
 559:/home/phong/Documents/thesis/stm32f4/stm-idf/components/stm32f4xx_hal_driver/stm32f4xx_hal_rcc.c ****   *         parameters in the RCC_ClkInitStruct.
 560:/home/phong/Documents/thesis/stm32f4/stm-idf/components/stm32f4xx_hal_driver/stm32f4xx_hal_rcc.c ****   * @param  RCC_ClkInitStruct pointer to an RCC_OscInitTypeDef structure that
 561:/home/phong/Documents/thesis/stm32f4/stm-idf/components/stm32f4xx_hal_driver/stm32f4xx_hal_rcc.c ****   *         contains the configuration information for the RCC peripheral.
 562:/home/phong/Documents/thesis/stm32f4/stm-idf/components/stm32f4xx_hal_driver/stm32f4xx_hal_rcc.c ****   * @param  FLatency FLASH Latency, this parameter depend on device selected
 563:/home/phong/Documents/thesis/stm32f4/stm-idf/components/stm32f4xx_hal_driver/stm32f4xx_hal_rcc.c ****   *
 564:/home/phong/Documents/thesis/stm32f4/stm-idf/components/stm32f4xx_hal_driver/stm32f4xx_hal_rcc.c ****   * @note   The SystemCoreClock CMSIS variable is used to store System Clock Frequency
 565:/home/phong/Documents/thesis/stm32f4/stm-idf/components/stm32f4xx_hal_driver/stm32f4xx_hal_rcc.c ****   *         and updated by HAL_RCC_GetHCLKFreq() function called within this function
 566:/home/phong/Documents/thesis/stm32f4/stm-idf/components/stm32f4xx_hal_driver/stm32f4xx_hal_rcc.c ****   *
 567:/home/phong/Documents/thesis/stm32f4/stm-idf/components/stm32f4xx_hal_driver/stm32f4xx_hal_rcc.c ****   * @note   The HSI is used (enabled by hardware) as system clock source after
 568:/home/phong/Documents/thesis/stm32f4/stm-idf/components/stm32f4xx_hal_driver/stm32f4xx_hal_rcc.c ****   *         startup from Reset, wake-up from STOP and STANDBY mode, or in case
 569:/home/phong/Documents/thesis/stm32f4/stm-idf/components/stm32f4xx_hal_driver/stm32f4xx_hal_rcc.c ****   *         of failure of the HSE used directly or indirectly as system clock
 570:/home/phong/Documents/thesis/stm32f4/stm-idf/components/stm32f4xx_hal_driver/stm32f4xx_hal_rcc.c ****   *         (if the Clock Security System CSS is enabled).
 571:/home/phong/Documents/thesis/stm32f4/stm-idf/components/stm32f4xx_hal_driver/stm32f4xx_hal_rcc.c ****   *
 572:/home/phong/Documents/thesis/stm32f4/stm-idf/components/stm32f4xx_hal_driver/stm32f4xx_hal_rcc.c ****   * @note   A switch from one clock source to another occurs only if the target
 573:/home/phong/Documents/thesis/stm32f4/stm-idf/components/stm32f4xx_hal_driver/stm32f4xx_hal_rcc.c ****   *         clock source is ready (clock stable after startup delay or PLL locked).
 574:/home/phong/Documents/thesis/stm32f4/stm-idf/components/stm32f4xx_hal_driver/stm32f4xx_hal_rcc.c ****   *         If a clock source which is not yet ready is selected, the switch will
 575:/home/phong/Documents/thesis/stm32f4/stm-idf/components/stm32f4xx_hal_driver/stm32f4xx_hal_rcc.c ****   *         occur when the clock source will be ready.
 576:/home/phong/Documents/thesis/stm32f4/stm-idf/components/stm32f4xx_hal_driver/stm32f4xx_hal_rcc.c ****   *
 577:/home/phong/Documents/thesis/stm32f4/stm-idf/components/stm32f4xx_hal_driver/stm32f4xx_hal_rcc.c ****   * @note   Depending on the device voltage range, the software has to set correctly
 578:/home/phong/Documents/thesis/stm32f4/stm-idf/components/stm32f4xx_hal_driver/stm32f4xx_hal_rcc.c ****   *         HPRE[3:0] bits to ensure that HCLK not exceed the maximum allowed frequency
 579:/home/phong/Documents/thesis/stm32f4/stm-idf/components/stm32f4xx_hal_driver/stm32f4xx_hal_rcc.c ****   *         (for more details refer to section above "Initialization/de-initialization functions")
 580:/home/phong/Documents/thesis/stm32f4/stm-idf/components/stm32f4xx_hal_driver/stm32f4xx_hal_rcc.c ****   * @retval None
 581:/home/phong/Documents/thesis/stm32f4/stm-idf/components/stm32f4xx_hal_driver/stm32f4xx_hal_rcc.c ****   */
 582:/home/phong/Documents/thesis/stm32f4/stm-idf/components/stm32f4xx_hal_driver/stm32f4xx_hal_rcc.c **** HAL_StatusTypeDef HAL_RCC_ClockConfig(RCC_ClkInitTypeDef  *RCC_ClkInitStruct, uint32_t FLatency)
 583:/home/phong/Documents/thesis/stm32f4/stm-idf/components/stm32f4xx_hal_driver/stm32f4xx_hal_rcc.c **** {
 584:/home/phong/Documents/thesis/stm32f4/stm-idf/components/stm32f4xx_hal_driver/stm32f4xx_hal_rcc.c ****   uint32_t tickstart;
 585:/home/phong/Documents/thesis/stm32f4/stm-idf/components/stm32f4xx_hal_driver/stm32f4xx_hal_rcc.c **** 
 586:/home/phong/Documents/thesis/stm32f4/stm-idf/components/stm32f4xx_hal_driver/stm32f4xx_hal_rcc.c ****   /* Check Null pointer */
 587:/home/phong/Documents/thesis/stm32f4/stm-idf/components/stm32f4xx_hal_driver/stm32f4xx_hal_rcc.c ****   if(RCC_ClkInitStruct == NULL)
 588:/home/phong/Documents/thesis/stm32f4/stm-idf/components/stm32f4xx_hal_driver/stm32f4xx_hal_rcc.c ****   {
 589:/home/phong/Documents/thesis/stm32f4/stm-idf/components/stm32f4xx_hal_driver/stm32f4xx_hal_rcc.c ****     return HAL_ERROR;
 590:/home/phong/Documents/thesis/stm32f4/stm-idf/components/stm32f4xx_hal_driver/stm32f4xx_hal_rcc.c ****   }
 591:/home/phong/Documents/thesis/stm32f4/stm-idf/components/stm32f4xx_hal_driver/stm32f4xx_hal_rcc.c **** 
 592:/home/phong/Documents/thesis/stm32f4/stm-idf/components/stm32f4xx_hal_driver/stm32f4xx_hal_rcc.c ****   /* Check the parameters */
 593:/home/phong/Documents/thesis/stm32f4/stm-idf/components/stm32f4xx_hal_driver/stm32f4xx_hal_rcc.c ****   assert_param(IS_RCC_CLOCKTYPE(RCC_ClkInitStruct->ClockType));
 594:/home/phong/Documents/thesis/stm32f4/stm-idf/components/stm32f4xx_hal_driver/stm32f4xx_hal_rcc.c ****   assert_param(IS_FLASH_LATENCY(FLatency));
 595:/home/phong/Documents/thesis/stm32f4/stm-idf/components/stm32f4xx_hal_driver/stm32f4xx_hal_rcc.c **** 
 596:/home/phong/Documents/thesis/stm32f4/stm-idf/components/stm32f4xx_hal_driver/stm32f4xx_hal_rcc.c ****   /* To correctly read data from FLASH memory, the number of wait states (LATENCY)
 597:/home/phong/Documents/thesis/stm32f4/stm-idf/components/stm32f4xx_hal_driver/stm32f4xx_hal_rcc.c ****     must be correctly programmed according to the frequency of the CPU clock
 598:/home/phong/Documents/thesis/stm32f4/stm-idf/components/stm32f4xx_hal_driver/stm32f4xx_hal_rcc.c ****     (HCLK) and the supply voltage of the device. */
 599:/home/phong/Documents/thesis/stm32f4/stm-idf/components/stm32f4xx_hal_driver/stm32f4xx_hal_rcc.c **** 
 600:/home/phong/Documents/thesis/stm32f4/stm-idf/components/stm32f4xx_hal_driver/stm32f4xx_hal_rcc.c ****   /* Increasing the number of wait states because of higher CPU frequency */
 601:/home/phong/Documents/thesis/stm32f4/stm-idf/components/stm32f4xx_hal_driver/stm32f4xx_hal_rcc.c ****   if(FLatency > __HAL_FLASH_GET_LATENCY())
 602:/home/phong/Documents/thesis/stm32f4/stm-idf/components/stm32f4xx_hal_driver/stm32f4xx_hal_rcc.c ****   {
 603:/home/phong/Documents/thesis/stm32f4/stm-idf/components/stm32f4xx_hal_driver/stm32f4xx_hal_rcc.c ****     /* Program the new number of wait states to the LATENCY bits in the FLASH_ACR register */
 604:/home/phong/Documents/thesis/stm32f4/stm-idf/components/stm32f4xx_hal_driver/stm32f4xx_hal_rcc.c ****     __HAL_FLASH_SET_LATENCY(FLatency);
 605:/home/phong/Documents/thesis/stm32f4/stm-idf/components/stm32f4xx_hal_driver/stm32f4xx_hal_rcc.c **** 
 606:/home/phong/Documents/thesis/stm32f4/stm-idf/components/stm32f4xx_hal_driver/stm32f4xx_hal_rcc.c ****     /* Check that the new number of wait states is taken into account to access the Flash
 607:/home/phong/Documents/thesis/stm32f4/stm-idf/components/stm32f4xx_hal_driver/stm32f4xx_hal_rcc.c ****     memory by reading the FLASH_ACR register */
 608:/home/phong/Documents/thesis/stm32f4/stm-idf/components/stm32f4xx_hal_driver/stm32f4xx_hal_rcc.c ****     if(__HAL_FLASH_GET_LATENCY() != FLatency)
 609:/home/phong/Documents/thesis/stm32f4/stm-idf/components/stm32f4xx_hal_driver/stm32f4xx_hal_rcc.c ****     {
 610:/home/phong/Documents/thesis/stm32f4/stm-idf/components/stm32f4xx_hal_driver/stm32f4xx_hal_rcc.c ****       return HAL_ERROR;
 611:/home/phong/Documents/thesis/stm32f4/stm-idf/components/stm32f4xx_hal_driver/stm32f4xx_hal_rcc.c ****     }
ARM GAS  /tmp/ccYos3sw.s 			page 26


 612:/home/phong/Documents/thesis/stm32f4/stm-idf/components/stm32f4xx_hal_driver/stm32f4xx_hal_rcc.c ****   }
 613:/home/phong/Documents/thesis/stm32f4/stm-idf/components/stm32f4xx_hal_driver/stm32f4xx_hal_rcc.c **** 
 614:/home/phong/Documents/thesis/stm32f4/stm-idf/components/stm32f4xx_hal_driver/stm32f4xx_hal_rcc.c ****   /*-------------------------- HCLK Configuration --------------------------*/
 615:/home/phong/Documents/thesis/stm32f4/stm-idf/components/stm32f4xx_hal_driver/stm32f4xx_hal_rcc.c ****   if(((RCC_ClkInitStruct->ClockType) & RCC_CLOCKTYPE_HCLK) == RCC_CLOCKTYPE_HCLK)
 616:/home/phong/Documents/thesis/stm32f4/stm-idf/components/stm32f4xx_hal_driver/stm32f4xx_hal_rcc.c ****   {
 617:/home/phong/Documents/thesis/stm32f4/stm-idf/components/stm32f4xx_hal_driver/stm32f4xx_hal_rcc.c ****     /* Set the highest APBx dividers in order to ensure that we do not go through
 618:/home/phong/Documents/thesis/stm32f4/stm-idf/components/stm32f4xx_hal_driver/stm32f4xx_hal_rcc.c ****        a non-spec phase whatever we decrease or increase HCLK. */
 619:/home/phong/Documents/thesis/stm32f4/stm-idf/components/stm32f4xx_hal_driver/stm32f4xx_hal_rcc.c ****     if(((RCC_ClkInitStruct->ClockType) & RCC_CLOCKTYPE_PCLK1) == RCC_CLOCKTYPE_PCLK1)
 620:/home/phong/Documents/thesis/stm32f4/stm-idf/components/stm32f4xx_hal_driver/stm32f4xx_hal_rcc.c ****     {
 621:/home/phong/Documents/thesis/stm32f4/stm-idf/components/stm32f4xx_hal_driver/stm32f4xx_hal_rcc.c ****       MODIFY_REG(RCC->CFGR, RCC_CFGR_PPRE1, RCC_HCLK_DIV16);
 622:/home/phong/Documents/thesis/stm32f4/stm-idf/components/stm32f4xx_hal_driver/stm32f4xx_hal_rcc.c ****     }
 623:/home/phong/Documents/thesis/stm32f4/stm-idf/components/stm32f4xx_hal_driver/stm32f4xx_hal_rcc.c **** 
 624:/home/phong/Documents/thesis/stm32f4/stm-idf/components/stm32f4xx_hal_driver/stm32f4xx_hal_rcc.c ****     if(((RCC_ClkInitStruct->ClockType) & RCC_CLOCKTYPE_PCLK2) == RCC_CLOCKTYPE_PCLK2)
 625:/home/phong/Documents/thesis/stm32f4/stm-idf/components/stm32f4xx_hal_driver/stm32f4xx_hal_rcc.c ****     {
 626:/home/phong/Documents/thesis/stm32f4/stm-idf/components/stm32f4xx_hal_driver/stm32f4xx_hal_rcc.c ****       MODIFY_REG(RCC->CFGR, RCC_CFGR_PPRE2, (RCC_HCLK_DIV16 << 3));
 627:/home/phong/Documents/thesis/stm32f4/stm-idf/components/stm32f4xx_hal_driver/stm32f4xx_hal_rcc.c ****     }
 628:/home/phong/Documents/thesis/stm32f4/stm-idf/components/stm32f4xx_hal_driver/stm32f4xx_hal_rcc.c **** 
 629:/home/phong/Documents/thesis/stm32f4/stm-idf/components/stm32f4xx_hal_driver/stm32f4xx_hal_rcc.c ****     assert_param(IS_RCC_HCLK(RCC_ClkInitStruct->AHBCLKDivider));
 630:/home/phong/Documents/thesis/stm32f4/stm-idf/components/stm32f4xx_hal_driver/stm32f4xx_hal_rcc.c ****     MODIFY_REG(RCC->CFGR, RCC_CFGR_HPRE, RCC_ClkInitStruct->AHBCLKDivider);
 631:/home/phong/Documents/thesis/stm32f4/stm-idf/components/stm32f4xx_hal_driver/stm32f4xx_hal_rcc.c ****   }
 632:/home/phong/Documents/thesis/stm32f4/stm-idf/components/stm32f4xx_hal_driver/stm32f4xx_hal_rcc.c **** 
 633:/home/phong/Documents/thesis/stm32f4/stm-idf/components/stm32f4xx_hal_driver/stm32f4xx_hal_rcc.c ****   /*------------------------- SYSCLK Configuration ---------------------------*/
 634:/home/phong/Documents/thesis/stm32f4/stm-idf/components/stm32f4xx_hal_driver/stm32f4xx_hal_rcc.c ****   if(((RCC_ClkInitStruct->ClockType) & RCC_CLOCKTYPE_SYSCLK) == RCC_CLOCKTYPE_SYSCLK)
 635:/home/phong/Documents/thesis/stm32f4/stm-idf/components/stm32f4xx_hal_driver/stm32f4xx_hal_rcc.c ****   {
 636:/home/phong/Documents/thesis/stm32f4/stm-idf/components/stm32f4xx_hal_driver/stm32f4xx_hal_rcc.c ****     assert_param(IS_RCC_SYSCLKSOURCE(RCC_ClkInitStruct->SYSCLKSource));
 637:/home/phong/Documents/thesis/stm32f4/stm-idf/components/stm32f4xx_hal_driver/stm32f4xx_hal_rcc.c **** 
 638:/home/phong/Documents/thesis/stm32f4/stm-idf/components/stm32f4xx_hal_driver/stm32f4xx_hal_rcc.c ****     /* HSE is selected as System Clock Source */
 639:/home/phong/Documents/thesis/stm32f4/stm-idf/components/stm32f4xx_hal_driver/stm32f4xx_hal_rcc.c ****     if(RCC_ClkInitStruct->SYSCLKSource == RCC_SYSCLKSOURCE_HSE)
 640:/home/phong/Documents/thesis/stm32f4/stm-idf/components/stm32f4xx_hal_driver/stm32f4xx_hal_rcc.c ****     {
 641:/home/phong/Documents/thesis/stm32f4/stm-idf/components/stm32f4xx_hal_driver/stm32f4xx_hal_rcc.c ****       /* Check the HSE ready flag */
 642:/home/phong/Documents/thesis/stm32f4/stm-idf/components/stm32f4xx_hal_driver/stm32f4xx_hal_rcc.c ****       if(__HAL_RCC_GET_FLAG(RCC_FLAG_HSERDY) == RESET)
 643:/home/phong/Documents/thesis/stm32f4/stm-idf/components/stm32f4xx_hal_driver/stm32f4xx_hal_rcc.c ****       {
 644:/home/phong/Documents/thesis/stm32f4/stm-idf/components/stm32f4xx_hal_driver/stm32f4xx_hal_rcc.c ****         return HAL_ERROR;
 645:/home/phong/Documents/thesis/stm32f4/stm-idf/components/stm32f4xx_hal_driver/stm32f4xx_hal_rcc.c ****       }
 646:/home/phong/Documents/thesis/stm32f4/stm-idf/components/stm32f4xx_hal_driver/stm32f4xx_hal_rcc.c ****     }
 647:/home/phong/Documents/thesis/stm32f4/stm-idf/components/stm32f4xx_hal_driver/stm32f4xx_hal_rcc.c ****     /* PLL is selected as System Clock Source */
 648:/home/phong/Documents/thesis/stm32f4/stm-idf/components/stm32f4xx_hal_driver/stm32f4xx_hal_rcc.c ****     else if((RCC_ClkInitStruct->SYSCLKSource == RCC_SYSCLKSOURCE_PLLCLK)   ||
 649:/home/phong/Documents/thesis/stm32f4/stm-idf/components/stm32f4xx_hal_driver/stm32f4xx_hal_rcc.c ****             (RCC_ClkInitStruct->SYSCLKSource == RCC_SYSCLKSOURCE_PLLRCLK))
 650:/home/phong/Documents/thesis/stm32f4/stm-idf/components/stm32f4xx_hal_driver/stm32f4xx_hal_rcc.c ****     {
 651:/home/phong/Documents/thesis/stm32f4/stm-idf/components/stm32f4xx_hal_driver/stm32f4xx_hal_rcc.c ****       /* Check the PLL ready flag */
 652:/home/phong/Documents/thesis/stm32f4/stm-idf/components/stm32f4xx_hal_driver/stm32f4xx_hal_rcc.c ****       if(__HAL_RCC_GET_FLAG(RCC_FLAG_PLLRDY) == RESET)
 653:/home/phong/Documents/thesis/stm32f4/stm-idf/components/stm32f4xx_hal_driver/stm32f4xx_hal_rcc.c ****       {
 654:/home/phong/Documents/thesis/stm32f4/stm-idf/components/stm32f4xx_hal_driver/stm32f4xx_hal_rcc.c ****         return HAL_ERROR;
 655:/home/phong/Documents/thesis/stm32f4/stm-idf/components/stm32f4xx_hal_driver/stm32f4xx_hal_rcc.c ****       }
 656:/home/phong/Documents/thesis/stm32f4/stm-idf/components/stm32f4xx_hal_driver/stm32f4xx_hal_rcc.c ****     }
 657:/home/phong/Documents/thesis/stm32f4/stm-idf/components/stm32f4xx_hal_driver/stm32f4xx_hal_rcc.c ****     /* HSI is selected as System Clock Source */
 658:/home/phong/Documents/thesis/stm32f4/stm-idf/components/stm32f4xx_hal_driver/stm32f4xx_hal_rcc.c ****     else
 659:/home/phong/Documents/thesis/stm32f4/stm-idf/components/stm32f4xx_hal_driver/stm32f4xx_hal_rcc.c ****     {
 660:/home/phong/Documents/thesis/stm32f4/stm-idf/components/stm32f4xx_hal_driver/stm32f4xx_hal_rcc.c ****       /* Check the HSI ready flag */
 661:/home/phong/Documents/thesis/stm32f4/stm-idf/components/stm32f4xx_hal_driver/stm32f4xx_hal_rcc.c ****       if(__HAL_RCC_GET_FLAG(RCC_FLAG_HSIRDY) == RESET)
 662:/home/phong/Documents/thesis/stm32f4/stm-idf/components/stm32f4xx_hal_driver/stm32f4xx_hal_rcc.c ****       {
 663:/home/phong/Documents/thesis/stm32f4/stm-idf/components/stm32f4xx_hal_driver/stm32f4xx_hal_rcc.c ****         return HAL_ERROR;
 664:/home/phong/Documents/thesis/stm32f4/stm-idf/components/stm32f4xx_hal_driver/stm32f4xx_hal_rcc.c ****       }
 665:/home/phong/Documents/thesis/stm32f4/stm-idf/components/stm32f4xx_hal_driver/stm32f4xx_hal_rcc.c ****     }
 666:/home/phong/Documents/thesis/stm32f4/stm-idf/components/stm32f4xx_hal_driver/stm32f4xx_hal_rcc.c **** 
 667:/home/phong/Documents/thesis/stm32f4/stm-idf/components/stm32f4xx_hal_driver/stm32f4xx_hal_rcc.c ****     __HAL_RCC_SYSCLK_CONFIG(RCC_ClkInitStruct->SYSCLKSource);
 668:/home/phong/Documents/thesis/stm32f4/stm-idf/components/stm32f4xx_hal_driver/stm32f4xx_hal_rcc.c **** 
ARM GAS  /tmp/ccYos3sw.s 			page 27


 669:/home/phong/Documents/thesis/stm32f4/stm-idf/components/stm32f4xx_hal_driver/stm32f4xx_hal_rcc.c ****     /* Get Start Tick */
 670:/home/phong/Documents/thesis/stm32f4/stm-idf/components/stm32f4xx_hal_driver/stm32f4xx_hal_rcc.c ****     tickstart = HAL_GetTick();
 671:/home/phong/Documents/thesis/stm32f4/stm-idf/components/stm32f4xx_hal_driver/stm32f4xx_hal_rcc.c **** 
 672:/home/phong/Documents/thesis/stm32f4/stm-idf/components/stm32f4xx_hal_driver/stm32f4xx_hal_rcc.c ****     while (__HAL_RCC_GET_SYSCLK_SOURCE() != (RCC_ClkInitStruct->SYSCLKSource << RCC_CFGR_SWS_Pos))
 673:/home/phong/Documents/thesis/stm32f4/stm-idf/components/stm32f4xx_hal_driver/stm32f4xx_hal_rcc.c ****     {
 674:/home/phong/Documents/thesis/stm32f4/stm-idf/components/stm32f4xx_hal_driver/stm32f4xx_hal_rcc.c ****       if ((HAL_GetTick() - tickstart) > CLOCKSWITCH_TIMEOUT_VALUE)
 675:/home/phong/Documents/thesis/stm32f4/stm-idf/components/stm32f4xx_hal_driver/stm32f4xx_hal_rcc.c ****       {
 676:/home/phong/Documents/thesis/stm32f4/stm-idf/components/stm32f4xx_hal_driver/stm32f4xx_hal_rcc.c ****         return HAL_TIMEOUT;
 677:/home/phong/Documents/thesis/stm32f4/stm-idf/components/stm32f4xx_hal_driver/stm32f4xx_hal_rcc.c ****       }
 678:/home/phong/Documents/thesis/stm32f4/stm-idf/components/stm32f4xx_hal_driver/stm32f4xx_hal_rcc.c ****     }
 679:/home/phong/Documents/thesis/stm32f4/stm-idf/components/stm32f4xx_hal_driver/stm32f4xx_hal_rcc.c ****   }
 680:/home/phong/Documents/thesis/stm32f4/stm-idf/components/stm32f4xx_hal_driver/stm32f4xx_hal_rcc.c **** 
 681:/home/phong/Documents/thesis/stm32f4/stm-idf/components/stm32f4xx_hal_driver/stm32f4xx_hal_rcc.c ****   /* Decreasing the number of wait states because of lower CPU frequency */
 682:/home/phong/Documents/thesis/stm32f4/stm-idf/components/stm32f4xx_hal_driver/stm32f4xx_hal_rcc.c ****   if(FLatency < __HAL_FLASH_GET_LATENCY())
 683:/home/phong/Documents/thesis/stm32f4/stm-idf/components/stm32f4xx_hal_driver/stm32f4xx_hal_rcc.c ****   {
 684:/home/phong/Documents/thesis/stm32f4/stm-idf/components/stm32f4xx_hal_driver/stm32f4xx_hal_rcc.c ****      /* Program the new number of wait states to the LATENCY bits in the FLASH_ACR register */
 685:/home/phong/Documents/thesis/stm32f4/stm-idf/components/stm32f4xx_hal_driver/stm32f4xx_hal_rcc.c ****     __HAL_FLASH_SET_LATENCY(FLatency);
 686:/home/phong/Documents/thesis/stm32f4/stm-idf/components/stm32f4xx_hal_driver/stm32f4xx_hal_rcc.c **** 
 687:/home/phong/Documents/thesis/stm32f4/stm-idf/components/stm32f4xx_hal_driver/stm32f4xx_hal_rcc.c ****     /* Check that the new number of wait states is taken into account to access the Flash
 688:/home/phong/Documents/thesis/stm32f4/stm-idf/components/stm32f4xx_hal_driver/stm32f4xx_hal_rcc.c ****     memory by reading the FLASH_ACR register */
 689:/home/phong/Documents/thesis/stm32f4/stm-idf/components/stm32f4xx_hal_driver/stm32f4xx_hal_rcc.c ****     if(__HAL_FLASH_GET_LATENCY() != FLatency)
 690:/home/phong/Documents/thesis/stm32f4/stm-idf/components/stm32f4xx_hal_driver/stm32f4xx_hal_rcc.c ****     {
 691:/home/phong/Documents/thesis/stm32f4/stm-idf/components/stm32f4xx_hal_driver/stm32f4xx_hal_rcc.c ****       return HAL_ERROR;
 692:/home/phong/Documents/thesis/stm32f4/stm-idf/components/stm32f4xx_hal_driver/stm32f4xx_hal_rcc.c ****     }
 693:/home/phong/Documents/thesis/stm32f4/stm-idf/components/stm32f4xx_hal_driver/stm32f4xx_hal_rcc.c ****   }
 694:/home/phong/Documents/thesis/stm32f4/stm-idf/components/stm32f4xx_hal_driver/stm32f4xx_hal_rcc.c **** 
 695:/home/phong/Documents/thesis/stm32f4/stm-idf/components/stm32f4xx_hal_driver/stm32f4xx_hal_rcc.c ****   /*-------------------------- PCLK1 Configuration ---------------------------*/
 696:/home/phong/Documents/thesis/stm32f4/stm-idf/components/stm32f4xx_hal_driver/stm32f4xx_hal_rcc.c ****   if(((RCC_ClkInitStruct->ClockType) & RCC_CLOCKTYPE_PCLK1) == RCC_CLOCKTYPE_PCLK1)
 697:/home/phong/Documents/thesis/stm32f4/stm-idf/components/stm32f4xx_hal_driver/stm32f4xx_hal_rcc.c ****   {
 698:/home/phong/Documents/thesis/stm32f4/stm-idf/components/stm32f4xx_hal_driver/stm32f4xx_hal_rcc.c ****     assert_param(IS_RCC_PCLK(RCC_ClkInitStruct->APB1CLKDivider));
 699:/home/phong/Documents/thesis/stm32f4/stm-idf/components/stm32f4xx_hal_driver/stm32f4xx_hal_rcc.c ****     MODIFY_REG(RCC->CFGR, RCC_CFGR_PPRE1, RCC_ClkInitStruct->APB1CLKDivider);
 700:/home/phong/Documents/thesis/stm32f4/stm-idf/components/stm32f4xx_hal_driver/stm32f4xx_hal_rcc.c ****   }
 701:/home/phong/Documents/thesis/stm32f4/stm-idf/components/stm32f4xx_hal_driver/stm32f4xx_hal_rcc.c **** 
 702:/home/phong/Documents/thesis/stm32f4/stm-idf/components/stm32f4xx_hal_driver/stm32f4xx_hal_rcc.c ****   /*-------------------------- PCLK2 Configuration ---------------------------*/
 703:/home/phong/Documents/thesis/stm32f4/stm-idf/components/stm32f4xx_hal_driver/stm32f4xx_hal_rcc.c ****   if(((RCC_ClkInitStruct->ClockType) & RCC_CLOCKTYPE_PCLK2) == RCC_CLOCKTYPE_PCLK2)
 704:/home/phong/Documents/thesis/stm32f4/stm-idf/components/stm32f4xx_hal_driver/stm32f4xx_hal_rcc.c ****   {
 705:/home/phong/Documents/thesis/stm32f4/stm-idf/components/stm32f4xx_hal_driver/stm32f4xx_hal_rcc.c ****     assert_param(IS_RCC_PCLK(RCC_ClkInitStruct->APB2CLKDivider));
 706:/home/phong/Documents/thesis/stm32f4/stm-idf/components/stm32f4xx_hal_driver/stm32f4xx_hal_rcc.c ****     MODIFY_REG(RCC->CFGR, RCC_CFGR_PPRE2, ((RCC_ClkInitStruct->APB2CLKDivider) << 3U));
 707:/home/phong/Documents/thesis/stm32f4/stm-idf/components/stm32f4xx_hal_driver/stm32f4xx_hal_rcc.c ****   }
 708:/home/phong/Documents/thesis/stm32f4/stm-idf/components/stm32f4xx_hal_driver/stm32f4xx_hal_rcc.c **** 
 709:/home/phong/Documents/thesis/stm32f4/stm-idf/components/stm32f4xx_hal_driver/stm32f4xx_hal_rcc.c ****   /* Update the SystemCoreClock global variable */
 710:/home/phong/Documents/thesis/stm32f4/stm-idf/components/stm32f4xx_hal_driver/stm32f4xx_hal_rcc.c ****   SystemCoreClock = HAL_RCC_GetSysClockFreq() >> AHBPrescTable[(RCC->CFGR & RCC_CFGR_HPRE)>> RCC_CF
 711:/home/phong/Documents/thesis/stm32f4/stm-idf/components/stm32f4xx_hal_driver/stm32f4xx_hal_rcc.c **** 
 712:/home/phong/Documents/thesis/stm32f4/stm-idf/components/stm32f4xx_hal_driver/stm32f4xx_hal_rcc.c ****   /* Configure the source of time base considering new system clocks settings */
 713:/home/phong/Documents/thesis/stm32f4/stm-idf/components/stm32f4xx_hal_driver/stm32f4xx_hal_rcc.c ****   HAL_InitTick (uwTickPrio);
 714:/home/phong/Documents/thesis/stm32f4/stm-idf/components/stm32f4xx_hal_driver/stm32f4xx_hal_rcc.c **** 
 715:/home/phong/Documents/thesis/stm32f4/stm-idf/components/stm32f4xx_hal_driver/stm32f4xx_hal_rcc.c ****   return HAL_OK;
 716:/home/phong/Documents/thesis/stm32f4/stm-idf/components/stm32f4xx_hal_driver/stm32f4xx_hal_rcc.c **** }
 717:/home/phong/Documents/thesis/stm32f4/stm-idf/components/stm32f4xx_hal_driver/stm32f4xx_hal_rcc.c **** 
 718:/home/phong/Documents/thesis/stm32f4/stm-idf/components/stm32f4xx_hal_driver/stm32f4xx_hal_rcc.c **** /**
 719:/home/phong/Documents/thesis/stm32f4/stm-idf/components/stm32f4xx_hal_driver/stm32f4xx_hal_rcc.c ****   * @}
 720:/home/phong/Documents/thesis/stm32f4/stm-idf/components/stm32f4xx_hal_driver/stm32f4xx_hal_rcc.c ****   */
 721:/home/phong/Documents/thesis/stm32f4/stm-idf/components/stm32f4xx_hal_driver/stm32f4xx_hal_rcc.c **** 
 722:/home/phong/Documents/thesis/stm32f4/stm-idf/components/stm32f4xx_hal_driver/stm32f4xx_hal_rcc.c **** /** @defgroup RCC_Exported_Functions_Group2 Peripheral Control functions
 723:/home/phong/Documents/thesis/stm32f4/stm-idf/components/stm32f4xx_hal_driver/stm32f4xx_hal_rcc.c ****  *  @brief   RCC clocks control functions
 724:/home/phong/Documents/thesis/stm32f4/stm-idf/components/stm32f4xx_hal_driver/stm32f4xx_hal_rcc.c ****  *
 725:/home/phong/Documents/thesis/stm32f4/stm-idf/components/stm32f4xx_hal_driver/stm32f4xx_hal_rcc.c **** @verbatim
ARM GAS  /tmp/ccYos3sw.s 			page 28


 726:/home/phong/Documents/thesis/stm32f4/stm-idf/components/stm32f4xx_hal_driver/stm32f4xx_hal_rcc.c ****  ===============================================================================
 727:/home/phong/Documents/thesis/stm32f4/stm-idf/components/stm32f4xx_hal_driver/stm32f4xx_hal_rcc.c ****                       ##### Peripheral Control functions #####
 728:/home/phong/Documents/thesis/stm32f4/stm-idf/components/stm32f4xx_hal_driver/stm32f4xx_hal_rcc.c ****  ===============================================================================
 729:/home/phong/Documents/thesis/stm32f4/stm-idf/components/stm32f4xx_hal_driver/stm32f4xx_hal_rcc.c ****     [..]
 730:/home/phong/Documents/thesis/stm32f4/stm-idf/components/stm32f4xx_hal_driver/stm32f4xx_hal_rcc.c ****     This subsection provides a set of functions allowing to control the RCC Clocks
 731:/home/phong/Documents/thesis/stm32f4/stm-idf/components/stm32f4xx_hal_driver/stm32f4xx_hal_rcc.c ****     frequencies.
 732:/home/phong/Documents/thesis/stm32f4/stm-idf/components/stm32f4xx_hal_driver/stm32f4xx_hal_rcc.c **** 
 733:/home/phong/Documents/thesis/stm32f4/stm-idf/components/stm32f4xx_hal_driver/stm32f4xx_hal_rcc.c **** @endverbatim
 734:/home/phong/Documents/thesis/stm32f4/stm-idf/components/stm32f4xx_hal_driver/stm32f4xx_hal_rcc.c ****   * @{
 735:/home/phong/Documents/thesis/stm32f4/stm-idf/components/stm32f4xx_hal_driver/stm32f4xx_hal_rcc.c ****   */
 736:/home/phong/Documents/thesis/stm32f4/stm-idf/components/stm32f4xx_hal_driver/stm32f4xx_hal_rcc.c **** 
 737:/home/phong/Documents/thesis/stm32f4/stm-idf/components/stm32f4xx_hal_driver/stm32f4xx_hal_rcc.c **** /**
 738:/home/phong/Documents/thesis/stm32f4/stm-idf/components/stm32f4xx_hal_driver/stm32f4xx_hal_rcc.c ****   * @brief  Selects the clock source to output on MCO1 pin(PA8) or on MCO2 pin(PC9).
 739:/home/phong/Documents/thesis/stm32f4/stm-idf/components/stm32f4xx_hal_driver/stm32f4xx_hal_rcc.c ****   * @note   PA8/PC9 should be configured in alternate function mode.
 740:/home/phong/Documents/thesis/stm32f4/stm-idf/components/stm32f4xx_hal_driver/stm32f4xx_hal_rcc.c ****   * @param  RCC_MCOx specifies the output direction for the clock source.
 741:/home/phong/Documents/thesis/stm32f4/stm-idf/components/stm32f4xx_hal_driver/stm32f4xx_hal_rcc.c ****   *          This parameter can be one of the following values:
 742:/home/phong/Documents/thesis/stm32f4/stm-idf/components/stm32f4xx_hal_driver/stm32f4xx_hal_rcc.c ****   *            @arg RCC_MCO1: Clock source to output on MCO1 pin(PA8).
 743:/home/phong/Documents/thesis/stm32f4/stm-idf/components/stm32f4xx_hal_driver/stm32f4xx_hal_rcc.c ****   *            @arg RCC_MCO2: Clock source to output on MCO2 pin(PC9).
 744:/home/phong/Documents/thesis/stm32f4/stm-idf/components/stm32f4xx_hal_driver/stm32f4xx_hal_rcc.c ****   * @param  RCC_MCOSource specifies the clock source to output.
 745:/home/phong/Documents/thesis/stm32f4/stm-idf/components/stm32f4xx_hal_driver/stm32f4xx_hal_rcc.c ****   *          This parameter can be one of the following values:
 746:/home/phong/Documents/thesis/stm32f4/stm-idf/components/stm32f4xx_hal_driver/stm32f4xx_hal_rcc.c ****   *            @arg RCC_MCO1SOURCE_HSI: HSI clock selected as MCO1 source
 747:/home/phong/Documents/thesis/stm32f4/stm-idf/components/stm32f4xx_hal_driver/stm32f4xx_hal_rcc.c ****   *            @arg RCC_MCO1SOURCE_LSE: LSE clock selected as MCO1 source
 748:/home/phong/Documents/thesis/stm32f4/stm-idf/components/stm32f4xx_hal_driver/stm32f4xx_hal_rcc.c ****   *            @arg RCC_MCO1SOURCE_HSE: HSE clock selected as MCO1 source
 749:/home/phong/Documents/thesis/stm32f4/stm-idf/components/stm32f4xx_hal_driver/stm32f4xx_hal_rcc.c ****   *            @arg RCC_MCO1SOURCE_PLLCLK: main PLL clock selected as MCO1 source
 750:/home/phong/Documents/thesis/stm32f4/stm-idf/components/stm32f4xx_hal_driver/stm32f4xx_hal_rcc.c ****   *            @arg RCC_MCO2SOURCE_SYSCLK: System clock (SYSCLK) selected as MCO2 source
 751:/home/phong/Documents/thesis/stm32f4/stm-idf/components/stm32f4xx_hal_driver/stm32f4xx_hal_rcc.c ****   *            @arg RCC_MCO2SOURCE_PLLI2SCLK: PLLI2S clock selected as MCO2 source, available for a
 752:/home/phong/Documents/thesis/stm32f4/stm-idf/components/stm32f4xx_hal_driver/stm32f4xx_hal_rcc.c ****   *            @arg RCC_MCO2SOURCE_I2SCLK: I2SCLK clock selected as MCO2 source, available only for
 753:/home/phong/Documents/thesis/stm32f4/stm-idf/components/stm32f4xx_hal_driver/stm32f4xx_hal_rcc.c ****   *            @arg RCC_MCO2SOURCE_HSE: HSE clock selected as MCO2 source
 754:/home/phong/Documents/thesis/stm32f4/stm-idf/components/stm32f4xx_hal_driver/stm32f4xx_hal_rcc.c ****   *            @arg RCC_MCO2SOURCE_PLLCLK: main PLL clock selected as MCO2 source
 755:/home/phong/Documents/thesis/stm32f4/stm-idf/components/stm32f4xx_hal_driver/stm32f4xx_hal_rcc.c ****   * @param  RCC_MCODiv specifies the MCOx prescaler.
 756:/home/phong/Documents/thesis/stm32f4/stm-idf/components/stm32f4xx_hal_driver/stm32f4xx_hal_rcc.c ****   *          This parameter can be one of the following values:
 757:/home/phong/Documents/thesis/stm32f4/stm-idf/components/stm32f4xx_hal_driver/stm32f4xx_hal_rcc.c ****   *            @arg RCC_MCODIV_1: no division applied to MCOx clock
 758:/home/phong/Documents/thesis/stm32f4/stm-idf/components/stm32f4xx_hal_driver/stm32f4xx_hal_rcc.c ****   *            @arg RCC_MCODIV_2: division by 2 applied to MCOx clock
 759:/home/phong/Documents/thesis/stm32f4/stm-idf/components/stm32f4xx_hal_driver/stm32f4xx_hal_rcc.c ****   *            @arg RCC_MCODIV_3: division by 3 applied to MCOx clock
 760:/home/phong/Documents/thesis/stm32f4/stm-idf/components/stm32f4xx_hal_driver/stm32f4xx_hal_rcc.c ****   *            @arg RCC_MCODIV_4: division by 4 applied to MCOx clock
 761:/home/phong/Documents/thesis/stm32f4/stm-idf/components/stm32f4xx_hal_driver/stm32f4xx_hal_rcc.c ****   *            @arg RCC_MCODIV_5: division by 5 applied to MCOx clock
 762:/home/phong/Documents/thesis/stm32f4/stm-idf/components/stm32f4xx_hal_driver/stm32f4xx_hal_rcc.c ****   * @note  For STM32F410Rx devices to output I2SCLK clock on MCO2 you should have
 763:/home/phong/Documents/thesis/stm32f4/stm-idf/components/stm32f4xx_hal_driver/stm32f4xx_hal_rcc.c ****   *        at last one of the SPI clocks enabled (SPI1, SPI2 or SPI5).
 764:/home/phong/Documents/thesis/stm32f4/stm-idf/components/stm32f4xx_hal_driver/stm32f4xx_hal_rcc.c ****   * @retval None
 765:/home/phong/Documents/thesis/stm32f4/stm-idf/components/stm32f4xx_hal_driver/stm32f4xx_hal_rcc.c ****   */
 766:/home/phong/Documents/thesis/stm32f4/stm-idf/components/stm32f4xx_hal_driver/stm32f4xx_hal_rcc.c **** void HAL_RCC_MCOConfig(uint32_t RCC_MCOx, uint32_t RCC_MCOSource, uint32_t RCC_MCODiv)
 767:/home/phong/Documents/thesis/stm32f4/stm-idf/components/stm32f4xx_hal_driver/stm32f4xx_hal_rcc.c **** {
 757              		.loc 1 767 0
 758              		.cfi_startproc
 759              		@ args = 0, pretend = 0, frame = 32
 760              		@ frame_needed = 0, uses_anonymous_args = 0
 761              	.LVL62:
 762 0000 70B5     		push	{r4, r5, r6, lr}
 763              	.LCFI6:
 764              		.cfi_def_cfa_offset 16
 765              		.cfi_offset 4, -16
 766              		.cfi_offset 5, -12
 767              		.cfi_offset 6, -8
 768              		.cfi_offset 14, -4
 769 0002 88B0     		sub	sp, sp, #32
 770              	.LCFI7:
 771              		.cfi_def_cfa_offset 48
ARM GAS  /tmp/ccYos3sw.s 			page 29


 772 0004 0C46     		mov	r4, r1
 773 0006 1646     		mov	r6, r2
 768:/home/phong/Documents/thesis/stm32f4/stm-idf/components/stm32f4xx_hal_driver/stm32f4xx_hal_rcc.c ****   GPIO_InitTypeDef GPIO_InitStruct;
 769:/home/phong/Documents/thesis/stm32f4/stm-idf/components/stm32f4xx_hal_driver/stm32f4xx_hal_rcc.c ****   /* Check the parameters */
 770:/home/phong/Documents/thesis/stm32f4/stm-idf/components/stm32f4xx_hal_driver/stm32f4xx_hal_rcc.c ****   assert_param(IS_RCC_MCO(RCC_MCOx));
 771:/home/phong/Documents/thesis/stm32f4/stm-idf/components/stm32f4xx_hal_driver/stm32f4xx_hal_rcc.c ****   assert_param(IS_RCC_MCODIV(RCC_MCODiv));
 772:/home/phong/Documents/thesis/stm32f4/stm-idf/components/stm32f4xx_hal_driver/stm32f4xx_hal_rcc.c ****   /* RCC_MCO1 */
 773:/home/phong/Documents/thesis/stm32f4/stm-idf/components/stm32f4xx_hal_driver/stm32f4xx_hal_rcc.c ****   if(RCC_MCOx == RCC_MCO1)
 774              		.loc 1 773 0
 775 0008 08B3     		cbz	r0, .L105
 776              	.LBB5:
 774:/home/phong/Documents/thesis/stm32f4/stm-idf/components/stm32f4xx_hal_driver/stm32f4xx_hal_rcc.c ****   {
 775:/home/phong/Documents/thesis/stm32f4/stm-idf/components/stm32f4xx_hal_driver/stm32f4xx_hal_rcc.c ****     assert_param(IS_RCC_MCO1SOURCE(RCC_MCOSource));
 776:/home/phong/Documents/thesis/stm32f4/stm-idf/components/stm32f4xx_hal_driver/stm32f4xx_hal_rcc.c **** 
 777:/home/phong/Documents/thesis/stm32f4/stm-idf/components/stm32f4xx_hal_driver/stm32f4xx_hal_rcc.c ****     /* MCO1 Clock Enable */
 778:/home/phong/Documents/thesis/stm32f4/stm-idf/components/stm32f4xx_hal_driver/stm32f4xx_hal_rcc.c ****     __MCO1_CLK_ENABLE();
 779:/home/phong/Documents/thesis/stm32f4/stm-idf/components/stm32f4xx_hal_driver/stm32f4xx_hal_rcc.c **** 
 780:/home/phong/Documents/thesis/stm32f4/stm-idf/components/stm32f4xx_hal_driver/stm32f4xx_hal_rcc.c ****     /* Configure the MCO1 pin in alternate function mode */
 781:/home/phong/Documents/thesis/stm32f4/stm-idf/components/stm32f4xx_hal_driver/stm32f4xx_hal_rcc.c ****     GPIO_InitStruct.Pin = MCO1_PIN;
 782:/home/phong/Documents/thesis/stm32f4/stm-idf/components/stm32f4xx_hal_driver/stm32f4xx_hal_rcc.c ****     GPIO_InitStruct.Mode = GPIO_MODE_AF_PP;
 783:/home/phong/Documents/thesis/stm32f4/stm-idf/components/stm32f4xx_hal_driver/stm32f4xx_hal_rcc.c ****     GPIO_InitStruct.Speed = GPIO_SPEED_FREQ_VERY_HIGH;
 784:/home/phong/Documents/thesis/stm32f4/stm-idf/components/stm32f4xx_hal_driver/stm32f4xx_hal_rcc.c ****     GPIO_InitStruct.Pull = GPIO_NOPULL;
 785:/home/phong/Documents/thesis/stm32f4/stm-idf/components/stm32f4xx_hal_driver/stm32f4xx_hal_rcc.c ****     GPIO_InitStruct.Alternate = GPIO_AF0_MCO;
 786:/home/phong/Documents/thesis/stm32f4/stm-idf/components/stm32f4xx_hal_driver/stm32f4xx_hal_rcc.c ****     HAL_GPIO_Init(MCO1_GPIO_PORT, &GPIO_InitStruct);
 787:/home/phong/Documents/thesis/stm32f4/stm-idf/components/stm32f4xx_hal_driver/stm32f4xx_hal_rcc.c **** 
 788:/home/phong/Documents/thesis/stm32f4/stm-idf/components/stm32f4xx_hal_driver/stm32f4xx_hal_rcc.c ****     /* Mask MCO1 and MCO1PRE[2:0] bits then Select MCO1 clock source and prescaler */
 789:/home/phong/Documents/thesis/stm32f4/stm-idf/components/stm32f4xx_hal_driver/stm32f4xx_hal_rcc.c ****     MODIFY_REG(RCC->CFGR, (RCC_CFGR_MCO1 | RCC_CFGR_MCO1PRE), (RCC_MCOSource | RCC_MCODiv));
 790:/home/phong/Documents/thesis/stm32f4/stm-idf/components/stm32f4xx_hal_driver/stm32f4xx_hal_rcc.c **** 
 791:/home/phong/Documents/thesis/stm32f4/stm-idf/components/stm32f4xx_hal_driver/stm32f4xx_hal_rcc.c ****    /* This RCC MCO1 enable feature is available only on STM32F410xx devices */
 792:/home/phong/Documents/thesis/stm32f4/stm-idf/components/stm32f4xx_hal_driver/stm32f4xx_hal_rcc.c **** #if defined(RCC_CFGR_MCO1EN)
 793:/home/phong/Documents/thesis/stm32f4/stm-idf/components/stm32f4xx_hal_driver/stm32f4xx_hal_rcc.c ****     __HAL_RCC_MCO1_ENABLE();
 794:/home/phong/Documents/thesis/stm32f4/stm-idf/components/stm32f4xx_hal_driver/stm32f4xx_hal_rcc.c **** #endif /* RCC_CFGR_MCO1EN */
 795:/home/phong/Documents/thesis/stm32f4/stm-idf/components/stm32f4xx_hal_driver/stm32f4xx_hal_rcc.c ****   }
 796:/home/phong/Documents/thesis/stm32f4/stm-idf/components/stm32f4xx_hal_driver/stm32f4xx_hal_rcc.c **** #if defined(RCC_CFGR_MCO2)
 797:/home/phong/Documents/thesis/stm32f4/stm-idf/components/stm32f4xx_hal_driver/stm32f4xx_hal_rcc.c ****   else
 798:/home/phong/Documents/thesis/stm32f4/stm-idf/components/stm32f4xx_hal_driver/stm32f4xx_hal_rcc.c ****   {
 799:/home/phong/Documents/thesis/stm32f4/stm-idf/components/stm32f4xx_hal_driver/stm32f4xx_hal_rcc.c ****     assert_param(IS_RCC_MCO2SOURCE(RCC_MCOSource));
 800:/home/phong/Documents/thesis/stm32f4/stm-idf/components/stm32f4xx_hal_driver/stm32f4xx_hal_rcc.c **** 
 801:/home/phong/Documents/thesis/stm32f4/stm-idf/components/stm32f4xx_hal_driver/stm32f4xx_hal_rcc.c ****     /* MCO2 Clock Enable */
 802:/home/phong/Documents/thesis/stm32f4/stm-idf/components/stm32f4xx_hal_driver/stm32f4xx_hal_rcc.c ****     __MCO2_CLK_ENABLE();
 777              		.loc 1 802 0
 778 000a 0023     		movs	r3, #0
 779 000c 0293     		str	r3, [sp, #8]
 780 000e 204D     		ldr	r5, .L106
 781 0010 2A6B     		ldr	r2, [r5, #48]
 782              	.LVL63:
 783 0012 42F00402 		orr	r2, r2, #4
 784 0016 2A63     		str	r2, [r5, #48]
 785 0018 2A6B     		ldr	r2, [r5, #48]
 786 001a 02F00402 		and	r2, r2, #4
 787 001e 0292     		str	r2, [sp, #8]
 788 0020 029A     		ldr	r2, [sp, #8]
 789              	.LBE5:
 803:/home/phong/Documents/thesis/stm32f4/stm-idf/components/stm32f4xx_hal_driver/stm32f4xx_hal_rcc.c **** 
 804:/home/phong/Documents/thesis/stm32f4/stm-idf/components/stm32f4xx_hal_driver/stm32f4xx_hal_rcc.c ****     /* Configure the MCO2 pin in alternate function mode */
 805:/home/phong/Documents/thesis/stm32f4/stm-idf/components/stm32f4xx_hal_driver/stm32f4xx_hal_rcc.c ****     GPIO_InitStruct.Pin = MCO2_PIN;
 790              		.loc 1 805 0
ARM GAS  /tmp/ccYos3sw.s 			page 30


 791 0022 4FF40072 		mov	r2, #512
 792 0026 0392     		str	r2, [sp, #12]
 806:/home/phong/Documents/thesis/stm32f4/stm-idf/components/stm32f4xx_hal_driver/stm32f4xx_hal_rcc.c ****     GPIO_InitStruct.Mode = GPIO_MODE_AF_PP;
 793              		.loc 1 806 0
 794 0028 0222     		movs	r2, #2
 795 002a 0492     		str	r2, [sp, #16]
 807:/home/phong/Documents/thesis/stm32f4/stm-idf/components/stm32f4xx_hal_driver/stm32f4xx_hal_rcc.c ****     GPIO_InitStruct.Speed = GPIO_SPEED_FREQ_VERY_HIGH;
 796              		.loc 1 807 0
 797 002c 0322     		movs	r2, #3
 798 002e 0692     		str	r2, [sp, #24]
 808:/home/phong/Documents/thesis/stm32f4/stm-idf/components/stm32f4xx_hal_driver/stm32f4xx_hal_rcc.c ****     GPIO_InitStruct.Pull = GPIO_NOPULL;
 799              		.loc 1 808 0
 800 0030 0593     		str	r3, [sp, #20]
 809:/home/phong/Documents/thesis/stm32f4/stm-idf/components/stm32f4xx_hal_driver/stm32f4xx_hal_rcc.c ****     GPIO_InitStruct.Alternate = GPIO_AF0_MCO;
 801              		.loc 1 809 0
 802 0032 0793     		str	r3, [sp, #28]
 810:/home/phong/Documents/thesis/stm32f4/stm-idf/components/stm32f4xx_hal_driver/stm32f4xx_hal_rcc.c ****     HAL_GPIO_Init(MCO2_GPIO_PORT, &GPIO_InitStruct);
 803              		.loc 1 810 0
 804 0034 03A9     		add	r1, sp, #12
 805              	.LVL64:
 806 0036 1748     		ldr	r0, .L106+4
 807              	.LVL65:
 808 0038 FFF7FEFF 		bl	HAL_GPIO_Init
 809              	.LVL66:
 811:/home/phong/Documents/thesis/stm32f4/stm-idf/components/stm32f4xx_hal_driver/stm32f4xx_hal_rcc.c **** 
 812:/home/phong/Documents/thesis/stm32f4/stm-idf/components/stm32f4xx_hal_driver/stm32f4xx_hal_rcc.c ****     /* Mask MCO2 and MCO2PRE[2:0] bits then Select MCO2 clock source and prescaler */
 813:/home/phong/Documents/thesis/stm32f4/stm-idf/components/stm32f4xx_hal_driver/stm32f4xx_hal_rcc.c ****     MODIFY_REG(RCC->CFGR, (RCC_CFGR_MCO2 | RCC_CFGR_MCO2PRE), (RCC_MCOSource | (RCC_MCODiv << 3U)))
 810              		.loc 1 813 0
 811 003c AB68     		ldr	r3, [r5, #8]
 812 003e 23F07843 		bic	r3, r3, #-134217728
 813 0042 44EAC604 		orr	r4, r4, r6, lsl #3
 814              	.LVL67:
 815 0046 1C43     		orrs	r4, r4, r3
 816 0048 AC60     		str	r4, [r5, #8]
 817              	.L101:
 814:/home/phong/Documents/thesis/stm32f4/stm-idf/components/stm32f4xx_hal_driver/stm32f4xx_hal_rcc.c **** 
 815:/home/phong/Documents/thesis/stm32f4/stm-idf/components/stm32f4xx_hal_driver/stm32f4xx_hal_rcc.c ****    /* This RCC MCO2 enable feature is available only on STM32F410Rx devices */
 816:/home/phong/Documents/thesis/stm32f4/stm-idf/components/stm32f4xx_hal_driver/stm32f4xx_hal_rcc.c **** #if defined(RCC_CFGR_MCO2EN)
 817:/home/phong/Documents/thesis/stm32f4/stm-idf/components/stm32f4xx_hal_driver/stm32f4xx_hal_rcc.c ****     __HAL_RCC_MCO2_ENABLE();
 818:/home/phong/Documents/thesis/stm32f4/stm-idf/components/stm32f4xx_hal_driver/stm32f4xx_hal_rcc.c **** #endif /* RCC_CFGR_MCO2EN */
 819:/home/phong/Documents/thesis/stm32f4/stm-idf/components/stm32f4xx_hal_driver/stm32f4xx_hal_rcc.c ****   }
 820:/home/phong/Documents/thesis/stm32f4/stm-idf/components/stm32f4xx_hal_driver/stm32f4xx_hal_rcc.c **** #endif /* RCC_CFGR_MCO2 */
 821:/home/phong/Documents/thesis/stm32f4/stm-idf/components/stm32f4xx_hal_driver/stm32f4xx_hal_rcc.c **** }
 818              		.loc 1 821 0
 819 004a 08B0     		add	sp, sp, #32
 820              	.LCFI8:
 821              		.cfi_remember_state
 822              		.cfi_def_cfa_offset 16
 823              		@ sp needed
 824 004c 70BD     		pop	{r4, r5, r6, pc}
 825              	.LVL68:
 826              	.L105:
 827              	.LCFI9:
 828              		.cfi_restore_state
 829              	.LBB6:
 778:/home/phong/Documents/thesis/stm32f4/stm-idf/components/stm32f4xx_hal_driver/stm32f4xx_hal_rcc.c **** 
 830              		.loc 1 778 0
ARM GAS  /tmp/ccYos3sw.s 			page 31


 831 004e 0023     		movs	r3, #0
 832 0050 0193     		str	r3, [sp, #4]
 833 0052 0F4D     		ldr	r5, .L106
 834 0054 2A6B     		ldr	r2, [r5, #48]
 835              	.LVL69:
 836 0056 42F00102 		orr	r2, r2, #1
 837 005a 2A63     		str	r2, [r5, #48]
 838 005c 2A6B     		ldr	r2, [r5, #48]
 839 005e 02F00102 		and	r2, r2, #1
 840 0062 0192     		str	r2, [sp, #4]
 841 0064 019A     		ldr	r2, [sp, #4]
 842              	.LBE6:
 781:/home/phong/Documents/thesis/stm32f4/stm-idf/components/stm32f4xx_hal_driver/stm32f4xx_hal_rcc.c ****     GPIO_InitStruct.Mode = GPIO_MODE_AF_PP;
 843              		.loc 1 781 0
 844 0066 4FF48072 		mov	r2, #256
 845 006a 0392     		str	r2, [sp, #12]
 782:/home/phong/Documents/thesis/stm32f4/stm-idf/components/stm32f4xx_hal_driver/stm32f4xx_hal_rcc.c ****     GPIO_InitStruct.Speed = GPIO_SPEED_FREQ_VERY_HIGH;
 846              		.loc 1 782 0
 847 006c 0222     		movs	r2, #2
 848 006e 0492     		str	r2, [sp, #16]
 783:/home/phong/Documents/thesis/stm32f4/stm-idf/components/stm32f4xx_hal_driver/stm32f4xx_hal_rcc.c ****     GPIO_InitStruct.Pull = GPIO_NOPULL;
 849              		.loc 1 783 0
 850 0070 0322     		movs	r2, #3
 851 0072 0692     		str	r2, [sp, #24]
 784:/home/phong/Documents/thesis/stm32f4/stm-idf/components/stm32f4xx_hal_driver/stm32f4xx_hal_rcc.c ****     GPIO_InitStruct.Alternate = GPIO_AF0_MCO;
 852              		.loc 1 784 0
 853 0074 0593     		str	r3, [sp, #20]
 785:/home/phong/Documents/thesis/stm32f4/stm-idf/components/stm32f4xx_hal_driver/stm32f4xx_hal_rcc.c ****     HAL_GPIO_Init(MCO1_GPIO_PORT, &GPIO_InitStruct);
 854              		.loc 1 785 0
 855 0076 0793     		str	r3, [sp, #28]
 786:/home/phong/Documents/thesis/stm32f4/stm-idf/components/stm32f4xx_hal_driver/stm32f4xx_hal_rcc.c **** 
 856              		.loc 1 786 0
 857 0078 03A9     		add	r1, sp, #12
 858              	.LVL70:
 859 007a 0748     		ldr	r0, .L106+8
 860              	.LVL71:
 861 007c FFF7FEFF 		bl	HAL_GPIO_Init
 862              	.LVL72:
 789:/home/phong/Documents/thesis/stm32f4/stm-idf/components/stm32f4xx_hal_driver/stm32f4xx_hal_rcc.c **** 
 863              		.loc 1 789 0
 864 0080 AB68     		ldr	r3, [r5, #8]
 865 0082 23F0EC63 		bic	r3, r3, #123731968
 866 0086 3443     		orrs	r4, r4, r6
 867              	.LVL73:
 868 0088 1C43     		orrs	r4, r4, r3
 869 008a AC60     		str	r4, [r5, #8]
 870 008c DDE7     		b	.L101
 871              	.L107:
 872 008e 00BF     		.align	2
 873              	.L106:
 874 0090 00380240 		.word	1073887232
 875 0094 00080240 		.word	1073874944
 876 0098 00000240 		.word	1073872896
 877              		.cfi_endproc
 878              	.LFE133:
 880              		.section	.text.HAL_RCC_EnableCSS,"ax",%progbits
 881              		.align	1
ARM GAS  /tmp/ccYos3sw.s 			page 32


 882              		.global	HAL_RCC_EnableCSS
 883              		.syntax unified
 884              		.thumb
 885              		.thumb_func
 886              		.fpu fpv4-sp-d16
 888              	HAL_RCC_EnableCSS:
 889              	.LFB134:
 822:/home/phong/Documents/thesis/stm32f4/stm-idf/components/stm32f4xx_hal_driver/stm32f4xx_hal_rcc.c **** 
 823:/home/phong/Documents/thesis/stm32f4/stm-idf/components/stm32f4xx_hal_driver/stm32f4xx_hal_rcc.c **** /**
 824:/home/phong/Documents/thesis/stm32f4/stm-idf/components/stm32f4xx_hal_driver/stm32f4xx_hal_rcc.c ****   * @brief  Enables the Clock Security System.
 825:/home/phong/Documents/thesis/stm32f4/stm-idf/components/stm32f4xx_hal_driver/stm32f4xx_hal_rcc.c ****   * @note   If a failure is detected on the HSE oscillator clock, this oscillator
 826:/home/phong/Documents/thesis/stm32f4/stm-idf/components/stm32f4xx_hal_driver/stm32f4xx_hal_rcc.c ****   *         is automatically disabled and an interrupt is generated to inform the
 827:/home/phong/Documents/thesis/stm32f4/stm-idf/components/stm32f4xx_hal_driver/stm32f4xx_hal_rcc.c ****   *         software about the failure (Clock Security System Interrupt, CSSI),
 828:/home/phong/Documents/thesis/stm32f4/stm-idf/components/stm32f4xx_hal_driver/stm32f4xx_hal_rcc.c ****   *         allowing the MCU to perform rescue operations. The CSSI is linked to
 829:/home/phong/Documents/thesis/stm32f4/stm-idf/components/stm32f4xx_hal_driver/stm32f4xx_hal_rcc.c ****   *         the Cortex-M4 NMI (Non-Maskable Interrupt) exception vector.
 830:/home/phong/Documents/thesis/stm32f4/stm-idf/components/stm32f4xx_hal_driver/stm32f4xx_hal_rcc.c ****   * @retval None
 831:/home/phong/Documents/thesis/stm32f4/stm-idf/components/stm32f4xx_hal_driver/stm32f4xx_hal_rcc.c ****   */
 832:/home/phong/Documents/thesis/stm32f4/stm-idf/components/stm32f4xx_hal_driver/stm32f4xx_hal_rcc.c **** void HAL_RCC_EnableCSS(void)
 833:/home/phong/Documents/thesis/stm32f4/stm-idf/components/stm32f4xx_hal_driver/stm32f4xx_hal_rcc.c **** {
 890              		.loc 1 833 0
 891              		.cfi_startproc
 892              		@ args = 0, pretend = 0, frame = 0
 893              		@ frame_needed = 0, uses_anonymous_args = 0
 894              		@ link register save eliminated.
 834:/home/phong/Documents/thesis/stm32f4/stm-idf/components/stm32f4xx_hal_driver/stm32f4xx_hal_rcc.c ****   *(__IO uint32_t *) RCC_CR_CSSON_BB = (uint32_t)ENABLE;
 895              		.loc 1 834 0
 896 0000 0122     		movs	r2, #1
 897 0002 014B     		ldr	r3, .L109
 898 0004 1A60     		str	r2, [r3]
 899 0006 7047     		bx	lr
 900              	.L110:
 901              		.align	2
 902              	.L109:
 903 0008 4C004742 		.word	1111949388
 904              		.cfi_endproc
 905              	.LFE134:
 907              		.section	.text.HAL_RCC_DisableCSS,"ax",%progbits
 908              		.align	1
 909              		.global	HAL_RCC_DisableCSS
 910              		.syntax unified
 911              		.thumb
 912              		.thumb_func
 913              		.fpu fpv4-sp-d16
 915              	HAL_RCC_DisableCSS:
 916              	.LFB135:
 835:/home/phong/Documents/thesis/stm32f4/stm-idf/components/stm32f4xx_hal_driver/stm32f4xx_hal_rcc.c **** }
 836:/home/phong/Documents/thesis/stm32f4/stm-idf/components/stm32f4xx_hal_driver/stm32f4xx_hal_rcc.c **** 
 837:/home/phong/Documents/thesis/stm32f4/stm-idf/components/stm32f4xx_hal_driver/stm32f4xx_hal_rcc.c **** /**
 838:/home/phong/Documents/thesis/stm32f4/stm-idf/components/stm32f4xx_hal_driver/stm32f4xx_hal_rcc.c ****   * @brief  Disables the Clock Security System.
 839:/home/phong/Documents/thesis/stm32f4/stm-idf/components/stm32f4xx_hal_driver/stm32f4xx_hal_rcc.c ****   * @retval None
 840:/home/phong/Documents/thesis/stm32f4/stm-idf/components/stm32f4xx_hal_driver/stm32f4xx_hal_rcc.c ****   */
 841:/home/phong/Documents/thesis/stm32f4/stm-idf/components/stm32f4xx_hal_driver/stm32f4xx_hal_rcc.c **** void HAL_RCC_DisableCSS(void)
 842:/home/phong/Documents/thesis/stm32f4/stm-idf/components/stm32f4xx_hal_driver/stm32f4xx_hal_rcc.c **** {
 917              		.loc 1 842 0
 918              		.cfi_startproc
 919              		@ args = 0, pretend = 0, frame = 0
 920              		@ frame_needed = 0, uses_anonymous_args = 0
ARM GAS  /tmp/ccYos3sw.s 			page 33


 921              		@ link register save eliminated.
 843:/home/phong/Documents/thesis/stm32f4/stm-idf/components/stm32f4xx_hal_driver/stm32f4xx_hal_rcc.c ****   *(__IO uint32_t *) RCC_CR_CSSON_BB = (uint32_t)DISABLE;
 922              		.loc 1 843 0
 923 0000 0022     		movs	r2, #0
 924 0002 014B     		ldr	r3, .L112
 925 0004 1A60     		str	r2, [r3]
 926 0006 7047     		bx	lr
 927              	.L113:
 928              		.align	2
 929              	.L112:
 930 0008 4C004742 		.word	1111949388
 931              		.cfi_endproc
 932              	.LFE135:
 934              		.global	__aeabi_uldivmod
 935              		.section	.text.HAL_RCC_GetSysClockFreq,"ax",%progbits
 936              		.align	1
 937              		.weak	HAL_RCC_GetSysClockFreq
 938              		.syntax unified
 939              		.thumb
 940              		.thumb_func
 941              		.fpu fpv4-sp-d16
 943              	HAL_RCC_GetSysClockFreq:
 944              	.LFB136:
 844:/home/phong/Documents/thesis/stm32f4/stm-idf/components/stm32f4xx_hal_driver/stm32f4xx_hal_rcc.c **** }
 845:/home/phong/Documents/thesis/stm32f4/stm-idf/components/stm32f4xx_hal_driver/stm32f4xx_hal_rcc.c **** 
 846:/home/phong/Documents/thesis/stm32f4/stm-idf/components/stm32f4xx_hal_driver/stm32f4xx_hal_rcc.c **** /**
 847:/home/phong/Documents/thesis/stm32f4/stm-idf/components/stm32f4xx_hal_driver/stm32f4xx_hal_rcc.c ****   * @brief  Returns the SYSCLK frequency
 848:/home/phong/Documents/thesis/stm32f4/stm-idf/components/stm32f4xx_hal_driver/stm32f4xx_hal_rcc.c ****   *
 849:/home/phong/Documents/thesis/stm32f4/stm-idf/components/stm32f4xx_hal_driver/stm32f4xx_hal_rcc.c ****   * @note   The system frequency computed by this function is not the real
 850:/home/phong/Documents/thesis/stm32f4/stm-idf/components/stm32f4xx_hal_driver/stm32f4xx_hal_rcc.c ****   *         frequency in the chip. It is calculated based on the predefined
 851:/home/phong/Documents/thesis/stm32f4/stm-idf/components/stm32f4xx_hal_driver/stm32f4xx_hal_rcc.c ****   *         constant and the selected clock source:
 852:/home/phong/Documents/thesis/stm32f4/stm-idf/components/stm32f4xx_hal_driver/stm32f4xx_hal_rcc.c ****   * @note     If SYSCLK source is HSI, function returns values based on HSI_VALUE(*)
 853:/home/phong/Documents/thesis/stm32f4/stm-idf/components/stm32f4xx_hal_driver/stm32f4xx_hal_rcc.c ****   * @note     If SYSCLK source is HSE, function returns values based on HSE_VALUE(**)
 854:/home/phong/Documents/thesis/stm32f4/stm-idf/components/stm32f4xx_hal_driver/stm32f4xx_hal_rcc.c ****   * @note     If SYSCLK source is PLL, function returns values based on HSE_VALUE(**)
 855:/home/phong/Documents/thesis/stm32f4/stm-idf/components/stm32f4xx_hal_driver/stm32f4xx_hal_rcc.c ****   *           or HSI_VALUE(*) multiplied/divided by the PLL factors.
 856:/home/phong/Documents/thesis/stm32f4/stm-idf/components/stm32f4xx_hal_driver/stm32f4xx_hal_rcc.c ****   * @note     (*) HSI_VALUE is a constant defined in stm32f4xx_hal_conf.h file (default value
 857:/home/phong/Documents/thesis/stm32f4/stm-idf/components/stm32f4xx_hal_driver/stm32f4xx_hal_rcc.c ****   *               16 MHz) but the real value may vary depending on the variations
 858:/home/phong/Documents/thesis/stm32f4/stm-idf/components/stm32f4xx_hal_driver/stm32f4xx_hal_rcc.c ****   *               in voltage and temperature.
 859:/home/phong/Documents/thesis/stm32f4/stm-idf/components/stm32f4xx_hal_driver/stm32f4xx_hal_rcc.c ****   * @note     (**) HSE_VALUE is a constant defined in stm32f4xx_hal_conf.h file (default value
 860:/home/phong/Documents/thesis/stm32f4/stm-idf/components/stm32f4xx_hal_driver/stm32f4xx_hal_rcc.c ****   *                25 MHz), user has to ensure that HSE_VALUE is same as the real
 861:/home/phong/Documents/thesis/stm32f4/stm-idf/components/stm32f4xx_hal_driver/stm32f4xx_hal_rcc.c ****   *                frequency of the crystal used. Otherwise, this function may
 862:/home/phong/Documents/thesis/stm32f4/stm-idf/components/stm32f4xx_hal_driver/stm32f4xx_hal_rcc.c ****   *                have wrong result.
 863:/home/phong/Documents/thesis/stm32f4/stm-idf/components/stm32f4xx_hal_driver/stm32f4xx_hal_rcc.c ****   *
 864:/home/phong/Documents/thesis/stm32f4/stm-idf/components/stm32f4xx_hal_driver/stm32f4xx_hal_rcc.c ****   * @note   The result of this function could be not correct when using fractional
 865:/home/phong/Documents/thesis/stm32f4/stm-idf/components/stm32f4xx_hal_driver/stm32f4xx_hal_rcc.c ****   *         value for HSE crystal.
 866:/home/phong/Documents/thesis/stm32f4/stm-idf/components/stm32f4xx_hal_driver/stm32f4xx_hal_rcc.c ****   *
 867:/home/phong/Documents/thesis/stm32f4/stm-idf/components/stm32f4xx_hal_driver/stm32f4xx_hal_rcc.c ****   * @note   This function can be used by the user application to compute the
 868:/home/phong/Documents/thesis/stm32f4/stm-idf/components/stm32f4xx_hal_driver/stm32f4xx_hal_rcc.c ****   *         baudrate for the communication peripherals or configure other parameters.
 869:/home/phong/Documents/thesis/stm32f4/stm-idf/components/stm32f4xx_hal_driver/stm32f4xx_hal_rcc.c ****   *
 870:/home/phong/Documents/thesis/stm32f4/stm-idf/components/stm32f4xx_hal_driver/stm32f4xx_hal_rcc.c ****   * @note   Each time SYSCLK changes, this function must be called to update the
 871:/home/phong/Documents/thesis/stm32f4/stm-idf/components/stm32f4xx_hal_driver/stm32f4xx_hal_rcc.c ****   *         right SYSCLK value. Otherwise, any configuration based on this function will be incorre
 872:/home/phong/Documents/thesis/stm32f4/stm-idf/components/stm32f4xx_hal_driver/stm32f4xx_hal_rcc.c ****   *
 873:/home/phong/Documents/thesis/stm32f4/stm-idf/components/stm32f4xx_hal_driver/stm32f4xx_hal_rcc.c ****   *
 874:/home/phong/Documents/thesis/stm32f4/stm-idf/components/stm32f4xx_hal_driver/stm32f4xx_hal_rcc.c ****   * @retval SYSCLK frequency
 875:/home/phong/Documents/thesis/stm32f4/stm-idf/components/stm32f4xx_hal_driver/stm32f4xx_hal_rcc.c ****   */
 876:/home/phong/Documents/thesis/stm32f4/stm-idf/components/stm32f4xx_hal_driver/stm32f4xx_hal_rcc.c **** __weak uint32_t HAL_RCC_GetSysClockFreq(void)
 877:/home/phong/Documents/thesis/stm32f4/stm-idf/components/stm32f4xx_hal_driver/stm32f4xx_hal_rcc.c **** {
ARM GAS  /tmp/ccYos3sw.s 			page 34


 945              		.loc 1 877 0
 946              		.cfi_startproc
 947              		@ args = 0, pretend = 0, frame = 0
 948              		@ frame_needed = 0, uses_anonymous_args = 0
 949 0000 F8B5     		push	{r3, r4, r5, r6, r7, lr}
 950              	.LCFI10:
 951              		.cfi_def_cfa_offset 24
 952              		.cfi_offset 3, -24
 953              		.cfi_offset 4, -20
 954              		.cfi_offset 5, -16
 955              		.cfi_offset 6, -12
 956              		.cfi_offset 7, -8
 957              		.cfi_offset 14, -4
 958              	.LVL74:
 878:/home/phong/Documents/thesis/stm32f4/stm-idf/components/stm32f4xx_hal_driver/stm32f4xx_hal_rcc.c ****   uint32_t pllm = 0U, pllvco = 0U, pllp = 0U;
 879:/home/phong/Documents/thesis/stm32f4/stm-idf/components/stm32f4xx_hal_driver/stm32f4xx_hal_rcc.c ****   uint32_t sysclockfreq = 0U;
 880:/home/phong/Documents/thesis/stm32f4/stm-idf/components/stm32f4xx_hal_driver/stm32f4xx_hal_rcc.c **** 
 881:/home/phong/Documents/thesis/stm32f4/stm-idf/components/stm32f4xx_hal_driver/stm32f4xx_hal_rcc.c ****   /* Get SYSCLK source -------------------------------------------------------*/
 882:/home/phong/Documents/thesis/stm32f4/stm-idf/components/stm32f4xx_hal_driver/stm32f4xx_hal_rcc.c ****   switch (RCC->CFGR & RCC_CFGR_SWS)
 959              		.loc 1 882 0
 960 0002 314B     		ldr	r3, .L122
 961 0004 9B68     		ldr	r3, [r3, #8]
 962 0006 03F00C03 		and	r3, r3, #12
 963 000a 042B     		cmp	r3, #4
 964 000c 59D0     		beq	.L120
 965 000e 082B     		cmp	r3, #8
 966 0010 01D0     		beq	.L117
 883:/home/phong/Documents/thesis/stm32f4/stm-idf/components/stm32f4xx_hal_driver/stm32f4xx_hal_rcc.c ****   {
 884:/home/phong/Documents/thesis/stm32f4/stm-idf/components/stm32f4xx_hal_driver/stm32f4xx_hal_rcc.c ****     case RCC_CFGR_SWS_HSI:  /* HSI used as system clock source */
 885:/home/phong/Documents/thesis/stm32f4/stm-idf/components/stm32f4xx_hal_driver/stm32f4xx_hal_rcc.c ****     {
 886:/home/phong/Documents/thesis/stm32f4/stm-idf/components/stm32f4xx_hal_driver/stm32f4xx_hal_rcc.c ****       sysclockfreq = HSI_VALUE;
 967              		.loc 1 886 0
 968 0012 2E48     		ldr	r0, .L122+4
 969 0014 F8BD     		pop	{r3, r4, r5, r6, r7, pc}
 970              	.L117:
 887:/home/phong/Documents/thesis/stm32f4/stm-idf/components/stm32f4xx_hal_driver/stm32f4xx_hal_rcc.c ****        break;
 888:/home/phong/Documents/thesis/stm32f4/stm-idf/components/stm32f4xx_hal_driver/stm32f4xx_hal_rcc.c ****     }
 889:/home/phong/Documents/thesis/stm32f4/stm-idf/components/stm32f4xx_hal_driver/stm32f4xx_hal_rcc.c ****     case RCC_CFGR_SWS_HSE:  /* HSE used as system clock  source */
 890:/home/phong/Documents/thesis/stm32f4/stm-idf/components/stm32f4xx_hal_driver/stm32f4xx_hal_rcc.c ****     {
 891:/home/phong/Documents/thesis/stm32f4/stm-idf/components/stm32f4xx_hal_driver/stm32f4xx_hal_rcc.c ****       sysclockfreq = HSE_VALUE;
 892:/home/phong/Documents/thesis/stm32f4/stm-idf/components/stm32f4xx_hal_driver/stm32f4xx_hal_rcc.c ****       break;
 893:/home/phong/Documents/thesis/stm32f4/stm-idf/components/stm32f4xx_hal_driver/stm32f4xx_hal_rcc.c ****     }
 894:/home/phong/Documents/thesis/stm32f4/stm-idf/components/stm32f4xx_hal_driver/stm32f4xx_hal_rcc.c ****     case RCC_CFGR_SWS_PLL:  /* PLL used as system clock  source */
 895:/home/phong/Documents/thesis/stm32f4/stm-idf/components/stm32f4xx_hal_driver/stm32f4xx_hal_rcc.c ****     {
 896:/home/phong/Documents/thesis/stm32f4/stm-idf/components/stm32f4xx_hal_driver/stm32f4xx_hal_rcc.c ****       /* PLL_VCO = (HSE_VALUE or HSI_VALUE / PLLM) * PLLN
 897:/home/phong/Documents/thesis/stm32f4/stm-idf/components/stm32f4xx_hal_driver/stm32f4xx_hal_rcc.c ****       SYSCLK = PLL_VCO / PLLP */
 898:/home/phong/Documents/thesis/stm32f4/stm-idf/components/stm32f4xx_hal_driver/stm32f4xx_hal_rcc.c ****       pllm = RCC->PLLCFGR & RCC_PLLCFGR_PLLM;
 971              		.loc 1 898 0
 972 0016 2C4B     		ldr	r3, .L122
 973 0018 5A68     		ldr	r2, [r3, #4]
 974 001a 02F03F02 		and	r2, r2, #63
 975              	.LVL75:
 899:/home/phong/Documents/thesis/stm32f4/stm-idf/components/stm32f4xx_hal_driver/stm32f4xx_hal_rcc.c ****       if(__HAL_RCC_GET_PLL_OSCSOURCE() != RCC_PLLSOURCE_HSI)
 976              		.loc 1 899 0
 977 001e 5B68     		ldr	r3, [r3, #4]
 978 0020 13F4800F 		tst	r3, #4194304
 979 0024 2AD0     		beq	.L118
ARM GAS  /tmp/ccYos3sw.s 			page 35


 900:/home/phong/Documents/thesis/stm32f4/stm-idf/components/stm32f4xx_hal_driver/stm32f4xx_hal_rcc.c ****       {
 901:/home/phong/Documents/thesis/stm32f4/stm-idf/components/stm32f4xx_hal_driver/stm32f4xx_hal_rcc.c ****         /* HSE used as PLL clock source */
 902:/home/phong/Documents/thesis/stm32f4/stm-idf/components/stm32f4xx_hal_driver/stm32f4xx_hal_rcc.c ****         pllvco = (uint32_t) ((((uint64_t) HSE_VALUE * ((uint64_t) ((RCC->PLLCFGR & RCC_PLLCFGR_PLLN
 980              		.loc 1 902 0
 981 0026 284B     		ldr	r3, .L122
 982 0028 5B68     		ldr	r3, [r3, #4]
 983 002a C3F38813 		ubfx	r3, r3, #6, #9
 984 002e 1E46     		mov	r6, r3
 985 0030 0027     		movs	r7, #0
 986 0032 5C01     		lsls	r4, r3, #5
 987 0034 0025     		movs	r5, #0
 988 0036 E41A     		subs	r4, r4, r3
 989 0038 65EB0705 		sbc	r5, r5, r7
 990 003c A901     		lsls	r1, r5, #6
 991 003e 41EA9461 		orr	r1, r1, r4, lsr #26
 992 0042 A001     		lsls	r0, r4, #6
 993 0044 001B     		subs	r0, r0, r4
 994 0046 61EB0501 		sbc	r1, r1, r5
 995 004a CB00     		lsls	r3, r1, #3
 996 004c 43EA5073 		orr	r3, r3, r0, lsr #29
 997 0050 C400     		lsls	r4, r0, #3
 998 0052 A019     		adds	r0, r4, r6
 999 0054 43EB0701 		adc	r1, r3, r7
 1000 0058 4B02     		lsls	r3, r1, #9
 1001 005a 43EAD053 		orr	r3, r3, r0, lsr #23
 1002 005e 4402     		lsls	r4, r0, #9
 1003 0060 2046     		mov	r0, r4
 1004 0062 1946     		mov	r1, r3
 1005 0064 0023     		movs	r3, #0
 1006 0066 FFF7FEFF 		bl	__aeabi_uldivmod
 1007              	.LVL76:
 1008              	.L119:
 903:/home/phong/Documents/thesis/stm32f4/stm-idf/components/stm32f4xx_hal_driver/stm32f4xx_hal_rcc.c ****       }
 904:/home/phong/Documents/thesis/stm32f4/stm-idf/components/stm32f4xx_hal_driver/stm32f4xx_hal_rcc.c ****       else
 905:/home/phong/Documents/thesis/stm32f4/stm-idf/components/stm32f4xx_hal_driver/stm32f4xx_hal_rcc.c ****       {
 906:/home/phong/Documents/thesis/stm32f4/stm-idf/components/stm32f4xx_hal_driver/stm32f4xx_hal_rcc.c ****         /* HSI used as PLL clock source */
 907:/home/phong/Documents/thesis/stm32f4/stm-idf/components/stm32f4xx_hal_driver/stm32f4xx_hal_rcc.c ****         pllvco = (uint32_t) ((((uint64_t) HSI_VALUE * ((uint64_t) ((RCC->PLLCFGR & RCC_PLLCFGR_PLLN
 908:/home/phong/Documents/thesis/stm32f4/stm-idf/components/stm32f4xx_hal_driver/stm32f4xx_hal_rcc.c ****       }
 909:/home/phong/Documents/thesis/stm32f4/stm-idf/components/stm32f4xx_hal_driver/stm32f4xx_hal_rcc.c ****       pllp = ((((RCC->PLLCFGR & RCC_PLLCFGR_PLLP) >> RCC_PLLCFGR_PLLP_Pos) + 1U) *2U);
 1009              		.loc 1 909 0
 1010 006a 174B     		ldr	r3, .L122
 1011 006c 5B68     		ldr	r3, [r3, #4]
 1012 006e C3F30143 		ubfx	r3, r3, #16, #2
 1013 0072 0133     		adds	r3, r3, #1
 1014 0074 5B00     		lsls	r3, r3, #1
 1015              	.LVL77:
 910:/home/phong/Documents/thesis/stm32f4/stm-idf/components/stm32f4xx_hal_driver/stm32f4xx_hal_rcc.c **** 
 911:/home/phong/Documents/thesis/stm32f4/stm-idf/components/stm32f4xx_hal_driver/stm32f4xx_hal_rcc.c ****       sysclockfreq = pllvco/pllp;
 1016              		.loc 1 911 0
 1017 0076 B0FBF3F0 		udiv	r0, r0, r3
 1018              	.LVL78:
 912:/home/phong/Documents/thesis/stm32f4/stm-idf/components/stm32f4xx_hal_driver/stm32f4xx_hal_rcc.c ****       break;
 1019              		.loc 1 912 0
 1020 007a F8BD     		pop	{r3, r4, r5, r6, r7, pc}
 1021              	.LVL79:
 1022              	.L118:
 907:/home/phong/Documents/thesis/stm32f4/stm-idf/components/stm32f4xx_hal_driver/stm32f4xx_hal_rcc.c ****       }
ARM GAS  /tmp/ccYos3sw.s 			page 36


 1023              		.loc 1 907 0
 1024 007c 124B     		ldr	r3, .L122
 1025 007e 5B68     		ldr	r3, [r3, #4]
 1026 0080 C3F38813 		ubfx	r3, r3, #6, #9
 1027 0084 1E46     		mov	r6, r3
 1028 0086 0027     		movs	r7, #0
 1029 0088 5C01     		lsls	r4, r3, #5
 1030 008a 0025     		movs	r5, #0
 1031 008c E41A     		subs	r4, r4, r3
 1032 008e 65EB0705 		sbc	r5, r5, r7
 1033 0092 A901     		lsls	r1, r5, #6
 1034 0094 41EA9461 		orr	r1, r1, r4, lsr #26
 1035 0098 A001     		lsls	r0, r4, #6
 1036 009a 001B     		subs	r0, r0, r4
 1037 009c 61EB0501 		sbc	r1, r1, r5
 1038 00a0 CB00     		lsls	r3, r1, #3
 1039 00a2 43EA5073 		orr	r3, r3, r0, lsr #29
 1040 00a6 C400     		lsls	r4, r0, #3
 1041 00a8 A019     		adds	r0, r4, r6
 1042 00aa 43EB0701 		adc	r1, r3, r7
 1043 00ae 8B02     		lsls	r3, r1, #10
 1044 00b0 43EA9053 		orr	r3, r3, r0, lsr #22
 1045 00b4 8402     		lsls	r4, r0, #10
 1046 00b6 2046     		mov	r0, r4
 1047 00b8 1946     		mov	r1, r3
 1048 00ba 0023     		movs	r3, #0
 1049 00bc FFF7FEFF 		bl	__aeabi_uldivmod
 1050              	.LVL80:
 1051 00c0 D3E7     		b	.L119
 1052              	.LVL81:
 1053              	.L120:
 891:/home/phong/Documents/thesis/stm32f4/stm-idf/components/stm32f4xx_hal_driver/stm32f4xx_hal_rcc.c ****       break;
 1054              		.loc 1 891 0
 1055 00c2 0348     		ldr	r0, .L122+8
 1056              	.LVL82:
 913:/home/phong/Documents/thesis/stm32f4/stm-idf/components/stm32f4xx_hal_driver/stm32f4xx_hal_rcc.c ****     }
 914:/home/phong/Documents/thesis/stm32f4/stm-idf/components/stm32f4xx_hal_driver/stm32f4xx_hal_rcc.c ****     default:
 915:/home/phong/Documents/thesis/stm32f4/stm-idf/components/stm32f4xx_hal_driver/stm32f4xx_hal_rcc.c ****     {
 916:/home/phong/Documents/thesis/stm32f4/stm-idf/components/stm32f4xx_hal_driver/stm32f4xx_hal_rcc.c ****       sysclockfreq = HSI_VALUE;
 917:/home/phong/Documents/thesis/stm32f4/stm-idf/components/stm32f4xx_hal_driver/stm32f4xx_hal_rcc.c ****       break;
 918:/home/phong/Documents/thesis/stm32f4/stm-idf/components/stm32f4xx_hal_driver/stm32f4xx_hal_rcc.c ****     }
 919:/home/phong/Documents/thesis/stm32f4/stm-idf/components/stm32f4xx_hal_driver/stm32f4xx_hal_rcc.c ****   }
 920:/home/phong/Documents/thesis/stm32f4/stm-idf/components/stm32f4xx_hal_driver/stm32f4xx_hal_rcc.c ****   return sysclockfreq;
 921:/home/phong/Documents/thesis/stm32f4/stm-idf/components/stm32f4xx_hal_driver/stm32f4xx_hal_rcc.c **** }
 1057              		.loc 1 921 0
 1058 00c4 F8BD     		pop	{r3, r4, r5, r6, r7, pc}
 1059              	.L123:
 1060 00c6 00BF     		.align	2
 1061              	.L122:
 1062 00c8 00380240 		.word	1073887232
 1063 00cc 0024F400 		.word	16000000
 1064 00d0 00127A00 		.word	8000000
 1065              		.cfi_endproc
 1066              	.LFE136:
 1068              		.section	.text.HAL_RCC_ClockConfig,"ax",%progbits
 1069              		.align	1
 1070              		.global	HAL_RCC_ClockConfig
ARM GAS  /tmp/ccYos3sw.s 			page 37


 1071              		.syntax unified
 1072              		.thumb
 1073              		.thumb_func
 1074              		.fpu fpv4-sp-d16
 1076              	HAL_RCC_ClockConfig:
 1077              	.LFB132:
 583:/home/phong/Documents/thesis/stm32f4/stm-idf/components/stm32f4xx_hal_driver/stm32f4xx_hal_rcc.c ****   uint32_t tickstart;
 1078              		.loc 1 583 0
 1079              		.cfi_startproc
 1080              		@ args = 0, pretend = 0, frame = 0
 1081              		@ frame_needed = 0, uses_anonymous_args = 0
 1082              	.LVL83:
 587:/home/phong/Documents/thesis/stm32f4/stm-idf/components/stm32f4xx_hal_driver/stm32f4xx_hal_rcc.c ****   {
 1083              		.loc 1 587 0
 1084 0000 0028     		cmp	r0, #0
 1085 0002 00F09E80 		beq	.L139
 583:/home/phong/Documents/thesis/stm32f4/stm-idf/components/stm32f4xx_hal_driver/stm32f4xx_hal_rcc.c ****   uint32_t tickstart;
 1086              		.loc 1 583 0
 1087 0006 70B5     		push	{r4, r5, r6, lr}
 1088              	.LCFI11:
 1089              		.cfi_def_cfa_offset 16
 1090              		.cfi_offset 4, -16
 1091              		.cfi_offset 5, -12
 1092              		.cfi_offset 6, -8
 1093              		.cfi_offset 14, -4
 1094 0008 0446     		mov	r4, r0
 601:/home/phong/Documents/thesis/stm32f4/stm-idf/components/stm32f4xx_hal_driver/stm32f4xx_hal_rcc.c ****   {
 1095              		.loc 1 601 0
 1096 000a 504B     		ldr	r3, .L152
 1097 000c 1B68     		ldr	r3, [r3]
 1098 000e 03F00F03 		and	r3, r3, #15
 1099 0012 8B42     		cmp	r3, r1
 1100 0014 09D2     		bcs	.L126
 604:/home/phong/Documents/thesis/stm32f4/stm-idf/components/stm32f4xx_hal_driver/stm32f4xx_hal_rcc.c **** 
 1101              		.loc 1 604 0
 1102 0016 CBB2     		uxtb	r3, r1
 1103 0018 4C4A     		ldr	r2, .L152
 1104 001a 1370     		strb	r3, [r2]
 608:/home/phong/Documents/thesis/stm32f4/stm-idf/components/stm32f4xx_hal_driver/stm32f4xx_hal_rcc.c ****     {
 1105              		.loc 1 608 0
 1106 001c 1368     		ldr	r3, [r2]
 1107 001e 03F00F03 		and	r3, r3, #15
 1108 0022 9942     		cmp	r1, r3
 1109 0024 01D0     		beq	.L126
 610:/home/phong/Documents/thesis/stm32f4/stm-idf/components/stm32f4xx_hal_driver/stm32f4xx_hal_rcc.c ****     }
 1110              		.loc 1 610 0
 1111 0026 0120     		movs	r0, #1
 1112              	.LVL84:
 1113 0028 70BD     		pop	{r4, r5, r6, pc}
 1114              	.LVL85:
 1115              	.L126:
 615:/home/phong/Documents/thesis/stm32f4/stm-idf/components/stm32f4xx_hal_driver/stm32f4xx_hal_rcc.c ****   {
 1116              		.loc 1 615 0
 1117 002a 2368     		ldr	r3, [r4]
 1118 002c 13F0020F 		tst	r3, #2
 1119 0030 17D0     		beq	.L127
 619:/home/phong/Documents/thesis/stm32f4/stm-idf/components/stm32f4xx_hal_driver/stm32f4xx_hal_rcc.c ****     {
ARM GAS  /tmp/ccYos3sw.s 			page 38


 1120              		.loc 1 619 0
 1121 0032 13F0040F 		tst	r3, #4
 1122 0036 04D0     		beq	.L128
 621:/home/phong/Documents/thesis/stm32f4/stm-idf/components/stm32f4xx_hal_driver/stm32f4xx_hal_rcc.c ****     }
 1123              		.loc 1 621 0
 1124 0038 454A     		ldr	r2, .L152+4
 1125 003a 9368     		ldr	r3, [r2, #8]
 1126 003c 43F4E053 		orr	r3, r3, #7168
 1127 0040 9360     		str	r3, [r2, #8]
 1128              	.L128:
 624:/home/phong/Documents/thesis/stm32f4/stm-idf/components/stm32f4xx_hal_driver/stm32f4xx_hal_rcc.c ****     {
 1129              		.loc 1 624 0
 1130 0042 2368     		ldr	r3, [r4]
 1131 0044 13F0080F 		tst	r3, #8
 1132 0048 04D0     		beq	.L129
 626:/home/phong/Documents/thesis/stm32f4/stm-idf/components/stm32f4xx_hal_driver/stm32f4xx_hal_rcc.c ****     }
 1133              		.loc 1 626 0
 1134 004a 414A     		ldr	r2, .L152+4
 1135 004c 9368     		ldr	r3, [r2, #8]
 1136 004e 43F46043 		orr	r3, r3, #57344
 1137 0052 9360     		str	r3, [r2, #8]
 1138              	.L129:
 630:/home/phong/Documents/thesis/stm32f4/stm-idf/components/stm32f4xx_hal_driver/stm32f4xx_hal_rcc.c ****   }
 1139              		.loc 1 630 0
 1140 0054 3E4A     		ldr	r2, .L152+4
 1141 0056 9368     		ldr	r3, [r2, #8]
 1142 0058 23F0F003 		bic	r3, r3, #240
 1143 005c A068     		ldr	r0, [r4, #8]
 1144              	.LVL86:
 1145 005e 0343     		orrs	r3, r3, r0
 1146 0060 9360     		str	r3, [r2, #8]
 1147              	.L127:
 1148 0062 0D46     		mov	r5, r1
 634:/home/phong/Documents/thesis/stm32f4/stm-idf/components/stm32f4xx_hal_driver/stm32f4xx_hal_rcc.c ****   {
 1149              		.loc 1 634 0
 1150 0064 2368     		ldr	r3, [r4]
 1151 0066 13F0010F 		tst	r3, #1
 1152 006a 32D0     		beq	.L130
 639:/home/phong/Documents/thesis/stm32f4/stm-idf/components/stm32f4xx_hal_driver/stm32f4xx_hal_rcc.c ****     {
 1153              		.loc 1 639 0
 1154 006c 6368     		ldr	r3, [r4, #4]
 1155 006e 012B     		cmp	r3, #1
 1156 0070 21D0     		beq	.L150
 648:/home/phong/Documents/thesis/stm32f4/stm-idf/components/stm32f4xx_hal_driver/stm32f4xx_hal_rcc.c ****             (RCC_ClkInitStruct->SYSCLKSource == RCC_SYSCLKSOURCE_PLLRCLK))
 1157              		.loc 1 648 0
 1158 0072 9A1E     		subs	r2, r3, #2
 1159 0074 012A     		cmp	r2, #1
 1160 0076 25D9     		bls	.L151
 661:/home/phong/Documents/thesis/stm32f4/stm-idf/components/stm32f4xx_hal_driver/stm32f4xx_hal_rcc.c ****       {
 1161              		.loc 1 661 0
 1162 0078 354A     		ldr	r2, .L152+4
 1163 007a 1268     		ldr	r2, [r2]
 1164 007c 12F0020F 		tst	r2, #2
 1165 0080 61D0     		beq	.L143
 1166              	.L132:
 667:/home/phong/Documents/thesis/stm32f4/stm-idf/components/stm32f4xx_hal_driver/stm32f4xx_hal_rcc.c **** 
 1167              		.loc 1 667 0
ARM GAS  /tmp/ccYos3sw.s 			page 39


 1168 0082 3349     		ldr	r1, .L152+4
 1169              	.LVL87:
 1170 0084 8A68     		ldr	r2, [r1, #8]
 1171 0086 22F00302 		bic	r2, r2, #3
 1172 008a 1343     		orrs	r3, r3, r2
 1173 008c 8B60     		str	r3, [r1, #8]
 670:/home/phong/Documents/thesis/stm32f4/stm-idf/components/stm32f4xx_hal_driver/stm32f4xx_hal_rcc.c **** 
 1174              		.loc 1 670 0
 1175 008e FFF7FEFF 		bl	HAL_GetTick
 1176              	.LVL88:
 1177 0092 0646     		mov	r6, r0
 1178              	.LVL89:
 1179              	.L134:
 672:/home/phong/Documents/thesis/stm32f4/stm-idf/components/stm32f4xx_hal_driver/stm32f4xx_hal_rcc.c ****     {
 1180              		.loc 1 672 0
 1181 0094 2E4B     		ldr	r3, .L152+4
 1182 0096 9B68     		ldr	r3, [r3, #8]
 1183 0098 03F00C03 		and	r3, r3, #12
 1184 009c 6268     		ldr	r2, [r4, #4]
 1185 009e B3EB820F 		cmp	r3, r2, lsl #2
 1186 00a2 16D0     		beq	.L130
 674:/home/phong/Documents/thesis/stm32f4/stm-idf/components/stm32f4xx_hal_driver/stm32f4xx_hal_rcc.c ****       {
 1187              		.loc 1 674 0
 1188 00a4 FFF7FEFF 		bl	HAL_GetTick
 1189              	.LVL90:
 1190 00a8 801B     		subs	r0, r0, r6
 1191 00aa 41F28833 		movw	r3, #5000
 1192 00ae 9842     		cmp	r0, r3
 1193 00b0 F0D9     		bls	.L134
 676:/home/phong/Documents/thesis/stm32f4/stm-idf/components/stm32f4xx_hal_driver/stm32f4xx_hal_rcc.c ****       }
 1194              		.loc 1 676 0
 1195 00b2 0320     		movs	r0, #3
 1196 00b4 70BD     		pop	{r4, r5, r6, pc}
 1197              	.LVL91:
 1198              	.L150:
 642:/home/phong/Documents/thesis/stm32f4/stm-idf/components/stm32f4xx_hal_driver/stm32f4xx_hal_rcc.c ****       {
 1199              		.loc 1 642 0
 1200 00b6 264A     		ldr	r2, .L152+4
 1201 00b8 1268     		ldr	r2, [r2]
 1202 00ba 12F4003F 		tst	r2, #131072
 1203 00be E0D1     		bne	.L132
 644:/home/phong/Documents/thesis/stm32f4/stm-idf/components/stm32f4xx_hal_driver/stm32f4xx_hal_rcc.c ****       }
 1204              		.loc 1 644 0
 1205 00c0 0120     		movs	r0, #1
 1206 00c2 70BD     		pop	{r4, r5, r6, pc}
 1207              	.LVL92:
 1208              	.L151:
 652:/home/phong/Documents/thesis/stm32f4/stm-idf/components/stm32f4xx_hal_driver/stm32f4xx_hal_rcc.c ****       {
 1209              		.loc 1 652 0
 1210 00c4 224A     		ldr	r2, .L152+4
 1211 00c6 1268     		ldr	r2, [r2]
 1212 00c8 12F0007F 		tst	r2, #33554432
 1213 00cc D9D1     		bne	.L132
 654:/home/phong/Documents/thesis/stm32f4/stm-idf/components/stm32f4xx_hal_driver/stm32f4xx_hal_rcc.c ****       }
 1214              		.loc 1 654 0
 1215 00ce 0120     		movs	r0, #1
 1216 00d0 70BD     		pop	{r4, r5, r6, pc}
ARM GAS  /tmp/ccYos3sw.s 			page 40


 1217              	.LVL93:
 1218              	.L130:
 682:/home/phong/Documents/thesis/stm32f4/stm-idf/components/stm32f4xx_hal_driver/stm32f4xx_hal_rcc.c ****   {
 1219              		.loc 1 682 0
 1220 00d2 1E4B     		ldr	r3, .L152
 1221 00d4 1B68     		ldr	r3, [r3]
 1222 00d6 03F00F03 		and	r3, r3, #15
 1223 00da 9D42     		cmp	r5, r3
 1224 00dc 09D2     		bcs	.L136
 685:/home/phong/Documents/thesis/stm32f4/stm-idf/components/stm32f4xx_hal_driver/stm32f4xx_hal_rcc.c **** 
 1225              		.loc 1 685 0
 1226 00de EAB2     		uxtb	r2, r5
 1227 00e0 1A4B     		ldr	r3, .L152
 1228 00e2 1A70     		strb	r2, [r3]
 689:/home/phong/Documents/thesis/stm32f4/stm-idf/components/stm32f4xx_hal_driver/stm32f4xx_hal_rcc.c ****     {
 1229              		.loc 1 689 0
 1230 00e4 1B68     		ldr	r3, [r3]
 1231 00e6 03F00F03 		and	r3, r3, #15
 1232 00ea 9D42     		cmp	r5, r3
 1233 00ec 01D0     		beq	.L136
 691:/home/phong/Documents/thesis/stm32f4/stm-idf/components/stm32f4xx_hal_driver/stm32f4xx_hal_rcc.c ****     }
 1234              		.loc 1 691 0
 1235 00ee 0120     		movs	r0, #1
 716:/home/phong/Documents/thesis/stm32f4/stm-idf/components/stm32f4xx_hal_driver/stm32f4xx_hal_rcc.c **** 
 1236              		.loc 1 716 0
 1237 00f0 70BD     		pop	{r4, r5, r6, pc}
 1238              	.LVL94:
 1239              	.L136:
 696:/home/phong/Documents/thesis/stm32f4/stm-idf/components/stm32f4xx_hal_driver/stm32f4xx_hal_rcc.c ****   {
 1240              		.loc 1 696 0
 1241 00f2 2368     		ldr	r3, [r4]
 1242 00f4 13F0040F 		tst	r3, #4
 1243 00f8 06D0     		beq	.L137
 699:/home/phong/Documents/thesis/stm32f4/stm-idf/components/stm32f4xx_hal_driver/stm32f4xx_hal_rcc.c ****   }
 1244              		.loc 1 699 0
 1245 00fa 154A     		ldr	r2, .L152+4
 1246 00fc 9368     		ldr	r3, [r2, #8]
 1247 00fe 23F4E053 		bic	r3, r3, #7168
 1248 0102 E168     		ldr	r1, [r4, #12]
 1249 0104 0B43     		orrs	r3, r3, r1
 1250 0106 9360     		str	r3, [r2, #8]
 1251              	.L137:
 703:/home/phong/Documents/thesis/stm32f4/stm-idf/components/stm32f4xx_hal_driver/stm32f4xx_hal_rcc.c ****   {
 1252              		.loc 1 703 0
 1253 0108 2368     		ldr	r3, [r4]
 1254 010a 13F0080F 		tst	r3, #8
 1255 010e 07D0     		beq	.L138
 706:/home/phong/Documents/thesis/stm32f4/stm-idf/components/stm32f4xx_hal_driver/stm32f4xx_hal_rcc.c ****   }
 1256              		.loc 1 706 0
 1257 0110 0F4A     		ldr	r2, .L152+4
 1258 0112 9368     		ldr	r3, [r2, #8]
 1259 0114 23F46043 		bic	r3, r3, #57344
 1260 0118 2169     		ldr	r1, [r4, #16]
 1261 011a 43EAC103 		orr	r3, r3, r1, lsl #3
 1262 011e 9360     		str	r3, [r2, #8]
 1263              	.L138:
 710:/home/phong/Documents/thesis/stm32f4/stm-idf/components/stm32f4xx_hal_driver/stm32f4xx_hal_rcc.c **** 
ARM GAS  /tmp/ccYos3sw.s 			page 41


 1264              		.loc 1 710 0
 1265 0120 FFF7FEFF 		bl	HAL_RCC_GetSysClockFreq
 1266              	.LVL95:
 1267 0124 0A4B     		ldr	r3, .L152+4
 1268 0126 9B68     		ldr	r3, [r3, #8]
 1269 0128 C3F30313 		ubfx	r3, r3, #4, #4
 1270 012c 094A     		ldr	r2, .L152+8
 1271 012e D35C     		ldrb	r3, [r2, r3]	@ zero_extendqisi2
 1272 0130 D840     		lsrs	r0, r0, r3
 1273 0132 094B     		ldr	r3, .L152+12
 1274 0134 1860     		str	r0, [r3]
 713:/home/phong/Documents/thesis/stm32f4/stm-idf/components/stm32f4xx_hal_driver/stm32f4xx_hal_rcc.c **** 
 1275              		.loc 1 713 0
 1276 0136 094B     		ldr	r3, .L152+16
 1277 0138 1868     		ldr	r0, [r3]
 1278 013a FFF7FEFF 		bl	HAL_InitTick
 1279              	.LVL96:
 715:/home/phong/Documents/thesis/stm32f4/stm-idf/components/stm32f4xx_hal_driver/stm32f4xx_hal_rcc.c **** }
 1280              		.loc 1 715 0
 1281 013e 0020     		movs	r0, #0
 1282 0140 70BD     		pop	{r4, r5, r6, pc}
 1283              	.LVL97:
 1284              	.L139:
 1285              	.LCFI12:
 1286              		.cfi_def_cfa_offset 0
 1287              		.cfi_restore 4
 1288              		.cfi_restore 5
 1289              		.cfi_restore 6
 1290              		.cfi_restore 14
 589:/home/phong/Documents/thesis/stm32f4/stm-idf/components/stm32f4xx_hal_driver/stm32f4xx_hal_rcc.c ****   }
 1291              		.loc 1 589 0
 1292 0142 0120     		movs	r0, #1
 1293              	.LVL98:
 1294 0144 7047     		bx	lr
 1295              	.LVL99:
 1296              	.L143:
 1297              	.LCFI13:
 1298              		.cfi_def_cfa_offset 16
 1299              		.cfi_offset 4, -16
 1300              		.cfi_offset 5, -12
 1301              		.cfi_offset 6, -8
 1302              		.cfi_offset 14, -4
 663:/home/phong/Documents/thesis/stm32f4/stm-idf/components/stm32f4xx_hal_driver/stm32f4xx_hal_rcc.c ****       }
 1303              		.loc 1 663 0
 1304 0146 0120     		movs	r0, #1
 1305 0148 70BD     		pop	{r4, r5, r6, pc}
 1306              	.LVL100:
 1307              	.L153:
 1308 014a 00BF     		.align	2
 1309              	.L152:
 1310 014c 003C0240 		.word	1073888256
 1311 0150 00380240 		.word	1073887232
 1312 0154 00000000 		.word	AHBPrescTable
 1313 0158 00000000 		.word	SystemCoreClock
 1314 015c 00000000 		.word	uwTickPrio
 1315              		.cfi_endproc
 1316              	.LFE132:
ARM GAS  /tmp/ccYos3sw.s 			page 42


 1318              		.section	.text.HAL_RCC_GetHCLKFreq,"ax",%progbits
 1319              		.align	1
 1320              		.global	HAL_RCC_GetHCLKFreq
 1321              		.syntax unified
 1322              		.thumb
 1323              		.thumb_func
 1324              		.fpu fpv4-sp-d16
 1326              	HAL_RCC_GetHCLKFreq:
 1327              	.LFB137:
 922:/home/phong/Documents/thesis/stm32f4/stm-idf/components/stm32f4xx_hal_driver/stm32f4xx_hal_rcc.c **** 
 923:/home/phong/Documents/thesis/stm32f4/stm-idf/components/stm32f4xx_hal_driver/stm32f4xx_hal_rcc.c **** /**
 924:/home/phong/Documents/thesis/stm32f4/stm-idf/components/stm32f4xx_hal_driver/stm32f4xx_hal_rcc.c ****   * @brief  Returns the HCLK frequency
 925:/home/phong/Documents/thesis/stm32f4/stm-idf/components/stm32f4xx_hal_driver/stm32f4xx_hal_rcc.c ****   * @note   Each time HCLK changes, this function must be called to update the
 926:/home/phong/Documents/thesis/stm32f4/stm-idf/components/stm32f4xx_hal_driver/stm32f4xx_hal_rcc.c ****   *         right HCLK value. Otherwise, any configuration based on this function will be incorrect
 927:/home/phong/Documents/thesis/stm32f4/stm-idf/components/stm32f4xx_hal_driver/stm32f4xx_hal_rcc.c ****   *
 928:/home/phong/Documents/thesis/stm32f4/stm-idf/components/stm32f4xx_hal_driver/stm32f4xx_hal_rcc.c ****   * @note   The SystemCoreClock CMSIS variable is used to store System Clock Frequency
 929:/home/phong/Documents/thesis/stm32f4/stm-idf/components/stm32f4xx_hal_driver/stm32f4xx_hal_rcc.c ****   *         and updated within this function
 930:/home/phong/Documents/thesis/stm32f4/stm-idf/components/stm32f4xx_hal_driver/stm32f4xx_hal_rcc.c ****   * @retval HCLK frequency
 931:/home/phong/Documents/thesis/stm32f4/stm-idf/components/stm32f4xx_hal_driver/stm32f4xx_hal_rcc.c ****   */
 932:/home/phong/Documents/thesis/stm32f4/stm-idf/components/stm32f4xx_hal_driver/stm32f4xx_hal_rcc.c **** uint32_t HAL_RCC_GetHCLKFreq(void)
 933:/home/phong/Documents/thesis/stm32f4/stm-idf/components/stm32f4xx_hal_driver/stm32f4xx_hal_rcc.c **** {
 1328              		.loc 1 933 0
 1329              		.cfi_startproc
 1330              		@ args = 0, pretend = 0, frame = 0
 1331              		@ frame_needed = 0, uses_anonymous_args = 0
 1332              		@ link register save eliminated.
 934:/home/phong/Documents/thesis/stm32f4/stm-idf/components/stm32f4xx_hal_driver/stm32f4xx_hal_rcc.c ****   return SystemCoreClock;
 935:/home/phong/Documents/thesis/stm32f4/stm-idf/components/stm32f4xx_hal_driver/stm32f4xx_hal_rcc.c **** }
 1333              		.loc 1 935 0
 1334 0000 014B     		ldr	r3, .L155
 1335 0002 1868     		ldr	r0, [r3]
 1336 0004 7047     		bx	lr
 1337              	.L156:
 1338 0006 00BF     		.align	2
 1339              	.L155:
 1340 0008 00000000 		.word	SystemCoreClock
 1341              		.cfi_endproc
 1342              	.LFE137:
 1344              		.section	.text.HAL_RCC_GetPCLK1Freq,"ax",%progbits
 1345              		.align	1
 1346              		.global	HAL_RCC_GetPCLK1Freq
 1347              		.syntax unified
 1348              		.thumb
 1349              		.thumb_func
 1350              		.fpu fpv4-sp-d16
 1352              	HAL_RCC_GetPCLK1Freq:
 1353              	.LFB138:
 936:/home/phong/Documents/thesis/stm32f4/stm-idf/components/stm32f4xx_hal_driver/stm32f4xx_hal_rcc.c **** 
 937:/home/phong/Documents/thesis/stm32f4/stm-idf/components/stm32f4xx_hal_driver/stm32f4xx_hal_rcc.c **** /**
 938:/home/phong/Documents/thesis/stm32f4/stm-idf/components/stm32f4xx_hal_driver/stm32f4xx_hal_rcc.c ****   * @brief  Returns the PCLK1 frequency
 939:/home/phong/Documents/thesis/stm32f4/stm-idf/components/stm32f4xx_hal_driver/stm32f4xx_hal_rcc.c ****   * @note   Each time PCLK1 changes, this function must be called to update the
 940:/home/phong/Documents/thesis/stm32f4/stm-idf/components/stm32f4xx_hal_driver/stm32f4xx_hal_rcc.c ****   *         right PCLK1 value. Otherwise, any configuration based on this function will be incorrec
 941:/home/phong/Documents/thesis/stm32f4/stm-idf/components/stm32f4xx_hal_driver/stm32f4xx_hal_rcc.c ****   * @retval PCLK1 frequency
 942:/home/phong/Documents/thesis/stm32f4/stm-idf/components/stm32f4xx_hal_driver/stm32f4xx_hal_rcc.c ****   */
 943:/home/phong/Documents/thesis/stm32f4/stm-idf/components/stm32f4xx_hal_driver/stm32f4xx_hal_rcc.c **** uint32_t HAL_RCC_GetPCLK1Freq(void)
 944:/home/phong/Documents/thesis/stm32f4/stm-idf/components/stm32f4xx_hal_driver/stm32f4xx_hal_rcc.c **** {
 1354              		.loc 1 944 0
ARM GAS  /tmp/ccYos3sw.s 			page 43


 1355              		.cfi_startproc
 1356              		@ args = 0, pretend = 0, frame = 0
 1357              		@ frame_needed = 0, uses_anonymous_args = 0
 1358 0000 08B5     		push	{r3, lr}
 1359              	.LCFI14:
 1360              		.cfi_def_cfa_offset 8
 1361              		.cfi_offset 3, -8
 1362              		.cfi_offset 14, -4
 945:/home/phong/Documents/thesis/stm32f4/stm-idf/components/stm32f4xx_hal_driver/stm32f4xx_hal_rcc.c ****   /* Get HCLK source and Compute PCLK1 frequency ---------------------------*/
 946:/home/phong/Documents/thesis/stm32f4/stm-idf/components/stm32f4xx_hal_driver/stm32f4xx_hal_rcc.c ****   return (HAL_RCC_GetHCLKFreq() >> APBPrescTable[(RCC->CFGR & RCC_CFGR_PPRE1)>> RCC_CFGR_PPRE1_Pos]
 1363              		.loc 1 946 0
 1364 0002 FFF7FEFF 		bl	HAL_RCC_GetHCLKFreq
 1365              	.LVL101:
 1366 0006 044B     		ldr	r3, .L159
 1367 0008 9B68     		ldr	r3, [r3, #8]
 1368 000a C3F38223 		ubfx	r3, r3, #10, #3
 1369 000e 034A     		ldr	r2, .L159+4
 1370 0010 D35C     		ldrb	r3, [r2, r3]	@ zero_extendqisi2
 947:/home/phong/Documents/thesis/stm32f4/stm-idf/components/stm32f4xx_hal_driver/stm32f4xx_hal_rcc.c **** }
 1371              		.loc 1 947 0
 1372 0012 D840     		lsrs	r0, r0, r3
 1373 0014 08BD     		pop	{r3, pc}
 1374              	.L160:
 1375 0016 00BF     		.align	2
 1376              	.L159:
 1377 0018 00380240 		.word	1073887232
 1378 001c 00000000 		.word	APBPrescTable
 1379              		.cfi_endproc
 1380              	.LFE138:
 1382              		.section	.text.HAL_RCC_GetPCLK2Freq,"ax",%progbits
 1383              		.align	1
 1384              		.global	HAL_RCC_GetPCLK2Freq
 1385              		.syntax unified
 1386              		.thumb
 1387              		.thumb_func
 1388              		.fpu fpv4-sp-d16
 1390              	HAL_RCC_GetPCLK2Freq:
 1391              	.LFB139:
 948:/home/phong/Documents/thesis/stm32f4/stm-idf/components/stm32f4xx_hal_driver/stm32f4xx_hal_rcc.c **** 
 949:/home/phong/Documents/thesis/stm32f4/stm-idf/components/stm32f4xx_hal_driver/stm32f4xx_hal_rcc.c **** /**
 950:/home/phong/Documents/thesis/stm32f4/stm-idf/components/stm32f4xx_hal_driver/stm32f4xx_hal_rcc.c ****   * @brief  Returns the PCLK2 frequency
 951:/home/phong/Documents/thesis/stm32f4/stm-idf/components/stm32f4xx_hal_driver/stm32f4xx_hal_rcc.c ****   * @note   Each time PCLK2 changes, this function must be called to update the
 952:/home/phong/Documents/thesis/stm32f4/stm-idf/components/stm32f4xx_hal_driver/stm32f4xx_hal_rcc.c ****   *         right PCLK2 value. Otherwise, any configuration based on this function will be incorrec
 953:/home/phong/Documents/thesis/stm32f4/stm-idf/components/stm32f4xx_hal_driver/stm32f4xx_hal_rcc.c ****   * @retval PCLK2 frequency
 954:/home/phong/Documents/thesis/stm32f4/stm-idf/components/stm32f4xx_hal_driver/stm32f4xx_hal_rcc.c ****   */
 955:/home/phong/Documents/thesis/stm32f4/stm-idf/components/stm32f4xx_hal_driver/stm32f4xx_hal_rcc.c **** uint32_t HAL_RCC_GetPCLK2Freq(void)
 956:/home/phong/Documents/thesis/stm32f4/stm-idf/components/stm32f4xx_hal_driver/stm32f4xx_hal_rcc.c **** {
 1392              		.loc 1 956 0
 1393              		.cfi_startproc
 1394              		@ args = 0, pretend = 0, frame = 0
 1395              		@ frame_needed = 0, uses_anonymous_args = 0
 1396 0000 08B5     		push	{r3, lr}
 1397              	.LCFI15:
 1398              		.cfi_def_cfa_offset 8
 1399              		.cfi_offset 3, -8
 1400              		.cfi_offset 14, -4
 957:/home/phong/Documents/thesis/stm32f4/stm-idf/components/stm32f4xx_hal_driver/stm32f4xx_hal_rcc.c ****   /* Get HCLK source and Compute PCLK2 frequency ---------------------------*/
ARM GAS  /tmp/ccYos3sw.s 			page 44


 958:/home/phong/Documents/thesis/stm32f4/stm-idf/components/stm32f4xx_hal_driver/stm32f4xx_hal_rcc.c ****   return (HAL_RCC_GetHCLKFreq()>> APBPrescTable[(RCC->CFGR & RCC_CFGR_PPRE2)>> RCC_CFGR_PPRE2_Pos])
 1401              		.loc 1 958 0
 1402 0002 FFF7FEFF 		bl	HAL_RCC_GetHCLKFreq
 1403              	.LVL102:
 1404 0006 044B     		ldr	r3, .L163
 1405 0008 9B68     		ldr	r3, [r3, #8]
 1406 000a C3F34233 		ubfx	r3, r3, #13, #3
 1407 000e 034A     		ldr	r2, .L163+4
 1408 0010 D35C     		ldrb	r3, [r2, r3]	@ zero_extendqisi2
 959:/home/phong/Documents/thesis/stm32f4/stm-idf/components/stm32f4xx_hal_driver/stm32f4xx_hal_rcc.c **** }
 1409              		.loc 1 959 0
 1410 0012 D840     		lsrs	r0, r0, r3
 1411 0014 08BD     		pop	{r3, pc}
 1412              	.L164:
 1413 0016 00BF     		.align	2
 1414              	.L163:
 1415 0018 00380240 		.word	1073887232
 1416 001c 00000000 		.word	APBPrescTable
 1417              		.cfi_endproc
 1418              	.LFE139:
 1420              		.section	.text.HAL_RCC_GetOscConfig,"ax",%progbits
 1421              		.align	1
 1422              		.weak	HAL_RCC_GetOscConfig
 1423              		.syntax unified
 1424              		.thumb
 1425              		.thumb_func
 1426              		.fpu fpv4-sp-d16
 1428              	HAL_RCC_GetOscConfig:
 1429              	.LFB140:
 960:/home/phong/Documents/thesis/stm32f4/stm-idf/components/stm32f4xx_hal_driver/stm32f4xx_hal_rcc.c **** 
 961:/home/phong/Documents/thesis/stm32f4/stm-idf/components/stm32f4xx_hal_driver/stm32f4xx_hal_rcc.c **** /**
 962:/home/phong/Documents/thesis/stm32f4/stm-idf/components/stm32f4xx_hal_driver/stm32f4xx_hal_rcc.c ****   * @brief  Configures the RCC_OscInitStruct according to the internal
 963:/home/phong/Documents/thesis/stm32f4/stm-idf/components/stm32f4xx_hal_driver/stm32f4xx_hal_rcc.c ****   * RCC configuration registers.
 964:/home/phong/Documents/thesis/stm32f4/stm-idf/components/stm32f4xx_hal_driver/stm32f4xx_hal_rcc.c ****   * @param  RCC_OscInitStruct pointer to an RCC_OscInitTypeDef structure that
 965:/home/phong/Documents/thesis/stm32f4/stm-idf/components/stm32f4xx_hal_driver/stm32f4xx_hal_rcc.c ****   * will be configured.
 966:/home/phong/Documents/thesis/stm32f4/stm-idf/components/stm32f4xx_hal_driver/stm32f4xx_hal_rcc.c ****   * @retval None
 967:/home/phong/Documents/thesis/stm32f4/stm-idf/components/stm32f4xx_hal_driver/stm32f4xx_hal_rcc.c ****   */
 968:/home/phong/Documents/thesis/stm32f4/stm-idf/components/stm32f4xx_hal_driver/stm32f4xx_hal_rcc.c **** __weak void HAL_RCC_GetOscConfig(RCC_OscInitTypeDef  *RCC_OscInitStruct)
 969:/home/phong/Documents/thesis/stm32f4/stm-idf/components/stm32f4xx_hal_driver/stm32f4xx_hal_rcc.c **** {
 1430              		.loc 1 969 0
 1431              		.cfi_startproc
 1432              		@ args = 0, pretend = 0, frame = 0
 1433              		@ frame_needed = 0, uses_anonymous_args = 0
 1434              		@ link register save eliminated.
 1435              	.LVL103:
 970:/home/phong/Documents/thesis/stm32f4/stm-idf/components/stm32f4xx_hal_driver/stm32f4xx_hal_rcc.c ****   /* Set all possible values for the Oscillator type parameter ---------------*/
 971:/home/phong/Documents/thesis/stm32f4/stm-idf/components/stm32f4xx_hal_driver/stm32f4xx_hal_rcc.c ****   RCC_OscInitStruct->OscillatorType = RCC_OSCILLATORTYPE_HSE | RCC_OSCILLATORTYPE_HSI | RCC_OSCILLA
 1436              		.loc 1 971 0
 1437 0000 0F23     		movs	r3, #15
 1438 0002 0360     		str	r3, [r0]
 972:/home/phong/Documents/thesis/stm32f4/stm-idf/components/stm32f4xx_hal_driver/stm32f4xx_hal_rcc.c **** 
 973:/home/phong/Documents/thesis/stm32f4/stm-idf/components/stm32f4xx_hal_driver/stm32f4xx_hal_rcc.c ****   /* Get the HSE configuration -----------------------------------------------*/
 974:/home/phong/Documents/thesis/stm32f4/stm-idf/components/stm32f4xx_hal_driver/stm32f4xx_hal_rcc.c ****   if((RCC->CR &RCC_CR_HSEBYP) == RCC_CR_HSEBYP)
 1439              		.loc 1 974 0
 1440 0004 304B     		ldr	r3, .L179
 1441 0006 1B68     		ldr	r3, [r3]
 1442 0008 13F4802F 		tst	r3, #262144
ARM GAS  /tmp/ccYos3sw.s 			page 45


 1443 000c 3CD0     		beq	.L166
 975:/home/phong/Documents/thesis/stm32f4/stm-idf/components/stm32f4xx_hal_driver/stm32f4xx_hal_rcc.c ****   {
 976:/home/phong/Documents/thesis/stm32f4/stm-idf/components/stm32f4xx_hal_driver/stm32f4xx_hal_rcc.c ****     RCC_OscInitStruct->HSEState = RCC_HSE_BYPASS;
 1444              		.loc 1 976 0
 1445 000e 4FF4A023 		mov	r3, #327680
 1446 0012 4360     		str	r3, [r0, #4]
 1447              	.L167:
 977:/home/phong/Documents/thesis/stm32f4/stm-idf/components/stm32f4xx_hal_driver/stm32f4xx_hal_rcc.c ****   }
 978:/home/phong/Documents/thesis/stm32f4/stm-idf/components/stm32f4xx_hal_driver/stm32f4xx_hal_rcc.c ****   else if((RCC->CR &RCC_CR_HSEON) == RCC_CR_HSEON)
 979:/home/phong/Documents/thesis/stm32f4/stm-idf/components/stm32f4xx_hal_driver/stm32f4xx_hal_rcc.c ****   {
 980:/home/phong/Documents/thesis/stm32f4/stm-idf/components/stm32f4xx_hal_driver/stm32f4xx_hal_rcc.c ****     RCC_OscInitStruct->HSEState = RCC_HSE_ON;
 981:/home/phong/Documents/thesis/stm32f4/stm-idf/components/stm32f4xx_hal_driver/stm32f4xx_hal_rcc.c ****   }
 982:/home/phong/Documents/thesis/stm32f4/stm-idf/components/stm32f4xx_hal_driver/stm32f4xx_hal_rcc.c ****   else
 983:/home/phong/Documents/thesis/stm32f4/stm-idf/components/stm32f4xx_hal_driver/stm32f4xx_hal_rcc.c ****   {
 984:/home/phong/Documents/thesis/stm32f4/stm-idf/components/stm32f4xx_hal_driver/stm32f4xx_hal_rcc.c ****     RCC_OscInitStruct->HSEState = RCC_HSE_OFF;
 985:/home/phong/Documents/thesis/stm32f4/stm-idf/components/stm32f4xx_hal_driver/stm32f4xx_hal_rcc.c ****   }
 986:/home/phong/Documents/thesis/stm32f4/stm-idf/components/stm32f4xx_hal_driver/stm32f4xx_hal_rcc.c **** 
 987:/home/phong/Documents/thesis/stm32f4/stm-idf/components/stm32f4xx_hal_driver/stm32f4xx_hal_rcc.c ****   /* Get the HSI configuration -----------------------------------------------*/
 988:/home/phong/Documents/thesis/stm32f4/stm-idf/components/stm32f4xx_hal_driver/stm32f4xx_hal_rcc.c ****   if((RCC->CR &RCC_CR_HSION) == RCC_CR_HSION)
 1448              		.loc 1 988 0
 1449 0014 2C4B     		ldr	r3, .L179
 1450 0016 1B68     		ldr	r3, [r3]
 1451 0018 13F0010F 		tst	r3, #1
 1452 001c 40D0     		beq	.L169
 989:/home/phong/Documents/thesis/stm32f4/stm-idf/components/stm32f4xx_hal_driver/stm32f4xx_hal_rcc.c ****   {
 990:/home/phong/Documents/thesis/stm32f4/stm-idf/components/stm32f4xx_hal_driver/stm32f4xx_hal_rcc.c ****     RCC_OscInitStruct->HSIState = RCC_HSI_ON;
 1453              		.loc 1 990 0
 1454 001e 0123     		movs	r3, #1
 1455 0020 C360     		str	r3, [r0, #12]
 1456              	.L170:
 991:/home/phong/Documents/thesis/stm32f4/stm-idf/components/stm32f4xx_hal_driver/stm32f4xx_hal_rcc.c ****   }
 992:/home/phong/Documents/thesis/stm32f4/stm-idf/components/stm32f4xx_hal_driver/stm32f4xx_hal_rcc.c ****   else
 993:/home/phong/Documents/thesis/stm32f4/stm-idf/components/stm32f4xx_hal_driver/stm32f4xx_hal_rcc.c ****   {
 994:/home/phong/Documents/thesis/stm32f4/stm-idf/components/stm32f4xx_hal_driver/stm32f4xx_hal_rcc.c ****     RCC_OscInitStruct->HSIState = RCC_HSI_OFF;
 995:/home/phong/Documents/thesis/stm32f4/stm-idf/components/stm32f4xx_hal_driver/stm32f4xx_hal_rcc.c ****   }
 996:/home/phong/Documents/thesis/stm32f4/stm-idf/components/stm32f4xx_hal_driver/stm32f4xx_hal_rcc.c **** 
 997:/home/phong/Documents/thesis/stm32f4/stm-idf/components/stm32f4xx_hal_driver/stm32f4xx_hal_rcc.c ****   RCC_OscInitStruct->HSICalibrationValue = (uint32_t)((RCC->CR &RCC_CR_HSITRIM) >> RCC_CR_HSITRIM_P
 1457              		.loc 1 997 0
 1458 0022 294A     		ldr	r2, .L179
 1459 0024 1368     		ldr	r3, [r2]
 1460 0026 C3F3C403 		ubfx	r3, r3, #3, #5
 1461 002a 0361     		str	r3, [r0, #16]
 998:/home/phong/Documents/thesis/stm32f4/stm-idf/components/stm32f4xx_hal_driver/stm32f4xx_hal_rcc.c **** 
 999:/home/phong/Documents/thesis/stm32f4/stm-idf/components/stm32f4xx_hal_driver/stm32f4xx_hal_rcc.c ****   /* Get the LSE configuration -----------------------------------------------*/
1000:/home/phong/Documents/thesis/stm32f4/stm-idf/components/stm32f4xx_hal_driver/stm32f4xx_hal_rcc.c ****   if((RCC->BDCR &RCC_BDCR_LSEBYP) == RCC_BDCR_LSEBYP)
 1462              		.loc 1 1000 0
 1463 002c 136F     		ldr	r3, [r2, #112]
 1464 002e 13F0040F 		tst	r3, #4
 1465 0032 38D0     		beq	.L171
1001:/home/phong/Documents/thesis/stm32f4/stm-idf/components/stm32f4xx_hal_driver/stm32f4xx_hal_rcc.c ****   {
1002:/home/phong/Documents/thesis/stm32f4/stm-idf/components/stm32f4xx_hal_driver/stm32f4xx_hal_rcc.c ****     RCC_OscInitStruct->LSEState = RCC_LSE_BYPASS;
 1466              		.loc 1 1002 0
 1467 0034 0523     		movs	r3, #5
 1468 0036 8360     		str	r3, [r0, #8]
 1469              	.L172:
1003:/home/phong/Documents/thesis/stm32f4/stm-idf/components/stm32f4xx_hal_driver/stm32f4xx_hal_rcc.c ****   }
1004:/home/phong/Documents/thesis/stm32f4/stm-idf/components/stm32f4xx_hal_driver/stm32f4xx_hal_rcc.c ****   else if((RCC->BDCR &RCC_BDCR_LSEON) == RCC_BDCR_LSEON)
ARM GAS  /tmp/ccYos3sw.s 			page 46


1005:/home/phong/Documents/thesis/stm32f4/stm-idf/components/stm32f4xx_hal_driver/stm32f4xx_hal_rcc.c ****   {
1006:/home/phong/Documents/thesis/stm32f4/stm-idf/components/stm32f4xx_hal_driver/stm32f4xx_hal_rcc.c ****     RCC_OscInitStruct->LSEState = RCC_LSE_ON;
1007:/home/phong/Documents/thesis/stm32f4/stm-idf/components/stm32f4xx_hal_driver/stm32f4xx_hal_rcc.c ****   }
1008:/home/phong/Documents/thesis/stm32f4/stm-idf/components/stm32f4xx_hal_driver/stm32f4xx_hal_rcc.c ****   else
1009:/home/phong/Documents/thesis/stm32f4/stm-idf/components/stm32f4xx_hal_driver/stm32f4xx_hal_rcc.c ****   {
1010:/home/phong/Documents/thesis/stm32f4/stm-idf/components/stm32f4xx_hal_driver/stm32f4xx_hal_rcc.c ****     RCC_OscInitStruct->LSEState = RCC_LSE_OFF;
1011:/home/phong/Documents/thesis/stm32f4/stm-idf/components/stm32f4xx_hal_driver/stm32f4xx_hal_rcc.c ****   }
1012:/home/phong/Documents/thesis/stm32f4/stm-idf/components/stm32f4xx_hal_driver/stm32f4xx_hal_rcc.c **** 
1013:/home/phong/Documents/thesis/stm32f4/stm-idf/components/stm32f4xx_hal_driver/stm32f4xx_hal_rcc.c ****   /* Get the LSI configuration -----------------------------------------------*/
1014:/home/phong/Documents/thesis/stm32f4/stm-idf/components/stm32f4xx_hal_driver/stm32f4xx_hal_rcc.c ****   if((RCC->CSR &RCC_CSR_LSION) == RCC_CSR_LSION)
 1470              		.loc 1 1014 0
 1471 0038 234B     		ldr	r3, .L179
 1472 003a 5B6F     		ldr	r3, [r3, #116]
 1473 003c 13F0010F 		tst	r3, #1
 1474 0040 3CD0     		beq	.L174
1015:/home/phong/Documents/thesis/stm32f4/stm-idf/components/stm32f4xx_hal_driver/stm32f4xx_hal_rcc.c ****   {
1016:/home/phong/Documents/thesis/stm32f4/stm-idf/components/stm32f4xx_hal_driver/stm32f4xx_hal_rcc.c ****     RCC_OscInitStruct->LSIState = RCC_LSI_ON;
 1475              		.loc 1 1016 0
 1476 0042 0123     		movs	r3, #1
 1477 0044 4361     		str	r3, [r0, #20]
 1478              	.L175:
1017:/home/phong/Documents/thesis/stm32f4/stm-idf/components/stm32f4xx_hal_driver/stm32f4xx_hal_rcc.c ****   }
1018:/home/phong/Documents/thesis/stm32f4/stm-idf/components/stm32f4xx_hal_driver/stm32f4xx_hal_rcc.c ****   else
1019:/home/phong/Documents/thesis/stm32f4/stm-idf/components/stm32f4xx_hal_driver/stm32f4xx_hal_rcc.c ****   {
1020:/home/phong/Documents/thesis/stm32f4/stm-idf/components/stm32f4xx_hal_driver/stm32f4xx_hal_rcc.c ****     RCC_OscInitStruct->LSIState = RCC_LSI_OFF;
1021:/home/phong/Documents/thesis/stm32f4/stm-idf/components/stm32f4xx_hal_driver/stm32f4xx_hal_rcc.c ****   }
1022:/home/phong/Documents/thesis/stm32f4/stm-idf/components/stm32f4xx_hal_driver/stm32f4xx_hal_rcc.c **** 
1023:/home/phong/Documents/thesis/stm32f4/stm-idf/components/stm32f4xx_hal_driver/stm32f4xx_hal_rcc.c ****   /* Get the PLL configuration -----------------------------------------------*/
1024:/home/phong/Documents/thesis/stm32f4/stm-idf/components/stm32f4xx_hal_driver/stm32f4xx_hal_rcc.c ****   if((RCC->CR &RCC_CR_PLLON) == RCC_CR_PLLON)
 1479              		.loc 1 1024 0
 1480 0046 204B     		ldr	r3, .L179
 1481 0048 1B68     		ldr	r3, [r3]
 1482 004a 13F0807F 		tst	r3, #16777216
 1483 004e 38D1     		bne	.L178
1025:/home/phong/Documents/thesis/stm32f4/stm-idf/components/stm32f4xx_hal_driver/stm32f4xx_hal_rcc.c ****   {
1026:/home/phong/Documents/thesis/stm32f4/stm-idf/components/stm32f4xx_hal_driver/stm32f4xx_hal_rcc.c ****     RCC_OscInitStruct->PLL.PLLState = RCC_PLL_ON;
1027:/home/phong/Documents/thesis/stm32f4/stm-idf/components/stm32f4xx_hal_driver/stm32f4xx_hal_rcc.c ****   }
1028:/home/phong/Documents/thesis/stm32f4/stm-idf/components/stm32f4xx_hal_driver/stm32f4xx_hal_rcc.c ****   else
1029:/home/phong/Documents/thesis/stm32f4/stm-idf/components/stm32f4xx_hal_driver/stm32f4xx_hal_rcc.c ****   {
1030:/home/phong/Documents/thesis/stm32f4/stm-idf/components/stm32f4xx_hal_driver/stm32f4xx_hal_rcc.c ****     RCC_OscInitStruct->PLL.PLLState = RCC_PLL_OFF;
 1484              		.loc 1 1030 0
 1485 0050 0123     		movs	r3, #1
 1486 0052 8361     		str	r3, [r0, #24]
 1487              	.L177:
1031:/home/phong/Documents/thesis/stm32f4/stm-idf/components/stm32f4xx_hal_driver/stm32f4xx_hal_rcc.c ****   }
1032:/home/phong/Documents/thesis/stm32f4/stm-idf/components/stm32f4xx_hal_driver/stm32f4xx_hal_rcc.c ****   RCC_OscInitStruct->PLL.PLLSource = (uint32_t)(RCC->PLLCFGR & RCC_PLLCFGR_PLLSRC);
 1488              		.loc 1 1032 0
 1489 0054 1C4A     		ldr	r2, .L179
 1490 0056 5368     		ldr	r3, [r2, #4]
 1491 0058 03F48003 		and	r3, r3, #4194304
 1492 005c C361     		str	r3, [r0, #28]
1033:/home/phong/Documents/thesis/stm32f4/stm-idf/components/stm32f4xx_hal_driver/stm32f4xx_hal_rcc.c ****   RCC_OscInitStruct->PLL.PLLM = (uint32_t)(RCC->PLLCFGR & RCC_PLLCFGR_PLLM);
 1493              		.loc 1 1033 0
 1494 005e 5368     		ldr	r3, [r2, #4]
 1495 0060 03F03F03 		and	r3, r3, #63
 1496 0064 0362     		str	r3, [r0, #32]
1034:/home/phong/Documents/thesis/stm32f4/stm-idf/components/stm32f4xx_hal_driver/stm32f4xx_hal_rcc.c ****   RCC_OscInitStruct->PLL.PLLN = (uint32_t)((RCC->PLLCFGR & RCC_PLLCFGR_PLLN) >> RCC_PLLCFGR_PLLN_Po
ARM GAS  /tmp/ccYos3sw.s 			page 47


 1497              		.loc 1 1034 0
 1498 0066 5368     		ldr	r3, [r2, #4]
 1499 0068 C3F38813 		ubfx	r3, r3, #6, #9
 1500 006c 4362     		str	r3, [r0, #36]
1035:/home/phong/Documents/thesis/stm32f4/stm-idf/components/stm32f4xx_hal_driver/stm32f4xx_hal_rcc.c ****   RCC_OscInitStruct->PLL.PLLP = (uint32_t)((((RCC->PLLCFGR & RCC_PLLCFGR_PLLP) + RCC_PLLCFGR_PLLP_0
 1501              		.loc 1 1035 0
 1502 006e 5368     		ldr	r3, [r2, #4]
 1503 0070 03F44033 		and	r3, r3, #196608
 1504 0074 03F58033 		add	r3, r3, #65536
 1505 0078 5B00     		lsls	r3, r3, #1
 1506 007a 1B0C     		lsrs	r3, r3, #16
 1507 007c 8362     		str	r3, [r0, #40]
1036:/home/phong/Documents/thesis/stm32f4/stm-idf/components/stm32f4xx_hal_driver/stm32f4xx_hal_rcc.c ****   RCC_OscInitStruct->PLL.PLLQ = (uint32_t)((RCC->PLLCFGR & RCC_PLLCFGR_PLLQ) >> RCC_PLLCFGR_PLLQ_Po
 1508              		.loc 1 1036 0
 1509 007e 5368     		ldr	r3, [r2, #4]
 1510 0080 C3F30363 		ubfx	r3, r3, #24, #4
 1511 0084 C362     		str	r3, [r0, #44]
 1512 0086 7047     		bx	lr
 1513              	.L166:
 978:/home/phong/Documents/thesis/stm32f4/stm-idf/components/stm32f4xx_hal_driver/stm32f4xx_hal_rcc.c ****   {
 1514              		.loc 1 978 0
 1515 0088 0F4B     		ldr	r3, .L179
 1516 008a 1B68     		ldr	r3, [r3]
 1517 008c 13F4803F 		tst	r3, #65536
 1518 0090 03D0     		beq	.L168
 980:/home/phong/Documents/thesis/stm32f4/stm-idf/components/stm32f4xx_hal_driver/stm32f4xx_hal_rcc.c ****   }
 1519              		.loc 1 980 0
 1520 0092 4FF48033 		mov	r3, #65536
 1521 0096 4360     		str	r3, [r0, #4]
 1522 0098 BCE7     		b	.L167
 1523              	.L168:
 984:/home/phong/Documents/thesis/stm32f4/stm-idf/components/stm32f4xx_hal_driver/stm32f4xx_hal_rcc.c ****   }
 1524              		.loc 1 984 0
 1525 009a 0023     		movs	r3, #0
 1526 009c 4360     		str	r3, [r0, #4]
 1527 009e B9E7     		b	.L167
 1528              	.L169:
 994:/home/phong/Documents/thesis/stm32f4/stm-idf/components/stm32f4xx_hal_driver/stm32f4xx_hal_rcc.c ****   }
 1529              		.loc 1 994 0
 1530 00a0 0023     		movs	r3, #0
 1531 00a2 C360     		str	r3, [r0, #12]
 1532 00a4 BDE7     		b	.L170
 1533              	.L171:
1004:/home/phong/Documents/thesis/stm32f4/stm-idf/components/stm32f4xx_hal_driver/stm32f4xx_hal_rcc.c ****   {
 1534              		.loc 1 1004 0
 1535 00a6 084B     		ldr	r3, .L179
 1536 00a8 1B6F     		ldr	r3, [r3, #112]
 1537 00aa 13F0010F 		tst	r3, #1
 1538 00ae 02D0     		beq	.L173
1006:/home/phong/Documents/thesis/stm32f4/stm-idf/components/stm32f4xx_hal_driver/stm32f4xx_hal_rcc.c ****   }
 1539              		.loc 1 1006 0
 1540 00b0 0123     		movs	r3, #1
 1541 00b2 8360     		str	r3, [r0, #8]
 1542 00b4 C0E7     		b	.L172
 1543              	.L173:
1010:/home/phong/Documents/thesis/stm32f4/stm-idf/components/stm32f4xx_hal_driver/stm32f4xx_hal_rcc.c ****   }
 1544              		.loc 1 1010 0
ARM GAS  /tmp/ccYos3sw.s 			page 48


 1545 00b6 0023     		movs	r3, #0
 1546 00b8 8360     		str	r3, [r0, #8]
 1547 00ba BDE7     		b	.L172
 1548              	.L174:
1020:/home/phong/Documents/thesis/stm32f4/stm-idf/components/stm32f4xx_hal_driver/stm32f4xx_hal_rcc.c ****   }
 1549              		.loc 1 1020 0
 1550 00bc 0023     		movs	r3, #0
 1551 00be 4361     		str	r3, [r0, #20]
 1552 00c0 C1E7     		b	.L175
 1553              	.L178:
1026:/home/phong/Documents/thesis/stm32f4/stm-idf/components/stm32f4xx_hal_driver/stm32f4xx_hal_rcc.c ****   }
 1554              		.loc 1 1026 0
 1555 00c2 0223     		movs	r3, #2
 1556 00c4 8361     		str	r3, [r0, #24]
 1557 00c6 C5E7     		b	.L177
 1558              	.L180:
 1559              		.align	2
 1560              	.L179:
 1561 00c8 00380240 		.word	1073887232
 1562              		.cfi_endproc
 1563              	.LFE140:
 1565              		.section	.text.HAL_RCC_GetClockConfig,"ax",%progbits
 1566              		.align	1
 1567              		.global	HAL_RCC_GetClockConfig
 1568              		.syntax unified
 1569              		.thumb
 1570              		.thumb_func
 1571              		.fpu fpv4-sp-d16
 1573              	HAL_RCC_GetClockConfig:
 1574              	.LFB141:
1037:/home/phong/Documents/thesis/stm32f4/stm-idf/components/stm32f4xx_hal_driver/stm32f4xx_hal_rcc.c **** }
1038:/home/phong/Documents/thesis/stm32f4/stm-idf/components/stm32f4xx_hal_driver/stm32f4xx_hal_rcc.c **** 
1039:/home/phong/Documents/thesis/stm32f4/stm-idf/components/stm32f4xx_hal_driver/stm32f4xx_hal_rcc.c **** /**
1040:/home/phong/Documents/thesis/stm32f4/stm-idf/components/stm32f4xx_hal_driver/stm32f4xx_hal_rcc.c ****   * @brief  Configures the RCC_ClkInitStruct according to the internal
1041:/home/phong/Documents/thesis/stm32f4/stm-idf/components/stm32f4xx_hal_driver/stm32f4xx_hal_rcc.c ****   * RCC configuration registers.
1042:/home/phong/Documents/thesis/stm32f4/stm-idf/components/stm32f4xx_hal_driver/stm32f4xx_hal_rcc.c ****   * @param  RCC_ClkInitStruct pointer to an RCC_ClkInitTypeDef structure that
1043:/home/phong/Documents/thesis/stm32f4/stm-idf/components/stm32f4xx_hal_driver/stm32f4xx_hal_rcc.c ****   * will be configured.
1044:/home/phong/Documents/thesis/stm32f4/stm-idf/components/stm32f4xx_hal_driver/stm32f4xx_hal_rcc.c ****   * @param  pFLatency Pointer on the Flash Latency.
1045:/home/phong/Documents/thesis/stm32f4/stm-idf/components/stm32f4xx_hal_driver/stm32f4xx_hal_rcc.c ****   * @retval None
1046:/home/phong/Documents/thesis/stm32f4/stm-idf/components/stm32f4xx_hal_driver/stm32f4xx_hal_rcc.c ****   */
1047:/home/phong/Documents/thesis/stm32f4/stm-idf/components/stm32f4xx_hal_driver/stm32f4xx_hal_rcc.c **** void HAL_RCC_GetClockConfig(RCC_ClkInitTypeDef  *RCC_ClkInitStruct, uint32_t *pFLatency)
1048:/home/phong/Documents/thesis/stm32f4/stm-idf/components/stm32f4xx_hal_driver/stm32f4xx_hal_rcc.c **** {
 1575              		.loc 1 1048 0
 1576              		.cfi_startproc
 1577              		@ args = 0, pretend = 0, frame = 0
 1578              		@ frame_needed = 0, uses_anonymous_args = 0
 1579              		@ link register save eliminated.
 1580              	.LVL104:
1049:/home/phong/Documents/thesis/stm32f4/stm-idf/components/stm32f4xx_hal_driver/stm32f4xx_hal_rcc.c ****   /* Set all possible values for the Clock type parameter --------------------*/
1050:/home/phong/Documents/thesis/stm32f4/stm-idf/components/stm32f4xx_hal_driver/stm32f4xx_hal_rcc.c ****   RCC_ClkInitStruct->ClockType = RCC_CLOCKTYPE_SYSCLK | RCC_CLOCKTYPE_HCLK | RCC_CLOCKTYPE_PCLK1 | 
 1581              		.loc 1 1050 0
 1582 0000 0F23     		movs	r3, #15
 1583 0002 0360     		str	r3, [r0]
1051:/home/phong/Documents/thesis/stm32f4/stm-idf/components/stm32f4xx_hal_driver/stm32f4xx_hal_rcc.c **** 
1052:/home/phong/Documents/thesis/stm32f4/stm-idf/components/stm32f4xx_hal_driver/stm32f4xx_hal_rcc.c ****   /* Get the SYSCLK configuration --------------------------------------------*/
1053:/home/phong/Documents/thesis/stm32f4/stm-idf/components/stm32f4xx_hal_driver/stm32f4xx_hal_rcc.c ****   RCC_ClkInitStruct->SYSCLKSource = (uint32_t)(RCC->CFGR & RCC_CFGR_SW);
 1584              		.loc 1 1053 0
ARM GAS  /tmp/ccYos3sw.s 			page 49


 1585 0004 0B4B     		ldr	r3, .L182
 1586 0006 9A68     		ldr	r2, [r3, #8]
 1587 0008 02F00302 		and	r2, r2, #3
 1588 000c 4260     		str	r2, [r0, #4]
1054:/home/phong/Documents/thesis/stm32f4/stm-idf/components/stm32f4xx_hal_driver/stm32f4xx_hal_rcc.c **** 
1055:/home/phong/Documents/thesis/stm32f4/stm-idf/components/stm32f4xx_hal_driver/stm32f4xx_hal_rcc.c ****   /* Get the HCLK configuration ----------------------------------------------*/
1056:/home/phong/Documents/thesis/stm32f4/stm-idf/components/stm32f4xx_hal_driver/stm32f4xx_hal_rcc.c ****   RCC_ClkInitStruct->AHBCLKDivider = (uint32_t)(RCC->CFGR & RCC_CFGR_HPRE);
 1589              		.loc 1 1056 0
 1590 000e 9A68     		ldr	r2, [r3, #8]
 1591 0010 02F0F002 		and	r2, r2, #240
 1592 0014 8260     		str	r2, [r0, #8]
1057:/home/phong/Documents/thesis/stm32f4/stm-idf/components/stm32f4xx_hal_driver/stm32f4xx_hal_rcc.c **** 
1058:/home/phong/Documents/thesis/stm32f4/stm-idf/components/stm32f4xx_hal_driver/stm32f4xx_hal_rcc.c ****   /* Get the APB1 configuration ----------------------------------------------*/
1059:/home/phong/Documents/thesis/stm32f4/stm-idf/components/stm32f4xx_hal_driver/stm32f4xx_hal_rcc.c ****   RCC_ClkInitStruct->APB1CLKDivider = (uint32_t)(RCC->CFGR & RCC_CFGR_PPRE1);
 1593              		.loc 1 1059 0
 1594 0016 9A68     		ldr	r2, [r3, #8]
 1595 0018 02F4E052 		and	r2, r2, #7168
 1596 001c C260     		str	r2, [r0, #12]
1060:/home/phong/Documents/thesis/stm32f4/stm-idf/components/stm32f4xx_hal_driver/stm32f4xx_hal_rcc.c **** 
1061:/home/phong/Documents/thesis/stm32f4/stm-idf/components/stm32f4xx_hal_driver/stm32f4xx_hal_rcc.c ****   /* Get the APB2 configuration ----------------------------------------------*/
1062:/home/phong/Documents/thesis/stm32f4/stm-idf/components/stm32f4xx_hal_driver/stm32f4xx_hal_rcc.c ****   RCC_ClkInitStruct->APB2CLKDivider = (uint32_t)((RCC->CFGR & RCC_CFGR_PPRE2) >> 3U);
 1597              		.loc 1 1062 0
 1598 001e 9B68     		ldr	r3, [r3, #8]
 1599 0020 DB08     		lsrs	r3, r3, #3
 1600 0022 03F4E053 		and	r3, r3, #7168
 1601 0026 0361     		str	r3, [r0, #16]
1063:/home/phong/Documents/thesis/stm32f4/stm-idf/components/stm32f4xx_hal_driver/stm32f4xx_hal_rcc.c **** 
1064:/home/phong/Documents/thesis/stm32f4/stm-idf/components/stm32f4xx_hal_driver/stm32f4xx_hal_rcc.c ****   /* Get the Flash Wait State (Latency) configuration ------------------------*/
1065:/home/phong/Documents/thesis/stm32f4/stm-idf/components/stm32f4xx_hal_driver/stm32f4xx_hal_rcc.c ****   *pFLatency = (uint32_t)(FLASH->ACR & FLASH_ACR_LATENCY);
 1602              		.loc 1 1065 0
 1603 0028 034B     		ldr	r3, .L182+4
 1604 002a 1B68     		ldr	r3, [r3]
 1605 002c 03F00F03 		and	r3, r3, #15
 1606 0030 0B60     		str	r3, [r1]
 1607 0032 7047     		bx	lr
 1608              	.L183:
 1609              		.align	2
 1610              	.L182:
 1611 0034 00380240 		.word	1073887232
 1612 0038 003C0240 		.word	1073888256
 1613              		.cfi_endproc
 1614              	.LFE141:
 1616              		.section	.text.HAL_RCC_CSSCallback,"ax",%progbits
 1617              		.align	1
 1618              		.weak	HAL_RCC_CSSCallback
 1619              		.syntax unified
 1620              		.thumb
 1621              		.thumb_func
 1622              		.fpu fpv4-sp-d16
 1624              	HAL_RCC_CSSCallback:
 1625              	.LFB143:
1066:/home/phong/Documents/thesis/stm32f4/stm-idf/components/stm32f4xx_hal_driver/stm32f4xx_hal_rcc.c **** }
1067:/home/phong/Documents/thesis/stm32f4/stm-idf/components/stm32f4xx_hal_driver/stm32f4xx_hal_rcc.c **** 
1068:/home/phong/Documents/thesis/stm32f4/stm-idf/components/stm32f4xx_hal_driver/stm32f4xx_hal_rcc.c **** /**
1069:/home/phong/Documents/thesis/stm32f4/stm-idf/components/stm32f4xx_hal_driver/stm32f4xx_hal_rcc.c ****   * @brief This function handles the RCC CSS interrupt request.
1070:/home/phong/Documents/thesis/stm32f4/stm-idf/components/stm32f4xx_hal_driver/stm32f4xx_hal_rcc.c ****   * @note This API should be called under the NMI_Handler().
1071:/home/phong/Documents/thesis/stm32f4/stm-idf/components/stm32f4xx_hal_driver/stm32f4xx_hal_rcc.c ****   * @retval None
ARM GAS  /tmp/ccYos3sw.s 			page 50


1072:/home/phong/Documents/thesis/stm32f4/stm-idf/components/stm32f4xx_hal_driver/stm32f4xx_hal_rcc.c ****   */
1073:/home/phong/Documents/thesis/stm32f4/stm-idf/components/stm32f4xx_hal_driver/stm32f4xx_hal_rcc.c **** void HAL_RCC_NMI_IRQHandler(void)
1074:/home/phong/Documents/thesis/stm32f4/stm-idf/components/stm32f4xx_hal_driver/stm32f4xx_hal_rcc.c **** {
1075:/home/phong/Documents/thesis/stm32f4/stm-idf/components/stm32f4xx_hal_driver/stm32f4xx_hal_rcc.c ****   /* Check RCC CSSF flag  */
1076:/home/phong/Documents/thesis/stm32f4/stm-idf/components/stm32f4xx_hal_driver/stm32f4xx_hal_rcc.c ****   if(__HAL_RCC_GET_IT(RCC_IT_CSS))
1077:/home/phong/Documents/thesis/stm32f4/stm-idf/components/stm32f4xx_hal_driver/stm32f4xx_hal_rcc.c ****   {
1078:/home/phong/Documents/thesis/stm32f4/stm-idf/components/stm32f4xx_hal_driver/stm32f4xx_hal_rcc.c ****     /* RCC Clock Security System interrupt user callback */
1079:/home/phong/Documents/thesis/stm32f4/stm-idf/components/stm32f4xx_hal_driver/stm32f4xx_hal_rcc.c ****     HAL_RCC_CSSCallback();
1080:/home/phong/Documents/thesis/stm32f4/stm-idf/components/stm32f4xx_hal_driver/stm32f4xx_hal_rcc.c **** 
1081:/home/phong/Documents/thesis/stm32f4/stm-idf/components/stm32f4xx_hal_driver/stm32f4xx_hal_rcc.c ****     /* Clear RCC CSS pending bit */
1082:/home/phong/Documents/thesis/stm32f4/stm-idf/components/stm32f4xx_hal_driver/stm32f4xx_hal_rcc.c ****     __HAL_RCC_CLEAR_IT(RCC_IT_CSS);
1083:/home/phong/Documents/thesis/stm32f4/stm-idf/components/stm32f4xx_hal_driver/stm32f4xx_hal_rcc.c ****   }
1084:/home/phong/Documents/thesis/stm32f4/stm-idf/components/stm32f4xx_hal_driver/stm32f4xx_hal_rcc.c **** }
1085:/home/phong/Documents/thesis/stm32f4/stm-idf/components/stm32f4xx_hal_driver/stm32f4xx_hal_rcc.c **** 
1086:/home/phong/Documents/thesis/stm32f4/stm-idf/components/stm32f4xx_hal_driver/stm32f4xx_hal_rcc.c **** /**
1087:/home/phong/Documents/thesis/stm32f4/stm-idf/components/stm32f4xx_hal_driver/stm32f4xx_hal_rcc.c ****   * @brief  RCC Clock Security System interrupt callback
1088:/home/phong/Documents/thesis/stm32f4/stm-idf/components/stm32f4xx_hal_driver/stm32f4xx_hal_rcc.c ****   * @retval None
1089:/home/phong/Documents/thesis/stm32f4/stm-idf/components/stm32f4xx_hal_driver/stm32f4xx_hal_rcc.c ****   */
1090:/home/phong/Documents/thesis/stm32f4/stm-idf/components/stm32f4xx_hal_driver/stm32f4xx_hal_rcc.c **** __weak void HAL_RCC_CSSCallback(void)
1091:/home/phong/Documents/thesis/stm32f4/stm-idf/components/stm32f4xx_hal_driver/stm32f4xx_hal_rcc.c **** {
 1626              		.loc 1 1091 0
 1627              		.cfi_startproc
 1628              		@ args = 0, pretend = 0, frame = 0
 1629              		@ frame_needed = 0, uses_anonymous_args = 0
 1630              		@ link register save eliminated.
 1631 0000 7047     		bx	lr
 1632              		.cfi_endproc
 1633              	.LFE143:
 1635              		.section	.text.HAL_RCC_NMI_IRQHandler,"ax",%progbits
 1636              		.align	1
 1637              		.global	HAL_RCC_NMI_IRQHandler
 1638              		.syntax unified
 1639              		.thumb
 1640              		.thumb_func
 1641              		.fpu fpv4-sp-d16
 1643              	HAL_RCC_NMI_IRQHandler:
 1644              	.LFB142:
1074:/home/phong/Documents/thesis/stm32f4/stm-idf/components/stm32f4xx_hal_driver/stm32f4xx_hal_rcc.c ****   /* Check RCC CSSF flag  */
 1645              		.loc 1 1074 0
 1646              		.cfi_startproc
 1647              		@ args = 0, pretend = 0, frame = 0
 1648              		@ frame_needed = 0, uses_anonymous_args = 0
1074:/home/phong/Documents/thesis/stm32f4/stm-idf/components/stm32f4xx_hal_driver/stm32f4xx_hal_rcc.c ****   /* Check RCC CSSF flag  */
 1649              		.loc 1 1074 0
 1650 0000 08B5     		push	{r3, lr}
 1651              	.LCFI16:
 1652              		.cfi_def_cfa_offset 8
 1653              		.cfi_offset 3, -8
 1654              		.cfi_offset 14, -4
1076:/home/phong/Documents/thesis/stm32f4/stm-idf/components/stm32f4xx_hal_driver/stm32f4xx_hal_rcc.c ****   {
 1655              		.loc 1 1076 0
 1656 0002 064B     		ldr	r3, .L189
 1657 0004 DB68     		ldr	r3, [r3, #12]
 1658 0006 13F0800F 		tst	r3, #128
 1659 000a 00D1     		bne	.L188
 1660              	.L185:
 1661 000c 08BD     		pop	{r3, pc}
ARM GAS  /tmp/ccYos3sw.s 			page 51


 1662              	.L188:
1079:/home/phong/Documents/thesis/stm32f4/stm-idf/components/stm32f4xx_hal_driver/stm32f4xx_hal_rcc.c **** 
 1663              		.loc 1 1079 0
 1664 000e FFF7FEFF 		bl	HAL_RCC_CSSCallback
 1665              	.LVL105:
1082:/home/phong/Documents/thesis/stm32f4/stm-idf/components/stm32f4xx_hal_driver/stm32f4xx_hal_rcc.c ****   }
 1666              		.loc 1 1082 0
 1667 0012 8022     		movs	r2, #128
 1668 0014 024B     		ldr	r3, .L189+4
 1669 0016 1A70     		strb	r2, [r3]
1084:/home/phong/Documents/thesis/stm32f4/stm-idf/components/stm32f4xx_hal_driver/stm32f4xx_hal_rcc.c **** 
 1670              		.loc 1 1084 0
 1671 0018 F8E7     		b	.L185
 1672              	.L190:
 1673 001a 00BF     		.align	2
 1674              	.L189:
 1675 001c 00380240 		.word	1073887232
 1676 0020 0E380240 		.word	1073887246
 1677              		.cfi_endproc
 1678              	.LFE142:
 1680              		.text
 1681              	.Letext0:
 1682              		.file 2 "/home/phong/Documents/thesis/stm32f4/stm-idf/components/newlib/include/machine/_default_t
 1683              		.file 3 "/home/phong/Documents/thesis/stm32f4/stm-idf/components/newlib/include/sys/_stdint.h"
 1684              		.file 4 "/home/phong/Documents/thesis/stm32f4/stm-idf/components/cmsis/include/core_cm4.h"
 1685              		.file 5 "/home/phong/Documents/thesis/stm32f4/stm-idf/components/cmsis/device/stm32/stm32f4xx/incl
 1686              		.file 6 "/home/phong/Documents/thesis/stm32f4/stm-idf/components/cmsis/device/stm32/stm32f4xx/incl
 1687              		.file 7 "/home/phong/Documents/thesis/stm32f4/stm-idf/components/cmsis/device/stm32/stm32f4xx/incl
 1688              		.file 8 "/home/phong/Documents/thesis/stm32f4/stm-idf/components/stm32f4xx_hal_driver/include/stm3
 1689              		.file 9 "/home/phong/Documents/thesis/stm32f4/stm-idf/components/stm32f4xx_hal_driver/include/stm3
 1690              		.file 10 "/home/phong/Documents/thesis/stm32f4/stm-idf/components/stm32f4xx_hal_driver/include/stm
 1691              		.file 11 "/home/phong/Documents/thesis/stm32f4/stm-idf/components/stm32f4xx_hal_driver/include/stm
 1692              		.file 12 "/home/phong/Documents/thesis/stm32f4/stm-idf/components/stm32f4xx_hal_driver/include/stm
ARM GAS  /tmp/ccYos3sw.s 			page 52

