ARM GAS  /tmp/cc9XlVWc.s 			page 1


   1              		.cpu cortex-m4
   2              		.eabi_attribute 27, 1
   3              		.eabi_attribute 28, 1
   4              		.eabi_attribute 20, 1
   5              		.eabi_attribute 21, 1
   6              		.eabi_attribute 23, 3
   7              		.eabi_attribute 24, 1
   8              		.eabi_attribute 25, 1
   9              		.eabi_attribute 26, 1
  10              		.eabi_attribute 30, 1
  11              		.eabi_attribute 34, 1
  12              		.eabi_attribute 18, 4
  13              		.file	"stm32f4xx_hal_sram.c"
  14              		.text
  15              	.Ltext0:
  16              		.cfi_sections	.debug_frame
  17              		.section	.text.HAL_SRAM_DMA_XferCpltCallback,"ax",%progbits
  18              		.align	1
  19              		.weak	HAL_SRAM_DMA_XferCpltCallback
  20              		.syntax unified
  21              		.thumb
  22              		.thumb_func
  23              		.fpu fpv4-sp-d16
  25              	HAL_SRAM_DMA_XferCpltCallback:
  26              	.LFB134:
  27              		.file 1 "/home/phong/Documents/thesis/stm32f4/stm-idf/components/stm32f4xx_hal_driver/stm32f4xx_ha
   1:/home/phong/Documents/thesis/stm32f4/stm-idf/components/stm32f4xx_hal_driver/stm32f4xx_hal_sram.c **** /**
   2:/home/phong/Documents/thesis/stm32f4/stm-idf/components/stm32f4xx_hal_driver/stm32f4xx_hal_sram.c ****   ******************************************************************************
   3:/home/phong/Documents/thesis/stm32f4/stm-idf/components/stm32f4xx_hal_driver/stm32f4xx_hal_sram.c ****   * @file    stm32f4xx_hal_sram.c
   4:/home/phong/Documents/thesis/stm32f4/stm-idf/components/stm32f4xx_hal_driver/stm32f4xx_hal_sram.c ****   * @author  MCD Application Team
   5:/home/phong/Documents/thesis/stm32f4/stm-idf/components/stm32f4xx_hal_driver/stm32f4xx_hal_sram.c ****   * @brief   SRAM HAL module driver.
   6:/home/phong/Documents/thesis/stm32f4/stm-idf/components/stm32f4xx_hal_driver/stm32f4xx_hal_sram.c ****   *          This file provides a generic firmware to drive SRAM memories  
   7:/home/phong/Documents/thesis/stm32f4/stm-idf/components/stm32f4xx_hal_driver/stm32f4xx_hal_sram.c ****   *          mounted as external device.
   8:/home/phong/Documents/thesis/stm32f4/stm-idf/components/stm32f4xx_hal_driver/stm32f4xx_hal_sram.c ****   *         
   9:/home/phong/Documents/thesis/stm32f4/stm-idf/components/stm32f4xx_hal_driver/stm32f4xx_hal_sram.c ****   @verbatim
  10:/home/phong/Documents/thesis/stm32f4/stm-idf/components/stm32f4xx_hal_driver/stm32f4xx_hal_sram.c ****   ==============================================================================
  11:/home/phong/Documents/thesis/stm32f4/stm-idf/components/stm32f4xx_hal_driver/stm32f4xx_hal_sram.c ****                           ##### How to use this driver #####
  12:/home/phong/Documents/thesis/stm32f4/stm-idf/components/stm32f4xx_hal_driver/stm32f4xx_hal_sram.c ****   ==============================================================================  
  13:/home/phong/Documents/thesis/stm32f4/stm-idf/components/stm32f4xx_hal_driver/stm32f4xx_hal_sram.c ****   [..]
  14:/home/phong/Documents/thesis/stm32f4/stm-idf/components/stm32f4xx_hal_driver/stm32f4xx_hal_sram.c ****     This driver is a generic layered driver which contains a set of APIs used to 
  15:/home/phong/Documents/thesis/stm32f4/stm-idf/components/stm32f4xx_hal_driver/stm32f4xx_hal_sram.c ****     control SRAM memories. It uses the FMC layer functions to interface 
  16:/home/phong/Documents/thesis/stm32f4/stm-idf/components/stm32f4xx_hal_driver/stm32f4xx_hal_sram.c ****     with SRAM devices.  
  17:/home/phong/Documents/thesis/stm32f4/stm-idf/components/stm32f4xx_hal_driver/stm32f4xx_hal_sram.c ****     The following sequence should be followed to configure the FMC/FSMC to interface
  18:/home/phong/Documents/thesis/stm32f4/stm-idf/components/stm32f4xx_hal_driver/stm32f4xx_hal_sram.c ****     with SRAM/PSRAM memories: 
  19:/home/phong/Documents/thesis/stm32f4/stm-idf/components/stm32f4xx_hal_driver/stm32f4xx_hal_sram.c ****       
  20:/home/phong/Documents/thesis/stm32f4/stm-idf/components/stm32f4xx_hal_driver/stm32f4xx_hal_sram.c ****    (#) Declare a SRAM_HandleTypeDef handle structure, for example:
  21:/home/phong/Documents/thesis/stm32f4/stm-idf/components/stm32f4xx_hal_driver/stm32f4xx_hal_sram.c ****           SRAM_HandleTypeDef  hsram; and: 
  22:/home/phong/Documents/thesis/stm32f4/stm-idf/components/stm32f4xx_hal_driver/stm32f4xx_hal_sram.c ****           
  23:/home/phong/Documents/thesis/stm32f4/stm-idf/components/stm32f4xx_hal_driver/stm32f4xx_hal_sram.c ****        (++) Fill the SRAM_HandleTypeDef handle "Init" field with the allowed 
  24:/home/phong/Documents/thesis/stm32f4/stm-idf/components/stm32f4xx_hal_driver/stm32f4xx_hal_sram.c ****             values of the structure member.
  25:/home/phong/Documents/thesis/stm32f4/stm-idf/components/stm32f4xx_hal_driver/stm32f4xx_hal_sram.c ****             
  26:/home/phong/Documents/thesis/stm32f4/stm-idf/components/stm32f4xx_hal_driver/stm32f4xx_hal_sram.c ****        (++) Fill the SRAM_HandleTypeDef handle "Instance" field with a predefined 
  27:/home/phong/Documents/thesis/stm32f4/stm-idf/components/stm32f4xx_hal_driver/stm32f4xx_hal_sram.c ****             base register instance for NOR or SRAM device 
  28:/home/phong/Documents/thesis/stm32f4/stm-idf/components/stm32f4xx_hal_driver/stm32f4xx_hal_sram.c ****                          
  29:/home/phong/Documents/thesis/stm32f4/stm-idf/components/stm32f4xx_hal_driver/stm32f4xx_hal_sram.c ****        (++) Fill the SRAM_HandleTypeDef handle "Extended" field with a predefined
  30:/home/phong/Documents/thesis/stm32f4/stm-idf/components/stm32f4xx_hal_driver/stm32f4xx_hal_sram.c ****             base register instance for NOR or SRAM extended mode 
  31:/home/phong/Documents/thesis/stm32f4/stm-idf/components/stm32f4xx_hal_driver/stm32f4xx_hal_sram.c ****              
ARM GAS  /tmp/cc9XlVWc.s 			page 2


  32:/home/phong/Documents/thesis/stm32f4/stm-idf/components/stm32f4xx_hal_driver/stm32f4xx_hal_sram.c ****    (#) Declare two FMC_NORSRAM_TimingTypeDef structures, for both normal and extended 
  33:/home/phong/Documents/thesis/stm32f4/stm-idf/components/stm32f4xx_hal_driver/stm32f4xx_hal_sram.c ****        mode timings; for example:
  34:/home/phong/Documents/thesis/stm32f4/stm-idf/components/stm32f4xx_hal_driver/stm32f4xx_hal_sram.c ****           FMC_NORSRAM_TimingTypeDef  Timing and FMC_NORSRAM_TimingTypeDef  ExTiming;
  35:/home/phong/Documents/thesis/stm32f4/stm-idf/components/stm32f4xx_hal_driver/stm32f4xx_hal_sram.c ****       and fill its fields with the allowed values of the structure member.
  36:/home/phong/Documents/thesis/stm32f4/stm-idf/components/stm32f4xx_hal_driver/stm32f4xx_hal_sram.c ****       
  37:/home/phong/Documents/thesis/stm32f4/stm-idf/components/stm32f4xx_hal_driver/stm32f4xx_hal_sram.c ****    (#) Initialize the SRAM Controller by calling the function HAL_SRAM_Init(). This function
  38:/home/phong/Documents/thesis/stm32f4/stm-idf/components/stm32f4xx_hal_driver/stm32f4xx_hal_sram.c ****        performs the following sequence:
  39:/home/phong/Documents/thesis/stm32f4/stm-idf/components/stm32f4xx_hal_driver/stm32f4xx_hal_sram.c ****           
  40:/home/phong/Documents/thesis/stm32f4/stm-idf/components/stm32f4xx_hal_driver/stm32f4xx_hal_sram.c ****        (##) MSP hardware layer configuration using the function HAL_SRAM_MspInit()
  41:/home/phong/Documents/thesis/stm32f4/stm-idf/components/stm32f4xx_hal_driver/stm32f4xx_hal_sram.c ****        (##) Control register configuration using the FMC NORSRAM interface function 
  42:/home/phong/Documents/thesis/stm32f4/stm-idf/components/stm32f4xx_hal_driver/stm32f4xx_hal_sram.c ****             FMC_NORSRAM_Init()
  43:/home/phong/Documents/thesis/stm32f4/stm-idf/components/stm32f4xx_hal_driver/stm32f4xx_hal_sram.c ****        (##) Timing register configuration using the FMC NORSRAM interface function 
  44:/home/phong/Documents/thesis/stm32f4/stm-idf/components/stm32f4xx_hal_driver/stm32f4xx_hal_sram.c ****             FMC_NORSRAM_Timing_Init()
  45:/home/phong/Documents/thesis/stm32f4/stm-idf/components/stm32f4xx_hal_driver/stm32f4xx_hal_sram.c ****        (##) Extended mode Timing register configuration using the FMC NORSRAM interface function 
  46:/home/phong/Documents/thesis/stm32f4/stm-idf/components/stm32f4xx_hal_driver/stm32f4xx_hal_sram.c ****             FMC_NORSRAM_Extended_Timing_Init()
  47:/home/phong/Documents/thesis/stm32f4/stm-idf/components/stm32f4xx_hal_driver/stm32f4xx_hal_sram.c ****        (##) Enable the SRAM device using the macro __FMC_NORSRAM_ENABLE()    
  48:/home/phong/Documents/thesis/stm32f4/stm-idf/components/stm32f4xx_hal_driver/stm32f4xx_hal_sram.c **** 
  49:/home/phong/Documents/thesis/stm32f4/stm-idf/components/stm32f4xx_hal_driver/stm32f4xx_hal_sram.c ****    (#) At this stage you can perform read/write accesses from/to the memory connected 
  50:/home/phong/Documents/thesis/stm32f4/stm-idf/components/stm32f4xx_hal_driver/stm32f4xx_hal_sram.c ****        to the NOR/SRAM Bank. You can perform either polling or DMA transfer using the
  51:/home/phong/Documents/thesis/stm32f4/stm-idf/components/stm32f4xx_hal_driver/stm32f4xx_hal_sram.c ****        following APIs:
  52:/home/phong/Documents/thesis/stm32f4/stm-idf/components/stm32f4xx_hal_driver/stm32f4xx_hal_sram.c ****        (++) HAL_SRAM_Read()/HAL_SRAM_Write() for polling read/write access
  53:/home/phong/Documents/thesis/stm32f4/stm-idf/components/stm32f4xx_hal_driver/stm32f4xx_hal_sram.c ****        (++) HAL_SRAM_Read_DMA()/HAL_SRAM_Write_DMA() for DMA read/write transfer
  54:/home/phong/Documents/thesis/stm32f4/stm-idf/components/stm32f4xx_hal_driver/stm32f4xx_hal_sram.c ****        
  55:/home/phong/Documents/thesis/stm32f4/stm-idf/components/stm32f4xx_hal_driver/stm32f4xx_hal_sram.c ****    (#) You can also control the SRAM device by calling the control APIs HAL_SRAM_WriteOperation_Ena
  56:/home/phong/Documents/thesis/stm32f4/stm-idf/components/stm32f4xx_hal_driver/stm32f4xx_hal_sram.c ****        HAL_SRAM_WriteOperation_Disable() to respectively enable/disable the SRAM write operation  
  57:/home/phong/Documents/thesis/stm32f4/stm-idf/components/stm32f4xx_hal_driver/stm32f4xx_hal_sram.c ****        
  58:/home/phong/Documents/thesis/stm32f4/stm-idf/components/stm32f4xx_hal_driver/stm32f4xx_hal_sram.c ****    (#) You can continuously monitor the SRAM device HAL state by calling the function
  59:/home/phong/Documents/thesis/stm32f4/stm-idf/components/stm32f4xx_hal_driver/stm32f4xx_hal_sram.c ****        HAL_SRAM_GetState()
  60:/home/phong/Documents/thesis/stm32f4/stm-idf/components/stm32f4xx_hal_driver/stm32f4xx_hal_sram.c **** 
  61:/home/phong/Documents/thesis/stm32f4/stm-idf/components/stm32f4xx_hal_driver/stm32f4xx_hal_sram.c ****        *** Callback registration ***
  62:/home/phong/Documents/thesis/stm32f4/stm-idf/components/stm32f4xx_hal_driver/stm32f4xx_hal_sram.c ****     =============================================
  63:/home/phong/Documents/thesis/stm32f4/stm-idf/components/stm32f4xx_hal_driver/stm32f4xx_hal_sram.c ****     [..]
  64:/home/phong/Documents/thesis/stm32f4/stm-idf/components/stm32f4xx_hal_driver/stm32f4xx_hal_sram.c ****       The compilation define  USE_HAL_SRAM_REGISTER_CALLBACKS when set to 1
  65:/home/phong/Documents/thesis/stm32f4/stm-idf/components/stm32f4xx_hal_driver/stm32f4xx_hal_sram.c ****       allows the user to configure dynamically the driver callbacks.
  66:/home/phong/Documents/thesis/stm32f4/stm-idf/components/stm32f4xx_hal_driver/stm32f4xx_hal_sram.c **** 
  67:/home/phong/Documents/thesis/stm32f4/stm-idf/components/stm32f4xx_hal_driver/stm32f4xx_hal_sram.c ****       Use Functions @ref HAL_SRAM_RegisterCallback() to register a user callback,
  68:/home/phong/Documents/thesis/stm32f4/stm-idf/components/stm32f4xx_hal_driver/stm32f4xx_hal_sram.c ****       it allows to register following callbacks:
  69:/home/phong/Documents/thesis/stm32f4/stm-idf/components/stm32f4xx_hal_driver/stm32f4xx_hal_sram.c ****         (+) MspInitCallback    : SRAM MspInit.
  70:/home/phong/Documents/thesis/stm32f4/stm-idf/components/stm32f4xx_hal_driver/stm32f4xx_hal_sram.c ****         (+) MspDeInitCallback  : SRAM MspDeInit.
  71:/home/phong/Documents/thesis/stm32f4/stm-idf/components/stm32f4xx_hal_driver/stm32f4xx_hal_sram.c ****       This function takes as parameters the HAL peripheral handle, the Callback ID
  72:/home/phong/Documents/thesis/stm32f4/stm-idf/components/stm32f4xx_hal_driver/stm32f4xx_hal_sram.c ****       and a pointer to the user callback function.
  73:/home/phong/Documents/thesis/stm32f4/stm-idf/components/stm32f4xx_hal_driver/stm32f4xx_hal_sram.c **** 
  74:/home/phong/Documents/thesis/stm32f4/stm-idf/components/stm32f4xx_hal_driver/stm32f4xx_hal_sram.c ****       Use function @ref HAL_SRAM_UnRegisterCallback() to reset a callback to the default
  75:/home/phong/Documents/thesis/stm32f4/stm-idf/components/stm32f4xx_hal_driver/stm32f4xx_hal_sram.c ****       weak (surcharged) function. It allows to reset following callbacks:
  76:/home/phong/Documents/thesis/stm32f4/stm-idf/components/stm32f4xx_hal_driver/stm32f4xx_hal_sram.c ****         (+) MspInitCallback    : SRAM MspInit.
  77:/home/phong/Documents/thesis/stm32f4/stm-idf/components/stm32f4xx_hal_driver/stm32f4xx_hal_sram.c ****         (+) MspDeInitCallback  : SRAM MspDeInit.
  78:/home/phong/Documents/thesis/stm32f4/stm-idf/components/stm32f4xx_hal_driver/stm32f4xx_hal_sram.c ****       This function) takes as parameters the HAL peripheral handle and the Callback ID.
  79:/home/phong/Documents/thesis/stm32f4/stm-idf/components/stm32f4xx_hal_driver/stm32f4xx_hal_sram.c **** 
  80:/home/phong/Documents/thesis/stm32f4/stm-idf/components/stm32f4xx_hal_driver/stm32f4xx_hal_sram.c ****       By default, after the @ref HAL_SRAM_Init and if the state is HAL_SRAM_STATE_RESET
  81:/home/phong/Documents/thesis/stm32f4/stm-idf/components/stm32f4xx_hal_driver/stm32f4xx_hal_sram.c ****       all callbacks are reset to the corresponding legacy weak (surcharged) functions.
  82:/home/phong/Documents/thesis/stm32f4/stm-idf/components/stm32f4xx_hal_driver/stm32f4xx_hal_sram.c ****       Exception done for MspInit and MspDeInit callbacks that are respectively
  83:/home/phong/Documents/thesis/stm32f4/stm-idf/components/stm32f4xx_hal_driver/stm32f4xx_hal_sram.c ****       reset to the legacy weak (surcharged) functions in the @ref HAL_SRAM_Init
  84:/home/phong/Documents/thesis/stm32f4/stm-idf/components/stm32f4xx_hal_driver/stm32f4xx_hal_sram.c ****       and @ref  HAL_SRAM_DeInit only when these callbacks are null (not registered beforehand).
  85:/home/phong/Documents/thesis/stm32f4/stm-idf/components/stm32f4xx_hal_driver/stm32f4xx_hal_sram.c ****       If not, MspInit or MspDeInit are not null, the @ref HAL_SRAM_Init and @ref HAL_SRAM_DeInit
  86:/home/phong/Documents/thesis/stm32f4/stm-idf/components/stm32f4xx_hal_driver/stm32f4xx_hal_sram.c ****       keep and use the user MspInit/MspDeInit callbacks (registered beforehand)
  87:/home/phong/Documents/thesis/stm32f4/stm-idf/components/stm32f4xx_hal_driver/stm32f4xx_hal_sram.c **** 
  88:/home/phong/Documents/thesis/stm32f4/stm-idf/components/stm32f4xx_hal_driver/stm32f4xx_hal_sram.c ****       Callbacks can be registered/unregistered in READY state only.
ARM GAS  /tmp/cc9XlVWc.s 			page 3


  89:/home/phong/Documents/thesis/stm32f4/stm-idf/components/stm32f4xx_hal_driver/stm32f4xx_hal_sram.c ****       Exception done for MspInit/MspDeInit callbacks that can be registered/unregistered
  90:/home/phong/Documents/thesis/stm32f4/stm-idf/components/stm32f4xx_hal_driver/stm32f4xx_hal_sram.c ****       in READY or RESET state, thus registered (user) MspInit/DeInit callbacks can be used
  91:/home/phong/Documents/thesis/stm32f4/stm-idf/components/stm32f4xx_hal_driver/stm32f4xx_hal_sram.c ****       during the Init/DeInit.
  92:/home/phong/Documents/thesis/stm32f4/stm-idf/components/stm32f4xx_hal_driver/stm32f4xx_hal_sram.c ****       In that case first register the MspInit/MspDeInit user callbacks
  93:/home/phong/Documents/thesis/stm32f4/stm-idf/components/stm32f4xx_hal_driver/stm32f4xx_hal_sram.c ****       using @ref HAL_SRAM_RegisterCallback before calling @ref HAL_SRAM_DeInit
  94:/home/phong/Documents/thesis/stm32f4/stm-idf/components/stm32f4xx_hal_driver/stm32f4xx_hal_sram.c ****       or @ref HAL_SRAM_Init function.
  95:/home/phong/Documents/thesis/stm32f4/stm-idf/components/stm32f4xx_hal_driver/stm32f4xx_hal_sram.c **** 
  96:/home/phong/Documents/thesis/stm32f4/stm-idf/components/stm32f4xx_hal_driver/stm32f4xx_hal_sram.c ****       When The compilation define USE_HAL_SRAM_REGISTER_CALLBACKS is set to 0 or
  97:/home/phong/Documents/thesis/stm32f4/stm-idf/components/stm32f4xx_hal_driver/stm32f4xx_hal_sram.c ****       not defined, the callback registering feature is not available
  98:/home/phong/Documents/thesis/stm32f4/stm-idf/components/stm32f4xx_hal_driver/stm32f4xx_hal_sram.c ****       and weak (surcharged) callbacks are used.
  99:/home/phong/Documents/thesis/stm32f4/stm-idf/components/stm32f4xx_hal_driver/stm32f4xx_hal_sram.c **** 
 100:/home/phong/Documents/thesis/stm32f4/stm-idf/components/stm32f4xx_hal_driver/stm32f4xx_hal_sram.c ****   @endverbatim
 101:/home/phong/Documents/thesis/stm32f4/stm-idf/components/stm32f4xx_hal_driver/stm32f4xx_hal_sram.c ****   ******************************************************************************
 102:/home/phong/Documents/thesis/stm32f4/stm-idf/components/stm32f4xx_hal_driver/stm32f4xx_hal_sram.c ****   * @attention
 103:/home/phong/Documents/thesis/stm32f4/stm-idf/components/stm32f4xx_hal_driver/stm32f4xx_hal_sram.c ****   *
 104:/home/phong/Documents/thesis/stm32f4/stm-idf/components/stm32f4xx_hal_driver/stm32f4xx_hal_sram.c ****   * <h2><center>&copy; Copyright (c) 2017 STMicroelectronics.
 105:/home/phong/Documents/thesis/stm32f4/stm-idf/components/stm32f4xx_hal_driver/stm32f4xx_hal_sram.c ****   * All rights reserved.</center></h2>
 106:/home/phong/Documents/thesis/stm32f4/stm-idf/components/stm32f4xx_hal_driver/stm32f4xx_hal_sram.c ****   *
 107:/home/phong/Documents/thesis/stm32f4/stm-idf/components/stm32f4xx_hal_driver/stm32f4xx_hal_sram.c ****   * This software component is licensed by ST under BSD 3-Clause license,
 108:/home/phong/Documents/thesis/stm32f4/stm-idf/components/stm32f4xx_hal_driver/stm32f4xx_hal_sram.c ****   * the "License"; You may not use this file except in compliance with the
 109:/home/phong/Documents/thesis/stm32f4/stm-idf/components/stm32f4xx_hal_driver/stm32f4xx_hal_sram.c ****   * License. You may obtain a copy of the License at:
 110:/home/phong/Documents/thesis/stm32f4/stm-idf/components/stm32f4xx_hal_driver/stm32f4xx_hal_sram.c ****   *                        opensource.org/licenses/BSD-3-Clause
 111:/home/phong/Documents/thesis/stm32f4/stm-idf/components/stm32f4xx_hal_driver/stm32f4xx_hal_sram.c ****   *
 112:/home/phong/Documents/thesis/stm32f4/stm-idf/components/stm32f4xx_hal_driver/stm32f4xx_hal_sram.c ****   ******************************************************************************
 113:/home/phong/Documents/thesis/stm32f4/stm-idf/components/stm32f4xx_hal_driver/stm32f4xx_hal_sram.c ****   */ 
 114:/home/phong/Documents/thesis/stm32f4/stm-idf/components/stm32f4xx_hal_driver/stm32f4xx_hal_sram.c **** 
 115:/home/phong/Documents/thesis/stm32f4/stm-idf/components/stm32f4xx_hal_driver/stm32f4xx_hal_sram.c **** /* Includes ------------------------------------------------------------------*/
 116:/home/phong/Documents/thesis/stm32f4/stm-idf/components/stm32f4xx_hal_driver/stm32f4xx_hal_sram.c **** #include "stm32f4xx_hal.h"
 117:/home/phong/Documents/thesis/stm32f4/stm-idf/components/stm32f4xx_hal_driver/stm32f4xx_hal_sram.c **** 
 118:/home/phong/Documents/thesis/stm32f4/stm-idf/components/stm32f4xx_hal_driver/stm32f4xx_hal_sram.c **** /** @addtogroup STM32F4xx_HAL_Driver
 119:/home/phong/Documents/thesis/stm32f4/stm-idf/components/stm32f4xx_hal_driver/stm32f4xx_hal_sram.c ****   * @{
 120:/home/phong/Documents/thesis/stm32f4/stm-idf/components/stm32f4xx_hal_driver/stm32f4xx_hal_sram.c ****   */
 121:/home/phong/Documents/thesis/stm32f4/stm-idf/components/stm32f4xx_hal_driver/stm32f4xx_hal_sram.c **** 
 122:/home/phong/Documents/thesis/stm32f4/stm-idf/components/stm32f4xx_hal_driver/stm32f4xx_hal_sram.c **** /** @defgroup SRAM SRAM
 123:/home/phong/Documents/thesis/stm32f4/stm-idf/components/stm32f4xx_hal_driver/stm32f4xx_hal_sram.c ****   * @brief SRAM driver modules
 124:/home/phong/Documents/thesis/stm32f4/stm-idf/components/stm32f4xx_hal_driver/stm32f4xx_hal_sram.c ****   * @{
 125:/home/phong/Documents/thesis/stm32f4/stm-idf/components/stm32f4xx_hal_driver/stm32f4xx_hal_sram.c ****   */
 126:/home/phong/Documents/thesis/stm32f4/stm-idf/components/stm32f4xx_hal_driver/stm32f4xx_hal_sram.c **** #ifdef HAL_SRAM_MODULE_ENABLED
 127:/home/phong/Documents/thesis/stm32f4/stm-idf/components/stm32f4xx_hal_driver/stm32f4xx_hal_sram.c **** 
 128:/home/phong/Documents/thesis/stm32f4/stm-idf/components/stm32f4xx_hal_driver/stm32f4xx_hal_sram.c **** #if defined(STM32F405xx) || defined(STM32F415xx) || defined(STM32F407xx) || defined(STM32F417xx) ||
 129:/home/phong/Documents/thesis/stm32f4/stm-idf/components/stm32f4xx_hal_driver/stm32f4xx_hal_sram.c ****     defined(STM32F427xx) || defined(STM32F437xx) || defined(STM32F429xx) || defined(STM32F439xx) ||
 130:/home/phong/Documents/thesis/stm32f4/stm-idf/components/stm32f4xx_hal_driver/stm32f4xx_hal_sram.c ****     defined(STM32F446xx) || defined(STM32F469xx) || defined(STM32F479xx) || defined(STM32F412Zx) ||
 131:/home/phong/Documents/thesis/stm32f4/stm-idf/components/stm32f4xx_hal_driver/stm32f4xx_hal_sram.c ****     defined(STM32F412Vx) || defined(STM32F412Rx) || defined(STM32F413xx) || defined(STM32F423xx)
 132:/home/phong/Documents/thesis/stm32f4/stm-idf/components/stm32f4xx_hal_driver/stm32f4xx_hal_sram.c **** 
 133:/home/phong/Documents/thesis/stm32f4/stm-idf/components/stm32f4xx_hal_driver/stm32f4xx_hal_sram.c **** /* Private typedef -----------------------------------------------------------*/
 134:/home/phong/Documents/thesis/stm32f4/stm-idf/components/stm32f4xx_hal_driver/stm32f4xx_hal_sram.c **** /* Private define ------------------------------------------------------------*/
 135:/home/phong/Documents/thesis/stm32f4/stm-idf/components/stm32f4xx_hal_driver/stm32f4xx_hal_sram.c **** /* Private macro -------------------------------------------------------------*/    
 136:/home/phong/Documents/thesis/stm32f4/stm-idf/components/stm32f4xx_hal_driver/stm32f4xx_hal_sram.c **** /* Private variables ---------------------------------------------------------*/
 137:/home/phong/Documents/thesis/stm32f4/stm-idf/components/stm32f4xx_hal_driver/stm32f4xx_hal_sram.c **** /* Private functions ---------------------------------------------------------*/
 138:/home/phong/Documents/thesis/stm32f4/stm-idf/components/stm32f4xx_hal_driver/stm32f4xx_hal_sram.c **** 
 139:/home/phong/Documents/thesis/stm32f4/stm-idf/components/stm32f4xx_hal_driver/stm32f4xx_hal_sram.c **** /* Exported functions --------------------------------------------------------*/
 140:/home/phong/Documents/thesis/stm32f4/stm-idf/components/stm32f4xx_hal_driver/stm32f4xx_hal_sram.c **** /** @defgroup SRAM_Exported_Functions SRAM Exported Functions
 141:/home/phong/Documents/thesis/stm32f4/stm-idf/components/stm32f4xx_hal_driver/stm32f4xx_hal_sram.c ****   * @{
 142:/home/phong/Documents/thesis/stm32f4/stm-idf/components/stm32f4xx_hal_driver/stm32f4xx_hal_sram.c ****   */
 143:/home/phong/Documents/thesis/stm32f4/stm-idf/components/stm32f4xx_hal_driver/stm32f4xx_hal_sram.c **** /** @defgroup SRAM_Exported_Functions_Group1 Initialization and de-initialization functions 
 144:/home/phong/Documents/thesis/stm32f4/stm-idf/components/stm32f4xx_hal_driver/stm32f4xx_hal_sram.c ****   * @brief    Initialization and Configuration functions 
 145:/home/phong/Documents/thesis/stm32f4/stm-idf/components/stm32f4xx_hal_driver/stm32f4xx_hal_sram.c ****   *
ARM GAS  /tmp/cc9XlVWc.s 			page 4


 146:/home/phong/Documents/thesis/stm32f4/stm-idf/components/stm32f4xx_hal_driver/stm32f4xx_hal_sram.c ****   @verbatim    
 147:/home/phong/Documents/thesis/stm32f4/stm-idf/components/stm32f4xx_hal_driver/stm32f4xx_hal_sram.c ****   ==============================================================================
 148:/home/phong/Documents/thesis/stm32f4/stm-idf/components/stm32f4xx_hal_driver/stm32f4xx_hal_sram.c ****            ##### SRAM Initialization and de_initialization functions #####
 149:/home/phong/Documents/thesis/stm32f4/stm-idf/components/stm32f4xx_hal_driver/stm32f4xx_hal_sram.c ****   ==============================================================================
 150:/home/phong/Documents/thesis/stm32f4/stm-idf/components/stm32f4xx_hal_driver/stm32f4xx_hal_sram.c ****     [..]  This section provides functions allowing to initialize/de-initialize
 151:/home/phong/Documents/thesis/stm32f4/stm-idf/components/stm32f4xx_hal_driver/stm32f4xx_hal_sram.c ****           the SRAM memory
 152:/home/phong/Documents/thesis/stm32f4/stm-idf/components/stm32f4xx_hal_driver/stm32f4xx_hal_sram.c ****   
 153:/home/phong/Documents/thesis/stm32f4/stm-idf/components/stm32f4xx_hal_driver/stm32f4xx_hal_sram.c **** @endverbatim
 154:/home/phong/Documents/thesis/stm32f4/stm-idf/components/stm32f4xx_hal_driver/stm32f4xx_hal_sram.c ****   * @{
 155:/home/phong/Documents/thesis/stm32f4/stm-idf/components/stm32f4xx_hal_driver/stm32f4xx_hal_sram.c ****   */
 156:/home/phong/Documents/thesis/stm32f4/stm-idf/components/stm32f4xx_hal_driver/stm32f4xx_hal_sram.c **** 
 157:/home/phong/Documents/thesis/stm32f4/stm-idf/components/stm32f4xx_hal_driver/stm32f4xx_hal_sram.c **** /**
 158:/home/phong/Documents/thesis/stm32f4/stm-idf/components/stm32f4xx_hal_driver/stm32f4xx_hal_sram.c ****   * @brief  Performs the SRAM device initialization sequence
 159:/home/phong/Documents/thesis/stm32f4/stm-idf/components/stm32f4xx_hal_driver/stm32f4xx_hal_sram.c ****   * @param  hsram pointer to a SRAM_HandleTypeDef structure that contains
 160:/home/phong/Documents/thesis/stm32f4/stm-idf/components/stm32f4xx_hal_driver/stm32f4xx_hal_sram.c ****   *                the configuration information for SRAM module.
 161:/home/phong/Documents/thesis/stm32f4/stm-idf/components/stm32f4xx_hal_driver/stm32f4xx_hal_sram.c ****   * @param  Timing Pointer to SRAM control timing structure 
 162:/home/phong/Documents/thesis/stm32f4/stm-idf/components/stm32f4xx_hal_driver/stm32f4xx_hal_sram.c ****   * @param  ExtTiming Pointer to SRAM extended mode timing structure  
 163:/home/phong/Documents/thesis/stm32f4/stm-idf/components/stm32f4xx_hal_driver/stm32f4xx_hal_sram.c ****   * @retval HAL status
 164:/home/phong/Documents/thesis/stm32f4/stm-idf/components/stm32f4xx_hal_driver/stm32f4xx_hal_sram.c ****   */
 165:/home/phong/Documents/thesis/stm32f4/stm-idf/components/stm32f4xx_hal_driver/stm32f4xx_hal_sram.c **** HAL_StatusTypeDef HAL_SRAM_Init(SRAM_HandleTypeDef *hsram, FMC_NORSRAM_TimingTypeDef *Timing, FMC_N
 166:/home/phong/Documents/thesis/stm32f4/stm-idf/components/stm32f4xx_hal_driver/stm32f4xx_hal_sram.c **** { 
 167:/home/phong/Documents/thesis/stm32f4/stm-idf/components/stm32f4xx_hal_driver/stm32f4xx_hal_sram.c ****   /* Check the SRAM handle parameter */
 168:/home/phong/Documents/thesis/stm32f4/stm-idf/components/stm32f4xx_hal_driver/stm32f4xx_hal_sram.c ****   if(hsram == NULL)
 169:/home/phong/Documents/thesis/stm32f4/stm-idf/components/stm32f4xx_hal_driver/stm32f4xx_hal_sram.c ****   {
 170:/home/phong/Documents/thesis/stm32f4/stm-idf/components/stm32f4xx_hal_driver/stm32f4xx_hal_sram.c ****      return HAL_ERROR;
 171:/home/phong/Documents/thesis/stm32f4/stm-idf/components/stm32f4xx_hal_driver/stm32f4xx_hal_sram.c ****   }
 172:/home/phong/Documents/thesis/stm32f4/stm-idf/components/stm32f4xx_hal_driver/stm32f4xx_hal_sram.c ****   
 173:/home/phong/Documents/thesis/stm32f4/stm-idf/components/stm32f4xx_hal_driver/stm32f4xx_hal_sram.c ****   if(hsram->State == HAL_SRAM_STATE_RESET)
 174:/home/phong/Documents/thesis/stm32f4/stm-idf/components/stm32f4xx_hal_driver/stm32f4xx_hal_sram.c ****   {  
 175:/home/phong/Documents/thesis/stm32f4/stm-idf/components/stm32f4xx_hal_driver/stm32f4xx_hal_sram.c ****     /* Allocate lock resource and initialize it */
 176:/home/phong/Documents/thesis/stm32f4/stm-idf/components/stm32f4xx_hal_driver/stm32f4xx_hal_sram.c ****     hsram->Lock = HAL_UNLOCKED;
 177:/home/phong/Documents/thesis/stm32f4/stm-idf/components/stm32f4xx_hal_driver/stm32f4xx_hal_sram.c **** 
 178:/home/phong/Documents/thesis/stm32f4/stm-idf/components/stm32f4xx_hal_driver/stm32f4xx_hal_sram.c **** #if (USE_HAL_SRAM_REGISTER_CALLBACKS == 1)
 179:/home/phong/Documents/thesis/stm32f4/stm-idf/components/stm32f4xx_hal_driver/stm32f4xx_hal_sram.c ****     if(hsram->MspInitCallback == NULL)
 180:/home/phong/Documents/thesis/stm32f4/stm-idf/components/stm32f4xx_hal_driver/stm32f4xx_hal_sram.c ****     {
 181:/home/phong/Documents/thesis/stm32f4/stm-idf/components/stm32f4xx_hal_driver/stm32f4xx_hal_sram.c ****       hsram->MspInitCallback = HAL_SRAM_MspInit;
 182:/home/phong/Documents/thesis/stm32f4/stm-idf/components/stm32f4xx_hal_driver/stm32f4xx_hal_sram.c ****     }
 183:/home/phong/Documents/thesis/stm32f4/stm-idf/components/stm32f4xx_hal_driver/stm32f4xx_hal_sram.c ****     hsram->DmaXferCpltCallback = HAL_SRAM_DMA_XferCpltCallback;
 184:/home/phong/Documents/thesis/stm32f4/stm-idf/components/stm32f4xx_hal_driver/stm32f4xx_hal_sram.c ****     hsram->DmaXferErrorCallback = HAL_SRAM_DMA_XferErrorCallback;
 185:/home/phong/Documents/thesis/stm32f4/stm-idf/components/stm32f4xx_hal_driver/stm32f4xx_hal_sram.c **** 
 186:/home/phong/Documents/thesis/stm32f4/stm-idf/components/stm32f4xx_hal_driver/stm32f4xx_hal_sram.c ****     /* Init the low level hardware */
 187:/home/phong/Documents/thesis/stm32f4/stm-idf/components/stm32f4xx_hal_driver/stm32f4xx_hal_sram.c ****     hsram->MspInitCallback(hsram);
 188:/home/phong/Documents/thesis/stm32f4/stm-idf/components/stm32f4xx_hal_driver/stm32f4xx_hal_sram.c **** #else
 189:/home/phong/Documents/thesis/stm32f4/stm-idf/components/stm32f4xx_hal_driver/stm32f4xx_hal_sram.c ****     /* Initialize the low level hardware (MSP) */
 190:/home/phong/Documents/thesis/stm32f4/stm-idf/components/stm32f4xx_hal_driver/stm32f4xx_hal_sram.c ****     HAL_SRAM_MspInit(hsram);
 191:/home/phong/Documents/thesis/stm32f4/stm-idf/components/stm32f4xx_hal_driver/stm32f4xx_hal_sram.c **** #endif
 192:/home/phong/Documents/thesis/stm32f4/stm-idf/components/stm32f4xx_hal_driver/stm32f4xx_hal_sram.c ****   }
 193:/home/phong/Documents/thesis/stm32f4/stm-idf/components/stm32f4xx_hal_driver/stm32f4xx_hal_sram.c ****   
 194:/home/phong/Documents/thesis/stm32f4/stm-idf/components/stm32f4xx_hal_driver/stm32f4xx_hal_sram.c ****   /* Initialize SRAM control Interface */
 195:/home/phong/Documents/thesis/stm32f4/stm-idf/components/stm32f4xx_hal_driver/stm32f4xx_hal_sram.c ****   FMC_NORSRAM_Init(hsram->Instance, &(hsram->Init));
 196:/home/phong/Documents/thesis/stm32f4/stm-idf/components/stm32f4xx_hal_driver/stm32f4xx_hal_sram.c **** 
 197:/home/phong/Documents/thesis/stm32f4/stm-idf/components/stm32f4xx_hal_driver/stm32f4xx_hal_sram.c ****   /* Initialize SRAM timing Interface */
 198:/home/phong/Documents/thesis/stm32f4/stm-idf/components/stm32f4xx_hal_driver/stm32f4xx_hal_sram.c ****   FMC_NORSRAM_Timing_Init(hsram->Instance, Timing, hsram->Init.NSBank); 
 199:/home/phong/Documents/thesis/stm32f4/stm-idf/components/stm32f4xx_hal_driver/stm32f4xx_hal_sram.c **** 
 200:/home/phong/Documents/thesis/stm32f4/stm-idf/components/stm32f4xx_hal_driver/stm32f4xx_hal_sram.c ****   /* Initialize SRAM extended mode timing Interface */
 201:/home/phong/Documents/thesis/stm32f4/stm-idf/components/stm32f4xx_hal_driver/stm32f4xx_hal_sram.c ****   FMC_NORSRAM_Extended_Timing_Init(hsram->Extended, ExtTiming, hsram->Init.NSBank,  hsram->Init.Ext
 202:/home/phong/Documents/thesis/stm32f4/stm-idf/components/stm32f4xx_hal_driver/stm32f4xx_hal_sram.c ****   
ARM GAS  /tmp/cc9XlVWc.s 			page 5


 203:/home/phong/Documents/thesis/stm32f4/stm-idf/components/stm32f4xx_hal_driver/stm32f4xx_hal_sram.c ****   /* Enable the NORSRAM device */
 204:/home/phong/Documents/thesis/stm32f4/stm-idf/components/stm32f4xx_hal_driver/stm32f4xx_hal_sram.c ****   __FMC_NORSRAM_ENABLE(hsram->Instance, hsram->Init.NSBank); 
 205:/home/phong/Documents/thesis/stm32f4/stm-idf/components/stm32f4xx_hal_driver/stm32f4xx_hal_sram.c ****   
 206:/home/phong/Documents/thesis/stm32f4/stm-idf/components/stm32f4xx_hal_driver/stm32f4xx_hal_sram.c ****   return HAL_OK;
 207:/home/phong/Documents/thesis/stm32f4/stm-idf/components/stm32f4xx_hal_driver/stm32f4xx_hal_sram.c **** }
 208:/home/phong/Documents/thesis/stm32f4/stm-idf/components/stm32f4xx_hal_driver/stm32f4xx_hal_sram.c **** 
 209:/home/phong/Documents/thesis/stm32f4/stm-idf/components/stm32f4xx_hal_driver/stm32f4xx_hal_sram.c **** /**
 210:/home/phong/Documents/thesis/stm32f4/stm-idf/components/stm32f4xx_hal_driver/stm32f4xx_hal_sram.c ****   * @brief  Performs the SRAM device De-initialization sequence.
 211:/home/phong/Documents/thesis/stm32f4/stm-idf/components/stm32f4xx_hal_driver/stm32f4xx_hal_sram.c ****   * @param  hsram pointer to a SRAM_HandleTypeDef structure that contains
 212:/home/phong/Documents/thesis/stm32f4/stm-idf/components/stm32f4xx_hal_driver/stm32f4xx_hal_sram.c ****   *                the configuration information for SRAM module.
 213:/home/phong/Documents/thesis/stm32f4/stm-idf/components/stm32f4xx_hal_driver/stm32f4xx_hal_sram.c ****   * @retval HAL status
 214:/home/phong/Documents/thesis/stm32f4/stm-idf/components/stm32f4xx_hal_driver/stm32f4xx_hal_sram.c ****   */
 215:/home/phong/Documents/thesis/stm32f4/stm-idf/components/stm32f4xx_hal_driver/stm32f4xx_hal_sram.c **** HAL_StatusTypeDef  HAL_SRAM_DeInit(SRAM_HandleTypeDef *hsram)
 216:/home/phong/Documents/thesis/stm32f4/stm-idf/components/stm32f4xx_hal_driver/stm32f4xx_hal_sram.c **** { 
 217:/home/phong/Documents/thesis/stm32f4/stm-idf/components/stm32f4xx_hal_driver/stm32f4xx_hal_sram.c **** #if (USE_HAL_SRAM_REGISTER_CALLBACKS == 1)
 218:/home/phong/Documents/thesis/stm32f4/stm-idf/components/stm32f4xx_hal_driver/stm32f4xx_hal_sram.c ****   if(hsram->MspDeInitCallback == NULL)
 219:/home/phong/Documents/thesis/stm32f4/stm-idf/components/stm32f4xx_hal_driver/stm32f4xx_hal_sram.c ****   {
 220:/home/phong/Documents/thesis/stm32f4/stm-idf/components/stm32f4xx_hal_driver/stm32f4xx_hal_sram.c ****     hsram->MspDeInitCallback = HAL_SRAM_MspDeInit;
 221:/home/phong/Documents/thesis/stm32f4/stm-idf/components/stm32f4xx_hal_driver/stm32f4xx_hal_sram.c ****   }
 222:/home/phong/Documents/thesis/stm32f4/stm-idf/components/stm32f4xx_hal_driver/stm32f4xx_hal_sram.c **** 
 223:/home/phong/Documents/thesis/stm32f4/stm-idf/components/stm32f4xx_hal_driver/stm32f4xx_hal_sram.c ****   /* DeInit the low level hardware */
 224:/home/phong/Documents/thesis/stm32f4/stm-idf/components/stm32f4xx_hal_driver/stm32f4xx_hal_sram.c ****   hsram->MspDeInitCallback(hsram);
 225:/home/phong/Documents/thesis/stm32f4/stm-idf/components/stm32f4xx_hal_driver/stm32f4xx_hal_sram.c **** #else
 226:/home/phong/Documents/thesis/stm32f4/stm-idf/components/stm32f4xx_hal_driver/stm32f4xx_hal_sram.c ****   /* De-Initialize the low level hardware (MSP) */
 227:/home/phong/Documents/thesis/stm32f4/stm-idf/components/stm32f4xx_hal_driver/stm32f4xx_hal_sram.c ****   HAL_SRAM_MspDeInit(hsram);
 228:/home/phong/Documents/thesis/stm32f4/stm-idf/components/stm32f4xx_hal_driver/stm32f4xx_hal_sram.c **** #endif
 229:/home/phong/Documents/thesis/stm32f4/stm-idf/components/stm32f4xx_hal_driver/stm32f4xx_hal_sram.c **** 
 230:/home/phong/Documents/thesis/stm32f4/stm-idf/components/stm32f4xx_hal_driver/stm32f4xx_hal_sram.c ****   /* Configure the SRAM registers with their reset values */
 231:/home/phong/Documents/thesis/stm32f4/stm-idf/components/stm32f4xx_hal_driver/stm32f4xx_hal_sram.c ****   FMC_NORSRAM_DeInit(hsram->Instance, hsram->Extended, hsram->Init.NSBank);
 232:/home/phong/Documents/thesis/stm32f4/stm-idf/components/stm32f4xx_hal_driver/stm32f4xx_hal_sram.c **** 
 233:/home/phong/Documents/thesis/stm32f4/stm-idf/components/stm32f4xx_hal_driver/stm32f4xx_hal_sram.c ****   hsram->State = HAL_SRAM_STATE_RESET;
 234:/home/phong/Documents/thesis/stm32f4/stm-idf/components/stm32f4xx_hal_driver/stm32f4xx_hal_sram.c ****   
 235:/home/phong/Documents/thesis/stm32f4/stm-idf/components/stm32f4xx_hal_driver/stm32f4xx_hal_sram.c ****   /* Release Lock */
 236:/home/phong/Documents/thesis/stm32f4/stm-idf/components/stm32f4xx_hal_driver/stm32f4xx_hal_sram.c ****   __HAL_UNLOCK(hsram);
 237:/home/phong/Documents/thesis/stm32f4/stm-idf/components/stm32f4xx_hal_driver/stm32f4xx_hal_sram.c **** 
 238:/home/phong/Documents/thesis/stm32f4/stm-idf/components/stm32f4xx_hal_driver/stm32f4xx_hal_sram.c ****   return HAL_OK;
 239:/home/phong/Documents/thesis/stm32f4/stm-idf/components/stm32f4xx_hal_driver/stm32f4xx_hal_sram.c **** }
 240:/home/phong/Documents/thesis/stm32f4/stm-idf/components/stm32f4xx_hal_driver/stm32f4xx_hal_sram.c **** 
 241:/home/phong/Documents/thesis/stm32f4/stm-idf/components/stm32f4xx_hal_driver/stm32f4xx_hal_sram.c **** /**
 242:/home/phong/Documents/thesis/stm32f4/stm-idf/components/stm32f4xx_hal_driver/stm32f4xx_hal_sram.c ****   * @brief  SRAM MSP Init.
 243:/home/phong/Documents/thesis/stm32f4/stm-idf/components/stm32f4xx_hal_driver/stm32f4xx_hal_sram.c ****   * @param  hsram pointer to a SRAM_HandleTypeDef structure that contains
 244:/home/phong/Documents/thesis/stm32f4/stm-idf/components/stm32f4xx_hal_driver/stm32f4xx_hal_sram.c ****   *                the configuration information for SRAM module.
 245:/home/phong/Documents/thesis/stm32f4/stm-idf/components/stm32f4xx_hal_driver/stm32f4xx_hal_sram.c ****   * @retval None
 246:/home/phong/Documents/thesis/stm32f4/stm-idf/components/stm32f4xx_hal_driver/stm32f4xx_hal_sram.c ****   */
 247:/home/phong/Documents/thesis/stm32f4/stm-idf/components/stm32f4xx_hal_driver/stm32f4xx_hal_sram.c **** __weak void HAL_SRAM_MspInit(SRAM_HandleTypeDef *hsram)
 248:/home/phong/Documents/thesis/stm32f4/stm-idf/components/stm32f4xx_hal_driver/stm32f4xx_hal_sram.c **** {
 249:/home/phong/Documents/thesis/stm32f4/stm-idf/components/stm32f4xx_hal_driver/stm32f4xx_hal_sram.c ****   /* Prevent unused argument(s) compilation warning */
 250:/home/phong/Documents/thesis/stm32f4/stm-idf/components/stm32f4xx_hal_driver/stm32f4xx_hal_sram.c ****   UNUSED(hsram);
 251:/home/phong/Documents/thesis/stm32f4/stm-idf/components/stm32f4xx_hal_driver/stm32f4xx_hal_sram.c ****     /* NOTE : This function Should not be modified, when the callback is needed,
 252:/home/phong/Documents/thesis/stm32f4/stm-idf/components/stm32f4xx_hal_driver/stm32f4xx_hal_sram.c ****             the HAL_SRAM_MspInit could be implemented in the user file
 253:/home/phong/Documents/thesis/stm32f4/stm-idf/components/stm32f4xx_hal_driver/stm32f4xx_hal_sram.c ****    */ 
 254:/home/phong/Documents/thesis/stm32f4/stm-idf/components/stm32f4xx_hal_driver/stm32f4xx_hal_sram.c **** }
 255:/home/phong/Documents/thesis/stm32f4/stm-idf/components/stm32f4xx_hal_driver/stm32f4xx_hal_sram.c **** 
 256:/home/phong/Documents/thesis/stm32f4/stm-idf/components/stm32f4xx_hal_driver/stm32f4xx_hal_sram.c **** /**
 257:/home/phong/Documents/thesis/stm32f4/stm-idf/components/stm32f4xx_hal_driver/stm32f4xx_hal_sram.c ****   * @brief  SRAM MSP DeInit.
 258:/home/phong/Documents/thesis/stm32f4/stm-idf/components/stm32f4xx_hal_driver/stm32f4xx_hal_sram.c ****   * @param  hsram pointer to a SRAM_HandleTypeDef structure that contains
 259:/home/phong/Documents/thesis/stm32f4/stm-idf/components/stm32f4xx_hal_driver/stm32f4xx_hal_sram.c ****   *                the configuration information for SRAM module.
ARM GAS  /tmp/cc9XlVWc.s 			page 6


 260:/home/phong/Documents/thesis/stm32f4/stm-idf/components/stm32f4xx_hal_driver/stm32f4xx_hal_sram.c ****   * @retval None
 261:/home/phong/Documents/thesis/stm32f4/stm-idf/components/stm32f4xx_hal_driver/stm32f4xx_hal_sram.c ****   */
 262:/home/phong/Documents/thesis/stm32f4/stm-idf/components/stm32f4xx_hal_driver/stm32f4xx_hal_sram.c **** __weak void HAL_SRAM_MspDeInit(SRAM_HandleTypeDef *hsram)
 263:/home/phong/Documents/thesis/stm32f4/stm-idf/components/stm32f4xx_hal_driver/stm32f4xx_hal_sram.c **** {
 264:/home/phong/Documents/thesis/stm32f4/stm-idf/components/stm32f4xx_hal_driver/stm32f4xx_hal_sram.c ****   /* Prevent unused argument(s) compilation warning */
 265:/home/phong/Documents/thesis/stm32f4/stm-idf/components/stm32f4xx_hal_driver/stm32f4xx_hal_sram.c ****   UNUSED(hsram);
 266:/home/phong/Documents/thesis/stm32f4/stm-idf/components/stm32f4xx_hal_driver/stm32f4xx_hal_sram.c ****   /* NOTE : This function Should not be modified, when the callback is needed,
 267:/home/phong/Documents/thesis/stm32f4/stm-idf/components/stm32f4xx_hal_driver/stm32f4xx_hal_sram.c ****             the HAL_SRAM_MspDeInit could be implemented in the user file
 268:/home/phong/Documents/thesis/stm32f4/stm-idf/components/stm32f4xx_hal_driver/stm32f4xx_hal_sram.c ****    */ 
 269:/home/phong/Documents/thesis/stm32f4/stm-idf/components/stm32f4xx_hal_driver/stm32f4xx_hal_sram.c **** }
 270:/home/phong/Documents/thesis/stm32f4/stm-idf/components/stm32f4xx_hal_driver/stm32f4xx_hal_sram.c **** 
 271:/home/phong/Documents/thesis/stm32f4/stm-idf/components/stm32f4xx_hal_driver/stm32f4xx_hal_sram.c **** /**
 272:/home/phong/Documents/thesis/stm32f4/stm-idf/components/stm32f4xx_hal_driver/stm32f4xx_hal_sram.c ****   * @brief  DMA transfer complete callback.
 273:/home/phong/Documents/thesis/stm32f4/stm-idf/components/stm32f4xx_hal_driver/stm32f4xx_hal_sram.c ****   * @param  hdma pointer to a SRAM_HandleTypeDef structure that contains
 274:/home/phong/Documents/thesis/stm32f4/stm-idf/components/stm32f4xx_hal_driver/stm32f4xx_hal_sram.c ****   *                the configuration information for SRAM module.
 275:/home/phong/Documents/thesis/stm32f4/stm-idf/components/stm32f4xx_hal_driver/stm32f4xx_hal_sram.c ****   * @retval None
 276:/home/phong/Documents/thesis/stm32f4/stm-idf/components/stm32f4xx_hal_driver/stm32f4xx_hal_sram.c ****   */
 277:/home/phong/Documents/thesis/stm32f4/stm-idf/components/stm32f4xx_hal_driver/stm32f4xx_hal_sram.c **** __weak void HAL_SRAM_DMA_XferCpltCallback(DMA_HandleTypeDef *hdma)
 278:/home/phong/Documents/thesis/stm32f4/stm-idf/components/stm32f4xx_hal_driver/stm32f4xx_hal_sram.c **** {
  28              		.loc 1 278 0
  29              		.cfi_startproc
  30              		@ args = 0, pretend = 0, frame = 0
  31              		@ frame_needed = 0, uses_anonymous_args = 0
  32              		@ link register save eliminated.
  33              	.LVL0:
  34 0000 7047     		bx	lr
  35              		.cfi_endproc
  36              	.LFE134:
  38              		.section	.text.HAL_SRAM_DMA_XferErrorCallback,"ax",%progbits
  39              		.align	1
  40              		.weak	HAL_SRAM_DMA_XferErrorCallback
  41              		.syntax unified
  42              		.thumb
  43              		.thumb_func
  44              		.fpu fpv4-sp-d16
  46              	HAL_SRAM_DMA_XferErrorCallback:
  47              	.LFB135:
 279:/home/phong/Documents/thesis/stm32f4/stm-idf/components/stm32f4xx_hal_driver/stm32f4xx_hal_sram.c ****   /* Prevent unused argument(s) compilation warning */
 280:/home/phong/Documents/thesis/stm32f4/stm-idf/components/stm32f4xx_hal_driver/stm32f4xx_hal_sram.c ****   UNUSED(hdma);
 281:/home/phong/Documents/thesis/stm32f4/stm-idf/components/stm32f4xx_hal_driver/stm32f4xx_hal_sram.c ****   /* NOTE : This function Should not be modified, when the callback is needed,
 282:/home/phong/Documents/thesis/stm32f4/stm-idf/components/stm32f4xx_hal_driver/stm32f4xx_hal_sram.c ****             the HAL_SRAM_DMA_XferCpltCallback could be implemented in the user file
 283:/home/phong/Documents/thesis/stm32f4/stm-idf/components/stm32f4xx_hal_driver/stm32f4xx_hal_sram.c ****    */ 
 284:/home/phong/Documents/thesis/stm32f4/stm-idf/components/stm32f4xx_hal_driver/stm32f4xx_hal_sram.c **** }
 285:/home/phong/Documents/thesis/stm32f4/stm-idf/components/stm32f4xx_hal_driver/stm32f4xx_hal_sram.c **** 
 286:/home/phong/Documents/thesis/stm32f4/stm-idf/components/stm32f4xx_hal_driver/stm32f4xx_hal_sram.c **** /**
 287:/home/phong/Documents/thesis/stm32f4/stm-idf/components/stm32f4xx_hal_driver/stm32f4xx_hal_sram.c ****   * @brief  DMA transfer complete error callback.
 288:/home/phong/Documents/thesis/stm32f4/stm-idf/components/stm32f4xx_hal_driver/stm32f4xx_hal_sram.c ****   * @param  hdma pointer to a SRAM_HandleTypeDef structure that contains
 289:/home/phong/Documents/thesis/stm32f4/stm-idf/components/stm32f4xx_hal_driver/stm32f4xx_hal_sram.c ****   *                the configuration information for SRAM module.
 290:/home/phong/Documents/thesis/stm32f4/stm-idf/components/stm32f4xx_hal_driver/stm32f4xx_hal_sram.c ****   * @retval None
 291:/home/phong/Documents/thesis/stm32f4/stm-idf/components/stm32f4xx_hal_driver/stm32f4xx_hal_sram.c ****   */
 292:/home/phong/Documents/thesis/stm32f4/stm-idf/components/stm32f4xx_hal_driver/stm32f4xx_hal_sram.c **** __weak void HAL_SRAM_DMA_XferErrorCallback(DMA_HandleTypeDef *hdma)
 293:/home/phong/Documents/thesis/stm32f4/stm-idf/components/stm32f4xx_hal_driver/stm32f4xx_hal_sram.c **** {
  48              		.loc 1 293 0
  49              		.cfi_startproc
  50              		@ args = 0, pretend = 0, frame = 0
  51              		@ frame_needed = 0, uses_anonymous_args = 0
  52              		@ link register save eliminated.
ARM GAS  /tmp/cc9XlVWc.s 			page 7


  53              	.LVL1:
  54 0000 7047     		bx	lr
  55              		.cfi_endproc
  56              	.LFE135:
  58              		.section	.text.HAL_SRAM_MspInit,"ax",%progbits
  59              		.align	1
  60              		.weak	HAL_SRAM_MspInit
  61              		.syntax unified
  62              		.thumb
  63              		.thumb_func
  64              		.fpu fpv4-sp-d16
  66              	HAL_SRAM_MspInit:
  67              	.LFB132:
 248:/home/phong/Documents/thesis/stm32f4/stm-idf/components/stm32f4xx_hal_driver/stm32f4xx_hal_sram.c ****   /* Prevent unused argument(s) compilation warning */
  68              		.loc 1 248 0
  69              		.cfi_startproc
  70              		@ args = 0, pretend = 0, frame = 0
  71              		@ frame_needed = 0, uses_anonymous_args = 0
  72              		@ link register save eliminated.
  73              	.LVL2:
  74 0000 7047     		bx	lr
  75              		.cfi_endproc
  76              	.LFE132:
  78              		.section	.text.HAL_SRAM_Init,"ax",%progbits
  79              		.align	1
  80              		.global	HAL_SRAM_Init
  81              		.syntax unified
  82              		.thumb
  83              		.thumb_func
  84              		.fpu fpv4-sp-d16
  86              	HAL_SRAM_Init:
  87              	.LFB130:
 166:/home/phong/Documents/thesis/stm32f4/stm-idf/components/stm32f4xx_hal_driver/stm32f4xx_hal_sram.c ****   /* Check the SRAM handle parameter */
  88              		.loc 1 166 0
  89              		.cfi_startproc
  90              		@ args = 0, pretend = 0, frame = 0
  91              		@ frame_needed = 0, uses_anonymous_args = 0
  92              	.LVL3:
 168:/home/phong/Documents/thesis/stm32f4/stm-idf/components/stm32f4xx_hal_driver/stm32f4xx_hal_sram.c ****   {
  93              		.loc 1 168 0
  94 0000 28B3     		cbz	r0, .L7
 166:/home/phong/Documents/thesis/stm32f4/stm-idf/components/stm32f4xx_hal_driver/stm32f4xx_hal_sram.c ****   /* Check the SRAM handle parameter */
  95              		.loc 1 166 0
  96 0002 70B5     		push	{r4, r5, r6, lr}
  97              	.LCFI0:
  98              		.cfi_def_cfa_offset 16
  99              		.cfi_offset 4, -16
 100              		.cfi_offset 5, -12
 101              		.cfi_offset 6, -8
 102              		.cfi_offset 14, -4
 103 0004 0446     		mov	r4, r0
 104 0006 1546     		mov	r5, r2
 105 0008 0E46     		mov	r6, r1
 173:/home/phong/Documents/thesis/stm32f4/stm-idf/components/stm32f4xx_hal_driver/stm32f4xx_hal_sram.c ****   {  
 106              		.loc 1 173 0
 107 000a 90F84930 		ldrb	r3, [r0, #73]	@ zero_extendqisi2
 108 000e CBB1     		cbz	r3, .L12
ARM GAS  /tmp/cc9XlVWc.s 			page 8


 109              	.LVL4:
 110              	.L6:
 195:/home/phong/Documents/thesis/stm32f4/stm-idf/components/stm32f4xx_hal_driver/stm32f4xx_hal_sram.c **** 
 111              		.loc 1 195 0
 112 0010 04F10801 		add	r1, r4, #8
 113 0014 2068     		ldr	r0, [r4]
 114 0016 FFF7FEFF 		bl	FSMC_NORSRAM_Init
 115              	.LVL5:
 198:/home/phong/Documents/thesis/stm32f4/stm-idf/components/stm32f4xx_hal_driver/stm32f4xx_hal_sram.c **** 
 116              		.loc 1 198 0
 117 001a A268     		ldr	r2, [r4, #8]
 118 001c 3146     		mov	r1, r6
 119 001e 2068     		ldr	r0, [r4]
 120 0020 FFF7FEFF 		bl	FSMC_NORSRAM_Timing_Init
 121              	.LVL6:
 201:/home/phong/Documents/thesis/stm32f4/stm-idf/components/stm32f4xx_hal_driver/stm32f4xx_hal_sram.c ****   
 122              		.loc 1 201 0
 123 0024 236B     		ldr	r3, [r4, #48]
 124 0026 A268     		ldr	r2, [r4, #8]
 125 0028 2946     		mov	r1, r5
 126 002a 6068     		ldr	r0, [r4, #4]
 127 002c FFF7FEFF 		bl	FSMC_NORSRAM_Extended_Timing_Init
 128              	.LVL7:
 204:/home/phong/Documents/thesis/stm32f4/stm-idf/components/stm32f4xx_hal_driver/stm32f4xx_hal_sram.c ****   
 129              		.loc 1 204 0
 130 0030 2268     		ldr	r2, [r4]
 131 0032 A168     		ldr	r1, [r4, #8]
 132 0034 52F82130 		ldr	r3, [r2, r1, lsl #2]
 133 0038 43F00103 		orr	r3, r3, #1
 134 003c 42F82130 		str	r3, [r2, r1, lsl #2]
 206:/home/phong/Documents/thesis/stm32f4/stm-idf/components/stm32f4xx_hal_driver/stm32f4xx_hal_sram.c **** }
 135              		.loc 1 206 0
 136 0040 0020     		movs	r0, #0
 137 0042 70BD     		pop	{r4, r5, r6, pc}
 138              	.LVL8:
 139              	.L12:
 176:/home/phong/Documents/thesis/stm32f4/stm-idf/components/stm32f4xx_hal_driver/stm32f4xx_hal_sram.c **** 
 140              		.loc 1 176 0
 141 0044 80F84830 		strb	r3, [r0, #72]
 190:/home/phong/Documents/thesis/stm32f4/stm-idf/components/stm32f4xx_hal_driver/stm32f4xx_hal_sram.c **** #endif
 142              		.loc 1 190 0
 143 0048 FFF7FEFF 		bl	HAL_SRAM_MspInit
 144              	.LVL9:
 145 004c E0E7     		b	.L6
 146              	.LVL10:
 147              	.L7:
 148              	.LCFI1:
 149              		.cfi_def_cfa_offset 0
 150              		.cfi_restore 4
 151              		.cfi_restore 5
 152              		.cfi_restore 6
 153              		.cfi_restore 14
 170:/home/phong/Documents/thesis/stm32f4/stm-idf/components/stm32f4xx_hal_driver/stm32f4xx_hal_sram.c ****   }
 154              		.loc 1 170 0
 155 004e 0120     		movs	r0, #1
 156              	.LVL11:
 157 0050 7047     		bx	lr
ARM GAS  /tmp/cc9XlVWc.s 			page 9


 158              		.cfi_endproc
 159              	.LFE130:
 161              		.section	.text.HAL_SRAM_MspDeInit,"ax",%progbits
 162              		.align	1
 163              		.weak	HAL_SRAM_MspDeInit
 164              		.syntax unified
 165              		.thumb
 166              		.thumb_func
 167              		.fpu fpv4-sp-d16
 169              	HAL_SRAM_MspDeInit:
 170              	.LFB133:
 263:/home/phong/Documents/thesis/stm32f4/stm-idf/components/stm32f4xx_hal_driver/stm32f4xx_hal_sram.c ****   /* Prevent unused argument(s) compilation warning */
 171              		.loc 1 263 0
 172              		.cfi_startproc
 173              		@ args = 0, pretend = 0, frame = 0
 174              		@ frame_needed = 0, uses_anonymous_args = 0
 175              		@ link register save eliminated.
 176              	.LVL12:
 177 0000 7047     		bx	lr
 178              		.cfi_endproc
 179              	.LFE133:
 181              		.section	.text.HAL_SRAM_DeInit,"ax",%progbits
 182              		.align	1
 183              		.global	HAL_SRAM_DeInit
 184              		.syntax unified
 185              		.thumb
 186              		.thumb_func
 187              		.fpu fpv4-sp-d16
 189              	HAL_SRAM_DeInit:
 190              	.LFB131:
 216:/home/phong/Documents/thesis/stm32f4/stm-idf/components/stm32f4xx_hal_driver/stm32f4xx_hal_sram.c **** #if (USE_HAL_SRAM_REGISTER_CALLBACKS == 1)
 191              		.loc 1 216 0
 192              		.cfi_startproc
 193              		@ args = 0, pretend = 0, frame = 0
 194              		@ frame_needed = 0, uses_anonymous_args = 0
 195              	.LVL13:
 216:/home/phong/Documents/thesis/stm32f4/stm-idf/components/stm32f4xx_hal_driver/stm32f4xx_hal_sram.c **** #if (USE_HAL_SRAM_REGISTER_CALLBACKS == 1)
 196              		.loc 1 216 0
 197 0000 10B5     		push	{r4, lr}
 198              	.LCFI2:
 199              		.cfi_def_cfa_offset 8
 200              		.cfi_offset 4, -8
 201              		.cfi_offset 14, -4
 202 0002 0446     		mov	r4, r0
 227:/home/phong/Documents/thesis/stm32f4/stm-idf/components/stm32f4xx_hal_driver/stm32f4xx_hal_sram.c **** #endif
 203              		.loc 1 227 0
 204 0004 FFF7FEFF 		bl	HAL_SRAM_MspDeInit
 205              	.LVL14:
 231:/home/phong/Documents/thesis/stm32f4/stm-idf/components/stm32f4xx_hal_driver/stm32f4xx_hal_sram.c **** 
 206              		.loc 1 231 0
 207 0008 A268     		ldr	r2, [r4, #8]
 208 000a 6168     		ldr	r1, [r4, #4]
 209 000c 2068     		ldr	r0, [r4]
 210 000e FFF7FEFF 		bl	FSMC_NORSRAM_DeInit
 211              	.LVL15:
 233:/home/phong/Documents/thesis/stm32f4/stm-idf/components/stm32f4xx_hal_driver/stm32f4xx_hal_sram.c ****   
 212              		.loc 1 233 0
ARM GAS  /tmp/cc9XlVWc.s 			page 10


 213 0012 0020     		movs	r0, #0
 214 0014 84F84900 		strb	r0, [r4, #73]
 236:/home/phong/Documents/thesis/stm32f4/stm-idf/components/stm32f4xx_hal_driver/stm32f4xx_hal_sram.c **** 
 215              		.loc 1 236 0
 216 0018 84F84800 		strb	r0, [r4, #72]
 239:/home/phong/Documents/thesis/stm32f4/stm-idf/components/stm32f4xx_hal_driver/stm32f4xx_hal_sram.c **** 
 217              		.loc 1 239 0
 218 001c 10BD     		pop	{r4, pc}
 219              		.cfi_endproc
 220              	.LFE131:
 222              		.section	.text.HAL_SRAM_Read_8b,"ax",%progbits
 223              		.align	1
 224              		.global	HAL_SRAM_Read_8b
 225              		.syntax unified
 226              		.thumb
 227              		.thumb_func
 228              		.fpu fpv4-sp-d16
 230              	HAL_SRAM_Read_8b:
 231              	.LFB136:
 294:/home/phong/Documents/thesis/stm32f4/stm-idf/components/stm32f4xx_hal_driver/stm32f4xx_hal_sram.c ****   /* Prevent unused argument(s) compilation warning */
 295:/home/phong/Documents/thesis/stm32f4/stm-idf/components/stm32f4xx_hal_driver/stm32f4xx_hal_sram.c ****   UNUSED(hdma);
 296:/home/phong/Documents/thesis/stm32f4/stm-idf/components/stm32f4xx_hal_driver/stm32f4xx_hal_sram.c ****     /* NOTE : This function Should not be modified, when the callback is needed,
 297:/home/phong/Documents/thesis/stm32f4/stm-idf/components/stm32f4xx_hal_driver/stm32f4xx_hal_sram.c ****             the HAL_SRAM_DMA_XferErrorCallback could be implemented in the user file
 298:/home/phong/Documents/thesis/stm32f4/stm-idf/components/stm32f4xx_hal_driver/stm32f4xx_hal_sram.c ****    */ 
 299:/home/phong/Documents/thesis/stm32f4/stm-idf/components/stm32f4xx_hal_driver/stm32f4xx_hal_sram.c **** }
 300:/home/phong/Documents/thesis/stm32f4/stm-idf/components/stm32f4xx_hal_driver/stm32f4xx_hal_sram.c **** 
 301:/home/phong/Documents/thesis/stm32f4/stm-idf/components/stm32f4xx_hal_driver/stm32f4xx_hal_sram.c **** /**
 302:/home/phong/Documents/thesis/stm32f4/stm-idf/components/stm32f4xx_hal_driver/stm32f4xx_hal_sram.c ****   * @}
 303:/home/phong/Documents/thesis/stm32f4/stm-idf/components/stm32f4xx_hal_driver/stm32f4xx_hal_sram.c ****   */
 304:/home/phong/Documents/thesis/stm32f4/stm-idf/components/stm32f4xx_hal_driver/stm32f4xx_hal_sram.c **** 
 305:/home/phong/Documents/thesis/stm32f4/stm-idf/components/stm32f4xx_hal_driver/stm32f4xx_hal_sram.c **** /** @defgroup SRAM_Exported_Functions_Group2 Input and Output functions 
 306:/home/phong/Documents/thesis/stm32f4/stm-idf/components/stm32f4xx_hal_driver/stm32f4xx_hal_sram.c ****   * @brief    Input Output and memory control functions 
 307:/home/phong/Documents/thesis/stm32f4/stm-idf/components/stm32f4xx_hal_driver/stm32f4xx_hal_sram.c ****   *
 308:/home/phong/Documents/thesis/stm32f4/stm-idf/components/stm32f4xx_hal_driver/stm32f4xx_hal_sram.c ****   @verbatim    
 309:/home/phong/Documents/thesis/stm32f4/stm-idf/components/stm32f4xx_hal_driver/stm32f4xx_hal_sram.c ****   ==============================================================================
 310:/home/phong/Documents/thesis/stm32f4/stm-idf/components/stm32f4xx_hal_driver/stm32f4xx_hal_sram.c ****                   ##### SRAM Input and Output functions #####
 311:/home/phong/Documents/thesis/stm32f4/stm-idf/components/stm32f4xx_hal_driver/stm32f4xx_hal_sram.c ****   ==============================================================================
 312:/home/phong/Documents/thesis/stm32f4/stm-idf/components/stm32f4xx_hal_driver/stm32f4xx_hal_sram.c ****   [..]  
 313:/home/phong/Documents/thesis/stm32f4/stm-idf/components/stm32f4xx_hal_driver/stm32f4xx_hal_sram.c ****     This section provides functions allowing to use and control the SRAM memory
 314:/home/phong/Documents/thesis/stm32f4/stm-idf/components/stm32f4xx_hal_driver/stm32f4xx_hal_sram.c ****   
 315:/home/phong/Documents/thesis/stm32f4/stm-idf/components/stm32f4xx_hal_driver/stm32f4xx_hal_sram.c **** @endverbatim
 316:/home/phong/Documents/thesis/stm32f4/stm-idf/components/stm32f4xx_hal_driver/stm32f4xx_hal_sram.c ****   * @{
 317:/home/phong/Documents/thesis/stm32f4/stm-idf/components/stm32f4xx_hal_driver/stm32f4xx_hal_sram.c ****   */
 318:/home/phong/Documents/thesis/stm32f4/stm-idf/components/stm32f4xx_hal_driver/stm32f4xx_hal_sram.c **** 
 319:/home/phong/Documents/thesis/stm32f4/stm-idf/components/stm32f4xx_hal_driver/stm32f4xx_hal_sram.c **** /**
 320:/home/phong/Documents/thesis/stm32f4/stm-idf/components/stm32f4xx_hal_driver/stm32f4xx_hal_sram.c ****   * @brief  Reads 8-bit buffer from SRAM memory. 
 321:/home/phong/Documents/thesis/stm32f4/stm-idf/components/stm32f4xx_hal_driver/stm32f4xx_hal_sram.c ****   * @param  hsram pointer to a SRAM_HandleTypeDef structure that contains
 322:/home/phong/Documents/thesis/stm32f4/stm-idf/components/stm32f4xx_hal_driver/stm32f4xx_hal_sram.c ****   *                the configuration information for SRAM module.
 323:/home/phong/Documents/thesis/stm32f4/stm-idf/components/stm32f4xx_hal_driver/stm32f4xx_hal_sram.c ****   * @param  pAddress Pointer to read start address
 324:/home/phong/Documents/thesis/stm32f4/stm-idf/components/stm32f4xx_hal_driver/stm32f4xx_hal_sram.c ****   * @param  pDstBuffer Pointer to destination buffer  
 325:/home/phong/Documents/thesis/stm32f4/stm-idf/components/stm32f4xx_hal_driver/stm32f4xx_hal_sram.c ****   * @param  BufferSize Size of the buffer to read from memory
 326:/home/phong/Documents/thesis/stm32f4/stm-idf/components/stm32f4xx_hal_driver/stm32f4xx_hal_sram.c ****   * @retval HAL status
 327:/home/phong/Documents/thesis/stm32f4/stm-idf/components/stm32f4xx_hal_driver/stm32f4xx_hal_sram.c ****   */
 328:/home/phong/Documents/thesis/stm32f4/stm-idf/components/stm32f4xx_hal_driver/stm32f4xx_hal_sram.c **** HAL_StatusTypeDef HAL_SRAM_Read_8b(SRAM_HandleTypeDef *hsram, uint32_t *pAddress, uint8_t *pDstBuff
 329:/home/phong/Documents/thesis/stm32f4/stm-idf/components/stm32f4xx_hal_driver/stm32f4xx_hal_sram.c **** {
 232              		.loc 1 329 0
 233              		.cfi_startproc
ARM GAS  /tmp/cc9XlVWc.s 			page 11


 234              		@ args = 0, pretend = 0, frame = 0
 235              		@ frame_needed = 0, uses_anonymous_args = 0
 236              		@ link register save eliminated.
 237              	.LVL16:
 238 0000 10B4     		push	{r4}
 239              	.LCFI3:
 240              		.cfi_def_cfa_offset 4
 241              		.cfi_offset 4, -4
 242              	.LVL17:
 330:/home/phong/Documents/thesis/stm32f4/stm-idf/components/stm32f4xx_hal_driver/stm32f4xx_hal_sram.c ****   __IO uint8_t * pSramAddress = (uint8_t *)pAddress;
 331:/home/phong/Documents/thesis/stm32f4/stm-idf/components/stm32f4xx_hal_driver/stm32f4xx_hal_sram.c ****   
 332:/home/phong/Documents/thesis/stm32f4/stm-idf/components/stm32f4xx_hal_driver/stm32f4xx_hal_sram.c ****   /* Process Locked */
 333:/home/phong/Documents/thesis/stm32f4/stm-idf/components/stm32f4xx_hal_driver/stm32f4xx_hal_sram.c ****   __HAL_LOCK(hsram);
 243              		.loc 1 333 0
 244 0002 90F84840 		ldrb	r4, [r0, #72]	@ zero_extendqisi2
 245 0006 012C     		cmp	r4, #1
 246 0008 17D0     		beq	.L20
 247              		.loc 1 333 0 is_stmt 0 discriminator 2
 248 000a 0124     		movs	r4, #1
 249 000c 80F84840 		strb	r4, [r0, #72]
 334:/home/phong/Documents/thesis/stm32f4/stm-idf/components/stm32f4xx_hal_driver/stm32f4xx_hal_sram.c ****   
 335:/home/phong/Documents/thesis/stm32f4/stm-idf/components/stm32f4xx_hal_driver/stm32f4xx_hal_sram.c ****   /* Update the SRAM controller state */
 336:/home/phong/Documents/thesis/stm32f4/stm-idf/components/stm32f4xx_hal_driver/stm32f4xx_hal_sram.c ****   hsram->State = HAL_SRAM_STATE_BUSY;  
 250              		.loc 1 336 0 is_stmt 1 discriminator 2
 251 0010 0224     		movs	r4, #2
 252 0012 80F84940 		strb	r4, [r0, #73]
 337:/home/phong/Documents/thesis/stm32f4/stm-idf/components/stm32f4xx_hal_driver/stm32f4xx_hal_sram.c ****   
 338:/home/phong/Documents/thesis/stm32f4/stm-idf/components/stm32f4xx_hal_driver/stm32f4xx_hal_sram.c ****   /* Read data from memory */
 339:/home/phong/Documents/thesis/stm32f4/stm-idf/components/stm32f4xx_hal_driver/stm32f4xx_hal_sram.c ****   for(; BufferSize != 0U; BufferSize--)
 253              		.loc 1 339 0 discriminator 2
 254 0016 04E0     		b	.L18
 255              	.LVL18:
 256              	.L19:
 340:/home/phong/Documents/thesis/stm32f4/stm-idf/components/stm32f4xx_hal_driver/stm32f4xx_hal_sram.c ****   {
 341:/home/phong/Documents/thesis/stm32f4/stm-idf/components/stm32f4xx_hal_driver/stm32f4xx_hal_sram.c ****     *pDstBuffer = *(__IO uint8_t *)pSramAddress;
 257              		.loc 1 341 0 discriminator 2
 258 0018 11F8014B 		ldrb	r4, [r1], #1	@ zero_extendqisi2
 259              	.LVL19:
 260 001c 02F8014B 		strb	r4, [r2], #1
 261              	.LVL20:
 339:/home/phong/Documents/thesis/stm32f4/stm-idf/components/stm32f4xx_hal_driver/stm32f4xx_hal_sram.c ****   {
 262              		.loc 1 339 0 discriminator 2
 263 0020 013B     		subs	r3, r3, #1
 264              	.LVL21:
 265              	.L18:
 339:/home/phong/Documents/thesis/stm32f4/stm-idf/components/stm32f4xx_hal_driver/stm32f4xx_hal_sram.c ****   {
 266              		.loc 1 339 0 is_stmt 0 discriminator 1
 267 0022 002B     		cmp	r3, #0
 268 0024 F8D1     		bne	.L19
 342:/home/phong/Documents/thesis/stm32f4/stm-idf/components/stm32f4xx_hal_driver/stm32f4xx_hal_sram.c ****     pDstBuffer++;
 343:/home/phong/Documents/thesis/stm32f4/stm-idf/components/stm32f4xx_hal_driver/stm32f4xx_hal_sram.c ****     pSramAddress++;
 344:/home/phong/Documents/thesis/stm32f4/stm-idf/components/stm32f4xx_hal_driver/stm32f4xx_hal_sram.c ****   }
 345:/home/phong/Documents/thesis/stm32f4/stm-idf/components/stm32f4xx_hal_driver/stm32f4xx_hal_sram.c ****   
 346:/home/phong/Documents/thesis/stm32f4/stm-idf/components/stm32f4xx_hal_driver/stm32f4xx_hal_sram.c ****   /* Update the SRAM controller state */
 347:/home/phong/Documents/thesis/stm32f4/stm-idf/components/stm32f4xx_hal_driver/stm32f4xx_hal_sram.c ****   hsram->State = HAL_SRAM_STATE_READY;    
 269              		.loc 1 347 0 is_stmt 1
 270 0026 0123     		movs	r3, #1
ARM GAS  /tmp/cc9XlVWc.s 			page 12


 271              	.LVL22:
 272 0028 80F84930 		strb	r3, [r0, #73]
 348:/home/phong/Documents/thesis/stm32f4/stm-idf/components/stm32f4xx_hal_driver/stm32f4xx_hal_sram.c **** 
 349:/home/phong/Documents/thesis/stm32f4/stm-idf/components/stm32f4xx_hal_driver/stm32f4xx_hal_sram.c ****   /* Process unlocked */
 350:/home/phong/Documents/thesis/stm32f4/stm-idf/components/stm32f4xx_hal_driver/stm32f4xx_hal_sram.c ****   __HAL_UNLOCK(hsram); 
 273              		.loc 1 350 0
 274 002c 0023     		movs	r3, #0
 275 002e 80F84830 		strb	r3, [r0, #72]
 351:/home/phong/Documents/thesis/stm32f4/stm-idf/components/stm32f4xx_hal_driver/stm32f4xx_hal_sram.c ****     
 352:/home/phong/Documents/thesis/stm32f4/stm-idf/components/stm32f4xx_hal_driver/stm32f4xx_hal_sram.c ****   return HAL_OK;   
 276              		.loc 1 352 0
 277 0032 1846     		mov	r0, r3
 278              	.LVL23:
 279              	.L17:
 353:/home/phong/Documents/thesis/stm32f4/stm-idf/components/stm32f4xx_hal_driver/stm32f4xx_hal_sram.c **** }
 280              		.loc 1 353 0
 281 0034 5DF8044B 		ldr	r4, [sp], #4
 282              	.LCFI4:
 283              		.cfi_remember_state
 284              		.cfi_restore 4
 285              		.cfi_def_cfa_offset 0
 286 0038 7047     		bx	lr
 287              	.LVL24:
 288              	.L20:
 289              	.LCFI5:
 290              		.cfi_restore_state
 333:/home/phong/Documents/thesis/stm32f4/stm-idf/components/stm32f4xx_hal_driver/stm32f4xx_hal_sram.c ****   
 291              		.loc 1 333 0
 292 003a 0220     		movs	r0, #2
 293              	.LVL25:
 294 003c FAE7     		b	.L17
 295              		.cfi_endproc
 296              	.LFE136:
 298              		.section	.text.HAL_SRAM_Write_8b,"ax",%progbits
 299              		.align	1
 300              		.global	HAL_SRAM_Write_8b
 301              		.syntax unified
 302              		.thumb
 303              		.thumb_func
 304              		.fpu fpv4-sp-d16
 306              	HAL_SRAM_Write_8b:
 307              	.LFB137:
 354:/home/phong/Documents/thesis/stm32f4/stm-idf/components/stm32f4xx_hal_driver/stm32f4xx_hal_sram.c **** 
 355:/home/phong/Documents/thesis/stm32f4/stm-idf/components/stm32f4xx_hal_driver/stm32f4xx_hal_sram.c **** /**
 356:/home/phong/Documents/thesis/stm32f4/stm-idf/components/stm32f4xx_hal_driver/stm32f4xx_hal_sram.c ****   * @brief  Writes 8-bit buffer to SRAM memory. 
 357:/home/phong/Documents/thesis/stm32f4/stm-idf/components/stm32f4xx_hal_driver/stm32f4xx_hal_sram.c ****   * @param  hsram pointer to a SRAM_HandleTypeDef structure that contains
 358:/home/phong/Documents/thesis/stm32f4/stm-idf/components/stm32f4xx_hal_driver/stm32f4xx_hal_sram.c ****   *                the configuration information for SRAM module.
 359:/home/phong/Documents/thesis/stm32f4/stm-idf/components/stm32f4xx_hal_driver/stm32f4xx_hal_sram.c ****   * @param  pAddress Pointer to write start address
 360:/home/phong/Documents/thesis/stm32f4/stm-idf/components/stm32f4xx_hal_driver/stm32f4xx_hal_sram.c ****   * @param  pSrcBuffer Pointer to source buffer to write  
 361:/home/phong/Documents/thesis/stm32f4/stm-idf/components/stm32f4xx_hal_driver/stm32f4xx_hal_sram.c ****   * @param  BufferSize Size of the buffer to write to memory
 362:/home/phong/Documents/thesis/stm32f4/stm-idf/components/stm32f4xx_hal_driver/stm32f4xx_hal_sram.c ****   * @retval HAL status
 363:/home/phong/Documents/thesis/stm32f4/stm-idf/components/stm32f4xx_hal_driver/stm32f4xx_hal_sram.c ****   */
 364:/home/phong/Documents/thesis/stm32f4/stm-idf/components/stm32f4xx_hal_driver/stm32f4xx_hal_sram.c **** HAL_StatusTypeDef HAL_SRAM_Write_8b(SRAM_HandleTypeDef *hsram, uint32_t *pAddress, uint8_t *pSrcBuf
 365:/home/phong/Documents/thesis/stm32f4/stm-idf/components/stm32f4xx_hal_driver/stm32f4xx_hal_sram.c **** {
 308              		.loc 1 365 0
 309              		.cfi_startproc
 310              		@ args = 0, pretend = 0, frame = 0
ARM GAS  /tmp/cc9XlVWc.s 			page 13


 311              		@ frame_needed = 0, uses_anonymous_args = 0
 312              		@ link register save eliminated.
 313              	.LVL26:
 314 0000 10B4     		push	{r4}
 315              	.LCFI6:
 316              		.cfi_def_cfa_offset 4
 317              		.cfi_offset 4, -4
 318              	.LVL27:
 366:/home/phong/Documents/thesis/stm32f4/stm-idf/components/stm32f4xx_hal_driver/stm32f4xx_hal_sram.c ****   __IO uint8_t * pSramAddress = (uint8_t *)pAddress;
 367:/home/phong/Documents/thesis/stm32f4/stm-idf/components/stm32f4xx_hal_driver/stm32f4xx_hal_sram.c ****   
 368:/home/phong/Documents/thesis/stm32f4/stm-idf/components/stm32f4xx_hal_driver/stm32f4xx_hal_sram.c ****   /* Check the SRAM controller state */
 369:/home/phong/Documents/thesis/stm32f4/stm-idf/components/stm32f4xx_hal_driver/stm32f4xx_hal_sram.c ****   if(hsram->State == HAL_SRAM_STATE_PROTECTED)
 319              		.loc 1 369 0
 320 0002 90F84940 		ldrb	r4, [r0, #73]	@ zero_extendqisi2
 321 0006 E4B2     		uxtb	r4, r4
 322 0008 042C     		cmp	r4, #4
 323 000a 1BD0     		beq	.L26
 370:/home/phong/Documents/thesis/stm32f4/stm-idf/components/stm32f4xx_hal_driver/stm32f4xx_hal_sram.c ****   {
 371:/home/phong/Documents/thesis/stm32f4/stm-idf/components/stm32f4xx_hal_driver/stm32f4xx_hal_sram.c ****     return  HAL_ERROR; 
 372:/home/phong/Documents/thesis/stm32f4/stm-idf/components/stm32f4xx_hal_driver/stm32f4xx_hal_sram.c ****   }
 373:/home/phong/Documents/thesis/stm32f4/stm-idf/components/stm32f4xx_hal_driver/stm32f4xx_hal_sram.c ****   
 374:/home/phong/Documents/thesis/stm32f4/stm-idf/components/stm32f4xx_hal_driver/stm32f4xx_hal_sram.c ****   /* Process Locked */
 375:/home/phong/Documents/thesis/stm32f4/stm-idf/components/stm32f4xx_hal_driver/stm32f4xx_hal_sram.c ****   __HAL_LOCK(hsram);
 324              		.loc 1 375 0
 325 000c 90F84840 		ldrb	r4, [r0, #72]	@ zero_extendqisi2
 326 0010 012C     		cmp	r4, #1
 327 0012 19D0     		beq	.L27
 328              		.loc 1 375 0 is_stmt 0 discriminator 2
 329 0014 0124     		movs	r4, #1
 330 0016 80F84840 		strb	r4, [r0, #72]
 376:/home/phong/Documents/thesis/stm32f4/stm-idf/components/stm32f4xx_hal_driver/stm32f4xx_hal_sram.c ****   
 377:/home/phong/Documents/thesis/stm32f4/stm-idf/components/stm32f4xx_hal_driver/stm32f4xx_hal_sram.c ****   /* Update the SRAM controller state */
 378:/home/phong/Documents/thesis/stm32f4/stm-idf/components/stm32f4xx_hal_driver/stm32f4xx_hal_sram.c ****   hsram->State = HAL_SRAM_STATE_BUSY; 
 331              		.loc 1 378 0 is_stmt 1 discriminator 2
 332 001a 0224     		movs	r4, #2
 333 001c 80F84940 		strb	r4, [r0, #73]
 379:/home/phong/Documents/thesis/stm32f4/stm-idf/components/stm32f4xx_hal_driver/stm32f4xx_hal_sram.c **** 
 380:/home/phong/Documents/thesis/stm32f4/stm-idf/components/stm32f4xx_hal_driver/stm32f4xx_hal_sram.c ****   /* Write data to memory */
 381:/home/phong/Documents/thesis/stm32f4/stm-idf/components/stm32f4xx_hal_driver/stm32f4xx_hal_sram.c ****   for(; BufferSize != 0U; BufferSize--)
 334              		.loc 1 381 0 discriminator 2
 335 0020 04E0     		b	.L24
 336              	.LVL28:
 337              	.L25:
 382:/home/phong/Documents/thesis/stm32f4/stm-idf/components/stm32f4xx_hal_driver/stm32f4xx_hal_sram.c ****   {
 383:/home/phong/Documents/thesis/stm32f4/stm-idf/components/stm32f4xx_hal_driver/stm32f4xx_hal_sram.c ****     *(__IO uint8_t *)pSramAddress = *pSrcBuffer; 
 338              		.loc 1 383 0 discriminator 2
 339 0022 12F8014B 		ldrb	r4, [r2], #1	@ zero_extendqisi2
 340              	.LVL29:
 341 0026 01F8014B 		strb	r4, [r1], #1
 342              	.LVL30:
 381:/home/phong/Documents/thesis/stm32f4/stm-idf/components/stm32f4xx_hal_driver/stm32f4xx_hal_sram.c ****   {
 343              		.loc 1 381 0 discriminator 2
 344 002a 013B     		subs	r3, r3, #1
 345              	.LVL31:
 346              	.L24:
 381:/home/phong/Documents/thesis/stm32f4/stm-idf/components/stm32f4xx_hal_driver/stm32f4xx_hal_sram.c ****   {
 347              		.loc 1 381 0 is_stmt 0 discriminator 1
ARM GAS  /tmp/cc9XlVWc.s 			page 14


 348 002c 002B     		cmp	r3, #0
 349 002e F8D1     		bne	.L25
 384:/home/phong/Documents/thesis/stm32f4/stm-idf/components/stm32f4xx_hal_driver/stm32f4xx_hal_sram.c ****     pSrcBuffer++;
 385:/home/phong/Documents/thesis/stm32f4/stm-idf/components/stm32f4xx_hal_driver/stm32f4xx_hal_sram.c ****     pSramAddress++;    
 386:/home/phong/Documents/thesis/stm32f4/stm-idf/components/stm32f4xx_hal_driver/stm32f4xx_hal_sram.c ****   }    
 387:/home/phong/Documents/thesis/stm32f4/stm-idf/components/stm32f4xx_hal_driver/stm32f4xx_hal_sram.c **** 
 388:/home/phong/Documents/thesis/stm32f4/stm-idf/components/stm32f4xx_hal_driver/stm32f4xx_hal_sram.c ****   /* Update the SRAM controller state */
 389:/home/phong/Documents/thesis/stm32f4/stm-idf/components/stm32f4xx_hal_driver/stm32f4xx_hal_sram.c ****   hsram->State = HAL_SRAM_STATE_READY; 
 350              		.loc 1 389 0 is_stmt 1
 351 0030 0123     		movs	r3, #1
 352              	.LVL32:
 353 0032 80F84930 		strb	r3, [r0, #73]
 390:/home/phong/Documents/thesis/stm32f4/stm-idf/components/stm32f4xx_hal_driver/stm32f4xx_hal_sram.c ****   
 391:/home/phong/Documents/thesis/stm32f4/stm-idf/components/stm32f4xx_hal_driver/stm32f4xx_hal_sram.c ****   /* Process unlocked */
 392:/home/phong/Documents/thesis/stm32f4/stm-idf/components/stm32f4xx_hal_driver/stm32f4xx_hal_sram.c ****   __HAL_UNLOCK(hsram);
 354              		.loc 1 392 0
 355 0036 0023     		movs	r3, #0
 356 0038 80F84830 		strb	r3, [r0, #72]
 393:/home/phong/Documents/thesis/stm32f4/stm-idf/components/stm32f4xx_hal_driver/stm32f4xx_hal_sram.c ****     
 394:/home/phong/Documents/thesis/stm32f4/stm-idf/components/stm32f4xx_hal_driver/stm32f4xx_hal_sram.c ****   return HAL_OK;   
 357              		.loc 1 394 0
 358 003c 1846     		mov	r0, r3
 359              	.LVL33:
 360              	.L23:
 395:/home/phong/Documents/thesis/stm32f4/stm-idf/components/stm32f4xx_hal_driver/stm32f4xx_hal_sram.c **** }
 361              		.loc 1 395 0
 362 003e 5DF8044B 		ldr	r4, [sp], #4
 363              	.LCFI7:
 364              		.cfi_remember_state
 365              		.cfi_restore 4
 366              		.cfi_def_cfa_offset 0
 367 0042 7047     		bx	lr
 368              	.LVL34:
 369              	.L26:
 370              	.LCFI8:
 371              		.cfi_restore_state
 371:/home/phong/Documents/thesis/stm32f4/stm-idf/components/stm32f4xx_hal_driver/stm32f4xx_hal_sram.c ****   }
 372              		.loc 1 371 0
 373 0044 0120     		movs	r0, #1
 374              	.LVL35:
 375 0046 FAE7     		b	.L23
 376              	.LVL36:
 377              	.L27:
 375:/home/phong/Documents/thesis/stm32f4/stm-idf/components/stm32f4xx_hal_driver/stm32f4xx_hal_sram.c ****   
 378              		.loc 1 375 0
 379 0048 0220     		movs	r0, #2
 380              	.LVL37:
 381 004a F8E7     		b	.L23
 382              		.cfi_endproc
 383              	.LFE137:
 385              		.section	.text.HAL_SRAM_Read_16b,"ax",%progbits
 386              		.align	1
 387              		.global	HAL_SRAM_Read_16b
 388              		.syntax unified
 389              		.thumb
 390              		.thumb_func
 391              		.fpu fpv4-sp-d16
ARM GAS  /tmp/cc9XlVWc.s 			page 15


 393              	HAL_SRAM_Read_16b:
 394              	.LFB138:
 396:/home/phong/Documents/thesis/stm32f4/stm-idf/components/stm32f4xx_hal_driver/stm32f4xx_hal_sram.c **** 
 397:/home/phong/Documents/thesis/stm32f4/stm-idf/components/stm32f4xx_hal_driver/stm32f4xx_hal_sram.c **** /**
 398:/home/phong/Documents/thesis/stm32f4/stm-idf/components/stm32f4xx_hal_driver/stm32f4xx_hal_sram.c ****   * @brief  Reads 16-bit buffer from SRAM memory. 
 399:/home/phong/Documents/thesis/stm32f4/stm-idf/components/stm32f4xx_hal_driver/stm32f4xx_hal_sram.c ****   * @param  hsram pointer to a SRAM_HandleTypeDef structure that contains
 400:/home/phong/Documents/thesis/stm32f4/stm-idf/components/stm32f4xx_hal_driver/stm32f4xx_hal_sram.c ****   *                the configuration information for SRAM module.
 401:/home/phong/Documents/thesis/stm32f4/stm-idf/components/stm32f4xx_hal_driver/stm32f4xx_hal_sram.c ****   * @param  pAddress Pointer to read start address
 402:/home/phong/Documents/thesis/stm32f4/stm-idf/components/stm32f4xx_hal_driver/stm32f4xx_hal_sram.c ****   * @param  pDstBuffer Pointer to destination buffer  
 403:/home/phong/Documents/thesis/stm32f4/stm-idf/components/stm32f4xx_hal_driver/stm32f4xx_hal_sram.c ****   * @param  BufferSize Size of the buffer to read from memory
 404:/home/phong/Documents/thesis/stm32f4/stm-idf/components/stm32f4xx_hal_driver/stm32f4xx_hal_sram.c ****   * @retval HAL status
 405:/home/phong/Documents/thesis/stm32f4/stm-idf/components/stm32f4xx_hal_driver/stm32f4xx_hal_sram.c ****   */
 406:/home/phong/Documents/thesis/stm32f4/stm-idf/components/stm32f4xx_hal_driver/stm32f4xx_hal_sram.c **** HAL_StatusTypeDef HAL_SRAM_Read_16b(SRAM_HandleTypeDef *hsram, uint32_t *pAddress, uint16_t *pDstBu
 407:/home/phong/Documents/thesis/stm32f4/stm-idf/components/stm32f4xx_hal_driver/stm32f4xx_hal_sram.c **** {
 395              		.loc 1 407 0
 396              		.cfi_startproc
 397              		@ args = 0, pretend = 0, frame = 0
 398              		@ frame_needed = 0, uses_anonymous_args = 0
 399              		@ link register save eliminated.
 400              	.LVL38:
 401 0000 10B4     		push	{r4}
 402              	.LCFI9:
 403              		.cfi_def_cfa_offset 4
 404              		.cfi_offset 4, -4
 405              	.LVL39:
 408:/home/phong/Documents/thesis/stm32f4/stm-idf/components/stm32f4xx_hal_driver/stm32f4xx_hal_sram.c ****   __IO uint16_t * pSramAddress = (uint16_t *)pAddress;
 409:/home/phong/Documents/thesis/stm32f4/stm-idf/components/stm32f4xx_hal_driver/stm32f4xx_hal_sram.c ****   
 410:/home/phong/Documents/thesis/stm32f4/stm-idf/components/stm32f4xx_hal_driver/stm32f4xx_hal_sram.c ****   /* Process Locked */
 411:/home/phong/Documents/thesis/stm32f4/stm-idf/components/stm32f4xx_hal_driver/stm32f4xx_hal_sram.c ****   __HAL_LOCK(hsram);
 406              		.loc 1 411 0
 407 0002 90F84840 		ldrb	r4, [r0, #72]	@ zero_extendqisi2
 408 0006 012C     		cmp	r4, #1
 409 0008 17D0     		beq	.L33
 410              		.loc 1 411 0 is_stmt 0 discriminator 2
 411 000a 0124     		movs	r4, #1
 412 000c 80F84840 		strb	r4, [r0, #72]
 412:/home/phong/Documents/thesis/stm32f4/stm-idf/components/stm32f4xx_hal_driver/stm32f4xx_hal_sram.c ****   
 413:/home/phong/Documents/thesis/stm32f4/stm-idf/components/stm32f4xx_hal_driver/stm32f4xx_hal_sram.c ****   /* Update the SRAM controller state */
 414:/home/phong/Documents/thesis/stm32f4/stm-idf/components/stm32f4xx_hal_driver/stm32f4xx_hal_sram.c ****   hsram->State = HAL_SRAM_STATE_BUSY;  
 413              		.loc 1 414 0 is_stmt 1 discriminator 2
 414 0010 0224     		movs	r4, #2
 415 0012 80F84940 		strb	r4, [r0, #73]
 415:/home/phong/Documents/thesis/stm32f4/stm-idf/components/stm32f4xx_hal_driver/stm32f4xx_hal_sram.c ****   
 416:/home/phong/Documents/thesis/stm32f4/stm-idf/components/stm32f4xx_hal_driver/stm32f4xx_hal_sram.c ****   /* Read data from memory */
 417:/home/phong/Documents/thesis/stm32f4/stm-idf/components/stm32f4xx_hal_driver/stm32f4xx_hal_sram.c ****   for(; BufferSize != 0U; BufferSize--)
 416              		.loc 1 417 0 discriminator 2
 417 0016 04E0     		b	.L31
 418              	.LVL40:
 419              	.L32:
 418:/home/phong/Documents/thesis/stm32f4/stm-idf/components/stm32f4xx_hal_driver/stm32f4xx_hal_sram.c ****   {
 419:/home/phong/Documents/thesis/stm32f4/stm-idf/components/stm32f4xx_hal_driver/stm32f4xx_hal_sram.c ****     *pDstBuffer = *(__IO uint16_t *)pSramAddress;
 420              		.loc 1 419 0 discriminator 2
 421 0018 31F8024B 		ldrh	r4, [r1], #2
 422              	.LVL41:
 423 001c 22F8024B 		strh	r4, [r2], #2	@ movhi
 424              	.LVL42:
 417:/home/phong/Documents/thesis/stm32f4/stm-idf/components/stm32f4xx_hal_driver/stm32f4xx_hal_sram.c ****   {
ARM GAS  /tmp/cc9XlVWc.s 			page 16


 425              		.loc 1 417 0 discriminator 2
 426 0020 013B     		subs	r3, r3, #1
 427              	.LVL43:
 428              	.L31:
 417:/home/phong/Documents/thesis/stm32f4/stm-idf/components/stm32f4xx_hal_driver/stm32f4xx_hal_sram.c ****   {
 429              		.loc 1 417 0 is_stmt 0 discriminator 1
 430 0022 002B     		cmp	r3, #0
 431 0024 F8D1     		bne	.L32
 420:/home/phong/Documents/thesis/stm32f4/stm-idf/components/stm32f4xx_hal_driver/stm32f4xx_hal_sram.c ****     pDstBuffer++;
 421:/home/phong/Documents/thesis/stm32f4/stm-idf/components/stm32f4xx_hal_driver/stm32f4xx_hal_sram.c ****     pSramAddress++;
 422:/home/phong/Documents/thesis/stm32f4/stm-idf/components/stm32f4xx_hal_driver/stm32f4xx_hal_sram.c ****   }
 423:/home/phong/Documents/thesis/stm32f4/stm-idf/components/stm32f4xx_hal_driver/stm32f4xx_hal_sram.c ****   
 424:/home/phong/Documents/thesis/stm32f4/stm-idf/components/stm32f4xx_hal_driver/stm32f4xx_hal_sram.c ****   /* Update the SRAM controller state */
 425:/home/phong/Documents/thesis/stm32f4/stm-idf/components/stm32f4xx_hal_driver/stm32f4xx_hal_sram.c ****   hsram->State = HAL_SRAM_STATE_READY;    
 432              		.loc 1 425 0 is_stmt 1
 433 0026 0123     		movs	r3, #1
 434              	.LVL44:
 435 0028 80F84930 		strb	r3, [r0, #73]
 426:/home/phong/Documents/thesis/stm32f4/stm-idf/components/stm32f4xx_hal_driver/stm32f4xx_hal_sram.c **** 
 427:/home/phong/Documents/thesis/stm32f4/stm-idf/components/stm32f4xx_hal_driver/stm32f4xx_hal_sram.c ****   /* Process unlocked */
 428:/home/phong/Documents/thesis/stm32f4/stm-idf/components/stm32f4xx_hal_driver/stm32f4xx_hal_sram.c ****   __HAL_UNLOCK(hsram); 
 436              		.loc 1 428 0
 437 002c 0023     		movs	r3, #0
 438 002e 80F84830 		strb	r3, [r0, #72]
 429:/home/phong/Documents/thesis/stm32f4/stm-idf/components/stm32f4xx_hal_driver/stm32f4xx_hal_sram.c ****     
 430:/home/phong/Documents/thesis/stm32f4/stm-idf/components/stm32f4xx_hal_driver/stm32f4xx_hal_sram.c ****   return HAL_OK;  
 439              		.loc 1 430 0
 440 0032 1846     		mov	r0, r3
 441              	.LVL45:
 442              	.L30:
 431:/home/phong/Documents/thesis/stm32f4/stm-idf/components/stm32f4xx_hal_driver/stm32f4xx_hal_sram.c **** }
 443              		.loc 1 431 0
 444 0034 5DF8044B 		ldr	r4, [sp], #4
 445              	.LCFI10:
 446              		.cfi_remember_state
 447              		.cfi_restore 4
 448              		.cfi_def_cfa_offset 0
 449 0038 7047     		bx	lr
 450              	.LVL46:
 451              	.L33:
 452              	.LCFI11:
 453              		.cfi_restore_state
 411:/home/phong/Documents/thesis/stm32f4/stm-idf/components/stm32f4xx_hal_driver/stm32f4xx_hal_sram.c ****   
 454              		.loc 1 411 0
 455 003a 0220     		movs	r0, #2
 456              	.LVL47:
 457 003c FAE7     		b	.L30
 458              		.cfi_endproc
 459              	.LFE138:
 461              		.section	.text.HAL_SRAM_Write_16b,"ax",%progbits
 462              		.align	1
 463              		.global	HAL_SRAM_Write_16b
 464              		.syntax unified
 465              		.thumb
 466              		.thumb_func
 467              		.fpu fpv4-sp-d16
 469              	HAL_SRAM_Write_16b:
ARM GAS  /tmp/cc9XlVWc.s 			page 17


 470              	.LFB139:
 432:/home/phong/Documents/thesis/stm32f4/stm-idf/components/stm32f4xx_hal_driver/stm32f4xx_hal_sram.c **** 
 433:/home/phong/Documents/thesis/stm32f4/stm-idf/components/stm32f4xx_hal_driver/stm32f4xx_hal_sram.c **** /**
 434:/home/phong/Documents/thesis/stm32f4/stm-idf/components/stm32f4xx_hal_driver/stm32f4xx_hal_sram.c ****   * @brief  Writes 16-bit buffer to SRAM memory. 
 435:/home/phong/Documents/thesis/stm32f4/stm-idf/components/stm32f4xx_hal_driver/stm32f4xx_hal_sram.c ****   * @param  hsram pointer to a SRAM_HandleTypeDef structure that contains
 436:/home/phong/Documents/thesis/stm32f4/stm-idf/components/stm32f4xx_hal_driver/stm32f4xx_hal_sram.c ****   *                the configuration information for SRAM module.
 437:/home/phong/Documents/thesis/stm32f4/stm-idf/components/stm32f4xx_hal_driver/stm32f4xx_hal_sram.c ****   * @param  pAddress Pointer to write start address
 438:/home/phong/Documents/thesis/stm32f4/stm-idf/components/stm32f4xx_hal_driver/stm32f4xx_hal_sram.c ****   * @param  pSrcBuffer Pointer to source buffer to write  
 439:/home/phong/Documents/thesis/stm32f4/stm-idf/components/stm32f4xx_hal_driver/stm32f4xx_hal_sram.c ****   * @param  BufferSize Size of the buffer to write to memory
 440:/home/phong/Documents/thesis/stm32f4/stm-idf/components/stm32f4xx_hal_driver/stm32f4xx_hal_sram.c ****   * @retval HAL status
 441:/home/phong/Documents/thesis/stm32f4/stm-idf/components/stm32f4xx_hal_driver/stm32f4xx_hal_sram.c ****   */
 442:/home/phong/Documents/thesis/stm32f4/stm-idf/components/stm32f4xx_hal_driver/stm32f4xx_hal_sram.c **** HAL_StatusTypeDef HAL_SRAM_Write_16b(SRAM_HandleTypeDef *hsram, uint32_t *pAddress, uint16_t *pSrcB
 443:/home/phong/Documents/thesis/stm32f4/stm-idf/components/stm32f4xx_hal_driver/stm32f4xx_hal_sram.c **** {
 471              		.loc 1 443 0
 472              		.cfi_startproc
 473              		@ args = 0, pretend = 0, frame = 0
 474              		@ frame_needed = 0, uses_anonymous_args = 0
 475              		@ link register save eliminated.
 476              	.LVL48:
 477 0000 10B4     		push	{r4}
 478              	.LCFI12:
 479              		.cfi_def_cfa_offset 4
 480              		.cfi_offset 4, -4
 481              	.LVL49:
 444:/home/phong/Documents/thesis/stm32f4/stm-idf/components/stm32f4xx_hal_driver/stm32f4xx_hal_sram.c ****   __IO uint16_t * pSramAddress = (uint16_t *)pAddress; 
 445:/home/phong/Documents/thesis/stm32f4/stm-idf/components/stm32f4xx_hal_driver/stm32f4xx_hal_sram.c ****   
 446:/home/phong/Documents/thesis/stm32f4/stm-idf/components/stm32f4xx_hal_driver/stm32f4xx_hal_sram.c ****   /* Check the SRAM controller state */
 447:/home/phong/Documents/thesis/stm32f4/stm-idf/components/stm32f4xx_hal_driver/stm32f4xx_hal_sram.c ****   if(hsram->State == HAL_SRAM_STATE_PROTECTED)
 482              		.loc 1 447 0
 483 0002 90F84940 		ldrb	r4, [r0, #73]	@ zero_extendqisi2
 484 0006 E4B2     		uxtb	r4, r4
 485 0008 042C     		cmp	r4, #4
 486 000a 1BD0     		beq	.L39
 448:/home/phong/Documents/thesis/stm32f4/stm-idf/components/stm32f4xx_hal_driver/stm32f4xx_hal_sram.c ****   {
 449:/home/phong/Documents/thesis/stm32f4/stm-idf/components/stm32f4xx_hal_driver/stm32f4xx_hal_sram.c ****     return  HAL_ERROR; 
 450:/home/phong/Documents/thesis/stm32f4/stm-idf/components/stm32f4xx_hal_driver/stm32f4xx_hal_sram.c ****   }
 451:/home/phong/Documents/thesis/stm32f4/stm-idf/components/stm32f4xx_hal_driver/stm32f4xx_hal_sram.c ****   
 452:/home/phong/Documents/thesis/stm32f4/stm-idf/components/stm32f4xx_hal_driver/stm32f4xx_hal_sram.c ****   /* Process Locked */
 453:/home/phong/Documents/thesis/stm32f4/stm-idf/components/stm32f4xx_hal_driver/stm32f4xx_hal_sram.c ****   __HAL_LOCK(hsram);
 487              		.loc 1 453 0
 488 000c 90F84840 		ldrb	r4, [r0, #72]	@ zero_extendqisi2
 489 0010 012C     		cmp	r4, #1
 490 0012 19D0     		beq	.L40
 491              		.loc 1 453 0 is_stmt 0 discriminator 2
 492 0014 0124     		movs	r4, #1
 493 0016 80F84840 		strb	r4, [r0, #72]
 454:/home/phong/Documents/thesis/stm32f4/stm-idf/components/stm32f4xx_hal_driver/stm32f4xx_hal_sram.c ****   
 455:/home/phong/Documents/thesis/stm32f4/stm-idf/components/stm32f4xx_hal_driver/stm32f4xx_hal_sram.c ****   /* Update the SRAM controller state */
 456:/home/phong/Documents/thesis/stm32f4/stm-idf/components/stm32f4xx_hal_driver/stm32f4xx_hal_sram.c ****   hsram->State = HAL_SRAM_STATE_BUSY; 
 494              		.loc 1 456 0 is_stmt 1 discriminator 2
 495 001a 0224     		movs	r4, #2
 496 001c 80F84940 		strb	r4, [r0, #73]
 457:/home/phong/Documents/thesis/stm32f4/stm-idf/components/stm32f4xx_hal_driver/stm32f4xx_hal_sram.c **** 
 458:/home/phong/Documents/thesis/stm32f4/stm-idf/components/stm32f4xx_hal_driver/stm32f4xx_hal_sram.c ****   /* Write data to memory */
 459:/home/phong/Documents/thesis/stm32f4/stm-idf/components/stm32f4xx_hal_driver/stm32f4xx_hal_sram.c ****   for(; BufferSize != 0U; BufferSize--)
 497              		.loc 1 459 0 discriminator 2
 498 0020 04E0     		b	.L37
ARM GAS  /tmp/cc9XlVWc.s 			page 18


 499              	.LVL50:
 500              	.L38:
 460:/home/phong/Documents/thesis/stm32f4/stm-idf/components/stm32f4xx_hal_driver/stm32f4xx_hal_sram.c ****   {
 461:/home/phong/Documents/thesis/stm32f4/stm-idf/components/stm32f4xx_hal_driver/stm32f4xx_hal_sram.c ****     *(__IO uint16_t *)pSramAddress = *pSrcBuffer; 
 501              		.loc 1 461 0 discriminator 2
 502 0022 32F8024B 		ldrh	r4, [r2], #2
 503              	.LVL51:
 504 0026 21F8024B 		strh	r4, [r1], #2	@ movhi
 505              	.LVL52:
 459:/home/phong/Documents/thesis/stm32f4/stm-idf/components/stm32f4xx_hal_driver/stm32f4xx_hal_sram.c ****   {
 506              		.loc 1 459 0 discriminator 2
 507 002a 013B     		subs	r3, r3, #1
 508              	.LVL53:
 509              	.L37:
 459:/home/phong/Documents/thesis/stm32f4/stm-idf/components/stm32f4xx_hal_driver/stm32f4xx_hal_sram.c ****   {
 510              		.loc 1 459 0 is_stmt 0 discriminator 1
 511 002c 002B     		cmp	r3, #0
 512 002e F8D1     		bne	.L38
 462:/home/phong/Documents/thesis/stm32f4/stm-idf/components/stm32f4xx_hal_driver/stm32f4xx_hal_sram.c ****     pSrcBuffer++;
 463:/home/phong/Documents/thesis/stm32f4/stm-idf/components/stm32f4xx_hal_driver/stm32f4xx_hal_sram.c ****     pSramAddress++;    
 464:/home/phong/Documents/thesis/stm32f4/stm-idf/components/stm32f4xx_hal_driver/stm32f4xx_hal_sram.c ****   }    
 465:/home/phong/Documents/thesis/stm32f4/stm-idf/components/stm32f4xx_hal_driver/stm32f4xx_hal_sram.c **** 
 466:/home/phong/Documents/thesis/stm32f4/stm-idf/components/stm32f4xx_hal_driver/stm32f4xx_hal_sram.c ****   /* Update the SRAM controller state */
 467:/home/phong/Documents/thesis/stm32f4/stm-idf/components/stm32f4xx_hal_driver/stm32f4xx_hal_sram.c ****   hsram->State = HAL_SRAM_STATE_READY; 
 513              		.loc 1 467 0 is_stmt 1
 514 0030 0123     		movs	r3, #1
 515              	.LVL54:
 516 0032 80F84930 		strb	r3, [r0, #73]
 468:/home/phong/Documents/thesis/stm32f4/stm-idf/components/stm32f4xx_hal_driver/stm32f4xx_hal_sram.c ****   
 469:/home/phong/Documents/thesis/stm32f4/stm-idf/components/stm32f4xx_hal_driver/stm32f4xx_hal_sram.c ****   /* Process unlocked */
 470:/home/phong/Documents/thesis/stm32f4/stm-idf/components/stm32f4xx_hal_driver/stm32f4xx_hal_sram.c ****   __HAL_UNLOCK(hsram);
 517              		.loc 1 470 0
 518 0036 0023     		movs	r3, #0
 519 0038 80F84830 		strb	r3, [r0, #72]
 471:/home/phong/Documents/thesis/stm32f4/stm-idf/components/stm32f4xx_hal_driver/stm32f4xx_hal_sram.c ****     
 472:/home/phong/Documents/thesis/stm32f4/stm-idf/components/stm32f4xx_hal_driver/stm32f4xx_hal_sram.c ****   return HAL_OK;  
 520              		.loc 1 472 0
 521 003c 1846     		mov	r0, r3
 522              	.LVL55:
 523              	.L36:
 473:/home/phong/Documents/thesis/stm32f4/stm-idf/components/stm32f4xx_hal_driver/stm32f4xx_hal_sram.c **** }
 524              		.loc 1 473 0
 525 003e 5DF8044B 		ldr	r4, [sp], #4
 526              	.LCFI13:
 527              		.cfi_remember_state
 528              		.cfi_restore 4
 529              		.cfi_def_cfa_offset 0
 530 0042 7047     		bx	lr
 531              	.LVL56:
 532              	.L39:
 533              	.LCFI14:
 534              		.cfi_restore_state
 449:/home/phong/Documents/thesis/stm32f4/stm-idf/components/stm32f4xx_hal_driver/stm32f4xx_hal_sram.c ****   }
 535              		.loc 1 449 0
 536 0044 0120     		movs	r0, #1
 537              	.LVL57:
 538 0046 FAE7     		b	.L36
ARM GAS  /tmp/cc9XlVWc.s 			page 19


 539              	.LVL58:
 540              	.L40:
 453:/home/phong/Documents/thesis/stm32f4/stm-idf/components/stm32f4xx_hal_driver/stm32f4xx_hal_sram.c ****   
 541              		.loc 1 453 0
 542 0048 0220     		movs	r0, #2
 543              	.LVL59:
 544 004a F8E7     		b	.L36
 545              		.cfi_endproc
 546              	.LFE139:
 548              		.section	.text.HAL_SRAM_Read_32b,"ax",%progbits
 549              		.align	1
 550              		.global	HAL_SRAM_Read_32b
 551              		.syntax unified
 552              		.thumb
 553              		.thumb_func
 554              		.fpu fpv4-sp-d16
 556              	HAL_SRAM_Read_32b:
 557              	.LFB140:
 474:/home/phong/Documents/thesis/stm32f4/stm-idf/components/stm32f4xx_hal_driver/stm32f4xx_hal_sram.c **** 
 475:/home/phong/Documents/thesis/stm32f4/stm-idf/components/stm32f4xx_hal_driver/stm32f4xx_hal_sram.c **** /**
 476:/home/phong/Documents/thesis/stm32f4/stm-idf/components/stm32f4xx_hal_driver/stm32f4xx_hal_sram.c ****   * @brief  Reads 32-bit buffer from SRAM memory. 
 477:/home/phong/Documents/thesis/stm32f4/stm-idf/components/stm32f4xx_hal_driver/stm32f4xx_hal_sram.c ****   * @param  hsram pointer to a SRAM_HandleTypeDef structure that contains
 478:/home/phong/Documents/thesis/stm32f4/stm-idf/components/stm32f4xx_hal_driver/stm32f4xx_hal_sram.c ****   *                the configuration information for SRAM module.
 479:/home/phong/Documents/thesis/stm32f4/stm-idf/components/stm32f4xx_hal_driver/stm32f4xx_hal_sram.c ****   * @param  pAddress Pointer to read start address
 480:/home/phong/Documents/thesis/stm32f4/stm-idf/components/stm32f4xx_hal_driver/stm32f4xx_hal_sram.c ****   * @param  pDstBuffer Pointer to destination buffer  
 481:/home/phong/Documents/thesis/stm32f4/stm-idf/components/stm32f4xx_hal_driver/stm32f4xx_hal_sram.c ****   * @param  BufferSize Size of the buffer to read from memory
 482:/home/phong/Documents/thesis/stm32f4/stm-idf/components/stm32f4xx_hal_driver/stm32f4xx_hal_sram.c ****   * @retval HAL status
 483:/home/phong/Documents/thesis/stm32f4/stm-idf/components/stm32f4xx_hal_driver/stm32f4xx_hal_sram.c ****   */
 484:/home/phong/Documents/thesis/stm32f4/stm-idf/components/stm32f4xx_hal_driver/stm32f4xx_hal_sram.c **** HAL_StatusTypeDef HAL_SRAM_Read_32b(SRAM_HandleTypeDef *hsram, uint32_t *pAddress, uint32_t *pDstBu
 485:/home/phong/Documents/thesis/stm32f4/stm-idf/components/stm32f4xx_hal_driver/stm32f4xx_hal_sram.c **** {
 558              		.loc 1 485 0
 559              		.cfi_startproc
 560              		@ args = 0, pretend = 0, frame = 0
 561              		@ frame_needed = 0, uses_anonymous_args = 0
 562              		@ link register save eliminated.
 563              	.LVL60:
 564 0000 10B4     		push	{r4}
 565              	.LCFI15:
 566              		.cfi_def_cfa_offset 4
 567              		.cfi_offset 4, -4
 486:/home/phong/Documents/thesis/stm32f4/stm-idf/components/stm32f4xx_hal_driver/stm32f4xx_hal_sram.c ****   /* Process Locked */
 487:/home/phong/Documents/thesis/stm32f4/stm-idf/components/stm32f4xx_hal_driver/stm32f4xx_hal_sram.c ****   __HAL_LOCK(hsram);
 568              		.loc 1 487 0
 569 0002 90F84840 		ldrb	r4, [r0, #72]	@ zero_extendqisi2
 570 0006 012C     		cmp	r4, #1
 571 0008 17D0     		beq	.L46
 572              		.loc 1 487 0 is_stmt 0 discriminator 2
 573 000a 0124     		movs	r4, #1
 574 000c 80F84840 		strb	r4, [r0, #72]
 488:/home/phong/Documents/thesis/stm32f4/stm-idf/components/stm32f4xx_hal_driver/stm32f4xx_hal_sram.c ****   
 489:/home/phong/Documents/thesis/stm32f4/stm-idf/components/stm32f4xx_hal_driver/stm32f4xx_hal_sram.c ****   /* Update the SRAM controller state */
 490:/home/phong/Documents/thesis/stm32f4/stm-idf/components/stm32f4xx_hal_driver/stm32f4xx_hal_sram.c ****   hsram->State = HAL_SRAM_STATE_BUSY;  
 575              		.loc 1 490 0 is_stmt 1 discriminator 2
 576 0010 0224     		movs	r4, #2
 577 0012 80F84940 		strb	r4, [r0, #73]
 491:/home/phong/Documents/thesis/stm32f4/stm-idf/components/stm32f4xx_hal_driver/stm32f4xx_hal_sram.c ****   
 492:/home/phong/Documents/thesis/stm32f4/stm-idf/components/stm32f4xx_hal_driver/stm32f4xx_hal_sram.c ****   /* Read data from memory */
ARM GAS  /tmp/cc9XlVWc.s 			page 20


 493:/home/phong/Documents/thesis/stm32f4/stm-idf/components/stm32f4xx_hal_driver/stm32f4xx_hal_sram.c ****   for(; BufferSize != 0U; BufferSize--)
 578              		.loc 1 493 0 discriminator 2
 579 0016 04E0     		b	.L44
 580              	.L45:
 494:/home/phong/Documents/thesis/stm32f4/stm-idf/components/stm32f4xx_hal_driver/stm32f4xx_hal_sram.c ****   {
 495:/home/phong/Documents/thesis/stm32f4/stm-idf/components/stm32f4xx_hal_driver/stm32f4xx_hal_sram.c ****     *pDstBuffer = *(__IO uint32_t *)pAddress;
 581              		.loc 1 495 0 discriminator 2
 582 0018 51F8044B 		ldr	r4, [r1], #4
 583              	.LVL61:
 584 001c 42F8044B 		str	r4, [r2], #4
 585              	.LVL62:
 493:/home/phong/Documents/thesis/stm32f4/stm-idf/components/stm32f4xx_hal_driver/stm32f4xx_hal_sram.c ****   {
 586              		.loc 1 493 0 discriminator 2
 587 0020 013B     		subs	r3, r3, #1
 588              	.LVL63:
 589              	.L44:
 493:/home/phong/Documents/thesis/stm32f4/stm-idf/components/stm32f4xx_hal_driver/stm32f4xx_hal_sram.c ****   {
 590              		.loc 1 493 0 is_stmt 0 discriminator 1
 591 0022 002B     		cmp	r3, #0
 592 0024 F8D1     		bne	.L45
 496:/home/phong/Documents/thesis/stm32f4/stm-idf/components/stm32f4xx_hal_driver/stm32f4xx_hal_sram.c ****     pDstBuffer++;
 497:/home/phong/Documents/thesis/stm32f4/stm-idf/components/stm32f4xx_hal_driver/stm32f4xx_hal_sram.c ****     pAddress++;
 498:/home/phong/Documents/thesis/stm32f4/stm-idf/components/stm32f4xx_hal_driver/stm32f4xx_hal_sram.c ****   }
 499:/home/phong/Documents/thesis/stm32f4/stm-idf/components/stm32f4xx_hal_driver/stm32f4xx_hal_sram.c ****   
 500:/home/phong/Documents/thesis/stm32f4/stm-idf/components/stm32f4xx_hal_driver/stm32f4xx_hal_sram.c ****   /* Update the SRAM controller state */
 501:/home/phong/Documents/thesis/stm32f4/stm-idf/components/stm32f4xx_hal_driver/stm32f4xx_hal_sram.c ****   hsram->State = HAL_SRAM_STATE_READY;    
 593              		.loc 1 501 0 is_stmt 1
 594 0026 0123     		movs	r3, #1
 595              	.LVL64:
 596 0028 80F84930 		strb	r3, [r0, #73]
 502:/home/phong/Documents/thesis/stm32f4/stm-idf/components/stm32f4xx_hal_driver/stm32f4xx_hal_sram.c **** 
 503:/home/phong/Documents/thesis/stm32f4/stm-idf/components/stm32f4xx_hal_driver/stm32f4xx_hal_sram.c ****   /* Process unlocked */
 504:/home/phong/Documents/thesis/stm32f4/stm-idf/components/stm32f4xx_hal_driver/stm32f4xx_hal_sram.c ****   __HAL_UNLOCK(hsram); 
 597              		.loc 1 504 0
 598 002c 0023     		movs	r3, #0
 599 002e 80F84830 		strb	r3, [r0, #72]
 505:/home/phong/Documents/thesis/stm32f4/stm-idf/components/stm32f4xx_hal_driver/stm32f4xx_hal_sram.c ****     
 506:/home/phong/Documents/thesis/stm32f4/stm-idf/components/stm32f4xx_hal_driver/stm32f4xx_hal_sram.c ****   return HAL_OK;  
 600              		.loc 1 506 0
 601 0032 1846     		mov	r0, r3
 602              	.LVL65:
 603              	.L43:
 507:/home/phong/Documents/thesis/stm32f4/stm-idf/components/stm32f4xx_hal_driver/stm32f4xx_hal_sram.c **** }
 604              		.loc 1 507 0
 605 0034 5DF8044B 		ldr	r4, [sp], #4
 606              	.LCFI16:
 607              		.cfi_remember_state
 608              		.cfi_restore 4
 609              		.cfi_def_cfa_offset 0
 610 0038 7047     		bx	lr
 611              	.LVL66:
 612              	.L46:
 613              	.LCFI17:
 614              		.cfi_restore_state
 487:/home/phong/Documents/thesis/stm32f4/stm-idf/components/stm32f4xx_hal_driver/stm32f4xx_hal_sram.c ****   
 615              		.loc 1 487 0
 616 003a 0220     		movs	r0, #2
ARM GAS  /tmp/cc9XlVWc.s 			page 21


 617              	.LVL67:
 618 003c FAE7     		b	.L43
 619              		.cfi_endproc
 620              	.LFE140:
 622              		.section	.text.HAL_SRAM_Write_32b,"ax",%progbits
 623              		.align	1
 624              		.global	HAL_SRAM_Write_32b
 625              		.syntax unified
 626              		.thumb
 627              		.thumb_func
 628              		.fpu fpv4-sp-d16
 630              	HAL_SRAM_Write_32b:
 631              	.LFB141:
 508:/home/phong/Documents/thesis/stm32f4/stm-idf/components/stm32f4xx_hal_driver/stm32f4xx_hal_sram.c **** 
 509:/home/phong/Documents/thesis/stm32f4/stm-idf/components/stm32f4xx_hal_driver/stm32f4xx_hal_sram.c **** /**
 510:/home/phong/Documents/thesis/stm32f4/stm-idf/components/stm32f4xx_hal_driver/stm32f4xx_hal_sram.c ****   * @brief  Writes 32-bit buffer to SRAM memory. 
 511:/home/phong/Documents/thesis/stm32f4/stm-idf/components/stm32f4xx_hal_driver/stm32f4xx_hal_sram.c ****   * @param  hsram pointer to a SRAM_HandleTypeDef structure that contains
 512:/home/phong/Documents/thesis/stm32f4/stm-idf/components/stm32f4xx_hal_driver/stm32f4xx_hal_sram.c ****   *                the configuration information for SRAM module.
 513:/home/phong/Documents/thesis/stm32f4/stm-idf/components/stm32f4xx_hal_driver/stm32f4xx_hal_sram.c ****   * @param  pAddress Pointer to write start address
 514:/home/phong/Documents/thesis/stm32f4/stm-idf/components/stm32f4xx_hal_driver/stm32f4xx_hal_sram.c ****   * @param  pSrcBuffer Pointer to source buffer to write  
 515:/home/phong/Documents/thesis/stm32f4/stm-idf/components/stm32f4xx_hal_driver/stm32f4xx_hal_sram.c ****   * @param  BufferSize Size of the buffer to write to memory
 516:/home/phong/Documents/thesis/stm32f4/stm-idf/components/stm32f4xx_hal_driver/stm32f4xx_hal_sram.c ****   * @retval HAL status
 517:/home/phong/Documents/thesis/stm32f4/stm-idf/components/stm32f4xx_hal_driver/stm32f4xx_hal_sram.c ****   */
 518:/home/phong/Documents/thesis/stm32f4/stm-idf/components/stm32f4xx_hal_driver/stm32f4xx_hal_sram.c **** HAL_StatusTypeDef HAL_SRAM_Write_32b(SRAM_HandleTypeDef *hsram, uint32_t *pAddress, uint32_t *pSrcB
 519:/home/phong/Documents/thesis/stm32f4/stm-idf/components/stm32f4xx_hal_driver/stm32f4xx_hal_sram.c **** {
 632              		.loc 1 519 0
 633              		.cfi_startproc
 634              		@ args = 0, pretend = 0, frame = 0
 635              		@ frame_needed = 0, uses_anonymous_args = 0
 636              		@ link register save eliminated.
 637              	.LVL68:
 638 0000 10B4     		push	{r4}
 639              	.LCFI18:
 640              		.cfi_def_cfa_offset 4
 641              		.cfi_offset 4, -4
 520:/home/phong/Documents/thesis/stm32f4/stm-idf/components/stm32f4xx_hal_driver/stm32f4xx_hal_sram.c ****   /* Check the SRAM controller state */
 521:/home/phong/Documents/thesis/stm32f4/stm-idf/components/stm32f4xx_hal_driver/stm32f4xx_hal_sram.c ****   if(hsram->State == HAL_SRAM_STATE_PROTECTED)
 642              		.loc 1 521 0
 643 0002 90F84940 		ldrb	r4, [r0, #73]	@ zero_extendqisi2
 644 0006 E4B2     		uxtb	r4, r4
 645 0008 042C     		cmp	r4, #4
 646 000a 1BD0     		beq	.L52
 522:/home/phong/Documents/thesis/stm32f4/stm-idf/components/stm32f4xx_hal_driver/stm32f4xx_hal_sram.c ****   {
 523:/home/phong/Documents/thesis/stm32f4/stm-idf/components/stm32f4xx_hal_driver/stm32f4xx_hal_sram.c ****     return  HAL_ERROR; 
 524:/home/phong/Documents/thesis/stm32f4/stm-idf/components/stm32f4xx_hal_driver/stm32f4xx_hal_sram.c ****   }
 525:/home/phong/Documents/thesis/stm32f4/stm-idf/components/stm32f4xx_hal_driver/stm32f4xx_hal_sram.c ****   
 526:/home/phong/Documents/thesis/stm32f4/stm-idf/components/stm32f4xx_hal_driver/stm32f4xx_hal_sram.c ****   /* Process Locked */
 527:/home/phong/Documents/thesis/stm32f4/stm-idf/components/stm32f4xx_hal_driver/stm32f4xx_hal_sram.c ****   __HAL_LOCK(hsram);
 647              		.loc 1 527 0
 648 000c 90F84840 		ldrb	r4, [r0, #72]	@ zero_extendqisi2
 649 0010 012C     		cmp	r4, #1
 650 0012 19D0     		beq	.L53
 651              		.loc 1 527 0 is_stmt 0 discriminator 2
 652 0014 0124     		movs	r4, #1
 653 0016 80F84840 		strb	r4, [r0, #72]
 528:/home/phong/Documents/thesis/stm32f4/stm-idf/components/stm32f4xx_hal_driver/stm32f4xx_hal_sram.c ****   
 529:/home/phong/Documents/thesis/stm32f4/stm-idf/components/stm32f4xx_hal_driver/stm32f4xx_hal_sram.c ****   /* Update the SRAM controller state */
ARM GAS  /tmp/cc9XlVWc.s 			page 22


 530:/home/phong/Documents/thesis/stm32f4/stm-idf/components/stm32f4xx_hal_driver/stm32f4xx_hal_sram.c ****   hsram->State = HAL_SRAM_STATE_BUSY; 
 654              		.loc 1 530 0 is_stmt 1 discriminator 2
 655 001a 0224     		movs	r4, #2
 656 001c 80F84940 		strb	r4, [r0, #73]
 531:/home/phong/Documents/thesis/stm32f4/stm-idf/components/stm32f4xx_hal_driver/stm32f4xx_hal_sram.c **** 
 532:/home/phong/Documents/thesis/stm32f4/stm-idf/components/stm32f4xx_hal_driver/stm32f4xx_hal_sram.c ****   /* Write data to memory */
 533:/home/phong/Documents/thesis/stm32f4/stm-idf/components/stm32f4xx_hal_driver/stm32f4xx_hal_sram.c ****   for(; BufferSize != 0U; BufferSize--)
 657              		.loc 1 533 0 discriminator 2
 658 0020 04E0     		b	.L50
 659              	.L51:
 534:/home/phong/Documents/thesis/stm32f4/stm-idf/components/stm32f4xx_hal_driver/stm32f4xx_hal_sram.c ****   {
 535:/home/phong/Documents/thesis/stm32f4/stm-idf/components/stm32f4xx_hal_driver/stm32f4xx_hal_sram.c ****     *(__IO uint32_t *)pAddress = *pSrcBuffer; 
 660              		.loc 1 535 0 discriminator 2
 661 0022 52F8044B 		ldr	r4, [r2], #4
 662              	.LVL69:
 663 0026 41F8044B 		str	r4, [r1], #4
 664              	.LVL70:
 533:/home/phong/Documents/thesis/stm32f4/stm-idf/components/stm32f4xx_hal_driver/stm32f4xx_hal_sram.c ****   {
 665              		.loc 1 533 0 discriminator 2
 666 002a 013B     		subs	r3, r3, #1
 667              	.LVL71:
 668              	.L50:
 533:/home/phong/Documents/thesis/stm32f4/stm-idf/components/stm32f4xx_hal_driver/stm32f4xx_hal_sram.c ****   {
 669              		.loc 1 533 0 is_stmt 0 discriminator 1
 670 002c 002B     		cmp	r3, #0
 671 002e F8D1     		bne	.L51
 536:/home/phong/Documents/thesis/stm32f4/stm-idf/components/stm32f4xx_hal_driver/stm32f4xx_hal_sram.c ****     pSrcBuffer++;
 537:/home/phong/Documents/thesis/stm32f4/stm-idf/components/stm32f4xx_hal_driver/stm32f4xx_hal_sram.c ****     pAddress++;    
 538:/home/phong/Documents/thesis/stm32f4/stm-idf/components/stm32f4xx_hal_driver/stm32f4xx_hal_sram.c ****   }    
 539:/home/phong/Documents/thesis/stm32f4/stm-idf/components/stm32f4xx_hal_driver/stm32f4xx_hal_sram.c **** 
 540:/home/phong/Documents/thesis/stm32f4/stm-idf/components/stm32f4xx_hal_driver/stm32f4xx_hal_sram.c ****   /* Update the SRAM controller state */
 541:/home/phong/Documents/thesis/stm32f4/stm-idf/components/stm32f4xx_hal_driver/stm32f4xx_hal_sram.c ****   hsram->State = HAL_SRAM_STATE_READY; 
 672              		.loc 1 541 0 is_stmt 1
 673 0030 0123     		movs	r3, #1
 674              	.LVL72:
 675 0032 80F84930 		strb	r3, [r0, #73]
 542:/home/phong/Documents/thesis/stm32f4/stm-idf/components/stm32f4xx_hal_driver/stm32f4xx_hal_sram.c ****   
 543:/home/phong/Documents/thesis/stm32f4/stm-idf/components/stm32f4xx_hal_driver/stm32f4xx_hal_sram.c ****   /* Process unlocked */
 544:/home/phong/Documents/thesis/stm32f4/stm-idf/components/stm32f4xx_hal_driver/stm32f4xx_hal_sram.c ****   __HAL_UNLOCK(hsram);
 676              		.loc 1 544 0
 677 0036 0023     		movs	r3, #0
 678 0038 80F84830 		strb	r3, [r0, #72]
 545:/home/phong/Documents/thesis/stm32f4/stm-idf/components/stm32f4xx_hal_driver/stm32f4xx_hal_sram.c ****     
 546:/home/phong/Documents/thesis/stm32f4/stm-idf/components/stm32f4xx_hal_driver/stm32f4xx_hal_sram.c ****   return HAL_OK;   
 679              		.loc 1 546 0
 680 003c 1846     		mov	r0, r3
 681              	.LVL73:
 682              	.L49:
 547:/home/phong/Documents/thesis/stm32f4/stm-idf/components/stm32f4xx_hal_driver/stm32f4xx_hal_sram.c **** }
 683              		.loc 1 547 0
 684 003e 5DF8044B 		ldr	r4, [sp], #4
 685              	.LCFI19:
 686              		.cfi_remember_state
 687              		.cfi_restore 4
 688              		.cfi_def_cfa_offset 0
 689 0042 7047     		bx	lr
 690              	.LVL74:
ARM GAS  /tmp/cc9XlVWc.s 			page 23


 691              	.L52:
 692              	.LCFI20:
 693              		.cfi_restore_state
 523:/home/phong/Documents/thesis/stm32f4/stm-idf/components/stm32f4xx_hal_driver/stm32f4xx_hal_sram.c ****   }
 694              		.loc 1 523 0
 695 0044 0120     		movs	r0, #1
 696              	.LVL75:
 697 0046 FAE7     		b	.L49
 698              	.LVL76:
 699              	.L53:
 527:/home/phong/Documents/thesis/stm32f4/stm-idf/components/stm32f4xx_hal_driver/stm32f4xx_hal_sram.c ****   
 700              		.loc 1 527 0
 701 0048 0220     		movs	r0, #2
 702              	.LVL77:
 703 004a F8E7     		b	.L49
 704              		.cfi_endproc
 705              	.LFE141:
 707              		.section	.text.HAL_SRAM_Read_DMA,"ax",%progbits
 708              		.align	1
 709              		.global	HAL_SRAM_Read_DMA
 710              		.syntax unified
 711              		.thumb
 712              		.thumb_func
 713              		.fpu fpv4-sp-d16
 715              	HAL_SRAM_Read_DMA:
 716              	.LFB142:
 548:/home/phong/Documents/thesis/stm32f4/stm-idf/components/stm32f4xx_hal_driver/stm32f4xx_hal_sram.c **** 
 549:/home/phong/Documents/thesis/stm32f4/stm-idf/components/stm32f4xx_hal_driver/stm32f4xx_hal_sram.c **** /**
 550:/home/phong/Documents/thesis/stm32f4/stm-idf/components/stm32f4xx_hal_driver/stm32f4xx_hal_sram.c ****   * @brief  Reads a Words data from the SRAM memory using DMA transfer.
 551:/home/phong/Documents/thesis/stm32f4/stm-idf/components/stm32f4xx_hal_driver/stm32f4xx_hal_sram.c ****   * @param  hsram pointer to a SRAM_HandleTypeDef structure that contains
 552:/home/phong/Documents/thesis/stm32f4/stm-idf/components/stm32f4xx_hal_driver/stm32f4xx_hal_sram.c ****   *                the configuration information for SRAM module.
 553:/home/phong/Documents/thesis/stm32f4/stm-idf/components/stm32f4xx_hal_driver/stm32f4xx_hal_sram.c ****   * @param  pAddress Pointer to read start address
 554:/home/phong/Documents/thesis/stm32f4/stm-idf/components/stm32f4xx_hal_driver/stm32f4xx_hal_sram.c ****   * @param  pDstBuffer Pointer to destination buffer  
 555:/home/phong/Documents/thesis/stm32f4/stm-idf/components/stm32f4xx_hal_driver/stm32f4xx_hal_sram.c ****   * @param  BufferSize Size of the buffer to read from memory
 556:/home/phong/Documents/thesis/stm32f4/stm-idf/components/stm32f4xx_hal_driver/stm32f4xx_hal_sram.c ****   * @retval HAL status
 557:/home/phong/Documents/thesis/stm32f4/stm-idf/components/stm32f4xx_hal_driver/stm32f4xx_hal_sram.c ****   */
 558:/home/phong/Documents/thesis/stm32f4/stm-idf/components/stm32f4xx_hal_driver/stm32f4xx_hal_sram.c **** HAL_StatusTypeDef HAL_SRAM_Read_DMA(SRAM_HandleTypeDef *hsram, uint32_t *pAddress, uint32_t *pDstBu
 559:/home/phong/Documents/thesis/stm32f4/stm-idf/components/stm32f4xx_hal_driver/stm32f4xx_hal_sram.c **** {
 717              		.loc 1 559 0
 718              		.cfi_startproc
 719              		@ args = 0, pretend = 0, frame = 0
 720              		@ frame_needed = 0, uses_anonymous_args = 0
 721              	.LVL78:
 722 0000 70B5     		push	{r4, r5, r6, lr}
 723              	.LCFI21:
 724              		.cfi_def_cfa_offset 16
 725              		.cfi_offset 4, -16
 726              		.cfi_offset 5, -12
 727              		.cfi_offset 6, -8
 728              		.cfi_offset 14, -4
 560:/home/phong/Documents/thesis/stm32f4/stm-idf/components/stm32f4xx_hal_driver/stm32f4xx_hal_sram.c ****   /* Process Locked */
 561:/home/phong/Documents/thesis/stm32f4/stm-idf/components/stm32f4xx_hal_driver/stm32f4xx_hal_sram.c ****   __HAL_LOCK(hsram);  
 729              		.loc 1 561 0
 730 0002 90F84840 		ldrb	r4, [r0, #72]	@ zero_extendqisi2
 731 0006 012C     		cmp	r4, #1
 732 0008 01D1     		bne	.L59
 733 000a 0220     		movs	r0, #2
ARM GAS  /tmp/cc9XlVWc.s 			page 24


 734              	.LVL79:
 562:/home/phong/Documents/thesis/stm32f4/stm-idf/components/stm32f4xx_hal_driver/stm32f4xx_hal_sram.c ****   
 563:/home/phong/Documents/thesis/stm32f4/stm-idf/components/stm32f4xx_hal_driver/stm32f4xx_hal_sram.c ****   /* Update the SRAM controller state */
 564:/home/phong/Documents/thesis/stm32f4/stm-idf/components/stm32f4xx_hal_driver/stm32f4xx_hal_sram.c ****   hsram->State = HAL_SRAM_STATE_BUSY;   
 565:/home/phong/Documents/thesis/stm32f4/stm-idf/components/stm32f4xx_hal_driver/stm32f4xx_hal_sram.c ****   
 566:/home/phong/Documents/thesis/stm32f4/stm-idf/components/stm32f4xx_hal_driver/stm32f4xx_hal_sram.c ****   /* Configure DMA user callbacks */
 567:/home/phong/Documents/thesis/stm32f4/stm-idf/components/stm32f4xx_hal_driver/stm32f4xx_hal_sram.c ****   hsram->hdma->XferCpltCallback  = HAL_SRAM_DMA_XferCpltCallback;
 568:/home/phong/Documents/thesis/stm32f4/stm-idf/components/stm32f4xx_hal_driver/stm32f4xx_hal_sram.c ****   hsram->hdma->XferErrorCallback = HAL_SRAM_DMA_XferErrorCallback;
 569:/home/phong/Documents/thesis/stm32f4/stm-idf/components/stm32f4xx_hal_driver/stm32f4xx_hal_sram.c **** 
 570:/home/phong/Documents/thesis/stm32f4/stm-idf/components/stm32f4xx_hal_driver/stm32f4xx_hal_sram.c ****   /* Enable the DMA Stream */
 571:/home/phong/Documents/thesis/stm32f4/stm-idf/components/stm32f4xx_hal_driver/stm32f4xx_hal_sram.c ****   HAL_DMA_Start_IT(hsram->hdma, (uint32_t)pAddress, (uint32_t)pDstBuffer, (uint32_t)BufferSize);
 572:/home/phong/Documents/thesis/stm32f4/stm-idf/components/stm32f4xx_hal_driver/stm32f4xx_hal_sram.c ****   
 573:/home/phong/Documents/thesis/stm32f4/stm-idf/components/stm32f4xx_hal_driver/stm32f4xx_hal_sram.c ****   /* Update the SRAM controller state */
 574:/home/phong/Documents/thesis/stm32f4/stm-idf/components/stm32f4xx_hal_driver/stm32f4xx_hal_sram.c ****   hsram->State = HAL_SRAM_STATE_READY; 
 575:/home/phong/Documents/thesis/stm32f4/stm-idf/components/stm32f4xx_hal_driver/stm32f4xx_hal_sram.c ****   
 576:/home/phong/Documents/thesis/stm32f4/stm-idf/components/stm32f4xx_hal_driver/stm32f4xx_hal_sram.c ****   /* Process unlocked */
 577:/home/phong/Documents/thesis/stm32f4/stm-idf/components/stm32f4xx_hal_driver/stm32f4xx_hal_sram.c ****   __HAL_UNLOCK(hsram);  
 578:/home/phong/Documents/thesis/stm32f4/stm-idf/components/stm32f4xx_hal_driver/stm32f4xx_hal_sram.c ****   
 579:/home/phong/Documents/thesis/stm32f4/stm-idf/components/stm32f4xx_hal_driver/stm32f4xx_hal_sram.c ****   return HAL_OK; 
 580:/home/phong/Documents/thesis/stm32f4/stm-idf/components/stm32f4xx_hal_driver/stm32f4xx_hal_sram.c **** }
 735              		.loc 1 580 0
 736 000c 70BD     		pop	{r4, r5, r6, pc}
 737              	.LVL80:
 738              	.L59:
 739 000e 0446     		mov	r4, r0
 561:/home/phong/Documents/thesis/stm32f4/stm-idf/components/stm32f4xx_hal_driver/stm32f4xx_hal_sram.c ****   
 740              		.loc 1 561 0 discriminator 2
 741 0010 0125     		movs	r5, #1
 742 0012 80F84850 		strb	r5, [r0, #72]
 564:/home/phong/Documents/thesis/stm32f4/stm-idf/components/stm32f4xx_hal_driver/stm32f4xx_hal_sram.c ****   
 743              		.loc 1 564 0 discriminator 2
 744 0016 0220     		movs	r0, #2
 745              	.LVL81:
 746 0018 84F84900 		strb	r0, [r4, #73]
 567:/home/phong/Documents/thesis/stm32f4/stm-idf/components/stm32f4xx_hal_driver/stm32f4xx_hal_sram.c ****   hsram->hdma->XferErrorCallback = HAL_SRAM_DMA_XferErrorCallback;
 747              		.loc 1 567 0 discriminator 2
 748 001c E06C     		ldr	r0, [r4, #76]
 749 001e 074E     		ldr	r6, .L60
 750 0020 C663     		str	r6, [r0, #60]
 568:/home/phong/Documents/thesis/stm32f4/stm-idf/components/stm32f4xx_hal_driver/stm32f4xx_hal_sram.c **** 
 751              		.loc 1 568 0 discriminator 2
 752 0022 E06C     		ldr	r0, [r4, #76]
 753 0024 064E     		ldr	r6, .L60+4
 754 0026 C664     		str	r6, [r0, #76]
 571:/home/phong/Documents/thesis/stm32f4/stm-idf/components/stm32f4xx_hal_driver/stm32f4xx_hal_sram.c ****   
 755              		.loc 1 571 0 discriminator 2
 756 0028 E06C     		ldr	r0, [r4, #76]
 757 002a FFF7FEFF 		bl	HAL_DMA_Start_IT
 758              	.LVL82:
 574:/home/phong/Documents/thesis/stm32f4/stm-idf/components/stm32f4xx_hal_driver/stm32f4xx_hal_sram.c ****   
 759              		.loc 1 574 0 discriminator 2
 760 002e 84F84950 		strb	r5, [r4, #73]
 577:/home/phong/Documents/thesis/stm32f4/stm-idf/components/stm32f4xx_hal_driver/stm32f4xx_hal_sram.c ****   
 761              		.loc 1 577 0 discriminator 2
 762 0032 0020     		movs	r0, #0
 763 0034 84F84800 		strb	r0, [r4, #72]
 579:/home/phong/Documents/thesis/stm32f4/stm-idf/components/stm32f4xx_hal_driver/stm32f4xx_hal_sram.c **** }
ARM GAS  /tmp/cc9XlVWc.s 			page 25


 764              		.loc 1 579 0 discriminator 2
 765 0038 70BD     		pop	{r4, r5, r6, pc}
 766              	.LVL83:
 767              	.L61:
 768 003a 00BF     		.align	2
 769              	.L60:
 770 003c 00000000 		.word	HAL_SRAM_DMA_XferCpltCallback
 771 0040 00000000 		.word	HAL_SRAM_DMA_XferErrorCallback
 772              		.cfi_endproc
 773              	.LFE142:
 775              		.section	.text.HAL_SRAM_Write_DMA,"ax",%progbits
 776              		.align	1
 777              		.global	HAL_SRAM_Write_DMA
 778              		.syntax unified
 779              		.thumb
 780              		.thumb_func
 781              		.fpu fpv4-sp-d16
 783              	HAL_SRAM_Write_DMA:
 784              	.LFB143:
 581:/home/phong/Documents/thesis/stm32f4/stm-idf/components/stm32f4xx_hal_driver/stm32f4xx_hal_sram.c **** 
 582:/home/phong/Documents/thesis/stm32f4/stm-idf/components/stm32f4xx_hal_driver/stm32f4xx_hal_sram.c **** /**
 583:/home/phong/Documents/thesis/stm32f4/stm-idf/components/stm32f4xx_hal_driver/stm32f4xx_hal_sram.c ****   * @brief  Writes a Words data buffer to SRAM memory using DMA transfer.
 584:/home/phong/Documents/thesis/stm32f4/stm-idf/components/stm32f4xx_hal_driver/stm32f4xx_hal_sram.c ****   * @param  hsram pointer to a SRAM_HandleTypeDef structure that contains
 585:/home/phong/Documents/thesis/stm32f4/stm-idf/components/stm32f4xx_hal_driver/stm32f4xx_hal_sram.c ****   *                the configuration information for SRAM module.
 586:/home/phong/Documents/thesis/stm32f4/stm-idf/components/stm32f4xx_hal_driver/stm32f4xx_hal_sram.c ****   * @param  pAddress Pointer to write start address
 587:/home/phong/Documents/thesis/stm32f4/stm-idf/components/stm32f4xx_hal_driver/stm32f4xx_hal_sram.c ****   * @param  pSrcBuffer Pointer to source buffer to write  
 588:/home/phong/Documents/thesis/stm32f4/stm-idf/components/stm32f4xx_hal_driver/stm32f4xx_hal_sram.c ****   * @param  BufferSize Size of the buffer to write to memory
 589:/home/phong/Documents/thesis/stm32f4/stm-idf/components/stm32f4xx_hal_driver/stm32f4xx_hal_sram.c ****   * @retval HAL status
 590:/home/phong/Documents/thesis/stm32f4/stm-idf/components/stm32f4xx_hal_driver/stm32f4xx_hal_sram.c ****   */
 591:/home/phong/Documents/thesis/stm32f4/stm-idf/components/stm32f4xx_hal_driver/stm32f4xx_hal_sram.c **** HAL_StatusTypeDef HAL_SRAM_Write_DMA(SRAM_HandleTypeDef *hsram, uint32_t *pAddress, uint32_t *pSrcB
 592:/home/phong/Documents/thesis/stm32f4/stm-idf/components/stm32f4xx_hal_driver/stm32f4xx_hal_sram.c **** {
 785              		.loc 1 592 0
 786              		.cfi_startproc
 787              		@ args = 0, pretend = 0, frame = 0
 788              		@ frame_needed = 0, uses_anonymous_args = 0
 789              	.LVL84:
 790 0000 70B5     		push	{r4, r5, r6, lr}
 791              	.LCFI22:
 792              		.cfi_def_cfa_offset 16
 793              		.cfi_offset 4, -16
 794              		.cfi_offset 5, -12
 795              		.cfi_offset 6, -8
 796              		.cfi_offset 14, -4
 593:/home/phong/Documents/thesis/stm32f4/stm-idf/components/stm32f4xx_hal_driver/stm32f4xx_hal_sram.c ****   /* Check the SRAM controller state */
 594:/home/phong/Documents/thesis/stm32f4/stm-idf/components/stm32f4xx_hal_driver/stm32f4xx_hal_sram.c ****   if(hsram->State == HAL_SRAM_STATE_PROTECTED)
 797              		.loc 1 594 0
 798 0002 90F84940 		ldrb	r4, [r0, #73]	@ zero_extendqisi2
 799 0006 E4B2     		uxtb	r4, r4
 800 0008 042C     		cmp	r4, #4
 801 000a 1ED0     		beq	.L64
 595:/home/phong/Documents/thesis/stm32f4/stm-idf/components/stm32f4xx_hal_driver/stm32f4xx_hal_sram.c ****   {
 596:/home/phong/Documents/thesis/stm32f4/stm-idf/components/stm32f4xx_hal_driver/stm32f4xx_hal_sram.c ****     return  HAL_ERROR; 
 597:/home/phong/Documents/thesis/stm32f4/stm-idf/components/stm32f4xx_hal_driver/stm32f4xx_hal_sram.c ****   }
 598:/home/phong/Documents/thesis/stm32f4/stm-idf/components/stm32f4xx_hal_driver/stm32f4xx_hal_sram.c ****   
 599:/home/phong/Documents/thesis/stm32f4/stm-idf/components/stm32f4xx_hal_driver/stm32f4xx_hal_sram.c ****   /* Process Locked */
 600:/home/phong/Documents/thesis/stm32f4/stm-idf/components/stm32f4xx_hal_driver/stm32f4xx_hal_sram.c ****   __HAL_LOCK(hsram);
 802              		.loc 1 600 0
ARM GAS  /tmp/cc9XlVWc.s 			page 26


 803 000c 90F84840 		ldrb	r4, [r0, #72]	@ zero_extendqisi2
 804 0010 012C     		cmp	r4, #1
 805 0012 01D1     		bne	.L67
 806 0014 0220     		movs	r0, #2
 807              	.LVL85:
 601:/home/phong/Documents/thesis/stm32f4/stm-idf/components/stm32f4xx_hal_driver/stm32f4xx_hal_sram.c ****   
 602:/home/phong/Documents/thesis/stm32f4/stm-idf/components/stm32f4xx_hal_driver/stm32f4xx_hal_sram.c ****   /* Update the SRAM controller state */
 603:/home/phong/Documents/thesis/stm32f4/stm-idf/components/stm32f4xx_hal_driver/stm32f4xx_hal_sram.c ****   hsram->State = HAL_SRAM_STATE_BUSY; 
 604:/home/phong/Documents/thesis/stm32f4/stm-idf/components/stm32f4xx_hal_driver/stm32f4xx_hal_sram.c ****   
 605:/home/phong/Documents/thesis/stm32f4/stm-idf/components/stm32f4xx_hal_driver/stm32f4xx_hal_sram.c ****   /* Configure DMA user callbacks */
 606:/home/phong/Documents/thesis/stm32f4/stm-idf/components/stm32f4xx_hal_driver/stm32f4xx_hal_sram.c ****   hsram->hdma->XferCpltCallback  = HAL_SRAM_DMA_XferCpltCallback;
 607:/home/phong/Documents/thesis/stm32f4/stm-idf/components/stm32f4xx_hal_driver/stm32f4xx_hal_sram.c ****   hsram->hdma->XferErrorCallback = HAL_SRAM_DMA_XferErrorCallback;
 608:/home/phong/Documents/thesis/stm32f4/stm-idf/components/stm32f4xx_hal_driver/stm32f4xx_hal_sram.c **** 
 609:/home/phong/Documents/thesis/stm32f4/stm-idf/components/stm32f4xx_hal_driver/stm32f4xx_hal_sram.c ****   /* Enable the DMA Stream */
 610:/home/phong/Documents/thesis/stm32f4/stm-idf/components/stm32f4xx_hal_driver/stm32f4xx_hal_sram.c ****   HAL_DMA_Start_IT(hsram->hdma, (uint32_t)pSrcBuffer, (uint32_t)pAddress, (uint32_t)BufferSize);
 611:/home/phong/Documents/thesis/stm32f4/stm-idf/components/stm32f4xx_hal_driver/stm32f4xx_hal_sram.c ****   
 612:/home/phong/Documents/thesis/stm32f4/stm-idf/components/stm32f4xx_hal_driver/stm32f4xx_hal_sram.c ****   /* Update the SRAM controller state */
 613:/home/phong/Documents/thesis/stm32f4/stm-idf/components/stm32f4xx_hal_driver/stm32f4xx_hal_sram.c ****   hsram->State = HAL_SRAM_STATE_READY;  
 614:/home/phong/Documents/thesis/stm32f4/stm-idf/components/stm32f4xx_hal_driver/stm32f4xx_hal_sram.c ****   
 615:/home/phong/Documents/thesis/stm32f4/stm-idf/components/stm32f4xx_hal_driver/stm32f4xx_hal_sram.c ****   /* Process unlocked */
 616:/home/phong/Documents/thesis/stm32f4/stm-idf/components/stm32f4xx_hal_driver/stm32f4xx_hal_sram.c ****   __HAL_UNLOCK(hsram);  
 617:/home/phong/Documents/thesis/stm32f4/stm-idf/components/stm32f4xx_hal_driver/stm32f4xx_hal_sram.c ****   
 618:/home/phong/Documents/thesis/stm32f4/stm-idf/components/stm32f4xx_hal_driver/stm32f4xx_hal_sram.c ****   return HAL_OK;
 619:/home/phong/Documents/thesis/stm32f4/stm-idf/components/stm32f4xx_hal_driver/stm32f4xx_hal_sram.c **** }
 808              		.loc 1 619 0
 809 0016 70BD     		pop	{r4, r5, r6, pc}
 810              	.LVL86:
 811              	.L67:
 812 0018 1546     		mov	r5, r2
 813 001a 0A46     		mov	r2, r1
 814              	.LVL87:
 815 001c 0446     		mov	r4, r0
 600:/home/phong/Documents/thesis/stm32f4/stm-idf/components/stm32f4xx_hal_driver/stm32f4xx_hal_sram.c ****   
 816              		.loc 1 600 0 discriminator 2
 817 001e 0126     		movs	r6, #1
 818 0020 80F84860 		strb	r6, [r0, #72]
 603:/home/phong/Documents/thesis/stm32f4/stm-idf/components/stm32f4xx_hal_driver/stm32f4xx_hal_sram.c ****   
 819              		.loc 1 603 0 discriminator 2
 820 0024 0221     		movs	r1, #2
 821              	.LVL88:
 822 0026 80F84910 		strb	r1, [r0, #73]
 606:/home/phong/Documents/thesis/stm32f4/stm-idf/components/stm32f4xx_hal_driver/stm32f4xx_hal_sram.c ****   hsram->hdma->XferErrorCallback = HAL_SRAM_DMA_XferErrorCallback;
 823              		.loc 1 606 0 discriminator 2
 824 002a C16C     		ldr	r1, [r0, #76]
 825 002c 0848     		ldr	r0, .L68
 826              	.LVL89:
 827 002e C863     		str	r0, [r1, #60]
 607:/home/phong/Documents/thesis/stm32f4/stm-idf/components/stm32f4xx_hal_driver/stm32f4xx_hal_sram.c **** 
 828              		.loc 1 607 0 discriminator 2
 829 0030 E16C     		ldr	r1, [r4, #76]
 830 0032 0848     		ldr	r0, .L68+4
 831 0034 C864     		str	r0, [r1, #76]
 610:/home/phong/Documents/thesis/stm32f4/stm-idf/components/stm32f4xx_hal_driver/stm32f4xx_hal_sram.c ****   
 832              		.loc 1 610 0 discriminator 2
 833 0036 2946     		mov	r1, r5
 834 0038 E06C     		ldr	r0, [r4, #76]
 835 003a FFF7FEFF 		bl	HAL_DMA_Start_IT
ARM GAS  /tmp/cc9XlVWc.s 			page 27


 836              	.LVL90:
 613:/home/phong/Documents/thesis/stm32f4/stm-idf/components/stm32f4xx_hal_driver/stm32f4xx_hal_sram.c ****   
 837              		.loc 1 613 0 discriminator 2
 838 003e 84F84960 		strb	r6, [r4, #73]
 616:/home/phong/Documents/thesis/stm32f4/stm-idf/components/stm32f4xx_hal_driver/stm32f4xx_hal_sram.c ****   
 839              		.loc 1 616 0 discriminator 2
 840 0042 0020     		movs	r0, #0
 841 0044 84F84800 		strb	r0, [r4, #72]
 618:/home/phong/Documents/thesis/stm32f4/stm-idf/components/stm32f4xx_hal_driver/stm32f4xx_hal_sram.c **** }
 842              		.loc 1 618 0 discriminator 2
 843 0048 70BD     		pop	{r4, r5, r6, pc}
 844              	.LVL91:
 845              	.L64:
 596:/home/phong/Documents/thesis/stm32f4/stm-idf/components/stm32f4xx_hal_driver/stm32f4xx_hal_sram.c ****   }
 846              		.loc 1 596 0
 847 004a 0120     		movs	r0, #1
 848              	.LVL92:
 849 004c 70BD     		pop	{r4, r5, r6, pc}
 850              	.L69:
 851 004e 00BF     		.align	2
 852              	.L68:
 853 0050 00000000 		.word	HAL_SRAM_DMA_XferCpltCallback
 854 0054 00000000 		.word	HAL_SRAM_DMA_XferErrorCallback
 855              		.cfi_endproc
 856              	.LFE143:
 858              		.section	.text.HAL_SRAM_WriteOperation_Enable,"ax",%progbits
 859              		.align	1
 860              		.global	HAL_SRAM_WriteOperation_Enable
 861              		.syntax unified
 862              		.thumb
 863              		.thumb_func
 864              		.fpu fpv4-sp-d16
 866              	HAL_SRAM_WriteOperation_Enable:
 867              	.LFB144:
 620:/home/phong/Documents/thesis/stm32f4/stm-idf/components/stm32f4xx_hal_driver/stm32f4xx_hal_sram.c **** 
 621:/home/phong/Documents/thesis/stm32f4/stm-idf/components/stm32f4xx_hal_driver/stm32f4xx_hal_sram.c **** #if (USE_HAL_SRAM_REGISTER_CALLBACKS == 1)
 622:/home/phong/Documents/thesis/stm32f4/stm-idf/components/stm32f4xx_hal_driver/stm32f4xx_hal_sram.c **** /**
 623:/home/phong/Documents/thesis/stm32f4/stm-idf/components/stm32f4xx_hal_driver/stm32f4xx_hal_sram.c ****   * @brief  Register a User SRAM Callback
 624:/home/phong/Documents/thesis/stm32f4/stm-idf/components/stm32f4xx_hal_driver/stm32f4xx_hal_sram.c ****   *         To be used instead of the weak (surcharged) predefined callback
 625:/home/phong/Documents/thesis/stm32f4/stm-idf/components/stm32f4xx_hal_driver/stm32f4xx_hal_sram.c ****   * @param hsram : SRAM handle
 626:/home/phong/Documents/thesis/stm32f4/stm-idf/components/stm32f4xx_hal_driver/stm32f4xx_hal_sram.c ****   * @param CallbackId : ID of the callback to be registered
 627:/home/phong/Documents/thesis/stm32f4/stm-idf/components/stm32f4xx_hal_driver/stm32f4xx_hal_sram.c ****   *        This parameter can be one of the following values:
 628:/home/phong/Documents/thesis/stm32f4/stm-idf/components/stm32f4xx_hal_driver/stm32f4xx_hal_sram.c ****   *          @arg @ref HAL_SRAM_MSP_INIT_CB_ID       SRAM MspInit callback ID
 629:/home/phong/Documents/thesis/stm32f4/stm-idf/components/stm32f4xx_hal_driver/stm32f4xx_hal_sram.c ****   *          @arg @ref HAL_SRAM_MSP_DEINIT_CB_ID     SRAM MspDeInit callback ID
 630:/home/phong/Documents/thesis/stm32f4/stm-idf/components/stm32f4xx_hal_driver/stm32f4xx_hal_sram.c ****   * @param pCallback : pointer to the Callback function
 631:/home/phong/Documents/thesis/stm32f4/stm-idf/components/stm32f4xx_hal_driver/stm32f4xx_hal_sram.c ****   * @retval status
 632:/home/phong/Documents/thesis/stm32f4/stm-idf/components/stm32f4xx_hal_driver/stm32f4xx_hal_sram.c ****   */
 633:/home/phong/Documents/thesis/stm32f4/stm-idf/components/stm32f4xx_hal_driver/stm32f4xx_hal_sram.c **** HAL_StatusTypeDef HAL_SRAM_RegisterCallback (SRAM_HandleTypeDef *hsram, HAL_SRAM_CallbackIDTypeDef 
 634:/home/phong/Documents/thesis/stm32f4/stm-idf/components/stm32f4xx_hal_driver/stm32f4xx_hal_sram.c **** {
 635:/home/phong/Documents/thesis/stm32f4/stm-idf/components/stm32f4xx_hal_driver/stm32f4xx_hal_sram.c ****   HAL_StatusTypeDef status = HAL_OK;
 636:/home/phong/Documents/thesis/stm32f4/stm-idf/components/stm32f4xx_hal_driver/stm32f4xx_hal_sram.c ****   HAL_SRAM_StateTypeDef state;
 637:/home/phong/Documents/thesis/stm32f4/stm-idf/components/stm32f4xx_hal_driver/stm32f4xx_hal_sram.c **** 
 638:/home/phong/Documents/thesis/stm32f4/stm-idf/components/stm32f4xx_hal_driver/stm32f4xx_hal_sram.c ****   if(pCallback == NULL)
 639:/home/phong/Documents/thesis/stm32f4/stm-idf/components/stm32f4xx_hal_driver/stm32f4xx_hal_sram.c ****   {
 640:/home/phong/Documents/thesis/stm32f4/stm-idf/components/stm32f4xx_hal_driver/stm32f4xx_hal_sram.c ****     return HAL_ERROR;
 641:/home/phong/Documents/thesis/stm32f4/stm-idf/components/stm32f4xx_hal_driver/stm32f4xx_hal_sram.c ****   }
 642:/home/phong/Documents/thesis/stm32f4/stm-idf/components/stm32f4xx_hal_driver/stm32f4xx_hal_sram.c **** 
ARM GAS  /tmp/cc9XlVWc.s 			page 28


 643:/home/phong/Documents/thesis/stm32f4/stm-idf/components/stm32f4xx_hal_driver/stm32f4xx_hal_sram.c ****   /* Process locked */
 644:/home/phong/Documents/thesis/stm32f4/stm-idf/components/stm32f4xx_hal_driver/stm32f4xx_hal_sram.c ****   __HAL_LOCK(hsram);
 645:/home/phong/Documents/thesis/stm32f4/stm-idf/components/stm32f4xx_hal_driver/stm32f4xx_hal_sram.c **** 
 646:/home/phong/Documents/thesis/stm32f4/stm-idf/components/stm32f4xx_hal_driver/stm32f4xx_hal_sram.c ****   state = hsram->State;
 647:/home/phong/Documents/thesis/stm32f4/stm-idf/components/stm32f4xx_hal_driver/stm32f4xx_hal_sram.c ****   if((state == HAL_SRAM_STATE_READY) || (state == HAL_SRAM_STATE_RESET) || (state == HAL_SRAM_STATE
 648:/home/phong/Documents/thesis/stm32f4/stm-idf/components/stm32f4xx_hal_driver/stm32f4xx_hal_sram.c ****   {
 649:/home/phong/Documents/thesis/stm32f4/stm-idf/components/stm32f4xx_hal_driver/stm32f4xx_hal_sram.c ****     switch (CallbackId)
 650:/home/phong/Documents/thesis/stm32f4/stm-idf/components/stm32f4xx_hal_driver/stm32f4xx_hal_sram.c ****     {
 651:/home/phong/Documents/thesis/stm32f4/stm-idf/components/stm32f4xx_hal_driver/stm32f4xx_hal_sram.c ****     case HAL_SRAM_MSP_INIT_CB_ID :
 652:/home/phong/Documents/thesis/stm32f4/stm-idf/components/stm32f4xx_hal_driver/stm32f4xx_hal_sram.c ****       hsram->MspInitCallback = pCallback;
 653:/home/phong/Documents/thesis/stm32f4/stm-idf/components/stm32f4xx_hal_driver/stm32f4xx_hal_sram.c ****       break;
 654:/home/phong/Documents/thesis/stm32f4/stm-idf/components/stm32f4xx_hal_driver/stm32f4xx_hal_sram.c ****     case HAL_SRAM_MSP_DEINIT_CB_ID :
 655:/home/phong/Documents/thesis/stm32f4/stm-idf/components/stm32f4xx_hal_driver/stm32f4xx_hal_sram.c ****       hsram->MspDeInitCallback = pCallback;
 656:/home/phong/Documents/thesis/stm32f4/stm-idf/components/stm32f4xx_hal_driver/stm32f4xx_hal_sram.c ****       break;
 657:/home/phong/Documents/thesis/stm32f4/stm-idf/components/stm32f4xx_hal_driver/stm32f4xx_hal_sram.c ****     default :
 658:/home/phong/Documents/thesis/stm32f4/stm-idf/components/stm32f4xx_hal_driver/stm32f4xx_hal_sram.c ****       /* update return status */
 659:/home/phong/Documents/thesis/stm32f4/stm-idf/components/stm32f4xx_hal_driver/stm32f4xx_hal_sram.c ****       status =  HAL_ERROR;
 660:/home/phong/Documents/thesis/stm32f4/stm-idf/components/stm32f4xx_hal_driver/stm32f4xx_hal_sram.c ****       break;
 661:/home/phong/Documents/thesis/stm32f4/stm-idf/components/stm32f4xx_hal_driver/stm32f4xx_hal_sram.c ****     }
 662:/home/phong/Documents/thesis/stm32f4/stm-idf/components/stm32f4xx_hal_driver/stm32f4xx_hal_sram.c ****   }
 663:/home/phong/Documents/thesis/stm32f4/stm-idf/components/stm32f4xx_hal_driver/stm32f4xx_hal_sram.c ****   else
 664:/home/phong/Documents/thesis/stm32f4/stm-idf/components/stm32f4xx_hal_driver/stm32f4xx_hal_sram.c ****   {
 665:/home/phong/Documents/thesis/stm32f4/stm-idf/components/stm32f4xx_hal_driver/stm32f4xx_hal_sram.c ****     /* update return status */
 666:/home/phong/Documents/thesis/stm32f4/stm-idf/components/stm32f4xx_hal_driver/stm32f4xx_hal_sram.c ****     status =  HAL_ERROR;
 667:/home/phong/Documents/thesis/stm32f4/stm-idf/components/stm32f4xx_hal_driver/stm32f4xx_hal_sram.c ****   }
 668:/home/phong/Documents/thesis/stm32f4/stm-idf/components/stm32f4xx_hal_driver/stm32f4xx_hal_sram.c **** 
 669:/home/phong/Documents/thesis/stm32f4/stm-idf/components/stm32f4xx_hal_driver/stm32f4xx_hal_sram.c ****   /* Release Lock */
 670:/home/phong/Documents/thesis/stm32f4/stm-idf/components/stm32f4xx_hal_driver/stm32f4xx_hal_sram.c ****   __HAL_UNLOCK(hsram);
 671:/home/phong/Documents/thesis/stm32f4/stm-idf/components/stm32f4xx_hal_driver/stm32f4xx_hal_sram.c ****   return status;
 672:/home/phong/Documents/thesis/stm32f4/stm-idf/components/stm32f4xx_hal_driver/stm32f4xx_hal_sram.c **** }
 673:/home/phong/Documents/thesis/stm32f4/stm-idf/components/stm32f4xx_hal_driver/stm32f4xx_hal_sram.c **** 
 674:/home/phong/Documents/thesis/stm32f4/stm-idf/components/stm32f4xx_hal_driver/stm32f4xx_hal_sram.c **** /**
 675:/home/phong/Documents/thesis/stm32f4/stm-idf/components/stm32f4xx_hal_driver/stm32f4xx_hal_sram.c ****   * @brief  Unregister a User SRAM Callback
 676:/home/phong/Documents/thesis/stm32f4/stm-idf/components/stm32f4xx_hal_driver/stm32f4xx_hal_sram.c ****   *         SRAM Callback is redirected to the weak (surcharged) predefined callback
 677:/home/phong/Documents/thesis/stm32f4/stm-idf/components/stm32f4xx_hal_driver/stm32f4xx_hal_sram.c ****   * @param hsram : SRAM handle
 678:/home/phong/Documents/thesis/stm32f4/stm-idf/components/stm32f4xx_hal_driver/stm32f4xx_hal_sram.c ****   * @param CallbackId : ID of the callback to be unregistered
 679:/home/phong/Documents/thesis/stm32f4/stm-idf/components/stm32f4xx_hal_driver/stm32f4xx_hal_sram.c ****   *        This parameter can be one of the following values:
 680:/home/phong/Documents/thesis/stm32f4/stm-idf/components/stm32f4xx_hal_driver/stm32f4xx_hal_sram.c ****   *          @arg @ref HAL_SRAM_MSP_INIT_CB_ID       SRAM MspInit callback ID
 681:/home/phong/Documents/thesis/stm32f4/stm-idf/components/stm32f4xx_hal_driver/stm32f4xx_hal_sram.c ****   *          @arg @ref HAL_SRAM_MSP_DEINIT_CB_ID     SRAM MspDeInit callback ID
 682:/home/phong/Documents/thesis/stm32f4/stm-idf/components/stm32f4xx_hal_driver/stm32f4xx_hal_sram.c ****   *          @arg @ref HAL_SRAM_DMA_XFER_CPLT_CB_ID  SRAM DMA Xfer Complete callback ID
 683:/home/phong/Documents/thesis/stm32f4/stm-idf/components/stm32f4xx_hal_driver/stm32f4xx_hal_sram.c ****   *          @arg @ref HAL_SRAM_DMA_XFER_ERR_CB_ID   SRAM DMA Xfer Error callback ID
 684:/home/phong/Documents/thesis/stm32f4/stm-idf/components/stm32f4xx_hal_driver/stm32f4xx_hal_sram.c ****   * @retval status
 685:/home/phong/Documents/thesis/stm32f4/stm-idf/components/stm32f4xx_hal_driver/stm32f4xx_hal_sram.c ****   */
 686:/home/phong/Documents/thesis/stm32f4/stm-idf/components/stm32f4xx_hal_driver/stm32f4xx_hal_sram.c **** HAL_StatusTypeDef HAL_SRAM_UnRegisterCallback (SRAM_HandleTypeDef *hsram, HAL_SRAM_CallbackIDTypeDe
 687:/home/phong/Documents/thesis/stm32f4/stm-idf/components/stm32f4xx_hal_driver/stm32f4xx_hal_sram.c **** {
 688:/home/phong/Documents/thesis/stm32f4/stm-idf/components/stm32f4xx_hal_driver/stm32f4xx_hal_sram.c ****   HAL_StatusTypeDef status = HAL_OK;
 689:/home/phong/Documents/thesis/stm32f4/stm-idf/components/stm32f4xx_hal_driver/stm32f4xx_hal_sram.c ****   HAL_SRAM_StateTypeDef state;
 690:/home/phong/Documents/thesis/stm32f4/stm-idf/components/stm32f4xx_hal_driver/stm32f4xx_hal_sram.c **** 
 691:/home/phong/Documents/thesis/stm32f4/stm-idf/components/stm32f4xx_hal_driver/stm32f4xx_hal_sram.c ****   /* Process locked */
 692:/home/phong/Documents/thesis/stm32f4/stm-idf/components/stm32f4xx_hal_driver/stm32f4xx_hal_sram.c ****   __HAL_LOCK(hsram);
 693:/home/phong/Documents/thesis/stm32f4/stm-idf/components/stm32f4xx_hal_driver/stm32f4xx_hal_sram.c **** 
 694:/home/phong/Documents/thesis/stm32f4/stm-idf/components/stm32f4xx_hal_driver/stm32f4xx_hal_sram.c ****   state = hsram->State;
 695:/home/phong/Documents/thesis/stm32f4/stm-idf/components/stm32f4xx_hal_driver/stm32f4xx_hal_sram.c ****   if((state == HAL_SRAM_STATE_READY) || (state == HAL_SRAM_STATE_PROTECTED))
 696:/home/phong/Documents/thesis/stm32f4/stm-idf/components/stm32f4xx_hal_driver/stm32f4xx_hal_sram.c ****   {
 697:/home/phong/Documents/thesis/stm32f4/stm-idf/components/stm32f4xx_hal_driver/stm32f4xx_hal_sram.c ****     switch (CallbackId)
 698:/home/phong/Documents/thesis/stm32f4/stm-idf/components/stm32f4xx_hal_driver/stm32f4xx_hal_sram.c ****     {
 699:/home/phong/Documents/thesis/stm32f4/stm-idf/components/stm32f4xx_hal_driver/stm32f4xx_hal_sram.c ****     case HAL_SRAM_MSP_INIT_CB_ID :
ARM GAS  /tmp/cc9XlVWc.s 			page 29


 700:/home/phong/Documents/thesis/stm32f4/stm-idf/components/stm32f4xx_hal_driver/stm32f4xx_hal_sram.c ****       hsram->MspInitCallback = HAL_SRAM_MspInit;
 701:/home/phong/Documents/thesis/stm32f4/stm-idf/components/stm32f4xx_hal_driver/stm32f4xx_hal_sram.c ****       break;
 702:/home/phong/Documents/thesis/stm32f4/stm-idf/components/stm32f4xx_hal_driver/stm32f4xx_hal_sram.c ****     case HAL_SRAM_MSP_DEINIT_CB_ID :
 703:/home/phong/Documents/thesis/stm32f4/stm-idf/components/stm32f4xx_hal_driver/stm32f4xx_hal_sram.c ****       hsram->MspDeInitCallback = HAL_SRAM_MspDeInit;
 704:/home/phong/Documents/thesis/stm32f4/stm-idf/components/stm32f4xx_hal_driver/stm32f4xx_hal_sram.c ****       break;
 705:/home/phong/Documents/thesis/stm32f4/stm-idf/components/stm32f4xx_hal_driver/stm32f4xx_hal_sram.c ****     case HAL_SRAM_DMA_XFER_CPLT_CB_ID :
 706:/home/phong/Documents/thesis/stm32f4/stm-idf/components/stm32f4xx_hal_driver/stm32f4xx_hal_sram.c ****       hsram->DmaXferCpltCallback = HAL_SRAM_DMA_XferCpltCallback;
 707:/home/phong/Documents/thesis/stm32f4/stm-idf/components/stm32f4xx_hal_driver/stm32f4xx_hal_sram.c ****       break;
 708:/home/phong/Documents/thesis/stm32f4/stm-idf/components/stm32f4xx_hal_driver/stm32f4xx_hal_sram.c ****     case HAL_SRAM_DMA_XFER_ERR_CB_ID :
 709:/home/phong/Documents/thesis/stm32f4/stm-idf/components/stm32f4xx_hal_driver/stm32f4xx_hal_sram.c ****       hsram->DmaXferErrorCallback = HAL_SRAM_DMA_XferErrorCallback;
 710:/home/phong/Documents/thesis/stm32f4/stm-idf/components/stm32f4xx_hal_driver/stm32f4xx_hal_sram.c ****       break;
 711:/home/phong/Documents/thesis/stm32f4/stm-idf/components/stm32f4xx_hal_driver/stm32f4xx_hal_sram.c ****     default :
 712:/home/phong/Documents/thesis/stm32f4/stm-idf/components/stm32f4xx_hal_driver/stm32f4xx_hal_sram.c ****       /* update return status */
 713:/home/phong/Documents/thesis/stm32f4/stm-idf/components/stm32f4xx_hal_driver/stm32f4xx_hal_sram.c ****       status =  HAL_ERROR;
 714:/home/phong/Documents/thesis/stm32f4/stm-idf/components/stm32f4xx_hal_driver/stm32f4xx_hal_sram.c ****       break;
 715:/home/phong/Documents/thesis/stm32f4/stm-idf/components/stm32f4xx_hal_driver/stm32f4xx_hal_sram.c ****     }
 716:/home/phong/Documents/thesis/stm32f4/stm-idf/components/stm32f4xx_hal_driver/stm32f4xx_hal_sram.c ****   }
 717:/home/phong/Documents/thesis/stm32f4/stm-idf/components/stm32f4xx_hal_driver/stm32f4xx_hal_sram.c ****   else if(state == HAL_SRAM_STATE_RESET)
 718:/home/phong/Documents/thesis/stm32f4/stm-idf/components/stm32f4xx_hal_driver/stm32f4xx_hal_sram.c ****   {
 719:/home/phong/Documents/thesis/stm32f4/stm-idf/components/stm32f4xx_hal_driver/stm32f4xx_hal_sram.c ****     switch (CallbackId)
 720:/home/phong/Documents/thesis/stm32f4/stm-idf/components/stm32f4xx_hal_driver/stm32f4xx_hal_sram.c ****     {
 721:/home/phong/Documents/thesis/stm32f4/stm-idf/components/stm32f4xx_hal_driver/stm32f4xx_hal_sram.c ****     case HAL_SRAM_MSP_INIT_CB_ID :
 722:/home/phong/Documents/thesis/stm32f4/stm-idf/components/stm32f4xx_hal_driver/stm32f4xx_hal_sram.c ****       hsram->MspInitCallback = HAL_SRAM_MspInit;
 723:/home/phong/Documents/thesis/stm32f4/stm-idf/components/stm32f4xx_hal_driver/stm32f4xx_hal_sram.c ****       break;
 724:/home/phong/Documents/thesis/stm32f4/stm-idf/components/stm32f4xx_hal_driver/stm32f4xx_hal_sram.c ****     case HAL_SRAM_MSP_DEINIT_CB_ID :
 725:/home/phong/Documents/thesis/stm32f4/stm-idf/components/stm32f4xx_hal_driver/stm32f4xx_hal_sram.c ****       hsram->MspDeInitCallback = HAL_SRAM_MspDeInit;
 726:/home/phong/Documents/thesis/stm32f4/stm-idf/components/stm32f4xx_hal_driver/stm32f4xx_hal_sram.c ****       break;
 727:/home/phong/Documents/thesis/stm32f4/stm-idf/components/stm32f4xx_hal_driver/stm32f4xx_hal_sram.c ****     default :
 728:/home/phong/Documents/thesis/stm32f4/stm-idf/components/stm32f4xx_hal_driver/stm32f4xx_hal_sram.c ****       /* update return status */
 729:/home/phong/Documents/thesis/stm32f4/stm-idf/components/stm32f4xx_hal_driver/stm32f4xx_hal_sram.c ****       status =  HAL_ERROR;
 730:/home/phong/Documents/thesis/stm32f4/stm-idf/components/stm32f4xx_hal_driver/stm32f4xx_hal_sram.c ****       break;
 731:/home/phong/Documents/thesis/stm32f4/stm-idf/components/stm32f4xx_hal_driver/stm32f4xx_hal_sram.c ****     }
 732:/home/phong/Documents/thesis/stm32f4/stm-idf/components/stm32f4xx_hal_driver/stm32f4xx_hal_sram.c ****   }
 733:/home/phong/Documents/thesis/stm32f4/stm-idf/components/stm32f4xx_hal_driver/stm32f4xx_hal_sram.c ****   else
 734:/home/phong/Documents/thesis/stm32f4/stm-idf/components/stm32f4xx_hal_driver/stm32f4xx_hal_sram.c ****   {
 735:/home/phong/Documents/thesis/stm32f4/stm-idf/components/stm32f4xx_hal_driver/stm32f4xx_hal_sram.c ****     /* update return status */
 736:/home/phong/Documents/thesis/stm32f4/stm-idf/components/stm32f4xx_hal_driver/stm32f4xx_hal_sram.c ****     status =  HAL_ERROR;
 737:/home/phong/Documents/thesis/stm32f4/stm-idf/components/stm32f4xx_hal_driver/stm32f4xx_hal_sram.c ****   }
 738:/home/phong/Documents/thesis/stm32f4/stm-idf/components/stm32f4xx_hal_driver/stm32f4xx_hal_sram.c **** 
 739:/home/phong/Documents/thesis/stm32f4/stm-idf/components/stm32f4xx_hal_driver/stm32f4xx_hal_sram.c ****   /* Release Lock */
 740:/home/phong/Documents/thesis/stm32f4/stm-idf/components/stm32f4xx_hal_driver/stm32f4xx_hal_sram.c ****   __HAL_UNLOCK(hsram);
 741:/home/phong/Documents/thesis/stm32f4/stm-idf/components/stm32f4xx_hal_driver/stm32f4xx_hal_sram.c ****   return status;
 742:/home/phong/Documents/thesis/stm32f4/stm-idf/components/stm32f4xx_hal_driver/stm32f4xx_hal_sram.c **** }
 743:/home/phong/Documents/thesis/stm32f4/stm-idf/components/stm32f4xx_hal_driver/stm32f4xx_hal_sram.c **** 
 744:/home/phong/Documents/thesis/stm32f4/stm-idf/components/stm32f4xx_hal_driver/stm32f4xx_hal_sram.c **** /**
 745:/home/phong/Documents/thesis/stm32f4/stm-idf/components/stm32f4xx_hal_driver/stm32f4xx_hal_sram.c ****   * @brief  Register a User SRAM Callback for DMA transfers
 746:/home/phong/Documents/thesis/stm32f4/stm-idf/components/stm32f4xx_hal_driver/stm32f4xx_hal_sram.c ****   *         To be used instead of the weak (surcharged) predefined callback
 747:/home/phong/Documents/thesis/stm32f4/stm-idf/components/stm32f4xx_hal_driver/stm32f4xx_hal_sram.c ****   * @param hsram : SRAM handle
 748:/home/phong/Documents/thesis/stm32f4/stm-idf/components/stm32f4xx_hal_driver/stm32f4xx_hal_sram.c ****   * @param CallbackId : ID of the callback to be registered
 749:/home/phong/Documents/thesis/stm32f4/stm-idf/components/stm32f4xx_hal_driver/stm32f4xx_hal_sram.c ****   *        This parameter can be one of the following values:
 750:/home/phong/Documents/thesis/stm32f4/stm-idf/components/stm32f4xx_hal_driver/stm32f4xx_hal_sram.c ****   *          @arg @ref HAL_SRAM_DMA_XFER_CPLT_CB_ID  SRAM DMA Xfer Complete callback ID
 751:/home/phong/Documents/thesis/stm32f4/stm-idf/components/stm32f4xx_hal_driver/stm32f4xx_hal_sram.c ****   *          @arg @ref HAL_SRAM_DMA_XFER_ERR_CB_ID   SRAM DMA Xfer Error callback ID
 752:/home/phong/Documents/thesis/stm32f4/stm-idf/components/stm32f4xx_hal_driver/stm32f4xx_hal_sram.c ****   * @param pCallback : pointer to the Callback function
 753:/home/phong/Documents/thesis/stm32f4/stm-idf/components/stm32f4xx_hal_driver/stm32f4xx_hal_sram.c ****   * @retval status
 754:/home/phong/Documents/thesis/stm32f4/stm-idf/components/stm32f4xx_hal_driver/stm32f4xx_hal_sram.c ****   */
 755:/home/phong/Documents/thesis/stm32f4/stm-idf/components/stm32f4xx_hal_driver/stm32f4xx_hal_sram.c **** HAL_StatusTypeDef HAL_SRAM_RegisterDmaCallback(SRAM_HandleTypeDef *hsram, HAL_SRAM_CallbackIDTypeDe
 756:/home/phong/Documents/thesis/stm32f4/stm-idf/components/stm32f4xx_hal_driver/stm32f4xx_hal_sram.c **** {
ARM GAS  /tmp/cc9XlVWc.s 			page 30


 757:/home/phong/Documents/thesis/stm32f4/stm-idf/components/stm32f4xx_hal_driver/stm32f4xx_hal_sram.c ****   HAL_StatusTypeDef status = HAL_OK;
 758:/home/phong/Documents/thesis/stm32f4/stm-idf/components/stm32f4xx_hal_driver/stm32f4xx_hal_sram.c ****   HAL_SRAM_StateTypeDef state;
 759:/home/phong/Documents/thesis/stm32f4/stm-idf/components/stm32f4xx_hal_driver/stm32f4xx_hal_sram.c **** 
 760:/home/phong/Documents/thesis/stm32f4/stm-idf/components/stm32f4xx_hal_driver/stm32f4xx_hal_sram.c ****   if(pCallback == NULL)
 761:/home/phong/Documents/thesis/stm32f4/stm-idf/components/stm32f4xx_hal_driver/stm32f4xx_hal_sram.c ****   {
 762:/home/phong/Documents/thesis/stm32f4/stm-idf/components/stm32f4xx_hal_driver/stm32f4xx_hal_sram.c ****     return HAL_ERROR;
 763:/home/phong/Documents/thesis/stm32f4/stm-idf/components/stm32f4xx_hal_driver/stm32f4xx_hal_sram.c ****   }
 764:/home/phong/Documents/thesis/stm32f4/stm-idf/components/stm32f4xx_hal_driver/stm32f4xx_hal_sram.c **** 
 765:/home/phong/Documents/thesis/stm32f4/stm-idf/components/stm32f4xx_hal_driver/stm32f4xx_hal_sram.c ****   /* Process locked */
 766:/home/phong/Documents/thesis/stm32f4/stm-idf/components/stm32f4xx_hal_driver/stm32f4xx_hal_sram.c ****   __HAL_LOCK(hsram);
 767:/home/phong/Documents/thesis/stm32f4/stm-idf/components/stm32f4xx_hal_driver/stm32f4xx_hal_sram.c **** 
 768:/home/phong/Documents/thesis/stm32f4/stm-idf/components/stm32f4xx_hal_driver/stm32f4xx_hal_sram.c ****   state = hsram->State;
 769:/home/phong/Documents/thesis/stm32f4/stm-idf/components/stm32f4xx_hal_driver/stm32f4xx_hal_sram.c ****   if((state == HAL_SRAM_STATE_READY) || (state == HAL_SRAM_STATE_PROTECTED))
 770:/home/phong/Documents/thesis/stm32f4/stm-idf/components/stm32f4xx_hal_driver/stm32f4xx_hal_sram.c ****   {
 771:/home/phong/Documents/thesis/stm32f4/stm-idf/components/stm32f4xx_hal_driver/stm32f4xx_hal_sram.c ****     switch (CallbackId)
 772:/home/phong/Documents/thesis/stm32f4/stm-idf/components/stm32f4xx_hal_driver/stm32f4xx_hal_sram.c ****     {
 773:/home/phong/Documents/thesis/stm32f4/stm-idf/components/stm32f4xx_hal_driver/stm32f4xx_hal_sram.c ****     case HAL_SRAM_DMA_XFER_CPLT_CB_ID :
 774:/home/phong/Documents/thesis/stm32f4/stm-idf/components/stm32f4xx_hal_driver/stm32f4xx_hal_sram.c ****       hsram->DmaXferCpltCallback = pCallback;
 775:/home/phong/Documents/thesis/stm32f4/stm-idf/components/stm32f4xx_hal_driver/stm32f4xx_hal_sram.c ****       break;
 776:/home/phong/Documents/thesis/stm32f4/stm-idf/components/stm32f4xx_hal_driver/stm32f4xx_hal_sram.c ****     case HAL_SRAM_DMA_XFER_ERR_CB_ID :
 777:/home/phong/Documents/thesis/stm32f4/stm-idf/components/stm32f4xx_hal_driver/stm32f4xx_hal_sram.c ****       hsram->DmaXferErrorCallback = pCallback;
 778:/home/phong/Documents/thesis/stm32f4/stm-idf/components/stm32f4xx_hal_driver/stm32f4xx_hal_sram.c ****       break;
 779:/home/phong/Documents/thesis/stm32f4/stm-idf/components/stm32f4xx_hal_driver/stm32f4xx_hal_sram.c ****     default :
 780:/home/phong/Documents/thesis/stm32f4/stm-idf/components/stm32f4xx_hal_driver/stm32f4xx_hal_sram.c ****       /* update return status */
 781:/home/phong/Documents/thesis/stm32f4/stm-idf/components/stm32f4xx_hal_driver/stm32f4xx_hal_sram.c ****       status =  HAL_ERROR;
 782:/home/phong/Documents/thesis/stm32f4/stm-idf/components/stm32f4xx_hal_driver/stm32f4xx_hal_sram.c ****       break;
 783:/home/phong/Documents/thesis/stm32f4/stm-idf/components/stm32f4xx_hal_driver/stm32f4xx_hal_sram.c ****     }
 784:/home/phong/Documents/thesis/stm32f4/stm-idf/components/stm32f4xx_hal_driver/stm32f4xx_hal_sram.c ****   }
 785:/home/phong/Documents/thesis/stm32f4/stm-idf/components/stm32f4xx_hal_driver/stm32f4xx_hal_sram.c ****   else
 786:/home/phong/Documents/thesis/stm32f4/stm-idf/components/stm32f4xx_hal_driver/stm32f4xx_hal_sram.c ****   {
 787:/home/phong/Documents/thesis/stm32f4/stm-idf/components/stm32f4xx_hal_driver/stm32f4xx_hal_sram.c ****     /* update return status */
 788:/home/phong/Documents/thesis/stm32f4/stm-idf/components/stm32f4xx_hal_driver/stm32f4xx_hal_sram.c ****     status =  HAL_ERROR;
 789:/home/phong/Documents/thesis/stm32f4/stm-idf/components/stm32f4xx_hal_driver/stm32f4xx_hal_sram.c ****   }
 790:/home/phong/Documents/thesis/stm32f4/stm-idf/components/stm32f4xx_hal_driver/stm32f4xx_hal_sram.c **** 
 791:/home/phong/Documents/thesis/stm32f4/stm-idf/components/stm32f4xx_hal_driver/stm32f4xx_hal_sram.c ****   /* Release Lock */
 792:/home/phong/Documents/thesis/stm32f4/stm-idf/components/stm32f4xx_hal_driver/stm32f4xx_hal_sram.c ****   __HAL_UNLOCK(hsram);
 793:/home/phong/Documents/thesis/stm32f4/stm-idf/components/stm32f4xx_hal_driver/stm32f4xx_hal_sram.c ****   return status;
 794:/home/phong/Documents/thesis/stm32f4/stm-idf/components/stm32f4xx_hal_driver/stm32f4xx_hal_sram.c **** }
 795:/home/phong/Documents/thesis/stm32f4/stm-idf/components/stm32f4xx_hal_driver/stm32f4xx_hal_sram.c **** #endif
 796:/home/phong/Documents/thesis/stm32f4/stm-idf/components/stm32f4xx_hal_driver/stm32f4xx_hal_sram.c **** /**
 797:/home/phong/Documents/thesis/stm32f4/stm-idf/components/stm32f4xx_hal_driver/stm32f4xx_hal_sram.c ****   * @}
 798:/home/phong/Documents/thesis/stm32f4/stm-idf/components/stm32f4xx_hal_driver/stm32f4xx_hal_sram.c ****   */
 799:/home/phong/Documents/thesis/stm32f4/stm-idf/components/stm32f4xx_hal_driver/stm32f4xx_hal_sram.c ****   
 800:/home/phong/Documents/thesis/stm32f4/stm-idf/components/stm32f4xx_hal_driver/stm32f4xx_hal_sram.c **** /** @defgroup SRAM_Exported_Functions_Group3 Control functions 
 801:/home/phong/Documents/thesis/stm32f4/stm-idf/components/stm32f4xx_hal_driver/stm32f4xx_hal_sram.c ****  *  @brief   management functions 
 802:/home/phong/Documents/thesis/stm32f4/stm-idf/components/stm32f4xx_hal_driver/stm32f4xx_hal_sram.c ****  *
 803:/home/phong/Documents/thesis/stm32f4/stm-idf/components/stm32f4xx_hal_driver/stm32f4xx_hal_sram.c **** @verbatim   
 804:/home/phong/Documents/thesis/stm32f4/stm-idf/components/stm32f4xx_hal_driver/stm32f4xx_hal_sram.c ****   ==============================================================================
 805:/home/phong/Documents/thesis/stm32f4/stm-idf/components/stm32f4xx_hal_driver/stm32f4xx_hal_sram.c ****                         ##### SRAM Control functions #####
 806:/home/phong/Documents/thesis/stm32f4/stm-idf/components/stm32f4xx_hal_driver/stm32f4xx_hal_sram.c ****   ==============================================================================  
 807:/home/phong/Documents/thesis/stm32f4/stm-idf/components/stm32f4xx_hal_driver/stm32f4xx_hal_sram.c ****   [..]
 808:/home/phong/Documents/thesis/stm32f4/stm-idf/components/stm32f4xx_hal_driver/stm32f4xx_hal_sram.c ****     This subsection provides a set of functions allowing to control dynamically
 809:/home/phong/Documents/thesis/stm32f4/stm-idf/components/stm32f4xx_hal_driver/stm32f4xx_hal_sram.c ****     the SRAM interface.
 810:/home/phong/Documents/thesis/stm32f4/stm-idf/components/stm32f4xx_hal_driver/stm32f4xx_hal_sram.c **** 
 811:/home/phong/Documents/thesis/stm32f4/stm-idf/components/stm32f4xx_hal_driver/stm32f4xx_hal_sram.c **** @endverbatim
 812:/home/phong/Documents/thesis/stm32f4/stm-idf/components/stm32f4xx_hal_driver/stm32f4xx_hal_sram.c ****   * @{
 813:/home/phong/Documents/thesis/stm32f4/stm-idf/components/stm32f4xx_hal_driver/stm32f4xx_hal_sram.c ****   */
ARM GAS  /tmp/cc9XlVWc.s 			page 31


 814:/home/phong/Documents/thesis/stm32f4/stm-idf/components/stm32f4xx_hal_driver/stm32f4xx_hal_sram.c ****     
 815:/home/phong/Documents/thesis/stm32f4/stm-idf/components/stm32f4xx_hal_driver/stm32f4xx_hal_sram.c **** /**
 816:/home/phong/Documents/thesis/stm32f4/stm-idf/components/stm32f4xx_hal_driver/stm32f4xx_hal_sram.c ****   * @brief  Enables dynamically SRAM write operation.
 817:/home/phong/Documents/thesis/stm32f4/stm-idf/components/stm32f4xx_hal_driver/stm32f4xx_hal_sram.c ****   * @param  hsram pointer to a SRAM_HandleTypeDef structure that contains
 818:/home/phong/Documents/thesis/stm32f4/stm-idf/components/stm32f4xx_hal_driver/stm32f4xx_hal_sram.c ****   *                the configuration information for SRAM module.
 819:/home/phong/Documents/thesis/stm32f4/stm-idf/components/stm32f4xx_hal_driver/stm32f4xx_hal_sram.c ****   * @retval HAL status
 820:/home/phong/Documents/thesis/stm32f4/stm-idf/components/stm32f4xx_hal_driver/stm32f4xx_hal_sram.c ****   */
 821:/home/phong/Documents/thesis/stm32f4/stm-idf/components/stm32f4xx_hal_driver/stm32f4xx_hal_sram.c **** HAL_StatusTypeDef HAL_SRAM_WriteOperation_Enable(SRAM_HandleTypeDef *hsram)
 822:/home/phong/Documents/thesis/stm32f4/stm-idf/components/stm32f4xx_hal_driver/stm32f4xx_hal_sram.c **** {
 868              		.loc 1 822 0
 869              		.cfi_startproc
 870              		@ args = 0, pretend = 0, frame = 0
 871              		@ frame_needed = 0, uses_anonymous_args = 0
 872              	.LVL93:
 873 0000 38B5     		push	{r3, r4, r5, lr}
 874              	.LCFI23:
 875              		.cfi_def_cfa_offset 16
 876              		.cfi_offset 3, -16
 877              		.cfi_offset 4, -12
 878              		.cfi_offset 5, -8
 879              		.cfi_offset 14, -4
 823:/home/phong/Documents/thesis/stm32f4/stm-idf/components/stm32f4xx_hal_driver/stm32f4xx_hal_sram.c ****   /* Process Locked */
 824:/home/phong/Documents/thesis/stm32f4/stm-idf/components/stm32f4xx_hal_driver/stm32f4xx_hal_sram.c ****   __HAL_LOCK(hsram);
 880              		.loc 1 824 0
 881 0002 90F84830 		ldrb	r3, [r0, #72]	@ zero_extendqisi2
 882 0006 012B     		cmp	r3, #1
 883 0008 01D1     		bne	.L74
 884 000a 0220     		movs	r0, #2
 885              	.LVL94:
 825:/home/phong/Documents/thesis/stm32f4/stm-idf/components/stm32f4xx_hal_driver/stm32f4xx_hal_sram.c **** 
 826:/home/phong/Documents/thesis/stm32f4/stm-idf/components/stm32f4xx_hal_driver/stm32f4xx_hal_sram.c ****   /* Enable write operation */
 827:/home/phong/Documents/thesis/stm32f4/stm-idf/components/stm32f4xx_hal_driver/stm32f4xx_hal_sram.c ****   FMC_NORSRAM_WriteOperation_Enable(hsram->Instance, hsram->Init.NSBank); 
 828:/home/phong/Documents/thesis/stm32f4/stm-idf/components/stm32f4xx_hal_driver/stm32f4xx_hal_sram.c ****   
 829:/home/phong/Documents/thesis/stm32f4/stm-idf/components/stm32f4xx_hal_driver/stm32f4xx_hal_sram.c ****   /* Update the SRAM controller state */
 830:/home/phong/Documents/thesis/stm32f4/stm-idf/components/stm32f4xx_hal_driver/stm32f4xx_hal_sram.c ****   hsram->State = HAL_SRAM_STATE_READY;
 831:/home/phong/Documents/thesis/stm32f4/stm-idf/components/stm32f4xx_hal_driver/stm32f4xx_hal_sram.c ****   
 832:/home/phong/Documents/thesis/stm32f4/stm-idf/components/stm32f4xx_hal_driver/stm32f4xx_hal_sram.c ****   /* Process unlocked */
 833:/home/phong/Documents/thesis/stm32f4/stm-idf/components/stm32f4xx_hal_driver/stm32f4xx_hal_sram.c ****   __HAL_UNLOCK(hsram); 
 834:/home/phong/Documents/thesis/stm32f4/stm-idf/components/stm32f4xx_hal_driver/stm32f4xx_hal_sram.c ****   
 835:/home/phong/Documents/thesis/stm32f4/stm-idf/components/stm32f4xx_hal_driver/stm32f4xx_hal_sram.c ****   return HAL_OK;  
 836:/home/phong/Documents/thesis/stm32f4/stm-idf/components/stm32f4xx_hal_driver/stm32f4xx_hal_sram.c **** }
 886              		.loc 1 836 0
 887 000c 38BD     		pop	{r3, r4, r5, pc}
 888              	.LVL95:
 889              	.L74:
 890 000e 0446     		mov	r4, r0
 824:/home/phong/Documents/thesis/stm32f4/stm-idf/components/stm32f4xx_hal_driver/stm32f4xx_hal_sram.c **** 
 891              		.loc 1 824 0 discriminator 2
 892 0010 0125     		movs	r5, #1
 893 0012 80F84850 		strb	r5, [r0, #72]
 827:/home/phong/Documents/thesis/stm32f4/stm-idf/components/stm32f4xx_hal_driver/stm32f4xx_hal_sram.c ****   
 894              		.loc 1 827 0 discriminator 2
 895 0016 8168     		ldr	r1, [r0, #8]
 896 0018 0068     		ldr	r0, [r0]
 897              	.LVL96:
 898 001a FFF7FEFF 		bl	FSMC_NORSRAM_WriteOperation_Enable
 899              	.LVL97:
ARM GAS  /tmp/cc9XlVWc.s 			page 32


 830:/home/phong/Documents/thesis/stm32f4/stm-idf/components/stm32f4xx_hal_driver/stm32f4xx_hal_sram.c ****   
 900              		.loc 1 830 0 discriminator 2
 901 001e 84F84950 		strb	r5, [r4, #73]
 833:/home/phong/Documents/thesis/stm32f4/stm-idf/components/stm32f4xx_hal_driver/stm32f4xx_hal_sram.c ****   
 902              		.loc 1 833 0 discriminator 2
 903 0022 0020     		movs	r0, #0
 904 0024 84F84800 		strb	r0, [r4, #72]
 835:/home/phong/Documents/thesis/stm32f4/stm-idf/components/stm32f4xx_hal_driver/stm32f4xx_hal_sram.c **** }
 905              		.loc 1 835 0 discriminator 2
 906 0028 38BD     		pop	{r3, r4, r5, pc}
 907              		.cfi_endproc
 908              	.LFE144:
 910              		.section	.text.HAL_SRAM_WriteOperation_Disable,"ax",%progbits
 911              		.align	1
 912              		.global	HAL_SRAM_WriteOperation_Disable
 913              		.syntax unified
 914              		.thumb
 915              		.thumb_func
 916              		.fpu fpv4-sp-d16
 918              	HAL_SRAM_WriteOperation_Disable:
 919              	.LFB145:
 837:/home/phong/Documents/thesis/stm32f4/stm-idf/components/stm32f4xx_hal_driver/stm32f4xx_hal_sram.c **** 
 838:/home/phong/Documents/thesis/stm32f4/stm-idf/components/stm32f4xx_hal_driver/stm32f4xx_hal_sram.c **** /**
 839:/home/phong/Documents/thesis/stm32f4/stm-idf/components/stm32f4xx_hal_driver/stm32f4xx_hal_sram.c ****   * @brief  Disables dynamically SRAM write operation.
 840:/home/phong/Documents/thesis/stm32f4/stm-idf/components/stm32f4xx_hal_driver/stm32f4xx_hal_sram.c ****   * @param  hsram pointer to a SRAM_HandleTypeDef structure that contains
 841:/home/phong/Documents/thesis/stm32f4/stm-idf/components/stm32f4xx_hal_driver/stm32f4xx_hal_sram.c ****   *                the configuration information for SRAM module.
 842:/home/phong/Documents/thesis/stm32f4/stm-idf/components/stm32f4xx_hal_driver/stm32f4xx_hal_sram.c ****   * @retval HAL status
 843:/home/phong/Documents/thesis/stm32f4/stm-idf/components/stm32f4xx_hal_driver/stm32f4xx_hal_sram.c ****   */
 844:/home/phong/Documents/thesis/stm32f4/stm-idf/components/stm32f4xx_hal_driver/stm32f4xx_hal_sram.c **** HAL_StatusTypeDef HAL_SRAM_WriteOperation_Disable(SRAM_HandleTypeDef *hsram)
 845:/home/phong/Documents/thesis/stm32f4/stm-idf/components/stm32f4xx_hal_driver/stm32f4xx_hal_sram.c **** {
 920              		.loc 1 845 0
 921              		.cfi_startproc
 922              		@ args = 0, pretend = 0, frame = 0
 923              		@ frame_needed = 0, uses_anonymous_args = 0
 924              	.LVL98:
 846:/home/phong/Documents/thesis/stm32f4/stm-idf/components/stm32f4xx_hal_driver/stm32f4xx_hal_sram.c ****   /* Process Locked */
 847:/home/phong/Documents/thesis/stm32f4/stm-idf/components/stm32f4xx_hal_driver/stm32f4xx_hal_sram.c ****   __HAL_LOCK(hsram);
 925              		.loc 1 847 0
 926 0000 90F84830 		ldrb	r3, [r0, #72]	@ zero_extendqisi2
 927 0004 012B     		cmp	r3, #1
 928 0006 01D1     		bne	.L82
 929 0008 0220     		movs	r0, #2
 930              	.LVL99:
 931 000a 7047     		bx	lr
 932              	.LVL100:
 933              	.L82:
 845:/home/phong/Documents/thesis/stm32f4/stm-idf/components/stm32f4xx_hal_driver/stm32f4xx_hal_sram.c ****   /* Process Locked */
 934              		.loc 1 845 0 discriminator 2
 935 000c 10B5     		push	{r4, lr}
 936              	.LCFI24:
 937              		.cfi_def_cfa_offset 8
 938              		.cfi_offset 4, -8
 939              		.cfi_offset 14, -4
 940 000e 0446     		mov	r4, r0
 941              		.loc 1 847 0 discriminator 2
 942 0010 0123     		movs	r3, #1
 943 0012 80F84830 		strb	r3, [r0, #72]
ARM GAS  /tmp/cc9XlVWc.s 			page 33


 848:/home/phong/Documents/thesis/stm32f4/stm-idf/components/stm32f4xx_hal_driver/stm32f4xx_hal_sram.c **** 
 849:/home/phong/Documents/thesis/stm32f4/stm-idf/components/stm32f4xx_hal_driver/stm32f4xx_hal_sram.c ****   /* Update the SRAM controller state */
 850:/home/phong/Documents/thesis/stm32f4/stm-idf/components/stm32f4xx_hal_driver/stm32f4xx_hal_sram.c ****   hsram->State = HAL_SRAM_STATE_BUSY;
 944              		.loc 1 850 0 discriminator 2
 945 0016 0223     		movs	r3, #2
 946 0018 80F84930 		strb	r3, [r0, #73]
 851:/home/phong/Documents/thesis/stm32f4/stm-idf/components/stm32f4xx_hal_driver/stm32f4xx_hal_sram.c ****     
 852:/home/phong/Documents/thesis/stm32f4/stm-idf/components/stm32f4xx_hal_driver/stm32f4xx_hal_sram.c ****   /* Disable write operation */
 853:/home/phong/Documents/thesis/stm32f4/stm-idf/components/stm32f4xx_hal_driver/stm32f4xx_hal_sram.c ****   FMC_NORSRAM_WriteOperation_Disable(hsram->Instance, hsram->Init.NSBank); 
 947              		.loc 1 853 0 discriminator 2
 948 001c 8168     		ldr	r1, [r0, #8]
 949 001e 0068     		ldr	r0, [r0]
 950              	.LVL101:
 951 0020 FFF7FEFF 		bl	FSMC_NORSRAM_WriteOperation_Disable
 952              	.LVL102:
 854:/home/phong/Documents/thesis/stm32f4/stm-idf/components/stm32f4xx_hal_driver/stm32f4xx_hal_sram.c ****   
 855:/home/phong/Documents/thesis/stm32f4/stm-idf/components/stm32f4xx_hal_driver/stm32f4xx_hal_sram.c ****   /* Update the SRAM controller state */
 856:/home/phong/Documents/thesis/stm32f4/stm-idf/components/stm32f4xx_hal_driver/stm32f4xx_hal_sram.c ****   hsram->State = HAL_SRAM_STATE_PROTECTED;
 953              		.loc 1 856 0 discriminator 2
 954 0024 0423     		movs	r3, #4
 955 0026 84F84930 		strb	r3, [r4, #73]
 857:/home/phong/Documents/thesis/stm32f4/stm-idf/components/stm32f4xx_hal_driver/stm32f4xx_hal_sram.c ****   
 858:/home/phong/Documents/thesis/stm32f4/stm-idf/components/stm32f4xx_hal_driver/stm32f4xx_hal_sram.c ****   /* Process unlocked */
 859:/home/phong/Documents/thesis/stm32f4/stm-idf/components/stm32f4xx_hal_driver/stm32f4xx_hal_sram.c ****   __HAL_UNLOCK(hsram); 
 956              		.loc 1 859 0 discriminator 2
 957 002a 0020     		movs	r0, #0
 958 002c 84F84800 		strb	r0, [r4, #72]
 860:/home/phong/Documents/thesis/stm32f4/stm-idf/components/stm32f4xx_hal_driver/stm32f4xx_hal_sram.c ****   
 861:/home/phong/Documents/thesis/stm32f4/stm-idf/components/stm32f4xx_hal_driver/stm32f4xx_hal_sram.c ****   return HAL_OK;  
 959              		.loc 1 861 0 discriminator 2
 960 0030 10BD     		pop	{r4, pc}
 961              		.cfi_endproc
 962              	.LFE145:
 964              		.section	.text.HAL_SRAM_GetState,"ax",%progbits
 965              		.align	1
 966              		.global	HAL_SRAM_GetState
 967              		.syntax unified
 968              		.thumb
 969              		.thumb_func
 970              		.fpu fpv4-sp-d16
 972              	HAL_SRAM_GetState:
 973              	.LFB146:
 862:/home/phong/Documents/thesis/stm32f4/stm-idf/components/stm32f4xx_hal_driver/stm32f4xx_hal_sram.c **** }
 863:/home/phong/Documents/thesis/stm32f4/stm-idf/components/stm32f4xx_hal_driver/stm32f4xx_hal_sram.c **** 
 864:/home/phong/Documents/thesis/stm32f4/stm-idf/components/stm32f4xx_hal_driver/stm32f4xx_hal_sram.c **** /**
 865:/home/phong/Documents/thesis/stm32f4/stm-idf/components/stm32f4xx_hal_driver/stm32f4xx_hal_sram.c ****   * @}
 866:/home/phong/Documents/thesis/stm32f4/stm-idf/components/stm32f4xx_hal_driver/stm32f4xx_hal_sram.c ****   */
 867:/home/phong/Documents/thesis/stm32f4/stm-idf/components/stm32f4xx_hal_driver/stm32f4xx_hal_sram.c **** 
 868:/home/phong/Documents/thesis/stm32f4/stm-idf/components/stm32f4xx_hal_driver/stm32f4xx_hal_sram.c **** /** @defgroup SRAM_Exported_Functions_Group4 State functions 
 869:/home/phong/Documents/thesis/stm32f4/stm-idf/components/stm32f4xx_hal_driver/stm32f4xx_hal_sram.c ****  *  @brief   Peripheral State functions 
 870:/home/phong/Documents/thesis/stm32f4/stm-idf/components/stm32f4xx_hal_driver/stm32f4xx_hal_sram.c ****  *
 871:/home/phong/Documents/thesis/stm32f4/stm-idf/components/stm32f4xx_hal_driver/stm32f4xx_hal_sram.c **** @verbatim   
 872:/home/phong/Documents/thesis/stm32f4/stm-idf/components/stm32f4xx_hal_driver/stm32f4xx_hal_sram.c ****   ==============================================================================
 873:/home/phong/Documents/thesis/stm32f4/stm-idf/components/stm32f4xx_hal_driver/stm32f4xx_hal_sram.c ****                       ##### SRAM State functions #####
 874:/home/phong/Documents/thesis/stm32f4/stm-idf/components/stm32f4xx_hal_driver/stm32f4xx_hal_sram.c ****   ==============================================================================  
 875:/home/phong/Documents/thesis/stm32f4/stm-idf/components/stm32f4xx_hal_driver/stm32f4xx_hal_sram.c ****   [..]
 876:/home/phong/Documents/thesis/stm32f4/stm-idf/components/stm32f4xx_hal_driver/stm32f4xx_hal_sram.c ****     This subsection permits to get in run-time the status of the SRAM controller 
ARM GAS  /tmp/cc9XlVWc.s 			page 34


 877:/home/phong/Documents/thesis/stm32f4/stm-idf/components/stm32f4xx_hal_driver/stm32f4xx_hal_sram.c ****     and the data flow.
 878:/home/phong/Documents/thesis/stm32f4/stm-idf/components/stm32f4xx_hal_driver/stm32f4xx_hal_sram.c **** 
 879:/home/phong/Documents/thesis/stm32f4/stm-idf/components/stm32f4xx_hal_driver/stm32f4xx_hal_sram.c **** @endverbatim
 880:/home/phong/Documents/thesis/stm32f4/stm-idf/components/stm32f4xx_hal_driver/stm32f4xx_hal_sram.c ****   * @{
 881:/home/phong/Documents/thesis/stm32f4/stm-idf/components/stm32f4xx_hal_driver/stm32f4xx_hal_sram.c ****   */
 882:/home/phong/Documents/thesis/stm32f4/stm-idf/components/stm32f4xx_hal_driver/stm32f4xx_hal_sram.c ****   
 883:/home/phong/Documents/thesis/stm32f4/stm-idf/components/stm32f4xx_hal_driver/stm32f4xx_hal_sram.c **** /**
 884:/home/phong/Documents/thesis/stm32f4/stm-idf/components/stm32f4xx_hal_driver/stm32f4xx_hal_sram.c ****   * @brief  Returns the SRAM controller state
 885:/home/phong/Documents/thesis/stm32f4/stm-idf/components/stm32f4xx_hal_driver/stm32f4xx_hal_sram.c ****   * @param  hsram pointer to a SRAM_HandleTypeDef structure that contains
 886:/home/phong/Documents/thesis/stm32f4/stm-idf/components/stm32f4xx_hal_driver/stm32f4xx_hal_sram.c ****   *                the configuration information for SRAM module.
 887:/home/phong/Documents/thesis/stm32f4/stm-idf/components/stm32f4xx_hal_driver/stm32f4xx_hal_sram.c ****   * @retval HAL state
 888:/home/phong/Documents/thesis/stm32f4/stm-idf/components/stm32f4xx_hal_driver/stm32f4xx_hal_sram.c ****   */
 889:/home/phong/Documents/thesis/stm32f4/stm-idf/components/stm32f4xx_hal_driver/stm32f4xx_hal_sram.c **** HAL_SRAM_StateTypeDef HAL_SRAM_GetState(SRAM_HandleTypeDef *hsram)
 890:/home/phong/Documents/thesis/stm32f4/stm-idf/components/stm32f4xx_hal_driver/stm32f4xx_hal_sram.c **** {
 974              		.loc 1 890 0
 975              		.cfi_startproc
 976              		@ args = 0, pretend = 0, frame = 0
 977              		@ frame_needed = 0, uses_anonymous_args = 0
 978              		@ link register save eliminated.
 979              	.LVL103:
 891:/home/phong/Documents/thesis/stm32f4/stm-idf/components/stm32f4xx_hal_driver/stm32f4xx_hal_sram.c ****   return hsram->State;
 980              		.loc 1 891 0
 981 0000 90F84900 		ldrb	r0, [r0, #73]	@ zero_extendqisi2
 982              	.LVL104:
 892:/home/phong/Documents/thesis/stm32f4/stm-idf/components/stm32f4xx_hal_driver/stm32f4xx_hal_sram.c **** }
 983              		.loc 1 892 0
 984 0004 7047     		bx	lr
 985              		.cfi_endproc
 986              	.LFE146:
 988              		.text
 989              	.Letext0:
 990              		.file 2 "/home/phong/Documents/thesis/stm32f4/stm-idf/components/newlib/include/machine/_default_t
 991              		.file 3 "/home/phong/Documents/thesis/stm32f4/stm-idf/components/newlib/include/sys/_stdint.h"
 992              		.file 4 "/home/phong/Documents/thesis/stm32f4/stm-idf/components/cmsis/include/core_cm4.h"
 993              		.file 5 "/home/phong/Documents/thesis/stm32f4/stm-idf/components/cmsis/device/stm32/stm32f4xx/incl
 994              		.file 6 "/home/phong/Documents/thesis/stm32f4/stm-idf/components/cmsis/device/stm32/stm32f4xx/incl
 995              		.file 7 "/home/phong/Documents/thesis/stm32f4/stm-idf/components/stm32f4xx_hal_driver/include/stm3
 996              		.file 8 "/home/phong/Documents/thesis/stm32f4/stm-idf/components/stm32f4xx_hal_driver/include/stm3
 997              		.file 9 "/home/phong/Documents/thesis/stm32f4/stm-idf/components/stm32f4xx_hal_driver/include/stm3
 998              		.file 10 "/home/phong/Documents/thesis/stm32f4/stm-idf/components/stm32f4xx_hal_driver/include/stm
 999              		.file 11 "/home/phong/Documents/thesis/stm32f4/stm-idf/components/stm32f4xx_hal_driver/include/stm
ARM GAS  /tmp/cc9XlVWc.s 			page 35

