ARM GAS  /tmp/cczl6hC8.s 			page 1


   1              		.cpu cortex-m4
   2              		.eabi_attribute 27, 1
   3              		.eabi_attribute 28, 1
   4              		.eabi_attribute 20, 1
   5              		.eabi_attribute 21, 1
   6              		.eabi_attribute 23, 3
   7              		.eabi_attribute 24, 1
   8              		.eabi_attribute 25, 1
   9              		.eabi_attribute 26, 1
  10              		.eabi_attribute 30, 1
  11              		.eabi_attribute 34, 1
  12              		.eabi_attribute 18, 4
  13              		.file	"stm32f4xx_hal_dcmi.c"
  14              		.text
  15              	.Ltext0:
  16              		.cfi_sections	.debug_frame
  17              		.section	.text.DCMI_DMAXferCplt,"ax",%progbits
  18              		.align	1
  19              		.syntax unified
  20              		.thumb
  21              		.thumb_func
  22              		.fpu fpv4-sp-d16
  24              	DCMI_DMAXferCplt:
  25              	.LFB149:
  26              		.file 1 "/home/phong/Documents/thesis/stm32f4/stm-idf/components/stm32f4xx_hal_driver/stm32f4xx_ha
   1:/home/phong/Documents/thesis/stm32f4/stm-idf/components/stm32f4xx_hal_driver/stm32f4xx_hal_dcmi.c **** /**
   2:/home/phong/Documents/thesis/stm32f4/stm-idf/components/stm32f4xx_hal_driver/stm32f4xx_hal_dcmi.c ****   ******************************************************************************
   3:/home/phong/Documents/thesis/stm32f4/stm-idf/components/stm32f4xx_hal_driver/stm32f4xx_hal_dcmi.c ****   * @file    stm32f4xx_hal_dcmi.c
   4:/home/phong/Documents/thesis/stm32f4/stm-idf/components/stm32f4xx_hal_driver/stm32f4xx_hal_dcmi.c ****   * @author  MCD Application Team
   5:/home/phong/Documents/thesis/stm32f4/stm-idf/components/stm32f4xx_hal_driver/stm32f4xx_hal_dcmi.c ****   * @brief   DCMI HAL module driver
   6:/home/phong/Documents/thesis/stm32f4/stm-idf/components/stm32f4xx_hal_driver/stm32f4xx_hal_dcmi.c ****   *          This file provides firmware functions to manage the following
   7:/home/phong/Documents/thesis/stm32f4/stm-idf/components/stm32f4xx_hal_driver/stm32f4xx_hal_dcmi.c ****   *          functionalities of the Digital Camera Interface (DCMI) peripheral:
   8:/home/phong/Documents/thesis/stm32f4/stm-idf/components/stm32f4xx_hal_driver/stm32f4xx_hal_dcmi.c ****   *           + Initialization and de-initialization functions
   9:/home/phong/Documents/thesis/stm32f4/stm-idf/components/stm32f4xx_hal_driver/stm32f4xx_hal_dcmi.c ****   *           + IO operation functions
  10:/home/phong/Documents/thesis/stm32f4/stm-idf/components/stm32f4xx_hal_driver/stm32f4xx_hal_dcmi.c ****   *           + Peripheral Control functions
  11:/home/phong/Documents/thesis/stm32f4/stm-idf/components/stm32f4xx_hal_driver/stm32f4xx_hal_dcmi.c ****   *           + Peripheral State and Error functions
  12:/home/phong/Documents/thesis/stm32f4/stm-idf/components/stm32f4xx_hal_driver/stm32f4xx_hal_dcmi.c ****   *           
  13:/home/phong/Documents/thesis/stm32f4/stm-idf/components/stm32f4xx_hal_driver/stm32f4xx_hal_dcmi.c ****   @verbatim
  14:/home/phong/Documents/thesis/stm32f4/stm-idf/components/stm32f4xx_hal_driver/stm32f4xx_hal_dcmi.c ****   ==============================================================================
  15:/home/phong/Documents/thesis/stm32f4/stm-idf/components/stm32f4xx_hal_driver/stm32f4xx_hal_dcmi.c ****                         ##### How to use this driver #####
  16:/home/phong/Documents/thesis/stm32f4/stm-idf/components/stm32f4xx_hal_driver/stm32f4xx_hal_dcmi.c ****   ==============================================================================
  17:/home/phong/Documents/thesis/stm32f4/stm-idf/components/stm32f4xx_hal_driver/stm32f4xx_hal_dcmi.c ****   [..]
  18:/home/phong/Documents/thesis/stm32f4/stm-idf/components/stm32f4xx_hal_driver/stm32f4xx_hal_dcmi.c ****       The sequence below describes how to use this driver to capture image
  19:/home/phong/Documents/thesis/stm32f4/stm-idf/components/stm32f4xx_hal_driver/stm32f4xx_hal_dcmi.c ****       from a camera module connected to the DCMI Interface.
  20:/home/phong/Documents/thesis/stm32f4/stm-idf/components/stm32f4xx_hal_driver/stm32f4xx_hal_dcmi.c ****       This sequence does not take into account the configuration of the
  21:/home/phong/Documents/thesis/stm32f4/stm-idf/components/stm32f4xx_hal_driver/stm32f4xx_hal_dcmi.c ****       camera module, which should be made before to configure and enable
  22:/home/phong/Documents/thesis/stm32f4/stm-idf/components/stm32f4xx_hal_driver/stm32f4xx_hal_dcmi.c ****       the DCMI to capture images.
  23:/home/phong/Documents/thesis/stm32f4/stm-idf/components/stm32f4xx_hal_driver/stm32f4xx_hal_dcmi.c **** 
  24:/home/phong/Documents/thesis/stm32f4/stm-idf/components/stm32f4xx_hal_driver/stm32f4xx_hal_dcmi.c ****     (#) Program the required configuration through following parameters:
  25:/home/phong/Documents/thesis/stm32f4/stm-idf/components/stm32f4xx_hal_driver/stm32f4xx_hal_dcmi.c ****         horizontal and vertical polarity, pixel clock polarity, Capture Rate,
  26:/home/phong/Documents/thesis/stm32f4/stm-idf/components/stm32f4xx_hal_driver/stm32f4xx_hal_dcmi.c ****         Synchronization Mode, code of the frame delimiter and data width 
  27:/home/phong/Documents/thesis/stm32f4/stm-idf/components/stm32f4xx_hal_driver/stm32f4xx_hal_dcmi.c ****         using HAL_DCMI_Init() function.
  28:/home/phong/Documents/thesis/stm32f4/stm-idf/components/stm32f4xx_hal_driver/stm32f4xx_hal_dcmi.c **** 
  29:/home/phong/Documents/thesis/stm32f4/stm-idf/components/stm32f4xx_hal_driver/stm32f4xx_hal_dcmi.c ****     (#) Configure the DMA2_Stream1 channel1 to transfer Data from DCMI DR
  30:/home/phong/Documents/thesis/stm32f4/stm-idf/components/stm32f4xx_hal_driver/stm32f4xx_hal_dcmi.c ****         register to the destination memory buffer.
  31:/home/phong/Documents/thesis/stm32f4/stm-idf/components/stm32f4xx_hal_driver/stm32f4xx_hal_dcmi.c **** 
  32:/home/phong/Documents/thesis/stm32f4/stm-idf/components/stm32f4xx_hal_driver/stm32f4xx_hal_dcmi.c ****     (#) Program the required configuration through following parameters:
ARM GAS  /tmp/cczl6hC8.s 			page 2


  33:/home/phong/Documents/thesis/stm32f4/stm-idf/components/stm32f4xx_hal_driver/stm32f4xx_hal_dcmi.c ****         DCMI mode, destination memory Buffer address and the data length
  34:/home/phong/Documents/thesis/stm32f4/stm-idf/components/stm32f4xx_hal_driver/stm32f4xx_hal_dcmi.c ****         and enable capture using HAL_DCMI_Start_DMA() function.
  35:/home/phong/Documents/thesis/stm32f4/stm-idf/components/stm32f4xx_hal_driver/stm32f4xx_hal_dcmi.c **** 
  36:/home/phong/Documents/thesis/stm32f4/stm-idf/components/stm32f4xx_hal_driver/stm32f4xx_hal_dcmi.c ****     (#) Optionally, configure and Enable the CROP feature to select a rectangular
  37:/home/phong/Documents/thesis/stm32f4/stm-idf/components/stm32f4xx_hal_driver/stm32f4xx_hal_dcmi.c ****         window from the received image using HAL_DCMI_ConfigCrop()
  38:/home/phong/Documents/thesis/stm32f4/stm-idf/components/stm32f4xx_hal_driver/stm32f4xx_hal_dcmi.c ****         and HAL_DCMI_EnableCROP() functions
  39:/home/phong/Documents/thesis/stm32f4/stm-idf/components/stm32f4xx_hal_driver/stm32f4xx_hal_dcmi.c **** 
  40:/home/phong/Documents/thesis/stm32f4/stm-idf/components/stm32f4xx_hal_driver/stm32f4xx_hal_dcmi.c ****     (#) The capture can be stopped using HAL_DCMI_Stop() function.
  41:/home/phong/Documents/thesis/stm32f4/stm-idf/components/stm32f4xx_hal_driver/stm32f4xx_hal_dcmi.c **** 
  42:/home/phong/Documents/thesis/stm32f4/stm-idf/components/stm32f4xx_hal_driver/stm32f4xx_hal_dcmi.c ****     (#) To control DCMI state you can use the function HAL_DCMI_GetState().
  43:/home/phong/Documents/thesis/stm32f4/stm-idf/components/stm32f4xx_hal_driver/stm32f4xx_hal_dcmi.c **** 
  44:/home/phong/Documents/thesis/stm32f4/stm-idf/components/stm32f4xx_hal_driver/stm32f4xx_hal_dcmi.c ****      *** DCMI HAL driver macros list ***
  45:/home/phong/Documents/thesis/stm32f4/stm-idf/components/stm32f4xx_hal_driver/stm32f4xx_hal_dcmi.c ****      =============================================
  46:/home/phong/Documents/thesis/stm32f4/stm-idf/components/stm32f4xx_hal_driver/stm32f4xx_hal_dcmi.c ****      [..]
  47:/home/phong/Documents/thesis/stm32f4/stm-idf/components/stm32f4xx_hal_driver/stm32f4xx_hal_dcmi.c ****        Below the list of most used macros in DCMI HAL driver.
  48:/home/phong/Documents/thesis/stm32f4/stm-idf/components/stm32f4xx_hal_driver/stm32f4xx_hal_dcmi.c ****        
  49:/home/phong/Documents/thesis/stm32f4/stm-idf/components/stm32f4xx_hal_driver/stm32f4xx_hal_dcmi.c ****       (+) __HAL_DCMI_ENABLE: Enable the DCMI peripheral.
  50:/home/phong/Documents/thesis/stm32f4/stm-idf/components/stm32f4xx_hal_driver/stm32f4xx_hal_dcmi.c ****       (+) __HAL_DCMI_DISABLE: Disable the DCMI peripheral.
  51:/home/phong/Documents/thesis/stm32f4/stm-idf/components/stm32f4xx_hal_driver/stm32f4xx_hal_dcmi.c ****       (+) __HAL_DCMI_GET_FLAG: Get the DCMI pending flags.
  52:/home/phong/Documents/thesis/stm32f4/stm-idf/components/stm32f4xx_hal_driver/stm32f4xx_hal_dcmi.c ****       (+) __HAL_DCMI_CLEAR_FLAG: Clear the DCMI pending flags.
  53:/home/phong/Documents/thesis/stm32f4/stm-idf/components/stm32f4xx_hal_driver/stm32f4xx_hal_dcmi.c ****       (+) __HAL_DCMI_ENABLE_IT: Enable the specified DCMI interrupts.
  54:/home/phong/Documents/thesis/stm32f4/stm-idf/components/stm32f4xx_hal_driver/stm32f4xx_hal_dcmi.c ****       (+) __HAL_DCMI_DISABLE_IT: Disable the specified DCMI interrupts.
  55:/home/phong/Documents/thesis/stm32f4/stm-idf/components/stm32f4xx_hal_driver/stm32f4xx_hal_dcmi.c ****       (+) __HAL_DCMI_GET_IT_SOURCE: Check whether the specified DCMI interrupt has occurred or not.
  56:/home/phong/Documents/thesis/stm32f4/stm-idf/components/stm32f4xx_hal_driver/stm32f4xx_hal_dcmi.c **** 
  57:/home/phong/Documents/thesis/stm32f4/stm-idf/components/stm32f4xx_hal_driver/stm32f4xx_hal_dcmi.c ****      [..]
  58:/home/phong/Documents/thesis/stm32f4/stm-idf/components/stm32f4xx_hal_driver/stm32f4xx_hal_dcmi.c ****        (@) You can refer to the DCMI HAL driver header file for more useful macros
  59:/home/phong/Documents/thesis/stm32f4/stm-idf/components/stm32f4xx_hal_driver/stm32f4xx_hal_dcmi.c ****       
  60:/home/phong/Documents/thesis/stm32f4/stm-idf/components/stm32f4xx_hal_driver/stm32f4xx_hal_dcmi.c ****     *** Callback registration ***
  61:/home/phong/Documents/thesis/stm32f4/stm-idf/components/stm32f4xx_hal_driver/stm32f4xx_hal_dcmi.c ****     =============================
  62:/home/phong/Documents/thesis/stm32f4/stm-idf/components/stm32f4xx_hal_driver/stm32f4xx_hal_dcmi.c **** 
  63:/home/phong/Documents/thesis/stm32f4/stm-idf/components/stm32f4xx_hal_driver/stm32f4xx_hal_dcmi.c ****     The compilation define USE_HAL_DCMI_REGISTER_CALLBACKS when set to 1
  64:/home/phong/Documents/thesis/stm32f4/stm-idf/components/stm32f4xx_hal_driver/stm32f4xx_hal_dcmi.c ****     allows the user to configure dynamically the driver callbacks.
  65:/home/phong/Documents/thesis/stm32f4/stm-idf/components/stm32f4xx_hal_driver/stm32f4xx_hal_dcmi.c ****     Use functions @ref HAL_DCMI_RegisterCallback() to register a user callback.
  66:/home/phong/Documents/thesis/stm32f4/stm-idf/components/stm32f4xx_hal_driver/stm32f4xx_hal_dcmi.c **** 
  67:/home/phong/Documents/thesis/stm32f4/stm-idf/components/stm32f4xx_hal_driver/stm32f4xx_hal_dcmi.c ****     Function @ref HAL_DCMI_RegisterCallback() allows to register following callbacks:
  68:/home/phong/Documents/thesis/stm32f4/stm-idf/components/stm32f4xx_hal_driver/stm32f4xx_hal_dcmi.c ****       (+) FrameEventCallback : DCMI Frame Event.
  69:/home/phong/Documents/thesis/stm32f4/stm-idf/components/stm32f4xx_hal_driver/stm32f4xx_hal_dcmi.c ****       (+) VsyncEventCallback : DCMI Vsync Event.
  70:/home/phong/Documents/thesis/stm32f4/stm-idf/components/stm32f4xx_hal_driver/stm32f4xx_hal_dcmi.c ****       (+) LineEventCallback  : DCMI Line Event.
  71:/home/phong/Documents/thesis/stm32f4/stm-idf/components/stm32f4xx_hal_driver/stm32f4xx_hal_dcmi.c ****       (+) ErrorCallback      : DCMI error.
  72:/home/phong/Documents/thesis/stm32f4/stm-idf/components/stm32f4xx_hal_driver/stm32f4xx_hal_dcmi.c ****       (+) MspInitCallback    : DCMI MspInit.
  73:/home/phong/Documents/thesis/stm32f4/stm-idf/components/stm32f4xx_hal_driver/stm32f4xx_hal_dcmi.c ****       (+) MspDeInitCallback  : DCMI MspDeInit.
  74:/home/phong/Documents/thesis/stm32f4/stm-idf/components/stm32f4xx_hal_driver/stm32f4xx_hal_dcmi.c ****     This function takes as parameters the HAL peripheral handle, the callback ID
  75:/home/phong/Documents/thesis/stm32f4/stm-idf/components/stm32f4xx_hal_driver/stm32f4xx_hal_dcmi.c ****     and a pointer to the user callback function.
  76:/home/phong/Documents/thesis/stm32f4/stm-idf/components/stm32f4xx_hal_driver/stm32f4xx_hal_dcmi.c **** 
  77:/home/phong/Documents/thesis/stm32f4/stm-idf/components/stm32f4xx_hal_driver/stm32f4xx_hal_dcmi.c ****     Use function @ref HAL_DCMI_UnRegisterCallback() to reset a callback to the default
  78:/home/phong/Documents/thesis/stm32f4/stm-idf/components/stm32f4xx_hal_driver/stm32f4xx_hal_dcmi.c ****     weak (surcharged) function.
  79:/home/phong/Documents/thesis/stm32f4/stm-idf/components/stm32f4xx_hal_driver/stm32f4xx_hal_dcmi.c ****     @ref HAL_DCMI_UnRegisterCallback() takes as parameters the HAL peripheral handle,
  80:/home/phong/Documents/thesis/stm32f4/stm-idf/components/stm32f4xx_hal_driver/stm32f4xx_hal_dcmi.c ****     and the callback ID.
  81:/home/phong/Documents/thesis/stm32f4/stm-idf/components/stm32f4xx_hal_driver/stm32f4xx_hal_dcmi.c ****     This function allows to reset following callbacks:
  82:/home/phong/Documents/thesis/stm32f4/stm-idf/components/stm32f4xx_hal_driver/stm32f4xx_hal_dcmi.c ****       (+) FrameEventCallback : DCMI Frame Event.
  83:/home/phong/Documents/thesis/stm32f4/stm-idf/components/stm32f4xx_hal_driver/stm32f4xx_hal_dcmi.c ****       (+) VsyncEventCallback : DCMI Vsync Event.
  84:/home/phong/Documents/thesis/stm32f4/stm-idf/components/stm32f4xx_hal_driver/stm32f4xx_hal_dcmi.c ****       (+) LineEventCallback  : DCMI Line Event.
  85:/home/phong/Documents/thesis/stm32f4/stm-idf/components/stm32f4xx_hal_driver/stm32f4xx_hal_dcmi.c ****       (+) ErrorCallback      : DCMI error.
  86:/home/phong/Documents/thesis/stm32f4/stm-idf/components/stm32f4xx_hal_driver/stm32f4xx_hal_dcmi.c ****       (+) MspInitCallback    : DCMI MspInit.
  87:/home/phong/Documents/thesis/stm32f4/stm-idf/components/stm32f4xx_hal_driver/stm32f4xx_hal_dcmi.c ****       (+) MspDeInitCallback  : DCMI MspDeInit.
  88:/home/phong/Documents/thesis/stm32f4/stm-idf/components/stm32f4xx_hal_driver/stm32f4xx_hal_dcmi.c **** 
  89:/home/phong/Documents/thesis/stm32f4/stm-idf/components/stm32f4xx_hal_driver/stm32f4xx_hal_dcmi.c ****     By default, after the @ref HAL_DCMI_Init and if the state is HAL_DCMI_STATE_RESET
ARM GAS  /tmp/cczl6hC8.s 			page 3


  90:/home/phong/Documents/thesis/stm32f4/stm-idf/components/stm32f4xx_hal_driver/stm32f4xx_hal_dcmi.c ****     all callbacks are reset to the corresponding legacy weak (surcharged) functions:
  91:/home/phong/Documents/thesis/stm32f4/stm-idf/components/stm32f4xx_hal_driver/stm32f4xx_hal_dcmi.c ****     examples @ref FrameEventCallback(), @ref HAL_DCMI_ErrorCallback().
  92:/home/phong/Documents/thesis/stm32f4/stm-idf/components/stm32f4xx_hal_driver/stm32f4xx_hal_dcmi.c ****     Exception done for MspInit and MspDeInit callbacks that are respectively
  93:/home/phong/Documents/thesis/stm32f4/stm-idf/components/stm32f4xx_hal_driver/stm32f4xx_hal_dcmi.c ****     reset to the legacy weak (surcharged) functions in the @ref HAL_DCMI_Init
  94:/home/phong/Documents/thesis/stm32f4/stm-idf/components/stm32f4xx_hal_driver/stm32f4xx_hal_dcmi.c ****     and @ref  HAL_DCMI_DeInit only when these callbacks are null (not registered beforehand).
  95:/home/phong/Documents/thesis/stm32f4/stm-idf/components/stm32f4xx_hal_driver/stm32f4xx_hal_dcmi.c ****     If not, MspInit or MspDeInit are not null, the @ref HAL_DCMI_Init and @ref HAL_DCMI_DeInit
  96:/home/phong/Documents/thesis/stm32f4/stm-idf/components/stm32f4xx_hal_driver/stm32f4xx_hal_dcmi.c ****     keep and use the user MspInit/MspDeInit callbacks (registered beforehand).
  97:/home/phong/Documents/thesis/stm32f4/stm-idf/components/stm32f4xx_hal_driver/stm32f4xx_hal_dcmi.c **** 
  98:/home/phong/Documents/thesis/stm32f4/stm-idf/components/stm32f4xx_hal_driver/stm32f4xx_hal_dcmi.c ****     Callbacks can be registered/unregistered in READY state only.
  99:/home/phong/Documents/thesis/stm32f4/stm-idf/components/stm32f4xx_hal_driver/stm32f4xx_hal_dcmi.c ****     Exception done for MspInit/MspDeInit callbacks that can be registered/unregistered
 100:/home/phong/Documents/thesis/stm32f4/stm-idf/components/stm32f4xx_hal_driver/stm32f4xx_hal_dcmi.c ****     in READY or RESET state, thus registered (user) MspInit/DeInit callbacks can be used
 101:/home/phong/Documents/thesis/stm32f4/stm-idf/components/stm32f4xx_hal_driver/stm32f4xx_hal_dcmi.c ****     during the Init/DeInit.
 102:/home/phong/Documents/thesis/stm32f4/stm-idf/components/stm32f4xx_hal_driver/stm32f4xx_hal_dcmi.c ****     In that case first register the MspInit/MspDeInit user callbacks
 103:/home/phong/Documents/thesis/stm32f4/stm-idf/components/stm32f4xx_hal_driver/stm32f4xx_hal_dcmi.c ****     using @ref HAL_DCMI_RegisterCallback before calling @ref HAL_DCMI_DeInit
 104:/home/phong/Documents/thesis/stm32f4/stm-idf/components/stm32f4xx_hal_driver/stm32f4xx_hal_dcmi.c ****     or @ref HAL_DCMI_Init function.
 105:/home/phong/Documents/thesis/stm32f4/stm-idf/components/stm32f4xx_hal_driver/stm32f4xx_hal_dcmi.c **** 
 106:/home/phong/Documents/thesis/stm32f4/stm-idf/components/stm32f4xx_hal_driver/stm32f4xx_hal_dcmi.c ****     When the compilation define USE_HAL_DCMI_REGISTER_CALLBACKS is set to 0 or
 107:/home/phong/Documents/thesis/stm32f4/stm-idf/components/stm32f4xx_hal_driver/stm32f4xx_hal_dcmi.c ****     not defined, the callback registering feature is not available
 108:/home/phong/Documents/thesis/stm32f4/stm-idf/components/stm32f4xx_hal_driver/stm32f4xx_hal_dcmi.c ****     and weak (surcharged) callbacks are used.
 109:/home/phong/Documents/thesis/stm32f4/stm-idf/components/stm32f4xx_hal_driver/stm32f4xx_hal_dcmi.c **** 	
 110:/home/phong/Documents/thesis/stm32f4/stm-idf/components/stm32f4xx_hal_driver/stm32f4xx_hal_dcmi.c ****   @endverbatim
 111:/home/phong/Documents/thesis/stm32f4/stm-idf/components/stm32f4xx_hal_driver/stm32f4xx_hal_dcmi.c ****   ******************************************************************************
 112:/home/phong/Documents/thesis/stm32f4/stm-idf/components/stm32f4xx_hal_driver/stm32f4xx_hal_dcmi.c ****   * @attention
 113:/home/phong/Documents/thesis/stm32f4/stm-idf/components/stm32f4xx_hal_driver/stm32f4xx_hal_dcmi.c ****   *
 114:/home/phong/Documents/thesis/stm32f4/stm-idf/components/stm32f4xx_hal_driver/stm32f4xx_hal_dcmi.c ****   * <h2><center>&copy; Copyright (c) 2017 STMicroelectronics.
 115:/home/phong/Documents/thesis/stm32f4/stm-idf/components/stm32f4xx_hal_driver/stm32f4xx_hal_dcmi.c ****   * All rights reserved.</center></h2>
 116:/home/phong/Documents/thesis/stm32f4/stm-idf/components/stm32f4xx_hal_driver/stm32f4xx_hal_dcmi.c ****   *
 117:/home/phong/Documents/thesis/stm32f4/stm-idf/components/stm32f4xx_hal_driver/stm32f4xx_hal_dcmi.c ****   * This software component is licensed by ST under BSD 3-Clause license,
 118:/home/phong/Documents/thesis/stm32f4/stm-idf/components/stm32f4xx_hal_driver/stm32f4xx_hal_dcmi.c ****   * the "License"; You may not use this file except in compliance with the
 119:/home/phong/Documents/thesis/stm32f4/stm-idf/components/stm32f4xx_hal_driver/stm32f4xx_hal_dcmi.c ****   * License. You may obtain a copy of the License at:
 120:/home/phong/Documents/thesis/stm32f4/stm-idf/components/stm32f4xx_hal_driver/stm32f4xx_hal_dcmi.c ****   *                        opensource.org/licenses/BSD-3-Clause
 121:/home/phong/Documents/thesis/stm32f4/stm-idf/components/stm32f4xx_hal_driver/stm32f4xx_hal_dcmi.c ****   *
 122:/home/phong/Documents/thesis/stm32f4/stm-idf/components/stm32f4xx_hal_driver/stm32f4xx_hal_dcmi.c ****   ******************************************************************************
 123:/home/phong/Documents/thesis/stm32f4/stm-idf/components/stm32f4xx_hal_driver/stm32f4xx_hal_dcmi.c ****   */
 124:/home/phong/Documents/thesis/stm32f4/stm-idf/components/stm32f4xx_hal_driver/stm32f4xx_hal_dcmi.c **** 
 125:/home/phong/Documents/thesis/stm32f4/stm-idf/components/stm32f4xx_hal_driver/stm32f4xx_hal_dcmi.c **** /* Includes ------------------------------------------------------------------*/
 126:/home/phong/Documents/thesis/stm32f4/stm-idf/components/stm32f4xx_hal_driver/stm32f4xx_hal_dcmi.c **** #include "stm32f4xx_hal.h"
 127:/home/phong/Documents/thesis/stm32f4/stm-idf/components/stm32f4xx_hal_driver/stm32f4xx_hal_dcmi.c **** 
 128:/home/phong/Documents/thesis/stm32f4/stm-idf/components/stm32f4xx_hal_driver/stm32f4xx_hal_dcmi.c **** /** @addtogroup STM32F4xx_HAL_Driver
 129:/home/phong/Documents/thesis/stm32f4/stm-idf/components/stm32f4xx_hal_driver/stm32f4xx_hal_dcmi.c ****   * @{
 130:/home/phong/Documents/thesis/stm32f4/stm-idf/components/stm32f4xx_hal_driver/stm32f4xx_hal_dcmi.c ****   */
 131:/home/phong/Documents/thesis/stm32f4/stm-idf/components/stm32f4xx_hal_driver/stm32f4xx_hal_dcmi.c **** /** @defgroup DCMI DCMI
 132:/home/phong/Documents/thesis/stm32f4/stm-idf/components/stm32f4xx_hal_driver/stm32f4xx_hal_dcmi.c ****   * @brief DCMI HAL module driver
 133:/home/phong/Documents/thesis/stm32f4/stm-idf/components/stm32f4xx_hal_driver/stm32f4xx_hal_dcmi.c ****   * @{
 134:/home/phong/Documents/thesis/stm32f4/stm-idf/components/stm32f4xx_hal_driver/stm32f4xx_hal_dcmi.c ****   */
 135:/home/phong/Documents/thesis/stm32f4/stm-idf/components/stm32f4xx_hal_driver/stm32f4xx_hal_dcmi.c **** 
 136:/home/phong/Documents/thesis/stm32f4/stm-idf/components/stm32f4xx_hal_driver/stm32f4xx_hal_dcmi.c **** #ifdef HAL_DCMI_MODULE_ENABLED
 137:/home/phong/Documents/thesis/stm32f4/stm-idf/components/stm32f4xx_hal_driver/stm32f4xx_hal_dcmi.c **** 
 138:/home/phong/Documents/thesis/stm32f4/stm-idf/components/stm32f4xx_hal_driver/stm32f4xx_hal_dcmi.c **** #if defined(STM32F407xx) || defined(STM32F417xx) || defined(STM32F427xx) || defined(STM32F437xx) ||
 139:/home/phong/Documents/thesis/stm32f4/stm-idf/components/stm32f4xx_hal_driver/stm32f4xx_hal_dcmi.c ****     defined(STM32F429xx) || defined(STM32F439xx) || defined(STM32F446xx) || defined(STM32F469xx) ||
 140:/home/phong/Documents/thesis/stm32f4/stm-idf/components/stm32f4xx_hal_driver/stm32f4xx_hal_dcmi.c ****     defined(STM32F479xx)
 141:/home/phong/Documents/thesis/stm32f4/stm-idf/components/stm32f4xx_hal_driver/stm32f4xx_hal_dcmi.c **** /* Private typedef -----------------------------------------------------------*/
 142:/home/phong/Documents/thesis/stm32f4/stm-idf/components/stm32f4xx_hal_driver/stm32f4xx_hal_dcmi.c **** /* Private define ------------------------------------------------------------*/
 143:/home/phong/Documents/thesis/stm32f4/stm-idf/components/stm32f4xx_hal_driver/stm32f4xx_hal_dcmi.c **** #define HAL_TIMEOUT_DCMI_STOP    14U  /* Set timeout to 1s  */
 144:/home/phong/Documents/thesis/stm32f4/stm-idf/components/stm32f4xx_hal_driver/stm32f4xx_hal_dcmi.c **** /* Private macro -------------------------------------------------------------*/
 145:/home/phong/Documents/thesis/stm32f4/stm-idf/components/stm32f4xx_hal_driver/stm32f4xx_hal_dcmi.c **** /* Private variables ---------------------------------------------------------*/
 146:/home/phong/Documents/thesis/stm32f4/stm-idf/components/stm32f4xx_hal_driver/stm32f4xx_hal_dcmi.c **** /* Private function prototypes -----------------------------------------------*/
ARM GAS  /tmp/cczl6hC8.s 			page 4


 147:/home/phong/Documents/thesis/stm32f4/stm-idf/components/stm32f4xx_hal_driver/stm32f4xx_hal_dcmi.c **** static void       DCMI_DMAXferCplt(DMA_HandleTypeDef *hdma);
 148:/home/phong/Documents/thesis/stm32f4/stm-idf/components/stm32f4xx_hal_driver/stm32f4xx_hal_dcmi.c **** static void       DCMI_DMAError(DMA_HandleTypeDef *hdma);
 149:/home/phong/Documents/thesis/stm32f4/stm-idf/components/stm32f4xx_hal_driver/stm32f4xx_hal_dcmi.c **** 
 150:/home/phong/Documents/thesis/stm32f4/stm-idf/components/stm32f4xx_hal_driver/stm32f4xx_hal_dcmi.c **** /* Exported functions --------------------------------------------------------*/
 151:/home/phong/Documents/thesis/stm32f4/stm-idf/components/stm32f4xx_hal_driver/stm32f4xx_hal_dcmi.c **** 
 152:/home/phong/Documents/thesis/stm32f4/stm-idf/components/stm32f4xx_hal_driver/stm32f4xx_hal_dcmi.c **** /** @defgroup DCMI_Exported_Functions DCMI Exported Functions
 153:/home/phong/Documents/thesis/stm32f4/stm-idf/components/stm32f4xx_hal_driver/stm32f4xx_hal_dcmi.c ****   * @{
 154:/home/phong/Documents/thesis/stm32f4/stm-idf/components/stm32f4xx_hal_driver/stm32f4xx_hal_dcmi.c ****   */
 155:/home/phong/Documents/thesis/stm32f4/stm-idf/components/stm32f4xx_hal_driver/stm32f4xx_hal_dcmi.c **** 
 156:/home/phong/Documents/thesis/stm32f4/stm-idf/components/stm32f4xx_hal_driver/stm32f4xx_hal_dcmi.c **** /** @defgroup DCMI_Exported_Functions_Group1 Initialization and Configuration functions
 157:/home/phong/Documents/thesis/stm32f4/stm-idf/components/stm32f4xx_hal_driver/stm32f4xx_hal_dcmi.c ****   *  @brief   Initialization and Configuration functions
 158:/home/phong/Documents/thesis/stm32f4/stm-idf/components/stm32f4xx_hal_driver/stm32f4xx_hal_dcmi.c ****   *
 159:/home/phong/Documents/thesis/stm32f4/stm-idf/components/stm32f4xx_hal_driver/stm32f4xx_hal_dcmi.c **** @verbatim
 160:/home/phong/Documents/thesis/stm32f4/stm-idf/components/stm32f4xx_hal_driver/stm32f4xx_hal_dcmi.c ****  ===============================================================================
 161:/home/phong/Documents/thesis/stm32f4/stm-idf/components/stm32f4xx_hal_driver/stm32f4xx_hal_dcmi.c ****                 ##### Initialization and Configuration functions #####
 162:/home/phong/Documents/thesis/stm32f4/stm-idf/components/stm32f4xx_hal_driver/stm32f4xx_hal_dcmi.c ****  ===============================================================================
 163:/home/phong/Documents/thesis/stm32f4/stm-idf/components/stm32f4xx_hal_driver/stm32f4xx_hal_dcmi.c ****     [..]  This section provides functions allowing to:
 164:/home/phong/Documents/thesis/stm32f4/stm-idf/components/stm32f4xx_hal_driver/stm32f4xx_hal_dcmi.c ****       (+) Initialize and configure the DCMI
 165:/home/phong/Documents/thesis/stm32f4/stm-idf/components/stm32f4xx_hal_driver/stm32f4xx_hal_dcmi.c ****       (+) De-initialize the DCMI 
 166:/home/phong/Documents/thesis/stm32f4/stm-idf/components/stm32f4xx_hal_driver/stm32f4xx_hal_dcmi.c **** 
 167:/home/phong/Documents/thesis/stm32f4/stm-idf/components/stm32f4xx_hal_driver/stm32f4xx_hal_dcmi.c **** @endverbatim
 168:/home/phong/Documents/thesis/stm32f4/stm-idf/components/stm32f4xx_hal_driver/stm32f4xx_hal_dcmi.c ****   * @{
 169:/home/phong/Documents/thesis/stm32f4/stm-idf/components/stm32f4xx_hal_driver/stm32f4xx_hal_dcmi.c ****   */
 170:/home/phong/Documents/thesis/stm32f4/stm-idf/components/stm32f4xx_hal_driver/stm32f4xx_hal_dcmi.c **** 
 171:/home/phong/Documents/thesis/stm32f4/stm-idf/components/stm32f4xx_hal_driver/stm32f4xx_hal_dcmi.c **** /**
 172:/home/phong/Documents/thesis/stm32f4/stm-idf/components/stm32f4xx_hal_driver/stm32f4xx_hal_dcmi.c ****   * @brief  Initializes the DCMI according to the specified
 173:/home/phong/Documents/thesis/stm32f4/stm-idf/components/stm32f4xx_hal_driver/stm32f4xx_hal_dcmi.c ****   *         parameters in the DCMI_InitTypeDef and create the associated handle.
 174:/home/phong/Documents/thesis/stm32f4/stm-idf/components/stm32f4xx_hal_driver/stm32f4xx_hal_dcmi.c ****   * @param  hdcmi pointer to a DCMI_HandleTypeDef structure that contains
 175:/home/phong/Documents/thesis/stm32f4/stm-idf/components/stm32f4xx_hal_driver/stm32f4xx_hal_dcmi.c ****   *                the configuration information for DCMI.
 176:/home/phong/Documents/thesis/stm32f4/stm-idf/components/stm32f4xx_hal_driver/stm32f4xx_hal_dcmi.c ****   * @retval HAL status
 177:/home/phong/Documents/thesis/stm32f4/stm-idf/components/stm32f4xx_hal_driver/stm32f4xx_hal_dcmi.c ****   */
 178:/home/phong/Documents/thesis/stm32f4/stm-idf/components/stm32f4xx_hal_driver/stm32f4xx_hal_dcmi.c **** __weak HAL_StatusTypeDef HAL_DCMI_Init(DCMI_HandleTypeDef *hdcmi)
 179:/home/phong/Documents/thesis/stm32f4/stm-idf/components/stm32f4xx_hal_driver/stm32f4xx_hal_dcmi.c **** {
 180:/home/phong/Documents/thesis/stm32f4/stm-idf/components/stm32f4xx_hal_driver/stm32f4xx_hal_dcmi.c ****   /* Check the DCMI peripheral state */
 181:/home/phong/Documents/thesis/stm32f4/stm-idf/components/stm32f4xx_hal_driver/stm32f4xx_hal_dcmi.c ****   if(hdcmi == NULL)
 182:/home/phong/Documents/thesis/stm32f4/stm-idf/components/stm32f4xx_hal_driver/stm32f4xx_hal_dcmi.c ****   {
 183:/home/phong/Documents/thesis/stm32f4/stm-idf/components/stm32f4xx_hal_driver/stm32f4xx_hal_dcmi.c ****      return HAL_ERROR;
 184:/home/phong/Documents/thesis/stm32f4/stm-idf/components/stm32f4xx_hal_driver/stm32f4xx_hal_dcmi.c ****   }
 185:/home/phong/Documents/thesis/stm32f4/stm-idf/components/stm32f4xx_hal_driver/stm32f4xx_hal_dcmi.c **** 
 186:/home/phong/Documents/thesis/stm32f4/stm-idf/components/stm32f4xx_hal_driver/stm32f4xx_hal_dcmi.c ****   /* Check function parameters */
 187:/home/phong/Documents/thesis/stm32f4/stm-idf/components/stm32f4xx_hal_driver/stm32f4xx_hal_dcmi.c ****   assert_param(IS_DCMI_ALL_INSTANCE(hdcmi->Instance));
 188:/home/phong/Documents/thesis/stm32f4/stm-idf/components/stm32f4xx_hal_driver/stm32f4xx_hal_dcmi.c ****   assert_param(IS_DCMI_PCKPOLARITY(hdcmi->Init.PCKPolarity));
 189:/home/phong/Documents/thesis/stm32f4/stm-idf/components/stm32f4xx_hal_driver/stm32f4xx_hal_dcmi.c ****   assert_param(IS_DCMI_VSPOLARITY(hdcmi->Init.VSPolarity));
 190:/home/phong/Documents/thesis/stm32f4/stm-idf/components/stm32f4xx_hal_driver/stm32f4xx_hal_dcmi.c ****   assert_param(IS_DCMI_HSPOLARITY(hdcmi->Init.HSPolarity));
 191:/home/phong/Documents/thesis/stm32f4/stm-idf/components/stm32f4xx_hal_driver/stm32f4xx_hal_dcmi.c ****   assert_param(IS_DCMI_SYNCHRO(hdcmi->Init.SynchroMode));
 192:/home/phong/Documents/thesis/stm32f4/stm-idf/components/stm32f4xx_hal_driver/stm32f4xx_hal_dcmi.c ****   assert_param(IS_DCMI_CAPTURE_RATE(hdcmi->Init.CaptureRate));
 193:/home/phong/Documents/thesis/stm32f4/stm-idf/components/stm32f4xx_hal_driver/stm32f4xx_hal_dcmi.c ****   assert_param(IS_DCMI_EXTENDED_DATA(hdcmi->Init.ExtendedDataMode));
 194:/home/phong/Documents/thesis/stm32f4/stm-idf/components/stm32f4xx_hal_driver/stm32f4xx_hal_dcmi.c ****   assert_param(IS_DCMI_MODE_JPEG(hdcmi->Init.JPEGMode));
 195:/home/phong/Documents/thesis/stm32f4/stm-idf/components/stm32f4xx_hal_driver/stm32f4xx_hal_dcmi.c **** 
 196:/home/phong/Documents/thesis/stm32f4/stm-idf/components/stm32f4xx_hal_driver/stm32f4xx_hal_dcmi.c ****   if(hdcmi->State == HAL_DCMI_STATE_RESET)
 197:/home/phong/Documents/thesis/stm32f4/stm-idf/components/stm32f4xx_hal_driver/stm32f4xx_hal_dcmi.c ****   {
 198:/home/phong/Documents/thesis/stm32f4/stm-idf/components/stm32f4xx_hal_driver/stm32f4xx_hal_dcmi.c ****     /* Allocate lock resource and initialize it */
 199:/home/phong/Documents/thesis/stm32f4/stm-idf/components/stm32f4xx_hal_driver/stm32f4xx_hal_dcmi.c ****     hdcmi->Lock = HAL_UNLOCKED;
 200:/home/phong/Documents/thesis/stm32f4/stm-idf/components/stm32f4xx_hal_driver/stm32f4xx_hal_dcmi.c ****     /* Init the low level hardware */
 201:/home/phong/Documents/thesis/stm32f4/stm-idf/components/stm32f4xx_hal_driver/stm32f4xx_hal_dcmi.c ****   /* Init the DCMI Callback settings */
 202:/home/phong/Documents/thesis/stm32f4/stm-idf/components/stm32f4xx_hal_driver/stm32f4xx_hal_dcmi.c **** #if (USE_HAL_DCMI_REGISTER_CALLBACKS == 1)
 203:/home/phong/Documents/thesis/stm32f4/stm-idf/components/stm32f4xx_hal_driver/stm32f4xx_hal_dcmi.c ****     hdcmi->FrameEventCallback = HAL_DCMI_FrameEventCallback; /* Legacy weak FrameEventCallback  */ 
ARM GAS  /tmp/cczl6hC8.s 			page 5


 204:/home/phong/Documents/thesis/stm32f4/stm-idf/components/stm32f4xx_hal_driver/stm32f4xx_hal_dcmi.c ****     hdcmi->VsyncEventCallback = HAL_DCMI_VsyncEventCallback; /* Legacy weak VsyncEventCallback  */ 
 205:/home/phong/Documents/thesis/stm32f4/stm-idf/components/stm32f4xx_hal_driver/stm32f4xx_hal_dcmi.c ****     hdcmi->LineEventCallback  = HAL_DCMI_LineEventCallback;  /* Legacy weak LineEventCallback   */ 
 206:/home/phong/Documents/thesis/stm32f4/stm-idf/components/stm32f4xx_hal_driver/stm32f4xx_hal_dcmi.c ****     hdcmi->ErrorCallback      = HAL_DCMI_ErrorCallback;      /* Legacy weak ErrorCallback       */ 
 207:/home/phong/Documents/thesis/stm32f4/stm-idf/components/stm32f4xx_hal_driver/stm32f4xx_hal_dcmi.c ****     
 208:/home/phong/Documents/thesis/stm32f4/stm-idf/components/stm32f4xx_hal_driver/stm32f4xx_hal_dcmi.c ****     if(hdcmi->MspInitCallback == NULL)  
 209:/home/phong/Documents/thesis/stm32f4/stm-idf/components/stm32f4xx_hal_driver/stm32f4xx_hal_dcmi.c ****     {
 210:/home/phong/Documents/thesis/stm32f4/stm-idf/components/stm32f4xx_hal_driver/stm32f4xx_hal_dcmi.c ****       /* Legacy weak MspInit Callback        */
 211:/home/phong/Documents/thesis/stm32f4/stm-idf/components/stm32f4xx_hal_driver/stm32f4xx_hal_dcmi.c ****       hdcmi->MspInitCallback = HAL_DCMI_MspInit;
 212:/home/phong/Documents/thesis/stm32f4/stm-idf/components/stm32f4xx_hal_driver/stm32f4xx_hal_dcmi.c ****     }
 213:/home/phong/Documents/thesis/stm32f4/stm-idf/components/stm32f4xx_hal_driver/stm32f4xx_hal_dcmi.c ****     /* Initialize the low level hardware (MSP) */
 214:/home/phong/Documents/thesis/stm32f4/stm-idf/components/stm32f4xx_hal_driver/stm32f4xx_hal_dcmi.c ****     hdcmi->MspInitCallback(hdcmi);
 215:/home/phong/Documents/thesis/stm32f4/stm-idf/components/stm32f4xx_hal_driver/stm32f4xx_hal_dcmi.c **** #else  
 216:/home/phong/Documents/thesis/stm32f4/stm-idf/components/stm32f4xx_hal_driver/stm32f4xx_hal_dcmi.c ****     /* Init the low level hardware : GPIO, CLOCK, NVIC and DMA */
 217:/home/phong/Documents/thesis/stm32f4/stm-idf/components/stm32f4xx_hal_driver/stm32f4xx_hal_dcmi.c ****     HAL_DCMI_MspInit(hdcmi);
 218:/home/phong/Documents/thesis/stm32f4/stm-idf/components/stm32f4xx_hal_driver/stm32f4xx_hal_dcmi.c **** #endif /* (USE_HAL_DCMI_REGISTER_CALLBACKS) */
 219:/home/phong/Documents/thesis/stm32f4/stm-idf/components/stm32f4xx_hal_driver/stm32f4xx_hal_dcmi.c ****     HAL_DCMI_MspInit(hdcmi);
 220:/home/phong/Documents/thesis/stm32f4/stm-idf/components/stm32f4xx_hal_driver/stm32f4xx_hal_dcmi.c ****   }
 221:/home/phong/Documents/thesis/stm32f4/stm-idf/components/stm32f4xx_hal_driver/stm32f4xx_hal_dcmi.c **** 
 222:/home/phong/Documents/thesis/stm32f4/stm-idf/components/stm32f4xx_hal_driver/stm32f4xx_hal_dcmi.c ****   /* Change the DCMI state */
 223:/home/phong/Documents/thesis/stm32f4/stm-idf/components/stm32f4xx_hal_driver/stm32f4xx_hal_dcmi.c ****   hdcmi->State = HAL_DCMI_STATE_BUSY;
 224:/home/phong/Documents/thesis/stm32f4/stm-idf/components/stm32f4xx_hal_driver/stm32f4xx_hal_dcmi.c **** 
 225:/home/phong/Documents/thesis/stm32f4/stm-idf/components/stm32f4xx_hal_driver/stm32f4xx_hal_dcmi.c ****   /* Set DCMI parameters */
 226:/home/phong/Documents/thesis/stm32f4/stm-idf/components/stm32f4xx_hal_driver/stm32f4xx_hal_dcmi.c ****   /* Configures the HS, VS, DE and PC polarity */
 227:/home/phong/Documents/thesis/stm32f4/stm-idf/components/stm32f4xx_hal_driver/stm32f4xx_hal_dcmi.c ****   hdcmi->Instance->CR &= ~(DCMI_CR_PCKPOL | DCMI_CR_HSPOL  | DCMI_CR_VSPOL  | DCMI_CR_EDM_0 |
 228:/home/phong/Documents/thesis/stm32f4/stm-idf/components/stm32f4xx_hal_driver/stm32f4xx_hal_dcmi.c ****                            DCMI_CR_EDM_1  | DCMI_CR_FCRC_0 | DCMI_CR_FCRC_1 | DCMI_CR_JPEG  |
 229:/home/phong/Documents/thesis/stm32f4/stm-idf/components/stm32f4xx_hal_driver/stm32f4xx_hal_dcmi.c ****                            DCMI_CR_ESS);
 230:/home/phong/Documents/thesis/stm32f4/stm-idf/components/stm32f4xx_hal_driver/stm32f4xx_hal_dcmi.c ****   hdcmi->Instance->CR |=  (uint32_t)(hdcmi->Init.SynchroMode | hdcmi->Init.CaptureRate | \
 231:/home/phong/Documents/thesis/stm32f4/stm-idf/components/stm32f4xx_hal_driver/stm32f4xx_hal_dcmi.c ****                                      hdcmi->Init.VSPolarity  | hdcmi->Init.HSPolarity  | \
 232:/home/phong/Documents/thesis/stm32f4/stm-idf/components/stm32f4xx_hal_driver/stm32f4xx_hal_dcmi.c ****                                      hdcmi->Init.PCKPolarity | hdcmi->Init.ExtendedDataMode | \
 233:/home/phong/Documents/thesis/stm32f4/stm-idf/components/stm32f4xx_hal_driver/stm32f4xx_hal_dcmi.c ****                                      hdcmi->Init.JPEGMode);
 234:/home/phong/Documents/thesis/stm32f4/stm-idf/components/stm32f4xx_hal_driver/stm32f4xx_hal_dcmi.c **** 
 235:/home/phong/Documents/thesis/stm32f4/stm-idf/components/stm32f4xx_hal_driver/stm32f4xx_hal_dcmi.c ****   if(hdcmi->Init.SynchroMode == DCMI_SYNCHRO_EMBEDDED)
 236:/home/phong/Documents/thesis/stm32f4/stm-idf/components/stm32f4xx_hal_driver/stm32f4xx_hal_dcmi.c ****   {
 237:/home/phong/Documents/thesis/stm32f4/stm-idf/components/stm32f4xx_hal_driver/stm32f4xx_hal_dcmi.c ****     hdcmi->Instance->ESCR = (((uint32_t)hdcmi->Init.SyncroCode.FrameStartCode)    |
 238:/home/phong/Documents/thesis/stm32f4/stm-idf/components/stm32f4xx_hal_driver/stm32f4xx_hal_dcmi.c ****                              ((uint32_t)hdcmi->Init.SyncroCode.LineStartCode << DCMI_POSITION_ESCR_
 239:/home/phong/Documents/thesis/stm32f4/stm-idf/components/stm32f4xx_hal_driver/stm32f4xx_hal_dcmi.c ****                              ((uint32_t)hdcmi->Init.SyncroCode.LineEndCode << DCMI_POSITION_ESCR_LE
 240:/home/phong/Documents/thesis/stm32f4/stm-idf/components/stm32f4xx_hal_driver/stm32f4xx_hal_dcmi.c ****                              ((uint32_t)hdcmi->Init.SyncroCode.FrameEndCode << DCMI_POSITION_ESCR_F
 241:/home/phong/Documents/thesis/stm32f4/stm-idf/components/stm32f4xx_hal_driver/stm32f4xx_hal_dcmi.c ****   }
 242:/home/phong/Documents/thesis/stm32f4/stm-idf/components/stm32f4xx_hal_driver/stm32f4xx_hal_dcmi.c **** 
 243:/home/phong/Documents/thesis/stm32f4/stm-idf/components/stm32f4xx_hal_driver/stm32f4xx_hal_dcmi.c ****   /* Enable the Line, Vsync, Error and Overrun interrupts */
 244:/home/phong/Documents/thesis/stm32f4/stm-idf/components/stm32f4xx_hal_driver/stm32f4xx_hal_dcmi.c ****   __HAL_DCMI_ENABLE_IT(hdcmi, DCMI_IT_LINE | DCMI_IT_VSYNC | DCMI_IT_ERR | DCMI_IT_OVR);
 245:/home/phong/Documents/thesis/stm32f4/stm-idf/components/stm32f4xx_hal_driver/stm32f4xx_hal_dcmi.c **** 
 246:/home/phong/Documents/thesis/stm32f4/stm-idf/components/stm32f4xx_hal_driver/stm32f4xx_hal_dcmi.c ****   /* Update error code */
 247:/home/phong/Documents/thesis/stm32f4/stm-idf/components/stm32f4xx_hal_driver/stm32f4xx_hal_dcmi.c ****   hdcmi->ErrorCode = HAL_DCMI_ERROR_NONE;
 248:/home/phong/Documents/thesis/stm32f4/stm-idf/components/stm32f4xx_hal_driver/stm32f4xx_hal_dcmi.c **** 
 249:/home/phong/Documents/thesis/stm32f4/stm-idf/components/stm32f4xx_hal_driver/stm32f4xx_hal_dcmi.c ****   /* Initialize the DCMI state*/
 250:/home/phong/Documents/thesis/stm32f4/stm-idf/components/stm32f4xx_hal_driver/stm32f4xx_hal_dcmi.c ****   hdcmi->State  = HAL_DCMI_STATE_READY;
 251:/home/phong/Documents/thesis/stm32f4/stm-idf/components/stm32f4xx_hal_driver/stm32f4xx_hal_dcmi.c **** 
 252:/home/phong/Documents/thesis/stm32f4/stm-idf/components/stm32f4xx_hal_driver/stm32f4xx_hal_dcmi.c ****   return HAL_OK;
 253:/home/phong/Documents/thesis/stm32f4/stm-idf/components/stm32f4xx_hal_driver/stm32f4xx_hal_dcmi.c **** }
 254:/home/phong/Documents/thesis/stm32f4/stm-idf/components/stm32f4xx_hal_driver/stm32f4xx_hal_dcmi.c **** 
 255:/home/phong/Documents/thesis/stm32f4/stm-idf/components/stm32f4xx_hal_driver/stm32f4xx_hal_dcmi.c **** /**
 256:/home/phong/Documents/thesis/stm32f4/stm-idf/components/stm32f4xx_hal_driver/stm32f4xx_hal_dcmi.c ****   * @brief  Deinitializes the DCMI peripheral registers to their default reset
 257:/home/phong/Documents/thesis/stm32f4/stm-idf/components/stm32f4xx_hal_driver/stm32f4xx_hal_dcmi.c ****   *         values.
 258:/home/phong/Documents/thesis/stm32f4/stm-idf/components/stm32f4xx_hal_driver/stm32f4xx_hal_dcmi.c ****   * @param  hdcmi pointer to a DCMI_HandleTypeDef structure that contains
 259:/home/phong/Documents/thesis/stm32f4/stm-idf/components/stm32f4xx_hal_driver/stm32f4xx_hal_dcmi.c ****   *                the configuration information for DCMI.
 260:/home/phong/Documents/thesis/stm32f4/stm-idf/components/stm32f4xx_hal_driver/stm32f4xx_hal_dcmi.c ****   * @retval HAL status
ARM GAS  /tmp/cczl6hC8.s 			page 6


 261:/home/phong/Documents/thesis/stm32f4/stm-idf/components/stm32f4xx_hal_driver/stm32f4xx_hal_dcmi.c ****   */
 262:/home/phong/Documents/thesis/stm32f4/stm-idf/components/stm32f4xx_hal_driver/stm32f4xx_hal_dcmi.c **** 
 263:/home/phong/Documents/thesis/stm32f4/stm-idf/components/stm32f4xx_hal_driver/stm32f4xx_hal_dcmi.c **** HAL_StatusTypeDef HAL_DCMI_DeInit(DCMI_HandleTypeDef *hdcmi)
 264:/home/phong/Documents/thesis/stm32f4/stm-idf/components/stm32f4xx_hal_driver/stm32f4xx_hal_dcmi.c **** {
 265:/home/phong/Documents/thesis/stm32f4/stm-idf/components/stm32f4xx_hal_driver/stm32f4xx_hal_dcmi.c **** #if (USE_HAL_DCMI_REGISTER_CALLBACKS == 1)  
 266:/home/phong/Documents/thesis/stm32f4/stm-idf/components/stm32f4xx_hal_driver/stm32f4xx_hal_dcmi.c ****   if(hdcmi->MspDeInitCallback == NULL)  
 267:/home/phong/Documents/thesis/stm32f4/stm-idf/components/stm32f4xx_hal_driver/stm32f4xx_hal_dcmi.c ****   {
 268:/home/phong/Documents/thesis/stm32f4/stm-idf/components/stm32f4xx_hal_driver/stm32f4xx_hal_dcmi.c ****     hdcmi->MspDeInitCallback = HAL_DCMI_MspDeInit;
 269:/home/phong/Documents/thesis/stm32f4/stm-idf/components/stm32f4xx_hal_driver/stm32f4xx_hal_dcmi.c ****   }
 270:/home/phong/Documents/thesis/stm32f4/stm-idf/components/stm32f4xx_hal_driver/stm32f4xx_hal_dcmi.c ****   /* De-Initialize the low level hardware (MSP) */
 271:/home/phong/Documents/thesis/stm32f4/stm-idf/components/stm32f4xx_hal_driver/stm32f4xx_hal_dcmi.c ****   hdcmi->MspDeInitCallback(hdcmi);
 272:/home/phong/Documents/thesis/stm32f4/stm-idf/components/stm32f4xx_hal_driver/stm32f4xx_hal_dcmi.c **** #else
 273:/home/phong/Documents/thesis/stm32f4/stm-idf/components/stm32f4xx_hal_driver/stm32f4xx_hal_dcmi.c ****   /* DeInit the low level hardware: GPIO, CLOCK, NVIC and DMA */
 274:/home/phong/Documents/thesis/stm32f4/stm-idf/components/stm32f4xx_hal_driver/stm32f4xx_hal_dcmi.c ****   HAL_DCMI_MspDeInit(hdcmi);
 275:/home/phong/Documents/thesis/stm32f4/stm-idf/components/stm32f4xx_hal_driver/stm32f4xx_hal_dcmi.c **** #endif /* (USE_HAL_DCMI_REGISTER_CALLBACKS) */
 276:/home/phong/Documents/thesis/stm32f4/stm-idf/components/stm32f4xx_hal_driver/stm32f4xx_hal_dcmi.c **** 
 277:/home/phong/Documents/thesis/stm32f4/stm-idf/components/stm32f4xx_hal_driver/stm32f4xx_hal_dcmi.c ****   /* Update error code */
 278:/home/phong/Documents/thesis/stm32f4/stm-idf/components/stm32f4xx_hal_driver/stm32f4xx_hal_dcmi.c ****   hdcmi->ErrorCode = HAL_DCMI_ERROR_NONE;
 279:/home/phong/Documents/thesis/stm32f4/stm-idf/components/stm32f4xx_hal_driver/stm32f4xx_hal_dcmi.c **** 
 280:/home/phong/Documents/thesis/stm32f4/stm-idf/components/stm32f4xx_hal_driver/stm32f4xx_hal_dcmi.c ****   /* Initialize the DCMI state*/
 281:/home/phong/Documents/thesis/stm32f4/stm-idf/components/stm32f4xx_hal_driver/stm32f4xx_hal_dcmi.c ****   hdcmi->State = HAL_DCMI_STATE_RESET;
 282:/home/phong/Documents/thesis/stm32f4/stm-idf/components/stm32f4xx_hal_driver/stm32f4xx_hal_dcmi.c **** 
 283:/home/phong/Documents/thesis/stm32f4/stm-idf/components/stm32f4xx_hal_driver/stm32f4xx_hal_dcmi.c ****   /* Release Lock */
 284:/home/phong/Documents/thesis/stm32f4/stm-idf/components/stm32f4xx_hal_driver/stm32f4xx_hal_dcmi.c ****   __HAL_UNLOCK(hdcmi);
 285:/home/phong/Documents/thesis/stm32f4/stm-idf/components/stm32f4xx_hal_driver/stm32f4xx_hal_dcmi.c **** 
 286:/home/phong/Documents/thesis/stm32f4/stm-idf/components/stm32f4xx_hal_driver/stm32f4xx_hal_dcmi.c ****   return HAL_OK;
 287:/home/phong/Documents/thesis/stm32f4/stm-idf/components/stm32f4xx_hal_driver/stm32f4xx_hal_dcmi.c **** }
 288:/home/phong/Documents/thesis/stm32f4/stm-idf/components/stm32f4xx_hal_driver/stm32f4xx_hal_dcmi.c **** 
 289:/home/phong/Documents/thesis/stm32f4/stm-idf/components/stm32f4xx_hal_driver/stm32f4xx_hal_dcmi.c **** /**
 290:/home/phong/Documents/thesis/stm32f4/stm-idf/components/stm32f4xx_hal_driver/stm32f4xx_hal_dcmi.c ****   * @brief  Initializes the DCMI MSP.
 291:/home/phong/Documents/thesis/stm32f4/stm-idf/components/stm32f4xx_hal_driver/stm32f4xx_hal_dcmi.c ****   * @param  hdcmi pointer to a DCMI_HandleTypeDef structure that contains
 292:/home/phong/Documents/thesis/stm32f4/stm-idf/components/stm32f4xx_hal_driver/stm32f4xx_hal_dcmi.c ****   *                the configuration information for DCMI.
 293:/home/phong/Documents/thesis/stm32f4/stm-idf/components/stm32f4xx_hal_driver/stm32f4xx_hal_dcmi.c ****   * @retval None
 294:/home/phong/Documents/thesis/stm32f4/stm-idf/components/stm32f4xx_hal_driver/stm32f4xx_hal_dcmi.c ****   */
 295:/home/phong/Documents/thesis/stm32f4/stm-idf/components/stm32f4xx_hal_driver/stm32f4xx_hal_dcmi.c **** __weak void HAL_DCMI_MspInit(DCMI_HandleTypeDef* hdcmi)
 296:/home/phong/Documents/thesis/stm32f4/stm-idf/components/stm32f4xx_hal_driver/stm32f4xx_hal_dcmi.c **** {
 297:/home/phong/Documents/thesis/stm32f4/stm-idf/components/stm32f4xx_hal_driver/stm32f4xx_hal_dcmi.c ****   /* Prevent unused argument(s) compilation warning */
 298:/home/phong/Documents/thesis/stm32f4/stm-idf/components/stm32f4xx_hal_driver/stm32f4xx_hal_dcmi.c ****   UNUSED(hdcmi);
 299:/home/phong/Documents/thesis/stm32f4/stm-idf/components/stm32f4xx_hal_driver/stm32f4xx_hal_dcmi.c ****   /* NOTE : This function Should not be modified, when the callback is needed,
 300:/home/phong/Documents/thesis/stm32f4/stm-idf/components/stm32f4xx_hal_driver/stm32f4xx_hal_dcmi.c ****             the HAL_DCMI_MspInit could be implemented in the user file
 301:/home/phong/Documents/thesis/stm32f4/stm-idf/components/stm32f4xx_hal_driver/stm32f4xx_hal_dcmi.c ****    */ 
 302:/home/phong/Documents/thesis/stm32f4/stm-idf/components/stm32f4xx_hal_driver/stm32f4xx_hal_dcmi.c **** }
 303:/home/phong/Documents/thesis/stm32f4/stm-idf/components/stm32f4xx_hal_driver/stm32f4xx_hal_dcmi.c **** 
 304:/home/phong/Documents/thesis/stm32f4/stm-idf/components/stm32f4xx_hal_driver/stm32f4xx_hal_dcmi.c **** /**
 305:/home/phong/Documents/thesis/stm32f4/stm-idf/components/stm32f4xx_hal_driver/stm32f4xx_hal_dcmi.c ****   * @brief  DeInitializes the DCMI MSP.
 306:/home/phong/Documents/thesis/stm32f4/stm-idf/components/stm32f4xx_hal_driver/stm32f4xx_hal_dcmi.c ****   * @param  hdcmi pointer to a DCMI_HandleTypeDef structure that contains
 307:/home/phong/Documents/thesis/stm32f4/stm-idf/components/stm32f4xx_hal_driver/stm32f4xx_hal_dcmi.c ****   *                the configuration information for DCMI.
 308:/home/phong/Documents/thesis/stm32f4/stm-idf/components/stm32f4xx_hal_driver/stm32f4xx_hal_dcmi.c ****   * @retval None
 309:/home/phong/Documents/thesis/stm32f4/stm-idf/components/stm32f4xx_hal_driver/stm32f4xx_hal_dcmi.c ****   */
 310:/home/phong/Documents/thesis/stm32f4/stm-idf/components/stm32f4xx_hal_driver/stm32f4xx_hal_dcmi.c **** __weak void HAL_DCMI_MspDeInit(DCMI_HandleTypeDef* hdcmi)
 311:/home/phong/Documents/thesis/stm32f4/stm-idf/components/stm32f4xx_hal_driver/stm32f4xx_hal_dcmi.c **** {
 312:/home/phong/Documents/thesis/stm32f4/stm-idf/components/stm32f4xx_hal_driver/stm32f4xx_hal_dcmi.c ****   /* Prevent unused argument(s) compilation warning */
 313:/home/phong/Documents/thesis/stm32f4/stm-idf/components/stm32f4xx_hal_driver/stm32f4xx_hal_dcmi.c ****   UNUSED(hdcmi);
 314:/home/phong/Documents/thesis/stm32f4/stm-idf/components/stm32f4xx_hal_driver/stm32f4xx_hal_dcmi.c ****   /* NOTE : This function Should not be modified, when the callback is needed,
 315:/home/phong/Documents/thesis/stm32f4/stm-idf/components/stm32f4xx_hal_driver/stm32f4xx_hal_dcmi.c ****             the HAL_DCMI_MspDeInit could be implemented in the user file
 316:/home/phong/Documents/thesis/stm32f4/stm-idf/components/stm32f4xx_hal_driver/stm32f4xx_hal_dcmi.c ****    */
 317:/home/phong/Documents/thesis/stm32f4/stm-idf/components/stm32f4xx_hal_driver/stm32f4xx_hal_dcmi.c **** }
ARM GAS  /tmp/cczl6hC8.s 			page 7


 318:/home/phong/Documents/thesis/stm32f4/stm-idf/components/stm32f4xx_hal_driver/stm32f4xx_hal_dcmi.c **** 
 319:/home/phong/Documents/thesis/stm32f4/stm-idf/components/stm32f4xx_hal_driver/stm32f4xx_hal_dcmi.c **** /**
 320:/home/phong/Documents/thesis/stm32f4/stm-idf/components/stm32f4xx_hal_driver/stm32f4xx_hal_dcmi.c ****   * @}
 321:/home/phong/Documents/thesis/stm32f4/stm-idf/components/stm32f4xx_hal_driver/stm32f4xx_hal_dcmi.c ****   */
 322:/home/phong/Documents/thesis/stm32f4/stm-idf/components/stm32f4xx_hal_driver/stm32f4xx_hal_dcmi.c **** /** @defgroup DCMI_Exported_Functions_Group2 IO operation functions
 323:/home/phong/Documents/thesis/stm32f4/stm-idf/components/stm32f4xx_hal_driver/stm32f4xx_hal_dcmi.c ****   *  @brief   IO operation functions
 324:/home/phong/Documents/thesis/stm32f4/stm-idf/components/stm32f4xx_hal_driver/stm32f4xx_hal_dcmi.c ****   *
 325:/home/phong/Documents/thesis/stm32f4/stm-idf/components/stm32f4xx_hal_driver/stm32f4xx_hal_dcmi.c **** @verbatim
 326:/home/phong/Documents/thesis/stm32f4/stm-idf/components/stm32f4xx_hal_driver/stm32f4xx_hal_dcmi.c ****  ===============================================================================
 327:/home/phong/Documents/thesis/stm32f4/stm-idf/components/stm32f4xx_hal_driver/stm32f4xx_hal_dcmi.c ****                       #####  IO operation functions  #####
 328:/home/phong/Documents/thesis/stm32f4/stm-idf/components/stm32f4xx_hal_driver/stm32f4xx_hal_dcmi.c ****  ===============================================================================
 329:/home/phong/Documents/thesis/stm32f4/stm-idf/components/stm32f4xx_hal_driver/stm32f4xx_hal_dcmi.c ****     [..]  This section provides functions allowing to:
 330:/home/phong/Documents/thesis/stm32f4/stm-idf/components/stm32f4xx_hal_driver/stm32f4xx_hal_dcmi.c ****       (+) Configure destination address and data length and
 331:/home/phong/Documents/thesis/stm32f4/stm-idf/components/stm32f4xx_hal_driver/stm32f4xx_hal_dcmi.c ****           Enables DCMI DMA request and enables DCMI capture
 332:/home/phong/Documents/thesis/stm32f4/stm-idf/components/stm32f4xx_hal_driver/stm32f4xx_hal_dcmi.c ****       (+) Stop the DCMI capture.
 333:/home/phong/Documents/thesis/stm32f4/stm-idf/components/stm32f4xx_hal_driver/stm32f4xx_hal_dcmi.c ****       (+) Handles DCMI interrupt request.
 334:/home/phong/Documents/thesis/stm32f4/stm-idf/components/stm32f4xx_hal_driver/stm32f4xx_hal_dcmi.c **** 
 335:/home/phong/Documents/thesis/stm32f4/stm-idf/components/stm32f4xx_hal_driver/stm32f4xx_hal_dcmi.c **** @endverbatim
 336:/home/phong/Documents/thesis/stm32f4/stm-idf/components/stm32f4xx_hal_driver/stm32f4xx_hal_dcmi.c ****   * @{
 337:/home/phong/Documents/thesis/stm32f4/stm-idf/components/stm32f4xx_hal_driver/stm32f4xx_hal_dcmi.c ****   */
 338:/home/phong/Documents/thesis/stm32f4/stm-idf/components/stm32f4xx_hal_driver/stm32f4xx_hal_dcmi.c **** 
 339:/home/phong/Documents/thesis/stm32f4/stm-idf/components/stm32f4xx_hal_driver/stm32f4xx_hal_dcmi.c **** /**
 340:/home/phong/Documents/thesis/stm32f4/stm-idf/components/stm32f4xx_hal_driver/stm32f4xx_hal_dcmi.c ****   * @brief  Enables DCMI DMA request and enables DCMI capture
 341:/home/phong/Documents/thesis/stm32f4/stm-idf/components/stm32f4xx_hal_driver/stm32f4xx_hal_dcmi.c ****   * @param  hdcmi     pointer to a DCMI_HandleTypeDef structure that contains
 342:/home/phong/Documents/thesis/stm32f4/stm-idf/components/stm32f4xx_hal_driver/stm32f4xx_hal_dcmi.c ****   *                    the configuration information for DCMI.
 343:/home/phong/Documents/thesis/stm32f4/stm-idf/components/stm32f4xx_hal_driver/stm32f4xx_hal_dcmi.c ****   * @param  DCMI_Mode DCMI capture mode snapshot or continuous grab.
 344:/home/phong/Documents/thesis/stm32f4/stm-idf/components/stm32f4xx_hal_driver/stm32f4xx_hal_dcmi.c ****   * @param  pData     The destination memory Buffer address (LCD Frame buffer).
 345:/home/phong/Documents/thesis/stm32f4/stm-idf/components/stm32f4xx_hal_driver/stm32f4xx_hal_dcmi.c ****   * @param  Length    The length of capture to be transferred.
 346:/home/phong/Documents/thesis/stm32f4/stm-idf/components/stm32f4xx_hal_driver/stm32f4xx_hal_dcmi.c ****   * @retval HAL status
 347:/home/phong/Documents/thesis/stm32f4/stm-idf/components/stm32f4xx_hal_driver/stm32f4xx_hal_dcmi.c ****   */
 348:/home/phong/Documents/thesis/stm32f4/stm-idf/components/stm32f4xx_hal_driver/stm32f4xx_hal_dcmi.c **** HAL_StatusTypeDef HAL_DCMI_Start_DMA(DCMI_HandleTypeDef* hdcmi, uint32_t DCMI_Mode, uint32_t pData,
 349:/home/phong/Documents/thesis/stm32f4/stm-idf/components/stm32f4xx_hal_driver/stm32f4xx_hal_dcmi.c **** {
 350:/home/phong/Documents/thesis/stm32f4/stm-idf/components/stm32f4xx_hal_driver/stm32f4xx_hal_dcmi.c ****   /* Initialize the second memory address */
 351:/home/phong/Documents/thesis/stm32f4/stm-idf/components/stm32f4xx_hal_driver/stm32f4xx_hal_dcmi.c ****   uint32_t SecondMemAddress = 0U;
 352:/home/phong/Documents/thesis/stm32f4/stm-idf/components/stm32f4xx_hal_driver/stm32f4xx_hal_dcmi.c **** 
 353:/home/phong/Documents/thesis/stm32f4/stm-idf/components/stm32f4xx_hal_driver/stm32f4xx_hal_dcmi.c ****   /* Check function parameters */
 354:/home/phong/Documents/thesis/stm32f4/stm-idf/components/stm32f4xx_hal_driver/stm32f4xx_hal_dcmi.c ****   assert_param(IS_DCMI_CAPTURE_MODE(DCMI_Mode));
 355:/home/phong/Documents/thesis/stm32f4/stm-idf/components/stm32f4xx_hal_driver/stm32f4xx_hal_dcmi.c **** 
 356:/home/phong/Documents/thesis/stm32f4/stm-idf/components/stm32f4xx_hal_driver/stm32f4xx_hal_dcmi.c ****   /* Process Locked */
 357:/home/phong/Documents/thesis/stm32f4/stm-idf/components/stm32f4xx_hal_driver/stm32f4xx_hal_dcmi.c ****   __HAL_LOCK(hdcmi);
 358:/home/phong/Documents/thesis/stm32f4/stm-idf/components/stm32f4xx_hal_driver/stm32f4xx_hal_dcmi.c **** 
 359:/home/phong/Documents/thesis/stm32f4/stm-idf/components/stm32f4xx_hal_driver/stm32f4xx_hal_dcmi.c ****   /* Lock the DCMI peripheral state */
 360:/home/phong/Documents/thesis/stm32f4/stm-idf/components/stm32f4xx_hal_driver/stm32f4xx_hal_dcmi.c ****   hdcmi->State = HAL_DCMI_STATE_BUSY;
 361:/home/phong/Documents/thesis/stm32f4/stm-idf/components/stm32f4xx_hal_driver/stm32f4xx_hal_dcmi.c ****   
 362:/home/phong/Documents/thesis/stm32f4/stm-idf/components/stm32f4xx_hal_driver/stm32f4xx_hal_dcmi.c ****   /* Enable DCMI by setting DCMIEN bit */
 363:/home/phong/Documents/thesis/stm32f4/stm-idf/components/stm32f4xx_hal_driver/stm32f4xx_hal_dcmi.c ****   __HAL_DCMI_ENABLE(hdcmi);
 364:/home/phong/Documents/thesis/stm32f4/stm-idf/components/stm32f4xx_hal_driver/stm32f4xx_hal_dcmi.c **** 
 365:/home/phong/Documents/thesis/stm32f4/stm-idf/components/stm32f4xx_hal_driver/stm32f4xx_hal_dcmi.c ****   /* Configure the DCMI Mode */
 366:/home/phong/Documents/thesis/stm32f4/stm-idf/components/stm32f4xx_hal_driver/stm32f4xx_hal_dcmi.c ****   hdcmi->Instance->CR &= ~(DCMI_CR_CM);
 367:/home/phong/Documents/thesis/stm32f4/stm-idf/components/stm32f4xx_hal_driver/stm32f4xx_hal_dcmi.c ****   hdcmi->Instance->CR |=  (uint32_t)(DCMI_Mode);
 368:/home/phong/Documents/thesis/stm32f4/stm-idf/components/stm32f4xx_hal_driver/stm32f4xx_hal_dcmi.c **** 
 369:/home/phong/Documents/thesis/stm32f4/stm-idf/components/stm32f4xx_hal_driver/stm32f4xx_hal_dcmi.c ****   /* Set the DMA memory0 conversion complete callback */
 370:/home/phong/Documents/thesis/stm32f4/stm-idf/components/stm32f4xx_hal_driver/stm32f4xx_hal_dcmi.c ****   hdcmi->DMA_Handle->XferCpltCallback = DCMI_DMAXferCplt;
 371:/home/phong/Documents/thesis/stm32f4/stm-idf/components/stm32f4xx_hal_driver/stm32f4xx_hal_dcmi.c **** 
 372:/home/phong/Documents/thesis/stm32f4/stm-idf/components/stm32f4xx_hal_driver/stm32f4xx_hal_dcmi.c ****   /* Set the DMA error callback */
 373:/home/phong/Documents/thesis/stm32f4/stm-idf/components/stm32f4xx_hal_driver/stm32f4xx_hal_dcmi.c ****   hdcmi->DMA_Handle->XferErrorCallback = DCMI_DMAError;
 374:/home/phong/Documents/thesis/stm32f4/stm-idf/components/stm32f4xx_hal_driver/stm32f4xx_hal_dcmi.c **** 
ARM GAS  /tmp/cczl6hC8.s 			page 8


 375:/home/phong/Documents/thesis/stm32f4/stm-idf/components/stm32f4xx_hal_driver/stm32f4xx_hal_dcmi.c ****   /* Set the dma abort callback */
 376:/home/phong/Documents/thesis/stm32f4/stm-idf/components/stm32f4xx_hal_driver/stm32f4xx_hal_dcmi.c ****   hdcmi->DMA_Handle->XferAbortCallback = NULL;
 377:/home/phong/Documents/thesis/stm32f4/stm-idf/components/stm32f4xx_hal_driver/stm32f4xx_hal_dcmi.c ****   
 378:/home/phong/Documents/thesis/stm32f4/stm-idf/components/stm32f4xx_hal_driver/stm32f4xx_hal_dcmi.c ****   /* Reset transfer counters value */ 
 379:/home/phong/Documents/thesis/stm32f4/stm-idf/components/stm32f4xx_hal_driver/stm32f4xx_hal_dcmi.c ****   hdcmi->XferCount = 0U;
 380:/home/phong/Documents/thesis/stm32f4/stm-idf/components/stm32f4xx_hal_driver/stm32f4xx_hal_dcmi.c ****   hdcmi->XferTransferNumber = 0U;
 381:/home/phong/Documents/thesis/stm32f4/stm-idf/components/stm32f4xx_hal_driver/stm32f4xx_hal_dcmi.c **** 
 382:/home/phong/Documents/thesis/stm32f4/stm-idf/components/stm32f4xx_hal_driver/stm32f4xx_hal_dcmi.c ****   if(Length <= 0xFFFFU)
 383:/home/phong/Documents/thesis/stm32f4/stm-idf/components/stm32f4xx_hal_driver/stm32f4xx_hal_dcmi.c ****   {
 384:/home/phong/Documents/thesis/stm32f4/stm-idf/components/stm32f4xx_hal_driver/stm32f4xx_hal_dcmi.c ****     /* Enable the DMA Stream */
 385:/home/phong/Documents/thesis/stm32f4/stm-idf/components/stm32f4xx_hal_driver/stm32f4xx_hal_dcmi.c ****     HAL_DMA_Start_IT(hdcmi->DMA_Handle, (uint32_t)&hdcmi->Instance->DR, (uint32_t)pData, Length);
 386:/home/phong/Documents/thesis/stm32f4/stm-idf/components/stm32f4xx_hal_driver/stm32f4xx_hal_dcmi.c ****   }
 387:/home/phong/Documents/thesis/stm32f4/stm-idf/components/stm32f4xx_hal_driver/stm32f4xx_hal_dcmi.c ****   else /* DCMI_DOUBLE_BUFFER Mode */
 388:/home/phong/Documents/thesis/stm32f4/stm-idf/components/stm32f4xx_hal_driver/stm32f4xx_hal_dcmi.c ****   {
 389:/home/phong/Documents/thesis/stm32f4/stm-idf/components/stm32f4xx_hal_driver/stm32f4xx_hal_dcmi.c ****     /* Set the DMA memory1 conversion complete callback */
 390:/home/phong/Documents/thesis/stm32f4/stm-idf/components/stm32f4xx_hal_driver/stm32f4xx_hal_dcmi.c ****     hdcmi->DMA_Handle->XferM1CpltCallback = DCMI_DMAXferCplt;
 391:/home/phong/Documents/thesis/stm32f4/stm-idf/components/stm32f4xx_hal_driver/stm32f4xx_hal_dcmi.c **** 
 392:/home/phong/Documents/thesis/stm32f4/stm-idf/components/stm32f4xx_hal_driver/stm32f4xx_hal_dcmi.c ****     /* Initialize transfer parameters */
 393:/home/phong/Documents/thesis/stm32f4/stm-idf/components/stm32f4xx_hal_driver/stm32f4xx_hal_dcmi.c ****     hdcmi->XferCount = 1U;
 394:/home/phong/Documents/thesis/stm32f4/stm-idf/components/stm32f4xx_hal_driver/stm32f4xx_hal_dcmi.c ****     hdcmi->XferSize = Length;
 395:/home/phong/Documents/thesis/stm32f4/stm-idf/components/stm32f4xx_hal_driver/stm32f4xx_hal_dcmi.c ****     hdcmi->pBuffPtr = pData;
 396:/home/phong/Documents/thesis/stm32f4/stm-idf/components/stm32f4xx_hal_driver/stm32f4xx_hal_dcmi.c **** 
 397:/home/phong/Documents/thesis/stm32f4/stm-idf/components/stm32f4xx_hal_driver/stm32f4xx_hal_dcmi.c ****     /* Get the number of buffer */
 398:/home/phong/Documents/thesis/stm32f4/stm-idf/components/stm32f4xx_hal_driver/stm32f4xx_hal_dcmi.c ****     while(hdcmi->XferSize > 0xFFFFU)
 399:/home/phong/Documents/thesis/stm32f4/stm-idf/components/stm32f4xx_hal_driver/stm32f4xx_hal_dcmi.c ****     {
 400:/home/phong/Documents/thesis/stm32f4/stm-idf/components/stm32f4xx_hal_driver/stm32f4xx_hal_dcmi.c ****       hdcmi->XferSize = (hdcmi->XferSize/2U);
 401:/home/phong/Documents/thesis/stm32f4/stm-idf/components/stm32f4xx_hal_driver/stm32f4xx_hal_dcmi.c ****       hdcmi->XferCount = hdcmi->XferCount*2U;
 402:/home/phong/Documents/thesis/stm32f4/stm-idf/components/stm32f4xx_hal_driver/stm32f4xx_hal_dcmi.c ****     }
 403:/home/phong/Documents/thesis/stm32f4/stm-idf/components/stm32f4xx_hal_driver/stm32f4xx_hal_dcmi.c **** 
 404:/home/phong/Documents/thesis/stm32f4/stm-idf/components/stm32f4xx_hal_driver/stm32f4xx_hal_dcmi.c ****     /* Update DCMI counter  and transfer number*/
 405:/home/phong/Documents/thesis/stm32f4/stm-idf/components/stm32f4xx_hal_driver/stm32f4xx_hal_dcmi.c ****     hdcmi->XferCount = (hdcmi->XferCount - 2U);
 406:/home/phong/Documents/thesis/stm32f4/stm-idf/components/stm32f4xx_hal_driver/stm32f4xx_hal_dcmi.c ****     hdcmi->XferTransferNumber = hdcmi->XferCount;
 407:/home/phong/Documents/thesis/stm32f4/stm-idf/components/stm32f4xx_hal_driver/stm32f4xx_hal_dcmi.c **** 
 408:/home/phong/Documents/thesis/stm32f4/stm-idf/components/stm32f4xx_hal_driver/stm32f4xx_hal_dcmi.c ****     /* Update second memory address */
 409:/home/phong/Documents/thesis/stm32f4/stm-idf/components/stm32f4xx_hal_driver/stm32f4xx_hal_dcmi.c ****     SecondMemAddress = (uint32_t)(pData + (4U*hdcmi->XferSize));
 410:/home/phong/Documents/thesis/stm32f4/stm-idf/components/stm32f4xx_hal_driver/stm32f4xx_hal_dcmi.c **** 
 411:/home/phong/Documents/thesis/stm32f4/stm-idf/components/stm32f4xx_hal_driver/stm32f4xx_hal_dcmi.c ****     /* Start DMA multi buffer transfer */
 412:/home/phong/Documents/thesis/stm32f4/stm-idf/components/stm32f4xx_hal_driver/stm32f4xx_hal_dcmi.c ****     HAL_DMAEx_MultiBufferStart_IT(hdcmi->DMA_Handle, (uint32_t)&hdcmi->Instance->DR, (uint32_t)pDat
 413:/home/phong/Documents/thesis/stm32f4/stm-idf/components/stm32f4xx_hal_driver/stm32f4xx_hal_dcmi.c ****   }
 414:/home/phong/Documents/thesis/stm32f4/stm-idf/components/stm32f4xx_hal_driver/stm32f4xx_hal_dcmi.c **** 
 415:/home/phong/Documents/thesis/stm32f4/stm-idf/components/stm32f4xx_hal_driver/stm32f4xx_hal_dcmi.c ****   /* Enable Capture */
 416:/home/phong/Documents/thesis/stm32f4/stm-idf/components/stm32f4xx_hal_driver/stm32f4xx_hal_dcmi.c ****   hdcmi->Instance->CR |= DCMI_CR_CAPTURE;
 417:/home/phong/Documents/thesis/stm32f4/stm-idf/components/stm32f4xx_hal_driver/stm32f4xx_hal_dcmi.c **** 
 418:/home/phong/Documents/thesis/stm32f4/stm-idf/components/stm32f4xx_hal_driver/stm32f4xx_hal_dcmi.c ****   /* Release Lock */
 419:/home/phong/Documents/thesis/stm32f4/stm-idf/components/stm32f4xx_hal_driver/stm32f4xx_hal_dcmi.c ****   __HAL_UNLOCK(hdcmi);
 420:/home/phong/Documents/thesis/stm32f4/stm-idf/components/stm32f4xx_hal_driver/stm32f4xx_hal_dcmi.c **** 
 421:/home/phong/Documents/thesis/stm32f4/stm-idf/components/stm32f4xx_hal_driver/stm32f4xx_hal_dcmi.c ****   /* Return function status */
 422:/home/phong/Documents/thesis/stm32f4/stm-idf/components/stm32f4xx_hal_driver/stm32f4xx_hal_dcmi.c ****   return HAL_OK;
 423:/home/phong/Documents/thesis/stm32f4/stm-idf/components/stm32f4xx_hal_driver/stm32f4xx_hal_dcmi.c **** }
 424:/home/phong/Documents/thesis/stm32f4/stm-idf/components/stm32f4xx_hal_driver/stm32f4xx_hal_dcmi.c **** 
 425:/home/phong/Documents/thesis/stm32f4/stm-idf/components/stm32f4xx_hal_driver/stm32f4xx_hal_dcmi.c **** /**
 426:/home/phong/Documents/thesis/stm32f4/stm-idf/components/stm32f4xx_hal_driver/stm32f4xx_hal_dcmi.c ****   * @brief  Disable DCMI DMA request and Disable DCMI capture
 427:/home/phong/Documents/thesis/stm32f4/stm-idf/components/stm32f4xx_hal_driver/stm32f4xx_hal_dcmi.c ****   * @param  hdcmi pointer to a DCMI_HandleTypeDef structure that contains
 428:/home/phong/Documents/thesis/stm32f4/stm-idf/components/stm32f4xx_hal_driver/stm32f4xx_hal_dcmi.c ****   *                the configuration information for DCMI.
 429:/home/phong/Documents/thesis/stm32f4/stm-idf/components/stm32f4xx_hal_driver/stm32f4xx_hal_dcmi.c ****   * @retval HAL status
 430:/home/phong/Documents/thesis/stm32f4/stm-idf/components/stm32f4xx_hal_driver/stm32f4xx_hal_dcmi.c ****   */
 431:/home/phong/Documents/thesis/stm32f4/stm-idf/components/stm32f4xx_hal_driver/stm32f4xx_hal_dcmi.c **** HAL_StatusTypeDef HAL_DCMI_Stop(DCMI_HandleTypeDef* hdcmi)
ARM GAS  /tmp/cczl6hC8.s 			page 9


 432:/home/phong/Documents/thesis/stm32f4/stm-idf/components/stm32f4xx_hal_driver/stm32f4xx_hal_dcmi.c **** {
 433:/home/phong/Documents/thesis/stm32f4/stm-idf/components/stm32f4xx_hal_driver/stm32f4xx_hal_dcmi.c ****   __IO uint32_t count = SystemCoreClock / HAL_TIMEOUT_DCMI_STOP;
 434:/home/phong/Documents/thesis/stm32f4/stm-idf/components/stm32f4xx_hal_driver/stm32f4xx_hal_dcmi.c ****   HAL_StatusTypeDef status = HAL_OK;
 435:/home/phong/Documents/thesis/stm32f4/stm-idf/components/stm32f4xx_hal_driver/stm32f4xx_hal_dcmi.c **** 
 436:/home/phong/Documents/thesis/stm32f4/stm-idf/components/stm32f4xx_hal_driver/stm32f4xx_hal_dcmi.c ****   /* Process locked */
 437:/home/phong/Documents/thesis/stm32f4/stm-idf/components/stm32f4xx_hal_driver/stm32f4xx_hal_dcmi.c ****   __HAL_LOCK(hdcmi);
 438:/home/phong/Documents/thesis/stm32f4/stm-idf/components/stm32f4xx_hal_driver/stm32f4xx_hal_dcmi.c ****   
 439:/home/phong/Documents/thesis/stm32f4/stm-idf/components/stm32f4xx_hal_driver/stm32f4xx_hal_dcmi.c ****   /* Lock the DCMI peripheral state */
 440:/home/phong/Documents/thesis/stm32f4/stm-idf/components/stm32f4xx_hal_driver/stm32f4xx_hal_dcmi.c ****   hdcmi->State = HAL_DCMI_STATE_BUSY;
 441:/home/phong/Documents/thesis/stm32f4/stm-idf/components/stm32f4xx_hal_driver/stm32f4xx_hal_dcmi.c **** 
 442:/home/phong/Documents/thesis/stm32f4/stm-idf/components/stm32f4xx_hal_driver/stm32f4xx_hal_dcmi.c ****   /* Disable Capture */
 443:/home/phong/Documents/thesis/stm32f4/stm-idf/components/stm32f4xx_hal_driver/stm32f4xx_hal_dcmi.c ****   hdcmi->Instance->CR &= ~(DCMI_CR_CAPTURE);
 444:/home/phong/Documents/thesis/stm32f4/stm-idf/components/stm32f4xx_hal_driver/stm32f4xx_hal_dcmi.c **** 
 445:/home/phong/Documents/thesis/stm32f4/stm-idf/components/stm32f4xx_hal_driver/stm32f4xx_hal_dcmi.c ****   /* Check if the DCMI capture effectively disabled */
 446:/home/phong/Documents/thesis/stm32f4/stm-idf/components/stm32f4xx_hal_driver/stm32f4xx_hal_dcmi.c ****   do
 447:/home/phong/Documents/thesis/stm32f4/stm-idf/components/stm32f4xx_hal_driver/stm32f4xx_hal_dcmi.c ****   {
 448:/home/phong/Documents/thesis/stm32f4/stm-idf/components/stm32f4xx_hal_driver/stm32f4xx_hal_dcmi.c ****     if (count-- == 0U)
 449:/home/phong/Documents/thesis/stm32f4/stm-idf/components/stm32f4xx_hal_driver/stm32f4xx_hal_dcmi.c ****     {
 450:/home/phong/Documents/thesis/stm32f4/stm-idf/components/stm32f4xx_hal_driver/stm32f4xx_hal_dcmi.c ****       /* Update error code */
 451:/home/phong/Documents/thesis/stm32f4/stm-idf/components/stm32f4xx_hal_driver/stm32f4xx_hal_dcmi.c ****       hdcmi->ErrorCode |= HAL_DCMI_ERROR_TIMEOUT;
 452:/home/phong/Documents/thesis/stm32f4/stm-idf/components/stm32f4xx_hal_driver/stm32f4xx_hal_dcmi.c **** 
 453:/home/phong/Documents/thesis/stm32f4/stm-idf/components/stm32f4xx_hal_driver/stm32f4xx_hal_dcmi.c ****       status = HAL_TIMEOUT;
 454:/home/phong/Documents/thesis/stm32f4/stm-idf/components/stm32f4xx_hal_driver/stm32f4xx_hal_dcmi.c ****       break;
 455:/home/phong/Documents/thesis/stm32f4/stm-idf/components/stm32f4xx_hal_driver/stm32f4xx_hal_dcmi.c ****     }
 456:/home/phong/Documents/thesis/stm32f4/stm-idf/components/stm32f4xx_hal_driver/stm32f4xx_hal_dcmi.c ****   }
 457:/home/phong/Documents/thesis/stm32f4/stm-idf/components/stm32f4xx_hal_driver/stm32f4xx_hal_dcmi.c ****   while((hdcmi->Instance->CR & DCMI_CR_CAPTURE) != 0U);
 458:/home/phong/Documents/thesis/stm32f4/stm-idf/components/stm32f4xx_hal_driver/stm32f4xx_hal_dcmi.c **** 
 459:/home/phong/Documents/thesis/stm32f4/stm-idf/components/stm32f4xx_hal_driver/stm32f4xx_hal_dcmi.c ****   /* Disable the DCMI */
 460:/home/phong/Documents/thesis/stm32f4/stm-idf/components/stm32f4xx_hal_driver/stm32f4xx_hal_dcmi.c ****   __HAL_DCMI_DISABLE(hdcmi);
 461:/home/phong/Documents/thesis/stm32f4/stm-idf/components/stm32f4xx_hal_driver/stm32f4xx_hal_dcmi.c **** 
 462:/home/phong/Documents/thesis/stm32f4/stm-idf/components/stm32f4xx_hal_driver/stm32f4xx_hal_dcmi.c ****   /* Disable the DMA */
 463:/home/phong/Documents/thesis/stm32f4/stm-idf/components/stm32f4xx_hal_driver/stm32f4xx_hal_dcmi.c ****   HAL_DMA_Abort(hdcmi->DMA_Handle);
 464:/home/phong/Documents/thesis/stm32f4/stm-idf/components/stm32f4xx_hal_driver/stm32f4xx_hal_dcmi.c **** 
 465:/home/phong/Documents/thesis/stm32f4/stm-idf/components/stm32f4xx_hal_driver/stm32f4xx_hal_dcmi.c ****   /* Update error code */
 466:/home/phong/Documents/thesis/stm32f4/stm-idf/components/stm32f4xx_hal_driver/stm32f4xx_hal_dcmi.c ****   hdcmi->ErrorCode |= HAL_DCMI_ERROR_NONE;
 467:/home/phong/Documents/thesis/stm32f4/stm-idf/components/stm32f4xx_hal_driver/stm32f4xx_hal_dcmi.c **** 
 468:/home/phong/Documents/thesis/stm32f4/stm-idf/components/stm32f4xx_hal_driver/stm32f4xx_hal_dcmi.c ****   /* Change DCMI state */
 469:/home/phong/Documents/thesis/stm32f4/stm-idf/components/stm32f4xx_hal_driver/stm32f4xx_hal_dcmi.c ****   hdcmi->State = HAL_DCMI_STATE_READY;
 470:/home/phong/Documents/thesis/stm32f4/stm-idf/components/stm32f4xx_hal_driver/stm32f4xx_hal_dcmi.c **** 
 471:/home/phong/Documents/thesis/stm32f4/stm-idf/components/stm32f4xx_hal_driver/stm32f4xx_hal_dcmi.c ****   /* Process Unlocked */
 472:/home/phong/Documents/thesis/stm32f4/stm-idf/components/stm32f4xx_hal_driver/stm32f4xx_hal_dcmi.c ****   __HAL_UNLOCK(hdcmi);
 473:/home/phong/Documents/thesis/stm32f4/stm-idf/components/stm32f4xx_hal_driver/stm32f4xx_hal_dcmi.c **** 
 474:/home/phong/Documents/thesis/stm32f4/stm-idf/components/stm32f4xx_hal_driver/stm32f4xx_hal_dcmi.c ****   /* Return function status */
 475:/home/phong/Documents/thesis/stm32f4/stm-idf/components/stm32f4xx_hal_driver/stm32f4xx_hal_dcmi.c ****   return status;
 476:/home/phong/Documents/thesis/stm32f4/stm-idf/components/stm32f4xx_hal_driver/stm32f4xx_hal_dcmi.c **** }
 477:/home/phong/Documents/thesis/stm32f4/stm-idf/components/stm32f4xx_hal_driver/stm32f4xx_hal_dcmi.c **** 
 478:/home/phong/Documents/thesis/stm32f4/stm-idf/components/stm32f4xx_hal_driver/stm32f4xx_hal_dcmi.c **** /**
 479:/home/phong/Documents/thesis/stm32f4/stm-idf/components/stm32f4xx_hal_driver/stm32f4xx_hal_dcmi.c ****   * @brief  Suspend DCMI capture  
 480:/home/phong/Documents/thesis/stm32f4/stm-idf/components/stm32f4xx_hal_driver/stm32f4xx_hal_dcmi.c ****   * @param  hdcmi pointer to a DCMI_HandleTypeDef structure that contains
 481:/home/phong/Documents/thesis/stm32f4/stm-idf/components/stm32f4xx_hal_driver/stm32f4xx_hal_dcmi.c ****   *                the configuration information for DCMI. 
 482:/home/phong/Documents/thesis/stm32f4/stm-idf/components/stm32f4xx_hal_driver/stm32f4xx_hal_dcmi.c ****   * @retval HAL status     
 483:/home/phong/Documents/thesis/stm32f4/stm-idf/components/stm32f4xx_hal_driver/stm32f4xx_hal_dcmi.c ****   */
 484:/home/phong/Documents/thesis/stm32f4/stm-idf/components/stm32f4xx_hal_driver/stm32f4xx_hal_dcmi.c **** HAL_StatusTypeDef HAL_DCMI_Suspend(DCMI_HandleTypeDef* hdcmi)
 485:/home/phong/Documents/thesis/stm32f4/stm-idf/components/stm32f4xx_hal_driver/stm32f4xx_hal_dcmi.c **** {
 486:/home/phong/Documents/thesis/stm32f4/stm-idf/components/stm32f4xx_hal_driver/stm32f4xx_hal_dcmi.c ****   __IO uint32_t count = SystemCoreClock / HAL_TIMEOUT_DCMI_STOP;
 487:/home/phong/Documents/thesis/stm32f4/stm-idf/components/stm32f4xx_hal_driver/stm32f4xx_hal_dcmi.c ****   HAL_StatusTypeDef status = HAL_OK;
 488:/home/phong/Documents/thesis/stm32f4/stm-idf/components/stm32f4xx_hal_driver/stm32f4xx_hal_dcmi.c **** 
ARM GAS  /tmp/cczl6hC8.s 			page 10


 489:/home/phong/Documents/thesis/stm32f4/stm-idf/components/stm32f4xx_hal_driver/stm32f4xx_hal_dcmi.c ****   /* Process locked */
 490:/home/phong/Documents/thesis/stm32f4/stm-idf/components/stm32f4xx_hal_driver/stm32f4xx_hal_dcmi.c ****   __HAL_LOCK(hdcmi);
 491:/home/phong/Documents/thesis/stm32f4/stm-idf/components/stm32f4xx_hal_driver/stm32f4xx_hal_dcmi.c **** 
 492:/home/phong/Documents/thesis/stm32f4/stm-idf/components/stm32f4xx_hal_driver/stm32f4xx_hal_dcmi.c ****   if(hdcmi->State == HAL_DCMI_STATE_BUSY)
 493:/home/phong/Documents/thesis/stm32f4/stm-idf/components/stm32f4xx_hal_driver/stm32f4xx_hal_dcmi.c ****   {
 494:/home/phong/Documents/thesis/stm32f4/stm-idf/components/stm32f4xx_hal_driver/stm32f4xx_hal_dcmi.c ****     /* Change DCMI state */
 495:/home/phong/Documents/thesis/stm32f4/stm-idf/components/stm32f4xx_hal_driver/stm32f4xx_hal_dcmi.c ****     hdcmi->State = HAL_DCMI_STATE_SUSPENDED;
 496:/home/phong/Documents/thesis/stm32f4/stm-idf/components/stm32f4xx_hal_driver/stm32f4xx_hal_dcmi.c **** 
 497:/home/phong/Documents/thesis/stm32f4/stm-idf/components/stm32f4xx_hal_driver/stm32f4xx_hal_dcmi.c ****     /* Disable Capture */
 498:/home/phong/Documents/thesis/stm32f4/stm-idf/components/stm32f4xx_hal_driver/stm32f4xx_hal_dcmi.c ****     hdcmi->Instance->CR &= ~(DCMI_CR_CAPTURE);
 499:/home/phong/Documents/thesis/stm32f4/stm-idf/components/stm32f4xx_hal_driver/stm32f4xx_hal_dcmi.c **** 
 500:/home/phong/Documents/thesis/stm32f4/stm-idf/components/stm32f4xx_hal_driver/stm32f4xx_hal_dcmi.c ****     /* Check if the DCMI capture effectively disabled */
 501:/home/phong/Documents/thesis/stm32f4/stm-idf/components/stm32f4xx_hal_driver/stm32f4xx_hal_dcmi.c ****     do
 502:/home/phong/Documents/thesis/stm32f4/stm-idf/components/stm32f4xx_hal_driver/stm32f4xx_hal_dcmi.c ****     {
 503:/home/phong/Documents/thesis/stm32f4/stm-idf/components/stm32f4xx_hal_driver/stm32f4xx_hal_dcmi.c ****       if (count-- == 0U)
 504:/home/phong/Documents/thesis/stm32f4/stm-idf/components/stm32f4xx_hal_driver/stm32f4xx_hal_dcmi.c ****       {        
 505:/home/phong/Documents/thesis/stm32f4/stm-idf/components/stm32f4xx_hal_driver/stm32f4xx_hal_dcmi.c ****         /* Update error code */
 506:/home/phong/Documents/thesis/stm32f4/stm-idf/components/stm32f4xx_hal_driver/stm32f4xx_hal_dcmi.c ****         hdcmi->ErrorCode |= HAL_DCMI_ERROR_TIMEOUT;
 507:/home/phong/Documents/thesis/stm32f4/stm-idf/components/stm32f4xx_hal_driver/stm32f4xx_hal_dcmi.c ****         
 508:/home/phong/Documents/thesis/stm32f4/stm-idf/components/stm32f4xx_hal_driver/stm32f4xx_hal_dcmi.c ****         /* Change DCMI state */
 509:/home/phong/Documents/thesis/stm32f4/stm-idf/components/stm32f4xx_hal_driver/stm32f4xx_hal_dcmi.c ****         hdcmi->State = HAL_DCMI_STATE_READY;
 510:/home/phong/Documents/thesis/stm32f4/stm-idf/components/stm32f4xx_hal_driver/stm32f4xx_hal_dcmi.c ****         
 511:/home/phong/Documents/thesis/stm32f4/stm-idf/components/stm32f4xx_hal_driver/stm32f4xx_hal_dcmi.c ****         status = HAL_TIMEOUT;
 512:/home/phong/Documents/thesis/stm32f4/stm-idf/components/stm32f4xx_hal_driver/stm32f4xx_hal_dcmi.c ****         break;
 513:/home/phong/Documents/thesis/stm32f4/stm-idf/components/stm32f4xx_hal_driver/stm32f4xx_hal_dcmi.c ****       }
 514:/home/phong/Documents/thesis/stm32f4/stm-idf/components/stm32f4xx_hal_driver/stm32f4xx_hal_dcmi.c ****     }
 515:/home/phong/Documents/thesis/stm32f4/stm-idf/components/stm32f4xx_hal_driver/stm32f4xx_hal_dcmi.c ****     while((hdcmi->Instance->CR & DCMI_CR_CAPTURE) != 0);
 516:/home/phong/Documents/thesis/stm32f4/stm-idf/components/stm32f4xx_hal_driver/stm32f4xx_hal_dcmi.c ****   }    
 517:/home/phong/Documents/thesis/stm32f4/stm-idf/components/stm32f4xx_hal_driver/stm32f4xx_hal_dcmi.c ****   /* Process Unlocked */
 518:/home/phong/Documents/thesis/stm32f4/stm-idf/components/stm32f4xx_hal_driver/stm32f4xx_hal_dcmi.c ****   __HAL_UNLOCK(hdcmi);
 519:/home/phong/Documents/thesis/stm32f4/stm-idf/components/stm32f4xx_hal_driver/stm32f4xx_hal_dcmi.c ****   
 520:/home/phong/Documents/thesis/stm32f4/stm-idf/components/stm32f4xx_hal_driver/stm32f4xx_hal_dcmi.c ****   /* Return function status */
 521:/home/phong/Documents/thesis/stm32f4/stm-idf/components/stm32f4xx_hal_driver/stm32f4xx_hal_dcmi.c ****   return status;
 522:/home/phong/Documents/thesis/stm32f4/stm-idf/components/stm32f4xx_hal_driver/stm32f4xx_hal_dcmi.c **** }
 523:/home/phong/Documents/thesis/stm32f4/stm-idf/components/stm32f4xx_hal_driver/stm32f4xx_hal_dcmi.c **** 
 524:/home/phong/Documents/thesis/stm32f4/stm-idf/components/stm32f4xx_hal_driver/stm32f4xx_hal_dcmi.c **** /**
 525:/home/phong/Documents/thesis/stm32f4/stm-idf/components/stm32f4xx_hal_driver/stm32f4xx_hal_dcmi.c ****   * @brief  Resume DCMI capture  
 526:/home/phong/Documents/thesis/stm32f4/stm-idf/components/stm32f4xx_hal_driver/stm32f4xx_hal_dcmi.c ****   * @param  hdcmi pointer to a DCMI_HandleTypeDef structure that contains
 527:/home/phong/Documents/thesis/stm32f4/stm-idf/components/stm32f4xx_hal_driver/stm32f4xx_hal_dcmi.c ****   *                the configuration information for DCMI. 
 528:/home/phong/Documents/thesis/stm32f4/stm-idf/components/stm32f4xx_hal_driver/stm32f4xx_hal_dcmi.c ****   * @retval HAL status     
 529:/home/phong/Documents/thesis/stm32f4/stm-idf/components/stm32f4xx_hal_driver/stm32f4xx_hal_dcmi.c ****   */
 530:/home/phong/Documents/thesis/stm32f4/stm-idf/components/stm32f4xx_hal_driver/stm32f4xx_hal_dcmi.c **** HAL_StatusTypeDef HAL_DCMI_Resume(DCMI_HandleTypeDef* hdcmi)
 531:/home/phong/Documents/thesis/stm32f4/stm-idf/components/stm32f4xx_hal_driver/stm32f4xx_hal_dcmi.c **** {
 532:/home/phong/Documents/thesis/stm32f4/stm-idf/components/stm32f4xx_hal_driver/stm32f4xx_hal_dcmi.c ****   /* Process locked */
 533:/home/phong/Documents/thesis/stm32f4/stm-idf/components/stm32f4xx_hal_driver/stm32f4xx_hal_dcmi.c ****   __HAL_LOCK(hdcmi);
 534:/home/phong/Documents/thesis/stm32f4/stm-idf/components/stm32f4xx_hal_driver/stm32f4xx_hal_dcmi.c ****   
 535:/home/phong/Documents/thesis/stm32f4/stm-idf/components/stm32f4xx_hal_driver/stm32f4xx_hal_dcmi.c ****   if(hdcmi->State == HAL_DCMI_STATE_SUSPENDED)
 536:/home/phong/Documents/thesis/stm32f4/stm-idf/components/stm32f4xx_hal_driver/stm32f4xx_hal_dcmi.c ****   {
 537:/home/phong/Documents/thesis/stm32f4/stm-idf/components/stm32f4xx_hal_driver/stm32f4xx_hal_dcmi.c ****     /* Change DCMI state */
 538:/home/phong/Documents/thesis/stm32f4/stm-idf/components/stm32f4xx_hal_driver/stm32f4xx_hal_dcmi.c ****     hdcmi->State = HAL_DCMI_STATE_BUSY;
 539:/home/phong/Documents/thesis/stm32f4/stm-idf/components/stm32f4xx_hal_driver/stm32f4xx_hal_dcmi.c ****     
 540:/home/phong/Documents/thesis/stm32f4/stm-idf/components/stm32f4xx_hal_driver/stm32f4xx_hal_dcmi.c ****     /* Disable Capture */
 541:/home/phong/Documents/thesis/stm32f4/stm-idf/components/stm32f4xx_hal_driver/stm32f4xx_hal_dcmi.c ****     hdcmi->Instance->CR |= DCMI_CR_CAPTURE;
 542:/home/phong/Documents/thesis/stm32f4/stm-idf/components/stm32f4xx_hal_driver/stm32f4xx_hal_dcmi.c ****   } 
 543:/home/phong/Documents/thesis/stm32f4/stm-idf/components/stm32f4xx_hal_driver/stm32f4xx_hal_dcmi.c ****   /* Process Unlocked */
 544:/home/phong/Documents/thesis/stm32f4/stm-idf/components/stm32f4xx_hal_driver/stm32f4xx_hal_dcmi.c ****   __HAL_UNLOCK(hdcmi);
 545:/home/phong/Documents/thesis/stm32f4/stm-idf/components/stm32f4xx_hal_driver/stm32f4xx_hal_dcmi.c ****   
ARM GAS  /tmp/cczl6hC8.s 			page 11


 546:/home/phong/Documents/thesis/stm32f4/stm-idf/components/stm32f4xx_hal_driver/stm32f4xx_hal_dcmi.c ****   /* Return function status */
 547:/home/phong/Documents/thesis/stm32f4/stm-idf/components/stm32f4xx_hal_driver/stm32f4xx_hal_dcmi.c ****   return HAL_OK;
 548:/home/phong/Documents/thesis/stm32f4/stm-idf/components/stm32f4xx_hal_driver/stm32f4xx_hal_dcmi.c **** }
 549:/home/phong/Documents/thesis/stm32f4/stm-idf/components/stm32f4xx_hal_driver/stm32f4xx_hal_dcmi.c **** 
 550:/home/phong/Documents/thesis/stm32f4/stm-idf/components/stm32f4xx_hal_driver/stm32f4xx_hal_dcmi.c **** /**
 551:/home/phong/Documents/thesis/stm32f4/stm-idf/components/stm32f4xx_hal_driver/stm32f4xx_hal_dcmi.c ****   * @brief  Handles DCMI interrupt request.
 552:/home/phong/Documents/thesis/stm32f4/stm-idf/components/stm32f4xx_hal_driver/stm32f4xx_hal_dcmi.c ****   * @param  hdcmi pointer to a DCMI_HandleTypeDef structure that contains
 553:/home/phong/Documents/thesis/stm32f4/stm-idf/components/stm32f4xx_hal_driver/stm32f4xx_hal_dcmi.c ****   *                the configuration information for the DCMI.
 554:/home/phong/Documents/thesis/stm32f4/stm-idf/components/stm32f4xx_hal_driver/stm32f4xx_hal_dcmi.c ****   * @retval None
 555:/home/phong/Documents/thesis/stm32f4/stm-idf/components/stm32f4xx_hal_driver/stm32f4xx_hal_dcmi.c ****   */
 556:/home/phong/Documents/thesis/stm32f4/stm-idf/components/stm32f4xx_hal_driver/stm32f4xx_hal_dcmi.c **** void HAL_DCMI_IRQHandler(DCMI_HandleTypeDef *hdcmi)
 557:/home/phong/Documents/thesis/stm32f4/stm-idf/components/stm32f4xx_hal_driver/stm32f4xx_hal_dcmi.c **** {
 558:/home/phong/Documents/thesis/stm32f4/stm-idf/components/stm32f4xx_hal_driver/stm32f4xx_hal_dcmi.c ****   uint32_t isr_value = READ_REG(hdcmi->Instance->MISR);
 559:/home/phong/Documents/thesis/stm32f4/stm-idf/components/stm32f4xx_hal_driver/stm32f4xx_hal_dcmi.c **** 
 560:/home/phong/Documents/thesis/stm32f4/stm-idf/components/stm32f4xx_hal_driver/stm32f4xx_hal_dcmi.c ****   /* Synchronization error interrupt management *******************************/
 561:/home/phong/Documents/thesis/stm32f4/stm-idf/components/stm32f4xx_hal_driver/stm32f4xx_hal_dcmi.c ****   if((isr_value & DCMI_FLAG_ERRRI) == DCMI_FLAG_ERRRI)
 562:/home/phong/Documents/thesis/stm32f4/stm-idf/components/stm32f4xx_hal_driver/stm32f4xx_hal_dcmi.c ****   {
 563:/home/phong/Documents/thesis/stm32f4/stm-idf/components/stm32f4xx_hal_driver/stm32f4xx_hal_dcmi.c ****     /* Clear the Synchronization error flag */
 564:/home/phong/Documents/thesis/stm32f4/stm-idf/components/stm32f4xx_hal_driver/stm32f4xx_hal_dcmi.c ****     __HAL_DCMI_CLEAR_FLAG(hdcmi, DCMI_FLAG_ERRRI);
 565:/home/phong/Documents/thesis/stm32f4/stm-idf/components/stm32f4xx_hal_driver/stm32f4xx_hal_dcmi.c **** 
 566:/home/phong/Documents/thesis/stm32f4/stm-idf/components/stm32f4xx_hal_driver/stm32f4xx_hal_dcmi.c ****     /* Update error code */
 567:/home/phong/Documents/thesis/stm32f4/stm-idf/components/stm32f4xx_hal_driver/stm32f4xx_hal_dcmi.c ****     hdcmi->ErrorCode |= HAL_DCMI_ERROR_SYNC;
 568:/home/phong/Documents/thesis/stm32f4/stm-idf/components/stm32f4xx_hal_driver/stm32f4xx_hal_dcmi.c **** 
 569:/home/phong/Documents/thesis/stm32f4/stm-idf/components/stm32f4xx_hal_driver/stm32f4xx_hal_dcmi.c ****     /* Change DCMI state */
 570:/home/phong/Documents/thesis/stm32f4/stm-idf/components/stm32f4xx_hal_driver/stm32f4xx_hal_dcmi.c ****     hdcmi->State = HAL_DCMI_STATE_ERROR;
 571:/home/phong/Documents/thesis/stm32f4/stm-idf/components/stm32f4xx_hal_driver/stm32f4xx_hal_dcmi.c ****     
 572:/home/phong/Documents/thesis/stm32f4/stm-idf/components/stm32f4xx_hal_driver/stm32f4xx_hal_dcmi.c ****     /* Set the synchronization error callback */
 573:/home/phong/Documents/thesis/stm32f4/stm-idf/components/stm32f4xx_hal_driver/stm32f4xx_hal_dcmi.c ****     hdcmi->DMA_Handle->XferAbortCallback = DCMI_DMAError;
 574:/home/phong/Documents/thesis/stm32f4/stm-idf/components/stm32f4xx_hal_driver/stm32f4xx_hal_dcmi.c **** 
 575:/home/phong/Documents/thesis/stm32f4/stm-idf/components/stm32f4xx_hal_driver/stm32f4xx_hal_dcmi.c ****     /* Abort the DMA Transfer */
 576:/home/phong/Documents/thesis/stm32f4/stm-idf/components/stm32f4xx_hal_driver/stm32f4xx_hal_dcmi.c ****     HAL_DMA_Abort_IT(hdcmi->DMA_Handle);
 577:/home/phong/Documents/thesis/stm32f4/stm-idf/components/stm32f4xx_hal_driver/stm32f4xx_hal_dcmi.c ****   }
 578:/home/phong/Documents/thesis/stm32f4/stm-idf/components/stm32f4xx_hal_driver/stm32f4xx_hal_dcmi.c ****   /* Overflow interrupt management ********************************************/
 579:/home/phong/Documents/thesis/stm32f4/stm-idf/components/stm32f4xx_hal_driver/stm32f4xx_hal_dcmi.c ****   if((isr_value & DCMI_FLAG_OVRRI) == DCMI_FLAG_OVRRI)
 580:/home/phong/Documents/thesis/stm32f4/stm-idf/components/stm32f4xx_hal_driver/stm32f4xx_hal_dcmi.c ****   {
 581:/home/phong/Documents/thesis/stm32f4/stm-idf/components/stm32f4xx_hal_driver/stm32f4xx_hal_dcmi.c ****     /* Clear the Overflow flag */
 582:/home/phong/Documents/thesis/stm32f4/stm-idf/components/stm32f4xx_hal_driver/stm32f4xx_hal_dcmi.c ****     __HAL_DCMI_CLEAR_FLAG(hdcmi, DCMI_FLAG_OVRRI);
 583:/home/phong/Documents/thesis/stm32f4/stm-idf/components/stm32f4xx_hal_driver/stm32f4xx_hal_dcmi.c **** 
 584:/home/phong/Documents/thesis/stm32f4/stm-idf/components/stm32f4xx_hal_driver/stm32f4xx_hal_dcmi.c ****     /* Update error code */
 585:/home/phong/Documents/thesis/stm32f4/stm-idf/components/stm32f4xx_hal_driver/stm32f4xx_hal_dcmi.c ****     hdcmi->ErrorCode |= HAL_DCMI_ERROR_OVR;
 586:/home/phong/Documents/thesis/stm32f4/stm-idf/components/stm32f4xx_hal_driver/stm32f4xx_hal_dcmi.c **** 
 587:/home/phong/Documents/thesis/stm32f4/stm-idf/components/stm32f4xx_hal_driver/stm32f4xx_hal_dcmi.c ****     /* Change DCMI state */
 588:/home/phong/Documents/thesis/stm32f4/stm-idf/components/stm32f4xx_hal_driver/stm32f4xx_hal_dcmi.c ****     hdcmi->State = HAL_DCMI_STATE_ERROR;
 589:/home/phong/Documents/thesis/stm32f4/stm-idf/components/stm32f4xx_hal_driver/stm32f4xx_hal_dcmi.c ****     
 590:/home/phong/Documents/thesis/stm32f4/stm-idf/components/stm32f4xx_hal_driver/stm32f4xx_hal_dcmi.c ****     /* Set the overflow callback */
 591:/home/phong/Documents/thesis/stm32f4/stm-idf/components/stm32f4xx_hal_driver/stm32f4xx_hal_dcmi.c ****     hdcmi->DMA_Handle->XferAbortCallback = DCMI_DMAError;
 592:/home/phong/Documents/thesis/stm32f4/stm-idf/components/stm32f4xx_hal_driver/stm32f4xx_hal_dcmi.c **** 
 593:/home/phong/Documents/thesis/stm32f4/stm-idf/components/stm32f4xx_hal_driver/stm32f4xx_hal_dcmi.c ****     /* Abort the DMA Transfer */
 594:/home/phong/Documents/thesis/stm32f4/stm-idf/components/stm32f4xx_hal_driver/stm32f4xx_hal_dcmi.c ****     HAL_DMA_Abort_IT(hdcmi->DMA_Handle);
 595:/home/phong/Documents/thesis/stm32f4/stm-idf/components/stm32f4xx_hal_driver/stm32f4xx_hal_dcmi.c ****   }
 596:/home/phong/Documents/thesis/stm32f4/stm-idf/components/stm32f4xx_hal_driver/stm32f4xx_hal_dcmi.c ****   /* Line Interrupt management ************************************************/
 597:/home/phong/Documents/thesis/stm32f4/stm-idf/components/stm32f4xx_hal_driver/stm32f4xx_hal_dcmi.c ****   if((isr_value & DCMI_FLAG_LINERI) == DCMI_FLAG_LINERI)
 598:/home/phong/Documents/thesis/stm32f4/stm-idf/components/stm32f4xx_hal_driver/stm32f4xx_hal_dcmi.c ****   {
 599:/home/phong/Documents/thesis/stm32f4/stm-idf/components/stm32f4xx_hal_driver/stm32f4xx_hal_dcmi.c ****     /* Clear the Line interrupt flag */
 600:/home/phong/Documents/thesis/stm32f4/stm-idf/components/stm32f4xx_hal_driver/stm32f4xx_hal_dcmi.c ****     __HAL_DCMI_CLEAR_FLAG(hdcmi, DCMI_FLAG_LINERI);
 601:/home/phong/Documents/thesis/stm32f4/stm-idf/components/stm32f4xx_hal_driver/stm32f4xx_hal_dcmi.c ****     
 602:/home/phong/Documents/thesis/stm32f4/stm-idf/components/stm32f4xx_hal_driver/stm32f4xx_hal_dcmi.c ****     /* Line interrupt Callback */
ARM GAS  /tmp/cczl6hC8.s 			page 12


 603:/home/phong/Documents/thesis/stm32f4/stm-idf/components/stm32f4xx_hal_driver/stm32f4xx_hal_dcmi.c **** #if (USE_HAL_DCMI_REGISTER_CALLBACKS == 1)
 604:/home/phong/Documents/thesis/stm32f4/stm-idf/components/stm32f4xx_hal_driver/stm32f4xx_hal_dcmi.c ****     /*Call registered DCMI line event callback*/
 605:/home/phong/Documents/thesis/stm32f4/stm-idf/components/stm32f4xx_hal_driver/stm32f4xx_hal_dcmi.c ****     hdcmi->LineEventCallback(hdcmi);
 606:/home/phong/Documents/thesis/stm32f4/stm-idf/components/stm32f4xx_hal_driver/stm32f4xx_hal_dcmi.c **** #else  
 607:/home/phong/Documents/thesis/stm32f4/stm-idf/components/stm32f4xx_hal_driver/stm32f4xx_hal_dcmi.c ****     HAL_DCMI_LineEventCallback(hdcmi);
 608:/home/phong/Documents/thesis/stm32f4/stm-idf/components/stm32f4xx_hal_driver/stm32f4xx_hal_dcmi.c **** #endif /* USE_HAL_DCMI_REGISTER_CALLBACKS */     
 609:/home/phong/Documents/thesis/stm32f4/stm-idf/components/stm32f4xx_hal_driver/stm32f4xx_hal_dcmi.c ****   }
 610:/home/phong/Documents/thesis/stm32f4/stm-idf/components/stm32f4xx_hal_driver/stm32f4xx_hal_dcmi.c ****   /* VSYNC interrupt management ***********************************************/
 611:/home/phong/Documents/thesis/stm32f4/stm-idf/components/stm32f4xx_hal_driver/stm32f4xx_hal_dcmi.c ****   if((isr_value & DCMI_FLAG_VSYNCRI) == DCMI_FLAG_VSYNCRI)
 612:/home/phong/Documents/thesis/stm32f4/stm-idf/components/stm32f4xx_hal_driver/stm32f4xx_hal_dcmi.c ****   {
 613:/home/phong/Documents/thesis/stm32f4/stm-idf/components/stm32f4xx_hal_driver/stm32f4xx_hal_dcmi.c ****     /* Clear the VSYNC flag */
 614:/home/phong/Documents/thesis/stm32f4/stm-idf/components/stm32f4xx_hal_driver/stm32f4xx_hal_dcmi.c ****     __HAL_DCMI_CLEAR_FLAG(hdcmi, DCMI_FLAG_VSYNCRI);
 615:/home/phong/Documents/thesis/stm32f4/stm-idf/components/stm32f4xx_hal_driver/stm32f4xx_hal_dcmi.c ****     
 616:/home/phong/Documents/thesis/stm32f4/stm-idf/components/stm32f4xx_hal_driver/stm32f4xx_hal_dcmi.c ****     /* VSYNC Callback */
 617:/home/phong/Documents/thesis/stm32f4/stm-idf/components/stm32f4xx_hal_driver/stm32f4xx_hal_dcmi.c **** #if (USE_HAL_DCMI_REGISTER_CALLBACKS == 1)
 618:/home/phong/Documents/thesis/stm32f4/stm-idf/components/stm32f4xx_hal_driver/stm32f4xx_hal_dcmi.c ****     /*Call registered DCMI vsync event callback*/
 619:/home/phong/Documents/thesis/stm32f4/stm-idf/components/stm32f4xx_hal_driver/stm32f4xx_hal_dcmi.c ****     hdcmi->VsyncEventCallback(hdcmi);
 620:/home/phong/Documents/thesis/stm32f4/stm-idf/components/stm32f4xx_hal_driver/stm32f4xx_hal_dcmi.c **** #else  
 621:/home/phong/Documents/thesis/stm32f4/stm-idf/components/stm32f4xx_hal_driver/stm32f4xx_hal_dcmi.c ****     HAL_DCMI_VsyncEventCallback(hdcmi);
 622:/home/phong/Documents/thesis/stm32f4/stm-idf/components/stm32f4xx_hal_driver/stm32f4xx_hal_dcmi.c **** #endif /* USE_HAL_DCMI_REGISTER_CALLBACKS */ 
 623:/home/phong/Documents/thesis/stm32f4/stm-idf/components/stm32f4xx_hal_driver/stm32f4xx_hal_dcmi.c ****   }
 624:/home/phong/Documents/thesis/stm32f4/stm-idf/components/stm32f4xx_hal_driver/stm32f4xx_hal_dcmi.c ****   /* FRAME interrupt management ***********************************************/
 625:/home/phong/Documents/thesis/stm32f4/stm-idf/components/stm32f4xx_hal_driver/stm32f4xx_hal_dcmi.c ****   if((isr_value & DCMI_FLAG_FRAMERI) == DCMI_FLAG_FRAMERI)
 626:/home/phong/Documents/thesis/stm32f4/stm-idf/components/stm32f4xx_hal_driver/stm32f4xx_hal_dcmi.c ****   {
 627:/home/phong/Documents/thesis/stm32f4/stm-idf/components/stm32f4xx_hal_driver/stm32f4xx_hal_dcmi.c ****     /* When snapshot mode, disable Vsync, Error and Overrun interrupts */
 628:/home/phong/Documents/thesis/stm32f4/stm-idf/components/stm32f4xx_hal_driver/stm32f4xx_hal_dcmi.c ****     if((hdcmi->Instance->CR & DCMI_CR_CM) == DCMI_MODE_SNAPSHOT)
 629:/home/phong/Documents/thesis/stm32f4/stm-idf/components/stm32f4xx_hal_driver/stm32f4xx_hal_dcmi.c ****     { 
 630:/home/phong/Documents/thesis/stm32f4/stm-idf/components/stm32f4xx_hal_driver/stm32f4xx_hal_dcmi.c ****       /* Disable the Line, Vsync, Error and Overrun interrupts */
 631:/home/phong/Documents/thesis/stm32f4/stm-idf/components/stm32f4xx_hal_driver/stm32f4xx_hal_dcmi.c ****       __HAL_DCMI_DISABLE_IT(hdcmi, DCMI_IT_LINE | DCMI_IT_VSYNC | DCMI_IT_ERR | DCMI_IT_OVR);
 632:/home/phong/Documents/thesis/stm32f4/stm-idf/components/stm32f4xx_hal_driver/stm32f4xx_hal_dcmi.c ****     }
 633:/home/phong/Documents/thesis/stm32f4/stm-idf/components/stm32f4xx_hal_driver/stm32f4xx_hal_dcmi.c **** 
 634:/home/phong/Documents/thesis/stm32f4/stm-idf/components/stm32f4xx_hal_driver/stm32f4xx_hal_dcmi.c ****     /* Disable the Frame interrupt */
 635:/home/phong/Documents/thesis/stm32f4/stm-idf/components/stm32f4xx_hal_driver/stm32f4xx_hal_dcmi.c ****     __HAL_DCMI_DISABLE_IT(hdcmi, DCMI_IT_FRAME);
 636:/home/phong/Documents/thesis/stm32f4/stm-idf/components/stm32f4xx_hal_driver/stm32f4xx_hal_dcmi.c **** 
 637:/home/phong/Documents/thesis/stm32f4/stm-idf/components/stm32f4xx_hal_driver/stm32f4xx_hal_dcmi.c ****     /* Frame Callback */
 638:/home/phong/Documents/thesis/stm32f4/stm-idf/components/stm32f4xx_hal_driver/stm32f4xx_hal_dcmi.c **** #if (USE_HAL_DCMI_REGISTER_CALLBACKS == 1)
 639:/home/phong/Documents/thesis/stm32f4/stm-idf/components/stm32f4xx_hal_driver/stm32f4xx_hal_dcmi.c ****     /*Call registered DCMI frame event callback*/
 640:/home/phong/Documents/thesis/stm32f4/stm-idf/components/stm32f4xx_hal_driver/stm32f4xx_hal_dcmi.c ****     hdcmi->FrameEventCallback(hdcmi);
 641:/home/phong/Documents/thesis/stm32f4/stm-idf/components/stm32f4xx_hal_driver/stm32f4xx_hal_dcmi.c **** #else  
 642:/home/phong/Documents/thesis/stm32f4/stm-idf/components/stm32f4xx_hal_driver/stm32f4xx_hal_dcmi.c ****     HAL_DCMI_FrameEventCallback(hdcmi);
 643:/home/phong/Documents/thesis/stm32f4/stm-idf/components/stm32f4xx_hal_driver/stm32f4xx_hal_dcmi.c **** #endif /* USE_HAL_DCMI_REGISTER_CALLBACKS */      
 644:/home/phong/Documents/thesis/stm32f4/stm-idf/components/stm32f4xx_hal_driver/stm32f4xx_hal_dcmi.c ****   }
 645:/home/phong/Documents/thesis/stm32f4/stm-idf/components/stm32f4xx_hal_driver/stm32f4xx_hal_dcmi.c **** }
 646:/home/phong/Documents/thesis/stm32f4/stm-idf/components/stm32f4xx_hal_driver/stm32f4xx_hal_dcmi.c **** 
 647:/home/phong/Documents/thesis/stm32f4/stm-idf/components/stm32f4xx_hal_driver/stm32f4xx_hal_dcmi.c **** /**
 648:/home/phong/Documents/thesis/stm32f4/stm-idf/components/stm32f4xx_hal_driver/stm32f4xx_hal_dcmi.c ****   * @brief  Error DCMI callback.
 649:/home/phong/Documents/thesis/stm32f4/stm-idf/components/stm32f4xx_hal_driver/stm32f4xx_hal_dcmi.c ****   * @param  hdcmi pointer to a DCMI_HandleTypeDef structure that contains
 650:/home/phong/Documents/thesis/stm32f4/stm-idf/components/stm32f4xx_hal_driver/stm32f4xx_hal_dcmi.c ****   *                the configuration information for DCMI.
 651:/home/phong/Documents/thesis/stm32f4/stm-idf/components/stm32f4xx_hal_driver/stm32f4xx_hal_dcmi.c ****   * @retval None
 652:/home/phong/Documents/thesis/stm32f4/stm-idf/components/stm32f4xx_hal_driver/stm32f4xx_hal_dcmi.c ****   */
 653:/home/phong/Documents/thesis/stm32f4/stm-idf/components/stm32f4xx_hal_driver/stm32f4xx_hal_dcmi.c **** __weak void HAL_DCMI_ErrorCallback(DCMI_HandleTypeDef *hdcmi)
 654:/home/phong/Documents/thesis/stm32f4/stm-idf/components/stm32f4xx_hal_driver/stm32f4xx_hal_dcmi.c **** {
 655:/home/phong/Documents/thesis/stm32f4/stm-idf/components/stm32f4xx_hal_driver/stm32f4xx_hal_dcmi.c ****   /* Prevent unused argument(s) compilation warning */
 656:/home/phong/Documents/thesis/stm32f4/stm-idf/components/stm32f4xx_hal_driver/stm32f4xx_hal_dcmi.c ****   UNUSED(hdcmi);
 657:/home/phong/Documents/thesis/stm32f4/stm-idf/components/stm32f4xx_hal_driver/stm32f4xx_hal_dcmi.c ****   /* NOTE : This function Should not be modified, when the callback is needed,
 658:/home/phong/Documents/thesis/stm32f4/stm-idf/components/stm32f4xx_hal_driver/stm32f4xx_hal_dcmi.c ****             the HAL_DCMI_ErrorCallback could be implemented in the user file
 659:/home/phong/Documents/thesis/stm32f4/stm-idf/components/stm32f4xx_hal_driver/stm32f4xx_hal_dcmi.c ****    */
ARM GAS  /tmp/cczl6hC8.s 			page 13


 660:/home/phong/Documents/thesis/stm32f4/stm-idf/components/stm32f4xx_hal_driver/stm32f4xx_hal_dcmi.c **** }
 661:/home/phong/Documents/thesis/stm32f4/stm-idf/components/stm32f4xx_hal_driver/stm32f4xx_hal_dcmi.c **** 
 662:/home/phong/Documents/thesis/stm32f4/stm-idf/components/stm32f4xx_hal_driver/stm32f4xx_hal_dcmi.c **** /**
 663:/home/phong/Documents/thesis/stm32f4/stm-idf/components/stm32f4xx_hal_driver/stm32f4xx_hal_dcmi.c ****   * @brief  Line Event callback.
 664:/home/phong/Documents/thesis/stm32f4/stm-idf/components/stm32f4xx_hal_driver/stm32f4xx_hal_dcmi.c ****   * @param  hdcmi pointer to a DCMI_HandleTypeDef structure that contains
 665:/home/phong/Documents/thesis/stm32f4/stm-idf/components/stm32f4xx_hal_driver/stm32f4xx_hal_dcmi.c ****   *                the configuration information for DCMI.
 666:/home/phong/Documents/thesis/stm32f4/stm-idf/components/stm32f4xx_hal_driver/stm32f4xx_hal_dcmi.c ****   * @retval None
 667:/home/phong/Documents/thesis/stm32f4/stm-idf/components/stm32f4xx_hal_driver/stm32f4xx_hal_dcmi.c ****   */
 668:/home/phong/Documents/thesis/stm32f4/stm-idf/components/stm32f4xx_hal_driver/stm32f4xx_hal_dcmi.c **** __weak void HAL_DCMI_LineEventCallback(DCMI_HandleTypeDef *hdcmi)
 669:/home/phong/Documents/thesis/stm32f4/stm-idf/components/stm32f4xx_hal_driver/stm32f4xx_hal_dcmi.c **** {
 670:/home/phong/Documents/thesis/stm32f4/stm-idf/components/stm32f4xx_hal_driver/stm32f4xx_hal_dcmi.c ****   /* Prevent unused argument(s) compilation warning */
 671:/home/phong/Documents/thesis/stm32f4/stm-idf/components/stm32f4xx_hal_driver/stm32f4xx_hal_dcmi.c ****   UNUSED(hdcmi);
 672:/home/phong/Documents/thesis/stm32f4/stm-idf/components/stm32f4xx_hal_driver/stm32f4xx_hal_dcmi.c ****   /* NOTE : This function Should not be modified, when the callback is needed,
 673:/home/phong/Documents/thesis/stm32f4/stm-idf/components/stm32f4xx_hal_driver/stm32f4xx_hal_dcmi.c ****             the HAL_DCMI_LineEventCallback could be implemented in the user file
 674:/home/phong/Documents/thesis/stm32f4/stm-idf/components/stm32f4xx_hal_driver/stm32f4xx_hal_dcmi.c ****    */
 675:/home/phong/Documents/thesis/stm32f4/stm-idf/components/stm32f4xx_hal_driver/stm32f4xx_hal_dcmi.c **** }
 676:/home/phong/Documents/thesis/stm32f4/stm-idf/components/stm32f4xx_hal_driver/stm32f4xx_hal_dcmi.c **** 
 677:/home/phong/Documents/thesis/stm32f4/stm-idf/components/stm32f4xx_hal_driver/stm32f4xx_hal_dcmi.c **** /**
 678:/home/phong/Documents/thesis/stm32f4/stm-idf/components/stm32f4xx_hal_driver/stm32f4xx_hal_dcmi.c ****   * @brief  VSYNC Event callback.
 679:/home/phong/Documents/thesis/stm32f4/stm-idf/components/stm32f4xx_hal_driver/stm32f4xx_hal_dcmi.c ****   * @param  hdcmi pointer to a DCMI_HandleTypeDef structure that contains
 680:/home/phong/Documents/thesis/stm32f4/stm-idf/components/stm32f4xx_hal_driver/stm32f4xx_hal_dcmi.c ****   *                the configuration information for DCMI.
 681:/home/phong/Documents/thesis/stm32f4/stm-idf/components/stm32f4xx_hal_driver/stm32f4xx_hal_dcmi.c ****   * @retval None
 682:/home/phong/Documents/thesis/stm32f4/stm-idf/components/stm32f4xx_hal_driver/stm32f4xx_hal_dcmi.c ****   */
 683:/home/phong/Documents/thesis/stm32f4/stm-idf/components/stm32f4xx_hal_driver/stm32f4xx_hal_dcmi.c **** __weak void HAL_DCMI_VsyncEventCallback(DCMI_HandleTypeDef *hdcmi)
 684:/home/phong/Documents/thesis/stm32f4/stm-idf/components/stm32f4xx_hal_driver/stm32f4xx_hal_dcmi.c **** {
 685:/home/phong/Documents/thesis/stm32f4/stm-idf/components/stm32f4xx_hal_driver/stm32f4xx_hal_dcmi.c ****   /* Prevent unused argument(s) compilation warning */
 686:/home/phong/Documents/thesis/stm32f4/stm-idf/components/stm32f4xx_hal_driver/stm32f4xx_hal_dcmi.c ****   UNUSED(hdcmi);
 687:/home/phong/Documents/thesis/stm32f4/stm-idf/components/stm32f4xx_hal_driver/stm32f4xx_hal_dcmi.c ****   /* NOTE : This function Should not be modified, when the callback is needed,
 688:/home/phong/Documents/thesis/stm32f4/stm-idf/components/stm32f4xx_hal_driver/stm32f4xx_hal_dcmi.c ****             the HAL_DCMI_VsyncEventCallback could be implemented in the user file
 689:/home/phong/Documents/thesis/stm32f4/stm-idf/components/stm32f4xx_hal_driver/stm32f4xx_hal_dcmi.c ****    */
 690:/home/phong/Documents/thesis/stm32f4/stm-idf/components/stm32f4xx_hal_driver/stm32f4xx_hal_dcmi.c **** }
 691:/home/phong/Documents/thesis/stm32f4/stm-idf/components/stm32f4xx_hal_driver/stm32f4xx_hal_dcmi.c **** 
 692:/home/phong/Documents/thesis/stm32f4/stm-idf/components/stm32f4xx_hal_driver/stm32f4xx_hal_dcmi.c **** /**
 693:/home/phong/Documents/thesis/stm32f4/stm-idf/components/stm32f4xx_hal_driver/stm32f4xx_hal_dcmi.c ****   * @brief  Frame Event callback.
 694:/home/phong/Documents/thesis/stm32f4/stm-idf/components/stm32f4xx_hal_driver/stm32f4xx_hal_dcmi.c ****   * @param  hdcmi pointer to a DCMI_HandleTypeDef structure that contains
 695:/home/phong/Documents/thesis/stm32f4/stm-idf/components/stm32f4xx_hal_driver/stm32f4xx_hal_dcmi.c ****   *                the configuration information for DCMI.
 696:/home/phong/Documents/thesis/stm32f4/stm-idf/components/stm32f4xx_hal_driver/stm32f4xx_hal_dcmi.c ****   * @retval None
 697:/home/phong/Documents/thesis/stm32f4/stm-idf/components/stm32f4xx_hal_driver/stm32f4xx_hal_dcmi.c ****   */
 698:/home/phong/Documents/thesis/stm32f4/stm-idf/components/stm32f4xx_hal_driver/stm32f4xx_hal_dcmi.c **** __weak void HAL_DCMI_FrameEventCallback(DCMI_HandleTypeDef *hdcmi)
 699:/home/phong/Documents/thesis/stm32f4/stm-idf/components/stm32f4xx_hal_driver/stm32f4xx_hal_dcmi.c **** {
 700:/home/phong/Documents/thesis/stm32f4/stm-idf/components/stm32f4xx_hal_driver/stm32f4xx_hal_dcmi.c ****   /* Prevent unused argument(s) compilation warning */
 701:/home/phong/Documents/thesis/stm32f4/stm-idf/components/stm32f4xx_hal_driver/stm32f4xx_hal_dcmi.c ****   UNUSED(hdcmi);
 702:/home/phong/Documents/thesis/stm32f4/stm-idf/components/stm32f4xx_hal_driver/stm32f4xx_hal_dcmi.c ****   /* NOTE : This function Should not be modified, when the callback is needed,
 703:/home/phong/Documents/thesis/stm32f4/stm-idf/components/stm32f4xx_hal_driver/stm32f4xx_hal_dcmi.c ****             the HAL_DCMI_FrameEventCallback could be implemented in the user file
 704:/home/phong/Documents/thesis/stm32f4/stm-idf/components/stm32f4xx_hal_driver/stm32f4xx_hal_dcmi.c ****    */
 705:/home/phong/Documents/thesis/stm32f4/stm-idf/components/stm32f4xx_hal_driver/stm32f4xx_hal_dcmi.c **** }
 706:/home/phong/Documents/thesis/stm32f4/stm-idf/components/stm32f4xx_hal_driver/stm32f4xx_hal_dcmi.c **** 
 707:/home/phong/Documents/thesis/stm32f4/stm-idf/components/stm32f4xx_hal_driver/stm32f4xx_hal_dcmi.c **** /**
 708:/home/phong/Documents/thesis/stm32f4/stm-idf/components/stm32f4xx_hal_driver/stm32f4xx_hal_dcmi.c ****   * @}
 709:/home/phong/Documents/thesis/stm32f4/stm-idf/components/stm32f4xx_hal_driver/stm32f4xx_hal_dcmi.c ****   */
 710:/home/phong/Documents/thesis/stm32f4/stm-idf/components/stm32f4xx_hal_driver/stm32f4xx_hal_dcmi.c **** 
 711:/home/phong/Documents/thesis/stm32f4/stm-idf/components/stm32f4xx_hal_driver/stm32f4xx_hal_dcmi.c **** /** @defgroup DCMI_Exported_Functions_Group3 Peripheral Control functions
 712:/home/phong/Documents/thesis/stm32f4/stm-idf/components/stm32f4xx_hal_driver/stm32f4xx_hal_dcmi.c ****   *  @brief    Peripheral Control functions
 713:/home/phong/Documents/thesis/stm32f4/stm-idf/components/stm32f4xx_hal_driver/stm32f4xx_hal_dcmi.c ****   *
 714:/home/phong/Documents/thesis/stm32f4/stm-idf/components/stm32f4xx_hal_driver/stm32f4xx_hal_dcmi.c **** @verbatim
 715:/home/phong/Documents/thesis/stm32f4/stm-idf/components/stm32f4xx_hal_driver/stm32f4xx_hal_dcmi.c ****  ===============================================================================
 716:/home/phong/Documents/thesis/stm32f4/stm-idf/components/stm32f4xx_hal_driver/stm32f4xx_hal_dcmi.c ****                     ##### Peripheral Control functions #####
ARM GAS  /tmp/cczl6hC8.s 			page 14


 717:/home/phong/Documents/thesis/stm32f4/stm-idf/components/stm32f4xx_hal_driver/stm32f4xx_hal_dcmi.c ****  ===============================================================================
 718:/home/phong/Documents/thesis/stm32f4/stm-idf/components/stm32f4xx_hal_driver/stm32f4xx_hal_dcmi.c **** [..]  This section provides functions allowing to:
 719:/home/phong/Documents/thesis/stm32f4/stm-idf/components/stm32f4xx_hal_driver/stm32f4xx_hal_dcmi.c ****       (+) Configure the CROP feature.
 720:/home/phong/Documents/thesis/stm32f4/stm-idf/components/stm32f4xx_hal_driver/stm32f4xx_hal_dcmi.c ****       (+) Enable/Disable the CROP feature.
 721:/home/phong/Documents/thesis/stm32f4/stm-idf/components/stm32f4xx_hal_driver/stm32f4xx_hal_dcmi.c **** 
 722:/home/phong/Documents/thesis/stm32f4/stm-idf/components/stm32f4xx_hal_driver/stm32f4xx_hal_dcmi.c **** @endverbatim
 723:/home/phong/Documents/thesis/stm32f4/stm-idf/components/stm32f4xx_hal_driver/stm32f4xx_hal_dcmi.c ****   * @{
 724:/home/phong/Documents/thesis/stm32f4/stm-idf/components/stm32f4xx_hal_driver/stm32f4xx_hal_dcmi.c ****   */
 725:/home/phong/Documents/thesis/stm32f4/stm-idf/components/stm32f4xx_hal_driver/stm32f4xx_hal_dcmi.c **** 
 726:/home/phong/Documents/thesis/stm32f4/stm-idf/components/stm32f4xx_hal_driver/stm32f4xx_hal_dcmi.c **** /**
 727:/home/phong/Documents/thesis/stm32f4/stm-idf/components/stm32f4xx_hal_driver/stm32f4xx_hal_dcmi.c ****   * @brief  Configure the DCMI CROP coordinate.
 728:/home/phong/Documents/thesis/stm32f4/stm-idf/components/stm32f4xx_hal_driver/stm32f4xx_hal_dcmi.c ****   * @param  hdcmi pointer to a DCMI_HandleTypeDef structure that contains
 729:/home/phong/Documents/thesis/stm32f4/stm-idf/components/stm32f4xx_hal_driver/stm32f4xx_hal_dcmi.c ****   *                the configuration information for DCMI.
 730:/home/phong/Documents/thesis/stm32f4/stm-idf/components/stm32f4xx_hal_driver/stm32f4xx_hal_dcmi.c ****   * @param  X0    DCMI window X offset
 731:/home/phong/Documents/thesis/stm32f4/stm-idf/components/stm32f4xx_hal_driver/stm32f4xx_hal_dcmi.c ****   * @param  Y0    DCMI window Y offset
 732:/home/phong/Documents/thesis/stm32f4/stm-idf/components/stm32f4xx_hal_driver/stm32f4xx_hal_dcmi.c ****   * @param  XSize DCMI Pixel per line
 733:/home/phong/Documents/thesis/stm32f4/stm-idf/components/stm32f4xx_hal_driver/stm32f4xx_hal_dcmi.c ****   * @param  YSize DCMI Line number
 734:/home/phong/Documents/thesis/stm32f4/stm-idf/components/stm32f4xx_hal_driver/stm32f4xx_hal_dcmi.c ****   * @retval HAL status
 735:/home/phong/Documents/thesis/stm32f4/stm-idf/components/stm32f4xx_hal_driver/stm32f4xx_hal_dcmi.c ****   */
 736:/home/phong/Documents/thesis/stm32f4/stm-idf/components/stm32f4xx_hal_driver/stm32f4xx_hal_dcmi.c **** HAL_StatusTypeDef HAL_DCMI_ConfigCrop(DCMI_HandleTypeDef *hdcmi, uint32_t X0, uint32_t Y0, uint32_t
 737:/home/phong/Documents/thesis/stm32f4/stm-idf/components/stm32f4xx_hal_driver/stm32f4xx_hal_dcmi.c **** {
 738:/home/phong/Documents/thesis/stm32f4/stm-idf/components/stm32f4xx_hal_driver/stm32f4xx_hal_dcmi.c ****   /* Process Locked */
 739:/home/phong/Documents/thesis/stm32f4/stm-idf/components/stm32f4xx_hal_driver/stm32f4xx_hal_dcmi.c ****   __HAL_LOCK(hdcmi);
 740:/home/phong/Documents/thesis/stm32f4/stm-idf/components/stm32f4xx_hal_driver/stm32f4xx_hal_dcmi.c **** 
 741:/home/phong/Documents/thesis/stm32f4/stm-idf/components/stm32f4xx_hal_driver/stm32f4xx_hal_dcmi.c ****   /* Lock the DCMI peripheral state */
 742:/home/phong/Documents/thesis/stm32f4/stm-idf/components/stm32f4xx_hal_driver/stm32f4xx_hal_dcmi.c ****   hdcmi->State = HAL_DCMI_STATE_BUSY;
 743:/home/phong/Documents/thesis/stm32f4/stm-idf/components/stm32f4xx_hal_driver/stm32f4xx_hal_dcmi.c **** 
 744:/home/phong/Documents/thesis/stm32f4/stm-idf/components/stm32f4xx_hal_driver/stm32f4xx_hal_dcmi.c ****   /* Check the parameters */
 745:/home/phong/Documents/thesis/stm32f4/stm-idf/components/stm32f4xx_hal_driver/stm32f4xx_hal_dcmi.c ****   assert_param(IS_DCMI_WINDOW_COORDINATE(X0));
 746:/home/phong/Documents/thesis/stm32f4/stm-idf/components/stm32f4xx_hal_driver/stm32f4xx_hal_dcmi.c ****   assert_param(IS_DCMI_WINDOW_COORDINATE(YSize));
 747:/home/phong/Documents/thesis/stm32f4/stm-idf/components/stm32f4xx_hal_driver/stm32f4xx_hal_dcmi.c ****   assert_param(IS_DCMI_WINDOW_COORDINATE(XSize));
 748:/home/phong/Documents/thesis/stm32f4/stm-idf/components/stm32f4xx_hal_driver/stm32f4xx_hal_dcmi.c ****   assert_param(IS_DCMI_WINDOW_HEIGHT(Y0));
 749:/home/phong/Documents/thesis/stm32f4/stm-idf/components/stm32f4xx_hal_driver/stm32f4xx_hal_dcmi.c **** 
 750:/home/phong/Documents/thesis/stm32f4/stm-idf/components/stm32f4xx_hal_driver/stm32f4xx_hal_dcmi.c ****   /* Configure CROP */
 751:/home/phong/Documents/thesis/stm32f4/stm-idf/components/stm32f4xx_hal_driver/stm32f4xx_hal_dcmi.c ****   hdcmi->Instance->CWSIZER = (XSize | (YSize << DCMI_POSITION_CWSIZE_VLINE));
 752:/home/phong/Documents/thesis/stm32f4/stm-idf/components/stm32f4xx_hal_driver/stm32f4xx_hal_dcmi.c ****   hdcmi->Instance->CWSTRTR = (X0 | (Y0 << DCMI_POSITION_CWSTRT_VST));
 753:/home/phong/Documents/thesis/stm32f4/stm-idf/components/stm32f4xx_hal_driver/stm32f4xx_hal_dcmi.c **** 
 754:/home/phong/Documents/thesis/stm32f4/stm-idf/components/stm32f4xx_hal_driver/stm32f4xx_hal_dcmi.c ****   /* Initialize the DCMI state*/
 755:/home/phong/Documents/thesis/stm32f4/stm-idf/components/stm32f4xx_hal_driver/stm32f4xx_hal_dcmi.c ****   hdcmi->State  = HAL_DCMI_STATE_READY;
 756:/home/phong/Documents/thesis/stm32f4/stm-idf/components/stm32f4xx_hal_driver/stm32f4xx_hal_dcmi.c **** 
 757:/home/phong/Documents/thesis/stm32f4/stm-idf/components/stm32f4xx_hal_driver/stm32f4xx_hal_dcmi.c ****   /* Process Unlocked */
 758:/home/phong/Documents/thesis/stm32f4/stm-idf/components/stm32f4xx_hal_driver/stm32f4xx_hal_dcmi.c ****   __HAL_UNLOCK(hdcmi);
 759:/home/phong/Documents/thesis/stm32f4/stm-idf/components/stm32f4xx_hal_driver/stm32f4xx_hal_dcmi.c **** 
 760:/home/phong/Documents/thesis/stm32f4/stm-idf/components/stm32f4xx_hal_driver/stm32f4xx_hal_dcmi.c ****   return HAL_OK;
 761:/home/phong/Documents/thesis/stm32f4/stm-idf/components/stm32f4xx_hal_driver/stm32f4xx_hal_dcmi.c **** }
 762:/home/phong/Documents/thesis/stm32f4/stm-idf/components/stm32f4xx_hal_driver/stm32f4xx_hal_dcmi.c **** 
 763:/home/phong/Documents/thesis/stm32f4/stm-idf/components/stm32f4xx_hal_driver/stm32f4xx_hal_dcmi.c **** /**
 764:/home/phong/Documents/thesis/stm32f4/stm-idf/components/stm32f4xx_hal_driver/stm32f4xx_hal_dcmi.c ****   * @brief  Disable the Crop feature.
 765:/home/phong/Documents/thesis/stm32f4/stm-idf/components/stm32f4xx_hal_driver/stm32f4xx_hal_dcmi.c ****   * @param  hdcmi pointer to a DCMI_HandleTypeDef structure that contains
 766:/home/phong/Documents/thesis/stm32f4/stm-idf/components/stm32f4xx_hal_driver/stm32f4xx_hal_dcmi.c ****   *                the configuration information for DCMI.
 767:/home/phong/Documents/thesis/stm32f4/stm-idf/components/stm32f4xx_hal_driver/stm32f4xx_hal_dcmi.c ****   * @retval HAL status
 768:/home/phong/Documents/thesis/stm32f4/stm-idf/components/stm32f4xx_hal_driver/stm32f4xx_hal_dcmi.c ****   */
 769:/home/phong/Documents/thesis/stm32f4/stm-idf/components/stm32f4xx_hal_driver/stm32f4xx_hal_dcmi.c **** HAL_StatusTypeDef HAL_DCMI_DisableCrop(DCMI_HandleTypeDef *hdcmi)
 770:/home/phong/Documents/thesis/stm32f4/stm-idf/components/stm32f4xx_hal_driver/stm32f4xx_hal_dcmi.c **** {
 771:/home/phong/Documents/thesis/stm32f4/stm-idf/components/stm32f4xx_hal_driver/stm32f4xx_hal_dcmi.c ****   /* Process Locked */
 772:/home/phong/Documents/thesis/stm32f4/stm-idf/components/stm32f4xx_hal_driver/stm32f4xx_hal_dcmi.c ****   __HAL_LOCK(hdcmi);
 773:/home/phong/Documents/thesis/stm32f4/stm-idf/components/stm32f4xx_hal_driver/stm32f4xx_hal_dcmi.c **** 
ARM GAS  /tmp/cczl6hC8.s 			page 15


 774:/home/phong/Documents/thesis/stm32f4/stm-idf/components/stm32f4xx_hal_driver/stm32f4xx_hal_dcmi.c ****   /* Lock the DCMI peripheral state */
 775:/home/phong/Documents/thesis/stm32f4/stm-idf/components/stm32f4xx_hal_driver/stm32f4xx_hal_dcmi.c ****   hdcmi->State = HAL_DCMI_STATE_BUSY;
 776:/home/phong/Documents/thesis/stm32f4/stm-idf/components/stm32f4xx_hal_driver/stm32f4xx_hal_dcmi.c **** 
 777:/home/phong/Documents/thesis/stm32f4/stm-idf/components/stm32f4xx_hal_driver/stm32f4xx_hal_dcmi.c ****   /* Disable DCMI Crop feature */
 778:/home/phong/Documents/thesis/stm32f4/stm-idf/components/stm32f4xx_hal_driver/stm32f4xx_hal_dcmi.c ****   hdcmi->Instance->CR &= ~(uint32_t)DCMI_CR_CROP;
 779:/home/phong/Documents/thesis/stm32f4/stm-idf/components/stm32f4xx_hal_driver/stm32f4xx_hal_dcmi.c **** 
 780:/home/phong/Documents/thesis/stm32f4/stm-idf/components/stm32f4xx_hal_driver/stm32f4xx_hal_dcmi.c ****   /* Change the DCMI state*/
 781:/home/phong/Documents/thesis/stm32f4/stm-idf/components/stm32f4xx_hal_driver/stm32f4xx_hal_dcmi.c ****   hdcmi->State = HAL_DCMI_STATE_READY;
 782:/home/phong/Documents/thesis/stm32f4/stm-idf/components/stm32f4xx_hal_driver/stm32f4xx_hal_dcmi.c **** 
 783:/home/phong/Documents/thesis/stm32f4/stm-idf/components/stm32f4xx_hal_driver/stm32f4xx_hal_dcmi.c ****   /* Process Unlocked */
 784:/home/phong/Documents/thesis/stm32f4/stm-idf/components/stm32f4xx_hal_driver/stm32f4xx_hal_dcmi.c ****   __HAL_UNLOCK(hdcmi);
 785:/home/phong/Documents/thesis/stm32f4/stm-idf/components/stm32f4xx_hal_driver/stm32f4xx_hal_dcmi.c **** 
 786:/home/phong/Documents/thesis/stm32f4/stm-idf/components/stm32f4xx_hal_driver/stm32f4xx_hal_dcmi.c ****   return HAL_OK;
 787:/home/phong/Documents/thesis/stm32f4/stm-idf/components/stm32f4xx_hal_driver/stm32f4xx_hal_dcmi.c **** }
 788:/home/phong/Documents/thesis/stm32f4/stm-idf/components/stm32f4xx_hal_driver/stm32f4xx_hal_dcmi.c **** 
 789:/home/phong/Documents/thesis/stm32f4/stm-idf/components/stm32f4xx_hal_driver/stm32f4xx_hal_dcmi.c **** /**
 790:/home/phong/Documents/thesis/stm32f4/stm-idf/components/stm32f4xx_hal_driver/stm32f4xx_hal_dcmi.c ****   * @brief  Enable the Crop feature.
 791:/home/phong/Documents/thesis/stm32f4/stm-idf/components/stm32f4xx_hal_driver/stm32f4xx_hal_dcmi.c ****   * @param  hdcmi pointer to a DCMI_HandleTypeDef structure that contains
 792:/home/phong/Documents/thesis/stm32f4/stm-idf/components/stm32f4xx_hal_driver/stm32f4xx_hal_dcmi.c ****   *                the configuration information for DCMI.
 793:/home/phong/Documents/thesis/stm32f4/stm-idf/components/stm32f4xx_hal_driver/stm32f4xx_hal_dcmi.c ****   * @retval HAL status
 794:/home/phong/Documents/thesis/stm32f4/stm-idf/components/stm32f4xx_hal_driver/stm32f4xx_hal_dcmi.c ****   */
 795:/home/phong/Documents/thesis/stm32f4/stm-idf/components/stm32f4xx_hal_driver/stm32f4xx_hal_dcmi.c **** HAL_StatusTypeDef HAL_DCMI_EnableCrop(DCMI_HandleTypeDef *hdcmi)
 796:/home/phong/Documents/thesis/stm32f4/stm-idf/components/stm32f4xx_hal_driver/stm32f4xx_hal_dcmi.c **** {
 797:/home/phong/Documents/thesis/stm32f4/stm-idf/components/stm32f4xx_hal_driver/stm32f4xx_hal_dcmi.c ****   /* Process Locked */
 798:/home/phong/Documents/thesis/stm32f4/stm-idf/components/stm32f4xx_hal_driver/stm32f4xx_hal_dcmi.c ****   __HAL_LOCK(hdcmi);
 799:/home/phong/Documents/thesis/stm32f4/stm-idf/components/stm32f4xx_hal_driver/stm32f4xx_hal_dcmi.c **** 
 800:/home/phong/Documents/thesis/stm32f4/stm-idf/components/stm32f4xx_hal_driver/stm32f4xx_hal_dcmi.c ****   /* Lock the DCMI peripheral state */
 801:/home/phong/Documents/thesis/stm32f4/stm-idf/components/stm32f4xx_hal_driver/stm32f4xx_hal_dcmi.c ****   hdcmi->State = HAL_DCMI_STATE_BUSY;
 802:/home/phong/Documents/thesis/stm32f4/stm-idf/components/stm32f4xx_hal_driver/stm32f4xx_hal_dcmi.c **** 
 803:/home/phong/Documents/thesis/stm32f4/stm-idf/components/stm32f4xx_hal_driver/stm32f4xx_hal_dcmi.c ****   /* Enable DCMI Crop feature */
 804:/home/phong/Documents/thesis/stm32f4/stm-idf/components/stm32f4xx_hal_driver/stm32f4xx_hal_dcmi.c ****   hdcmi->Instance->CR |= (uint32_t)DCMI_CR_CROP;
 805:/home/phong/Documents/thesis/stm32f4/stm-idf/components/stm32f4xx_hal_driver/stm32f4xx_hal_dcmi.c **** 
 806:/home/phong/Documents/thesis/stm32f4/stm-idf/components/stm32f4xx_hal_driver/stm32f4xx_hal_dcmi.c ****   /* Change the DCMI state*/
 807:/home/phong/Documents/thesis/stm32f4/stm-idf/components/stm32f4xx_hal_driver/stm32f4xx_hal_dcmi.c ****   hdcmi->State = HAL_DCMI_STATE_READY;
 808:/home/phong/Documents/thesis/stm32f4/stm-idf/components/stm32f4xx_hal_driver/stm32f4xx_hal_dcmi.c **** 
 809:/home/phong/Documents/thesis/stm32f4/stm-idf/components/stm32f4xx_hal_driver/stm32f4xx_hal_dcmi.c ****   /* Process Unlocked */
 810:/home/phong/Documents/thesis/stm32f4/stm-idf/components/stm32f4xx_hal_driver/stm32f4xx_hal_dcmi.c ****   __HAL_UNLOCK(hdcmi);
 811:/home/phong/Documents/thesis/stm32f4/stm-idf/components/stm32f4xx_hal_driver/stm32f4xx_hal_dcmi.c **** 
 812:/home/phong/Documents/thesis/stm32f4/stm-idf/components/stm32f4xx_hal_driver/stm32f4xx_hal_dcmi.c ****   return HAL_OK;
 813:/home/phong/Documents/thesis/stm32f4/stm-idf/components/stm32f4xx_hal_driver/stm32f4xx_hal_dcmi.c **** }
 814:/home/phong/Documents/thesis/stm32f4/stm-idf/components/stm32f4xx_hal_driver/stm32f4xx_hal_dcmi.c **** 
 815:/home/phong/Documents/thesis/stm32f4/stm-idf/components/stm32f4xx_hal_driver/stm32f4xx_hal_dcmi.c **** /**
 816:/home/phong/Documents/thesis/stm32f4/stm-idf/components/stm32f4xx_hal_driver/stm32f4xx_hal_dcmi.c ****   * @brief  Set embedded synchronization delimiters unmasks.
 817:/home/phong/Documents/thesis/stm32f4/stm-idf/components/stm32f4xx_hal_driver/stm32f4xx_hal_dcmi.c ****   * @param  hdcmi pointer to a DCMI_HandleTypeDef structure that contains
 818:/home/phong/Documents/thesis/stm32f4/stm-idf/components/stm32f4xx_hal_driver/stm32f4xx_hal_dcmi.c ****   *               the configuration information for DCMI.
 819:/home/phong/Documents/thesis/stm32f4/stm-idf/components/stm32f4xx_hal_driver/stm32f4xx_hal_dcmi.c ****   * @param  SyncUnmask pointer to a DCMI_SyncUnmaskTypeDef structure that contains
 820:/home/phong/Documents/thesis/stm32f4/stm-idf/components/stm32f4xx_hal_driver/stm32f4xx_hal_dcmi.c ****   *                    the embedded synchronization delimiters unmasks.
 821:/home/phong/Documents/thesis/stm32f4/stm-idf/components/stm32f4xx_hal_driver/stm32f4xx_hal_dcmi.c ****   * @retval HAL status
 822:/home/phong/Documents/thesis/stm32f4/stm-idf/components/stm32f4xx_hal_driver/stm32f4xx_hal_dcmi.c ****   */
 823:/home/phong/Documents/thesis/stm32f4/stm-idf/components/stm32f4xx_hal_driver/stm32f4xx_hal_dcmi.c **** HAL_StatusTypeDef  HAL_DCMI_ConfigSyncUnmask(DCMI_HandleTypeDef *hdcmi, DCMI_SyncUnmaskTypeDef *Syn
 824:/home/phong/Documents/thesis/stm32f4/stm-idf/components/stm32f4xx_hal_driver/stm32f4xx_hal_dcmi.c **** {
 825:/home/phong/Documents/thesis/stm32f4/stm-idf/components/stm32f4xx_hal_driver/stm32f4xx_hal_dcmi.c ****   /* Process Locked */
 826:/home/phong/Documents/thesis/stm32f4/stm-idf/components/stm32f4xx_hal_driver/stm32f4xx_hal_dcmi.c ****   __HAL_LOCK(hdcmi);
 827:/home/phong/Documents/thesis/stm32f4/stm-idf/components/stm32f4xx_hal_driver/stm32f4xx_hal_dcmi.c **** 
 828:/home/phong/Documents/thesis/stm32f4/stm-idf/components/stm32f4xx_hal_driver/stm32f4xx_hal_dcmi.c ****   /* Lock the DCMI peripheral state */
 829:/home/phong/Documents/thesis/stm32f4/stm-idf/components/stm32f4xx_hal_driver/stm32f4xx_hal_dcmi.c ****   hdcmi->State = HAL_DCMI_STATE_BUSY;
 830:/home/phong/Documents/thesis/stm32f4/stm-idf/components/stm32f4xx_hal_driver/stm32f4xx_hal_dcmi.c **** 
ARM GAS  /tmp/cczl6hC8.s 			page 16


 831:/home/phong/Documents/thesis/stm32f4/stm-idf/components/stm32f4xx_hal_driver/stm32f4xx_hal_dcmi.c ****   /* Write DCMI embedded synchronization unmask register */
 832:/home/phong/Documents/thesis/stm32f4/stm-idf/components/stm32f4xx_hal_driver/stm32f4xx_hal_dcmi.c ****   hdcmi->Instance->ESUR = (((uint32_t)SyncUnmask->FrameStartUnmask) |\
 833:/home/phong/Documents/thesis/stm32f4/stm-idf/components/stm32f4xx_hal_driver/stm32f4xx_hal_dcmi.c ****                            ((uint32_t)SyncUnmask->LineStartUnmask << DCMI_ESUR_LSU_Pos)|\
 834:/home/phong/Documents/thesis/stm32f4/stm-idf/components/stm32f4xx_hal_driver/stm32f4xx_hal_dcmi.c ****                            ((uint32_t)SyncUnmask->LineEndUnmask << DCMI_ESUR_LEU_Pos)|\
 835:/home/phong/Documents/thesis/stm32f4/stm-idf/components/stm32f4xx_hal_driver/stm32f4xx_hal_dcmi.c ****                            ((uint32_t)SyncUnmask->FrameEndUnmask << DCMI_ESUR_FEU_Pos));
 836:/home/phong/Documents/thesis/stm32f4/stm-idf/components/stm32f4xx_hal_driver/stm32f4xx_hal_dcmi.c **** 
 837:/home/phong/Documents/thesis/stm32f4/stm-idf/components/stm32f4xx_hal_driver/stm32f4xx_hal_dcmi.c ****   /* Change the DCMI state*/
 838:/home/phong/Documents/thesis/stm32f4/stm-idf/components/stm32f4xx_hal_driver/stm32f4xx_hal_dcmi.c ****   hdcmi->State = HAL_DCMI_STATE_READY;
 839:/home/phong/Documents/thesis/stm32f4/stm-idf/components/stm32f4xx_hal_driver/stm32f4xx_hal_dcmi.c **** 
 840:/home/phong/Documents/thesis/stm32f4/stm-idf/components/stm32f4xx_hal_driver/stm32f4xx_hal_dcmi.c ****   /* Process Unlocked */
 841:/home/phong/Documents/thesis/stm32f4/stm-idf/components/stm32f4xx_hal_driver/stm32f4xx_hal_dcmi.c ****   __HAL_UNLOCK(hdcmi);
 842:/home/phong/Documents/thesis/stm32f4/stm-idf/components/stm32f4xx_hal_driver/stm32f4xx_hal_dcmi.c **** 
 843:/home/phong/Documents/thesis/stm32f4/stm-idf/components/stm32f4xx_hal_driver/stm32f4xx_hal_dcmi.c ****   return HAL_OK;
 844:/home/phong/Documents/thesis/stm32f4/stm-idf/components/stm32f4xx_hal_driver/stm32f4xx_hal_dcmi.c **** }
 845:/home/phong/Documents/thesis/stm32f4/stm-idf/components/stm32f4xx_hal_driver/stm32f4xx_hal_dcmi.c **** 
 846:/home/phong/Documents/thesis/stm32f4/stm-idf/components/stm32f4xx_hal_driver/stm32f4xx_hal_dcmi.c **** /**
 847:/home/phong/Documents/thesis/stm32f4/stm-idf/components/stm32f4xx_hal_driver/stm32f4xx_hal_dcmi.c ****   * @}
 848:/home/phong/Documents/thesis/stm32f4/stm-idf/components/stm32f4xx_hal_driver/stm32f4xx_hal_dcmi.c ****   */
 849:/home/phong/Documents/thesis/stm32f4/stm-idf/components/stm32f4xx_hal_driver/stm32f4xx_hal_dcmi.c **** 
 850:/home/phong/Documents/thesis/stm32f4/stm-idf/components/stm32f4xx_hal_driver/stm32f4xx_hal_dcmi.c **** /** @defgroup DCMI_Exported_Functions_Group4 Peripheral State functions
 851:/home/phong/Documents/thesis/stm32f4/stm-idf/components/stm32f4xx_hal_driver/stm32f4xx_hal_dcmi.c ****   *  @brief    Peripheral State functions
 852:/home/phong/Documents/thesis/stm32f4/stm-idf/components/stm32f4xx_hal_driver/stm32f4xx_hal_dcmi.c ****   *
 853:/home/phong/Documents/thesis/stm32f4/stm-idf/components/stm32f4xx_hal_driver/stm32f4xx_hal_dcmi.c **** @verbatim
 854:/home/phong/Documents/thesis/stm32f4/stm-idf/components/stm32f4xx_hal_driver/stm32f4xx_hal_dcmi.c ****  ===============================================================================
 855:/home/phong/Documents/thesis/stm32f4/stm-idf/components/stm32f4xx_hal_driver/stm32f4xx_hal_dcmi.c ****                ##### Peripheral State and Errors functions #####
 856:/home/phong/Documents/thesis/stm32f4/stm-idf/components/stm32f4xx_hal_driver/stm32f4xx_hal_dcmi.c ****  ===============================================================================
 857:/home/phong/Documents/thesis/stm32f4/stm-idf/components/stm32f4xx_hal_driver/stm32f4xx_hal_dcmi.c ****     [..]
 858:/home/phong/Documents/thesis/stm32f4/stm-idf/components/stm32f4xx_hal_driver/stm32f4xx_hal_dcmi.c ****     This subsection provides functions allowing to
 859:/home/phong/Documents/thesis/stm32f4/stm-idf/components/stm32f4xx_hal_driver/stm32f4xx_hal_dcmi.c ****       (+) Check the DCMI state.
 860:/home/phong/Documents/thesis/stm32f4/stm-idf/components/stm32f4xx_hal_driver/stm32f4xx_hal_dcmi.c ****       (+) Get the specific DCMI error flag.
 861:/home/phong/Documents/thesis/stm32f4/stm-idf/components/stm32f4xx_hal_driver/stm32f4xx_hal_dcmi.c **** 
 862:/home/phong/Documents/thesis/stm32f4/stm-idf/components/stm32f4xx_hal_driver/stm32f4xx_hal_dcmi.c **** @endverbatim
 863:/home/phong/Documents/thesis/stm32f4/stm-idf/components/stm32f4xx_hal_driver/stm32f4xx_hal_dcmi.c ****   * @{
 864:/home/phong/Documents/thesis/stm32f4/stm-idf/components/stm32f4xx_hal_driver/stm32f4xx_hal_dcmi.c ****   */ 
 865:/home/phong/Documents/thesis/stm32f4/stm-idf/components/stm32f4xx_hal_driver/stm32f4xx_hal_dcmi.c **** 
 866:/home/phong/Documents/thesis/stm32f4/stm-idf/components/stm32f4xx_hal_driver/stm32f4xx_hal_dcmi.c **** /**
 867:/home/phong/Documents/thesis/stm32f4/stm-idf/components/stm32f4xx_hal_driver/stm32f4xx_hal_dcmi.c ****   * @brief  Return the DCMI state
 868:/home/phong/Documents/thesis/stm32f4/stm-idf/components/stm32f4xx_hal_driver/stm32f4xx_hal_dcmi.c ****   * @param  hdcmi pointer to a DCMI_HandleTypeDef structure that contains
 869:/home/phong/Documents/thesis/stm32f4/stm-idf/components/stm32f4xx_hal_driver/stm32f4xx_hal_dcmi.c ****   *                the configuration information for DCMI.
 870:/home/phong/Documents/thesis/stm32f4/stm-idf/components/stm32f4xx_hal_driver/stm32f4xx_hal_dcmi.c ****   * @retval HAL state
 871:/home/phong/Documents/thesis/stm32f4/stm-idf/components/stm32f4xx_hal_driver/stm32f4xx_hal_dcmi.c ****   */
 872:/home/phong/Documents/thesis/stm32f4/stm-idf/components/stm32f4xx_hal_driver/stm32f4xx_hal_dcmi.c **** HAL_DCMI_StateTypeDef HAL_DCMI_GetState(DCMI_HandleTypeDef *hdcmi)
 873:/home/phong/Documents/thesis/stm32f4/stm-idf/components/stm32f4xx_hal_driver/stm32f4xx_hal_dcmi.c **** {
 874:/home/phong/Documents/thesis/stm32f4/stm-idf/components/stm32f4xx_hal_driver/stm32f4xx_hal_dcmi.c ****   return hdcmi->State;
 875:/home/phong/Documents/thesis/stm32f4/stm-idf/components/stm32f4xx_hal_driver/stm32f4xx_hal_dcmi.c **** }
 876:/home/phong/Documents/thesis/stm32f4/stm-idf/components/stm32f4xx_hal_driver/stm32f4xx_hal_dcmi.c **** 
 877:/home/phong/Documents/thesis/stm32f4/stm-idf/components/stm32f4xx_hal_driver/stm32f4xx_hal_dcmi.c **** /**
 878:/home/phong/Documents/thesis/stm32f4/stm-idf/components/stm32f4xx_hal_driver/stm32f4xx_hal_dcmi.c ****   * @brief  Return the DCMI error code
 879:/home/phong/Documents/thesis/stm32f4/stm-idf/components/stm32f4xx_hal_driver/stm32f4xx_hal_dcmi.c ****   * @param  hdcmi  pointer to a DCMI_HandleTypeDef structure that contains
 880:/home/phong/Documents/thesis/stm32f4/stm-idf/components/stm32f4xx_hal_driver/stm32f4xx_hal_dcmi.c ****   *               the configuration information for DCMI.
 881:/home/phong/Documents/thesis/stm32f4/stm-idf/components/stm32f4xx_hal_driver/stm32f4xx_hal_dcmi.c ****   * @retval DCMI Error Code
 882:/home/phong/Documents/thesis/stm32f4/stm-idf/components/stm32f4xx_hal_driver/stm32f4xx_hal_dcmi.c ****   */
 883:/home/phong/Documents/thesis/stm32f4/stm-idf/components/stm32f4xx_hal_driver/stm32f4xx_hal_dcmi.c **** uint32_t HAL_DCMI_GetError(DCMI_HandleTypeDef *hdcmi)
 884:/home/phong/Documents/thesis/stm32f4/stm-idf/components/stm32f4xx_hal_driver/stm32f4xx_hal_dcmi.c **** {
 885:/home/phong/Documents/thesis/stm32f4/stm-idf/components/stm32f4xx_hal_driver/stm32f4xx_hal_dcmi.c ****   return hdcmi->ErrorCode;
 886:/home/phong/Documents/thesis/stm32f4/stm-idf/components/stm32f4xx_hal_driver/stm32f4xx_hal_dcmi.c **** }
 887:/home/phong/Documents/thesis/stm32f4/stm-idf/components/stm32f4xx_hal_driver/stm32f4xx_hal_dcmi.c **** 
ARM GAS  /tmp/cczl6hC8.s 			page 17


 888:/home/phong/Documents/thesis/stm32f4/stm-idf/components/stm32f4xx_hal_driver/stm32f4xx_hal_dcmi.c **** #if (USE_HAL_DCMI_REGISTER_CALLBACKS == 1)
 889:/home/phong/Documents/thesis/stm32f4/stm-idf/components/stm32f4xx_hal_driver/stm32f4xx_hal_dcmi.c **** /**
 890:/home/phong/Documents/thesis/stm32f4/stm-idf/components/stm32f4xx_hal_driver/stm32f4xx_hal_dcmi.c ****   * @brief DCMI Callback registering
 891:/home/phong/Documents/thesis/stm32f4/stm-idf/components/stm32f4xx_hal_driver/stm32f4xx_hal_dcmi.c ****   * @param hdcmi        pointer to a DCMI_HandleTypeDef structure that contains
 892:/home/phong/Documents/thesis/stm32f4/stm-idf/components/stm32f4xx_hal_driver/stm32f4xx_hal_dcmi.c ****   *                     the configuration information for DCMI.
 893:/home/phong/Documents/thesis/stm32f4/stm-idf/components/stm32f4xx_hal_driver/stm32f4xx_hal_dcmi.c ****   * @param CallbackID   dcmi Callback ID
 894:/home/phong/Documents/thesis/stm32f4/stm-idf/components/stm32f4xx_hal_driver/stm32f4xx_hal_dcmi.c ****   * @param pCallback    pointer to DCMI_CallbackTypeDef structure
 895:/home/phong/Documents/thesis/stm32f4/stm-idf/components/stm32f4xx_hal_driver/stm32f4xx_hal_dcmi.c ****   * @retval status
 896:/home/phong/Documents/thesis/stm32f4/stm-idf/components/stm32f4xx_hal_driver/stm32f4xx_hal_dcmi.c ****   */
 897:/home/phong/Documents/thesis/stm32f4/stm-idf/components/stm32f4xx_hal_driver/stm32f4xx_hal_dcmi.c **** HAL_StatusTypeDef HAL_DCMI_RegisterCallback(DCMI_HandleTypeDef *hdcmi, HAL_DCMI_CallbackIDTypeDef C
 898:/home/phong/Documents/thesis/stm32f4/stm-idf/components/stm32f4xx_hal_driver/stm32f4xx_hal_dcmi.c **** {
 899:/home/phong/Documents/thesis/stm32f4/stm-idf/components/stm32f4xx_hal_driver/stm32f4xx_hal_dcmi.c ****   HAL_StatusTypeDef status = HAL_OK;
 900:/home/phong/Documents/thesis/stm32f4/stm-idf/components/stm32f4xx_hal_driver/stm32f4xx_hal_dcmi.c ****   
 901:/home/phong/Documents/thesis/stm32f4/stm-idf/components/stm32f4xx_hal_driver/stm32f4xx_hal_dcmi.c ****   if(pCallback == NULL)
 902:/home/phong/Documents/thesis/stm32f4/stm-idf/components/stm32f4xx_hal_driver/stm32f4xx_hal_dcmi.c ****   {
 903:/home/phong/Documents/thesis/stm32f4/stm-idf/components/stm32f4xx_hal_driver/stm32f4xx_hal_dcmi.c ****     /* update the error code */
 904:/home/phong/Documents/thesis/stm32f4/stm-idf/components/stm32f4xx_hal_driver/stm32f4xx_hal_dcmi.c ****     hdcmi->ErrorCode |= HAL_DCMI_ERROR_INVALID_CALLBACK;  
 905:/home/phong/Documents/thesis/stm32f4/stm-idf/components/stm32f4xx_hal_driver/stm32f4xx_hal_dcmi.c ****     /* update return status */
 906:/home/phong/Documents/thesis/stm32f4/stm-idf/components/stm32f4xx_hal_driver/stm32f4xx_hal_dcmi.c ****     status = HAL_ERROR;
 907:/home/phong/Documents/thesis/stm32f4/stm-idf/components/stm32f4xx_hal_driver/stm32f4xx_hal_dcmi.c ****   }
 908:/home/phong/Documents/thesis/stm32f4/stm-idf/components/stm32f4xx_hal_driver/stm32f4xx_hal_dcmi.c ****   else
 909:/home/phong/Documents/thesis/stm32f4/stm-idf/components/stm32f4xx_hal_driver/stm32f4xx_hal_dcmi.c ****   {
 910:/home/phong/Documents/thesis/stm32f4/stm-idf/components/stm32f4xx_hal_driver/stm32f4xx_hal_dcmi.c ****     if(hdcmi->State == HAL_DCMI_STATE_READY)
 911:/home/phong/Documents/thesis/stm32f4/stm-idf/components/stm32f4xx_hal_driver/stm32f4xx_hal_dcmi.c ****     {
 912:/home/phong/Documents/thesis/stm32f4/stm-idf/components/stm32f4xx_hal_driver/stm32f4xx_hal_dcmi.c ****       switch (CallbackID)
 913:/home/phong/Documents/thesis/stm32f4/stm-idf/components/stm32f4xx_hal_driver/stm32f4xx_hal_dcmi.c ****       {
 914:/home/phong/Documents/thesis/stm32f4/stm-idf/components/stm32f4xx_hal_driver/stm32f4xx_hal_dcmi.c ****       case HAL_DCMI_FRAME_EVENT_CB_ID :
 915:/home/phong/Documents/thesis/stm32f4/stm-idf/components/stm32f4xx_hal_driver/stm32f4xx_hal_dcmi.c ****         hdcmi->FrameEventCallback = pCallback;
 916:/home/phong/Documents/thesis/stm32f4/stm-idf/components/stm32f4xx_hal_driver/stm32f4xx_hal_dcmi.c ****         break;
 917:/home/phong/Documents/thesis/stm32f4/stm-idf/components/stm32f4xx_hal_driver/stm32f4xx_hal_dcmi.c ****         
 918:/home/phong/Documents/thesis/stm32f4/stm-idf/components/stm32f4xx_hal_driver/stm32f4xx_hal_dcmi.c ****       case HAL_DCMI_VSYNC_EVENT_CB_ID :
 919:/home/phong/Documents/thesis/stm32f4/stm-idf/components/stm32f4xx_hal_driver/stm32f4xx_hal_dcmi.c ****         hdcmi->VsyncEventCallback = pCallback;
 920:/home/phong/Documents/thesis/stm32f4/stm-idf/components/stm32f4xx_hal_driver/stm32f4xx_hal_dcmi.c ****         break; 
 921:/home/phong/Documents/thesis/stm32f4/stm-idf/components/stm32f4xx_hal_driver/stm32f4xx_hal_dcmi.c ****         
 922:/home/phong/Documents/thesis/stm32f4/stm-idf/components/stm32f4xx_hal_driver/stm32f4xx_hal_dcmi.c ****       case HAL_DCMI_LINE_EVENT_CB_ID :
 923:/home/phong/Documents/thesis/stm32f4/stm-idf/components/stm32f4xx_hal_driver/stm32f4xx_hal_dcmi.c ****         hdcmi->LineEventCallback = pCallback;
 924:/home/phong/Documents/thesis/stm32f4/stm-idf/components/stm32f4xx_hal_driver/stm32f4xx_hal_dcmi.c ****         break;
 925:/home/phong/Documents/thesis/stm32f4/stm-idf/components/stm32f4xx_hal_driver/stm32f4xx_hal_dcmi.c ****         
 926:/home/phong/Documents/thesis/stm32f4/stm-idf/components/stm32f4xx_hal_driver/stm32f4xx_hal_dcmi.c ****       case HAL_DCMI_ERROR_CB_ID :
 927:/home/phong/Documents/thesis/stm32f4/stm-idf/components/stm32f4xx_hal_driver/stm32f4xx_hal_dcmi.c ****         hdcmi->ErrorCallback = pCallback;
 928:/home/phong/Documents/thesis/stm32f4/stm-idf/components/stm32f4xx_hal_driver/stm32f4xx_hal_dcmi.c ****         break;
 929:/home/phong/Documents/thesis/stm32f4/stm-idf/components/stm32f4xx_hal_driver/stm32f4xx_hal_dcmi.c ****         
 930:/home/phong/Documents/thesis/stm32f4/stm-idf/components/stm32f4xx_hal_driver/stm32f4xx_hal_dcmi.c ****       case HAL_DCMI_MSPINIT_CB_ID :
 931:/home/phong/Documents/thesis/stm32f4/stm-idf/components/stm32f4xx_hal_driver/stm32f4xx_hal_dcmi.c ****         hdcmi->MspInitCallback = pCallback;
 932:/home/phong/Documents/thesis/stm32f4/stm-idf/components/stm32f4xx_hal_driver/stm32f4xx_hal_dcmi.c ****         break;
 933:/home/phong/Documents/thesis/stm32f4/stm-idf/components/stm32f4xx_hal_driver/stm32f4xx_hal_dcmi.c ****         
 934:/home/phong/Documents/thesis/stm32f4/stm-idf/components/stm32f4xx_hal_driver/stm32f4xx_hal_dcmi.c ****       case HAL_DCMI_MSPDEINIT_CB_ID :
 935:/home/phong/Documents/thesis/stm32f4/stm-idf/components/stm32f4xx_hal_driver/stm32f4xx_hal_dcmi.c ****         hdcmi->MspDeInitCallback = pCallback;
 936:/home/phong/Documents/thesis/stm32f4/stm-idf/components/stm32f4xx_hal_driver/stm32f4xx_hal_dcmi.c ****         break;	  
 937:/home/phong/Documents/thesis/stm32f4/stm-idf/components/stm32f4xx_hal_driver/stm32f4xx_hal_dcmi.c ****         
 938:/home/phong/Documents/thesis/stm32f4/stm-idf/components/stm32f4xx_hal_driver/stm32f4xx_hal_dcmi.c ****       default : 
 939:/home/phong/Documents/thesis/stm32f4/stm-idf/components/stm32f4xx_hal_driver/stm32f4xx_hal_dcmi.c ****         /* Return error status */
 940:/home/phong/Documents/thesis/stm32f4/stm-idf/components/stm32f4xx_hal_driver/stm32f4xx_hal_dcmi.c ****         status =  HAL_ERROR;
 941:/home/phong/Documents/thesis/stm32f4/stm-idf/components/stm32f4xx_hal_driver/stm32f4xx_hal_dcmi.c ****         break;
 942:/home/phong/Documents/thesis/stm32f4/stm-idf/components/stm32f4xx_hal_driver/stm32f4xx_hal_dcmi.c ****       }
 943:/home/phong/Documents/thesis/stm32f4/stm-idf/components/stm32f4xx_hal_driver/stm32f4xx_hal_dcmi.c ****     }
 944:/home/phong/Documents/thesis/stm32f4/stm-idf/components/stm32f4xx_hal_driver/stm32f4xx_hal_dcmi.c ****     else if(hdcmi->State == HAL_DCMI_STATE_RESET)
ARM GAS  /tmp/cczl6hC8.s 			page 18


 945:/home/phong/Documents/thesis/stm32f4/stm-idf/components/stm32f4xx_hal_driver/stm32f4xx_hal_dcmi.c ****     {
 946:/home/phong/Documents/thesis/stm32f4/stm-idf/components/stm32f4xx_hal_driver/stm32f4xx_hal_dcmi.c ****       switch (CallbackID)
 947:/home/phong/Documents/thesis/stm32f4/stm-idf/components/stm32f4xx_hal_driver/stm32f4xx_hal_dcmi.c ****       {
 948:/home/phong/Documents/thesis/stm32f4/stm-idf/components/stm32f4xx_hal_driver/stm32f4xx_hal_dcmi.c ****       case HAL_DCMI_MSPINIT_CB_ID :
 949:/home/phong/Documents/thesis/stm32f4/stm-idf/components/stm32f4xx_hal_driver/stm32f4xx_hal_dcmi.c ****         hdcmi->MspInitCallback = pCallback;
 950:/home/phong/Documents/thesis/stm32f4/stm-idf/components/stm32f4xx_hal_driver/stm32f4xx_hal_dcmi.c ****         break;
 951:/home/phong/Documents/thesis/stm32f4/stm-idf/components/stm32f4xx_hal_driver/stm32f4xx_hal_dcmi.c **** 
 952:/home/phong/Documents/thesis/stm32f4/stm-idf/components/stm32f4xx_hal_driver/stm32f4xx_hal_dcmi.c ****       case HAL_DCMI_MSPDEINIT_CB_ID :
 953:/home/phong/Documents/thesis/stm32f4/stm-idf/components/stm32f4xx_hal_driver/stm32f4xx_hal_dcmi.c ****         hdcmi->MspDeInitCallback = pCallback;
 954:/home/phong/Documents/thesis/stm32f4/stm-idf/components/stm32f4xx_hal_driver/stm32f4xx_hal_dcmi.c ****         break;	  
 955:/home/phong/Documents/thesis/stm32f4/stm-idf/components/stm32f4xx_hal_driver/stm32f4xx_hal_dcmi.c ****         
 956:/home/phong/Documents/thesis/stm32f4/stm-idf/components/stm32f4xx_hal_driver/stm32f4xx_hal_dcmi.c ****       default : 
 957:/home/phong/Documents/thesis/stm32f4/stm-idf/components/stm32f4xx_hal_driver/stm32f4xx_hal_dcmi.c ****         /* update the error code */
 958:/home/phong/Documents/thesis/stm32f4/stm-idf/components/stm32f4xx_hal_driver/stm32f4xx_hal_dcmi.c ****         hdcmi->ErrorCode |= HAL_DCMI_ERROR_INVALID_CALLBACK;
 959:/home/phong/Documents/thesis/stm32f4/stm-idf/components/stm32f4xx_hal_driver/stm32f4xx_hal_dcmi.c ****         /* update return status */
 960:/home/phong/Documents/thesis/stm32f4/stm-idf/components/stm32f4xx_hal_driver/stm32f4xx_hal_dcmi.c ****         status = HAL_ERROR;
 961:/home/phong/Documents/thesis/stm32f4/stm-idf/components/stm32f4xx_hal_driver/stm32f4xx_hal_dcmi.c ****         break;
 962:/home/phong/Documents/thesis/stm32f4/stm-idf/components/stm32f4xx_hal_driver/stm32f4xx_hal_dcmi.c ****       }		
 963:/home/phong/Documents/thesis/stm32f4/stm-idf/components/stm32f4xx_hal_driver/stm32f4xx_hal_dcmi.c ****     }  
 964:/home/phong/Documents/thesis/stm32f4/stm-idf/components/stm32f4xx_hal_driver/stm32f4xx_hal_dcmi.c ****     else
 965:/home/phong/Documents/thesis/stm32f4/stm-idf/components/stm32f4xx_hal_driver/stm32f4xx_hal_dcmi.c ****     {
 966:/home/phong/Documents/thesis/stm32f4/stm-idf/components/stm32f4xx_hal_driver/stm32f4xx_hal_dcmi.c ****       /* update the error code */
 967:/home/phong/Documents/thesis/stm32f4/stm-idf/components/stm32f4xx_hal_driver/stm32f4xx_hal_dcmi.c ****       hdcmi->ErrorCode |= HAL_DCMI_ERROR_INVALID_CALLBACK;
 968:/home/phong/Documents/thesis/stm32f4/stm-idf/components/stm32f4xx_hal_driver/stm32f4xx_hal_dcmi.c ****       /* update return status */
 969:/home/phong/Documents/thesis/stm32f4/stm-idf/components/stm32f4xx_hal_driver/stm32f4xx_hal_dcmi.c ****       status = HAL_ERROR;
 970:/home/phong/Documents/thesis/stm32f4/stm-idf/components/stm32f4xx_hal_driver/stm32f4xx_hal_dcmi.c ****     }
 971:/home/phong/Documents/thesis/stm32f4/stm-idf/components/stm32f4xx_hal_driver/stm32f4xx_hal_dcmi.c ****   }
 972:/home/phong/Documents/thesis/stm32f4/stm-idf/components/stm32f4xx_hal_driver/stm32f4xx_hal_dcmi.c ****   
 973:/home/phong/Documents/thesis/stm32f4/stm-idf/components/stm32f4xx_hal_driver/stm32f4xx_hal_dcmi.c ****   return status;
 974:/home/phong/Documents/thesis/stm32f4/stm-idf/components/stm32f4xx_hal_driver/stm32f4xx_hal_dcmi.c **** }
 975:/home/phong/Documents/thesis/stm32f4/stm-idf/components/stm32f4xx_hal_driver/stm32f4xx_hal_dcmi.c **** 
 976:/home/phong/Documents/thesis/stm32f4/stm-idf/components/stm32f4xx_hal_driver/stm32f4xx_hal_dcmi.c **** /**
 977:/home/phong/Documents/thesis/stm32f4/stm-idf/components/stm32f4xx_hal_driver/stm32f4xx_hal_dcmi.c ****   * @brief DCMI Callback Unregistering
 978:/home/phong/Documents/thesis/stm32f4/stm-idf/components/stm32f4xx_hal_driver/stm32f4xx_hal_dcmi.c ****   * @param hdcmi       dcmi handle
 979:/home/phong/Documents/thesis/stm32f4/stm-idf/components/stm32f4xx_hal_driver/stm32f4xx_hal_dcmi.c ****   * @param CallbackID  dcmi Callback ID
 980:/home/phong/Documents/thesis/stm32f4/stm-idf/components/stm32f4xx_hal_driver/stm32f4xx_hal_dcmi.c ****   * @retval status
 981:/home/phong/Documents/thesis/stm32f4/stm-idf/components/stm32f4xx_hal_driver/stm32f4xx_hal_dcmi.c ****   */
 982:/home/phong/Documents/thesis/stm32f4/stm-idf/components/stm32f4xx_hal_driver/stm32f4xx_hal_dcmi.c **** HAL_StatusTypeDef HAL_DCMI_UnRegisterCallback(DCMI_HandleTypeDef *hdcmi, HAL_DCMI_CallbackIDTypeDef
 983:/home/phong/Documents/thesis/stm32f4/stm-idf/components/stm32f4xx_hal_driver/stm32f4xx_hal_dcmi.c **** {
 984:/home/phong/Documents/thesis/stm32f4/stm-idf/components/stm32f4xx_hal_driver/stm32f4xx_hal_dcmi.c ****   HAL_StatusTypeDef status = HAL_OK;
 985:/home/phong/Documents/thesis/stm32f4/stm-idf/components/stm32f4xx_hal_driver/stm32f4xx_hal_dcmi.c ****   
 986:/home/phong/Documents/thesis/stm32f4/stm-idf/components/stm32f4xx_hal_driver/stm32f4xx_hal_dcmi.c ****   if(hdcmi->State == HAL_DCMI_STATE_READY)
 987:/home/phong/Documents/thesis/stm32f4/stm-idf/components/stm32f4xx_hal_driver/stm32f4xx_hal_dcmi.c ****   {
 988:/home/phong/Documents/thesis/stm32f4/stm-idf/components/stm32f4xx_hal_driver/stm32f4xx_hal_dcmi.c ****     switch (CallbackID)
 989:/home/phong/Documents/thesis/stm32f4/stm-idf/components/stm32f4xx_hal_driver/stm32f4xx_hal_dcmi.c ****     {
 990:/home/phong/Documents/thesis/stm32f4/stm-idf/components/stm32f4xx_hal_driver/stm32f4xx_hal_dcmi.c ****     case HAL_DCMI_FRAME_EVENT_CB_ID :
 991:/home/phong/Documents/thesis/stm32f4/stm-idf/components/stm32f4xx_hal_driver/stm32f4xx_hal_dcmi.c ****       hdcmi->FrameEventCallback = HAL_DCMI_FrameEventCallback;  /* Legacy weak  FrameEventCallback 
 992:/home/phong/Documents/thesis/stm32f4/stm-idf/components/stm32f4xx_hal_driver/stm32f4xx_hal_dcmi.c ****       break;
 993:/home/phong/Documents/thesis/stm32f4/stm-idf/components/stm32f4xx_hal_driver/stm32f4xx_hal_dcmi.c ****       
 994:/home/phong/Documents/thesis/stm32f4/stm-idf/components/stm32f4xx_hal_driver/stm32f4xx_hal_dcmi.c ****     case HAL_DCMI_VSYNC_EVENT_CB_ID :
 995:/home/phong/Documents/thesis/stm32f4/stm-idf/components/stm32f4xx_hal_driver/stm32f4xx_hal_dcmi.c ****       hdcmi->VsyncEventCallback = HAL_DCMI_VsyncEventCallback;  /* Legacy weak VsyncEventCallback  
 996:/home/phong/Documents/thesis/stm32f4/stm-idf/components/stm32f4xx_hal_driver/stm32f4xx_hal_dcmi.c ****       break;
 997:/home/phong/Documents/thesis/stm32f4/stm-idf/components/stm32f4xx_hal_driver/stm32f4xx_hal_dcmi.c ****       
 998:/home/phong/Documents/thesis/stm32f4/stm-idf/components/stm32f4xx_hal_driver/stm32f4xx_hal_dcmi.c ****     case HAL_DCMI_LINE_EVENT_CB_ID :
 999:/home/phong/Documents/thesis/stm32f4/stm-idf/components/stm32f4xx_hal_driver/stm32f4xx_hal_dcmi.c ****       hdcmi->LineEventCallback = HAL_DCMI_LineEventCallback;    /* Legacy weak LineEventCallback   
1000:/home/phong/Documents/thesis/stm32f4/stm-idf/components/stm32f4xx_hal_driver/stm32f4xx_hal_dcmi.c ****       break;
1001:/home/phong/Documents/thesis/stm32f4/stm-idf/components/stm32f4xx_hal_driver/stm32f4xx_hal_dcmi.c ****       
ARM GAS  /tmp/cczl6hC8.s 			page 19


1002:/home/phong/Documents/thesis/stm32f4/stm-idf/components/stm32f4xx_hal_driver/stm32f4xx_hal_dcmi.c ****     case HAL_DCMI_ERROR_CB_ID :
1003:/home/phong/Documents/thesis/stm32f4/stm-idf/components/stm32f4xx_hal_driver/stm32f4xx_hal_dcmi.c ****       hdcmi->ErrorCallback = HAL_DCMI_ErrorCallback;           /* Legacy weak ErrorCallback        
1004:/home/phong/Documents/thesis/stm32f4/stm-idf/components/stm32f4xx_hal_driver/stm32f4xx_hal_dcmi.c ****       break;  
1005:/home/phong/Documents/thesis/stm32f4/stm-idf/components/stm32f4xx_hal_driver/stm32f4xx_hal_dcmi.c ****       
1006:/home/phong/Documents/thesis/stm32f4/stm-idf/components/stm32f4xx_hal_driver/stm32f4xx_hal_dcmi.c ****     case HAL_DCMI_MSPINIT_CB_ID :
1007:/home/phong/Documents/thesis/stm32f4/stm-idf/components/stm32f4xx_hal_driver/stm32f4xx_hal_dcmi.c ****       hdcmi->MspInitCallback = HAL_DCMI_MspInit;
1008:/home/phong/Documents/thesis/stm32f4/stm-idf/components/stm32f4xx_hal_driver/stm32f4xx_hal_dcmi.c ****       break;
1009:/home/phong/Documents/thesis/stm32f4/stm-idf/components/stm32f4xx_hal_driver/stm32f4xx_hal_dcmi.c ****       
1010:/home/phong/Documents/thesis/stm32f4/stm-idf/components/stm32f4xx_hal_driver/stm32f4xx_hal_dcmi.c ****     case HAL_DCMI_MSPDEINIT_CB_ID :
1011:/home/phong/Documents/thesis/stm32f4/stm-idf/components/stm32f4xx_hal_driver/stm32f4xx_hal_dcmi.c ****       hdcmi->MspDeInitCallback = HAL_DCMI_MspDeInit;
1012:/home/phong/Documents/thesis/stm32f4/stm-idf/components/stm32f4xx_hal_driver/stm32f4xx_hal_dcmi.c ****       break;	  
1013:/home/phong/Documents/thesis/stm32f4/stm-idf/components/stm32f4xx_hal_driver/stm32f4xx_hal_dcmi.c ****       
1014:/home/phong/Documents/thesis/stm32f4/stm-idf/components/stm32f4xx_hal_driver/stm32f4xx_hal_dcmi.c ****     default : 
1015:/home/phong/Documents/thesis/stm32f4/stm-idf/components/stm32f4xx_hal_driver/stm32f4xx_hal_dcmi.c ****       /* update the error code */
1016:/home/phong/Documents/thesis/stm32f4/stm-idf/components/stm32f4xx_hal_driver/stm32f4xx_hal_dcmi.c ****       hdcmi->ErrorCode |= HAL_DCMI_ERROR_INVALID_CALLBACK;
1017:/home/phong/Documents/thesis/stm32f4/stm-idf/components/stm32f4xx_hal_driver/stm32f4xx_hal_dcmi.c ****       /* update return status */
1018:/home/phong/Documents/thesis/stm32f4/stm-idf/components/stm32f4xx_hal_driver/stm32f4xx_hal_dcmi.c ****       status = HAL_ERROR;
1019:/home/phong/Documents/thesis/stm32f4/stm-idf/components/stm32f4xx_hal_driver/stm32f4xx_hal_dcmi.c ****       break;
1020:/home/phong/Documents/thesis/stm32f4/stm-idf/components/stm32f4xx_hal_driver/stm32f4xx_hal_dcmi.c ****     }
1021:/home/phong/Documents/thesis/stm32f4/stm-idf/components/stm32f4xx_hal_driver/stm32f4xx_hal_dcmi.c ****   }
1022:/home/phong/Documents/thesis/stm32f4/stm-idf/components/stm32f4xx_hal_driver/stm32f4xx_hal_dcmi.c ****   else if(hdcmi->State == HAL_DCMI_STATE_RESET)
1023:/home/phong/Documents/thesis/stm32f4/stm-idf/components/stm32f4xx_hal_driver/stm32f4xx_hal_dcmi.c ****   {
1024:/home/phong/Documents/thesis/stm32f4/stm-idf/components/stm32f4xx_hal_driver/stm32f4xx_hal_dcmi.c ****     switch (CallbackID)
1025:/home/phong/Documents/thesis/stm32f4/stm-idf/components/stm32f4xx_hal_driver/stm32f4xx_hal_dcmi.c ****     {
1026:/home/phong/Documents/thesis/stm32f4/stm-idf/components/stm32f4xx_hal_driver/stm32f4xx_hal_dcmi.c ****     case HAL_DCMI_MSPINIT_CB_ID :
1027:/home/phong/Documents/thesis/stm32f4/stm-idf/components/stm32f4xx_hal_driver/stm32f4xx_hal_dcmi.c ****       hdcmi->MspInitCallback = HAL_DCMI_MspInit;
1028:/home/phong/Documents/thesis/stm32f4/stm-idf/components/stm32f4xx_hal_driver/stm32f4xx_hal_dcmi.c ****       break;
1029:/home/phong/Documents/thesis/stm32f4/stm-idf/components/stm32f4xx_hal_driver/stm32f4xx_hal_dcmi.c ****       
1030:/home/phong/Documents/thesis/stm32f4/stm-idf/components/stm32f4xx_hal_driver/stm32f4xx_hal_dcmi.c ****     case HAL_DCMI_MSPDEINIT_CB_ID :
1031:/home/phong/Documents/thesis/stm32f4/stm-idf/components/stm32f4xx_hal_driver/stm32f4xx_hal_dcmi.c ****       hdcmi->MspDeInitCallback = HAL_DCMI_MspDeInit;
1032:/home/phong/Documents/thesis/stm32f4/stm-idf/components/stm32f4xx_hal_driver/stm32f4xx_hal_dcmi.c ****       break;	  
1033:/home/phong/Documents/thesis/stm32f4/stm-idf/components/stm32f4xx_hal_driver/stm32f4xx_hal_dcmi.c ****       
1034:/home/phong/Documents/thesis/stm32f4/stm-idf/components/stm32f4xx_hal_driver/stm32f4xx_hal_dcmi.c ****     default : 
1035:/home/phong/Documents/thesis/stm32f4/stm-idf/components/stm32f4xx_hal_driver/stm32f4xx_hal_dcmi.c ****       /* update the error code */
1036:/home/phong/Documents/thesis/stm32f4/stm-idf/components/stm32f4xx_hal_driver/stm32f4xx_hal_dcmi.c ****       hdcmi->ErrorCode |= HAL_DCMI_ERROR_INVALID_CALLBACK;
1037:/home/phong/Documents/thesis/stm32f4/stm-idf/components/stm32f4xx_hal_driver/stm32f4xx_hal_dcmi.c ****       /* update return status */
1038:/home/phong/Documents/thesis/stm32f4/stm-idf/components/stm32f4xx_hal_driver/stm32f4xx_hal_dcmi.c ****       status = HAL_ERROR;
1039:/home/phong/Documents/thesis/stm32f4/stm-idf/components/stm32f4xx_hal_driver/stm32f4xx_hal_dcmi.c ****       break;
1040:/home/phong/Documents/thesis/stm32f4/stm-idf/components/stm32f4xx_hal_driver/stm32f4xx_hal_dcmi.c ****     }		
1041:/home/phong/Documents/thesis/stm32f4/stm-idf/components/stm32f4xx_hal_driver/stm32f4xx_hal_dcmi.c ****   }   
1042:/home/phong/Documents/thesis/stm32f4/stm-idf/components/stm32f4xx_hal_driver/stm32f4xx_hal_dcmi.c ****   else
1043:/home/phong/Documents/thesis/stm32f4/stm-idf/components/stm32f4xx_hal_driver/stm32f4xx_hal_dcmi.c ****   {
1044:/home/phong/Documents/thesis/stm32f4/stm-idf/components/stm32f4xx_hal_driver/stm32f4xx_hal_dcmi.c ****     /* update the error code */
1045:/home/phong/Documents/thesis/stm32f4/stm-idf/components/stm32f4xx_hal_driver/stm32f4xx_hal_dcmi.c ****     hdcmi->ErrorCode |= HAL_DCMI_ERROR_INVALID_CALLBACK;
1046:/home/phong/Documents/thesis/stm32f4/stm-idf/components/stm32f4xx_hal_driver/stm32f4xx_hal_dcmi.c ****     /* update return status */
1047:/home/phong/Documents/thesis/stm32f4/stm-idf/components/stm32f4xx_hal_driver/stm32f4xx_hal_dcmi.c ****     status = HAL_ERROR;
1048:/home/phong/Documents/thesis/stm32f4/stm-idf/components/stm32f4xx_hal_driver/stm32f4xx_hal_dcmi.c ****   }
1049:/home/phong/Documents/thesis/stm32f4/stm-idf/components/stm32f4xx_hal_driver/stm32f4xx_hal_dcmi.c ****   
1050:/home/phong/Documents/thesis/stm32f4/stm-idf/components/stm32f4xx_hal_driver/stm32f4xx_hal_dcmi.c ****   return status;
1051:/home/phong/Documents/thesis/stm32f4/stm-idf/components/stm32f4xx_hal_driver/stm32f4xx_hal_dcmi.c **** }
1052:/home/phong/Documents/thesis/stm32f4/stm-idf/components/stm32f4xx_hal_driver/stm32f4xx_hal_dcmi.c **** #endif /* USE_HAL_DCMI_REGISTER_CALLBACKS */
1053:/home/phong/Documents/thesis/stm32f4/stm-idf/components/stm32f4xx_hal_driver/stm32f4xx_hal_dcmi.c **** 
1054:/home/phong/Documents/thesis/stm32f4/stm-idf/components/stm32f4xx_hal_driver/stm32f4xx_hal_dcmi.c **** /**
1055:/home/phong/Documents/thesis/stm32f4/stm-idf/components/stm32f4xx_hal_driver/stm32f4xx_hal_dcmi.c ****   * @}
1056:/home/phong/Documents/thesis/stm32f4/stm-idf/components/stm32f4xx_hal_driver/stm32f4xx_hal_dcmi.c ****   */
1057:/home/phong/Documents/thesis/stm32f4/stm-idf/components/stm32f4xx_hal_driver/stm32f4xx_hal_dcmi.c **** /* Private functions ---------------------------------------------------------*/
1058:/home/phong/Documents/thesis/stm32f4/stm-idf/components/stm32f4xx_hal_driver/stm32f4xx_hal_dcmi.c **** /** @defgroup DCMI_Private_Functions DCMI Private Functions
ARM GAS  /tmp/cczl6hC8.s 			page 20


1059:/home/phong/Documents/thesis/stm32f4/stm-idf/components/stm32f4xx_hal_driver/stm32f4xx_hal_dcmi.c ****   * @{
1060:/home/phong/Documents/thesis/stm32f4/stm-idf/components/stm32f4xx_hal_driver/stm32f4xx_hal_dcmi.c ****   */
1061:/home/phong/Documents/thesis/stm32f4/stm-idf/components/stm32f4xx_hal_driver/stm32f4xx_hal_dcmi.c **** 
1062:/home/phong/Documents/thesis/stm32f4/stm-idf/components/stm32f4xx_hal_driver/stm32f4xx_hal_dcmi.c **** /**
1063:/home/phong/Documents/thesis/stm32f4/stm-idf/components/stm32f4xx_hal_driver/stm32f4xx_hal_dcmi.c ****   * @brief  DMA conversion complete callback.
1064:/home/phong/Documents/thesis/stm32f4/stm-idf/components/stm32f4xx_hal_driver/stm32f4xx_hal_dcmi.c ****   * @param  hdma pointer to a DMA_HandleTypeDef structure that contains
1065:/home/phong/Documents/thesis/stm32f4/stm-idf/components/stm32f4xx_hal_driver/stm32f4xx_hal_dcmi.c ****   *               the configuration information for the specified DMA module.
1066:/home/phong/Documents/thesis/stm32f4/stm-idf/components/stm32f4xx_hal_driver/stm32f4xx_hal_dcmi.c ****   * @retval None
1067:/home/phong/Documents/thesis/stm32f4/stm-idf/components/stm32f4xx_hal_driver/stm32f4xx_hal_dcmi.c ****   */
1068:/home/phong/Documents/thesis/stm32f4/stm-idf/components/stm32f4xx_hal_driver/stm32f4xx_hal_dcmi.c **** static void DCMI_DMAXferCplt(DMA_HandleTypeDef *hdma)
1069:/home/phong/Documents/thesis/stm32f4/stm-idf/components/stm32f4xx_hal_driver/stm32f4xx_hal_dcmi.c **** {
  27              		.loc 1 1069 0
  28              		.cfi_startproc
  29              		@ args = 0, pretend = 0, frame = 0
  30              		@ frame_needed = 0, uses_anonymous_args = 0
  31              	.LVL0:
  32 0000 10B5     		push	{r4, lr}
  33              	.LCFI0:
  34              		.cfi_def_cfa_offset 8
  35              		.cfi_offset 4, -8
  36              		.cfi_offset 14, -4
  37              	.LVL1:
1070:/home/phong/Documents/thesis/stm32f4/stm-idf/components/stm32f4xx_hal_driver/stm32f4xx_hal_dcmi.c ****   uint32_t tmp = 0U;
1071:/home/phong/Documents/thesis/stm32f4/stm-idf/components/stm32f4xx_hal_driver/stm32f4xx_hal_dcmi.c ****  
1072:/home/phong/Documents/thesis/stm32f4/stm-idf/components/stm32f4xx_hal_driver/stm32f4xx_hal_dcmi.c ****   DCMI_HandleTypeDef* hdcmi = ( DCMI_HandleTypeDef* )((DMA_HandleTypeDef* )hdma)->Parent;
  38              		.loc 1 1072 0
  39 0002 846B     		ldr	r4, [r0, #56]
  40              	.LVL2:
1073:/home/phong/Documents/thesis/stm32f4/stm-idf/components/stm32f4xx_hal_driver/stm32f4xx_hal_dcmi.c ****   
1074:/home/phong/Documents/thesis/stm32f4/stm-idf/components/stm32f4xx_hal_driver/stm32f4xx_hal_dcmi.c ****   if(hdcmi->XferCount != 0U)
  41              		.loc 1 1074 0
  42 0004 A36A     		ldr	r3, [r4, #40]
  43 0006 43B3     		cbz	r3, .L2
1075:/home/phong/Documents/thesis/stm32f4/stm-idf/components/stm32f4xx_hal_driver/stm32f4xx_hal_dcmi.c ****   {
1076:/home/phong/Documents/thesis/stm32f4/stm-idf/components/stm32f4xx_hal_driver/stm32f4xx_hal_dcmi.c ****     /* Update memory 0 address location */
1077:/home/phong/Documents/thesis/stm32f4/stm-idf/components/stm32f4xx_hal_driver/stm32f4xx_hal_dcmi.c ****     tmp = ((hdcmi->DMA_Handle->Instance->CR) & DMA_SxCR_CT);
  44              		.loc 1 1077 0
  45 0008 A06B     		ldr	r0, [r4, #56]
  46              	.LVL3:
  47 000a 0268     		ldr	r2, [r0]
  48 000c 1368     		ldr	r3, [r2]
  49 000e 03F40023 		and	r3, r3, #524288
  50              	.LVL4:
1078:/home/phong/Documents/thesis/stm32f4/stm-idf/components/stm32f4xx_hal_driver/stm32f4xx_hal_dcmi.c ****     if(((hdcmi->XferCount % 2U) == 0U) && (tmp != 0U))
  51              		.loc 1 1078 0
  52 0012 A16A     		ldr	r1, [r4, #40]
  53 0014 11F0010F 		tst	r1, #1
  54 0018 00D1     		bne	.L3
  55              		.loc 1 1078 0 is_stmt 0 discriminator 1
  56 001a 43B9     		cbnz	r3, .L8
  57              	.L3:
1079:/home/phong/Documents/thesis/stm32f4/stm-idf/components/stm32f4xx_hal_driver/stm32f4xx_hal_dcmi.c ****     {
1080:/home/phong/Documents/thesis/stm32f4/stm-idf/components/stm32f4xx_hal_driver/stm32f4xx_hal_dcmi.c ****       tmp = hdcmi->DMA_Handle->Instance->M0AR;
1081:/home/phong/Documents/thesis/stm32f4/stm-idf/components/stm32f4xx_hal_driver/stm32f4xx_hal_dcmi.c ****       HAL_DMAEx_ChangeMemory(hdcmi->DMA_Handle, (tmp + (8U*hdcmi->XferSize)), MEMORY0);
1082:/home/phong/Documents/thesis/stm32f4/stm-idf/components/stm32f4xx_hal_driver/stm32f4xx_hal_dcmi.c ****       hdcmi->XferCount--;
1083:/home/phong/Documents/thesis/stm32f4/stm-idf/components/stm32f4xx_hal_driver/stm32f4xx_hal_dcmi.c ****     }
1084:/home/phong/Documents/thesis/stm32f4/stm-idf/components/stm32f4xx_hal_driver/stm32f4xx_hal_dcmi.c ****     /* Update memory 1 address location */
ARM GAS  /tmp/cczl6hC8.s 			page 21


1085:/home/phong/Documents/thesis/stm32f4/stm-idf/components/stm32f4xx_hal_driver/stm32f4xx_hal_dcmi.c ****     else if((hdcmi->DMA_Handle->Instance->CR & DMA_SxCR_CT) == 0U)
  58              		.loc 1 1085 0 is_stmt 1
  59 001c 1368     		ldr	r3, [r2]
  60              	.LVL5:
  61 001e 13F4002F 		tst	r3, #524288
  62 0022 0FD0     		beq	.L9
  63              	.L4:
1086:/home/phong/Documents/thesis/stm32f4/stm-idf/components/stm32f4xx_hal_driver/stm32f4xx_hal_dcmi.c ****     {
1087:/home/phong/Documents/thesis/stm32f4/stm-idf/components/stm32f4xx_hal_driver/stm32f4xx_hal_dcmi.c ****       tmp = hdcmi->DMA_Handle->Instance->M1AR;
1088:/home/phong/Documents/thesis/stm32f4/stm-idf/components/stm32f4xx_hal_driver/stm32f4xx_hal_dcmi.c ****       HAL_DMAEx_ChangeMemory(hdcmi->DMA_Handle, (tmp + (8U*hdcmi->XferSize)), MEMORY1);
1089:/home/phong/Documents/thesis/stm32f4/stm-idf/components/stm32f4xx_hal_driver/stm32f4xx_hal_dcmi.c ****       hdcmi->XferCount--;
1090:/home/phong/Documents/thesis/stm32f4/stm-idf/components/stm32f4xx_hal_driver/stm32f4xx_hal_dcmi.c ****     }
1091:/home/phong/Documents/thesis/stm32f4/stm-idf/components/stm32f4xx_hal_driver/stm32f4xx_hal_dcmi.c ****   }
1092:/home/phong/Documents/thesis/stm32f4/stm-idf/components/stm32f4xx_hal_driver/stm32f4xx_hal_dcmi.c ****   /* Update memory 0 address location */
1093:/home/phong/Documents/thesis/stm32f4/stm-idf/components/stm32f4xx_hal_driver/stm32f4xx_hal_dcmi.c ****   else if((hdcmi->DMA_Handle->Instance->CR & DMA_SxCR_CT) != 0U)
1094:/home/phong/Documents/thesis/stm32f4/stm-idf/components/stm32f4xx_hal_driver/stm32f4xx_hal_dcmi.c ****   {
1095:/home/phong/Documents/thesis/stm32f4/stm-idf/components/stm32f4xx_hal_driver/stm32f4xx_hal_dcmi.c ****     hdcmi->DMA_Handle->Instance->M0AR = hdcmi->pBuffPtr;
1096:/home/phong/Documents/thesis/stm32f4/stm-idf/components/stm32f4xx_hal_driver/stm32f4xx_hal_dcmi.c ****   }
1097:/home/phong/Documents/thesis/stm32f4/stm-idf/components/stm32f4xx_hal_driver/stm32f4xx_hal_dcmi.c ****   /* Update memory 1 address location */
1098:/home/phong/Documents/thesis/stm32f4/stm-idf/components/stm32f4xx_hal_driver/stm32f4xx_hal_dcmi.c ****   else if((hdcmi->DMA_Handle->Instance->CR & DMA_SxCR_CT) == 0U)
1099:/home/phong/Documents/thesis/stm32f4/stm-idf/components/stm32f4xx_hal_driver/stm32f4xx_hal_dcmi.c ****   {
1100:/home/phong/Documents/thesis/stm32f4/stm-idf/components/stm32f4xx_hal_driver/stm32f4xx_hal_dcmi.c ****     tmp = hdcmi->pBuffPtr;
1101:/home/phong/Documents/thesis/stm32f4/stm-idf/components/stm32f4xx_hal_driver/stm32f4xx_hal_dcmi.c ****     hdcmi->DMA_Handle->Instance->M1AR = (tmp + (4U*hdcmi->XferSize));
1102:/home/phong/Documents/thesis/stm32f4/stm-idf/components/stm32f4xx_hal_driver/stm32f4xx_hal_dcmi.c ****     hdcmi->XferCount = hdcmi->XferTransferNumber;
1103:/home/phong/Documents/thesis/stm32f4/stm-idf/components/stm32f4xx_hal_driver/stm32f4xx_hal_dcmi.c ****   }
1104:/home/phong/Documents/thesis/stm32f4/stm-idf/components/stm32f4xx_hal_driver/stm32f4xx_hal_dcmi.c ****   
1105:/home/phong/Documents/thesis/stm32f4/stm-idf/components/stm32f4xx_hal_driver/stm32f4xx_hal_dcmi.c ****   /* Check if the frame is transferred */
1106:/home/phong/Documents/thesis/stm32f4/stm-idf/components/stm32f4xx_hal_driver/stm32f4xx_hal_dcmi.c ****   if(hdcmi->XferCount == hdcmi->XferTransferNumber)
  64              		.loc 1 1106 0
  65 0024 A26A     		ldr	r2, [r4, #40]
  66 0026 236B     		ldr	r3, [r4, #48]
  67 0028 9A42     		cmp	r2, r3
  68 002a 2BD0     		beq	.L10
  69              	.L1:
  70 002c 10BD     		pop	{r4, pc}
  71              	.LVL6:
  72              	.L8:
1080:/home/phong/Documents/thesis/stm32f4/stm-idf/components/stm32f4xx_hal_driver/stm32f4xx_hal_dcmi.c ****       HAL_DMAEx_ChangeMemory(hdcmi->DMA_Handle, (tmp + (8U*hdcmi->XferSize)), MEMORY0);
  73              		.loc 1 1080 0
  74 002e D368     		ldr	r3, [r2, #12]
  75              	.LVL7:
1081:/home/phong/Documents/thesis/stm32f4/stm-idf/components/stm32f4xx_hal_driver/stm32f4xx_hal_dcmi.c ****       hdcmi->XferCount--;
  76              		.loc 1 1081 0
  77 0030 E16A     		ldr	r1, [r4, #44]
  78 0032 0022     		movs	r2, #0
  79 0034 03EBC101 		add	r1, r3, r1, lsl #3
  80 0038 FFF7FEFF 		bl	HAL_DMAEx_ChangeMemory
  81              	.LVL8:
1082:/home/phong/Documents/thesis/stm32f4/stm-idf/components/stm32f4xx_hal_driver/stm32f4xx_hal_dcmi.c ****     }
  82              		.loc 1 1082 0
  83 003c A36A     		ldr	r3, [r4, #40]
  84 003e 013B     		subs	r3, r3, #1
  85 0040 A362     		str	r3, [r4, #40]
  86 0042 EFE7     		b	.L4
  87              	.L9:
1087:/home/phong/Documents/thesis/stm32f4/stm-idf/components/stm32f4xx_hal_driver/stm32f4xx_hal_dcmi.c ****       HAL_DMAEx_ChangeMemory(hdcmi->DMA_Handle, (tmp + (8U*hdcmi->XferSize)), MEMORY1);
  88              		.loc 1 1087 0
ARM GAS  /tmp/cczl6hC8.s 			page 22


  89 0044 1369     		ldr	r3, [r2, #16]
  90              	.LVL9:
1088:/home/phong/Documents/thesis/stm32f4/stm-idf/components/stm32f4xx_hal_driver/stm32f4xx_hal_dcmi.c ****       hdcmi->XferCount--;
  91              		.loc 1 1088 0
  92 0046 E16A     		ldr	r1, [r4, #44]
  93 0048 0122     		movs	r2, #1
  94 004a 03EBC101 		add	r1, r3, r1, lsl #3
  95 004e FFF7FEFF 		bl	HAL_DMAEx_ChangeMemory
  96              	.LVL10:
1089:/home/phong/Documents/thesis/stm32f4/stm-idf/components/stm32f4xx_hal_driver/stm32f4xx_hal_dcmi.c ****     }
  97              		.loc 1 1089 0
  98 0052 A36A     		ldr	r3, [r4, #40]
  99 0054 013B     		subs	r3, r3, #1
 100 0056 A362     		str	r3, [r4, #40]
 101 0058 E4E7     		b	.L4
 102              	.LVL11:
 103              	.L2:
1093:/home/phong/Documents/thesis/stm32f4/stm-idf/components/stm32f4xx_hal_driver/stm32f4xx_hal_dcmi.c ****   {
 104              		.loc 1 1093 0
 105 005a A36B     		ldr	r3, [r4, #56]
 106 005c 1B68     		ldr	r3, [r3]
 107 005e 1A68     		ldr	r2, [r3]
 108 0060 12F4002F 		tst	r2, #524288
 109 0064 02D0     		beq	.L5
1095:/home/phong/Documents/thesis/stm32f4/stm-idf/components/stm32f4xx_hal_driver/stm32f4xx_hal_dcmi.c ****   }
 110              		.loc 1 1095 0
 111 0066 626B     		ldr	r2, [r4, #52]
 112 0068 DA60     		str	r2, [r3, #12]
 113 006a DBE7     		b	.L4
 114              	.L5:
1098:/home/phong/Documents/thesis/stm32f4/stm-idf/components/stm32f4xx_hal_driver/stm32f4xx_hal_dcmi.c ****   {
 115              		.loc 1 1098 0
 116 006c 1A68     		ldr	r2, [r3]
 117 006e 12F4002F 		tst	r2, #524288
 118 0072 D7D1     		bne	.L4
1100:/home/phong/Documents/thesis/stm32f4/stm-idf/components/stm32f4xx_hal_driver/stm32f4xx_hal_dcmi.c ****     hdcmi->DMA_Handle->Instance->M1AR = (tmp + (4U*hdcmi->XferSize));
 119              		.loc 1 1100 0
 120 0074 626B     		ldr	r2, [r4, #52]
 121              	.LVL12:
1101:/home/phong/Documents/thesis/stm32f4/stm-idf/components/stm32f4xx_hal_driver/stm32f4xx_hal_dcmi.c ****     hdcmi->XferCount = hdcmi->XferTransferNumber;
 122              		.loc 1 1101 0
 123 0076 E16A     		ldr	r1, [r4, #44]
 124 0078 02EB8102 		add	r2, r2, r1, lsl #2
 125              	.LVL13:
 126 007c 1A61     		str	r2, [r3, #16]
 127              	.LVL14:
1102:/home/phong/Documents/thesis/stm32f4/stm-idf/components/stm32f4xx_hal_driver/stm32f4xx_hal_dcmi.c ****   }
 128              		.loc 1 1102 0
 129 007e 236B     		ldr	r3, [r4, #48]
 130 0080 A362     		str	r3, [r4, #40]
 131 0082 CFE7     		b	.L4
 132              	.LVL15:
 133              	.L10:
1107:/home/phong/Documents/thesis/stm32f4/stm-idf/components/stm32f4xx_hal_driver/stm32f4xx_hal_dcmi.c ****   {
1108:/home/phong/Documents/thesis/stm32f4/stm-idf/components/stm32f4xx_hal_driver/stm32f4xx_hal_dcmi.c ****     /* Enable the Frame interrupt */
1109:/home/phong/Documents/thesis/stm32f4/stm-idf/components/stm32f4xx_hal_driver/stm32f4xx_hal_dcmi.c ****     __HAL_DCMI_ENABLE_IT(hdcmi, DCMI_IT_FRAME);
 134              		.loc 1 1109 0
ARM GAS  /tmp/cczl6hC8.s 			page 23


 135 0084 2268     		ldr	r2, [r4]
 136 0086 D368     		ldr	r3, [r2, #12]
 137 0088 43F00103 		orr	r3, r3, #1
 138 008c D360     		str	r3, [r2, #12]
1110:/home/phong/Documents/thesis/stm32f4/stm-idf/components/stm32f4xx_hal_driver/stm32f4xx_hal_dcmi.c ****     
1111:/home/phong/Documents/thesis/stm32f4/stm-idf/components/stm32f4xx_hal_driver/stm32f4xx_hal_dcmi.c ****     /* When snapshot mode, set dcmi state to ready */
1112:/home/phong/Documents/thesis/stm32f4/stm-idf/components/stm32f4xx_hal_driver/stm32f4xx_hal_dcmi.c ****     if((hdcmi->Instance->CR & DCMI_CR_CM) == DCMI_MODE_SNAPSHOT)
 139              		.loc 1 1112 0
 140 008e 2368     		ldr	r3, [r4]
 141 0090 1B68     		ldr	r3, [r3]
 142 0092 13F0020F 		tst	r3, #2
 143 0096 C9D0     		beq	.L1
1113:/home/phong/Documents/thesis/stm32f4/stm-idf/components/stm32f4xx_hal_driver/stm32f4xx_hal_dcmi.c ****     {  
1114:/home/phong/Documents/thesis/stm32f4/stm-idf/components/stm32f4xx_hal_driver/stm32f4xx_hal_dcmi.c ****       hdcmi->State= HAL_DCMI_STATE_READY;
 144              		.loc 1 1114 0
 145 0098 0123     		movs	r3, #1
 146 009a 84F82530 		strb	r3, [r4, #37]
1115:/home/phong/Documents/thesis/stm32f4/stm-idf/components/stm32f4xx_hal_driver/stm32f4xx_hal_dcmi.c ****     }
1116:/home/phong/Documents/thesis/stm32f4/stm-idf/components/stm32f4xx_hal_driver/stm32f4xx_hal_dcmi.c ****   }
1117:/home/phong/Documents/thesis/stm32f4/stm-idf/components/stm32f4xx_hal_driver/stm32f4xx_hal_dcmi.c **** }
 147              		.loc 1 1117 0
 148 009e C5E7     		b	.L1
 149              		.cfi_endproc
 150              	.LFE149:
 152              		.section	.text.HAL_DCMI_MspInit,"ax",%progbits
 153              		.align	1
 154              		.weak	HAL_DCMI_MspInit
 155              		.syntax unified
 156              		.thumb
 157              		.thumb_func
 158              		.fpu fpv4-sp-d16
 160              	HAL_DCMI_MspInit:
 161              	.LFB132:
 296:/home/phong/Documents/thesis/stm32f4/stm-idf/components/stm32f4xx_hal_driver/stm32f4xx_hal_dcmi.c ****   /* Prevent unused argument(s) compilation warning */
 162              		.loc 1 296 0
 163              		.cfi_startproc
 164              		@ args = 0, pretend = 0, frame = 0
 165              		@ frame_needed = 0, uses_anonymous_args = 0
 166              		@ link register save eliminated.
 167              	.LVL16:
 168 0000 7047     		bx	lr
 169              		.cfi_endproc
 170              	.LFE132:
 172              		.section	.text.HAL_DCMI_Init,"ax",%progbits
 173              		.align	1
 174              		.weak	HAL_DCMI_Init
 175              		.syntax unified
 176              		.thumb
 177              		.thumb_func
 178              		.fpu fpv4-sp-d16
 180              	HAL_DCMI_Init:
 181              	.LFB130:
 179:/home/phong/Documents/thesis/stm32f4/stm-idf/components/stm32f4xx_hal_driver/stm32f4xx_hal_dcmi.c ****   /* Check the DCMI peripheral state */
 182              		.loc 1 179 0
 183              		.cfi_startproc
 184              		@ args = 0, pretend = 0, frame = 0
 185              		@ frame_needed = 0, uses_anonymous_args = 0
ARM GAS  /tmp/cczl6hC8.s 			page 24


 186              	.LVL17:
 181:/home/phong/Documents/thesis/stm32f4/stm-idf/components/stm32f4xx_hal_driver/stm32f4xx_hal_dcmi.c ****   {
 187              		.loc 1 181 0
 188 0000 0028     		cmp	r0, #0
 189 0002 42D0     		beq	.L16
 179:/home/phong/Documents/thesis/stm32f4/stm-idf/components/stm32f4xx_hal_driver/stm32f4xx_hal_dcmi.c ****   /* Check the DCMI peripheral state */
 190              		.loc 1 179 0
 191 0004 10B5     		push	{r4, lr}
 192              	.LCFI1:
 193              		.cfi_def_cfa_offset 8
 194              		.cfi_offset 4, -8
 195              		.cfi_offset 14, -4
 196 0006 0446     		mov	r4, r0
 196:/home/phong/Documents/thesis/stm32f4/stm-idf/components/stm32f4xx_hal_driver/stm32f4xx_hal_dcmi.c ****   {
 197              		.loc 1 196 0
 198 0008 90F82530 		ldrb	r3, [r0, #37]	@ zero_extendqisi2
 199 000c 43B3     		cbz	r3, .L21
 200              	.LVL18:
 201              	.L14:
 223:/home/phong/Documents/thesis/stm32f4/stm-idf/components/stm32f4xx_hal_driver/stm32f4xx_hal_dcmi.c **** 
 202              		.loc 1 223 0
 203 000e 0223     		movs	r3, #2
 204 0010 84F82530 		strb	r3, [r4, #37]
 227:/home/phong/Documents/thesis/stm32f4/stm-idf/components/stm32f4xx_hal_driver/stm32f4xx_hal_dcmi.c ****                            DCMI_CR_EDM_1  | DCMI_CR_FCRC_0 | DCMI_CR_FCRC_1 | DCMI_CR_JPEG  |
 205              		.loc 1 227 0
 206 0014 2268     		ldr	r2, [r4]
 207 0016 1368     		ldr	r3, [r2]
 208 0018 23F47F63 		bic	r3, r3, #4080
 209 001c 23F00803 		bic	r3, r3, #8
 210 0020 1360     		str	r3, [r2]
 230:/home/phong/Documents/thesis/stm32f4/stm-idf/components/stm32f4xx_hal_driver/stm32f4xx_hal_dcmi.c ****                                      hdcmi->Init.VSPolarity  | hdcmi->Init.HSPolarity  | \
 211              		.loc 1 230 0
 212 0022 2168     		ldr	r1, [r4]
 213 0024 0A68     		ldr	r2, [r1]
 214 0026 6368     		ldr	r3, [r4, #4]
 215 0028 6069     		ldr	r0, [r4, #20]
 216 002a 0343     		orrs	r3, r3, r0
 231:/home/phong/Documents/thesis/stm32f4/stm-idf/components/stm32f4xx_hal_driver/stm32f4xx_hal_dcmi.c ****                                      hdcmi->Init.PCKPolarity | hdcmi->Init.ExtendedDataMode | \
 217              		.loc 1 231 0
 218 002c E068     		ldr	r0, [r4, #12]
 230:/home/phong/Documents/thesis/stm32f4/stm-idf/components/stm32f4xx_hal_driver/stm32f4xx_hal_dcmi.c ****                                      hdcmi->Init.VSPolarity  | hdcmi->Init.HSPolarity  | \
 219              		.loc 1 230 0
 220 002e 0343     		orrs	r3, r3, r0
 231:/home/phong/Documents/thesis/stm32f4/stm-idf/components/stm32f4xx_hal_driver/stm32f4xx_hal_dcmi.c ****                                      hdcmi->Init.PCKPolarity | hdcmi->Init.ExtendedDataMode | \
 221              		.loc 1 231 0
 222 0030 2069     		ldr	r0, [r4, #16]
 223 0032 0343     		orrs	r3, r3, r0
 232:/home/phong/Documents/thesis/stm32f4/stm-idf/components/stm32f4xx_hal_driver/stm32f4xx_hal_dcmi.c ****                                      hdcmi->Init.JPEGMode);
 224              		.loc 1 232 0
 225 0034 A068     		ldr	r0, [r4, #8]
 231:/home/phong/Documents/thesis/stm32f4/stm-idf/components/stm32f4xx_hal_driver/stm32f4xx_hal_dcmi.c ****                                      hdcmi->Init.PCKPolarity | hdcmi->Init.ExtendedDataMode | \
 226              		.loc 1 231 0
 227 0036 0343     		orrs	r3, r3, r0
 232:/home/phong/Documents/thesis/stm32f4/stm-idf/components/stm32f4xx_hal_driver/stm32f4xx_hal_dcmi.c ****                                      hdcmi->Init.JPEGMode);
 228              		.loc 1 232 0
 229 0038 A069     		ldr	r0, [r4, #24]
 230 003a 0343     		orrs	r3, r3, r0
ARM GAS  /tmp/cczl6hC8.s 			page 25


 233:/home/phong/Documents/thesis/stm32f4/stm-idf/components/stm32f4xx_hal_driver/stm32f4xx_hal_dcmi.c **** 
 231              		.loc 1 233 0
 232 003c 206A     		ldr	r0, [r4, #32]
 232:/home/phong/Documents/thesis/stm32f4/stm-idf/components/stm32f4xx_hal_driver/stm32f4xx_hal_dcmi.c ****                                      hdcmi->Init.JPEGMode);
 233              		.loc 1 232 0
 234 003e 0343     		orrs	r3, r3, r0
 230:/home/phong/Documents/thesis/stm32f4/stm-idf/components/stm32f4xx_hal_driver/stm32f4xx_hal_dcmi.c ****                                      hdcmi->Init.VSPolarity  | hdcmi->Init.HSPolarity  | \
 235              		.loc 1 230 0
 236 0040 1343     		orrs	r3, r3, r2
 237 0042 0B60     		str	r3, [r1]
 235:/home/phong/Documents/thesis/stm32f4/stm-idf/components/stm32f4xx_hal_driver/stm32f4xx_hal_dcmi.c ****   {
 238              		.loc 1 235 0
 239 0044 6368     		ldr	r3, [r4, #4]
 240 0046 102B     		cmp	r3, #16
 241 0048 12D0     		beq	.L22
 242              	.L15:
 244:/home/phong/Documents/thesis/stm32f4/stm-idf/components/stm32f4xx_hal_driver/stm32f4xx_hal_dcmi.c **** 
 243              		.loc 1 244 0
 244 004a 2268     		ldr	r2, [r4]
 245 004c D368     		ldr	r3, [r2, #12]
 246 004e 43F01E03 		orr	r3, r3, #30
 247 0052 D360     		str	r3, [r2, #12]
 247:/home/phong/Documents/thesis/stm32f4/stm-idf/components/stm32f4xx_hal_driver/stm32f4xx_hal_dcmi.c **** 
 248              		.loc 1 247 0
 249 0054 0020     		movs	r0, #0
 250 0056 E063     		str	r0, [r4, #60]
 250:/home/phong/Documents/thesis/stm32f4/stm-idf/components/stm32f4xx_hal_driver/stm32f4xx_hal_dcmi.c **** 
 251              		.loc 1 250 0
 252 0058 0123     		movs	r3, #1
 253 005a 84F82530 		strb	r3, [r4, #37]
 252:/home/phong/Documents/thesis/stm32f4/stm-idf/components/stm32f4xx_hal_driver/stm32f4xx_hal_dcmi.c **** }
 254              		.loc 1 252 0
 255 005e 10BD     		pop	{r4, pc}
 256              	.LVL19:
 257              	.L21:
 199:/home/phong/Documents/thesis/stm32f4/stm-idf/components/stm32f4xx_hal_driver/stm32f4xx_hal_dcmi.c ****     /* Init the low level hardware */
 258              		.loc 1 199 0
 259 0060 80F82430 		strb	r3, [r0, #36]
 217:/home/phong/Documents/thesis/stm32f4/stm-idf/components/stm32f4xx_hal_driver/stm32f4xx_hal_dcmi.c **** #endif /* (USE_HAL_DCMI_REGISTER_CALLBACKS) */
 260              		.loc 1 217 0
 261 0064 FFF7FEFF 		bl	HAL_DCMI_MspInit
 262              	.LVL20:
 219:/home/phong/Documents/thesis/stm32f4/stm-idf/components/stm32f4xx_hal_driver/stm32f4xx_hal_dcmi.c ****   }
 263              		.loc 1 219 0
 264 0068 2046     		mov	r0, r4
 265 006a FFF7FEFF 		bl	HAL_DCMI_MspInit
 266              	.LVL21:
 267 006e CEE7     		b	.L14
 268              	.L22:
 237:/home/phong/Documents/thesis/stm32f4/stm-idf/components/stm32f4xx_hal_driver/stm32f4xx_hal_dcmi.c ****                              ((uint32_t)hdcmi->Init.SyncroCode.LineStartCode << DCMI_POSITION_ESCR_
 269              		.loc 1 237 0
 270 0070 2268     		ldr	r2, [r4]
 271 0072 237F     		ldrb	r3, [r4, #28]	@ zero_extendqisi2
 238:/home/phong/Documents/thesis/stm32f4/stm-idf/components/stm32f4xx_hal_driver/stm32f4xx_hal_dcmi.c ****                              ((uint32_t)hdcmi->Init.SyncroCode.LineEndCode << DCMI_POSITION_ESCR_LE
 272              		.loc 1 238 0
 273 0074 617F     		ldrb	r1, [r4, #29]	@ zero_extendqisi2
 237:/home/phong/Documents/thesis/stm32f4/stm-idf/components/stm32f4xx_hal_driver/stm32f4xx_hal_dcmi.c ****                              ((uint32_t)hdcmi->Init.SyncroCode.LineStartCode << DCMI_POSITION_ESCR_
ARM GAS  /tmp/cczl6hC8.s 			page 26


 274              		.loc 1 237 0
 275 0076 43EA0123 		orr	r3, r3, r1, lsl #8
 239:/home/phong/Documents/thesis/stm32f4/stm-idf/components/stm32f4xx_hal_driver/stm32f4xx_hal_dcmi.c ****                              ((uint32_t)hdcmi->Init.SyncroCode.FrameEndCode << DCMI_POSITION_ESCR_F
 276              		.loc 1 239 0
 277 007a A17F     		ldrb	r1, [r4, #30]	@ zero_extendqisi2
 238:/home/phong/Documents/thesis/stm32f4/stm-idf/components/stm32f4xx_hal_driver/stm32f4xx_hal_dcmi.c ****                              ((uint32_t)hdcmi->Init.SyncroCode.LineEndCode << DCMI_POSITION_ESCR_LE
 278              		.loc 1 238 0
 279 007c 43EA0143 		orr	r3, r3, r1, lsl #16
 240:/home/phong/Documents/thesis/stm32f4/stm-idf/components/stm32f4xx_hal_driver/stm32f4xx_hal_dcmi.c ****   }
 280              		.loc 1 240 0
 281 0080 E17F     		ldrb	r1, [r4, #31]	@ zero_extendqisi2
 239:/home/phong/Documents/thesis/stm32f4/stm-idf/components/stm32f4xx_hal_driver/stm32f4xx_hal_dcmi.c ****                              ((uint32_t)hdcmi->Init.SyncroCode.FrameEndCode << DCMI_POSITION_ESCR_F
 282              		.loc 1 239 0
 283 0082 43EA0163 		orr	r3, r3, r1, lsl #24
 237:/home/phong/Documents/thesis/stm32f4/stm-idf/components/stm32f4xx_hal_driver/stm32f4xx_hal_dcmi.c ****                              ((uint32_t)hdcmi->Init.SyncroCode.LineStartCode << DCMI_POSITION_ESCR_
 284              		.loc 1 237 0
 285 0086 9361     		str	r3, [r2, #24]
 286 0088 DFE7     		b	.L15
 287              	.LVL22:
 288              	.L16:
 289              	.LCFI2:
 290              		.cfi_def_cfa_offset 0
 291              		.cfi_restore 4
 292              		.cfi_restore 14
 183:/home/phong/Documents/thesis/stm32f4/stm-idf/components/stm32f4xx_hal_driver/stm32f4xx_hal_dcmi.c ****   }
 293              		.loc 1 183 0
 294 008a 0120     		movs	r0, #1
 295              	.LVL23:
 296 008c 7047     		bx	lr
 297              		.cfi_endproc
 298              	.LFE130:
 300              		.section	.text.HAL_DCMI_MspDeInit,"ax",%progbits
 301              		.align	1
 302              		.weak	HAL_DCMI_MspDeInit
 303              		.syntax unified
 304              		.thumb
 305              		.thumb_func
 306              		.fpu fpv4-sp-d16
 308              	HAL_DCMI_MspDeInit:
 309              	.LFB133:
 311:/home/phong/Documents/thesis/stm32f4/stm-idf/components/stm32f4xx_hal_driver/stm32f4xx_hal_dcmi.c ****   /* Prevent unused argument(s) compilation warning */
 310              		.loc 1 311 0
 311              		.cfi_startproc
 312              		@ args = 0, pretend = 0, frame = 0
 313              		@ frame_needed = 0, uses_anonymous_args = 0
 314              		@ link register save eliminated.
 315              	.LVL24:
 316 0000 7047     		bx	lr
 317              		.cfi_endproc
 318              	.LFE133:
 320              		.section	.text.HAL_DCMI_DeInit,"ax",%progbits
 321              		.align	1
 322              		.global	HAL_DCMI_DeInit
 323              		.syntax unified
 324              		.thumb
 325              		.thumb_func
 326              		.fpu fpv4-sp-d16
ARM GAS  /tmp/cczl6hC8.s 			page 27


 328              	HAL_DCMI_DeInit:
 329              	.LFB131:
 264:/home/phong/Documents/thesis/stm32f4/stm-idf/components/stm32f4xx_hal_driver/stm32f4xx_hal_dcmi.c **** #if (USE_HAL_DCMI_REGISTER_CALLBACKS == 1)  
 330              		.loc 1 264 0
 331              		.cfi_startproc
 332              		@ args = 0, pretend = 0, frame = 0
 333              		@ frame_needed = 0, uses_anonymous_args = 0
 334              	.LVL25:
 264:/home/phong/Documents/thesis/stm32f4/stm-idf/components/stm32f4xx_hal_driver/stm32f4xx_hal_dcmi.c **** #if (USE_HAL_DCMI_REGISTER_CALLBACKS == 1)  
 335              		.loc 1 264 0
 336 0000 10B5     		push	{r4, lr}
 337              	.LCFI3:
 338              		.cfi_def_cfa_offset 8
 339              		.cfi_offset 4, -8
 340              		.cfi_offset 14, -4
 341 0002 0446     		mov	r4, r0
 274:/home/phong/Documents/thesis/stm32f4/stm-idf/components/stm32f4xx_hal_driver/stm32f4xx_hal_dcmi.c **** #endif /* (USE_HAL_DCMI_REGISTER_CALLBACKS) */
 342              		.loc 1 274 0
 343 0004 FFF7FEFF 		bl	HAL_DCMI_MspDeInit
 344              	.LVL26:
 278:/home/phong/Documents/thesis/stm32f4/stm-idf/components/stm32f4xx_hal_driver/stm32f4xx_hal_dcmi.c **** 
 345              		.loc 1 278 0
 346 0008 0020     		movs	r0, #0
 347 000a E063     		str	r0, [r4, #60]
 281:/home/phong/Documents/thesis/stm32f4/stm-idf/components/stm32f4xx_hal_driver/stm32f4xx_hal_dcmi.c **** 
 348              		.loc 1 281 0
 349 000c 84F82500 		strb	r0, [r4, #37]
 284:/home/phong/Documents/thesis/stm32f4/stm-idf/components/stm32f4xx_hal_driver/stm32f4xx_hal_dcmi.c **** 
 350              		.loc 1 284 0
 351 0010 84F82400 		strb	r0, [r4, #36]
 287:/home/phong/Documents/thesis/stm32f4/stm-idf/components/stm32f4xx_hal_driver/stm32f4xx_hal_dcmi.c **** 
 352              		.loc 1 287 0
 353 0014 10BD     		pop	{r4, pc}
 354              		.cfi_endproc
 355              	.LFE131:
 357              		.section	.text.HAL_DCMI_Start_DMA,"ax",%progbits
 358              		.align	1
 359              		.global	HAL_DCMI_Start_DMA
 360              		.syntax unified
 361              		.thumb
 362              		.thumb_func
 363              		.fpu fpv4-sp-d16
 365              	HAL_DCMI_Start_DMA:
 366              	.LFB134:
 349:/home/phong/Documents/thesis/stm32f4/stm-idf/components/stm32f4xx_hal_driver/stm32f4xx_hal_dcmi.c ****   /* Initialize the second memory address */
 367              		.loc 1 349 0
 368              		.cfi_startproc
 369              		@ args = 0, pretend = 0, frame = 0
 370              		@ frame_needed = 0, uses_anonymous_args = 0
 371              	.LVL27:
 372 0000 30B5     		push	{r4, r5, lr}
 373              	.LCFI4:
 374              		.cfi_def_cfa_offset 12
 375              		.cfi_offset 4, -12
 376              		.cfi_offset 5, -8
 377              		.cfi_offset 14, -4
 378 0002 83B0     		sub	sp, sp, #12
ARM GAS  /tmp/cczl6hC8.s 			page 28


 379              	.LCFI5:
 380              		.cfi_def_cfa_offset 24
 381              	.LVL28:
 357:/home/phong/Documents/thesis/stm32f4/stm-idf/components/stm32f4xx_hal_driver/stm32f4xx_hal_dcmi.c **** 
 382              		.loc 1 357 0
 383 0004 90F82440 		ldrb	r4, [r0, #36]	@ zero_extendqisi2
 384 0008 012C     		cmp	r4, #1
 385 000a 53D0     		beq	.L32
 386 000c 0446     		mov	r4, r0
 357:/home/phong/Documents/thesis/stm32f4/stm-idf/components/stm32f4xx_hal_driver/stm32f4xx_hal_dcmi.c **** 
 387              		.loc 1 357 0 is_stmt 0 discriminator 2
 388 000e 0120     		movs	r0, #1
 389              	.LVL29:
 390 0010 84F82400 		strb	r0, [r4, #36]
 360:/home/phong/Documents/thesis/stm32f4/stm-idf/components/stm32f4xx_hal_driver/stm32f4xx_hal_dcmi.c ****   
 391              		.loc 1 360 0 is_stmt 1 discriminator 2
 392 0014 0220     		movs	r0, #2
 393 0016 84F82500 		strb	r0, [r4, #37]
 363:/home/phong/Documents/thesis/stm32f4/stm-idf/components/stm32f4xx_hal_driver/stm32f4xx_hal_dcmi.c **** 
 394              		.loc 1 363 0 discriminator 2
 395 001a 2568     		ldr	r5, [r4]
 396 001c 2868     		ldr	r0, [r5]
 397 001e 40F48040 		orr	r0, r0, #16384
 398 0022 2860     		str	r0, [r5]
 366:/home/phong/Documents/thesis/stm32f4/stm-idf/components/stm32f4xx_hal_driver/stm32f4xx_hal_dcmi.c ****   hdcmi->Instance->CR |=  (uint32_t)(DCMI_Mode);
 399              		.loc 1 366 0 discriminator 2
 400 0024 2568     		ldr	r5, [r4]
 401 0026 2868     		ldr	r0, [r5]
 402 0028 20F00200 		bic	r0, r0, #2
 403 002c 2860     		str	r0, [r5]
 367:/home/phong/Documents/thesis/stm32f4/stm-idf/components/stm32f4xx_hal_driver/stm32f4xx_hal_dcmi.c **** 
 404              		.loc 1 367 0 discriminator 2
 405 002e 2568     		ldr	r5, [r4]
 406 0030 2868     		ldr	r0, [r5]
 407 0032 0143     		orrs	r1, r1, r0
 408              	.LVL30:
 409 0034 2960     		str	r1, [r5]
 370:/home/phong/Documents/thesis/stm32f4/stm-idf/components/stm32f4xx_hal_driver/stm32f4xx_hal_dcmi.c **** 
 410              		.loc 1 370 0 discriminator 2
 411 0036 A16B     		ldr	r1, [r4, #56]
 412 0038 1F48     		ldr	r0, .L35
 413 003a C863     		str	r0, [r1, #60]
 373:/home/phong/Documents/thesis/stm32f4/stm-idf/components/stm32f4xx_hal_driver/stm32f4xx_hal_dcmi.c **** 
 414              		.loc 1 373 0 discriminator 2
 415 003c A16B     		ldr	r1, [r4, #56]
 416 003e 1F48     		ldr	r0, .L35+4
 417 0040 C864     		str	r0, [r1, #76]
 376:/home/phong/Documents/thesis/stm32f4/stm-idf/components/stm32f4xx_hal_driver/stm32f4xx_hal_dcmi.c ****   
 418              		.loc 1 376 0 discriminator 2
 419 0042 A06B     		ldr	r0, [r4, #56]
 420 0044 0021     		movs	r1, #0
 421 0046 0165     		str	r1, [r0, #80]
 379:/home/phong/Documents/thesis/stm32f4/stm-idf/components/stm32f4xx_hal_driver/stm32f4xx_hal_dcmi.c ****   hdcmi->XferTransferNumber = 0U;
 422              		.loc 1 379 0 discriminator 2
 423 0048 A162     		str	r1, [r4, #40]
 380:/home/phong/Documents/thesis/stm32f4/stm-idf/components/stm32f4xx_hal_driver/stm32f4xx_hal_dcmi.c **** 
 424              		.loc 1 380 0 discriminator 2
ARM GAS  /tmp/cczl6hC8.s 			page 29


 425 004a 2163     		str	r1, [r4, #48]
 382:/home/phong/Documents/thesis/stm32f4/stm-idf/components/stm32f4xx_hal_driver/stm32f4xx_hal_dcmi.c ****   {
 426              		.loc 1 382 0 discriminator 2
 427 004c B3F5803F 		cmp	r3, #65536
 428 0050 07D3     		bcc	.L34
 390:/home/phong/Documents/thesis/stm32f4/stm-idf/components/stm32f4xx_hal_driver/stm32f4xx_hal_dcmi.c **** 
 429              		.loc 1 390 0
 430 0052 A16B     		ldr	r1, [r4, #56]
 431 0054 1848     		ldr	r0, .L35
 432 0056 4864     		str	r0, [r1, #68]
 393:/home/phong/Documents/thesis/stm32f4/stm-idf/components/stm32f4xx_hal_driver/stm32f4xx_hal_dcmi.c ****     hdcmi->XferSize = Length;
 433              		.loc 1 393 0
 434 0058 0121     		movs	r1, #1
 435 005a A162     		str	r1, [r4, #40]
 394:/home/phong/Documents/thesis/stm32f4/stm-idf/components/stm32f4xx_hal_driver/stm32f4xx_hal_dcmi.c ****     hdcmi->pBuffPtr = pData;
 436              		.loc 1 394 0
 437 005c E362     		str	r3, [r4, #44]
 395:/home/phong/Documents/thesis/stm32f4/stm-idf/components/stm32f4xx_hal_driver/stm32f4xx_hal_dcmi.c **** 
 438              		.loc 1 395 0
 439 005e 6263     		str	r2, [r4, #52]
 398:/home/phong/Documents/thesis/stm32f4/stm-idf/components/stm32f4xx_hal_driver/stm32f4xx_hal_dcmi.c ****     {
 440              		.loc 1 398 0
 441 0060 0BE0     		b	.L30
 442              	.L34:
 385:/home/phong/Documents/thesis/stm32f4/stm-idf/components/stm32f4xx_hal_driver/stm32f4xx_hal_dcmi.c ****   }
 443              		.loc 1 385 0
 444 0062 2168     		ldr	r1, [r4]
 445 0064 2831     		adds	r1, r1, #40
 446 0066 A06B     		ldr	r0, [r4, #56]
 447 0068 FFF7FEFF 		bl	HAL_DMA_Start_IT
 448              	.LVL31:
 449 006c 18E0     		b	.L29
 450              	.LVL32:
 451              	.L31:
 400:/home/phong/Documents/thesis/stm32f4/stm-idf/components/stm32f4xx_hal_driver/stm32f4xx_hal_dcmi.c ****       hdcmi->XferCount = hdcmi->XferCount*2U;
 452              		.loc 1 400 0
 453 006e E36A     		ldr	r3, [r4, #44]
 454 0070 5B08     		lsrs	r3, r3, #1
 455 0072 E362     		str	r3, [r4, #44]
 401:/home/phong/Documents/thesis/stm32f4/stm-idf/components/stm32f4xx_hal_driver/stm32f4xx_hal_dcmi.c ****     }
 456              		.loc 1 401 0
 457 0074 A36A     		ldr	r3, [r4, #40]
 458 0076 5B00     		lsls	r3, r3, #1
 459 0078 A362     		str	r3, [r4, #40]
 460              	.L30:
 398:/home/phong/Documents/thesis/stm32f4/stm-idf/components/stm32f4xx_hal_driver/stm32f4xx_hal_dcmi.c ****     {
 461              		.loc 1 398 0
 462 007a E36A     		ldr	r3, [r4, #44]
 463 007c B3F5803F 		cmp	r3, #65536
 464 0080 F5D2     		bcs	.L31
 405:/home/phong/Documents/thesis/stm32f4/stm-idf/components/stm32f4xx_hal_driver/stm32f4xx_hal_dcmi.c ****     hdcmi->XferTransferNumber = hdcmi->XferCount;
 465              		.loc 1 405 0
 466 0082 A36A     		ldr	r3, [r4, #40]
 467 0084 023B     		subs	r3, r3, #2
 468 0086 A362     		str	r3, [r4, #40]
 406:/home/phong/Documents/thesis/stm32f4/stm-idf/components/stm32f4xx_hal_driver/stm32f4xx_hal_dcmi.c **** 
 469              		.loc 1 406 0
ARM GAS  /tmp/cczl6hC8.s 			page 30


 470 0088 A36A     		ldr	r3, [r4, #40]
 471 008a 2363     		str	r3, [r4, #48]
 409:/home/phong/Documents/thesis/stm32f4/stm-idf/components/stm32f4xx_hal_driver/stm32f4xx_hal_dcmi.c **** 
 472              		.loc 1 409 0
 473 008c E36A     		ldr	r3, [r4, #44]
 474              	.LVL33:
 412:/home/phong/Documents/thesis/stm32f4/stm-idf/components/stm32f4xx_hal_driver/stm32f4xx_hal_dcmi.c ****   }
 475              		.loc 1 412 0
 476 008e 2168     		ldr	r1, [r4]
 477 0090 E06A     		ldr	r0, [r4, #44]
 478 0092 0090     		str	r0, [sp]
 479 0094 02EB8303 		add	r3, r2, r3, lsl #2
 480              	.LVL34:
 481 0098 2831     		adds	r1, r1, #40
 482 009a A06B     		ldr	r0, [r4, #56]
 483 009c FFF7FEFF 		bl	HAL_DMAEx_MultiBufferStart_IT
 484              	.LVL35:
 485              	.L29:
 416:/home/phong/Documents/thesis/stm32f4/stm-idf/components/stm32f4xx_hal_driver/stm32f4xx_hal_dcmi.c **** 
 486              		.loc 1 416 0
 487 00a0 2268     		ldr	r2, [r4]
 488 00a2 1368     		ldr	r3, [r2]
 489 00a4 43F00103 		orr	r3, r3, #1
 490 00a8 1360     		str	r3, [r2]
 419:/home/phong/Documents/thesis/stm32f4/stm-idf/components/stm32f4xx_hal_driver/stm32f4xx_hal_dcmi.c **** 
 491              		.loc 1 419 0
 492 00aa 0020     		movs	r0, #0
 493 00ac 84F82400 		strb	r0, [r4, #36]
 494              	.LVL36:
 495              	.L27:
 423:/home/phong/Documents/thesis/stm32f4/stm-idf/components/stm32f4xx_hal_driver/stm32f4xx_hal_dcmi.c **** 
 496              		.loc 1 423 0
 497 00b0 03B0     		add	sp, sp, #12
 498              	.LCFI6:
 499              		.cfi_remember_state
 500              		.cfi_def_cfa_offset 12
 501              		@ sp needed
 502 00b2 30BD     		pop	{r4, r5, pc}
 503              	.LVL37:
 504              	.L32:
 505              	.LCFI7:
 506              		.cfi_restore_state
 357:/home/phong/Documents/thesis/stm32f4/stm-idf/components/stm32f4xx_hal_driver/stm32f4xx_hal_dcmi.c **** 
 507              		.loc 1 357 0
 508 00b4 0220     		movs	r0, #2
 509              	.LVL38:
 510 00b6 FBE7     		b	.L27
 511              	.L36:
 512              		.align	2
 513              	.L35:
 514 00b8 00000000 		.word	DCMI_DMAXferCplt
 515 00bc 00000000 		.word	DCMI_DMAError
 516              		.cfi_endproc
 517              	.LFE134:
 519              		.section	.text.HAL_DCMI_Stop,"ax",%progbits
 520              		.align	1
 521              		.global	HAL_DCMI_Stop
ARM GAS  /tmp/cczl6hC8.s 			page 31


 522              		.syntax unified
 523              		.thumb
 524              		.thumb_func
 525              		.fpu fpv4-sp-d16
 527              	HAL_DCMI_Stop:
 528              	.LFB135:
 432:/home/phong/Documents/thesis/stm32f4/stm-idf/components/stm32f4xx_hal_driver/stm32f4xx_hal_dcmi.c ****   __IO uint32_t count = SystemCoreClock / HAL_TIMEOUT_DCMI_STOP;
 529              		.loc 1 432 0
 530              		.cfi_startproc
 531              		@ args = 0, pretend = 0, frame = 8
 532              		@ frame_needed = 0, uses_anonymous_args = 0
 533              	.LVL39:
 534 0000 30B5     		push	{r4, r5, lr}
 535              	.LCFI8:
 536              		.cfi_def_cfa_offset 12
 537              		.cfi_offset 4, -12
 538              		.cfi_offset 5, -8
 539              		.cfi_offset 14, -4
 540 0002 83B0     		sub	sp, sp, #12
 541              	.LCFI9:
 542              		.cfi_def_cfa_offset 24
 433:/home/phong/Documents/thesis/stm32f4/stm-idf/components/stm32f4xx_hal_driver/stm32f4xx_hal_dcmi.c ****   HAL_StatusTypeDef status = HAL_OK;
 543              		.loc 1 433 0
 544 0004 1E4B     		ldr	r3, .L45
 545 0006 1B68     		ldr	r3, [r3]
 546 0008 5B08     		lsrs	r3, r3, #1
 547 000a 1E4A     		ldr	r2, .L45+4
 548 000c A2FB0323 		umull	r2, r3, r2, r3
 549 0010 9B08     		lsrs	r3, r3, #2
 550 0012 0193     		str	r3, [sp, #4]
 551              	.LVL40:
 437:/home/phong/Documents/thesis/stm32f4/stm-idf/components/stm32f4xx_hal_driver/stm32f4xx_hal_dcmi.c ****   
 552              		.loc 1 437 0
 553 0014 90F82430 		ldrb	r3, [r0, #36]	@ zero_extendqisi2
 554 0018 012B     		cmp	r3, #1
 555 001a 2ED0     		beq	.L42
 437:/home/phong/Documents/thesis/stm32f4/stm-idf/components/stm32f4xx_hal_driver/stm32f4xx_hal_dcmi.c ****   
 556              		.loc 1 437 0 is_stmt 0 discriminator 2
 557 001c 0123     		movs	r3, #1
 558 001e 80F82430 		strb	r3, [r0, #36]
 440:/home/phong/Documents/thesis/stm32f4/stm-idf/components/stm32f4xx_hal_driver/stm32f4xx_hal_dcmi.c **** 
 559              		.loc 1 440 0 is_stmt 1 discriminator 2
 560 0022 0223     		movs	r3, #2
 561 0024 80F82530 		strb	r3, [r0, #37]
 443:/home/phong/Documents/thesis/stm32f4/stm-idf/components/stm32f4xx_hal_driver/stm32f4xx_hal_dcmi.c **** 
 562              		.loc 1 443 0 discriminator 2
 563 0028 0268     		ldr	r2, [r0]
 564 002a 1368     		ldr	r3, [r2]
 565 002c 23F00103 		bic	r3, r3, #1
 566 0030 1360     		str	r3, [r2]
 567              	.L41:
 448:/home/phong/Documents/thesis/stm32f4/stm-idf/components/stm32f4xx_hal_driver/stm32f4xx_hal_dcmi.c ****     {
 568              		.loc 1 448 0
 569 0032 019B     		ldr	r3, [sp, #4]
 570 0034 5A1E     		subs	r2, r3, #1
 571 0036 0192     		str	r2, [sp, #4]
 572 0038 33B1     		cbz	r3, .L44
ARM GAS  /tmp/cczl6hC8.s 			page 32


 457:/home/phong/Documents/thesis/stm32f4/stm-idf/components/stm32f4xx_hal_driver/stm32f4xx_hal_dcmi.c **** 
 573              		.loc 1 457 0
 574 003a 0368     		ldr	r3, [r0]
 575 003c 1B68     		ldr	r3, [r3]
 576 003e 13F0010F 		tst	r3, #1
 577 0042 F6D1     		bne	.L41
 434:/home/phong/Documents/thesis/stm32f4/stm-idf/components/stm32f4xx_hal_driver/stm32f4xx_hal_dcmi.c **** 
 578              		.loc 1 434 0
 579 0044 0025     		movs	r5, #0
 580 0046 04E0     		b	.L40
 581              	.L44:
 451:/home/phong/Documents/thesis/stm32f4/stm-idf/components/stm32f4xx_hal_driver/stm32f4xx_hal_dcmi.c **** 
 582              		.loc 1 451 0
 583 0048 C36B     		ldr	r3, [r0, #60]
 584 004a 43F02003 		orr	r3, r3, #32
 585 004e C363     		str	r3, [r0, #60]
 586              	.LVL41:
 453:/home/phong/Documents/thesis/stm32f4/stm-idf/components/stm32f4xx_hal_driver/stm32f4xx_hal_dcmi.c ****       break;
 587              		.loc 1 453 0
 588 0050 0325     		movs	r5, #3
 589              	.LVL42:
 590              	.L40:
 591 0052 0446     		mov	r4, r0
 592              	.LVL43:
 460:/home/phong/Documents/thesis/stm32f4/stm-idf/components/stm32f4xx_hal_driver/stm32f4xx_hal_dcmi.c **** 
 593              		.loc 1 460 0
 594 0054 0268     		ldr	r2, [r0]
 595 0056 1368     		ldr	r3, [r2]
 596 0058 23F48043 		bic	r3, r3, #16384
 597 005c 1360     		str	r3, [r2]
 463:/home/phong/Documents/thesis/stm32f4/stm-idf/components/stm32f4xx_hal_driver/stm32f4xx_hal_dcmi.c **** 
 598              		.loc 1 463 0
 599 005e 806B     		ldr	r0, [r0, #56]
 600              	.LVL44:
 601 0060 FFF7FEFF 		bl	HAL_DMA_Abort
 602              	.LVL45:
 466:/home/phong/Documents/thesis/stm32f4/stm-idf/components/stm32f4xx_hal_driver/stm32f4xx_hal_dcmi.c **** 
 603              		.loc 1 466 0
 604 0064 E36B     		ldr	r3, [r4, #60]
 605 0066 E363     		str	r3, [r4, #60]
 469:/home/phong/Documents/thesis/stm32f4/stm-idf/components/stm32f4xx_hal_driver/stm32f4xx_hal_dcmi.c **** 
 606              		.loc 1 469 0
 607 0068 0123     		movs	r3, #1
 608 006a 84F82530 		strb	r3, [r4, #37]
 472:/home/phong/Documents/thesis/stm32f4/stm-idf/components/stm32f4xx_hal_driver/stm32f4xx_hal_dcmi.c **** 
 609              		.loc 1 472 0
 610 006e 0023     		movs	r3, #0
 611 0070 84F82430 		strb	r3, [r4, #36]
 612              	.LVL46:
 613              	.L38:
 476:/home/phong/Documents/thesis/stm32f4/stm-idf/components/stm32f4xx_hal_driver/stm32f4xx_hal_dcmi.c **** 
 614              		.loc 1 476 0
 615 0074 2846     		mov	r0, r5
 616 0076 03B0     		add	sp, sp, #12
 617              	.LCFI10:
 618              		.cfi_remember_state
 619              		.cfi_def_cfa_offset 12
ARM GAS  /tmp/cczl6hC8.s 			page 33


 620              		@ sp needed
 621 0078 30BD     		pop	{r4, r5, pc}
 622              	.LVL47:
 623              	.L42:
 624              	.LCFI11:
 625              		.cfi_restore_state
 437:/home/phong/Documents/thesis/stm32f4/stm-idf/components/stm32f4xx_hal_driver/stm32f4xx_hal_dcmi.c ****   
 626              		.loc 1 437 0
 627 007a 0225     		movs	r5, #2
 628 007c FAE7     		b	.L38
 629              	.L46:
 630 007e 00BF     		.align	2
 631              	.L45:
 632 0080 00000000 		.word	SystemCoreClock
 633 0084 93244992 		.word	-1840700269
 634              		.cfi_endproc
 635              	.LFE135:
 637              		.section	.text.HAL_DCMI_Suspend,"ax",%progbits
 638              		.align	1
 639              		.global	HAL_DCMI_Suspend
 640              		.syntax unified
 641              		.thumb
 642              		.thumb_func
 643              		.fpu fpv4-sp-d16
 645              	HAL_DCMI_Suspend:
 646              	.LFB136:
 485:/home/phong/Documents/thesis/stm32f4/stm-idf/components/stm32f4xx_hal_driver/stm32f4xx_hal_dcmi.c ****   __IO uint32_t count = SystemCoreClock / HAL_TIMEOUT_DCMI_STOP;
 647              		.loc 1 485 0
 648              		.cfi_startproc
 649              		@ args = 0, pretend = 0, frame = 8
 650              		@ frame_needed = 0, uses_anonymous_args = 0
 651              		@ link register save eliminated.
 652              	.LVL48:
 653 0000 82B0     		sub	sp, sp, #8
 654              	.LCFI12:
 655              		.cfi_def_cfa_offset 8
 486:/home/phong/Documents/thesis/stm32f4/stm-idf/components/stm32f4xx_hal_driver/stm32f4xx_hal_dcmi.c ****   HAL_StatusTypeDef status = HAL_OK;
 656              		.loc 1 486 0
 657 0002 1C4B     		ldr	r3, .L57
 658 0004 1B68     		ldr	r3, [r3]
 659 0006 5B08     		lsrs	r3, r3, #1
 660 0008 1B49     		ldr	r1, .L57+4
 661 000a A1FB0313 		umull	r1, r3, r1, r3
 662 000e 9B08     		lsrs	r3, r3, #2
 663 0010 0193     		str	r3, [sp, #4]
 664              	.LVL49:
 490:/home/phong/Documents/thesis/stm32f4/stm-idf/components/stm32f4xx_hal_driver/stm32f4xx_hal_dcmi.c **** 
 665              		.loc 1 490 0
 666 0012 90F82430 		ldrb	r3, [r0, #36]	@ zero_extendqisi2
 667 0016 012B     		cmp	r3, #1
 668 0018 2AD0     		beq	.L52
 669 001a 0246     		mov	r2, r0
 490:/home/phong/Documents/thesis/stm32f4/stm-idf/components/stm32f4xx_hal_driver/stm32f4xx_hal_dcmi.c **** 
 670              		.loc 1 490 0 is_stmt 0 discriminator 2
 671 001c 0123     		movs	r3, #1
 672 001e 80F82430 		strb	r3, [r0, #36]
 492:/home/phong/Documents/thesis/stm32f4/stm-idf/components/stm32f4xx_hal_driver/stm32f4xx_hal_dcmi.c ****   {
ARM GAS  /tmp/cczl6hC8.s 			page 34


 673              		.loc 1 492 0 is_stmt 1 discriminator 2
 674 0022 90F82530 		ldrb	r3, [r0, #37]	@ zero_extendqisi2
 675 0026 DBB2     		uxtb	r3, r3
 676 0028 022B     		cmp	r3, #2
 677 002a 05D0     		beq	.L55
 487:/home/phong/Documents/thesis/stm32f4/stm-idf/components/stm32f4xx_hal_driver/stm32f4xx_hal_dcmi.c **** 
 678              		.loc 1 487 0
 679 002c 0020     		movs	r0, #0
 680              	.LVL50:
 681              	.L49:
 518:/home/phong/Documents/thesis/stm32f4/stm-idf/components/stm32f4xx_hal_driver/stm32f4xx_hal_dcmi.c ****   
 682              		.loc 1 518 0
 683 002e 0023     		movs	r3, #0
 684 0030 82F82430 		strb	r3, [r2, #36]
 685              	.LVL51:
 686              	.L48:
 522:/home/phong/Documents/thesis/stm32f4/stm-idf/components/stm32f4xx_hal_driver/stm32f4xx_hal_dcmi.c **** 
 687              		.loc 1 522 0
 688 0034 02B0     		add	sp, sp, #8
 689              	.LCFI13:
 690              		.cfi_remember_state
 691              		.cfi_def_cfa_offset 0
 692              		@ sp needed
 693 0036 7047     		bx	lr
 694              	.LVL52:
 695              	.L55:
 696              	.LCFI14:
 697              		.cfi_restore_state
 495:/home/phong/Documents/thesis/stm32f4/stm-idf/components/stm32f4xx_hal_driver/stm32f4xx_hal_dcmi.c **** 
 698              		.loc 1 495 0
 699 0038 0523     		movs	r3, #5
 700 003a 80F82530 		strb	r3, [r0, #37]
 498:/home/phong/Documents/thesis/stm32f4/stm-idf/components/stm32f4xx_hal_driver/stm32f4xx_hal_dcmi.c **** 
 701              		.loc 1 498 0
 702 003e 0168     		ldr	r1, [r0]
 703 0040 0B68     		ldr	r3, [r1]
 704 0042 23F00103 		bic	r3, r3, #1
 705 0046 0B60     		str	r3, [r1]
 706              	.L51:
 503:/home/phong/Documents/thesis/stm32f4/stm-idf/components/stm32f4xx_hal_driver/stm32f4xx_hal_dcmi.c ****       {        
 707              		.loc 1 503 0
 708 0048 019B     		ldr	r3, [sp, #4]
 709 004a 591E     		subs	r1, r3, #1
 710 004c 0191     		str	r1, [sp, #4]
 711 004e 33B1     		cbz	r3, .L56
 515:/home/phong/Documents/thesis/stm32f4/stm-idf/components/stm32f4xx_hal_driver/stm32f4xx_hal_dcmi.c ****   }    
 712              		.loc 1 515 0
 713 0050 1368     		ldr	r3, [r2]
 714 0052 1B68     		ldr	r3, [r3]
 715 0054 13F0010F 		tst	r3, #1
 716 0058 F6D1     		bne	.L51
 487:/home/phong/Documents/thesis/stm32f4/stm-idf/components/stm32f4xx_hal_driver/stm32f4xx_hal_dcmi.c **** 
 717              		.loc 1 487 0
 718 005a 0020     		movs	r0, #0
 719              	.LVL53:
 720 005c E7E7     		b	.L49
 721              	.LVL54:
ARM GAS  /tmp/cczl6hC8.s 			page 35


 722              	.L56:
 506:/home/phong/Documents/thesis/stm32f4/stm-idf/components/stm32f4xx_hal_driver/stm32f4xx_hal_dcmi.c ****         
 723              		.loc 1 506 0
 724 005e D36B     		ldr	r3, [r2, #60]
 725 0060 43F02003 		orr	r3, r3, #32
 726 0064 D363     		str	r3, [r2, #60]
 509:/home/phong/Documents/thesis/stm32f4/stm-idf/components/stm32f4xx_hal_driver/stm32f4xx_hal_dcmi.c ****         
 727              		.loc 1 509 0
 728 0066 0123     		movs	r3, #1
 729 0068 82F82530 		strb	r3, [r2, #37]
 730              	.LVL55:
 511:/home/phong/Documents/thesis/stm32f4/stm-idf/components/stm32f4xx_hal_driver/stm32f4xx_hal_dcmi.c ****         break;
 731              		.loc 1 511 0
 732 006c 0320     		movs	r0, #3
 733              	.LVL56:
 512:/home/phong/Documents/thesis/stm32f4/stm-idf/components/stm32f4xx_hal_driver/stm32f4xx_hal_dcmi.c ****       }
 734              		.loc 1 512 0
 735 006e DEE7     		b	.L49
 736              	.LVL57:
 737              	.L52:
 490:/home/phong/Documents/thesis/stm32f4/stm-idf/components/stm32f4xx_hal_driver/stm32f4xx_hal_dcmi.c **** 
 738              		.loc 1 490 0
 739 0070 0220     		movs	r0, #2
 740              	.LVL58:
 741 0072 DFE7     		b	.L48
 742              	.L58:
 743              		.align	2
 744              	.L57:
 745 0074 00000000 		.word	SystemCoreClock
 746 0078 93244992 		.word	-1840700269
 747              		.cfi_endproc
 748              	.LFE136:
 750              		.section	.text.HAL_DCMI_Resume,"ax",%progbits
 751              		.align	1
 752              		.global	HAL_DCMI_Resume
 753              		.syntax unified
 754              		.thumb
 755              		.thumb_func
 756              		.fpu fpv4-sp-d16
 758              	HAL_DCMI_Resume:
 759              	.LFB137:
 531:/home/phong/Documents/thesis/stm32f4/stm-idf/components/stm32f4xx_hal_driver/stm32f4xx_hal_dcmi.c ****   /* Process locked */
 760              		.loc 1 531 0
 761              		.cfi_startproc
 762              		@ args = 0, pretend = 0, frame = 0
 763              		@ frame_needed = 0, uses_anonymous_args = 0
 764              		@ link register save eliminated.
 765              	.LVL59:
 533:/home/phong/Documents/thesis/stm32f4/stm-idf/components/stm32f4xx_hal_driver/stm32f4xx_hal_dcmi.c ****   
 766              		.loc 1 533 0
 767 0000 90F82430 		ldrb	r3, [r0, #36]	@ zero_extendqisi2
 768 0004 012B     		cmp	r3, #1
 769 0006 15D0     		beq	.L62
 533:/home/phong/Documents/thesis/stm32f4/stm-idf/components/stm32f4xx_hal_driver/stm32f4xx_hal_dcmi.c ****   
 770              		.loc 1 533 0 is_stmt 0 discriminator 2
 771 0008 0123     		movs	r3, #1
 772 000a 80F82430 		strb	r3, [r0, #36]
ARM GAS  /tmp/cczl6hC8.s 			page 36


 535:/home/phong/Documents/thesis/stm32f4/stm-idf/components/stm32f4xx_hal_driver/stm32f4xx_hal_dcmi.c ****   {
 773              		.loc 1 535 0 is_stmt 1 discriminator 2
 774 000e 90F82530 		ldrb	r3, [r0, #37]	@ zero_extendqisi2
 775 0012 DBB2     		uxtb	r3, r3
 776 0014 052B     		cmp	r3, #5
 777 0016 04D0     		beq	.L63
 778              	.L61:
 544:/home/phong/Documents/thesis/stm32f4/stm-idf/components/stm32f4xx_hal_driver/stm32f4xx_hal_dcmi.c ****   
 779              		.loc 1 544 0
 780 0018 0023     		movs	r3, #0
 781 001a 80F82430 		strb	r3, [r0, #36]
 547:/home/phong/Documents/thesis/stm32f4/stm-idf/components/stm32f4xx_hal_driver/stm32f4xx_hal_dcmi.c **** }
 782              		.loc 1 547 0
 783 001e 1846     		mov	r0, r3
 784              	.LVL60:
 785 0020 7047     		bx	lr
 786              	.LVL61:
 787              	.L63:
 538:/home/phong/Documents/thesis/stm32f4/stm-idf/components/stm32f4xx_hal_driver/stm32f4xx_hal_dcmi.c ****     
 788              		.loc 1 538 0
 789 0022 0223     		movs	r3, #2
 790 0024 80F82530 		strb	r3, [r0, #37]
 541:/home/phong/Documents/thesis/stm32f4/stm-idf/components/stm32f4xx_hal_driver/stm32f4xx_hal_dcmi.c ****   } 
 791              		.loc 1 541 0
 792 0028 0268     		ldr	r2, [r0]
 793 002a 1368     		ldr	r3, [r2]
 794 002c 43F00103 		orr	r3, r3, #1
 795 0030 1360     		str	r3, [r2]
 796 0032 F1E7     		b	.L61
 797              	.L62:
 533:/home/phong/Documents/thesis/stm32f4/stm-idf/components/stm32f4xx_hal_driver/stm32f4xx_hal_dcmi.c ****   
 798              		.loc 1 533 0
 799 0034 0220     		movs	r0, #2
 800              	.LVL62:
 548:/home/phong/Documents/thesis/stm32f4/stm-idf/components/stm32f4xx_hal_driver/stm32f4xx_hal_dcmi.c **** 
 801              		.loc 1 548 0
 802 0036 7047     		bx	lr
 803              		.cfi_endproc
 804              	.LFE137:
 806              		.section	.text.HAL_DCMI_ErrorCallback,"ax",%progbits
 807              		.align	1
 808              		.weak	HAL_DCMI_ErrorCallback
 809              		.syntax unified
 810              		.thumb
 811              		.thumb_func
 812              		.fpu fpv4-sp-d16
 814              	HAL_DCMI_ErrorCallback:
 815              	.LFB139:
 654:/home/phong/Documents/thesis/stm32f4/stm-idf/components/stm32f4xx_hal_driver/stm32f4xx_hal_dcmi.c ****   /* Prevent unused argument(s) compilation warning */
 816              		.loc 1 654 0
 817              		.cfi_startproc
 818              		@ args = 0, pretend = 0, frame = 0
 819              		@ frame_needed = 0, uses_anonymous_args = 0
 820              		@ link register save eliminated.
 821              	.LVL63:
 822 0000 7047     		bx	lr
 823              		.cfi_endproc
ARM GAS  /tmp/cczl6hC8.s 			page 37


 824              	.LFE139:
 826              		.section	.text.DCMI_DMAError,"ax",%progbits
 827              		.align	1
 828              		.syntax unified
 829              		.thumb
 830              		.thumb_func
 831              		.fpu fpv4-sp-d16
 833              	DCMI_DMAError:
 834              	.LFB150:
1118:/home/phong/Documents/thesis/stm32f4/stm-idf/components/stm32f4xx_hal_driver/stm32f4xx_hal_dcmi.c **** 
1119:/home/phong/Documents/thesis/stm32f4/stm-idf/components/stm32f4xx_hal_driver/stm32f4xx_hal_dcmi.c **** /**
1120:/home/phong/Documents/thesis/stm32f4/stm-idf/components/stm32f4xx_hal_driver/stm32f4xx_hal_dcmi.c ****   * @brief  DMA error callback 
1121:/home/phong/Documents/thesis/stm32f4/stm-idf/components/stm32f4xx_hal_driver/stm32f4xx_hal_dcmi.c ****   * @param  hdma pointer to a DMA_HandleTypeDef structure that contains
1122:/home/phong/Documents/thesis/stm32f4/stm-idf/components/stm32f4xx_hal_driver/stm32f4xx_hal_dcmi.c ****   *                the configuration information for the specified DMA module.
1123:/home/phong/Documents/thesis/stm32f4/stm-idf/components/stm32f4xx_hal_driver/stm32f4xx_hal_dcmi.c ****   * @retval None
1124:/home/phong/Documents/thesis/stm32f4/stm-idf/components/stm32f4xx_hal_driver/stm32f4xx_hal_dcmi.c ****   */
1125:/home/phong/Documents/thesis/stm32f4/stm-idf/components/stm32f4xx_hal_driver/stm32f4xx_hal_dcmi.c **** static void DCMI_DMAError(DMA_HandleTypeDef *hdma)
1126:/home/phong/Documents/thesis/stm32f4/stm-idf/components/stm32f4xx_hal_driver/stm32f4xx_hal_dcmi.c **** {
 835              		.loc 1 1126 0
 836              		.cfi_startproc
 837              		@ args = 0, pretend = 0, frame = 0
 838              		@ frame_needed = 0, uses_anonymous_args = 0
 839              	.LVL64:
 840              		.loc 1 1126 0
 841 0000 08B5     		push	{r3, lr}
 842              	.LCFI15:
 843              		.cfi_def_cfa_offset 8
 844              		.cfi_offset 3, -8
 845              		.cfi_offset 14, -4
1127:/home/phong/Documents/thesis/stm32f4/stm-idf/components/stm32f4xx_hal_driver/stm32f4xx_hal_dcmi.c ****   DCMI_HandleTypeDef* hdcmi = ( DCMI_HandleTypeDef* )((DMA_HandleTypeDef* )hdma)->Parent;
 846              		.loc 1 1127 0
 847 0002 806B     		ldr	r0, [r0, #56]
 848              	.LVL65:
1128:/home/phong/Documents/thesis/stm32f4/stm-idf/components/stm32f4xx_hal_driver/stm32f4xx_hal_dcmi.c ****   
1129:/home/phong/Documents/thesis/stm32f4/stm-idf/components/stm32f4xx_hal_driver/stm32f4xx_hal_dcmi.c ****   if(hdcmi->DMA_Handle->ErrorCode != HAL_DMA_ERROR_FE)
 849              		.loc 1 1129 0
 850 0004 836B     		ldr	r3, [r0, #56]
 851 0006 5B6D     		ldr	r3, [r3, #84]
 852 0008 022B     		cmp	r3, #2
 853 000a 02D0     		beq	.L66
1130:/home/phong/Documents/thesis/stm32f4/stm-idf/components/stm32f4xx_hal_driver/stm32f4xx_hal_dcmi.c ****   {
1131:/home/phong/Documents/thesis/stm32f4/stm-idf/components/stm32f4xx_hal_driver/stm32f4xx_hal_dcmi.c ****     /* Initialize the DCMI state*/
1132:/home/phong/Documents/thesis/stm32f4/stm-idf/components/stm32f4xx_hal_driver/stm32f4xx_hal_dcmi.c ****     hdcmi->State = HAL_DCMI_STATE_READY;
 854              		.loc 1 1132 0
 855 000c 0123     		movs	r3, #1
 856 000e 80F82530 		strb	r3, [r0, #37]
 857              	.L66:
1133:/home/phong/Documents/thesis/stm32f4/stm-idf/components/stm32f4xx_hal_driver/stm32f4xx_hal_dcmi.c ****   }
1134:/home/phong/Documents/thesis/stm32f4/stm-idf/components/stm32f4xx_hal_driver/stm32f4xx_hal_dcmi.c **** 
1135:/home/phong/Documents/thesis/stm32f4/stm-idf/components/stm32f4xx_hal_driver/stm32f4xx_hal_dcmi.c ****   /* DCMI error Callback */
1136:/home/phong/Documents/thesis/stm32f4/stm-idf/components/stm32f4xx_hal_driver/stm32f4xx_hal_dcmi.c **** #if (USE_HAL_DCMI_REGISTER_CALLBACKS == 1)
1137:/home/phong/Documents/thesis/stm32f4/stm-idf/components/stm32f4xx_hal_driver/stm32f4xx_hal_dcmi.c ****     /*Call registered DCMI error callback*/
1138:/home/phong/Documents/thesis/stm32f4/stm-idf/components/stm32f4xx_hal_driver/stm32f4xx_hal_dcmi.c ****     hdcmi->ErrorCallback(hdcmi);
1139:/home/phong/Documents/thesis/stm32f4/stm-idf/components/stm32f4xx_hal_driver/stm32f4xx_hal_dcmi.c **** #else  
1140:/home/phong/Documents/thesis/stm32f4/stm-idf/components/stm32f4xx_hal_driver/stm32f4xx_hal_dcmi.c ****   HAL_DCMI_ErrorCallback(hdcmi);
 858              		.loc 1 1140 0
 859 0012 FFF7FEFF 		bl	HAL_DCMI_ErrorCallback
ARM GAS  /tmp/cczl6hC8.s 			page 38


 860              	.LVL66:
 861 0016 08BD     		pop	{r3, pc}
 862              		.cfi_endproc
 863              	.LFE150:
 865              		.section	.text.HAL_DCMI_LineEventCallback,"ax",%progbits
 866              		.align	1
 867              		.weak	HAL_DCMI_LineEventCallback
 868              		.syntax unified
 869              		.thumb
 870              		.thumb_func
 871              		.fpu fpv4-sp-d16
 873              	HAL_DCMI_LineEventCallback:
 874              	.LFB140:
 669:/home/phong/Documents/thesis/stm32f4/stm-idf/components/stm32f4xx_hal_driver/stm32f4xx_hal_dcmi.c ****   /* Prevent unused argument(s) compilation warning */
 875              		.loc 1 669 0
 876              		.cfi_startproc
 877              		@ args = 0, pretend = 0, frame = 0
 878              		@ frame_needed = 0, uses_anonymous_args = 0
 879              		@ link register save eliminated.
 880              	.LVL67:
 881 0000 7047     		bx	lr
 882              		.cfi_endproc
 883              	.LFE140:
 885              		.section	.text.HAL_DCMI_VsyncEventCallback,"ax",%progbits
 886              		.align	1
 887              		.weak	HAL_DCMI_VsyncEventCallback
 888              		.syntax unified
 889              		.thumb
 890              		.thumb_func
 891              		.fpu fpv4-sp-d16
 893              	HAL_DCMI_VsyncEventCallback:
 894              	.LFB141:
 684:/home/phong/Documents/thesis/stm32f4/stm-idf/components/stm32f4xx_hal_driver/stm32f4xx_hal_dcmi.c ****   /* Prevent unused argument(s) compilation warning */
 895              		.loc 1 684 0
 896              		.cfi_startproc
 897              		@ args = 0, pretend = 0, frame = 0
 898              		@ frame_needed = 0, uses_anonymous_args = 0
 899              		@ link register save eliminated.
 900              	.LVL68:
 901 0000 7047     		bx	lr
 902              		.cfi_endproc
 903              	.LFE141:
 905              		.section	.text.HAL_DCMI_FrameEventCallback,"ax",%progbits
 906              		.align	1
 907              		.weak	HAL_DCMI_FrameEventCallback
 908              		.syntax unified
 909              		.thumb
 910              		.thumb_func
 911              		.fpu fpv4-sp-d16
 913              	HAL_DCMI_FrameEventCallback:
 914              	.LFB142:
 699:/home/phong/Documents/thesis/stm32f4/stm-idf/components/stm32f4xx_hal_driver/stm32f4xx_hal_dcmi.c ****   /* Prevent unused argument(s) compilation warning */
 915              		.loc 1 699 0
 916              		.cfi_startproc
 917              		@ args = 0, pretend = 0, frame = 0
 918              		@ frame_needed = 0, uses_anonymous_args = 0
 919              		@ link register save eliminated.
ARM GAS  /tmp/cczl6hC8.s 			page 39


 920              	.LVL69:
 921 0000 7047     		bx	lr
 922              		.cfi_endproc
 923              	.LFE142:
 925              		.section	.text.HAL_DCMI_IRQHandler,"ax",%progbits
 926              		.align	1
 927              		.global	HAL_DCMI_IRQHandler
 928              		.syntax unified
 929              		.thumb
 930              		.thumb_func
 931              		.fpu fpv4-sp-d16
 933              	HAL_DCMI_IRQHandler:
 934              	.LFB138:
 557:/home/phong/Documents/thesis/stm32f4/stm-idf/components/stm32f4xx_hal_driver/stm32f4xx_hal_dcmi.c ****   uint32_t isr_value = READ_REG(hdcmi->Instance->MISR);
 935              		.loc 1 557 0
 936              		.cfi_startproc
 937              		@ args = 0, pretend = 0, frame = 0
 938              		@ frame_needed = 0, uses_anonymous_args = 0
 939              	.LVL70:
 557:/home/phong/Documents/thesis/stm32f4/stm-idf/components/stm32f4xx_hal_driver/stm32f4xx_hal_dcmi.c ****   uint32_t isr_value = READ_REG(hdcmi->Instance->MISR);
 940              		.loc 1 557 0
 941 0000 38B5     		push	{r3, r4, r5, lr}
 942              	.LCFI16:
 943              		.cfi_def_cfa_offset 16
 944              		.cfi_offset 3, -16
 945              		.cfi_offset 4, -12
 946              		.cfi_offset 5, -8
 947              		.cfi_offset 14, -4
 948 0002 0446     		mov	r4, r0
 558:/home/phong/Documents/thesis/stm32f4/stm-idf/components/stm32f4xx_hal_driver/stm32f4xx_hal_dcmi.c **** 
 949              		.loc 1 558 0
 950 0004 0368     		ldr	r3, [r0]
 951 0006 1D69     		ldr	r5, [r3, #16]
 952              	.LVL71:
 561:/home/phong/Documents/thesis/stm32f4/stm-idf/components/stm32f4xx_hal_driver/stm32f4xx_hal_dcmi.c ****   {
 953              		.loc 1 561 0
 954 0008 15F0040F 		tst	r5, #4
 955 000c 1DD1     		bne	.L79
 956              	.LVL72:
 957              	.L72:
 579:/home/phong/Documents/thesis/stm32f4/stm-idf/components/stm32f4xx_hal_driver/stm32f4xx_hal_dcmi.c ****   {
 958              		.loc 1 579 0
 959 000e 15F0020F 		tst	r5, #2
 960 0012 29D1     		bne	.L80
 961              	.L73:
 597:/home/phong/Documents/thesis/stm32f4/stm-idf/components/stm32f4xx_hal_driver/stm32f4xx_hal_dcmi.c ****   {
 962              		.loc 1 597 0
 963 0014 15F0100F 		tst	r5, #16
 964 0018 37D1     		bne	.L81
 965              	.L74:
 611:/home/phong/Documents/thesis/stm32f4/stm-idf/components/stm32f4xx_hal_driver/stm32f4xx_hal_dcmi.c ****   {
 966              		.loc 1 611 0
 967 001a 15F0080F 		tst	r5, #8
 968 001e 3BD1     		bne	.L82
 969              	.L75:
 625:/home/phong/Documents/thesis/stm32f4/stm-idf/components/stm32f4xx_hal_driver/stm32f4xx_hal_dcmi.c ****   {
 970              		.loc 1 625 0
ARM GAS  /tmp/cczl6hC8.s 			page 40


 971 0020 15F0010F 		tst	r5, #1
 972 0024 10D0     		beq	.L71
 628:/home/phong/Documents/thesis/stm32f4/stm-idf/components/stm32f4xx_hal_driver/stm32f4xx_hal_dcmi.c ****     { 
 973              		.loc 1 628 0
 974 0026 2368     		ldr	r3, [r4]
 975 0028 1A68     		ldr	r2, [r3]
 976 002a 12F0020F 		tst	r2, #2
 977 002e 03D0     		beq	.L77
 631:/home/phong/Documents/thesis/stm32f4/stm-idf/components/stm32f4xx_hal_driver/stm32f4xx_hal_dcmi.c ****     }
 978              		.loc 1 631 0
 979 0030 DA68     		ldr	r2, [r3, #12]
 980 0032 22F01E02 		bic	r2, r2, #30
 981 0036 DA60     		str	r2, [r3, #12]
 982              	.L77:
 635:/home/phong/Documents/thesis/stm32f4/stm-idf/components/stm32f4xx_hal_driver/stm32f4xx_hal_dcmi.c **** 
 983              		.loc 1 635 0
 984 0038 2268     		ldr	r2, [r4]
 985 003a D368     		ldr	r3, [r2, #12]
 986 003c 23F00103 		bic	r3, r3, #1
 987 0040 D360     		str	r3, [r2, #12]
 642:/home/phong/Documents/thesis/stm32f4/stm-idf/components/stm32f4xx_hal_driver/stm32f4xx_hal_dcmi.c **** #endif /* USE_HAL_DCMI_REGISTER_CALLBACKS */      
 988              		.loc 1 642 0
 989 0042 2046     		mov	r0, r4
 990 0044 FFF7FEFF 		bl	HAL_DCMI_FrameEventCallback
 991              	.LVL73:
 992              	.L71:
 993 0048 38BD     		pop	{r3, r4, r5, pc}
 994              	.LVL74:
 995              	.L79:
 564:/home/phong/Documents/thesis/stm32f4/stm-idf/components/stm32f4xx_hal_driver/stm32f4xx_hal_dcmi.c **** 
 996              		.loc 1 564 0
 997 004a 0422     		movs	r2, #4
 998 004c 5A61     		str	r2, [r3, #20]
 567:/home/phong/Documents/thesis/stm32f4/stm-idf/components/stm32f4xx_hal_driver/stm32f4xx_hal_dcmi.c **** 
 999              		.loc 1 567 0
 1000 004e C36B     		ldr	r3, [r0, #60]
 1001 0050 43F00203 		orr	r3, r3, #2
 1002 0054 C363     		str	r3, [r0, #60]
 570:/home/phong/Documents/thesis/stm32f4/stm-idf/components/stm32f4xx_hal_driver/stm32f4xx_hal_dcmi.c ****     
 1003              		.loc 1 570 0
 1004 0056 80F82520 		strb	r2, [r0, #37]
 573:/home/phong/Documents/thesis/stm32f4/stm-idf/components/stm32f4xx_hal_driver/stm32f4xx_hal_dcmi.c **** 
 1005              		.loc 1 573 0
 1006 005a 836B     		ldr	r3, [r0, #56]
 1007 005c 124A     		ldr	r2, .L83
 1008 005e 1A65     		str	r2, [r3, #80]
 576:/home/phong/Documents/thesis/stm32f4/stm-idf/components/stm32f4xx_hal_driver/stm32f4xx_hal_dcmi.c ****   }
 1009              		.loc 1 576 0
 1010 0060 806B     		ldr	r0, [r0, #56]
 1011              	.LVL75:
 1012 0062 FFF7FEFF 		bl	HAL_DMA_Abort_IT
 1013              	.LVL76:
 1014 0066 D2E7     		b	.L72
 1015              	.L80:
 582:/home/phong/Documents/thesis/stm32f4/stm-idf/components/stm32f4xx_hal_driver/stm32f4xx_hal_dcmi.c **** 
 1016              		.loc 1 582 0
 1017 0068 2368     		ldr	r3, [r4]
ARM GAS  /tmp/cczl6hC8.s 			page 41


 1018 006a 0222     		movs	r2, #2
 1019 006c 5A61     		str	r2, [r3, #20]
 585:/home/phong/Documents/thesis/stm32f4/stm-idf/components/stm32f4xx_hal_driver/stm32f4xx_hal_dcmi.c **** 
 1020              		.loc 1 585 0
 1021 006e E36B     		ldr	r3, [r4, #60]
 1022 0070 43F00103 		orr	r3, r3, #1
 1023 0074 E363     		str	r3, [r4, #60]
 588:/home/phong/Documents/thesis/stm32f4/stm-idf/components/stm32f4xx_hal_driver/stm32f4xx_hal_dcmi.c ****     
 1024              		.loc 1 588 0
 1025 0076 0423     		movs	r3, #4
 1026 0078 84F82530 		strb	r3, [r4, #37]
 591:/home/phong/Documents/thesis/stm32f4/stm-idf/components/stm32f4xx_hal_driver/stm32f4xx_hal_dcmi.c **** 
 1027              		.loc 1 591 0
 1028 007c A36B     		ldr	r3, [r4, #56]
 1029 007e 0A4A     		ldr	r2, .L83
 1030 0080 1A65     		str	r2, [r3, #80]
 594:/home/phong/Documents/thesis/stm32f4/stm-idf/components/stm32f4xx_hal_driver/stm32f4xx_hal_dcmi.c ****   }
 1031              		.loc 1 594 0
 1032 0082 A06B     		ldr	r0, [r4, #56]
 1033 0084 FFF7FEFF 		bl	HAL_DMA_Abort_IT
 1034              	.LVL77:
 1035 0088 C4E7     		b	.L73
 1036              	.L81:
 600:/home/phong/Documents/thesis/stm32f4/stm-idf/components/stm32f4xx_hal_driver/stm32f4xx_hal_dcmi.c ****     
 1037              		.loc 1 600 0
 1038 008a 2368     		ldr	r3, [r4]
 1039 008c 1022     		movs	r2, #16
 1040 008e 5A61     		str	r2, [r3, #20]
 607:/home/phong/Documents/thesis/stm32f4/stm-idf/components/stm32f4xx_hal_driver/stm32f4xx_hal_dcmi.c **** #endif /* USE_HAL_DCMI_REGISTER_CALLBACKS */     
 1041              		.loc 1 607 0
 1042 0090 2046     		mov	r0, r4
 1043 0092 FFF7FEFF 		bl	HAL_DCMI_LineEventCallback
 1044              	.LVL78:
 1045 0096 C0E7     		b	.L74
 1046              	.L82:
 614:/home/phong/Documents/thesis/stm32f4/stm-idf/components/stm32f4xx_hal_driver/stm32f4xx_hal_dcmi.c ****     
 1047              		.loc 1 614 0
 1048 0098 2368     		ldr	r3, [r4]
 1049 009a 0822     		movs	r2, #8
 1050 009c 5A61     		str	r2, [r3, #20]
 621:/home/phong/Documents/thesis/stm32f4/stm-idf/components/stm32f4xx_hal_driver/stm32f4xx_hal_dcmi.c **** #endif /* USE_HAL_DCMI_REGISTER_CALLBACKS */ 
 1051              		.loc 1 621 0
 1052 009e 2046     		mov	r0, r4
 1053 00a0 FFF7FEFF 		bl	HAL_DCMI_VsyncEventCallback
 1054              	.LVL79:
 1055 00a4 BCE7     		b	.L75
 1056              	.L84:
 1057 00a6 00BF     		.align	2
 1058              	.L83:
 1059 00a8 00000000 		.word	DCMI_DMAError
 1060              		.cfi_endproc
 1061              	.LFE138:
 1063              		.section	.text.HAL_DCMI_ConfigCrop,"ax",%progbits
 1064              		.align	1
 1065              		.global	HAL_DCMI_ConfigCrop
 1066              		.syntax unified
 1067              		.thumb
ARM GAS  /tmp/cczl6hC8.s 			page 42


 1068              		.thumb_func
 1069              		.fpu fpv4-sp-d16
 1071              	HAL_DCMI_ConfigCrop:
 1072              	.LFB143:
 737:/home/phong/Documents/thesis/stm32f4/stm-idf/components/stm32f4xx_hal_driver/stm32f4xx_hal_dcmi.c ****   /* Process Locked */
 1073              		.loc 1 737 0
 1074              		.cfi_startproc
 1075              		@ args = 4, pretend = 0, frame = 0
 1076              		@ frame_needed = 0, uses_anonymous_args = 0
 1077              		@ link register save eliminated.
 1078              	.LVL80:
 1079 0000 30B4     		push	{r4, r5}
 1080              	.LCFI17:
 1081              		.cfi_def_cfa_offset 8
 1082              		.cfi_offset 4, -8
 1083              		.cfi_offset 5, -4
 739:/home/phong/Documents/thesis/stm32f4/stm-idf/components/stm32f4xx_hal_driver/stm32f4xx_hal_dcmi.c **** 
 1084              		.loc 1 739 0
 1085 0002 90F82440 		ldrb	r4, [r0, #36]	@ zero_extendqisi2
 1086 0006 012C     		cmp	r4, #1
 1087 0008 14D0     		beq	.L87
 742:/home/phong/Documents/thesis/stm32f4/stm-idf/components/stm32f4xx_hal_driver/stm32f4xx_hal_dcmi.c **** 
 1088              		.loc 1 742 0 discriminator 2
 1089 000a 0224     		movs	r4, #2
 1090 000c 80F82540 		strb	r4, [r0, #37]
 751:/home/phong/Documents/thesis/stm32f4/stm-idf/components/stm32f4xx_hal_driver/stm32f4xx_hal_dcmi.c ****   hdcmi->Instance->CWSTRTR = (X0 | (Y0 << DCMI_POSITION_CWSTRT_VST));
 1091              		.loc 1 751 0 discriminator 2
 1092 0010 0468     		ldr	r4, [r0]
 1093 0012 029D     		ldr	r5, [sp, #8]
 1094 0014 43EA0543 		orr	r3, r3, r5, lsl #16
 1095              	.LVL81:
 1096 0018 6362     		str	r3, [r4, #36]
 752:/home/phong/Documents/thesis/stm32f4/stm-idf/components/stm32f4xx_hal_driver/stm32f4xx_hal_dcmi.c **** 
 1097              		.loc 1 752 0 discriminator 2
 1098 001a 0368     		ldr	r3, [r0]
 1099 001c 41EA0241 		orr	r1, r1, r2, lsl #16
 1100              	.LVL82:
 1101 0020 1962     		str	r1, [r3, #32]
 755:/home/phong/Documents/thesis/stm32f4/stm-idf/components/stm32f4xx_hal_driver/stm32f4xx_hal_dcmi.c **** 
 1102              		.loc 1 755 0 discriminator 2
 1103 0022 0123     		movs	r3, #1
 1104 0024 80F82530 		strb	r3, [r0, #37]
 758:/home/phong/Documents/thesis/stm32f4/stm-idf/components/stm32f4xx_hal_driver/stm32f4xx_hal_dcmi.c **** 
 1105              		.loc 1 758 0 discriminator 2
 1106 0028 0023     		movs	r3, #0
 1107 002a 80F82430 		strb	r3, [r0, #36]
 760:/home/phong/Documents/thesis/stm32f4/stm-idf/components/stm32f4xx_hal_driver/stm32f4xx_hal_dcmi.c **** }
 1108              		.loc 1 760 0 discriminator 2
 1109 002e 1846     		mov	r0, r3
 1110              	.LVL83:
 1111              	.L86:
 761:/home/phong/Documents/thesis/stm32f4/stm-idf/components/stm32f4xx_hal_driver/stm32f4xx_hal_dcmi.c **** 
 1112              		.loc 1 761 0
 1113 0030 30BC     		pop	{r4, r5}
 1114              	.LCFI18:
 1115              		.cfi_remember_state
 1116              		.cfi_restore 5
ARM GAS  /tmp/cczl6hC8.s 			page 43


 1117              		.cfi_restore 4
 1118              		.cfi_def_cfa_offset 0
 1119              	.LVL84:
 1120 0032 7047     		bx	lr
 1121              	.LVL85:
 1122              	.L87:
 1123              	.LCFI19:
 1124              		.cfi_restore_state
 739:/home/phong/Documents/thesis/stm32f4/stm-idf/components/stm32f4xx_hal_driver/stm32f4xx_hal_dcmi.c **** 
 1125              		.loc 1 739 0
 1126 0034 0220     		movs	r0, #2
 1127              	.LVL86:
 1128 0036 FBE7     		b	.L86
 1129              		.cfi_endproc
 1130              	.LFE143:
 1132              		.section	.text.HAL_DCMI_DisableCrop,"ax",%progbits
 1133              		.align	1
 1134              		.global	HAL_DCMI_DisableCrop
 1135              		.syntax unified
 1136              		.thumb
 1137              		.thumb_func
 1138              		.fpu fpv4-sp-d16
 1140              	HAL_DCMI_DisableCrop:
 1141              	.LFB144:
 770:/home/phong/Documents/thesis/stm32f4/stm-idf/components/stm32f4xx_hal_driver/stm32f4xx_hal_dcmi.c ****   /* Process Locked */
 1142              		.loc 1 770 0
 1143              		.cfi_startproc
 1144              		@ args = 0, pretend = 0, frame = 0
 1145              		@ frame_needed = 0, uses_anonymous_args = 0
 1146              		@ link register save eliminated.
 1147              	.LVL87:
 772:/home/phong/Documents/thesis/stm32f4/stm-idf/components/stm32f4xx_hal_driver/stm32f4xx_hal_dcmi.c **** 
 1148              		.loc 1 772 0
 1149 0000 90F82430 		ldrb	r3, [r0, #36]	@ zero_extendqisi2
 1150 0004 012B     		cmp	r3, #1
 1151 0006 11D0     		beq	.L91
 772:/home/phong/Documents/thesis/stm32f4/stm-idf/components/stm32f4xx_hal_driver/stm32f4xx_hal_dcmi.c **** 
 1152              		.loc 1 772 0 is_stmt 0 discriminator 2
 1153 0008 0122     		movs	r2, #1
 1154 000a 80F82420 		strb	r2, [r0, #36]
 775:/home/phong/Documents/thesis/stm32f4/stm-idf/components/stm32f4xx_hal_driver/stm32f4xx_hal_dcmi.c **** 
 1155              		.loc 1 775 0 is_stmt 1 discriminator 2
 1156 000e 0223     		movs	r3, #2
 1157 0010 80F82530 		strb	r3, [r0, #37]
 778:/home/phong/Documents/thesis/stm32f4/stm-idf/components/stm32f4xx_hal_driver/stm32f4xx_hal_dcmi.c **** 
 1158              		.loc 1 778 0 discriminator 2
 1159 0014 0168     		ldr	r1, [r0]
 1160 0016 0B68     		ldr	r3, [r1]
 1161 0018 23F00403 		bic	r3, r3, #4
 1162 001c 0B60     		str	r3, [r1]
 781:/home/phong/Documents/thesis/stm32f4/stm-idf/components/stm32f4xx_hal_driver/stm32f4xx_hal_dcmi.c **** 
 1163              		.loc 1 781 0 discriminator 2
 1164 001e 80F82520 		strb	r2, [r0, #37]
 784:/home/phong/Documents/thesis/stm32f4/stm-idf/components/stm32f4xx_hal_driver/stm32f4xx_hal_dcmi.c **** 
 1165              		.loc 1 784 0 discriminator 2
 1166 0022 0023     		movs	r3, #0
 1167 0024 80F82430 		strb	r3, [r0, #36]
ARM GAS  /tmp/cczl6hC8.s 			page 44


 786:/home/phong/Documents/thesis/stm32f4/stm-idf/components/stm32f4xx_hal_driver/stm32f4xx_hal_dcmi.c **** }
 1168              		.loc 1 786 0 discriminator 2
 1169 0028 1846     		mov	r0, r3
 1170              	.LVL88:
 1171 002a 7047     		bx	lr
 1172              	.LVL89:
 1173              	.L91:
 772:/home/phong/Documents/thesis/stm32f4/stm-idf/components/stm32f4xx_hal_driver/stm32f4xx_hal_dcmi.c **** 
 1174              		.loc 1 772 0
 1175 002c 0220     		movs	r0, #2
 1176              	.LVL90:
 787:/home/phong/Documents/thesis/stm32f4/stm-idf/components/stm32f4xx_hal_driver/stm32f4xx_hal_dcmi.c **** 
 1177              		.loc 1 787 0
 1178 002e 7047     		bx	lr
 1179              		.cfi_endproc
 1180              	.LFE144:
 1182              		.section	.text.HAL_DCMI_EnableCrop,"ax",%progbits
 1183              		.align	1
 1184              		.global	HAL_DCMI_EnableCrop
 1185              		.syntax unified
 1186              		.thumb
 1187              		.thumb_func
 1188              		.fpu fpv4-sp-d16
 1190              	HAL_DCMI_EnableCrop:
 1191              	.LFB145:
 796:/home/phong/Documents/thesis/stm32f4/stm-idf/components/stm32f4xx_hal_driver/stm32f4xx_hal_dcmi.c ****   /* Process Locked */
 1192              		.loc 1 796 0
 1193              		.cfi_startproc
 1194              		@ args = 0, pretend = 0, frame = 0
 1195              		@ frame_needed = 0, uses_anonymous_args = 0
 1196              		@ link register save eliminated.
 1197              	.LVL91:
 798:/home/phong/Documents/thesis/stm32f4/stm-idf/components/stm32f4xx_hal_driver/stm32f4xx_hal_dcmi.c **** 
 1198              		.loc 1 798 0
 1199 0000 90F82430 		ldrb	r3, [r0, #36]	@ zero_extendqisi2
 1200 0004 012B     		cmp	r3, #1
 1201 0006 11D0     		beq	.L94
 798:/home/phong/Documents/thesis/stm32f4/stm-idf/components/stm32f4xx_hal_driver/stm32f4xx_hal_dcmi.c **** 
 1202              		.loc 1 798 0 is_stmt 0 discriminator 2
 1203 0008 0122     		movs	r2, #1
 1204 000a 80F82420 		strb	r2, [r0, #36]
 801:/home/phong/Documents/thesis/stm32f4/stm-idf/components/stm32f4xx_hal_driver/stm32f4xx_hal_dcmi.c **** 
 1205              		.loc 1 801 0 is_stmt 1 discriminator 2
 1206 000e 0223     		movs	r3, #2
 1207 0010 80F82530 		strb	r3, [r0, #37]
 804:/home/phong/Documents/thesis/stm32f4/stm-idf/components/stm32f4xx_hal_driver/stm32f4xx_hal_dcmi.c **** 
 1208              		.loc 1 804 0 discriminator 2
 1209 0014 0168     		ldr	r1, [r0]
 1210 0016 0B68     		ldr	r3, [r1]
 1211 0018 43F00403 		orr	r3, r3, #4
 1212 001c 0B60     		str	r3, [r1]
 807:/home/phong/Documents/thesis/stm32f4/stm-idf/components/stm32f4xx_hal_driver/stm32f4xx_hal_dcmi.c **** 
 1213              		.loc 1 807 0 discriminator 2
 1214 001e 80F82520 		strb	r2, [r0, #37]
 810:/home/phong/Documents/thesis/stm32f4/stm-idf/components/stm32f4xx_hal_driver/stm32f4xx_hal_dcmi.c **** 
 1215              		.loc 1 810 0 discriminator 2
 1216 0022 0023     		movs	r3, #0
ARM GAS  /tmp/cczl6hC8.s 			page 45


 1217 0024 80F82430 		strb	r3, [r0, #36]
 812:/home/phong/Documents/thesis/stm32f4/stm-idf/components/stm32f4xx_hal_driver/stm32f4xx_hal_dcmi.c **** }
 1218              		.loc 1 812 0 discriminator 2
 1219 0028 1846     		mov	r0, r3
 1220              	.LVL92:
 1221 002a 7047     		bx	lr
 1222              	.LVL93:
 1223              	.L94:
 798:/home/phong/Documents/thesis/stm32f4/stm-idf/components/stm32f4xx_hal_driver/stm32f4xx_hal_dcmi.c **** 
 1224              		.loc 1 798 0
 1225 002c 0220     		movs	r0, #2
 1226              	.LVL94:
 813:/home/phong/Documents/thesis/stm32f4/stm-idf/components/stm32f4xx_hal_driver/stm32f4xx_hal_dcmi.c **** 
 1227              		.loc 1 813 0
 1228 002e 7047     		bx	lr
 1229              		.cfi_endproc
 1230              	.LFE145:
 1232              		.section	.text.HAL_DCMI_ConfigSyncUnmask,"ax",%progbits
 1233              		.align	1
 1234              		.global	HAL_DCMI_ConfigSyncUnmask
 1235              		.syntax unified
 1236              		.thumb
 1237              		.thumb_func
 1238              		.fpu fpv4-sp-d16
 1240              	HAL_DCMI_ConfigSyncUnmask:
 1241              	.LFB146:
 824:/home/phong/Documents/thesis/stm32f4/stm-idf/components/stm32f4xx_hal_driver/stm32f4xx_hal_dcmi.c ****   /* Process Locked */
 1242              		.loc 1 824 0
 1243              		.cfi_startproc
 1244              		@ args = 0, pretend = 0, frame = 0
 1245              		@ frame_needed = 0, uses_anonymous_args = 0
 1246              		@ link register save eliminated.
 1247              	.LVL95:
 826:/home/phong/Documents/thesis/stm32f4/stm-idf/components/stm32f4xx_hal_driver/stm32f4xx_hal_dcmi.c **** 
 1248              		.loc 1 826 0
 1249 0000 90F82430 		ldrb	r3, [r0, #36]	@ zero_extendqisi2
 1250 0004 012B     		cmp	r3, #1
 1251 0006 1AD0     		beq	.L97
 824:/home/phong/Documents/thesis/stm32f4/stm-idf/components/stm32f4xx_hal_driver/stm32f4xx_hal_dcmi.c ****   /* Process Locked */
 1252              		.loc 1 824 0 discriminator 2
 1253 0008 30B4     		push	{r4, r5}
 1254              	.LCFI20:
 1255              		.cfi_def_cfa_offset 8
 1256              		.cfi_offset 4, -8
 1257              		.cfi_offset 5, -4
 826:/home/phong/Documents/thesis/stm32f4/stm-idf/components/stm32f4xx_hal_driver/stm32f4xx_hal_dcmi.c **** 
 1258              		.loc 1 826 0 discriminator 2
 1259 000a 0122     		movs	r2, #1
 1260 000c 80F82420 		strb	r2, [r0, #36]
 829:/home/phong/Documents/thesis/stm32f4/stm-idf/components/stm32f4xx_hal_driver/stm32f4xx_hal_dcmi.c **** 
 1261              		.loc 1 829 0 discriminator 2
 1262 0010 0223     		movs	r3, #2
 1263 0012 80F82530 		strb	r3, [r0, #37]
 832:/home/phong/Documents/thesis/stm32f4/stm-idf/components/stm32f4xx_hal_driver/stm32f4xx_hal_dcmi.c ****                            ((uint32_t)SyncUnmask->LineStartUnmask << DCMI_ESUR_LSU_Pos)|\
 1264              		.loc 1 832 0 discriminator 2
 1265 0016 0468     		ldr	r4, [r0]
 1266 0018 0B78     		ldrb	r3, [r1]	@ zero_extendqisi2
ARM GAS  /tmp/cczl6hC8.s 			page 46


 833:/home/phong/Documents/thesis/stm32f4/stm-idf/components/stm32f4xx_hal_driver/stm32f4xx_hal_dcmi.c ****                            ((uint32_t)SyncUnmask->LineEndUnmask << DCMI_ESUR_LEU_Pos)|\
 1267              		.loc 1 833 0 discriminator 2
 1268 001a 4D78     		ldrb	r5, [r1, #1]	@ zero_extendqisi2
 832:/home/phong/Documents/thesis/stm32f4/stm-idf/components/stm32f4xx_hal_driver/stm32f4xx_hal_dcmi.c ****                            ((uint32_t)SyncUnmask->LineStartUnmask << DCMI_ESUR_LSU_Pos)|\
 1269              		.loc 1 832 0 discriminator 2
 1270 001c 43EA0523 		orr	r3, r3, r5, lsl #8
 834:/home/phong/Documents/thesis/stm32f4/stm-idf/components/stm32f4xx_hal_driver/stm32f4xx_hal_dcmi.c ****                            ((uint32_t)SyncUnmask->FrameEndUnmask << DCMI_ESUR_FEU_Pos));
 1271              		.loc 1 834 0 discriminator 2
 1272 0020 8D78     		ldrb	r5, [r1, #2]	@ zero_extendqisi2
 833:/home/phong/Documents/thesis/stm32f4/stm-idf/components/stm32f4xx_hal_driver/stm32f4xx_hal_dcmi.c ****                            ((uint32_t)SyncUnmask->LineEndUnmask << DCMI_ESUR_LEU_Pos)|\
 1273              		.loc 1 833 0 discriminator 2
 1274 0022 43EA0543 		orr	r3, r3, r5, lsl #16
 835:/home/phong/Documents/thesis/stm32f4/stm-idf/components/stm32f4xx_hal_driver/stm32f4xx_hal_dcmi.c **** 
 1275              		.loc 1 835 0 discriminator 2
 1276 0026 C978     		ldrb	r1, [r1, #3]	@ zero_extendqisi2
 1277              	.LVL96:
 834:/home/phong/Documents/thesis/stm32f4/stm-idf/components/stm32f4xx_hal_driver/stm32f4xx_hal_dcmi.c ****                            ((uint32_t)SyncUnmask->FrameEndUnmask << DCMI_ESUR_FEU_Pos));
 1278              		.loc 1 834 0 discriminator 2
 1279 0028 43EA0163 		orr	r3, r3, r1, lsl #24
 832:/home/phong/Documents/thesis/stm32f4/stm-idf/components/stm32f4xx_hal_driver/stm32f4xx_hal_dcmi.c ****                            ((uint32_t)SyncUnmask->LineStartUnmask << DCMI_ESUR_LSU_Pos)|\
 1280              		.loc 1 832 0 discriminator 2
 1281 002c E361     		str	r3, [r4, #28]
 838:/home/phong/Documents/thesis/stm32f4/stm-idf/components/stm32f4xx_hal_driver/stm32f4xx_hal_dcmi.c **** 
 1282              		.loc 1 838 0 discriminator 2
 1283 002e 80F82520 		strb	r2, [r0, #37]
 841:/home/phong/Documents/thesis/stm32f4/stm-idf/components/stm32f4xx_hal_driver/stm32f4xx_hal_dcmi.c **** 
 1284              		.loc 1 841 0 discriminator 2
 1285 0032 0023     		movs	r3, #0
 1286 0034 80F82430 		strb	r3, [r0, #36]
 843:/home/phong/Documents/thesis/stm32f4/stm-idf/components/stm32f4xx_hal_driver/stm32f4xx_hal_dcmi.c **** }
 1287              		.loc 1 843 0 discriminator 2
 1288 0038 1846     		mov	r0, r3
 1289              	.LVL97:
 844:/home/phong/Documents/thesis/stm32f4/stm-idf/components/stm32f4xx_hal_driver/stm32f4xx_hal_dcmi.c **** 
 1290              		.loc 1 844 0 discriminator 2
 1291 003a 30BC     		pop	{r4, r5}
 1292              	.LCFI21:
 1293              		.cfi_restore 5
 1294              		.cfi_restore 4
 1295              		.cfi_def_cfa_offset 0
 1296 003c 7047     		bx	lr
 1297              	.LVL98:
 1298              	.L97:
 826:/home/phong/Documents/thesis/stm32f4/stm-idf/components/stm32f4xx_hal_driver/stm32f4xx_hal_dcmi.c **** 
 1299              		.loc 1 826 0
 1300 003e 0220     		movs	r0, #2
 1301              	.LVL99:
 1302 0040 7047     		bx	lr
 1303              		.cfi_endproc
 1304              	.LFE146:
 1306              		.section	.text.HAL_DCMI_GetState,"ax",%progbits
 1307              		.align	1
 1308              		.global	HAL_DCMI_GetState
 1309              		.syntax unified
 1310              		.thumb
 1311              		.thumb_func
 1312              		.fpu fpv4-sp-d16
ARM GAS  /tmp/cczl6hC8.s 			page 47


 1314              	HAL_DCMI_GetState:
 1315              	.LFB147:
 873:/home/phong/Documents/thesis/stm32f4/stm-idf/components/stm32f4xx_hal_driver/stm32f4xx_hal_dcmi.c ****   return hdcmi->State;
 1316              		.loc 1 873 0
 1317              		.cfi_startproc
 1318              		@ args = 0, pretend = 0, frame = 0
 1319              		@ frame_needed = 0, uses_anonymous_args = 0
 1320              		@ link register save eliminated.
 1321              	.LVL100:
 874:/home/phong/Documents/thesis/stm32f4/stm-idf/components/stm32f4xx_hal_driver/stm32f4xx_hal_dcmi.c **** }
 1322              		.loc 1 874 0
 1323 0000 90F82500 		ldrb	r0, [r0, #37]	@ zero_extendqisi2
 1324              	.LVL101:
 875:/home/phong/Documents/thesis/stm32f4/stm-idf/components/stm32f4xx_hal_driver/stm32f4xx_hal_dcmi.c **** 
 1325              		.loc 1 875 0
 1326 0004 7047     		bx	lr
 1327              		.cfi_endproc
 1328              	.LFE147:
 1330              		.section	.text.HAL_DCMI_GetError,"ax",%progbits
 1331              		.align	1
 1332              		.global	HAL_DCMI_GetError
 1333              		.syntax unified
 1334              		.thumb
 1335              		.thumb_func
 1336              		.fpu fpv4-sp-d16
 1338              	HAL_DCMI_GetError:
 1339              	.LFB148:
 884:/home/phong/Documents/thesis/stm32f4/stm-idf/components/stm32f4xx_hal_driver/stm32f4xx_hal_dcmi.c ****   return hdcmi->ErrorCode;
 1340              		.loc 1 884 0
 1341              		.cfi_startproc
 1342              		@ args = 0, pretend = 0, frame = 0
 1343              		@ frame_needed = 0, uses_anonymous_args = 0
 1344              		@ link register save eliminated.
 1345              	.LVL102:
 885:/home/phong/Documents/thesis/stm32f4/stm-idf/components/stm32f4xx_hal_driver/stm32f4xx_hal_dcmi.c **** }
 1346              		.loc 1 885 0
 1347 0000 C06B     		ldr	r0, [r0, #60]
 1348              	.LVL103:
 886:/home/phong/Documents/thesis/stm32f4/stm-idf/components/stm32f4xx_hal_driver/stm32f4xx_hal_dcmi.c **** 
 1349              		.loc 1 886 0
 1350 0002 7047     		bx	lr
 1351              		.cfi_endproc
 1352              	.LFE148:
 1354              		.text
 1355              	.Letext0:
 1356              		.file 2 "/home/phong/Documents/thesis/stm32f4/stm-idf/components/newlib/include/machine/_default_t
 1357              		.file 3 "/home/phong/Documents/thesis/stm32f4/stm-idf/components/newlib/include/sys/_stdint.h"
 1358              		.file 4 "/home/phong/Documents/thesis/stm32f4/stm-idf/components/cmsis/include/core_cm4.h"
 1359              		.file 5 "/home/phong/Documents/thesis/stm32f4/stm-idf/components/cmsis/device/stm32/stm32f4xx/incl
 1360              		.file 6 "/home/phong/Documents/thesis/stm32f4/stm-idf/components/cmsis/device/stm32/stm32f4xx/incl
 1361              		.file 7 "/home/phong/Documents/thesis/stm32f4/stm-idf/components/stm32f4xx_hal_driver/include/stm3
 1362              		.file 8 "/home/phong/Documents/thesis/stm32f4/stm-idf/components/stm32f4xx_hal_driver/include/stm3
 1363              		.file 9 "/home/phong/Documents/thesis/stm32f4/stm-idf/components/stm32f4xx_hal_driver/include/stm3
 1364              		.file 10 "/home/phong/Documents/thesis/stm32f4/stm-idf/components/stm32f4xx_hal_driver/include/stm
 1365              		.file 11 "/home/phong/Documents/thesis/stm32f4/stm-idf/components/stm32f4xx_hal_driver/include/stm
 1366              		.file 12 "/home/phong/Documents/thesis/stm32f4/stm-idf/components/stm32f4xx_hal_driver/include/stm
ARM GAS  /tmp/cczl6hC8.s 			page 48


DEFINED SYMBOLS
                            *ABS*:0000000000000000 stm32f4xx_hal_dcmi.c
     /tmp/cczl6hC8.s:18     .text.DCMI_DMAXferCplt:0000000000000000 $t
     /tmp/cczl6hC8.s:24     .text.DCMI_DMAXferCplt:0000000000000000 DCMI_DMAXferCplt
     /tmp/cczl6hC8.s:153    .text.HAL_DCMI_MspInit:0000000000000000 $t
     /tmp/cczl6hC8.s:160    .text.HAL_DCMI_MspInit:0000000000000000 HAL_DCMI_MspInit
     /tmp/cczl6hC8.s:173    .text.HAL_DCMI_Init:0000000000000000 $t
     /tmp/cczl6hC8.s:180    .text.HAL_DCMI_Init:0000000000000000 HAL_DCMI_Init
     /tmp/cczl6hC8.s:301    .text.HAL_DCMI_MspDeInit:0000000000000000 $t
     /tmp/cczl6hC8.s:308    .text.HAL_DCMI_MspDeInit:0000000000000000 HAL_DCMI_MspDeInit
     /tmp/cczl6hC8.s:321    .text.HAL_DCMI_DeInit:0000000000000000 $t
     /tmp/cczl6hC8.s:328    .text.HAL_DCMI_DeInit:0000000000000000 HAL_DCMI_DeInit
     /tmp/cczl6hC8.s:358    .text.HAL_DCMI_Start_DMA:0000000000000000 $t
     /tmp/cczl6hC8.s:365    .text.HAL_DCMI_Start_DMA:0000000000000000 HAL_DCMI_Start_DMA
     /tmp/cczl6hC8.s:514    .text.HAL_DCMI_Start_DMA:00000000000000b8 $d
     /tmp/cczl6hC8.s:833    .text.DCMI_DMAError:0000000000000000 DCMI_DMAError
     /tmp/cczl6hC8.s:520    .text.HAL_DCMI_Stop:0000000000000000 $t
     /tmp/cczl6hC8.s:527    .text.HAL_DCMI_Stop:0000000000000000 HAL_DCMI_Stop
     /tmp/cczl6hC8.s:632    .text.HAL_DCMI_Stop:0000000000000080 $d
     /tmp/cczl6hC8.s:638    .text.HAL_DCMI_Suspend:0000000000000000 $t
     /tmp/cczl6hC8.s:645    .text.HAL_DCMI_Suspend:0000000000000000 HAL_DCMI_Suspend
     /tmp/cczl6hC8.s:745    .text.HAL_DCMI_Suspend:0000000000000074 $d
     /tmp/cczl6hC8.s:751    .text.HAL_DCMI_Resume:0000000000000000 $t
     /tmp/cczl6hC8.s:758    .text.HAL_DCMI_Resume:0000000000000000 HAL_DCMI_Resume
     /tmp/cczl6hC8.s:807    .text.HAL_DCMI_ErrorCallback:0000000000000000 $t
     /tmp/cczl6hC8.s:814    .text.HAL_DCMI_ErrorCallback:0000000000000000 HAL_DCMI_ErrorCallback
     /tmp/cczl6hC8.s:827    .text.DCMI_DMAError:0000000000000000 $t
     /tmp/cczl6hC8.s:866    .text.HAL_DCMI_LineEventCallback:0000000000000000 $t
     /tmp/cczl6hC8.s:873    .text.HAL_DCMI_LineEventCallback:0000000000000000 HAL_DCMI_LineEventCallback
     /tmp/cczl6hC8.s:886    .text.HAL_DCMI_VsyncEventCallback:0000000000000000 $t
     /tmp/cczl6hC8.s:893    .text.HAL_DCMI_VsyncEventCallback:0000000000000000 HAL_DCMI_VsyncEventCallback
     /tmp/cczl6hC8.s:906    .text.HAL_DCMI_FrameEventCallback:0000000000000000 $t
     /tmp/cczl6hC8.s:913    .text.HAL_DCMI_FrameEventCallback:0000000000000000 HAL_DCMI_FrameEventCallback
     /tmp/cczl6hC8.s:926    .text.HAL_DCMI_IRQHandler:0000000000000000 $t
     /tmp/cczl6hC8.s:933    .text.HAL_DCMI_IRQHandler:0000000000000000 HAL_DCMI_IRQHandler
     /tmp/cczl6hC8.s:1059   .text.HAL_DCMI_IRQHandler:00000000000000a8 $d
     /tmp/cczl6hC8.s:1064   .text.HAL_DCMI_ConfigCrop:0000000000000000 $t
     /tmp/cczl6hC8.s:1071   .text.HAL_DCMI_ConfigCrop:0000000000000000 HAL_DCMI_ConfigCrop
     /tmp/cczl6hC8.s:1133   .text.HAL_DCMI_DisableCrop:0000000000000000 $t
     /tmp/cczl6hC8.s:1140   .text.HAL_DCMI_DisableCrop:0000000000000000 HAL_DCMI_DisableCrop
     /tmp/cczl6hC8.s:1183   .text.HAL_DCMI_EnableCrop:0000000000000000 $t
     /tmp/cczl6hC8.s:1190   .text.HAL_DCMI_EnableCrop:0000000000000000 HAL_DCMI_EnableCrop
     /tmp/cczl6hC8.s:1233   .text.HAL_DCMI_ConfigSyncUnmask:0000000000000000 $t
     /tmp/cczl6hC8.s:1240   .text.HAL_DCMI_ConfigSyncUnmask:0000000000000000 HAL_DCMI_ConfigSyncUnmask
     /tmp/cczl6hC8.s:1307   .text.HAL_DCMI_GetState:0000000000000000 $t
     /tmp/cczl6hC8.s:1314   .text.HAL_DCMI_GetState:0000000000000000 HAL_DCMI_GetState
     /tmp/cczl6hC8.s:1331   .text.HAL_DCMI_GetError:0000000000000000 $t
     /tmp/cczl6hC8.s:1338   .text.HAL_DCMI_GetError:0000000000000000 HAL_DCMI_GetError
                     .debug_frame:0000000000000010 $d

UNDEFINED SYMBOLS
HAL_DMAEx_ChangeMemory
HAL_DMA_Start_IT
HAL_DMAEx_MultiBufferStart_IT
HAL_DMA_Abort
SystemCoreClock
HAL_DMA_Abort_IT
ARM GAS  /tmp/cczl6hC8.s 			page 49


