ARM GAS  /tmp/ccyFKXfi.s 			page 1


   1              		.cpu cortex-m4
   2              		.eabi_attribute 27, 1
   3              		.eabi_attribute 28, 1
   4              		.eabi_attribute 20, 1
   5              		.eabi_attribute 21, 1
   6              		.eabi_attribute 23, 3
   7              		.eabi_attribute 24, 1
   8              		.eabi_attribute 25, 1
   9              		.eabi_attribute 26, 1
  10              		.eabi_attribute 30, 1
  11              		.eabi_attribute 34, 1
  12              		.eabi_attribute 18, 4
  13              		.file	"stm32f4xx_hal_i2s_ex.c"
  14              		.text
  15              	.Ltext0:
  16              		.cfi_sections	.debug_frame
  17              		.section	.text.I2SEx_FullDuplexWaitFlagStateUntilTimeout,"ax",%progbits
  18              		.align	1
  19              		.syntax unified
  20              		.thumb
  21              		.thumb_func
  22              		.fpu fpv4-sp-d16
  24              	I2SEx_FullDuplexWaitFlagStateUntilTimeout:
  25              	.LFB143:
  26              		.file 1 "/home/phong/Documents/thesis/stm32f4/stm-idf/components/stm32f4xx_hal_driver/stm32f4xx_ha
   1:/home/phong/Documents/thesis/stm32f4/stm-idf/components/stm32f4xx_hal_driver/stm32f4xx_hal_i2s_ex.c **** /**
   2:/home/phong/Documents/thesis/stm32f4/stm-idf/components/stm32f4xx_hal_driver/stm32f4xx_hal_i2s_ex.c ****   ******************************************************************************
   3:/home/phong/Documents/thesis/stm32f4/stm-idf/components/stm32f4xx_hal_driver/stm32f4xx_hal_i2s_ex.c ****   * @file    stm32f4xx_hal_i2s_ex.c
   4:/home/phong/Documents/thesis/stm32f4/stm-idf/components/stm32f4xx_hal_driver/stm32f4xx_hal_i2s_ex.c ****   * @author  MCD Application Team
   5:/home/phong/Documents/thesis/stm32f4/stm-idf/components/stm32f4xx_hal_driver/stm32f4xx_hal_i2s_ex.c ****   * @brief   I2S HAL module driver.
   6:/home/phong/Documents/thesis/stm32f4/stm-idf/components/stm32f4xx_hal_driver/stm32f4xx_hal_i2s_ex.c ****   *          This file provides firmware functions to manage the following
   7:/home/phong/Documents/thesis/stm32f4/stm-idf/components/stm32f4xx_hal_driver/stm32f4xx_hal_i2s_ex.c ****   *          functionalities of I2S extension peripheral:
   8:/home/phong/Documents/thesis/stm32f4/stm-idf/components/stm32f4xx_hal_driver/stm32f4xx_hal_i2s_ex.c ****   *           + Extension features Functions
   9:/home/phong/Documents/thesis/stm32f4/stm-idf/components/stm32f4xx_hal_driver/stm32f4xx_hal_i2s_ex.c ****   *
  10:/home/phong/Documents/thesis/stm32f4/stm-idf/components/stm32f4xx_hal_driver/stm32f4xx_hal_i2s_ex.c ****   @verbatim
  11:/home/phong/Documents/thesis/stm32f4/stm-idf/components/stm32f4xx_hal_driver/stm32f4xx_hal_i2s_ex.c ****   ==============================================================================
  12:/home/phong/Documents/thesis/stm32f4/stm-idf/components/stm32f4xx_hal_driver/stm32f4xx_hal_i2s_ex.c ****                     ##### I2S Extension features #####
  13:/home/phong/Documents/thesis/stm32f4/stm-idf/components/stm32f4xx_hal_driver/stm32f4xx_hal_i2s_ex.c ****   ==============================================================================
  14:/home/phong/Documents/thesis/stm32f4/stm-idf/components/stm32f4xx_hal_driver/stm32f4xx_hal_i2s_ex.c ****   [..]
  15:/home/phong/Documents/thesis/stm32f4/stm-idf/components/stm32f4xx_hal_driver/stm32f4xx_hal_i2s_ex.c ****      (#) In I2S full duplex mode, each SPI peripheral is able to manage sending and receiving
  16:/home/phong/Documents/thesis/stm32f4/stm-idf/components/stm32f4xx_hal_driver/stm32f4xx_hal_i2s_ex.c ****          data simultaneously using two data lines. Each SPI peripheral has an extended block
  17:/home/phong/Documents/thesis/stm32f4/stm-idf/components/stm32f4xx_hal_driver/stm32f4xx_hal_i2s_ex.c ****          called I2Sxext (i.e I2S2ext for SPI2 and I2S3ext for SPI3).
  18:/home/phong/Documents/thesis/stm32f4/stm-idf/components/stm32f4xx_hal_driver/stm32f4xx_hal_i2s_ex.c ****      (#) The extension block is not a full SPI IP, it is used only as I2S slave to
  19:/home/phong/Documents/thesis/stm32f4/stm-idf/components/stm32f4xx_hal_driver/stm32f4xx_hal_i2s_ex.c ****          implement full duplex mode. The extension block uses the same clock sources
  20:/home/phong/Documents/thesis/stm32f4/stm-idf/components/stm32f4xx_hal_driver/stm32f4xx_hal_i2s_ex.c ****          as its master.
  21:/home/phong/Documents/thesis/stm32f4/stm-idf/components/stm32f4xx_hal_driver/stm32f4xx_hal_i2s_ex.c **** 
  22:/home/phong/Documents/thesis/stm32f4/stm-idf/components/stm32f4xx_hal_driver/stm32f4xx_hal_i2s_ex.c ****      (#) Both I2Sx and I2Sx_ext can be configured as transmitters or receivers.
  23:/home/phong/Documents/thesis/stm32f4/stm-idf/components/stm32f4xx_hal_driver/stm32f4xx_hal_i2s_ex.c **** 
  24:/home/phong/Documents/thesis/stm32f4/stm-idf/components/stm32f4xx_hal_driver/stm32f4xx_hal_i2s_ex.c ****      [..]
  25:/home/phong/Documents/thesis/stm32f4/stm-idf/components/stm32f4xx_hal_driver/stm32f4xx_hal_i2s_ex.c ****        (@) Only I2Sx can deliver SCK and WS to I2Sx_ext in full duplex mode, where
  26:/home/phong/Documents/thesis/stm32f4/stm-idf/components/stm32f4xx_hal_driver/stm32f4xx_hal_i2s_ex.c ****          I2Sx can be I2S2 or I2S3.
  27:/home/phong/Documents/thesis/stm32f4/stm-idf/components/stm32f4xx_hal_driver/stm32f4xx_hal_i2s_ex.c **** 
  28:/home/phong/Documents/thesis/stm32f4/stm-idf/components/stm32f4xx_hal_driver/stm32f4xx_hal_i2s_ex.c ****                   ##### How to use this driver #####
  29:/home/phong/Documents/thesis/stm32f4/stm-idf/components/stm32f4xx_hal_driver/stm32f4xx_hal_i2s_ex.c ****  ===============================================================================
  30:/home/phong/Documents/thesis/stm32f4/stm-idf/components/stm32f4xx_hal_driver/stm32f4xx_hal_i2s_ex.c ****  [..]
  31:/home/phong/Documents/thesis/stm32f4/stm-idf/components/stm32f4xx_hal_driver/stm32f4xx_hal_i2s_ex.c ****    Three operation modes are available within this driver :
  32:/home/phong/Documents/thesis/stm32f4/stm-idf/components/stm32f4xx_hal_driver/stm32f4xx_hal_i2s_ex.c **** 
ARM GAS  /tmp/ccyFKXfi.s 			page 2


  33:/home/phong/Documents/thesis/stm32f4/stm-idf/components/stm32f4xx_hal_driver/stm32f4xx_hal_i2s_ex.c ****    *** Polling mode IO operation ***
  34:/home/phong/Documents/thesis/stm32f4/stm-idf/components/stm32f4xx_hal_driver/stm32f4xx_hal_i2s_ex.c ****    =================================
  35:/home/phong/Documents/thesis/stm32f4/stm-idf/components/stm32f4xx_hal_driver/stm32f4xx_hal_i2s_ex.c ****    [..]
  36:/home/phong/Documents/thesis/stm32f4/stm-idf/components/stm32f4xx_hal_driver/stm32f4xx_hal_i2s_ex.c ****      (+) Send and receive in the same time an amount of data in blocking mode using HAL_I2SEx_Trans
  37:/home/phong/Documents/thesis/stm32f4/stm-idf/components/stm32f4xx_hal_driver/stm32f4xx_hal_i2s_ex.c **** 
  38:/home/phong/Documents/thesis/stm32f4/stm-idf/components/stm32f4xx_hal_driver/stm32f4xx_hal_i2s_ex.c ****    *** Interrupt mode IO operation ***
  39:/home/phong/Documents/thesis/stm32f4/stm-idf/components/stm32f4xx_hal_driver/stm32f4xx_hal_i2s_ex.c ****    ===================================
  40:/home/phong/Documents/thesis/stm32f4/stm-idf/components/stm32f4xx_hal_driver/stm32f4xx_hal_i2s_ex.c ****    [..]
  41:/home/phong/Documents/thesis/stm32f4/stm-idf/components/stm32f4xx_hal_driver/stm32f4xx_hal_i2s_ex.c ****      (+) Send and receive in the same time an amount of data in non blocking mode using HAL_I2SEx_T
  42:/home/phong/Documents/thesis/stm32f4/stm-idf/components/stm32f4xx_hal_driver/stm32f4xx_hal_i2s_ex.c ****      (+) At transmission/reception end of transfer HAL_I2SEx_TxRxCpltCallback is executed and user 
  43:/home/phong/Documents/thesis/stm32f4/stm-idf/components/stm32f4xx_hal_driver/stm32f4xx_hal_i2s_ex.c ****          add his own code by customization of function pointer HAL_I2SEx_TxRxCpltCallback
  44:/home/phong/Documents/thesis/stm32f4/stm-idf/components/stm32f4xx_hal_driver/stm32f4xx_hal_i2s_ex.c ****      (+) In case of transfer Error, HAL_I2S_ErrorCallback() function is executed and user can
  45:/home/phong/Documents/thesis/stm32f4/stm-idf/components/stm32f4xx_hal_driver/stm32f4xx_hal_i2s_ex.c ****          add his own code by customization of function pointer HAL_I2S_ErrorCallback
  46:/home/phong/Documents/thesis/stm32f4/stm-idf/components/stm32f4xx_hal_driver/stm32f4xx_hal_i2s_ex.c **** 
  47:/home/phong/Documents/thesis/stm32f4/stm-idf/components/stm32f4xx_hal_driver/stm32f4xx_hal_i2s_ex.c ****    *** DMA mode IO operation ***
  48:/home/phong/Documents/thesis/stm32f4/stm-idf/components/stm32f4xx_hal_driver/stm32f4xx_hal_i2s_ex.c ****    ==============================
  49:/home/phong/Documents/thesis/stm32f4/stm-idf/components/stm32f4xx_hal_driver/stm32f4xx_hal_i2s_ex.c ****    [..]
  50:/home/phong/Documents/thesis/stm32f4/stm-idf/components/stm32f4xx_hal_driver/stm32f4xx_hal_i2s_ex.c ****      (+) Send and receive an amount of data in non blocking mode (DMA) using HAL_I2SEx_TransmitRece
  51:/home/phong/Documents/thesis/stm32f4/stm-idf/components/stm32f4xx_hal_driver/stm32f4xx_hal_i2s_ex.c ****      (+) At transmission/reception end of transfer HAL_I2SEx_TxRxCpltCallback is executed and user 
  52:/home/phong/Documents/thesis/stm32f4/stm-idf/components/stm32f4xx_hal_driver/stm32f4xx_hal_i2s_ex.c ****          add his own code by customization of function pointer HAL_I2S_TxRxCpltCallback
  53:/home/phong/Documents/thesis/stm32f4/stm-idf/components/stm32f4xx_hal_driver/stm32f4xx_hal_i2s_ex.c ****      (+) In case of transfer Error, HAL_I2S_ErrorCallback() function is executed and user can
  54:/home/phong/Documents/thesis/stm32f4/stm-idf/components/stm32f4xx_hal_driver/stm32f4xx_hal_i2s_ex.c ****          add his own code by customization of function pointer HAL_I2S_ErrorCallback
  55:/home/phong/Documents/thesis/stm32f4/stm-idf/components/stm32f4xx_hal_driver/stm32f4xx_hal_i2s_ex.c ****   @endverbatim
  56:/home/phong/Documents/thesis/stm32f4/stm-idf/components/stm32f4xx_hal_driver/stm32f4xx_hal_i2s_ex.c **** 
  57:/home/phong/Documents/thesis/stm32f4/stm-idf/components/stm32f4xx_hal_driver/stm32f4xx_hal_i2s_ex.c ****  Additional Figure: The Extended block uses the same clock sources as its master.
  58:/home/phong/Documents/thesis/stm32f4/stm-idf/components/stm32f4xx_hal_driver/stm32f4xx_hal_i2s_ex.c **** 
  59:/home/phong/Documents/thesis/stm32f4/stm-idf/components/stm32f4xx_hal_driver/stm32f4xx_hal_i2s_ex.c ****                 +-----------------------+
  60:/home/phong/Documents/thesis/stm32f4/stm-idf/components/stm32f4xx_hal_driver/stm32f4xx_hal_i2s_ex.c ****     I2Sx_SCK    |                       |
  61:/home/phong/Documents/thesis/stm32f4/stm-idf/components/stm32f4xx_hal_driver/stm32f4xx_hal_i2s_ex.c ****  ----------+-->|          I2Sx         |------------------->I2Sx_SD(in/out)
  62:/home/phong/Documents/thesis/stm32f4/stm-idf/components/stm32f4xx_hal_driver/stm32f4xx_hal_i2s_ex.c ****          +--|-->|                       |
  63:/home/phong/Documents/thesis/stm32f4/stm-idf/components/stm32f4xx_hal_driver/stm32f4xx_hal_i2s_ex.c ****         |   |   +-----------------------+
  64:/home/phong/Documents/thesis/stm32f4/stm-idf/components/stm32f4xx_hal_driver/stm32f4xx_hal_i2s_ex.c ****         |   |
  65:/home/phong/Documents/thesis/stm32f4/stm-idf/components/stm32f4xx_hal_driver/stm32f4xx_hal_i2s_ex.c ****  I2S_WS |   |
  66:/home/phong/Documents/thesis/stm32f4/stm-idf/components/stm32f4xx_hal_driver/stm32f4xx_hal_i2s_ex.c ****  ------>|   |
  67:/home/phong/Documents/thesis/stm32f4/stm-idf/components/stm32f4xx_hal_driver/stm32f4xx_hal_i2s_ex.c ****         |   |   +-----------------------+
  68:/home/phong/Documents/thesis/stm32f4/stm-idf/components/stm32f4xx_hal_driver/stm32f4xx_hal_i2s_ex.c ****         |   +-->|                       |
  69:/home/phong/Documents/thesis/stm32f4/stm-idf/components/stm32f4xx_hal_driver/stm32f4xx_hal_i2s_ex.c ****         |       |       I2Sx_ext        |------------------->I2Sx_extSD(in/out)
  70:/home/phong/Documents/thesis/stm32f4/stm-idf/components/stm32f4xx_hal_driver/stm32f4xx_hal_i2s_ex.c ****          +----->|                       |
  71:/home/phong/Documents/thesis/stm32f4/stm-idf/components/stm32f4xx_hal_driver/stm32f4xx_hal_i2s_ex.c ****                 +-----------------------+
  72:/home/phong/Documents/thesis/stm32f4/stm-idf/components/stm32f4xx_hal_driver/stm32f4xx_hal_i2s_ex.c ****   ******************************************************************************
  73:/home/phong/Documents/thesis/stm32f4/stm-idf/components/stm32f4xx_hal_driver/stm32f4xx_hal_i2s_ex.c ****   * @attention
  74:/home/phong/Documents/thesis/stm32f4/stm-idf/components/stm32f4xx_hal_driver/stm32f4xx_hal_i2s_ex.c ****   *
  75:/home/phong/Documents/thesis/stm32f4/stm-idf/components/stm32f4xx_hal_driver/stm32f4xx_hal_i2s_ex.c ****   * <h2><center>&copy; Copyright (c) 2016 STMicroelectronics.
  76:/home/phong/Documents/thesis/stm32f4/stm-idf/components/stm32f4xx_hal_driver/stm32f4xx_hal_i2s_ex.c ****   * All rights reserved.</center></h2>
  77:/home/phong/Documents/thesis/stm32f4/stm-idf/components/stm32f4xx_hal_driver/stm32f4xx_hal_i2s_ex.c ****   *
  78:/home/phong/Documents/thesis/stm32f4/stm-idf/components/stm32f4xx_hal_driver/stm32f4xx_hal_i2s_ex.c ****   * This software component is licensed by ST under BSD 3-Clause license,
  79:/home/phong/Documents/thesis/stm32f4/stm-idf/components/stm32f4xx_hal_driver/stm32f4xx_hal_i2s_ex.c ****   * the "License"; You may not use this file except in compliance with the
  80:/home/phong/Documents/thesis/stm32f4/stm-idf/components/stm32f4xx_hal_driver/stm32f4xx_hal_i2s_ex.c ****   * License. You may obtain a copy of the License at:
  81:/home/phong/Documents/thesis/stm32f4/stm-idf/components/stm32f4xx_hal_driver/stm32f4xx_hal_i2s_ex.c ****   *                        opensource.org/licenses/BSD-3-Clause
  82:/home/phong/Documents/thesis/stm32f4/stm-idf/components/stm32f4xx_hal_driver/stm32f4xx_hal_i2s_ex.c ****   *
  83:/home/phong/Documents/thesis/stm32f4/stm-idf/components/stm32f4xx_hal_driver/stm32f4xx_hal_i2s_ex.c ****   ******************************************************************************
  84:/home/phong/Documents/thesis/stm32f4/stm-idf/components/stm32f4xx_hal_driver/stm32f4xx_hal_i2s_ex.c ****   */
  85:/home/phong/Documents/thesis/stm32f4/stm-idf/components/stm32f4xx_hal_driver/stm32f4xx_hal_i2s_ex.c **** 
  86:/home/phong/Documents/thesis/stm32f4/stm-idf/components/stm32f4xx_hal_driver/stm32f4xx_hal_i2s_ex.c **** /* Includes ------------------------------------------------------------------*/
  87:/home/phong/Documents/thesis/stm32f4/stm-idf/components/stm32f4xx_hal_driver/stm32f4xx_hal_i2s_ex.c **** #include "stm32f4xx_hal.h"
  88:/home/phong/Documents/thesis/stm32f4/stm-idf/components/stm32f4xx_hal_driver/stm32f4xx_hal_i2s_ex.c **** 
  89:/home/phong/Documents/thesis/stm32f4/stm-idf/components/stm32f4xx_hal_driver/stm32f4xx_hal_i2s_ex.c **** /** @addtogroup STM32F4xx_HAL_Driver
ARM GAS  /tmp/ccyFKXfi.s 			page 3


  90:/home/phong/Documents/thesis/stm32f4/stm-idf/components/stm32f4xx_hal_driver/stm32f4xx_hal_i2s_ex.c ****   * @{
  91:/home/phong/Documents/thesis/stm32f4/stm-idf/components/stm32f4xx_hal_driver/stm32f4xx_hal_i2s_ex.c ****   */
  92:/home/phong/Documents/thesis/stm32f4/stm-idf/components/stm32f4xx_hal_driver/stm32f4xx_hal_i2s_ex.c **** 
  93:/home/phong/Documents/thesis/stm32f4/stm-idf/components/stm32f4xx_hal_driver/stm32f4xx_hal_i2s_ex.c **** #ifdef HAL_I2S_MODULE_ENABLED
  94:/home/phong/Documents/thesis/stm32f4/stm-idf/components/stm32f4xx_hal_driver/stm32f4xx_hal_i2s_ex.c **** 
  95:/home/phong/Documents/thesis/stm32f4/stm-idf/components/stm32f4xx_hal_driver/stm32f4xx_hal_i2s_ex.c **** /** @defgroup I2SEx I2SEx
  96:/home/phong/Documents/thesis/stm32f4/stm-idf/components/stm32f4xx_hal_driver/stm32f4xx_hal_i2s_ex.c ****   * @brief I2S Extended HAL module driver
  97:/home/phong/Documents/thesis/stm32f4/stm-idf/components/stm32f4xx_hal_driver/stm32f4xx_hal_i2s_ex.c ****   * @{
  98:/home/phong/Documents/thesis/stm32f4/stm-idf/components/stm32f4xx_hal_driver/stm32f4xx_hal_i2s_ex.c ****   */
  99:/home/phong/Documents/thesis/stm32f4/stm-idf/components/stm32f4xx_hal_driver/stm32f4xx_hal_i2s_ex.c **** 
 100:/home/phong/Documents/thesis/stm32f4/stm-idf/components/stm32f4xx_hal_driver/stm32f4xx_hal_i2s_ex.c **** #if defined (SPI_I2S_FULLDUPLEX_SUPPORT)
 101:/home/phong/Documents/thesis/stm32f4/stm-idf/components/stm32f4xx_hal_driver/stm32f4xx_hal_i2s_ex.c **** 
 102:/home/phong/Documents/thesis/stm32f4/stm-idf/components/stm32f4xx_hal_driver/stm32f4xx_hal_i2s_ex.c **** /* Private typedef -----------------------------------------------------------*/
 103:/home/phong/Documents/thesis/stm32f4/stm-idf/components/stm32f4xx_hal_driver/stm32f4xx_hal_i2s_ex.c **** /** @defgroup I2SEx_Private_Typedef I2S Extended Private Typedef
 104:/home/phong/Documents/thesis/stm32f4/stm-idf/components/stm32f4xx_hal_driver/stm32f4xx_hal_i2s_ex.c ****   * @{
 105:/home/phong/Documents/thesis/stm32f4/stm-idf/components/stm32f4xx_hal_driver/stm32f4xx_hal_i2s_ex.c ****   */
 106:/home/phong/Documents/thesis/stm32f4/stm-idf/components/stm32f4xx_hal_driver/stm32f4xx_hal_i2s_ex.c **** typedef enum
 107:/home/phong/Documents/thesis/stm32f4/stm-idf/components/stm32f4xx_hal_driver/stm32f4xx_hal_i2s_ex.c **** {
 108:/home/phong/Documents/thesis/stm32f4/stm-idf/components/stm32f4xx_hal_driver/stm32f4xx_hal_i2s_ex.c ****   I2S_USE_I2S      = 0x00U,   /*!< I2Sx should be used      */
 109:/home/phong/Documents/thesis/stm32f4/stm-idf/components/stm32f4xx_hal_driver/stm32f4xx_hal_i2s_ex.c ****   I2S_USE_I2SEXT   = 0x01U,   /*!< I2Sx_ext should be used  */
 110:/home/phong/Documents/thesis/stm32f4/stm-idf/components/stm32f4xx_hal_driver/stm32f4xx_hal_i2s_ex.c **** } I2S_UseTypeDef;
 111:/home/phong/Documents/thesis/stm32f4/stm-idf/components/stm32f4xx_hal_driver/stm32f4xx_hal_i2s_ex.c **** /**
 112:/home/phong/Documents/thesis/stm32f4/stm-idf/components/stm32f4xx_hal_driver/stm32f4xx_hal_i2s_ex.c ****   * @}
 113:/home/phong/Documents/thesis/stm32f4/stm-idf/components/stm32f4xx_hal_driver/stm32f4xx_hal_i2s_ex.c ****   */
 114:/home/phong/Documents/thesis/stm32f4/stm-idf/components/stm32f4xx_hal_driver/stm32f4xx_hal_i2s_ex.c **** /* Private define ------------------------------------------------------------*/
 115:/home/phong/Documents/thesis/stm32f4/stm-idf/components/stm32f4xx_hal_driver/stm32f4xx_hal_i2s_ex.c **** /* Private macro -------------------------------------------------------------*/
 116:/home/phong/Documents/thesis/stm32f4/stm-idf/components/stm32f4xx_hal_driver/stm32f4xx_hal_i2s_ex.c **** /* Private variables ---------------------------------------------------------*/
 117:/home/phong/Documents/thesis/stm32f4/stm-idf/components/stm32f4xx_hal_driver/stm32f4xx_hal_i2s_ex.c **** /* Private function prototypes -----------------------------------------------*/
 118:/home/phong/Documents/thesis/stm32f4/stm-idf/components/stm32f4xx_hal_driver/stm32f4xx_hal_i2s_ex.c **** /** @defgroup I2SEx_Private_Functions I2S Extended Private Functions
 119:/home/phong/Documents/thesis/stm32f4/stm-idf/components/stm32f4xx_hal_driver/stm32f4xx_hal_i2s_ex.c ****   * @{
 120:/home/phong/Documents/thesis/stm32f4/stm-idf/components/stm32f4xx_hal_driver/stm32f4xx_hal_i2s_ex.c ****   */
 121:/home/phong/Documents/thesis/stm32f4/stm-idf/components/stm32f4xx_hal_driver/stm32f4xx_hal_i2s_ex.c **** static void I2SEx_TxRxDMAHalfCplt(DMA_HandleTypeDef *hdma);
 122:/home/phong/Documents/thesis/stm32f4/stm-idf/components/stm32f4xx_hal_driver/stm32f4xx_hal_i2s_ex.c **** static void I2SEx_TxRxDMACplt(DMA_HandleTypeDef *hdma);
 123:/home/phong/Documents/thesis/stm32f4/stm-idf/components/stm32f4xx_hal_driver/stm32f4xx_hal_i2s_ex.c **** static void I2SEx_TxRxDMAError(DMA_HandleTypeDef *hdma);
 124:/home/phong/Documents/thesis/stm32f4/stm-idf/components/stm32f4xx_hal_driver/stm32f4xx_hal_i2s_ex.c **** static void I2SEx_RxISR_I2S(I2S_HandleTypeDef *hi2s);
 125:/home/phong/Documents/thesis/stm32f4/stm-idf/components/stm32f4xx_hal_driver/stm32f4xx_hal_i2s_ex.c **** static void I2SEx_RxISR_I2SExt(I2S_HandleTypeDef *hi2s);
 126:/home/phong/Documents/thesis/stm32f4/stm-idf/components/stm32f4xx_hal_driver/stm32f4xx_hal_i2s_ex.c **** static void I2SEx_TxISR_I2S(I2S_HandleTypeDef *hi2s);
 127:/home/phong/Documents/thesis/stm32f4/stm-idf/components/stm32f4xx_hal_driver/stm32f4xx_hal_i2s_ex.c **** static void I2SEx_TxISR_I2SExt(I2S_HandleTypeDef *hi2s);
 128:/home/phong/Documents/thesis/stm32f4/stm-idf/components/stm32f4xx_hal_driver/stm32f4xx_hal_i2s_ex.c **** static HAL_StatusTypeDef I2SEx_FullDuplexWaitFlagStateUntilTimeout(I2S_HandleTypeDef *hi2s, uint32_
 129:/home/phong/Documents/thesis/stm32f4/stm-idf/components/stm32f4xx_hal_driver/stm32f4xx_hal_i2s_ex.c ****                                                                    uint32_t State, uint32_t Timeout
 130:/home/phong/Documents/thesis/stm32f4/stm-idf/components/stm32f4xx_hal_driver/stm32f4xx_hal_i2s_ex.c **** /**
 131:/home/phong/Documents/thesis/stm32f4/stm-idf/components/stm32f4xx_hal_driver/stm32f4xx_hal_i2s_ex.c ****   * @}
 132:/home/phong/Documents/thesis/stm32f4/stm-idf/components/stm32f4xx_hal_driver/stm32f4xx_hal_i2s_ex.c ****   */
 133:/home/phong/Documents/thesis/stm32f4/stm-idf/components/stm32f4xx_hal_driver/stm32f4xx_hal_i2s_ex.c **** 
 134:/home/phong/Documents/thesis/stm32f4/stm-idf/components/stm32f4xx_hal_driver/stm32f4xx_hal_i2s_ex.c **** /**
 135:/home/phong/Documents/thesis/stm32f4/stm-idf/components/stm32f4xx_hal_driver/stm32f4xx_hal_i2s_ex.c ****   * @}
 136:/home/phong/Documents/thesis/stm32f4/stm-idf/components/stm32f4xx_hal_driver/stm32f4xx_hal_i2s_ex.c ****   */
 137:/home/phong/Documents/thesis/stm32f4/stm-idf/components/stm32f4xx_hal_driver/stm32f4xx_hal_i2s_ex.c **** 
 138:/home/phong/Documents/thesis/stm32f4/stm-idf/components/stm32f4xx_hal_driver/stm32f4xx_hal_i2s_ex.c **** /* Private functions ---------------------------------------------------------*/
 139:/home/phong/Documents/thesis/stm32f4/stm-idf/components/stm32f4xx_hal_driver/stm32f4xx_hal_i2s_ex.c **** /* Exported functions --------------------------------------------------------*/
 140:/home/phong/Documents/thesis/stm32f4/stm-idf/components/stm32f4xx_hal_driver/stm32f4xx_hal_i2s_ex.c **** 
 141:/home/phong/Documents/thesis/stm32f4/stm-idf/components/stm32f4xx_hal_driver/stm32f4xx_hal_i2s_ex.c **** /** @addtogroup I2SEx I2SEx
 142:/home/phong/Documents/thesis/stm32f4/stm-idf/components/stm32f4xx_hal_driver/stm32f4xx_hal_i2s_ex.c ****   * @{
 143:/home/phong/Documents/thesis/stm32f4/stm-idf/components/stm32f4xx_hal_driver/stm32f4xx_hal_i2s_ex.c ****   */
 144:/home/phong/Documents/thesis/stm32f4/stm-idf/components/stm32f4xx_hal_driver/stm32f4xx_hal_i2s_ex.c **** 
 145:/home/phong/Documents/thesis/stm32f4/stm-idf/components/stm32f4xx_hal_driver/stm32f4xx_hal_i2s_ex.c **** /** @addtogroup I2SEx_Exported_Functions I2S Extended Exported Functions
 146:/home/phong/Documents/thesis/stm32f4/stm-idf/components/stm32f4xx_hal_driver/stm32f4xx_hal_i2s_ex.c ****   * @{
ARM GAS  /tmp/ccyFKXfi.s 			page 4


 147:/home/phong/Documents/thesis/stm32f4/stm-idf/components/stm32f4xx_hal_driver/stm32f4xx_hal_i2s_ex.c ****   */
 148:/home/phong/Documents/thesis/stm32f4/stm-idf/components/stm32f4xx_hal_driver/stm32f4xx_hal_i2s_ex.c **** 
 149:/home/phong/Documents/thesis/stm32f4/stm-idf/components/stm32f4xx_hal_driver/stm32f4xx_hal_i2s_ex.c **** /** @defgroup I2SEx_Exported_Functions_Group1 I2S Extended IO operation functions
 150:/home/phong/Documents/thesis/stm32f4/stm-idf/components/stm32f4xx_hal_driver/stm32f4xx_hal_i2s_ex.c ****   *  @brief   I2SEx IO operation functions
 151:/home/phong/Documents/thesis/stm32f4/stm-idf/components/stm32f4xx_hal_driver/stm32f4xx_hal_i2s_ex.c ****   *
 152:/home/phong/Documents/thesis/stm32f4/stm-idf/components/stm32f4xx_hal_driver/stm32f4xx_hal_i2s_ex.c **** @verbatim
 153:/home/phong/Documents/thesis/stm32f4/stm-idf/components/stm32f4xx_hal_driver/stm32f4xx_hal_i2s_ex.c ****  ===============================================================================
 154:/home/phong/Documents/thesis/stm32f4/stm-idf/components/stm32f4xx_hal_driver/stm32f4xx_hal_i2s_ex.c ****                        ##### IO operation functions#####
 155:/home/phong/Documents/thesis/stm32f4/stm-idf/components/stm32f4xx_hal_driver/stm32f4xx_hal_i2s_ex.c ****  ===============================================================================
 156:/home/phong/Documents/thesis/stm32f4/stm-idf/components/stm32f4xx_hal_driver/stm32f4xx_hal_i2s_ex.c ****     [..]
 157:/home/phong/Documents/thesis/stm32f4/stm-idf/components/stm32f4xx_hal_driver/stm32f4xx_hal_i2s_ex.c ****     This subsection provides a set of functions allowing to manage the I2S data
 158:/home/phong/Documents/thesis/stm32f4/stm-idf/components/stm32f4xx_hal_driver/stm32f4xx_hal_i2s_ex.c ****     transfers.
 159:/home/phong/Documents/thesis/stm32f4/stm-idf/components/stm32f4xx_hal_driver/stm32f4xx_hal_i2s_ex.c **** 
 160:/home/phong/Documents/thesis/stm32f4/stm-idf/components/stm32f4xx_hal_driver/stm32f4xx_hal_i2s_ex.c ****     (#) There are two modes of transfer:
 161:/home/phong/Documents/thesis/stm32f4/stm-idf/components/stm32f4xx_hal_driver/stm32f4xx_hal_i2s_ex.c ****        (++) Blocking mode : The communication is performed in the polling mode.
 162:/home/phong/Documents/thesis/stm32f4/stm-idf/components/stm32f4xx_hal_driver/stm32f4xx_hal_i2s_ex.c ****             The status of all data processing is returned by the same function
 163:/home/phong/Documents/thesis/stm32f4/stm-idf/components/stm32f4xx_hal_driver/stm32f4xx_hal_i2s_ex.c ****             after finishing transfer.
 164:/home/phong/Documents/thesis/stm32f4/stm-idf/components/stm32f4xx_hal_driver/stm32f4xx_hal_i2s_ex.c ****        (++) No-Blocking mode : The communication is performed using Interrupts
 165:/home/phong/Documents/thesis/stm32f4/stm-idf/components/stm32f4xx_hal_driver/stm32f4xx_hal_i2s_ex.c ****             or DMA. These functions return the status of the transfer startup.
 166:/home/phong/Documents/thesis/stm32f4/stm-idf/components/stm32f4xx_hal_driver/stm32f4xx_hal_i2s_ex.c ****             The end of the data processing will be indicated through the
 167:/home/phong/Documents/thesis/stm32f4/stm-idf/components/stm32f4xx_hal_driver/stm32f4xx_hal_i2s_ex.c ****             dedicated I2S IRQ when using Interrupt mode or the DMA IRQ when
 168:/home/phong/Documents/thesis/stm32f4/stm-idf/components/stm32f4xx_hal_driver/stm32f4xx_hal_i2s_ex.c ****             using DMA mode.
 169:/home/phong/Documents/thesis/stm32f4/stm-idf/components/stm32f4xx_hal_driver/stm32f4xx_hal_i2s_ex.c **** 
 170:/home/phong/Documents/thesis/stm32f4/stm-idf/components/stm32f4xx_hal_driver/stm32f4xx_hal_i2s_ex.c ****     (#) Blocking mode functions are :
 171:/home/phong/Documents/thesis/stm32f4/stm-idf/components/stm32f4xx_hal_driver/stm32f4xx_hal_i2s_ex.c ****         (++) HAL_I2SEx_TransmitReceive()
 172:/home/phong/Documents/thesis/stm32f4/stm-idf/components/stm32f4xx_hal_driver/stm32f4xx_hal_i2s_ex.c **** 
 173:/home/phong/Documents/thesis/stm32f4/stm-idf/components/stm32f4xx_hal_driver/stm32f4xx_hal_i2s_ex.c ****     (#) No-Blocking mode functions with Interrupt are :
 174:/home/phong/Documents/thesis/stm32f4/stm-idf/components/stm32f4xx_hal_driver/stm32f4xx_hal_i2s_ex.c ****         (++) HAL_I2SEx_TransmitReceive_IT()
 175:/home/phong/Documents/thesis/stm32f4/stm-idf/components/stm32f4xx_hal_driver/stm32f4xx_hal_i2s_ex.c ****         (++) HAL_I2SEx_FullDuplex_IRQHandler()
 176:/home/phong/Documents/thesis/stm32f4/stm-idf/components/stm32f4xx_hal_driver/stm32f4xx_hal_i2s_ex.c **** 
 177:/home/phong/Documents/thesis/stm32f4/stm-idf/components/stm32f4xx_hal_driver/stm32f4xx_hal_i2s_ex.c ****     (#) No-Blocking mode functions with DMA are :
 178:/home/phong/Documents/thesis/stm32f4/stm-idf/components/stm32f4xx_hal_driver/stm32f4xx_hal_i2s_ex.c ****         (++) HAL_I2SEx_TransmitReceive_DMA()
 179:/home/phong/Documents/thesis/stm32f4/stm-idf/components/stm32f4xx_hal_driver/stm32f4xx_hal_i2s_ex.c **** 
 180:/home/phong/Documents/thesis/stm32f4/stm-idf/components/stm32f4xx_hal_driver/stm32f4xx_hal_i2s_ex.c ****     (#) A set of Transfer Complete Callback are provided in non Blocking mode:
 181:/home/phong/Documents/thesis/stm32f4/stm-idf/components/stm32f4xx_hal_driver/stm32f4xx_hal_i2s_ex.c ****         (++) HAL_I2SEx_TxRxCpltCallback()
 182:/home/phong/Documents/thesis/stm32f4/stm-idf/components/stm32f4xx_hal_driver/stm32f4xx_hal_i2s_ex.c **** @endverbatim
 183:/home/phong/Documents/thesis/stm32f4/stm-idf/components/stm32f4xx_hal_driver/stm32f4xx_hal_i2s_ex.c ****   * @{
 184:/home/phong/Documents/thesis/stm32f4/stm-idf/components/stm32f4xx_hal_driver/stm32f4xx_hal_i2s_ex.c ****   */
 185:/home/phong/Documents/thesis/stm32f4/stm-idf/components/stm32f4xx_hal_driver/stm32f4xx_hal_i2s_ex.c **** /**
 186:/home/phong/Documents/thesis/stm32f4/stm-idf/components/stm32f4xx_hal_driver/stm32f4xx_hal_i2s_ex.c ****   * @brief  Full-Duplex Transmit/Receive data in blocking mode.
 187:/home/phong/Documents/thesis/stm32f4/stm-idf/components/stm32f4xx_hal_driver/stm32f4xx_hal_i2s_ex.c ****   * @param  hi2s pointer to a I2S_HandleTypeDef structure that contains
 188:/home/phong/Documents/thesis/stm32f4/stm-idf/components/stm32f4xx_hal_driver/stm32f4xx_hal_i2s_ex.c ****   *         the configuration information for I2S module
 189:/home/phong/Documents/thesis/stm32f4/stm-idf/components/stm32f4xx_hal_driver/stm32f4xx_hal_i2s_ex.c ****   * @param  pTxData a 16-bit pointer to the Transmit data buffer.
 190:/home/phong/Documents/thesis/stm32f4/stm-idf/components/stm32f4xx_hal_driver/stm32f4xx_hal_i2s_ex.c ****   * @param  pRxData a 16-bit pointer to the Receive data buffer.
 191:/home/phong/Documents/thesis/stm32f4/stm-idf/components/stm32f4xx_hal_driver/stm32f4xx_hal_i2s_ex.c ****   * @param  Size number of data sample to be sent:
 192:/home/phong/Documents/thesis/stm32f4/stm-idf/components/stm32f4xx_hal_driver/stm32f4xx_hal_i2s_ex.c ****   * @note   When a 16-bit data frame or a 16-bit data frame extended is selected during the I2S
 193:/home/phong/Documents/thesis/stm32f4/stm-idf/components/stm32f4xx_hal_driver/stm32f4xx_hal_i2s_ex.c ****   *         configuration phase, the Size parameter means the number of 16-bit data length
 194:/home/phong/Documents/thesis/stm32f4/stm-idf/components/stm32f4xx_hal_driver/stm32f4xx_hal_i2s_ex.c ****   *         in the transaction and when a 24-bit data frame or a 32-bit data frame is selected
 195:/home/phong/Documents/thesis/stm32f4/stm-idf/components/stm32f4xx_hal_driver/stm32f4xx_hal_i2s_ex.c ****   *         the Size parameter means the number of 16-bit data length.
 196:/home/phong/Documents/thesis/stm32f4/stm-idf/components/stm32f4xx_hal_driver/stm32f4xx_hal_i2s_ex.c ****   * @param  Timeout Timeout duration
 197:/home/phong/Documents/thesis/stm32f4/stm-idf/components/stm32f4xx_hal_driver/stm32f4xx_hal_i2s_ex.c ****   * @note   The I2S is kept enabled at the end of transaction to avoid the clock de-synchronization
 198:/home/phong/Documents/thesis/stm32f4/stm-idf/components/stm32f4xx_hal_driver/stm32f4xx_hal_i2s_ex.c ****   *         between Master and Slave(example: audio streaming).
 199:/home/phong/Documents/thesis/stm32f4/stm-idf/components/stm32f4xx_hal_driver/stm32f4xx_hal_i2s_ex.c ****   * @retval HAL status
 200:/home/phong/Documents/thesis/stm32f4/stm-idf/components/stm32f4xx_hal_driver/stm32f4xx_hal_i2s_ex.c ****   */
 201:/home/phong/Documents/thesis/stm32f4/stm-idf/components/stm32f4xx_hal_driver/stm32f4xx_hal_i2s_ex.c **** HAL_StatusTypeDef HAL_I2SEx_TransmitReceive(I2S_HandleTypeDef *hi2s, uint16_t *pTxData, uint16_t *p
 202:/home/phong/Documents/thesis/stm32f4/stm-idf/components/stm32f4xx_hal_driver/stm32f4xx_hal_i2s_ex.c ****                                             uint16_t Size, uint32_t Timeout)
 203:/home/phong/Documents/thesis/stm32f4/stm-idf/components/stm32f4xx_hal_driver/stm32f4xx_hal_i2s_ex.c **** {
ARM GAS  /tmp/ccyFKXfi.s 			page 5


 204:/home/phong/Documents/thesis/stm32f4/stm-idf/components/stm32f4xx_hal_driver/stm32f4xx_hal_i2s_ex.c ****   uint32_t tmp1 = 0U;
 205:/home/phong/Documents/thesis/stm32f4/stm-idf/components/stm32f4xx_hal_driver/stm32f4xx_hal_i2s_ex.c ****   HAL_StatusTypeDef errorcode = HAL_OK;
 206:/home/phong/Documents/thesis/stm32f4/stm-idf/components/stm32f4xx_hal_driver/stm32f4xx_hal_i2s_ex.c **** 
 207:/home/phong/Documents/thesis/stm32f4/stm-idf/components/stm32f4xx_hal_driver/stm32f4xx_hal_i2s_ex.c ****   if (hi2s->State != HAL_I2S_STATE_READY)
 208:/home/phong/Documents/thesis/stm32f4/stm-idf/components/stm32f4xx_hal_driver/stm32f4xx_hal_i2s_ex.c ****   {
 209:/home/phong/Documents/thesis/stm32f4/stm-idf/components/stm32f4xx_hal_driver/stm32f4xx_hal_i2s_ex.c ****     errorcode = HAL_BUSY;
 210:/home/phong/Documents/thesis/stm32f4/stm-idf/components/stm32f4xx_hal_driver/stm32f4xx_hal_i2s_ex.c ****     goto error;
 211:/home/phong/Documents/thesis/stm32f4/stm-idf/components/stm32f4xx_hal_driver/stm32f4xx_hal_i2s_ex.c ****   }
 212:/home/phong/Documents/thesis/stm32f4/stm-idf/components/stm32f4xx_hal_driver/stm32f4xx_hal_i2s_ex.c **** 
 213:/home/phong/Documents/thesis/stm32f4/stm-idf/components/stm32f4xx_hal_driver/stm32f4xx_hal_i2s_ex.c ****   if ((pTxData == NULL) || (pRxData == NULL) || (Size == 0U))
 214:/home/phong/Documents/thesis/stm32f4/stm-idf/components/stm32f4xx_hal_driver/stm32f4xx_hal_i2s_ex.c ****   {
 215:/home/phong/Documents/thesis/stm32f4/stm-idf/components/stm32f4xx_hal_driver/stm32f4xx_hal_i2s_ex.c ****     return  HAL_ERROR;
 216:/home/phong/Documents/thesis/stm32f4/stm-idf/components/stm32f4xx_hal_driver/stm32f4xx_hal_i2s_ex.c ****   }
 217:/home/phong/Documents/thesis/stm32f4/stm-idf/components/stm32f4xx_hal_driver/stm32f4xx_hal_i2s_ex.c **** 
 218:/home/phong/Documents/thesis/stm32f4/stm-idf/components/stm32f4xx_hal_driver/stm32f4xx_hal_i2s_ex.c ****   /* Process Locked */
 219:/home/phong/Documents/thesis/stm32f4/stm-idf/components/stm32f4xx_hal_driver/stm32f4xx_hal_i2s_ex.c ****   __HAL_LOCK(hi2s);
 220:/home/phong/Documents/thesis/stm32f4/stm-idf/components/stm32f4xx_hal_driver/stm32f4xx_hal_i2s_ex.c **** 
 221:/home/phong/Documents/thesis/stm32f4/stm-idf/components/stm32f4xx_hal_driver/stm32f4xx_hal_i2s_ex.c ****   tmp1 = hi2s->Instance->I2SCFGR & (SPI_I2SCFGR_DATLEN | SPI_I2SCFGR_CHLEN);
 222:/home/phong/Documents/thesis/stm32f4/stm-idf/components/stm32f4xx_hal_driver/stm32f4xx_hal_i2s_ex.c ****   /* Check the Data format: When a 16-bit data frame or a 16-bit data frame extended
 223:/home/phong/Documents/thesis/stm32f4/stm-idf/components/stm32f4xx_hal_driver/stm32f4xx_hal_i2s_ex.c ****      is selected during the I2S configuration phase, the Size parameter means the number
 224:/home/phong/Documents/thesis/stm32f4/stm-idf/components/stm32f4xx_hal_driver/stm32f4xx_hal_i2s_ex.c ****      of 16-bit data length in the transaction and when a 24-bit data frame or a 32-bit data
 225:/home/phong/Documents/thesis/stm32f4/stm-idf/components/stm32f4xx_hal_driver/stm32f4xx_hal_i2s_ex.c ****      frame is selected the Size parameter means the number of 16-bit data length. */
 226:/home/phong/Documents/thesis/stm32f4/stm-idf/components/stm32f4xx_hal_driver/stm32f4xx_hal_i2s_ex.c ****   if ((tmp1 == I2S_DATAFORMAT_24B) || (tmp1 == I2S_DATAFORMAT_32B))
 227:/home/phong/Documents/thesis/stm32f4/stm-idf/components/stm32f4xx_hal_driver/stm32f4xx_hal_i2s_ex.c ****   {
 228:/home/phong/Documents/thesis/stm32f4/stm-idf/components/stm32f4xx_hal_driver/stm32f4xx_hal_i2s_ex.c ****     hi2s->TxXferSize  = (Size << 1U);
 229:/home/phong/Documents/thesis/stm32f4/stm-idf/components/stm32f4xx_hal_driver/stm32f4xx_hal_i2s_ex.c ****     hi2s->TxXferCount = (Size << 1U);
 230:/home/phong/Documents/thesis/stm32f4/stm-idf/components/stm32f4xx_hal_driver/stm32f4xx_hal_i2s_ex.c ****     hi2s->RxXferSize  = (Size << 1U);
 231:/home/phong/Documents/thesis/stm32f4/stm-idf/components/stm32f4xx_hal_driver/stm32f4xx_hal_i2s_ex.c ****     hi2s->RxXferCount = (Size << 1U);
 232:/home/phong/Documents/thesis/stm32f4/stm-idf/components/stm32f4xx_hal_driver/stm32f4xx_hal_i2s_ex.c ****   }
 233:/home/phong/Documents/thesis/stm32f4/stm-idf/components/stm32f4xx_hal_driver/stm32f4xx_hal_i2s_ex.c ****   else
 234:/home/phong/Documents/thesis/stm32f4/stm-idf/components/stm32f4xx_hal_driver/stm32f4xx_hal_i2s_ex.c ****   {
 235:/home/phong/Documents/thesis/stm32f4/stm-idf/components/stm32f4xx_hal_driver/stm32f4xx_hal_i2s_ex.c ****     hi2s->TxXferSize  = Size;
 236:/home/phong/Documents/thesis/stm32f4/stm-idf/components/stm32f4xx_hal_driver/stm32f4xx_hal_i2s_ex.c ****     hi2s->TxXferCount = Size;
 237:/home/phong/Documents/thesis/stm32f4/stm-idf/components/stm32f4xx_hal_driver/stm32f4xx_hal_i2s_ex.c ****     hi2s->RxXferSize  = Size;
 238:/home/phong/Documents/thesis/stm32f4/stm-idf/components/stm32f4xx_hal_driver/stm32f4xx_hal_i2s_ex.c ****     hi2s->RxXferCount = Size;
 239:/home/phong/Documents/thesis/stm32f4/stm-idf/components/stm32f4xx_hal_driver/stm32f4xx_hal_i2s_ex.c ****   }
 240:/home/phong/Documents/thesis/stm32f4/stm-idf/components/stm32f4xx_hal_driver/stm32f4xx_hal_i2s_ex.c **** 
 241:/home/phong/Documents/thesis/stm32f4/stm-idf/components/stm32f4xx_hal_driver/stm32f4xx_hal_i2s_ex.c ****   /* Set state and reset error code */
 242:/home/phong/Documents/thesis/stm32f4/stm-idf/components/stm32f4xx_hal_driver/stm32f4xx_hal_i2s_ex.c ****   hi2s->ErrorCode = HAL_I2S_ERROR_NONE;
 243:/home/phong/Documents/thesis/stm32f4/stm-idf/components/stm32f4xx_hal_driver/stm32f4xx_hal_i2s_ex.c ****   hi2s->State = HAL_I2S_STATE_BUSY_TX_RX;
 244:/home/phong/Documents/thesis/stm32f4/stm-idf/components/stm32f4xx_hal_driver/stm32f4xx_hal_i2s_ex.c **** 
 245:/home/phong/Documents/thesis/stm32f4/stm-idf/components/stm32f4xx_hal_driver/stm32f4xx_hal_i2s_ex.c ****   tmp1 = hi2s->Instance->I2SCFGR & SPI_I2SCFGR_I2SCFG;
 246:/home/phong/Documents/thesis/stm32f4/stm-idf/components/stm32f4xx_hal_driver/stm32f4xx_hal_i2s_ex.c ****   /* Check if the I2S_MODE_MASTER_TX or I2S_MODE_SLAVE_TX Mode is selected */
 247:/home/phong/Documents/thesis/stm32f4/stm-idf/components/stm32f4xx_hal_driver/stm32f4xx_hal_i2s_ex.c ****   if ((tmp1 == I2S_MODE_MASTER_TX) || (tmp1 == I2S_MODE_SLAVE_TX))
 248:/home/phong/Documents/thesis/stm32f4/stm-idf/components/stm32f4xx_hal_driver/stm32f4xx_hal_i2s_ex.c ****   {
 249:/home/phong/Documents/thesis/stm32f4/stm-idf/components/stm32f4xx_hal_driver/stm32f4xx_hal_i2s_ex.c ****     /* Prepare the First Data before enabling the I2S */
 250:/home/phong/Documents/thesis/stm32f4/stm-idf/components/stm32f4xx_hal_driver/stm32f4xx_hal_i2s_ex.c ****     hi2s->Instance->DR = (*pTxData++);
 251:/home/phong/Documents/thesis/stm32f4/stm-idf/components/stm32f4xx_hal_driver/stm32f4xx_hal_i2s_ex.c ****     hi2s->TxXferCount--;
 252:/home/phong/Documents/thesis/stm32f4/stm-idf/components/stm32f4xx_hal_driver/stm32f4xx_hal_i2s_ex.c **** 
 253:/home/phong/Documents/thesis/stm32f4/stm-idf/components/stm32f4xx_hal_driver/stm32f4xx_hal_i2s_ex.c ****     /* Enable I2Sext(receiver) before enabling I2Sx peripheral */
 254:/home/phong/Documents/thesis/stm32f4/stm-idf/components/stm32f4xx_hal_driver/stm32f4xx_hal_i2s_ex.c ****     __HAL_I2SEXT_ENABLE(hi2s);
 255:/home/phong/Documents/thesis/stm32f4/stm-idf/components/stm32f4xx_hal_driver/stm32f4xx_hal_i2s_ex.c **** 
 256:/home/phong/Documents/thesis/stm32f4/stm-idf/components/stm32f4xx_hal_driver/stm32f4xx_hal_i2s_ex.c ****     /* Enable I2Sx peripheral */
 257:/home/phong/Documents/thesis/stm32f4/stm-idf/components/stm32f4xx_hal_driver/stm32f4xx_hal_i2s_ex.c ****     __HAL_I2S_ENABLE(hi2s);
 258:/home/phong/Documents/thesis/stm32f4/stm-idf/components/stm32f4xx_hal_driver/stm32f4xx_hal_i2s_ex.c **** 
 259:/home/phong/Documents/thesis/stm32f4/stm-idf/components/stm32f4xx_hal_driver/stm32f4xx_hal_i2s_ex.c ****     /* Check if Master Receiver mode is selected */
 260:/home/phong/Documents/thesis/stm32f4/stm-idf/components/stm32f4xx_hal_driver/stm32f4xx_hal_i2s_ex.c ****     if ((hi2s->Instance->I2SCFGR & SPI_I2SCFGR_I2SCFG) == I2S_MODE_MASTER_TX)
ARM GAS  /tmp/ccyFKXfi.s 			page 6


 261:/home/phong/Documents/thesis/stm32f4/stm-idf/components/stm32f4xx_hal_driver/stm32f4xx_hal_i2s_ex.c ****     {
 262:/home/phong/Documents/thesis/stm32f4/stm-idf/components/stm32f4xx_hal_driver/stm32f4xx_hal_i2s_ex.c ****       /* Clear the Overrun Flag by a read operation on the SPI_DR register followed by a read
 263:/home/phong/Documents/thesis/stm32f4/stm-idf/components/stm32f4xx_hal_driver/stm32f4xx_hal_i2s_ex.c ****       access to the SPI_SR register. */
 264:/home/phong/Documents/thesis/stm32f4/stm-idf/components/stm32f4xx_hal_driver/stm32f4xx_hal_i2s_ex.c ****       __HAL_I2SEXT_CLEAR_OVRFLAG(hi2s);
 265:/home/phong/Documents/thesis/stm32f4/stm-idf/components/stm32f4xx_hal_driver/stm32f4xx_hal_i2s_ex.c ****     }
 266:/home/phong/Documents/thesis/stm32f4/stm-idf/components/stm32f4xx_hal_driver/stm32f4xx_hal_i2s_ex.c **** 
 267:/home/phong/Documents/thesis/stm32f4/stm-idf/components/stm32f4xx_hal_driver/stm32f4xx_hal_i2s_ex.c ****     while ((hi2s->RxXferCount > 0U) || (hi2s->TxXferCount > 0U))
 268:/home/phong/Documents/thesis/stm32f4/stm-idf/components/stm32f4xx_hal_driver/stm32f4xx_hal_i2s_ex.c ****     {
 269:/home/phong/Documents/thesis/stm32f4/stm-idf/components/stm32f4xx_hal_driver/stm32f4xx_hal_i2s_ex.c ****       if (hi2s->TxXferCount > 0U)
 270:/home/phong/Documents/thesis/stm32f4/stm-idf/components/stm32f4xx_hal_driver/stm32f4xx_hal_i2s_ex.c ****       {
 271:/home/phong/Documents/thesis/stm32f4/stm-idf/components/stm32f4xx_hal_driver/stm32f4xx_hal_i2s_ex.c ****         /* Wait until TXE flag is set */
 272:/home/phong/Documents/thesis/stm32f4/stm-idf/components/stm32f4xx_hal_driver/stm32f4xx_hal_i2s_ex.c ****         if (I2SEx_FullDuplexWaitFlagStateUntilTimeout(hi2s, I2S_FLAG_TXE, SET, Timeout, I2S_USE_I2S
 273:/home/phong/Documents/thesis/stm32f4/stm-idf/components/stm32f4xx_hal_driver/stm32f4xx_hal_i2s_ex.c ****         {
 274:/home/phong/Documents/thesis/stm32f4/stm-idf/components/stm32f4xx_hal_driver/stm32f4xx_hal_i2s_ex.c ****           /* Set the error code */
 275:/home/phong/Documents/thesis/stm32f4/stm-idf/components/stm32f4xx_hal_driver/stm32f4xx_hal_i2s_ex.c ****           SET_BIT(hi2s->ErrorCode, HAL_I2S_ERROR_TIMEOUT);
 276:/home/phong/Documents/thesis/stm32f4/stm-idf/components/stm32f4xx_hal_driver/stm32f4xx_hal_i2s_ex.c ****           errorcode = HAL_ERROR;
 277:/home/phong/Documents/thesis/stm32f4/stm-idf/components/stm32f4xx_hal_driver/stm32f4xx_hal_i2s_ex.c ****           goto error;
 278:/home/phong/Documents/thesis/stm32f4/stm-idf/components/stm32f4xx_hal_driver/stm32f4xx_hal_i2s_ex.c ****         }
 279:/home/phong/Documents/thesis/stm32f4/stm-idf/components/stm32f4xx_hal_driver/stm32f4xx_hal_i2s_ex.c ****         /* Write Data on DR register */
 280:/home/phong/Documents/thesis/stm32f4/stm-idf/components/stm32f4xx_hal_driver/stm32f4xx_hal_i2s_ex.c ****         hi2s->Instance->DR = (*pTxData++);
 281:/home/phong/Documents/thesis/stm32f4/stm-idf/components/stm32f4xx_hal_driver/stm32f4xx_hal_i2s_ex.c ****         hi2s->TxXferCount--;
 282:/home/phong/Documents/thesis/stm32f4/stm-idf/components/stm32f4xx_hal_driver/stm32f4xx_hal_i2s_ex.c **** 
 283:/home/phong/Documents/thesis/stm32f4/stm-idf/components/stm32f4xx_hal_driver/stm32f4xx_hal_i2s_ex.c ****         /* Check if an underrun occurs */
 284:/home/phong/Documents/thesis/stm32f4/stm-idf/components/stm32f4xx_hal_driver/stm32f4xx_hal_i2s_ex.c ****         if ((__HAL_I2S_GET_FLAG(hi2s, I2S_FLAG_UDR) == SET) && (tmp1 == I2S_MODE_SLAVE_TX))
 285:/home/phong/Documents/thesis/stm32f4/stm-idf/components/stm32f4xx_hal_driver/stm32f4xx_hal_i2s_ex.c ****         {
 286:/home/phong/Documents/thesis/stm32f4/stm-idf/components/stm32f4xx_hal_driver/stm32f4xx_hal_i2s_ex.c ****           /* Clear Underrun flag */
 287:/home/phong/Documents/thesis/stm32f4/stm-idf/components/stm32f4xx_hal_driver/stm32f4xx_hal_i2s_ex.c ****           __HAL_I2S_CLEAR_UDRFLAG(hi2s);
 288:/home/phong/Documents/thesis/stm32f4/stm-idf/components/stm32f4xx_hal_driver/stm32f4xx_hal_i2s_ex.c **** 
 289:/home/phong/Documents/thesis/stm32f4/stm-idf/components/stm32f4xx_hal_driver/stm32f4xx_hal_i2s_ex.c ****           /* Set the error code */
 290:/home/phong/Documents/thesis/stm32f4/stm-idf/components/stm32f4xx_hal_driver/stm32f4xx_hal_i2s_ex.c ****           SET_BIT(hi2s->ErrorCode, HAL_I2S_ERROR_UDR);
 291:/home/phong/Documents/thesis/stm32f4/stm-idf/components/stm32f4xx_hal_driver/stm32f4xx_hal_i2s_ex.c ****         }
 292:/home/phong/Documents/thesis/stm32f4/stm-idf/components/stm32f4xx_hal_driver/stm32f4xx_hal_i2s_ex.c ****       }
 293:/home/phong/Documents/thesis/stm32f4/stm-idf/components/stm32f4xx_hal_driver/stm32f4xx_hal_i2s_ex.c ****       if (hi2s->RxXferCount > 0U)
 294:/home/phong/Documents/thesis/stm32f4/stm-idf/components/stm32f4xx_hal_driver/stm32f4xx_hal_i2s_ex.c ****       {
 295:/home/phong/Documents/thesis/stm32f4/stm-idf/components/stm32f4xx_hal_driver/stm32f4xx_hal_i2s_ex.c ****         /* Wait until RXNE flag is set */
 296:/home/phong/Documents/thesis/stm32f4/stm-idf/components/stm32f4xx_hal_driver/stm32f4xx_hal_i2s_ex.c ****         if (I2SEx_FullDuplexWaitFlagStateUntilTimeout(hi2s, I2S_FLAG_RXNE, SET, Timeout, I2S_USE_I2
 297:/home/phong/Documents/thesis/stm32f4/stm-idf/components/stm32f4xx_hal_driver/stm32f4xx_hal_i2s_ex.c ****         {
 298:/home/phong/Documents/thesis/stm32f4/stm-idf/components/stm32f4xx_hal_driver/stm32f4xx_hal_i2s_ex.c ****           /* Set the error code */
 299:/home/phong/Documents/thesis/stm32f4/stm-idf/components/stm32f4xx_hal_driver/stm32f4xx_hal_i2s_ex.c ****           SET_BIT(hi2s->ErrorCode, HAL_I2S_ERROR_TIMEOUT);
 300:/home/phong/Documents/thesis/stm32f4/stm-idf/components/stm32f4xx_hal_driver/stm32f4xx_hal_i2s_ex.c ****           errorcode = HAL_ERROR;
 301:/home/phong/Documents/thesis/stm32f4/stm-idf/components/stm32f4xx_hal_driver/stm32f4xx_hal_i2s_ex.c ****           goto error;
 302:/home/phong/Documents/thesis/stm32f4/stm-idf/components/stm32f4xx_hal_driver/stm32f4xx_hal_i2s_ex.c ****         }
 303:/home/phong/Documents/thesis/stm32f4/stm-idf/components/stm32f4xx_hal_driver/stm32f4xx_hal_i2s_ex.c ****         /* Read Data from DR register */
 304:/home/phong/Documents/thesis/stm32f4/stm-idf/components/stm32f4xx_hal_driver/stm32f4xx_hal_i2s_ex.c ****         (*pRxData++) = I2SxEXT(hi2s->Instance)->DR;
 305:/home/phong/Documents/thesis/stm32f4/stm-idf/components/stm32f4xx_hal_driver/stm32f4xx_hal_i2s_ex.c ****         hi2s->RxXferCount--;
 306:/home/phong/Documents/thesis/stm32f4/stm-idf/components/stm32f4xx_hal_driver/stm32f4xx_hal_i2s_ex.c **** 
 307:/home/phong/Documents/thesis/stm32f4/stm-idf/components/stm32f4xx_hal_driver/stm32f4xx_hal_i2s_ex.c ****         /* Check if an overrun occurs */
 308:/home/phong/Documents/thesis/stm32f4/stm-idf/components/stm32f4xx_hal_driver/stm32f4xx_hal_i2s_ex.c ****         if (__HAL_I2SEXT_GET_FLAG(hi2s, I2S_FLAG_OVR) == SET)
 309:/home/phong/Documents/thesis/stm32f4/stm-idf/components/stm32f4xx_hal_driver/stm32f4xx_hal_i2s_ex.c ****         {
 310:/home/phong/Documents/thesis/stm32f4/stm-idf/components/stm32f4xx_hal_driver/stm32f4xx_hal_i2s_ex.c ****           /* Clear Overrun flag */
 311:/home/phong/Documents/thesis/stm32f4/stm-idf/components/stm32f4xx_hal_driver/stm32f4xx_hal_i2s_ex.c ****           __HAL_I2S_CLEAR_OVRFLAG(hi2s);
 312:/home/phong/Documents/thesis/stm32f4/stm-idf/components/stm32f4xx_hal_driver/stm32f4xx_hal_i2s_ex.c **** 
 313:/home/phong/Documents/thesis/stm32f4/stm-idf/components/stm32f4xx_hal_driver/stm32f4xx_hal_i2s_ex.c ****           /* Set the error code */
 314:/home/phong/Documents/thesis/stm32f4/stm-idf/components/stm32f4xx_hal_driver/stm32f4xx_hal_i2s_ex.c ****           SET_BIT(hi2s->ErrorCode, HAL_I2S_ERROR_OVR);
 315:/home/phong/Documents/thesis/stm32f4/stm-idf/components/stm32f4xx_hal_driver/stm32f4xx_hal_i2s_ex.c ****         }
 316:/home/phong/Documents/thesis/stm32f4/stm-idf/components/stm32f4xx_hal_driver/stm32f4xx_hal_i2s_ex.c ****       }
 317:/home/phong/Documents/thesis/stm32f4/stm-idf/components/stm32f4xx_hal_driver/stm32f4xx_hal_i2s_ex.c ****     }
ARM GAS  /tmp/ccyFKXfi.s 			page 7


 318:/home/phong/Documents/thesis/stm32f4/stm-idf/components/stm32f4xx_hal_driver/stm32f4xx_hal_i2s_ex.c ****   }
 319:/home/phong/Documents/thesis/stm32f4/stm-idf/components/stm32f4xx_hal_driver/stm32f4xx_hal_i2s_ex.c ****   /* The I2S_MODE_MASTER_RX or I2S_MODE_SLAVE_RX Mode is selected */
 320:/home/phong/Documents/thesis/stm32f4/stm-idf/components/stm32f4xx_hal_driver/stm32f4xx_hal_i2s_ex.c ****   else
 321:/home/phong/Documents/thesis/stm32f4/stm-idf/components/stm32f4xx_hal_driver/stm32f4xx_hal_i2s_ex.c ****   {
 322:/home/phong/Documents/thesis/stm32f4/stm-idf/components/stm32f4xx_hal_driver/stm32f4xx_hal_i2s_ex.c ****     /* Prepare the First Data before enabling the I2S */
 323:/home/phong/Documents/thesis/stm32f4/stm-idf/components/stm32f4xx_hal_driver/stm32f4xx_hal_i2s_ex.c ****     I2SxEXT(hi2s->Instance)->DR = (*pTxData++);
 324:/home/phong/Documents/thesis/stm32f4/stm-idf/components/stm32f4xx_hal_driver/stm32f4xx_hal_i2s_ex.c ****     hi2s->TxXferCount--;
 325:/home/phong/Documents/thesis/stm32f4/stm-idf/components/stm32f4xx_hal_driver/stm32f4xx_hal_i2s_ex.c **** 
 326:/home/phong/Documents/thesis/stm32f4/stm-idf/components/stm32f4xx_hal_driver/stm32f4xx_hal_i2s_ex.c ****     /* Enable I2Sext(transmitter) after enabling I2Sx peripheral */
 327:/home/phong/Documents/thesis/stm32f4/stm-idf/components/stm32f4xx_hal_driver/stm32f4xx_hal_i2s_ex.c ****     __HAL_I2SEXT_ENABLE(hi2s);
 328:/home/phong/Documents/thesis/stm32f4/stm-idf/components/stm32f4xx_hal_driver/stm32f4xx_hal_i2s_ex.c **** 
 329:/home/phong/Documents/thesis/stm32f4/stm-idf/components/stm32f4xx_hal_driver/stm32f4xx_hal_i2s_ex.c ****     /* Enable I2S peripheral before the I2Sext*/
 330:/home/phong/Documents/thesis/stm32f4/stm-idf/components/stm32f4xx_hal_driver/stm32f4xx_hal_i2s_ex.c ****     __HAL_I2S_ENABLE(hi2s);
 331:/home/phong/Documents/thesis/stm32f4/stm-idf/components/stm32f4xx_hal_driver/stm32f4xx_hal_i2s_ex.c **** 
 332:/home/phong/Documents/thesis/stm32f4/stm-idf/components/stm32f4xx_hal_driver/stm32f4xx_hal_i2s_ex.c ****     /* Check if Master Receiver mode is selected */
 333:/home/phong/Documents/thesis/stm32f4/stm-idf/components/stm32f4xx_hal_driver/stm32f4xx_hal_i2s_ex.c ****     if ((hi2s->Instance->I2SCFGR & SPI_I2SCFGR_I2SCFG) == I2S_MODE_MASTER_RX)
 334:/home/phong/Documents/thesis/stm32f4/stm-idf/components/stm32f4xx_hal_driver/stm32f4xx_hal_i2s_ex.c ****     {
 335:/home/phong/Documents/thesis/stm32f4/stm-idf/components/stm32f4xx_hal_driver/stm32f4xx_hal_i2s_ex.c ****       /* Clear the Overrun Flag by a read operation on the SPI_DR register followed by a read
 336:/home/phong/Documents/thesis/stm32f4/stm-idf/components/stm32f4xx_hal_driver/stm32f4xx_hal_i2s_ex.c ****       access to the SPI_SR register. */
 337:/home/phong/Documents/thesis/stm32f4/stm-idf/components/stm32f4xx_hal_driver/stm32f4xx_hal_i2s_ex.c ****       __HAL_I2S_CLEAR_OVRFLAG(hi2s);
 338:/home/phong/Documents/thesis/stm32f4/stm-idf/components/stm32f4xx_hal_driver/stm32f4xx_hal_i2s_ex.c ****     }
 339:/home/phong/Documents/thesis/stm32f4/stm-idf/components/stm32f4xx_hal_driver/stm32f4xx_hal_i2s_ex.c **** 
 340:/home/phong/Documents/thesis/stm32f4/stm-idf/components/stm32f4xx_hal_driver/stm32f4xx_hal_i2s_ex.c ****     while ((hi2s->RxXferCount > 0U) || (hi2s->TxXferCount > 0U))
 341:/home/phong/Documents/thesis/stm32f4/stm-idf/components/stm32f4xx_hal_driver/stm32f4xx_hal_i2s_ex.c ****     {
 342:/home/phong/Documents/thesis/stm32f4/stm-idf/components/stm32f4xx_hal_driver/stm32f4xx_hal_i2s_ex.c ****       if (hi2s->TxXferCount > 0U)
 343:/home/phong/Documents/thesis/stm32f4/stm-idf/components/stm32f4xx_hal_driver/stm32f4xx_hal_i2s_ex.c ****       {
 344:/home/phong/Documents/thesis/stm32f4/stm-idf/components/stm32f4xx_hal_driver/stm32f4xx_hal_i2s_ex.c ****         /* Wait until TXE flag is set */
 345:/home/phong/Documents/thesis/stm32f4/stm-idf/components/stm32f4xx_hal_driver/stm32f4xx_hal_i2s_ex.c ****         if (I2SEx_FullDuplexWaitFlagStateUntilTimeout(hi2s, I2S_FLAG_TXE, SET, Timeout, I2S_USE_I2S
 346:/home/phong/Documents/thesis/stm32f4/stm-idf/components/stm32f4xx_hal_driver/stm32f4xx_hal_i2s_ex.c ****         {
 347:/home/phong/Documents/thesis/stm32f4/stm-idf/components/stm32f4xx_hal_driver/stm32f4xx_hal_i2s_ex.c ****           /* Set the error code */
 348:/home/phong/Documents/thesis/stm32f4/stm-idf/components/stm32f4xx_hal_driver/stm32f4xx_hal_i2s_ex.c ****           SET_BIT(hi2s->ErrorCode, HAL_I2S_ERROR_TIMEOUT);
 349:/home/phong/Documents/thesis/stm32f4/stm-idf/components/stm32f4xx_hal_driver/stm32f4xx_hal_i2s_ex.c ****           errorcode = HAL_ERROR;
 350:/home/phong/Documents/thesis/stm32f4/stm-idf/components/stm32f4xx_hal_driver/stm32f4xx_hal_i2s_ex.c ****           goto error;
 351:/home/phong/Documents/thesis/stm32f4/stm-idf/components/stm32f4xx_hal_driver/stm32f4xx_hal_i2s_ex.c ****         }
 352:/home/phong/Documents/thesis/stm32f4/stm-idf/components/stm32f4xx_hal_driver/stm32f4xx_hal_i2s_ex.c ****         /* Write Data on DR register */
 353:/home/phong/Documents/thesis/stm32f4/stm-idf/components/stm32f4xx_hal_driver/stm32f4xx_hal_i2s_ex.c ****         I2SxEXT(hi2s->Instance)->DR = (*pTxData++);
 354:/home/phong/Documents/thesis/stm32f4/stm-idf/components/stm32f4xx_hal_driver/stm32f4xx_hal_i2s_ex.c ****         hi2s->TxXferCount--;
 355:/home/phong/Documents/thesis/stm32f4/stm-idf/components/stm32f4xx_hal_driver/stm32f4xx_hal_i2s_ex.c **** 
 356:/home/phong/Documents/thesis/stm32f4/stm-idf/components/stm32f4xx_hal_driver/stm32f4xx_hal_i2s_ex.c ****         /* Check if an underrun occurs */
 357:/home/phong/Documents/thesis/stm32f4/stm-idf/components/stm32f4xx_hal_driver/stm32f4xx_hal_i2s_ex.c ****         if ((__HAL_I2SEXT_GET_FLAG(hi2s, I2S_FLAG_UDR) == SET) && (tmp1 == I2S_MODE_SLAVE_RX))
 358:/home/phong/Documents/thesis/stm32f4/stm-idf/components/stm32f4xx_hal_driver/stm32f4xx_hal_i2s_ex.c ****         {
 359:/home/phong/Documents/thesis/stm32f4/stm-idf/components/stm32f4xx_hal_driver/stm32f4xx_hal_i2s_ex.c ****           /* Clear Underrun flag */
 360:/home/phong/Documents/thesis/stm32f4/stm-idf/components/stm32f4xx_hal_driver/stm32f4xx_hal_i2s_ex.c ****           __HAL_I2S_CLEAR_UDRFLAG(hi2s);
 361:/home/phong/Documents/thesis/stm32f4/stm-idf/components/stm32f4xx_hal_driver/stm32f4xx_hal_i2s_ex.c **** 
 362:/home/phong/Documents/thesis/stm32f4/stm-idf/components/stm32f4xx_hal_driver/stm32f4xx_hal_i2s_ex.c ****           /* Set the error code */
 363:/home/phong/Documents/thesis/stm32f4/stm-idf/components/stm32f4xx_hal_driver/stm32f4xx_hal_i2s_ex.c ****           SET_BIT(hi2s->ErrorCode, HAL_I2S_ERROR_UDR);
 364:/home/phong/Documents/thesis/stm32f4/stm-idf/components/stm32f4xx_hal_driver/stm32f4xx_hal_i2s_ex.c ****         }
 365:/home/phong/Documents/thesis/stm32f4/stm-idf/components/stm32f4xx_hal_driver/stm32f4xx_hal_i2s_ex.c ****       }
 366:/home/phong/Documents/thesis/stm32f4/stm-idf/components/stm32f4xx_hal_driver/stm32f4xx_hal_i2s_ex.c ****       if (hi2s->RxXferCount > 0U)
 367:/home/phong/Documents/thesis/stm32f4/stm-idf/components/stm32f4xx_hal_driver/stm32f4xx_hal_i2s_ex.c ****       {
 368:/home/phong/Documents/thesis/stm32f4/stm-idf/components/stm32f4xx_hal_driver/stm32f4xx_hal_i2s_ex.c ****         /* Wait until RXNE flag is set */
 369:/home/phong/Documents/thesis/stm32f4/stm-idf/components/stm32f4xx_hal_driver/stm32f4xx_hal_i2s_ex.c ****         if (I2SEx_FullDuplexWaitFlagStateUntilTimeout(hi2s, I2S_FLAG_RXNE, SET, Timeout, I2S_USE_I2
 370:/home/phong/Documents/thesis/stm32f4/stm-idf/components/stm32f4xx_hal_driver/stm32f4xx_hal_i2s_ex.c ****         {
 371:/home/phong/Documents/thesis/stm32f4/stm-idf/components/stm32f4xx_hal_driver/stm32f4xx_hal_i2s_ex.c ****           /* Set the error code */
 372:/home/phong/Documents/thesis/stm32f4/stm-idf/components/stm32f4xx_hal_driver/stm32f4xx_hal_i2s_ex.c ****           SET_BIT(hi2s->ErrorCode, HAL_I2S_ERROR_TIMEOUT);
 373:/home/phong/Documents/thesis/stm32f4/stm-idf/components/stm32f4xx_hal_driver/stm32f4xx_hal_i2s_ex.c ****           errorcode = HAL_ERROR;
 374:/home/phong/Documents/thesis/stm32f4/stm-idf/components/stm32f4xx_hal_driver/stm32f4xx_hal_i2s_ex.c ****           goto error;
ARM GAS  /tmp/ccyFKXfi.s 			page 8


 375:/home/phong/Documents/thesis/stm32f4/stm-idf/components/stm32f4xx_hal_driver/stm32f4xx_hal_i2s_ex.c ****         }
 376:/home/phong/Documents/thesis/stm32f4/stm-idf/components/stm32f4xx_hal_driver/stm32f4xx_hal_i2s_ex.c ****         /* Read Data from DR register */
 377:/home/phong/Documents/thesis/stm32f4/stm-idf/components/stm32f4xx_hal_driver/stm32f4xx_hal_i2s_ex.c ****         (*pRxData++) = hi2s->Instance->DR;
 378:/home/phong/Documents/thesis/stm32f4/stm-idf/components/stm32f4xx_hal_driver/stm32f4xx_hal_i2s_ex.c ****         hi2s->RxXferCount--;
 379:/home/phong/Documents/thesis/stm32f4/stm-idf/components/stm32f4xx_hal_driver/stm32f4xx_hal_i2s_ex.c **** 
 380:/home/phong/Documents/thesis/stm32f4/stm-idf/components/stm32f4xx_hal_driver/stm32f4xx_hal_i2s_ex.c ****         /* Check if an overrun occurs */
 381:/home/phong/Documents/thesis/stm32f4/stm-idf/components/stm32f4xx_hal_driver/stm32f4xx_hal_i2s_ex.c ****         if (__HAL_I2S_GET_FLAG(hi2s, I2S_FLAG_OVR) == SET)
 382:/home/phong/Documents/thesis/stm32f4/stm-idf/components/stm32f4xx_hal_driver/stm32f4xx_hal_i2s_ex.c ****         {
 383:/home/phong/Documents/thesis/stm32f4/stm-idf/components/stm32f4xx_hal_driver/stm32f4xx_hal_i2s_ex.c ****           /* Clear Overrun flag */
 384:/home/phong/Documents/thesis/stm32f4/stm-idf/components/stm32f4xx_hal_driver/stm32f4xx_hal_i2s_ex.c ****           __HAL_I2S_CLEAR_OVRFLAG(hi2s);
 385:/home/phong/Documents/thesis/stm32f4/stm-idf/components/stm32f4xx_hal_driver/stm32f4xx_hal_i2s_ex.c **** 
 386:/home/phong/Documents/thesis/stm32f4/stm-idf/components/stm32f4xx_hal_driver/stm32f4xx_hal_i2s_ex.c ****           /* Set the error code */
 387:/home/phong/Documents/thesis/stm32f4/stm-idf/components/stm32f4xx_hal_driver/stm32f4xx_hal_i2s_ex.c ****           SET_BIT(hi2s->ErrorCode, HAL_I2S_ERROR_OVR);
 388:/home/phong/Documents/thesis/stm32f4/stm-idf/components/stm32f4xx_hal_driver/stm32f4xx_hal_i2s_ex.c ****         }
 389:/home/phong/Documents/thesis/stm32f4/stm-idf/components/stm32f4xx_hal_driver/stm32f4xx_hal_i2s_ex.c ****       }
 390:/home/phong/Documents/thesis/stm32f4/stm-idf/components/stm32f4xx_hal_driver/stm32f4xx_hal_i2s_ex.c ****     }
 391:/home/phong/Documents/thesis/stm32f4/stm-idf/components/stm32f4xx_hal_driver/stm32f4xx_hal_i2s_ex.c ****   }
 392:/home/phong/Documents/thesis/stm32f4/stm-idf/components/stm32f4xx_hal_driver/stm32f4xx_hal_i2s_ex.c **** 
 393:/home/phong/Documents/thesis/stm32f4/stm-idf/components/stm32f4xx_hal_driver/stm32f4xx_hal_i2s_ex.c ****   if (hi2s->ErrorCode != HAL_I2S_ERROR_NONE)
 394:/home/phong/Documents/thesis/stm32f4/stm-idf/components/stm32f4xx_hal_driver/stm32f4xx_hal_i2s_ex.c ****   {
 395:/home/phong/Documents/thesis/stm32f4/stm-idf/components/stm32f4xx_hal_driver/stm32f4xx_hal_i2s_ex.c ****     errorcode = HAL_ERROR;
 396:/home/phong/Documents/thesis/stm32f4/stm-idf/components/stm32f4xx_hal_driver/stm32f4xx_hal_i2s_ex.c ****   }
 397:/home/phong/Documents/thesis/stm32f4/stm-idf/components/stm32f4xx_hal_driver/stm32f4xx_hal_i2s_ex.c **** 
 398:/home/phong/Documents/thesis/stm32f4/stm-idf/components/stm32f4xx_hal_driver/stm32f4xx_hal_i2s_ex.c **** error :
 399:/home/phong/Documents/thesis/stm32f4/stm-idf/components/stm32f4xx_hal_driver/stm32f4xx_hal_i2s_ex.c ****   hi2s->State = HAL_I2S_STATE_READY;
 400:/home/phong/Documents/thesis/stm32f4/stm-idf/components/stm32f4xx_hal_driver/stm32f4xx_hal_i2s_ex.c ****   __HAL_UNLOCK(hi2s);
 401:/home/phong/Documents/thesis/stm32f4/stm-idf/components/stm32f4xx_hal_driver/stm32f4xx_hal_i2s_ex.c ****   return errorcode;
 402:/home/phong/Documents/thesis/stm32f4/stm-idf/components/stm32f4xx_hal_driver/stm32f4xx_hal_i2s_ex.c **** }
 403:/home/phong/Documents/thesis/stm32f4/stm-idf/components/stm32f4xx_hal_driver/stm32f4xx_hal_i2s_ex.c **** 
 404:/home/phong/Documents/thesis/stm32f4/stm-idf/components/stm32f4xx_hal_driver/stm32f4xx_hal_i2s_ex.c **** /**
 405:/home/phong/Documents/thesis/stm32f4/stm-idf/components/stm32f4xx_hal_driver/stm32f4xx_hal_i2s_ex.c ****   * @brief  Full-Duplex Transmit/Receive data in non-blocking mode using Interrupt
 406:/home/phong/Documents/thesis/stm32f4/stm-idf/components/stm32f4xx_hal_driver/stm32f4xx_hal_i2s_ex.c ****   * @param  hi2s pointer to a I2S_HandleTypeDef structure that contains
 407:/home/phong/Documents/thesis/stm32f4/stm-idf/components/stm32f4xx_hal_driver/stm32f4xx_hal_i2s_ex.c ****   *         the configuration information for I2S module
 408:/home/phong/Documents/thesis/stm32f4/stm-idf/components/stm32f4xx_hal_driver/stm32f4xx_hal_i2s_ex.c ****   * @param  pTxData a 16-bit pointer to the Transmit data buffer.
 409:/home/phong/Documents/thesis/stm32f4/stm-idf/components/stm32f4xx_hal_driver/stm32f4xx_hal_i2s_ex.c ****   * @param  pRxData a 16-bit pointer to the Receive data buffer.
 410:/home/phong/Documents/thesis/stm32f4/stm-idf/components/stm32f4xx_hal_driver/stm32f4xx_hal_i2s_ex.c ****   * @param  Size number of data sample to be sent:
 411:/home/phong/Documents/thesis/stm32f4/stm-idf/components/stm32f4xx_hal_driver/stm32f4xx_hal_i2s_ex.c ****   * @note   When a 16-bit data frame or a 16-bit data frame extended is selected during the I2S
 412:/home/phong/Documents/thesis/stm32f4/stm-idf/components/stm32f4xx_hal_driver/stm32f4xx_hal_i2s_ex.c ****   *         configuration phase, the Size parameter means the number of 16-bit data length
 413:/home/phong/Documents/thesis/stm32f4/stm-idf/components/stm32f4xx_hal_driver/stm32f4xx_hal_i2s_ex.c ****   *         in the transaction and when a 24-bit data frame or a 32-bit data frame is selected
 414:/home/phong/Documents/thesis/stm32f4/stm-idf/components/stm32f4xx_hal_driver/stm32f4xx_hal_i2s_ex.c ****   *         the Size parameter means the number of 16-bit data length.
 415:/home/phong/Documents/thesis/stm32f4/stm-idf/components/stm32f4xx_hal_driver/stm32f4xx_hal_i2s_ex.c ****   * @note   The I2S is kept enabled at the end of transaction to avoid the clock de-synchronization
 416:/home/phong/Documents/thesis/stm32f4/stm-idf/components/stm32f4xx_hal_driver/stm32f4xx_hal_i2s_ex.c ****   *         between Master and Slave(example: audio streaming).
 417:/home/phong/Documents/thesis/stm32f4/stm-idf/components/stm32f4xx_hal_driver/stm32f4xx_hal_i2s_ex.c ****   * @retval HAL status
 418:/home/phong/Documents/thesis/stm32f4/stm-idf/components/stm32f4xx_hal_driver/stm32f4xx_hal_i2s_ex.c ****   */
 419:/home/phong/Documents/thesis/stm32f4/stm-idf/components/stm32f4xx_hal_driver/stm32f4xx_hal_i2s_ex.c **** HAL_StatusTypeDef HAL_I2SEx_TransmitReceive_IT(I2S_HandleTypeDef *hi2s, uint16_t *pTxData, uint16_t
 420:/home/phong/Documents/thesis/stm32f4/stm-idf/components/stm32f4xx_hal_driver/stm32f4xx_hal_i2s_ex.c ****                                                uint16_t Size)
 421:/home/phong/Documents/thesis/stm32f4/stm-idf/components/stm32f4xx_hal_driver/stm32f4xx_hal_i2s_ex.c **** {
 422:/home/phong/Documents/thesis/stm32f4/stm-idf/components/stm32f4xx_hal_driver/stm32f4xx_hal_i2s_ex.c ****   uint32_t tmp1 = 0U;
 423:/home/phong/Documents/thesis/stm32f4/stm-idf/components/stm32f4xx_hal_driver/stm32f4xx_hal_i2s_ex.c ****   HAL_StatusTypeDef errorcode = HAL_OK;
 424:/home/phong/Documents/thesis/stm32f4/stm-idf/components/stm32f4xx_hal_driver/stm32f4xx_hal_i2s_ex.c **** 
 425:/home/phong/Documents/thesis/stm32f4/stm-idf/components/stm32f4xx_hal_driver/stm32f4xx_hal_i2s_ex.c ****   if (hi2s->State != HAL_I2S_STATE_READY)
 426:/home/phong/Documents/thesis/stm32f4/stm-idf/components/stm32f4xx_hal_driver/stm32f4xx_hal_i2s_ex.c ****   {
 427:/home/phong/Documents/thesis/stm32f4/stm-idf/components/stm32f4xx_hal_driver/stm32f4xx_hal_i2s_ex.c ****     errorcode = HAL_BUSY;
 428:/home/phong/Documents/thesis/stm32f4/stm-idf/components/stm32f4xx_hal_driver/stm32f4xx_hal_i2s_ex.c ****     goto error;
 429:/home/phong/Documents/thesis/stm32f4/stm-idf/components/stm32f4xx_hal_driver/stm32f4xx_hal_i2s_ex.c ****   }
 430:/home/phong/Documents/thesis/stm32f4/stm-idf/components/stm32f4xx_hal_driver/stm32f4xx_hal_i2s_ex.c **** 
 431:/home/phong/Documents/thesis/stm32f4/stm-idf/components/stm32f4xx_hal_driver/stm32f4xx_hal_i2s_ex.c ****   if ((pTxData == NULL) || (pRxData == NULL) || (Size == 0U))
ARM GAS  /tmp/ccyFKXfi.s 			page 9


 432:/home/phong/Documents/thesis/stm32f4/stm-idf/components/stm32f4xx_hal_driver/stm32f4xx_hal_i2s_ex.c ****   {
 433:/home/phong/Documents/thesis/stm32f4/stm-idf/components/stm32f4xx_hal_driver/stm32f4xx_hal_i2s_ex.c ****     return  HAL_ERROR;
 434:/home/phong/Documents/thesis/stm32f4/stm-idf/components/stm32f4xx_hal_driver/stm32f4xx_hal_i2s_ex.c ****   }
 435:/home/phong/Documents/thesis/stm32f4/stm-idf/components/stm32f4xx_hal_driver/stm32f4xx_hal_i2s_ex.c **** 
 436:/home/phong/Documents/thesis/stm32f4/stm-idf/components/stm32f4xx_hal_driver/stm32f4xx_hal_i2s_ex.c ****   /* Process Locked */
 437:/home/phong/Documents/thesis/stm32f4/stm-idf/components/stm32f4xx_hal_driver/stm32f4xx_hal_i2s_ex.c ****   __HAL_LOCK(hi2s);
 438:/home/phong/Documents/thesis/stm32f4/stm-idf/components/stm32f4xx_hal_driver/stm32f4xx_hal_i2s_ex.c **** 
 439:/home/phong/Documents/thesis/stm32f4/stm-idf/components/stm32f4xx_hal_driver/stm32f4xx_hal_i2s_ex.c ****   hi2s->pTxBuffPtr = pTxData;
 440:/home/phong/Documents/thesis/stm32f4/stm-idf/components/stm32f4xx_hal_driver/stm32f4xx_hal_i2s_ex.c ****   hi2s->pRxBuffPtr = pRxData;
 441:/home/phong/Documents/thesis/stm32f4/stm-idf/components/stm32f4xx_hal_driver/stm32f4xx_hal_i2s_ex.c **** 
 442:/home/phong/Documents/thesis/stm32f4/stm-idf/components/stm32f4xx_hal_driver/stm32f4xx_hal_i2s_ex.c ****   tmp1 = hi2s->Instance->I2SCFGR & (SPI_I2SCFGR_DATLEN | SPI_I2SCFGR_CHLEN);
 443:/home/phong/Documents/thesis/stm32f4/stm-idf/components/stm32f4xx_hal_driver/stm32f4xx_hal_i2s_ex.c ****   /* Check the Data format: When a 16-bit data frame or a 16-bit data frame extended
 444:/home/phong/Documents/thesis/stm32f4/stm-idf/components/stm32f4xx_hal_driver/stm32f4xx_hal_i2s_ex.c ****   is selected during the I2S configuration phase, the Size parameter means the number
 445:/home/phong/Documents/thesis/stm32f4/stm-idf/components/stm32f4xx_hal_driver/stm32f4xx_hal_i2s_ex.c ****   of 16-bit data length in the transaction and when a 24-bit data frame or a 32-bit data
 446:/home/phong/Documents/thesis/stm32f4/stm-idf/components/stm32f4xx_hal_driver/stm32f4xx_hal_i2s_ex.c ****   frame is selected the Size parameter means the number of 16-bit data length. */
 447:/home/phong/Documents/thesis/stm32f4/stm-idf/components/stm32f4xx_hal_driver/stm32f4xx_hal_i2s_ex.c ****   if ((tmp1 == I2S_DATAFORMAT_24B) || (tmp1 == I2S_DATAFORMAT_32B))
 448:/home/phong/Documents/thesis/stm32f4/stm-idf/components/stm32f4xx_hal_driver/stm32f4xx_hal_i2s_ex.c ****   {
 449:/home/phong/Documents/thesis/stm32f4/stm-idf/components/stm32f4xx_hal_driver/stm32f4xx_hal_i2s_ex.c ****     hi2s->TxXferSize  = (Size << 1U);
 450:/home/phong/Documents/thesis/stm32f4/stm-idf/components/stm32f4xx_hal_driver/stm32f4xx_hal_i2s_ex.c ****     hi2s->TxXferCount = (Size << 1U);
 451:/home/phong/Documents/thesis/stm32f4/stm-idf/components/stm32f4xx_hal_driver/stm32f4xx_hal_i2s_ex.c ****     hi2s->RxXferSize  = (Size << 1U);
 452:/home/phong/Documents/thesis/stm32f4/stm-idf/components/stm32f4xx_hal_driver/stm32f4xx_hal_i2s_ex.c ****     hi2s->RxXferCount = (Size << 1U);
 453:/home/phong/Documents/thesis/stm32f4/stm-idf/components/stm32f4xx_hal_driver/stm32f4xx_hal_i2s_ex.c ****   }
 454:/home/phong/Documents/thesis/stm32f4/stm-idf/components/stm32f4xx_hal_driver/stm32f4xx_hal_i2s_ex.c ****   else
 455:/home/phong/Documents/thesis/stm32f4/stm-idf/components/stm32f4xx_hal_driver/stm32f4xx_hal_i2s_ex.c ****   {
 456:/home/phong/Documents/thesis/stm32f4/stm-idf/components/stm32f4xx_hal_driver/stm32f4xx_hal_i2s_ex.c ****     hi2s->TxXferSize  = Size;
 457:/home/phong/Documents/thesis/stm32f4/stm-idf/components/stm32f4xx_hal_driver/stm32f4xx_hal_i2s_ex.c ****     hi2s->TxXferCount = Size;
 458:/home/phong/Documents/thesis/stm32f4/stm-idf/components/stm32f4xx_hal_driver/stm32f4xx_hal_i2s_ex.c ****     hi2s->RxXferSize  = Size;
 459:/home/phong/Documents/thesis/stm32f4/stm-idf/components/stm32f4xx_hal_driver/stm32f4xx_hal_i2s_ex.c ****     hi2s->RxXferCount = Size;
 460:/home/phong/Documents/thesis/stm32f4/stm-idf/components/stm32f4xx_hal_driver/stm32f4xx_hal_i2s_ex.c ****   }
 461:/home/phong/Documents/thesis/stm32f4/stm-idf/components/stm32f4xx_hal_driver/stm32f4xx_hal_i2s_ex.c **** 
 462:/home/phong/Documents/thesis/stm32f4/stm-idf/components/stm32f4xx_hal_driver/stm32f4xx_hal_i2s_ex.c ****   hi2s->ErrorCode = HAL_I2S_ERROR_NONE;
 463:/home/phong/Documents/thesis/stm32f4/stm-idf/components/stm32f4xx_hal_driver/stm32f4xx_hal_i2s_ex.c ****   hi2s->State     = HAL_I2S_STATE_BUSY_TX_RX;
 464:/home/phong/Documents/thesis/stm32f4/stm-idf/components/stm32f4xx_hal_driver/stm32f4xx_hal_i2s_ex.c **** 
 465:/home/phong/Documents/thesis/stm32f4/stm-idf/components/stm32f4xx_hal_driver/stm32f4xx_hal_i2s_ex.c ****   /* Set the function for IT treatment */
 466:/home/phong/Documents/thesis/stm32f4/stm-idf/components/stm32f4xx_hal_driver/stm32f4xx_hal_i2s_ex.c ****   if ((hi2s->Init.Mode == I2S_MODE_MASTER_TX) || (hi2s->Init.Mode == I2S_MODE_SLAVE_TX))
 467:/home/phong/Documents/thesis/stm32f4/stm-idf/components/stm32f4xx_hal_driver/stm32f4xx_hal_i2s_ex.c ****   {
 468:/home/phong/Documents/thesis/stm32f4/stm-idf/components/stm32f4xx_hal_driver/stm32f4xx_hal_i2s_ex.c ****     /* Enable I2Sext RXNE and ERR interrupts */
 469:/home/phong/Documents/thesis/stm32f4/stm-idf/components/stm32f4xx_hal_driver/stm32f4xx_hal_i2s_ex.c ****     __HAL_I2SEXT_ENABLE_IT(hi2s, (I2S_IT_RXNE | I2S_IT_ERR));
 470:/home/phong/Documents/thesis/stm32f4/stm-idf/components/stm32f4xx_hal_driver/stm32f4xx_hal_i2s_ex.c **** 
 471:/home/phong/Documents/thesis/stm32f4/stm-idf/components/stm32f4xx_hal_driver/stm32f4xx_hal_i2s_ex.c ****     /* Enable I2Sx TXE and ERR interrupts */
 472:/home/phong/Documents/thesis/stm32f4/stm-idf/components/stm32f4xx_hal_driver/stm32f4xx_hal_i2s_ex.c ****     __HAL_I2S_ENABLE_IT(hi2s, (I2S_IT_TXE | I2S_IT_ERR));
 473:/home/phong/Documents/thesis/stm32f4/stm-idf/components/stm32f4xx_hal_driver/stm32f4xx_hal_i2s_ex.c **** 
 474:/home/phong/Documents/thesis/stm32f4/stm-idf/components/stm32f4xx_hal_driver/stm32f4xx_hal_i2s_ex.c ****     /* Transmit First data */
 475:/home/phong/Documents/thesis/stm32f4/stm-idf/components/stm32f4xx_hal_driver/stm32f4xx_hal_i2s_ex.c ****     hi2s->Instance->DR = (*hi2s->pTxBuffPtr++);
 476:/home/phong/Documents/thesis/stm32f4/stm-idf/components/stm32f4xx_hal_driver/stm32f4xx_hal_i2s_ex.c ****     hi2s->TxXferCount--;
 477:/home/phong/Documents/thesis/stm32f4/stm-idf/components/stm32f4xx_hal_driver/stm32f4xx_hal_i2s_ex.c **** 
 478:/home/phong/Documents/thesis/stm32f4/stm-idf/components/stm32f4xx_hal_driver/stm32f4xx_hal_i2s_ex.c ****     if (hi2s->TxXferCount == 0U)
 479:/home/phong/Documents/thesis/stm32f4/stm-idf/components/stm32f4xx_hal_driver/stm32f4xx_hal_i2s_ex.c ****     {
 480:/home/phong/Documents/thesis/stm32f4/stm-idf/components/stm32f4xx_hal_driver/stm32f4xx_hal_i2s_ex.c ****       /* Disable TXE and ERR interrupt */
 481:/home/phong/Documents/thesis/stm32f4/stm-idf/components/stm32f4xx_hal_driver/stm32f4xx_hal_i2s_ex.c ****       __HAL_I2S_DISABLE_IT(hi2s, (I2S_IT_TXE | I2S_IT_ERR));
 482:/home/phong/Documents/thesis/stm32f4/stm-idf/components/stm32f4xx_hal_driver/stm32f4xx_hal_i2s_ex.c ****     }
 483:/home/phong/Documents/thesis/stm32f4/stm-idf/components/stm32f4xx_hal_driver/stm32f4xx_hal_i2s_ex.c ****   }
 484:/home/phong/Documents/thesis/stm32f4/stm-idf/components/stm32f4xx_hal_driver/stm32f4xx_hal_i2s_ex.c ****   else  /* The I2S_MODE_MASTER_RX or I2S_MODE_SLAVE_RX Mode is selected */
 485:/home/phong/Documents/thesis/stm32f4/stm-idf/components/stm32f4xx_hal_driver/stm32f4xx_hal_i2s_ex.c ****   {
 486:/home/phong/Documents/thesis/stm32f4/stm-idf/components/stm32f4xx_hal_driver/stm32f4xx_hal_i2s_ex.c ****     /* Enable I2Sext TXE and ERR interrupts */
 487:/home/phong/Documents/thesis/stm32f4/stm-idf/components/stm32f4xx_hal_driver/stm32f4xx_hal_i2s_ex.c ****     __HAL_I2SEXT_ENABLE_IT(hi2s, (I2S_IT_TXE | I2S_IT_ERR));
 488:/home/phong/Documents/thesis/stm32f4/stm-idf/components/stm32f4xx_hal_driver/stm32f4xx_hal_i2s_ex.c **** 
ARM GAS  /tmp/ccyFKXfi.s 			page 10


 489:/home/phong/Documents/thesis/stm32f4/stm-idf/components/stm32f4xx_hal_driver/stm32f4xx_hal_i2s_ex.c ****     /* Enable I2Sext RXNE and ERR interrupts */
 490:/home/phong/Documents/thesis/stm32f4/stm-idf/components/stm32f4xx_hal_driver/stm32f4xx_hal_i2s_ex.c ****     __HAL_I2S_ENABLE_IT(hi2s, (I2S_IT_RXNE | I2S_IT_ERR));
 491:/home/phong/Documents/thesis/stm32f4/stm-idf/components/stm32f4xx_hal_driver/stm32f4xx_hal_i2s_ex.c **** 
 492:/home/phong/Documents/thesis/stm32f4/stm-idf/components/stm32f4xx_hal_driver/stm32f4xx_hal_i2s_ex.c ****     /* Transmit First data */
 493:/home/phong/Documents/thesis/stm32f4/stm-idf/components/stm32f4xx_hal_driver/stm32f4xx_hal_i2s_ex.c ****     I2SxEXT(hi2s->Instance)->DR = (*hi2s->pTxBuffPtr++);
 494:/home/phong/Documents/thesis/stm32f4/stm-idf/components/stm32f4xx_hal_driver/stm32f4xx_hal_i2s_ex.c ****     hi2s->TxXferCount--;
 495:/home/phong/Documents/thesis/stm32f4/stm-idf/components/stm32f4xx_hal_driver/stm32f4xx_hal_i2s_ex.c **** 
 496:/home/phong/Documents/thesis/stm32f4/stm-idf/components/stm32f4xx_hal_driver/stm32f4xx_hal_i2s_ex.c ****     if (hi2s->TxXferCount == 0U)
 497:/home/phong/Documents/thesis/stm32f4/stm-idf/components/stm32f4xx_hal_driver/stm32f4xx_hal_i2s_ex.c ****     {
 498:/home/phong/Documents/thesis/stm32f4/stm-idf/components/stm32f4xx_hal_driver/stm32f4xx_hal_i2s_ex.c ****       /* Disable I2Sext TXE and ERR interrupt */
 499:/home/phong/Documents/thesis/stm32f4/stm-idf/components/stm32f4xx_hal_driver/stm32f4xx_hal_i2s_ex.c ****       __HAL_I2SEXT_DISABLE_IT(hi2s, (I2S_IT_TXE | I2S_IT_ERR));
 500:/home/phong/Documents/thesis/stm32f4/stm-idf/components/stm32f4xx_hal_driver/stm32f4xx_hal_i2s_ex.c ****     }
 501:/home/phong/Documents/thesis/stm32f4/stm-idf/components/stm32f4xx_hal_driver/stm32f4xx_hal_i2s_ex.c ****   }
 502:/home/phong/Documents/thesis/stm32f4/stm-idf/components/stm32f4xx_hal_driver/stm32f4xx_hal_i2s_ex.c **** 
 503:/home/phong/Documents/thesis/stm32f4/stm-idf/components/stm32f4xx_hal_driver/stm32f4xx_hal_i2s_ex.c ****   /* Enable I2Sext peripheral */
 504:/home/phong/Documents/thesis/stm32f4/stm-idf/components/stm32f4xx_hal_driver/stm32f4xx_hal_i2s_ex.c ****   __HAL_I2SEXT_ENABLE(hi2s);
 505:/home/phong/Documents/thesis/stm32f4/stm-idf/components/stm32f4xx_hal_driver/stm32f4xx_hal_i2s_ex.c **** 
 506:/home/phong/Documents/thesis/stm32f4/stm-idf/components/stm32f4xx_hal_driver/stm32f4xx_hal_i2s_ex.c ****   /* Enable I2S peripheral */
 507:/home/phong/Documents/thesis/stm32f4/stm-idf/components/stm32f4xx_hal_driver/stm32f4xx_hal_i2s_ex.c ****   __HAL_I2S_ENABLE(hi2s);
 508:/home/phong/Documents/thesis/stm32f4/stm-idf/components/stm32f4xx_hal_driver/stm32f4xx_hal_i2s_ex.c **** 
 509:/home/phong/Documents/thesis/stm32f4/stm-idf/components/stm32f4xx_hal_driver/stm32f4xx_hal_i2s_ex.c **** error :
 510:/home/phong/Documents/thesis/stm32f4/stm-idf/components/stm32f4xx_hal_driver/stm32f4xx_hal_i2s_ex.c ****   __HAL_UNLOCK(hi2s);
 511:/home/phong/Documents/thesis/stm32f4/stm-idf/components/stm32f4xx_hal_driver/stm32f4xx_hal_i2s_ex.c ****   return errorcode;
 512:/home/phong/Documents/thesis/stm32f4/stm-idf/components/stm32f4xx_hal_driver/stm32f4xx_hal_i2s_ex.c **** }
 513:/home/phong/Documents/thesis/stm32f4/stm-idf/components/stm32f4xx_hal_driver/stm32f4xx_hal_i2s_ex.c **** 
 514:/home/phong/Documents/thesis/stm32f4/stm-idf/components/stm32f4xx_hal_driver/stm32f4xx_hal_i2s_ex.c **** /**
 515:/home/phong/Documents/thesis/stm32f4/stm-idf/components/stm32f4xx_hal_driver/stm32f4xx_hal_i2s_ex.c ****   * @brief  Full-Duplex Transmit/Receive data in non-blocking mode using DMA
 516:/home/phong/Documents/thesis/stm32f4/stm-idf/components/stm32f4xx_hal_driver/stm32f4xx_hal_i2s_ex.c ****   * @param  hi2s pointer to a I2S_HandleTypeDef structure that contains
 517:/home/phong/Documents/thesis/stm32f4/stm-idf/components/stm32f4xx_hal_driver/stm32f4xx_hal_i2s_ex.c ****   *         the configuration information for I2S module
 518:/home/phong/Documents/thesis/stm32f4/stm-idf/components/stm32f4xx_hal_driver/stm32f4xx_hal_i2s_ex.c ****   * @param  pTxData a 16-bit pointer to the Transmit data buffer.
 519:/home/phong/Documents/thesis/stm32f4/stm-idf/components/stm32f4xx_hal_driver/stm32f4xx_hal_i2s_ex.c ****   * @param  pRxData a 16-bit pointer to the Receive data buffer.
 520:/home/phong/Documents/thesis/stm32f4/stm-idf/components/stm32f4xx_hal_driver/stm32f4xx_hal_i2s_ex.c ****   * @param  Size number of data sample to be sent:
 521:/home/phong/Documents/thesis/stm32f4/stm-idf/components/stm32f4xx_hal_driver/stm32f4xx_hal_i2s_ex.c ****   * @note   When a 16-bit data frame or a 16-bit data frame extended is selected during the I2S
 522:/home/phong/Documents/thesis/stm32f4/stm-idf/components/stm32f4xx_hal_driver/stm32f4xx_hal_i2s_ex.c ****   *         configuration phase, the Size parameter means the number of 16-bit data length
 523:/home/phong/Documents/thesis/stm32f4/stm-idf/components/stm32f4xx_hal_driver/stm32f4xx_hal_i2s_ex.c ****   *         in the transaction and when a 24-bit data frame or a 32-bit data frame is selected
 524:/home/phong/Documents/thesis/stm32f4/stm-idf/components/stm32f4xx_hal_driver/stm32f4xx_hal_i2s_ex.c ****   *         the Size parameter means the number of 16-bit data length.
 525:/home/phong/Documents/thesis/stm32f4/stm-idf/components/stm32f4xx_hal_driver/stm32f4xx_hal_i2s_ex.c ****   * @note   The I2S is kept enabled at the end of transaction to avoid the clock de-synchronization
 526:/home/phong/Documents/thesis/stm32f4/stm-idf/components/stm32f4xx_hal_driver/stm32f4xx_hal_i2s_ex.c ****   *         between Master and Slave(example: audio streaming).
 527:/home/phong/Documents/thesis/stm32f4/stm-idf/components/stm32f4xx_hal_driver/stm32f4xx_hal_i2s_ex.c ****   * @retval HAL status
 528:/home/phong/Documents/thesis/stm32f4/stm-idf/components/stm32f4xx_hal_driver/stm32f4xx_hal_i2s_ex.c ****   */
 529:/home/phong/Documents/thesis/stm32f4/stm-idf/components/stm32f4xx_hal_driver/stm32f4xx_hal_i2s_ex.c **** HAL_StatusTypeDef HAL_I2SEx_TransmitReceive_DMA(I2S_HandleTypeDef *hi2s, uint16_t *pTxData, uint16_
 530:/home/phong/Documents/thesis/stm32f4/stm-idf/components/stm32f4xx_hal_driver/stm32f4xx_hal_i2s_ex.c ****                                                 uint16_t Size)
 531:/home/phong/Documents/thesis/stm32f4/stm-idf/components/stm32f4xx_hal_driver/stm32f4xx_hal_i2s_ex.c **** {
 532:/home/phong/Documents/thesis/stm32f4/stm-idf/components/stm32f4xx_hal_driver/stm32f4xx_hal_i2s_ex.c ****   uint32_t *tmp = NULL;
 533:/home/phong/Documents/thesis/stm32f4/stm-idf/components/stm32f4xx_hal_driver/stm32f4xx_hal_i2s_ex.c ****   uint32_t tmp1 = 0U;
 534:/home/phong/Documents/thesis/stm32f4/stm-idf/components/stm32f4xx_hal_driver/stm32f4xx_hal_i2s_ex.c ****   HAL_StatusTypeDef errorcode = HAL_OK;
 535:/home/phong/Documents/thesis/stm32f4/stm-idf/components/stm32f4xx_hal_driver/stm32f4xx_hal_i2s_ex.c **** 
 536:/home/phong/Documents/thesis/stm32f4/stm-idf/components/stm32f4xx_hal_driver/stm32f4xx_hal_i2s_ex.c ****   if (hi2s->State != HAL_I2S_STATE_READY)
 537:/home/phong/Documents/thesis/stm32f4/stm-idf/components/stm32f4xx_hal_driver/stm32f4xx_hal_i2s_ex.c ****   {
 538:/home/phong/Documents/thesis/stm32f4/stm-idf/components/stm32f4xx_hal_driver/stm32f4xx_hal_i2s_ex.c ****     errorcode = HAL_BUSY;
 539:/home/phong/Documents/thesis/stm32f4/stm-idf/components/stm32f4xx_hal_driver/stm32f4xx_hal_i2s_ex.c ****     goto error;
 540:/home/phong/Documents/thesis/stm32f4/stm-idf/components/stm32f4xx_hal_driver/stm32f4xx_hal_i2s_ex.c ****   }
 541:/home/phong/Documents/thesis/stm32f4/stm-idf/components/stm32f4xx_hal_driver/stm32f4xx_hal_i2s_ex.c **** 
 542:/home/phong/Documents/thesis/stm32f4/stm-idf/components/stm32f4xx_hal_driver/stm32f4xx_hal_i2s_ex.c ****   if ((pTxData == NULL) || (pRxData == NULL) || (Size == 0U))
 543:/home/phong/Documents/thesis/stm32f4/stm-idf/components/stm32f4xx_hal_driver/stm32f4xx_hal_i2s_ex.c ****   {
 544:/home/phong/Documents/thesis/stm32f4/stm-idf/components/stm32f4xx_hal_driver/stm32f4xx_hal_i2s_ex.c ****     return  HAL_ERROR;
 545:/home/phong/Documents/thesis/stm32f4/stm-idf/components/stm32f4xx_hal_driver/stm32f4xx_hal_i2s_ex.c ****   }
ARM GAS  /tmp/ccyFKXfi.s 			page 11


 546:/home/phong/Documents/thesis/stm32f4/stm-idf/components/stm32f4xx_hal_driver/stm32f4xx_hal_i2s_ex.c **** 
 547:/home/phong/Documents/thesis/stm32f4/stm-idf/components/stm32f4xx_hal_driver/stm32f4xx_hal_i2s_ex.c ****   /* Process Locked */
 548:/home/phong/Documents/thesis/stm32f4/stm-idf/components/stm32f4xx_hal_driver/stm32f4xx_hal_i2s_ex.c ****   __HAL_LOCK(hi2s);
 549:/home/phong/Documents/thesis/stm32f4/stm-idf/components/stm32f4xx_hal_driver/stm32f4xx_hal_i2s_ex.c **** 
 550:/home/phong/Documents/thesis/stm32f4/stm-idf/components/stm32f4xx_hal_driver/stm32f4xx_hal_i2s_ex.c ****   hi2s->pTxBuffPtr = pTxData;
 551:/home/phong/Documents/thesis/stm32f4/stm-idf/components/stm32f4xx_hal_driver/stm32f4xx_hal_i2s_ex.c ****   hi2s->pRxBuffPtr = pRxData;
 552:/home/phong/Documents/thesis/stm32f4/stm-idf/components/stm32f4xx_hal_driver/stm32f4xx_hal_i2s_ex.c **** 
 553:/home/phong/Documents/thesis/stm32f4/stm-idf/components/stm32f4xx_hal_driver/stm32f4xx_hal_i2s_ex.c ****   tmp1 = hi2s->Instance->I2SCFGR & (SPI_I2SCFGR_DATLEN | SPI_I2SCFGR_CHLEN);
 554:/home/phong/Documents/thesis/stm32f4/stm-idf/components/stm32f4xx_hal_driver/stm32f4xx_hal_i2s_ex.c ****   /* Check the Data format: When a 16-bit data frame or a 16-bit data frame extended
 555:/home/phong/Documents/thesis/stm32f4/stm-idf/components/stm32f4xx_hal_driver/stm32f4xx_hal_i2s_ex.c ****   is selected during the I2S configuration phase, the Size parameter means the number
 556:/home/phong/Documents/thesis/stm32f4/stm-idf/components/stm32f4xx_hal_driver/stm32f4xx_hal_i2s_ex.c ****   of 16-bit data length in the transaction and when a 24-bit data frame or a 32-bit data
 557:/home/phong/Documents/thesis/stm32f4/stm-idf/components/stm32f4xx_hal_driver/stm32f4xx_hal_i2s_ex.c ****   frame is selected the Size parameter means the number of 16-bit data length. */
 558:/home/phong/Documents/thesis/stm32f4/stm-idf/components/stm32f4xx_hal_driver/stm32f4xx_hal_i2s_ex.c ****   if ((tmp1 == I2S_DATAFORMAT_24B) || (tmp1 == I2S_DATAFORMAT_32B))
 559:/home/phong/Documents/thesis/stm32f4/stm-idf/components/stm32f4xx_hal_driver/stm32f4xx_hal_i2s_ex.c ****   {
 560:/home/phong/Documents/thesis/stm32f4/stm-idf/components/stm32f4xx_hal_driver/stm32f4xx_hal_i2s_ex.c ****     hi2s->TxXferSize  = (Size << 1U);
 561:/home/phong/Documents/thesis/stm32f4/stm-idf/components/stm32f4xx_hal_driver/stm32f4xx_hal_i2s_ex.c ****     hi2s->TxXferCount = (Size << 1U);
 562:/home/phong/Documents/thesis/stm32f4/stm-idf/components/stm32f4xx_hal_driver/stm32f4xx_hal_i2s_ex.c ****     hi2s->RxXferSize  = (Size << 1U);
 563:/home/phong/Documents/thesis/stm32f4/stm-idf/components/stm32f4xx_hal_driver/stm32f4xx_hal_i2s_ex.c ****     hi2s->RxXferCount = (Size << 1U);
 564:/home/phong/Documents/thesis/stm32f4/stm-idf/components/stm32f4xx_hal_driver/stm32f4xx_hal_i2s_ex.c ****   }
 565:/home/phong/Documents/thesis/stm32f4/stm-idf/components/stm32f4xx_hal_driver/stm32f4xx_hal_i2s_ex.c ****   else
 566:/home/phong/Documents/thesis/stm32f4/stm-idf/components/stm32f4xx_hal_driver/stm32f4xx_hal_i2s_ex.c ****   {
 567:/home/phong/Documents/thesis/stm32f4/stm-idf/components/stm32f4xx_hal_driver/stm32f4xx_hal_i2s_ex.c ****     hi2s->TxXferSize  = Size;
 568:/home/phong/Documents/thesis/stm32f4/stm-idf/components/stm32f4xx_hal_driver/stm32f4xx_hal_i2s_ex.c ****     hi2s->TxXferCount = Size;
 569:/home/phong/Documents/thesis/stm32f4/stm-idf/components/stm32f4xx_hal_driver/stm32f4xx_hal_i2s_ex.c ****     hi2s->RxXferSize  = Size;
 570:/home/phong/Documents/thesis/stm32f4/stm-idf/components/stm32f4xx_hal_driver/stm32f4xx_hal_i2s_ex.c ****     hi2s->RxXferCount = Size;
 571:/home/phong/Documents/thesis/stm32f4/stm-idf/components/stm32f4xx_hal_driver/stm32f4xx_hal_i2s_ex.c ****   }
 572:/home/phong/Documents/thesis/stm32f4/stm-idf/components/stm32f4xx_hal_driver/stm32f4xx_hal_i2s_ex.c **** 
 573:/home/phong/Documents/thesis/stm32f4/stm-idf/components/stm32f4xx_hal_driver/stm32f4xx_hal_i2s_ex.c ****   hi2s->ErrorCode = HAL_I2S_ERROR_NONE;
 574:/home/phong/Documents/thesis/stm32f4/stm-idf/components/stm32f4xx_hal_driver/stm32f4xx_hal_i2s_ex.c ****   hi2s->State     = HAL_I2S_STATE_BUSY_TX_RX;
 575:/home/phong/Documents/thesis/stm32f4/stm-idf/components/stm32f4xx_hal_driver/stm32f4xx_hal_i2s_ex.c **** 
 576:/home/phong/Documents/thesis/stm32f4/stm-idf/components/stm32f4xx_hal_driver/stm32f4xx_hal_i2s_ex.c ****   /* Set the I2S Rx DMA Half transfer complete callback */
 577:/home/phong/Documents/thesis/stm32f4/stm-idf/components/stm32f4xx_hal_driver/stm32f4xx_hal_i2s_ex.c ****   hi2s->hdmarx->XferHalfCpltCallback = I2SEx_TxRxDMAHalfCplt;
 578:/home/phong/Documents/thesis/stm32f4/stm-idf/components/stm32f4xx_hal_driver/stm32f4xx_hal_i2s_ex.c **** 
 579:/home/phong/Documents/thesis/stm32f4/stm-idf/components/stm32f4xx_hal_driver/stm32f4xx_hal_i2s_ex.c ****   /* Set the I2S Rx DMA transfer complete callback */
 580:/home/phong/Documents/thesis/stm32f4/stm-idf/components/stm32f4xx_hal_driver/stm32f4xx_hal_i2s_ex.c ****   hi2s->hdmarx->XferCpltCallback  = I2SEx_TxRxDMACplt;
 581:/home/phong/Documents/thesis/stm32f4/stm-idf/components/stm32f4xx_hal_driver/stm32f4xx_hal_i2s_ex.c **** 
 582:/home/phong/Documents/thesis/stm32f4/stm-idf/components/stm32f4xx_hal_driver/stm32f4xx_hal_i2s_ex.c ****   /* Set the I2S Rx DMA error callback */
 583:/home/phong/Documents/thesis/stm32f4/stm-idf/components/stm32f4xx_hal_driver/stm32f4xx_hal_i2s_ex.c ****   hi2s->hdmarx->XferErrorCallback = I2SEx_TxRxDMAError;
 584:/home/phong/Documents/thesis/stm32f4/stm-idf/components/stm32f4xx_hal_driver/stm32f4xx_hal_i2s_ex.c **** 
 585:/home/phong/Documents/thesis/stm32f4/stm-idf/components/stm32f4xx_hal_driver/stm32f4xx_hal_i2s_ex.c ****   /* Set the I2S Tx DMA Half transfer complete callback */
 586:/home/phong/Documents/thesis/stm32f4/stm-idf/components/stm32f4xx_hal_driver/stm32f4xx_hal_i2s_ex.c ****   hi2s->hdmatx->XferHalfCpltCallback  = I2SEx_TxRxDMAHalfCplt;
 587:/home/phong/Documents/thesis/stm32f4/stm-idf/components/stm32f4xx_hal_driver/stm32f4xx_hal_i2s_ex.c **** 
 588:/home/phong/Documents/thesis/stm32f4/stm-idf/components/stm32f4xx_hal_driver/stm32f4xx_hal_i2s_ex.c ****   /* Set the I2S Tx DMA transfer complete callback */
 589:/home/phong/Documents/thesis/stm32f4/stm-idf/components/stm32f4xx_hal_driver/stm32f4xx_hal_i2s_ex.c ****   hi2s->hdmatx->XferCpltCallback  = I2SEx_TxRxDMACplt;
 590:/home/phong/Documents/thesis/stm32f4/stm-idf/components/stm32f4xx_hal_driver/stm32f4xx_hal_i2s_ex.c **** 
 591:/home/phong/Documents/thesis/stm32f4/stm-idf/components/stm32f4xx_hal_driver/stm32f4xx_hal_i2s_ex.c ****   /* Set the I2S Tx DMA error callback */
 592:/home/phong/Documents/thesis/stm32f4/stm-idf/components/stm32f4xx_hal_driver/stm32f4xx_hal_i2s_ex.c ****   hi2s->hdmatx->XferErrorCallback = I2SEx_TxRxDMAError;
 593:/home/phong/Documents/thesis/stm32f4/stm-idf/components/stm32f4xx_hal_driver/stm32f4xx_hal_i2s_ex.c **** 
 594:/home/phong/Documents/thesis/stm32f4/stm-idf/components/stm32f4xx_hal_driver/stm32f4xx_hal_i2s_ex.c ****   tmp1 = hi2s->Instance->I2SCFGR & SPI_I2SCFGR_I2SCFG;
 595:/home/phong/Documents/thesis/stm32f4/stm-idf/components/stm32f4xx_hal_driver/stm32f4xx_hal_i2s_ex.c ****   /* Check if the I2S_MODE_MASTER_TX or I2S_MODE_SLAVE_TX Mode is selected */
 596:/home/phong/Documents/thesis/stm32f4/stm-idf/components/stm32f4xx_hal_driver/stm32f4xx_hal_i2s_ex.c ****   if ((tmp1 == I2S_MODE_MASTER_TX) || (tmp1 == I2S_MODE_SLAVE_TX))
 597:/home/phong/Documents/thesis/stm32f4/stm-idf/components/stm32f4xx_hal_driver/stm32f4xx_hal_i2s_ex.c ****   {
 598:/home/phong/Documents/thesis/stm32f4/stm-idf/components/stm32f4xx_hal_driver/stm32f4xx_hal_i2s_ex.c ****     /* Enable the Rx DMA Stream */
 599:/home/phong/Documents/thesis/stm32f4/stm-idf/components/stm32f4xx_hal_driver/stm32f4xx_hal_i2s_ex.c ****     tmp = (uint32_t *)&pRxData;
 600:/home/phong/Documents/thesis/stm32f4/stm-idf/components/stm32f4xx_hal_driver/stm32f4xx_hal_i2s_ex.c ****     HAL_DMA_Start_IT(hi2s->hdmarx, (uint32_t)&I2SxEXT(hi2s->Instance)->DR, *(uint32_t *)tmp, hi2s->
 601:/home/phong/Documents/thesis/stm32f4/stm-idf/components/stm32f4xx_hal_driver/stm32f4xx_hal_i2s_ex.c **** 
 602:/home/phong/Documents/thesis/stm32f4/stm-idf/components/stm32f4xx_hal_driver/stm32f4xx_hal_i2s_ex.c ****     /* Enable Rx DMA Request */
ARM GAS  /tmp/ccyFKXfi.s 			page 12


 603:/home/phong/Documents/thesis/stm32f4/stm-idf/components/stm32f4xx_hal_driver/stm32f4xx_hal_i2s_ex.c ****     SET_BIT(I2SxEXT(hi2s->Instance)->CR2, SPI_CR2_RXDMAEN);
 604:/home/phong/Documents/thesis/stm32f4/stm-idf/components/stm32f4xx_hal_driver/stm32f4xx_hal_i2s_ex.c **** 
 605:/home/phong/Documents/thesis/stm32f4/stm-idf/components/stm32f4xx_hal_driver/stm32f4xx_hal_i2s_ex.c ****     /* Enable the Tx DMA Stream */
 606:/home/phong/Documents/thesis/stm32f4/stm-idf/components/stm32f4xx_hal_driver/stm32f4xx_hal_i2s_ex.c ****     tmp = (uint32_t *)&pTxData;
 607:/home/phong/Documents/thesis/stm32f4/stm-idf/components/stm32f4xx_hal_driver/stm32f4xx_hal_i2s_ex.c ****     HAL_DMA_Start_IT(hi2s->hdmatx, *(uint32_t *)tmp, (uint32_t)&hi2s->Instance->DR, hi2s->TxXferSiz
 608:/home/phong/Documents/thesis/stm32f4/stm-idf/components/stm32f4xx_hal_driver/stm32f4xx_hal_i2s_ex.c **** 
 609:/home/phong/Documents/thesis/stm32f4/stm-idf/components/stm32f4xx_hal_driver/stm32f4xx_hal_i2s_ex.c ****     /* Enable Tx DMA Request */
 610:/home/phong/Documents/thesis/stm32f4/stm-idf/components/stm32f4xx_hal_driver/stm32f4xx_hal_i2s_ex.c ****     SET_BIT(hi2s->Instance->CR2, SPI_CR2_TXDMAEN);
 611:/home/phong/Documents/thesis/stm32f4/stm-idf/components/stm32f4xx_hal_driver/stm32f4xx_hal_i2s_ex.c **** 
 612:/home/phong/Documents/thesis/stm32f4/stm-idf/components/stm32f4xx_hal_driver/stm32f4xx_hal_i2s_ex.c ****     /* Check if the I2S is already enabled */
 613:/home/phong/Documents/thesis/stm32f4/stm-idf/components/stm32f4xx_hal_driver/stm32f4xx_hal_i2s_ex.c ****     if ((hi2s->Instance->I2SCFGR & SPI_I2SCFGR_I2SE) != SPI_I2SCFGR_I2SE)
 614:/home/phong/Documents/thesis/stm32f4/stm-idf/components/stm32f4xx_hal_driver/stm32f4xx_hal_i2s_ex.c ****     {
 615:/home/phong/Documents/thesis/stm32f4/stm-idf/components/stm32f4xx_hal_driver/stm32f4xx_hal_i2s_ex.c ****       /* Enable I2Sext(receiver) before enabling I2Sx peripheral */
 616:/home/phong/Documents/thesis/stm32f4/stm-idf/components/stm32f4xx_hal_driver/stm32f4xx_hal_i2s_ex.c ****       __HAL_I2SEXT_ENABLE(hi2s);
 617:/home/phong/Documents/thesis/stm32f4/stm-idf/components/stm32f4xx_hal_driver/stm32f4xx_hal_i2s_ex.c **** 
 618:/home/phong/Documents/thesis/stm32f4/stm-idf/components/stm32f4xx_hal_driver/stm32f4xx_hal_i2s_ex.c ****       /* Enable I2S peripheral after the I2Sext */
 619:/home/phong/Documents/thesis/stm32f4/stm-idf/components/stm32f4xx_hal_driver/stm32f4xx_hal_i2s_ex.c ****       __HAL_I2S_ENABLE(hi2s);
 620:/home/phong/Documents/thesis/stm32f4/stm-idf/components/stm32f4xx_hal_driver/stm32f4xx_hal_i2s_ex.c ****     }
 621:/home/phong/Documents/thesis/stm32f4/stm-idf/components/stm32f4xx_hal_driver/stm32f4xx_hal_i2s_ex.c ****   }
 622:/home/phong/Documents/thesis/stm32f4/stm-idf/components/stm32f4xx_hal_driver/stm32f4xx_hal_i2s_ex.c ****   else
 623:/home/phong/Documents/thesis/stm32f4/stm-idf/components/stm32f4xx_hal_driver/stm32f4xx_hal_i2s_ex.c ****   {
 624:/home/phong/Documents/thesis/stm32f4/stm-idf/components/stm32f4xx_hal_driver/stm32f4xx_hal_i2s_ex.c ****     /* Check if Master Receiver mode is selected */
 625:/home/phong/Documents/thesis/stm32f4/stm-idf/components/stm32f4xx_hal_driver/stm32f4xx_hal_i2s_ex.c ****     if ((hi2s->Instance->I2SCFGR & SPI_I2SCFGR_I2SCFG) == I2S_MODE_MASTER_RX)
 626:/home/phong/Documents/thesis/stm32f4/stm-idf/components/stm32f4xx_hal_driver/stm32f4xx_hal_i2s_ex.c ****     {
 627:/home/phong/Documents/thesis/stm32f4/stm-idf/components/stm32f4xx_hal_driver/stm32f4xx_hal_i2s_ex.c ****       /* Clear the Overrun Flag by a read operation on the SPI_DR register followed by a read
 628:/home/phong/Documents/thesis/stm32f4/stm-idf/components/stm32f4xx_hal_driver/stm32f4xx_hal_i2s_ex.c ****       access to the SPI_SR register. */
 629:/home/phong/Documents/thesis/stm32f4/stm-idf/components/stm32f4xx_hal_driver/stm32f4xx_hal_i2s_ex.c ****       __HAL_I2S_CLEAR_OVRFLAG(hi2s);
 630:/home/phong/Documents/thesis/stm32f4/stm-idf/components/stm32f4xx_hal_driver/stm32f4xx_hal_i2s_ex.c ****     }
 631:/home/phong/Documents/thesis/stm32f4/stm-idf/components/stm32f4xx_hal_driver/stm32f4xx_hal_i2s_ex.c ****     /* Enable the Tx DMA Stream */
 632:/home/phong/Documents/thesis/stm32f4/stm-idf/components/stm32f4xx_hal_driver/stm32f4xx_hal_i2s_ex.c ****     tmp = (uint32_t *)&pTxData;
 633:/home/phong/Documents/thesis/stm32f4/stm-idf/components/stm32f4xx_hal_driver/stm32f4xx_hal_i2s_ex.c ****     HAL_DMA_Start_IT(hi2s->hdmatx, *(uint32_t *)tmp, (uint32_t)&I2SxEXT(hi2s->Instance)->DR, hi2s->
 634:/home/phong/Documents/thesis/stm32f4/stm-idf/components/stm32f4xx_hal_driver/stm32f4xx_hal_i2s_ex.c **** 
 635:/home/phong/Documents/thesis/stm32f4/stm-idf/components/stm32f4xx_hal_driver/stm32f4xx_hal_i2s_ex.c ****     /* Enable Tx DMA Request */
 636:/home/phong/Documents/thesis/stm32f4/stm-idf/components/stm32f4xx_hal_driver/stm32f4xx_hal_i2s_ex.c ****     SET_BIT(I2SxEXT(hi2s->Instance)->CR2, SPI_CR2_TXDMAEN);
 637:/home/phong/Documents/thesis/stm32f4/stm-idf/components/stm32f4xx_hal_driver/stm32f4xx_hal_i2s_ex.c **** 
 638:/home/phong/Documents/thesis/stm32f4/stm-idf/components/stm32f4xx_hal_driver/stm32f4xx_hal_i2s_ex.c ****     /* Enable the Rx DMA Stream */
 639:/home/phong/Documents/thesis/stm32f4/stm-idf/components/stm32f4xx_hal_driver/stm32f4xx_hal_i2s_ex.c ****     tmp = (uint32_t *)&pRxData;
 640:/home/phong/Documents/thesis/stm32f4/stm-idf/components/stm32f4xx_hal_driver/stm32f4xx_hal_i2s_ex.c ****     HAL_DMA_Start_IT(hi2s->hdmarx, (uint32_t)&hi2s->Instance->DR, *(uint32_t *)tmp, hi2s->RxXferSiz
 641:/home/phong/Documents/thesis/stm32f4/stm-idf/components/stm32f4xx_hal_driver/stm32f4xx_hal_i2s_ex.c **** 
 642:/home/phong/Documents/thesis/stm32f4/stm-idf/components/stm32f4xx_hal_driver/stm32f4xx_hal_i2s_ex.c ****     /* Enable Rx DMA Request */
 643:/home/phong/Documents/thesis/stm32f4/stm-idf/components/stm32f4xx_hal_driver/stm32f4xx_hal_i2s_ex.c ****     SET_BIT(hi2s->Instance->CR2, SPI_CR2_RXDMAEN);
 644:/home/phong/Documents/thesis/stm32f4/stm-idf/components/stm32f4xx_hal_driver/stm32f4xx_hal_i2s_ex.c **** 
 645:/home/phong/Documents/thesis/stm32f4/stm-idf/components/stm32f4xx_hal_driver/stm32f4xx_hal_i2s_ex.c ****     /* Check if the I2S is already enabled */
 646:/home/phong/Documents/thesis/stm32f4/stm-idf/components/stm32f4xx_hal_driver/stm32f4xx_hal_i2s_ex.c ****     if ((hi2s->Instance->I2SCFGR & SPI_I2SCFGR_I2SE) != SPI_I2SCFGR_I2SE)
 647:/home/phong/Documents/thesis/stm32f4/stm-idf/components/stm32f4xx_hal_driver/stm32f4xx_hal_i2s_ex.c ****     {
 648:/home/phong/Documents/thesis/stm32f4/stm-idf/components/stm32f4xx_hal_driver/stm32f4xx_hal_i2s_ex.c ****       /* Enable I2Sext(transmitter) before enabling I2Sx peripheral */
 649:/home/phong/Documents/thesis/stm32f4/stm-idf/components/stm32f4xx_hal_driver/stm32f4xx_hal_i2s_ex.c ****       __HAL_I2SEXT_ENABLE(hi2s);
 650:/home/phong/Documents/thesis/stm32f4/stm-idf/components/stm32f4xx_hal_driver/stm32f4xx_hal_i2s_ex.c ****       /* Enable I2S peripheral before the I2Sext */
 651:/home/phong/Documents/thesis/stm32f4/stm-idf/components/stm32f4xx_hal_driver/stm32f4xx_hal_i2s_ex.c ****       __HAL_I2S_ENABLE(hi2s);
 652:/home/phong/Documents/thesis/stm32f4/stm-idf/components/stm32f4xx_hal_driver/stm32f4xx_hal_i2s_ex.c ****     }
 653:/home/phong/Documents/thesis/stm32f4/stm-idf/components/stm32f4xx_hal_driver/stm32f4xx_hal_i2s_ex.c ****   }
 654:/home/phong/Documents/thesis/stm32f4/stm-idf/components/stm32f4xx_hal_driver/stm32f4xx_hal_i2s_ex.c **** 
 655:/home/phong/Documents/thesis/stm32f4/stm-idf/components/stm32f4xx_hal_driver/stm32f4xx_hal_i2s_ex.c **** error :
 656:/home/phong/Documents/thesis/stm32f4/stm-idf/components/stm32f4xx_hal_driver/stm32f4xx_hal_i2s_ex.c ****   __HAL_UNLOCK(hi2s);
 657:/home/phong/Documents/thesis/stm32f4/stm-idf/components/stm32f4xx_hal_driver/stm32f4xx_hal_i2s_ex.c ****   return errorcode;
 658:/home/phong/Documents/thesis/stm32f4/stm-idf/components/stm32f4xx_hal_driver/stm32f4xx_hal_i2s_ex.c **** }
 659:/home/phong/Documents/thesis/stm32f4/stm-idf/components/stm32f4xx_hal_driver/stm32f4xx_hal_i2s_ex.c **** 
ARM GAS  /tmp/ccyFKXfi.s 			page 13


 660:/home/phong/Documents/thesis/stm32f4/stm-idf/components/stm32f4xx_hal_driver/stm32f4xx_hal_i2s_ex.c **** /**
 661:/home/phong/Documents/thesis/stm32f4/stm-idf/components/stm32f4xx_hal_driver/stm32f4xx_hal_i2s_ex.c ****   * @brief  This function handles I2S/I2Sext interrupt requests in full-duplex mode.
 662:/home/phong/Documents/thesis/stm32f4/stm-idf/components/stm32f4xx_hal_driver/stm32f4xx_hal_i2s_ex.c ****   * @param  hi2s I2S handle
 663:/home/phong/Documents/thesis/stm32f4/stm-idf/components/stm32f4xx_hal_driver/stm32f4xx_hal_i2s_ex.c ****   * @retval HAL status
 664:/home/phong/Documents/thesis/stm32f4/stm-idf/components/stm32f4xx_hal_driver/stm32f4xx_hal_i2s_ex.c ****   */
 665:/home/phong/Documents/thesis/stm32f4/stm-idf/components/stm32f4xx_hal_driver/stm32f4xx_hal_i2s_ex.c **** void HAL_I2SEx_FullDuplex_IRQHandler(I2S_HandleTypeDef *hi2s)
 666:/home/phong/Documents/thesis/stm32f4/stm-idf/components/stm32f4xx_hal_driver/stm32f4xx_hal_i2s_ex.c **** {
 667:/home/phong/Documents/thesis/stm32f4/stm-idf/components/stm32f4xx_hal_driver/stm32f4xx_hal_i2s_ex.c ****   __IO uint32_t i2ssr     = hi2s->Instance->SR;
 668:/home/phong/Documents/thesis/stm32f4/stm-idf/components/stm32f4xx_hal_driver/stm32f4xx_hal_i2s_ex.c ****   __IO uint32_t i2sextsr  = I2SxEXT(hi2s->Instance)->SR;
 669:/home/phong/Documents/thesis/stm32f4/stm-idf/components/stm32f4xx_hal_driver/stm32f4xx_hal_i2s_ex.c ****   __IO uint32_t i2scr2    = hi2s->Instance->CR2;
 670:/home/phong/Documents/thesis/stm32f4/stm-idf/components/stm32f4xx_hal_driver/stm32f4xx_hal_i2s_ex.c ****   __IO uint32_t i2sextcr2 = I2SxEXT(hi2s->Instance)->CR2;
 671:/home/phong/Documents/thesis/stm32f4/stm-idf/components/stm32f4xx_hal_driver/stm32f4xx_hal_i2s_ex.c **** 
 672:/home/phong/Documents/thesis/stm32f4/stm-idf/components/stm32f4xx_hal_driver/stm32f4xx_hal_i2s_ex.c ****   /* Check if the I2S_MODE_MASTER_TX or I2S_MODE_SLAVE_TX Mode is selected */
 673:/home/phong/Documents/thesis/stm32f4/stm-idf/components/stm32f4xx_hal_driver/stm32f4xx_hal_i2s_ex.c ****   if ((hi2s->Init.Mode == I2S_MODE_MASTER_TX) || (hi2s->Init.Mode == I2S_MODE_SLAVE_TX))
 674:/home/phong/Documents/thesis/stm32f4/stm-idf/components/stm32f4xx_hal_driver/stm32f4xx_hal_i2s_ex.c ****   {
 675:/home/phong/Documents/thesis/stm32f4/stm-idf/components/stm32f4xx_hal_driver/stm32f4xx_hal_i2s_ex.c ****     /* I2S in mode Transmitter -------------------------------------------------*/
 676:/home/phong/Documents/thesis/stm32f4/stm-idf/components/stm32f4xx_hal_driver/stm32f4xx_hal_i2s_ex.c ****     if (((i2ssr & I2S_FLAG_TXE) == I2S_FLAG_TXE) && ((i2scr2 & I2S_IT_TXE) != RESET))
 677:/home/phong/Documents/thesis/stm32f4/stm-idf/components/stm32f4xx_hal_driver/stm32f4xx_hal_i2s_ex.c ****     {
 678:/home/phong/Documents/thesis/stm32f4/stm-idf/components/stm32f4xx_hal_driver/stm32f4xx_hal_i2s_ex.c ****       /* When the I2S mode is configured as I2S_MODE_MASTER_TX or I2S_MODE_SLAVE_TX,
 679:/home/phong/Documents/thesis/stm32f4/stm-idf/components/stm32f4xx_hal_driver/stm32f4xx_hal_i2s_ex.c ****       the I2S TXE interrupt will be generated to manage the full-duplex transmit phase. */
 680:/home/phong/Documents/thesis/stm32f4/stm-idf/components/stm32f4xx_hal_driver/stm32f4xx_hal_i2s_ex.c ****       I2SEx_TxISR_I2S(hi2s);
 681:/home/phong/Documents/thesis/stm32f4/stm-idf/components/stm32f4xx_hal_driver/stm32f4xx_hal_i2s_ex.c ****     }
 682:/home/phong/Documents/thesis/stm32f4/stm-idf/components/stm32f4xx_hal_driver/stm32f4xx_hal_i2s_ex.c **** 
 683:/home/phong/Documents/thesis/stm32f4/stm-idf/components/stm32f4xx_hal_driver/stm32f4xx_hal_i2s_ex.c ****     /* I2Sext in mode Receiver -----------------------------------------------*/
 684:/home/phong/Documents/thesis/stm32f4/stm-idf/components/stm32f4xx_hal_driver/stm32f4xx_hal_i2s_ex.c ****     if (((i2sextsr & I2S_FLAG_RXNE) == I2S_FLAG_RXNE) && ((i2sextcr2 & I2S_IT_RXNE) != RESET))
 685:/home/phong/Documents/thesis/stm32f4/stm-idf/components/stm32f4xx_hal_driver/stm32f4xx_hal_i2s_ex.c ****     {
 686:/home/phong/Documents/thesis/stm32f4/stm-idf/components/stm32f4xx_hal_driver/stm32f4xx_hal_i2s_ex.c ****       /* When the I2S mode is configured as I2S_MODE_MASTER_TX or I2S_MODE_SLAVE_TX,
 687:/home/phong/Documents/thesis/stm32f4/stm-idf/components/stm32f4xx_hal_driver/stm32f4xx_hal_i2s_ex.c ****       the I2Sext RXNE interrupt will be generated to manage the full-duplex receive phase. */
 688:/home/phong/Documents/thesis/stm32f4/stm-idf/components/stm32f4xx_hal_driver/stm32f4xx_hal_i2s_ex.c ****       I2SEx_RxISR_I2SExt(hi2s);
 689:/home/phong/Documents/thesis/stm32f4/stm-idf/components/stm32f4xx_hal_driver/stm32f4xx_hal_i2s_ex.c ****     }
 690:/home/phong/Documents/thesis/stm32f4/stm-idf/components/stm32f4xx_hal_driver/stm32f4xx_hal_i2s_ex.c **** 
 691:/home/phong/Documents/thesis/stm32f4/stm-idf/components/stm32f4xx_hal_driver/stm32f4xx_hal_i2s_ex.c ****     /* I2Sext Overrun error interrupt occurred --------------------------------*/
 692:/home/phong/Documents/thesis/stm32f4/stm-idf/components/stm32f4xx_hal_driver/stm32f4xx_hal_i2s_ex.c ****     if (((i2sextsr & I2S_FLAG_OVR) == I2S_FLAG_OVR) && ((i2sextcr2 & I2S_IT_ERR) != RESET))
 693:/home/phong/Documents/thesis/stm32f4/stm-idf/components/stm32f4xx_hal_driver/stm32f4xx_hal_i2s_ex.c ****     {
 694:/home/phong/Documents/thesis/stm32f4/stm-idf/components/stm32f4xx_hal_driver/stm32f4xx_hal_i2s_ex.c ****       /* Disable RXNE and ERR interrupt */
 695:/home/phong/Documents/thesis/stm32f4/stm-idf/components/stm32f4xx_hal_driver/stm32f4xx_hal_i2s_ex.c ****       __HAL_I2SEXT_DISABLE_IT(hi2s, (I2S_IT_RXNE | I2S_IT_ERR));
 696:/home/phong/Documents/thesis/stm32f4/stm-idf/components/stm32f4xx_hal_driver/stm32f4xx_hal_i2s_ex.c **** 
 697:/home/phong/Documents/thesis/stm32f4/stm-idf/components/stm32f4xx_hal_driver/stm32f4xx_hal_i2s_ex.c ****       /* Disable TXE and ERR interrupt */
 698:/home/phong/Documents/thesis/stm32f4/stm-idf/components/stm32f4xx_hal_driver/stm32f4xx_hal_i2s_ex.c ****       __HAL_I2S_DISABLE_IT(hi2s, (I2S_IT_TXE | I2S_IT_ERR));
 699:/home/phong/Documents/thesis/stm32f4/stm-idf/components/stm32f4xx_hal_driver/stm32f4xx_hal_i2s_ex.c **** 
 700:/home/phong/Documents/thesis/stm32f4/stm-idf/components/stm32f4xx_hal_driver/stm32f4xx_hal_i2s_ex.c ****       /* Clear Overrun flag */
 701:/home/phong/Documents/thesis/stm32f4/stm-idf/components/stm32f4xx_hal_driver/stm32f4xx_hal_i2s_ex.c ****       __HAL_I2S_CLEAR_OVRFLAG(hi2s);
 702:/home/phong/Documents/thesis/stm32f4/stm-idf/components/stm32f4xx_hal_driver/stm32f4xx_hal_i2s_ex.c **** 
 703:/home/phong/Documents/thesis/stm32f4/stm-idf/components/stm32f4xx_hal_driver/stm32f4xx_hal_i2s_ex.c ****       /* Set the I2S State ready */
 704:/home/phong/Documents/thesis/stm32f4/stm-idf/components/stm32f4xx_hal_driver/stm32f4xx_hal_i2s_ex.c ****       hi2s->State = HAL_I2S_STATE_READY;
 705:/home/phong/Documents/thesis/stm32f4/stm-idf/components/stm32f4xx_hal_driver/stm32f4xx_hal_i2s_ex.c **** 
 706:/home/phong/Documents/thesis/stm32f4/stm-idf/components/stm32f4xx_hal_driver/stm32f4xx_hal_i2s_ex.c ****       /* Set the error code and execute error callback*/
 707:/home/phong/Documents/thesis/stm32f4/stm-idf/components/stm32f4xx_hal_driver/stm32f4xx_hal_i2s_ex.c ****       SET_BIT(hi2s->ErrorCode, HAL_I2S_ERROR_OVR);
 708:/home/phong/Documents/thesis/stm32f4/stm-idf/components/stm32f4xx_hal_driver/stm32f4xx_hal_i2s_ex.c ****       /* Call user error callback */
 709:/home/phong/Documents/thesis/stm32f4/stm-idf/components/stm32f4xx_hal_driver/stm32f4xx_hal_i2s_ex.c **** #if (USE_HAL_I2S_REGISTER_CALLBACKS == 1U)
 710:/home/phong/Documents/thesis/stm32f4/stm-idf/components/stm32f4xx_hal_driver/stm32f4xx_hal_i2s_ex.c ****       hi2s->ErrorCallback(hi2s);
 711:/home/phong/Documents/thesis/stm32f4/stm-idf/components/stm32f4xx_hal_driver/stm32f4xx_hal_i2s_ex.c **** #else
 712:/home/phong/Documents/thesis/stm32f4/stm-idf/components/stm32f4xx_hal_driver/stm32f4xx_hal_i2s_ex.c ****       HAL_I2S_ErrorCallback(hi2s);
 713:/home/phong/Documents/thesis/stm32f4/stm-idf/components/stm32f4xx_hal_driver/stm32f4xx_hal_i2s_ex.c **** #endif /* USE_HAL_I2S_REGISTER_CALLBACKS */
 714:/home/phong/Documents/thesis/stm32f4/stm-idf/components/stm32f4xx_hal_driver/stm32f4xx_hal_i2s_ex.c ****     }
 715:/home/phong/Documents/thesis/stm32f4/stm-idf/components/stm32f4xx_hal_driver/stm32f4xx_hal_i2s_ex.c **** 
 716:/home/phong/Documents/thesis/stm32f4/stm-idf/components/stm32f4xx_hal_driver/stm32f4xx_hal_i2s_ex.c ****     /* I2S Underrun error interrupt occurred ----------------------------------*/
ARM GAS  /tmp/ccyFKXfi.s 			page 14


 717:/home/phong/Documents/thesis/stm32f4/stm-idf/components/stm32f4xx_hal_driver/stm32f4xx_hal_i2s_ex.c ****     if (((i2ssr & I2S_FLAG_UDR) == I2S_FLAG_UDR) && ((i2scr2 & I2S_IT_ERR) != RESET))
 718:/home/phong/Documents/thesis/stm32f4/stm-idf/components/stm32f4xx_hal_driver/stm32f4xx_hal_i2s_ex.c ****     {
 719:/home/phong/Documents/thesis/stm32f4/stm-idf/components/stm32f4xx_hal_driver/stm32f4xx_hal_i2s_ex.c ****       /* Disable TXE and ERR interrupt */
 720:/home/phong/Documents/thesis/stm32f4/stm-idf/components/stm32f4xx_hal_driver/stm32f4xx_hal_i2s_ex.c ****       __HAL_I2S_DISABLE_IT(hi2s, (I2S_IT_TXE | I2S_IT_ERR));
 721:/home/phong/Documents/thesis/stm32f4/stm-idf/components/stm32f4xx_hal_driver/stm32f4xx_hal_i2s_ex.c **** 
 722:/home/phong/Documents/thesis/stm32f4/stm-idf/components/stm32f4xx_hal_driver/stm32f4xx_hal_i2s_ex.c ****       /* Disable RXNE and ERR interrupt */
 723:/home/phong/Documents/thesis/stm32f4/stm-idf/components/stm32f4xx_hal_driver/stm32f4xx_hal_i2s_ex.c ****       __HAL_I2SEXT_DISABLE_IT(hi2s, (I2S_IT_RXNE | I2S_IT_ERR));
 724:/home/phong/Documents/thesis/stm32f4/stm-idf/components/stm32f4xx_hal_driver/stm32f4xx_hal_i2s_ex.c **** 
 725:/home/phong/Documents/thesis/stm32f4/stm-idf/components/stm32f4xx_hal_driver/stm32f4xx_hal_i2s_ex.c ****       /* Clear underrun flag */
 726:/home/phong/Documents/thesis/stm32f4/stm-idf/components/stm32f4xx_hal_driver/stm32f4xx_hal_i2s_ex.c ****       __HAL_I2S_CLEAR_UDRFLAG(hi2s);
 727:/home/phong/Documents/thesis/stm32f4/stm-idf/components/stm32f4xx_hal_driver/stm32f4xx_hal_i2s_ex.c **** 
 728:/home/phong/Documents/thesis/stm32f4/stm-idf/components/stm32f4xx_hal_driver/stm32f4xx_hal_i2s_ex.c ****       /* Set the I2S State ready */
 729:/home/phong/Documents/thesis/stm32f4/stm-idf/components/stm32f4xx_hal_driver/stm32f4xx_hal_i2s_ex.c ****       hi2s->State = HAL_I2S_STATE_READY;
 730:/home/phong/Documents/thesis/stm32f4/stm-idf/components/stm32f4xx_hal_driver/stm32f4xx_hal_i2s_ex.c **** 
 731:/home/phong/Documents/thesis/stm32f4/stm-idf/components/stm32f4xx_hal_driver/stm32f4xx_hal_i2s_ex.c ****       /* Set the error code and execute error callback*/
 732:/home/phong/Documents/thesis/stm32f4/stm-idf/components/stm32f4xx_hal_driver/stm32f4xx_hal_i2s_ex.c ****       SET_BIT(hi2s->ErrorCode, HAL_I2S_ERROR_UDR);
 733:/home/phong/Documents/thesis/stm32f4/stm-idf/components/stm32f4xx_hal_driver/stm32f4xx_hal_i2s_ex.c ****       /* Call user error callback */
 734:/home/phong/Documents/thesis/stm32f4/stm-idf/components/stm32f4xx_hal_driver/stm32f4xx_hal_i2s_ex.c **** #if (USE_HAL_I2S_REGISTER_CALLBACKS == 1U)
 735:/home/phong/Documents/thesis/stm32f4/stm-idf/components/stm32f4xx_hal_driver/stm32f4xx_hal_i2s_ex.c ****       hi2s->ErrorCallback(hi2s);
 736:/home/phong/Documents/thesis/stm32f4/stm-idf/components/stm32f4xx_hal_driver/stm32f4xx_hal_i2s_ex.c **** #else
 737:/home/phong/Documents/thesis/stm32f4/stm-idf/components/stm32f4xx_hal_driver/stm32f4xx_hal_i2s_ex.c ****       HAL_I2S_ErrorCallback(hi2s);
 738:/home/phong/Documents/thesis/stm32f4/stm-idf/components/stm32f4xx_hal_driver/stm32f4xx_hal_i2s_ex.c **** #endif /* USE_HAL_I2S_REGISTER_CALLBACKS */
 739:/home/phong/Documents/thesis/stm32f4/stm-idf/components/stm32f4xx_hal_driver/stm32f4xx_hal_i2s_ex.c ****     }
 740:/home/phong/Documents/thesis/stm32f4/stm-idf/components/stm32f4xx_hal_driver/stm32f4xx_hal_i2s_ex.c ****   }
 741:/home/phong/Documents/thesis/stm32f4/stm-idf/components/stm32f4xx_hal_driver/stm32f4xx_hal_i2s_ex.c ****   /* The I2S_MODE_MASTER_RX or I2S_MODE_SLAVE_RX Mode is selected */
 742:/home/phong/Documents/thesis/stm32f4/stm-idf/components/stm32f4xx_hal_driver/stm32f4xx_hal_i2s_ex.c ****   else
 743:/home/phong/Documents/thesis/stm32f4/stm-idf/components/stm32f4xx_hal_driver/stm32f4xx_hal_i2s_ex.c ****   {
 744:/home/phong/Documents/thesis/stm32f4/stm-idf/components/stm32f4xx_hal_driver/stm32f4xx_hal_i2s_ex.c ****     /* I2Sext in mode Transmitter ----------------------------------------------*/
 745:/home/phong/Documents/thesis/stm32f4/stm-idf/components/stm32f4xx_hal_driver/stm32f4xx_hal_i2s_ex.c ****     if (((i2sextsr & I2S_FLAG_TXE) == I2S_FLAG_TXE) && ((i2sextcr2 & I2S_IT_TXE) != RESET))
 746:/home/phong/Documents/thesis/stm32f4/stm-idf/components/stm32f4xx_hal_driver/stm32f4xx_hal_i2s_ex.c ****     {
 747:/home/phong/Documents/thesis/stm32f4/stm-idf/components/stm32f4xx_hal_driver/stm32f4xx_hal_i2s_ex.c ****       /* When the I2S mode is configured as I2S_MODE_MASTER_RX or I2S_MODE_SLAVE_RX,
 748:/home/phong/Documents/thesis/stm32f4/stm-idf/components/stm32f4xx_hal_driver/stm32f4xx_hal_i2s_ex.c ****       the I2Sext TXE interrupt will be generated to manage the full-duplex transmit phase. */
 749:/home/phong/Documents/thesis/stm32f4/stm-idf/components/stm32f4xx_hal_driver/stm32f4xx_hal_i2s_ex.c ****       I2SEx_TxISR_I2SExt(hi2s);
 750:/home/phong/Documents/thesis/stm32f4/stm-idf/components/stm32f4xx_hal_driver/stm32f4xx_hal_i2s_ex.c ****     }
 751:/home/phong/Documents/thesis/stm32f4/stm-idf/components/stm32f4xx_hal_driver/stm32f4xx_hal_i2s_ex.c **** 
 752:/home/phong/Documents/thesis/stm32f4/stm-idf/components/stm32f4xx_hal_driver/stm32f4xx_hal_i2s_ex.c ****     /* I2S in mode Receiver --------------------------------------------------*/
 753:/home/phong/Documents/thesis/stm32f4/stm-idf/components/stm32f4xx_hal_driver/stm32f4xx_hal_i2s_ex.c ****     if (((i2ssr & I2S_FLAG_RXNE) == I2S_FLAG_RXNE) && ((i2scr2 & I2S_IT_RXNE) != RESET))
 754:/home/phong/Documents/thesis/stm32f4/stm-idf/components/stm32f4xx_hal_driver/stm32f4xx_hal_i2s_ex.c ****     {
 755:/home/phong/Documents/thesis/stm32f4/stm-idf/components/stm32f4xx_hal_driver/stm32f4xx_hal_i2s_ex.c ****       /* When the I2S mode is configured as I2S_MODE_MASTER_RX or I2S_MODE_SLAVE_RX,
 756:/home/phong/Documents/thesis/stm32f4/stm-idf/components/stm32f4xx_hal_driver/stm32f4xx_hal_i2s_ex.c ****       the I2S RXNE interrupt will be generated to manage the full-duplex receive phase. */
 757:/home/phong/Documents/thesis/stm32f4/stm-idf/components/stm32f4xx_hal_driver/stm32f4xx_hal_i2s_ex.c ****       I2SEx_RxISR_I2S(hi2s);
 758:/home/phong/Documents/thesis/stm32f4/stm-idf/components/stm32f4xx_hal_driver/stm32f4xx_hal_i2s_ex.c ****     }
 759:/home/phong/Documents/thesis/stm32f4/stm-idf/components/stm32f4xx_hal_driver/stm32f4xx_hal_i2s_ex.c **** 
 760:/home/phong/Documents/thesis/stm32f4/stm-idf/components/stm32f4xx_hal_driver/stm32f4xx_hal_i2s_ex.c ****     /* I2S Overrun error interrupt occurred -------------------------------------*/
 761:/home/phong/Documents/thesis/stm32f4/stm-idf/components/stm32f4xx_hal_driver/stm32f4xx_hal_i2s_ex.c ****     if (((i2ssr & I2S_FLAG_OVR) == I2S_FLAG_OVR) && ((i2scr2 & I2S_IT_ERR) != RESET))
 762:/home/phong/Documents/thesis/stm32f4/stm-idf/components/stm32f4xx_hal_driver/stm32f4xx_hal_i2s_ex.c ****     {
 763:/home/phong/Documents/thesis/stm32f4/stm-idf/components/stm32f4xx_hal_driver/stm32f4xx_hal_i2s_ex.c ****       /* Disable RXNE and ERR interrupt */
 764:/home/phong/Documents/thesis/stm32f4/stm-idf/components/stm32f4xx_hal_driver/stm32f4xx_hal_i2s_ex.c ****       __HAL_I2S_DISABLE_IT(hi2s, (I2S_IT_RXNE | I2S_IT_ERR));
 765:/home/phong/Documents/thesis/stm32f4/stm-idf/components/stm32f4xx_hal_driver/stm32f4xx_hal_i2s_ex.c **** 
 766:/home/phong/Documents/thesis/stm32f4/stm-idf/components/stm32f4xx_hal_driver/stm32f4xx_hal_i2s_ex.c ****       /* Disable TXE and ERR interrupt */
 767:/home/phong/Documents/thesis/stm32f4/stm-idf/components/stm32f4xx_hal_driver/stm32f4xx_hal_i2s_ex.c ****       __HAL_I2SEXT_DISABLE_IT(hi2s, (I2S_IT_TXE | I2S_IT_ERR));
 768:/home/phong/Documents/thesis/stm32f4/stm-idf/components/stm32f4xx_hal_driver/stm32f4xx_hal_i2s_ex.c **** 
 769:/home/phong/Documents/thesis/stm32f4/stm-idf/components/stm32f4xx_hal_driver/stm32f4xx_hal_i2s_ex.c ****       /* Set the I2S State ready */
 770:/home/phong/Documents/thesis/stm32f4/stm-idf/components/stm32f4xx_hal_driver/stm32f4xx_hal_i2s_ex.c ****       hi2s->State = HAL_I2S_STATE_READY;
 771:/home/phong/Documents/thesis/stm32f4/stm-idf/components/stm32f4xx_hal_driver/stm32f4xx_hal_i2s_ex.c **** 
 772:/home/phong/Documents/thesis/stm32f4/stm-idf/components/stm32f4xx_hal_driver/stm32f4xx_hal_i2s_ex.c ****       /* Set the error code and execute error callback*/
 773:/home/phong/Documents/thesis/stm32f4/stm-idf/components/stm32f4xx_hal_driver/stm32f4xx_hal_i2s_ex.c ****       SET_BIT(hi2s->ErrorCode, HAL_I2S_ERROR_OVR);
ARM GAS  /tmp/ccyFKXfi.s 			page 15


 774:/home/phong/Documents/thesis/stm32f4/stm-idf/components/stm32f4xx_hal_driver/stm32f4xx_hal_i2s_ex.c ****       /* Call user error callback */
 775:/home/phong/Documents/thesis/stm32f4/stm-idf/components/stm32f4xx_hal_driver/stm32f4xx_hal_i2s_ex.c **** #if (USE_HAL_I2S_REGISTER_CALLBACKS == 1U)
 776:/home/phong/Documents/thesis/stm32f4/stm-idf/components/stm32f4xx_hal_driver/stm32f4xx_hal_i2s_ex.c ****       hi2s->ErrorCallback(hi2s);
 777:/home/phong/Documents/thesis/stm32f4/stm-idf/components/stm32f4xx_hal_driver/stm32f4xx_hal_i2s_ex.c **** #else
 778:/home/phong/Documents/thesis/stm32f4/stm-idf/components/stm32f4xx_hal_driver/stm32f4xx_hal_i2s_ex.c ****       HAL_I2S_ErrorCallback(hi2s);
 779:/home/phong/Documents/thesis/stm32f4/stm-idf/components/stm32f4xx_hal_driver/stm32f4xx_hal_i2s_ex.c **** #endif /* USE_HAL_I2S_REGISTER_CALLBACKS */
 780:/home/phong/Documents/thesis/stm32f4/stm-idf/components/stm32f4xx_hal_driver/stm32f4xx_hal_i2s_ex.c ****     }
 781:/home/phong/Documents/thesis/stm32f4/stm-idf/components/stm32f4xx_hal_driver/stm32f4xx_hal_i2s_ex.c **** 
 782:/home/phong/Documents/thesis/stm32f4/stm-idf/components/stm32f4xx_hal_driver/stm32f4xx_hal_i2s_ex.c ****     /* I2Sext Underrun error interrupt occurred -------------------------------*/
 783:/home/phong/Documents/thesis/stm32f4/stm-idf/components/stm32f4xx_hal_driver/stm32f4xx_hal_i2s_ex.c ****     if (((i2sextsr & I2S_FLAG_UDR) == I2S_FLAG_UDR) && ((i2sextcr2 & I2S_IT_ERR) != RESET))
 784:/home/phong/Documents/thesis/stm32f4/stm-idf/components/stm32f4xx_hal_driver/stm32f4xx_hal_i2s_ex.c ****     {
 785:/home/phong/Documents/thesis/stm32f4/stm-idf/components/stm32f4xx_hal_driver/stm32f4xx_hal_i2s_ex.c ****       /* Disable TXE and ERR interrupt */
 786:/home/phong/Documents/thesis/stm32f4/stm-idf/components/stm32f4xx_hal_driver/stm32f4xx_hal_i2s_ex.c ****       __HAL_I2SEXT_DISABLE_IT(hi2s, (I2S_IT_TXE | I2S_IT_ERR));
 787:/home/phong/Documents/thesis/stm32f4/stm-idf/components/stm32f4xx_hal_driver/stm32f4xx_hal_i2s_ex.c **** 
 788:/home/phong/Documents/thesis/stm32f4/stm-idf/components/stm32f4xx_hal_driver/stm32f4xx_hal_i2s_ex.c ****       /* Disable RXNE and ERR interrupt */
 789:/home/phong/Documents/thesis/stm32f4/stm-idf/components/stm32f4xx_hal_driver/stm32f4xx_hal_i2s_ex.c ****       __HAL_I2S_DISABLE_IT(hi2s, (I2S_IT_RXNE | I2S_IT_ERR));
 790:/home/phong/Documents/thesis/stm32f4/stm-idf/components/stm32f4xx_hal_driver/stm32f4xx_hal_i2s_ex.c **** 
 791:/home/phong/Documents/thesis/stm32f4/stm-idf/components/stm32f4xx_hal_driver/stm32f4xx_hal_i2s_ex.c ****       /* Set the I2S State ready */
 792:/home/phong/Documents/thesis/stm32f4/stm-idf/components/stm32f4xx_hal_driver/stm32f4xx_hal_i2s_ex.c ****       hi2s->State = HAL_I2S_STATE_READY;
 793:/home/phong/Documents/thesis/stm32f4/stm-idf/components/stm32f4xx_hal_driver/stm32f4xx_hal_i2s_ex.c **** 
 794:/home/phong/Documents/thesis/stm32f4/stm-idf/components/stm32f4xx_hal_driver/stm32f4xx_hal_i2s_ex.c ****       /* Set the error code and execute error callback*/
 795:/home/phong/Documents/thesis/stm32f4/stm-idf/components/stm32f4xx_hal_driver/stm32f4xx_hal_i2s_ex.c ****       SET_BIT(hi2s->ErrorCode, HAL_I2S_ERROR_UDR);
 796:/home/phong/Documents/thesis/stm32f4/stm-idf/components/stm32f4xx_hal_driver/stm32f4xx_hal_i2s_ex.c ****       /* Call user error callback */
 797:/home/phong/Documents/thesis/stm32f4/stm-idf/components/stm32f4xx_hal_driver/stm32f4xx_hal_i2s_ex.c **** #if (USE_HAL_I2S_REGISTER_CALLBACKS == 1U)
 798:/home/phong/Documents/thesis/stm32f4/stm-idf/components/stm32f4xx_hal_driver/stm32f4xx_hal_i2s_ex.c ****       hi2s->ErrorCallback(hi2s);
 799:/home/phong/Documents/thesis/stm32f4/stm-idf/components/stm32f4xx_hal_driver/stm32f4xx_hal_i2s_ex.c **** #else
 800:/home/phong/Documents/thesis/stm32f4/stm-idf/components/stm32f4xx_hal_driver/stm32f4xx_hal_i2s_ex.c ****       HAL_I2S_ErrorCallback(hi2s);
 801:/home/phong/Documents/thesis/stm32f4/stm-idf/components/stm32f4xx_hal_driver/stm32f4xx_hal_i2s_ex.c **** #endif /* USE_HAL_I2S_REGISTER_CALLBACKS */
 802:/home/phong/Documents/thesis/stm32f4/stm-idf/components/stm32f4xx_hal_driver/stm32f4xx_hal_i2s_ex.c ****     }
 803:/home/phong/Documents/thesis/stm32f4/stm-idf/components/stm32f4xx_hal_driver/stm32f4xx_hal_i2s_ex.c ****   }
 804:/home/phong/Documents/thesis/stm32f4/stm-idf/components/stm32f4xx_hal_driver/stm32f4xx_hal_i2s_ex.c **** }
 805:/home/phong/Documents/thesis/stm32f4/stm-idf/components/stm32f4xx_hal_driver/stm32f4xx_hal_i2s_ex.c **** 
 806:/home/phong/Documents/thesis/stm32f4/stm-idf/components/stm32f4xx_hal_driver/stm32f4xx_hal_i2s_ex.c **** /**
 807:/home/phong/Documents/thesis/stm32f4/stm-idf/components/stm32f4xx_hal_driver/stm32f4xx_hal_i2s_ex.c ****   * @brief  Tx and Rx Transfer half completed callback
 808:/home/phong/Documents/thesis/stm32f4/stm-idf/components/stm32f4xx_hal_driver/stm32f4xx_hal_i2s_ex.c ****   * @param  hi2s I2S handle
 809:/home/phong/Documents/thesis/stm32f4/stm-idf/components/stm32f4xx_hal_driver/stm32f4xx_hal_i2s_ex.c ****   * @retval None
 810:/home/phong/Documents/thesis/stm32f4/stm-idf/components/stm32f4xx_hal_driver/stm32f4xx_hal_i2s_ex.c ****   */
 811:/home/phong/Documents/thesis/stm32f4/stm-idf/components/stm32f4xx_hal_driver/stm32f4xx_hal_i2s_ex.c **** __weak void HAL_I2SEx_TxRxHalfCpltCallback(I2S_HandleTypeDef *hi2s)
 812:/home/phong/Documents/thesis/stm32f4/stm-idf/components/stm32f4xx_hal_driver/stm32f4xx_hal_i2s_ex.c **** {
 813:/home/phong/Documents/thesis/stm32f4/stm-idf/components/stm32f4xx_hal_driver/stm32f4xx_hal_i2s_ex.c ****   /* Prevent unused argument(s) compilation warning */
 814:/home/phong/Documents/thesis/stm32f4/stm-idf/components/stm32f4xx_hal_driver/stm32f4xx_hal_i2s_ex.c ****   UNUSED(hi2s);
 815:/home/phong/Documents/thesis/stm32f4/stm-idf/components/stm32f4xx_hal_driver/stm32f4xx_hal_i2s_ex.c **** 
 816:/home/phong/Documents/thesis/stm32f4/stm-idf/components/stm32f4xx_hal_driver/stm32f4xx_hal_i2s_ex.c ****   /* NOTE : This function Should not be modified, when the callback is needed,
 817:/home/phong/Documents/thesis/stm32f4/stm-idf/components/stm32f4xx_hal_driver/stm32f4xx_hal_i2s_ex.c ****             the HAL_I2SEx_TxRxHalfCpltCallback could be implemented in the user file
 818:/home/phong/Documents/thesis/stm32f4/stm-idf/components/stm32f4xx_hal_driver/stm32f4xx_hal_i2s_ex.c ****    */
 819:/home/phong/Documents/thesis/stm32f4/stm-idf/components/stm32f4xx_hal_driver/stm32f4xx_hal_i2s_ex.c **** }
 820:/home/phong/Documents/thesis/stm32f4/stm-idf/components/stm32f4xx_hal_driver/stm32f4xx_hal_i2s_ex.c **** 
 821:/home/phong/Documents/thesis/stm32f4/stm-idf/components/stm32f4xx_hal_driver/stm32f4xx_hal_i2s_ex.c **** /**
 822:/home/phong/Documents/thesis/stm32f4/stm-idf/components/stm32f4xx_hal_driver/stm32f4xx_hal_i2s_ex.c ****   * @brief  Tx and Rx Transfer completed callback
 823:/home/phong/Documents/thesis/stm32f4/stm-idf/components/stm32f4xx_hal_driver/stm32f4xx_hal_i2s_ex.c ****   * @param  hi2s I2S handle
 824:/home/phong/Documents/thesis/stm32f4/stm-idf/components/stm32f4xx_hal_driver/stm32f4xx_hal_i2s_ex.c ****   * @retval None
 825:/home/phong/Documents/thesis/stm32f4/stm-idf/components/stm32f4xx_hal_driver/stm32f4xx_hal_i2s_ex.c ****   */
 826:/home/phong/Documents/thesis/stm32f4/stm-idf/components/stm32f4xx_hal_driver/stm32f4xx_hal_i2s_ex.c **** __weak void HAL_I2SEx_TxRxCpltCallback(I2S_HandleTypeDef *hi2s)
 827:/home/phong/Documents/thesis/stm32f4/stm-idf/components/stm32f4xx_hal_driver/stm32f4xx_hal_i2s_ex.c **** {
 828:/home/phong/Documents/thesis/stm32f4/stm-idf/components/stm32f4xx_hal_driver/stm32f4xx_hal_i2s_ex.c ****   /* Prevent unused argument(s) compilation warning */
 829:/home/phong/Documents/thesis/stm32f4/stm-idf/components/stm32f4xx_hal_driver/stm32f4xx_hal_i2s_ex.c ****   UNUSED(hi2s);
 830:/home/phong/Documents/thesis/stm32f4/stm-idf/components/stm32f4xx_hal_driver/stm32f4xx_hal_i2s_ex.c **** 
ARM GAS  /tmp/ccyFKXfi.s 			page 16


 831:/home/phong/Documents/thesis/stm32f4/stm-idf/components/stm32f4xx_hal_driver/stm32f4xx_hal_i2s_ex.c ****   /* NOTE : This function should not be modified, when the callback is needed,
 832:/home/phong/Documents/thesis/stm32f4/stm-idf/components/stm32f4xx_hal_driver/stm32f4xx_hal_i2s_ex.c ****             the HAL_I2SEx_TxRxCpltCallback could be implemented in the user file
 833:/home/phong/Documents/thesis/stm32f4/stm-idf/components/stm32f4xx_hal_driver/stm32f4xx_hal_i2s_ex.c ****    */
 834:/home/phong/Documents/thesis/stm32f4/stm-idf/components/stm32f4xx_hal_driver/stm32f4xx_hal_i2s_ex.c **** }
 835:/home/phong/Documents/thesis/stm32f4/stm-idf/components/stm32f4xx_hal_driver/stm32f4xx_hal_i2s_ex.c **** 
 836:/home/phong/Documents/thesis/stm32f4/stm-idf/components/stm32f4xx_hal_driver/stm32f4xx_hal_i2s_ex.c **** /**
 837:/home/phong/Documents/thesis/stm32f4/stm-idf/components/stm32f4xx_hal_driver/stm32f4xx_hal_i2s_ex.c ****   * @}
 838:/home/phong/Documents/thesis/stm32f4/stm-idf/components/stm32f4xx_hal_driver/stm32f4xx_hal_i2s_ex.c ****   */
 839:/home/phong/Documents/thesis/stm32f4/stm-idf/components/stm32f4xx_hal_driver/stm32f4xx_hal_i2s_ex.c **** 
 840:/home/phong/Documents/thesis/stm32f4/stm-idf/components/stm32f4xx_hal_driver/stm32f4xx_hal_i2s_ex.c **** /**
 841:/home/phong/Documents/thesis/stm32f4/stm-idf/components/stm32f4xx_hal_driver/stm32f4xx_hal_i2s_ex.c ****   * @}
 842:/home/phong/Documents/thesis/stm32f4/stm-idf/components/stm32f4xx_hal_driver/stm32f4xx_hal_i2s_ex.c ****   */
 843:/home/phong/Documents/thesis/stm32f4/stm-idf/components/stm32f4xx_hal_driver/stm32f4xx_hal_i2s_ex.c **** 
 844:/home/phong/Documents/thesis/stm32f4/stm-idf/components/stm32f4xx_hal_driver/stm32f4xx_hal_i2s_ex.c **** /** @addtogroup I2SEx_Private_Functions I2S Extended Private Functions
 845:/home/phong/Documents/thesis/stm32f4/stm-idf/components/stm32f4xx_hal_driver/stm32f4xx_hal_i2s_ex.c ****   * @{
 846:/home/phong/Documents/thesis/stm32f4/stm-idf/components/stm32f4xx_hal_driver/stm32f4xx_hal_i2s_ex.c ****   */
 847:/home/phong/Documents/thesis/stm32f4/stm-idf/components/stm32f4xx_hal_driver/stm32f4xx_hal_i2s_ex.c **** 
 848:/home/phong/Documents/thesis/stm32f4/stm-idf/components/stm32f4xx_hal_driver/stm32f4xx_hal_i2s_ex.c **** /**
 849:/home/phong/Documents/thesis/stm32f4/stm-idf/components/stm32f4xx_hal_driver/stm32f4xx_hal_i2s_ex.c ****   * @brief  DMA I2S transmit receive process half complete callback
 850:/home/phong/Documents/thesis/stm32f4/stm-idf/components/stm32f4xx_hal_driver/stm32f4xx_hal_i2s_ex.c ****   * @param  hdma pointer to a DMA_HandleTypeDef structure that contains
 851:/home/phong/Documents/thesis/stm32f4/stm-idf/components/stm32f4xx_hal_driver/stm32f4xx_hal_i2s_ex.c ****   *               the configuration information for the specified DMA module.
 852:/home/phong/Documents/thesis/stm32f4/stm-idf/components/stm32f4xx_hal_driver/stm32f4xx_hal_i2s_ex.c ****   * @retval None
 853:/home/phong/Documents/thesis/stm32f4/stm-idf/components/stm32f4xx_hal_driver/stm32f4xx_hal_i2s_ex.c ****   */
 854:/home/phong/Documents/thesis/stm32f4/stm-idf/components/stm32f4xx_hal_driver/stm32f4xx_hal_i2s_ex.c **** static void I2SEx_TxRxDMAHalfCplt(DMA_HandleTypeDef *hdma)
 855:/home/phong/Documents/thesis/stm32f4/stm-idf/components/stm32f4xx_hal_driver/stm32f4xx_hal_i2s_ex.c **** {
 856:/home/phong/Documents/thesis/stm32f4/stm-idf/components/stm32f4xx_hal_driver/stm32f4xx_hal_i2s_ex.c ****   I2S_HandleTypeDef *hi2s = (I2S_HandleTypeDef *)((DMA_HandleTypeDef *)hdma)->Parent;
 857:/home/phong/Documents/thesis/stm32f4/stm-idf/components/stm32f4xx_hal_driver/stm32f4xx_hal_i2s_ex.c **** 
 858:/home/phong/Documents/thesis/stm32f4/stm-idf/components/stm32f4xx_hal_driver/stm32f4xx_hal_i2s_ex.c ****   /* Call user TxRx Half complete callback */
 859:/home/phong/Documents/thesis/stm32f4/stm-idf/components/stm32f4xx_hal_driver/stm32f4xx_hal_i2s_ex.c **** #if (USE_HAL_I2S_REGISTER_CALLBACKS == 1U)
 860:/home/phong/Documents/thesis/stm32f4/stm-idf/components/stm32f4xx_hal_driver/stm32f4xx_hal_i2s_ex.c ****   hi2s->TxRxHalfCpltCallback(hi2s);
 861:/home/phong/Documents/thesis/stm32f4/stm-idf/components/stm32f4xx_hal_driver/stm32f4xx_hal_i2s_ex.c **** #else
 862:/home/phong/Documents/thesis/stm32f4/stm-idf/components/stm32f4xx_hal_driver/stm32f4xx_hal_i2s_ex.c ****   HAL_I2SEx_TxRxHalfCpltCallback(hi2s);
 863:/home/phong/Documents/thesis/stm32f4/stm-idf/components/stm32f4xx_hal_driver/stm32f4xx_hal_i2s_ex.c **** #endif /* USE_HAL_I2S_REGISTER_CALLBACKS */
 864:/home/phong/Documents/thesis/stm32f4/stm-idf/components/stm32f4xx_hal_driver/stm32f4xx_hal_i2s_ex.c **** }
 865:/home/phong/Documents/thesis/stm32f4/stm-idf/components/stm32f4xx_hal_driver/stm32f4xx_hal_i2s_ex.c **** 
 866:/home/phong/Documents/thesis/stm32f4/stm-idf/components/stm32f4xx_hal_driver/stm32f4xx_hal_i2s_ex.c **** /**
 867:/home/phong/Documents/thesis/stm32f4/stm-idf/components/stm32f4xx_hal_driver/stm32f4xx_hal_i2s_ex.c ****   * @brief  DMA I2S transmit receive process complete callback
 868:/home/phong/Documents/thesis/stm32f4/stm-idf/components/stm32f4xx_hal_driver/stm32f4xx_hal_i2s_ex.c ****   * @param  hdma pointer to a DMA_HandleTypeDef structure that contains
 869:/home/phong/Documents/thesis/stm32f4/stm-idf/components/stm32f4xx_hal_driver/stm32f4xx_hal_i2s_ex.c ****   *               the configuration information for the specified DMA module.
 870:/home/phong/Documents/thesis/stm32f4/stm-idf/components/stm32f4xx_hal_driver/stm32f4xx_hal_i2s_ex.c ****   * @retval None
 871:/home/phong/Documents/thesis/stm32f4/stm-idf/components/stm32f4xx_hal_driver/stm32f4xx_hal_i2s_ex.c ****   */
 872:/home/phong/Documents/thesis/stm32f4/stm-idf/components/stm32f4xx_hal_driver/stm32f4xx_hal_i2s_ex.c **** static void I2SEx_TxRxDMACplt(DMA_HandleTypeDef *hdma)
 873:/home/phong/Documents/thesis/stm32f4/stm-idf/components/stm32f4xx_hal_driver/stm32f4xx_hal_i2s_ex.c **** {
 874:/home/phong/Documents/thesis/stm32f4/stm-idf/components/stm32f4xx_hal_driver/stm32f4xx_hal_i2s_ex.c ****   I2S_HandleTypeDef *hi2s = (I2S_HandleTypeDef *)((DMA_HandleTypeDef *)hdma)->Parent;
 875:/home/phong/Documents/thesis/stm32f4/stm-idf/components/stm32f4xx_hal_driver/stm32f4xx_hal_i2s_ex.c **** 
 876:/home/phong/Documents/thesis/stm32f4/stm-idf/components/stm32f4xx_hal_driver/stm32f4xx_hal_i2s_ex.c ****   /* if DMA is configured in DMA_NORMAL mode */
 877:/home/phong/Documents/thesis/stm32f4/stm-idf/components/stm32f4xx_hal_driver/stm32f4xx_hal_i2s_ex.c ****   if (hdma->Init.Mode == DMA_NORMAL)
 878:/home/phong/Documents/thesis/stm32f4/stm-idf/components/stm32f4xx_hal_driver/stm32f4xx_hal_i2s_ex.c ****   {
 879:/home/phong/Documents/thesis/stm32f4/stm-idf/components/stm32f4xx_hal_driver/stm32f4xx_hal_i2s_ex.c ****     if (hi2s->hdmarx == hdma)
 880:/home/phong/Documents/thesis/stm32f4/stm-idf/components/stm32f4xx_hal_driver/stm32f4xx_hal_i2s_ex.c ****     {
 881:/home/phong/Documents/thesis/stm32f4/stm-idf/components/stm32f4xx_hal_driver/stm32f4xx_hal_i2s_ex.c ****       /* Disable Rx DMA Request */
 882:/home/phong/Documents/thesis/stm32f4/stm-idf/components/stm32f4xx_hal_driver/stm32f4xx_hal_i2s_ex.c ****       if (((hi2s->Instance->I2SCFGR & SPI_I2SCFGR_I2SCFG) == I2S_MODE_MASTER_TX) || \
 883:/home/phong/Documents/thesis/stm32f4/stm-idf/components/stm32f4xx_hal_driver/stm32f4xx_hal_i2s_ex.c ****           ((hi2s->Instance->I2SCFGR & SPI_I2SCFGR_I2SCFG) == I2S_MODE_SLAVE_TX))
 884:/home/phong/Documents/thesis/stm32f4/stm-idf/components/stm32f4xx_hal_driver/stm32f4xx_hal_i2s_ex.c ****       {
 885:/home/phong/Documents/thesis/stm32f4/stm-idf/components/stm32f4xx_hal_driver/stm32f4xx_hal_i2s_ex.c ****         CLEAR_BIT(I2SxEXT(hi2s->Instance)->CR2, SPI_CR2_RXDMAEN);
 886:/home/phong/Documents/thesis/stm32f4/stm-idf/components/stm32f4xx_hal_driver/stm32f4xx_hal_i2s_ex.c ****       }
 887:/home/phong/Documents/thesis/stm32f4/stm-idf/components/stm32f4xx_hal_driver/stm32f4xx_hal_i2s_ex.c ****       else
ARM GAS  /tmp/ccyFKXfi.s 			page 17


 888:/home/phong/Documents/thesis/stm32f4/stm-idf/components/stm32f4xx_hal_driver/stm32f4xx_hal_i2s_ex.c ****       {
 889:/home/phong/Documents/thesis/stm32f4/stm-idf/components/stm32f4xx_hal_driver/stm32f4xx_hal_i2s_ex.c ****         CLEAR_BIT(hi2s->Instance->CR2, SPI_CR2_RXDMAEN);
 890:/home/phong/Documents/thesis/stm32f4/stm-idf/components/stm32f4xx_hal_driver/stm32f4xx_hal_i2s_ex.c ****       }
 891:/home/phong/Documents/thesis/stm32f4/stm-idf/components/stm32f4xx_hal_driver/stm32f4xx_hal_i2s_ex.c **** 
 892:/home/phong/Documents/thesis/stm32f4/stm-idf/components/stm32f4xx_hal_driver/stm32f4xx_hal_i2s_ex.c ****       hi2s->RxXferCount = 0U;
 893:/home/phong/Documents/thesis/stm32f4/stm-idf/components/stm32f4xx_hal_driver/stm32f4xx_hal_i2s_ex.c **** 
 894:/home/phong/Documents/thesis/stm32f4/stm-idf/components/stm32f4xx_hal_driver/stm32f4xx_hal_i2s_ex.c ****       if (hi2s->TxXferCount == 0U)
 895:/home/phong/Documents/thesis/stm32f4/stm-idf/components/stm32f4xx_hal_driver/stm32f4xx_hal_i2s_ex.c ****       {
 896:/home/phong/Documents/thesis/stm32f4/stm-idf/components/stm32f4xx_hal_driver/stm32f4xx_hal_i2s_ex.c ****         hi2s->State = HAL_I2S_STATE_READY;
 897:/home/phong/Documents/thesis/stm32f4/stm-idf/components/stm32f4xx_hal_driver/stm32f4xx_hal_i2s_ex.c **** 
 898:/home/phong/Documents/thesis/stm32f4/stm-idf/components/stm32f4xx_hal_driver/stm32f4xx_hal_i2s_ex.c ****         /* Call user TxRx complete callback */
 899:/home/phong/Documents/thesis/stm32f4/stm-idf/components/stm32f4xx_hal_driver/stm32f4xx_hal_i2s_ex.c **** #if (USE_HAL_I2S_REGISTER_CALLBACKS == 1U)
 900:/home/phong/Documents/thesis/stm32f4/stm-idf/components/stm32f4xx_hal_driver/stm32f4xx_hal_i2s_ex.c ****         hi2s->TxRxCpltCallback(hi2s);
 901:/home/phong/Documents/thesis/stm32f4/stm-idf/components/stm32f4xx_hal_driver/stm32f4xx_hal_i2s_ex.c **** #else
 902:/home/phong/Documents/thesis/stm32f4/stm-idf/components/stm32f4xx_hal_driver/stm32f4xx_hal_i2s_ex.c ****         HAL_I2SEx_TxRxCpltCallback(hi2s);
 903:/home/phong/Documents/thesis/stm32f4/stm-idf/components/stm32f4xx_hal_driver/stm32f4xx_hal_i2s_ex.c **** #endif /* USE_HAL_I2S_REGISTER_CALLBACKS */
 904:/home/phong/Documents/thesis/stm32f4/stm-idf/components/stm32f4xx_hal_driver/stm32f4xx_hal_i2s_ex.c ****       }
 905:/home/phong/Documents/thesis/stm32f4/stm-idf/components/stm32f4xx_hal_driver/stm32f4xx_hal_i2s_ex.c ****     }
 906:/home/phong/Documents/thesis/stm32f4/stm-idf/components/stm32f4xx_hal_driver/stm32f4xx_hal_i2s_ex.c **** 
 907:/home/phong/Documents/thesis/stm32f4/stm-idf/components/stm32f4xx_hal_driver/stm32f4xx_hal_i2s_ex.c ****     if (hi2s->hdmatx == hdma)
 908:/home/phong/Documents/thesis/stm32f4/stm-idf/components/stm32f4xx_hal_driver/stm32f4xx_hal_i2s_ex.c ****     {
 909:/home/phong/Documents/thesis/stm32f4/stm-idf/components/stm32f4xx_hal_driver/stm32f4xx_hal_i2s_ex.c ****       /* Disable Tx DMA Request */
 910:/home/phong/Documents/thesis/stm32f4/stm-idf/components/stm32f4xx_hal_driver/stm32f4xx_hal_i2s_ex.c ****       if (((hi2s->Instance->I2SCFGR & SPI_I2SCFGR_I2SCFG) == I2S_MODE_MASTER_TX) || \
 911:/home/phong/Documents/thesis/stm32f4/stm-idf/components/stm32f4xx_hal_driver/stm32f4xx_hal_i2s_ex.c ****           ((hi2s->Instance->I2SCFGR & SPI_I2SCFGR_I2SCFG) == I2S_MODE_SLAVE_TX))
 912:/home/phong/Documents/thesis/stm32f4/stm-idf/components/stm32f4xx_hal_driver/stm32f4xx_hal_i2s_ex.c ****       {
 913:/home/phong/Documents/thesis/stm32f4/stm-idf/components/stm32f4xx_hal_driver/stm32f4xx_hal_i2s_ex.c ****         CLEAR_BIT(hi2s->Instance->CR2, SPI_CR2_TXDMAEN);
 914:/home/phong/Documents/thesis/stm32f4/stm-idf/components/stm32f4xx_hal_driver/stm32f4xx_hal_i2s_ex.c ****       }
 915:/home/phong/Documents/thesis/stm32f4/stm-idf/components/stm32f4xx_hal_driver/stm32f4xx_hal_i2s_ex.c ****       else
 916:/home/phong/Documents/thesis/stm32f4/stm-idf/components/stm32f4xx_hal_driver/stm32f4xx_hal_i2s_ex.c ****       {
 917:/home/phong/Documents/thesis/stm32f4/stm-idf/components/stm32f4xx_hal_driver/stm32f4xx_hal_i2s_ex.c ****         CLEAR_BIT(I2SxEXT(hi2s->Instance)->CR2, SPI_CR2_TXDMAEN);
 918:/home/phong/Documents/thesis/stm32f4/stm-idf/components/stm32f4xx_hal_driver/stm32f4xx_hal_i2s_ex.c ****       }
 919:/home/phong/Documents/thesis/stm32f4/stm-idf/components/stm32f4xx_hal_driver/stm32f4xx_hal_i2s_ex.c **** 
 920:/home/phong/Documents/thesis/stm32f4/stm-idf/components/stm32f4xx_hal_driver/stm32f4xx_hal_i2s_ex.c ****       hi2s->TxXferCount = 0U;
 921:/home/phong/Documents/thesis/stm32f4/stm-idf/components/stm32f4xx_hal_driver/stm32f4xx_hal_i2s_ex.c **** 
 922:/home/phong/Documents/thesis/stm32f4/stm-idf/components/stm32f4xx_hal_driver/stm32f4xx_hal_i2s_ex.c ****       if (hi2s->RxXferCount == 0U)
 923:/home/phong/Documents/thesis/stm32f4/stm-idf/components/stm32f4xx_hal_driver/stm32f4xx_hal_i2s_ex.c ****       {
 924:/home/phong/Documents/thesis/stm32f4/stm-idf/components/stm32f4xx_hal_driver/stm32f4xx_hal_i2s_ex.c ****         hi2s->State = HAL_I2S_STATE_READY;
 925:/home/phong/Documents/thesis/stm32f4/stm-idf/components/stm32f4xx_hal_driver/stm32f4xx_hal_i2s_ex.c **** 
 926:/home/phong/Documents/thesis/stm32f4/stm-idf/components/stm32f4xx_hal_driver/stm32f4xx_hal_i2s_ex.c ****         /* Call user TxRx complete callback */
 927:/home/phong/Documents/thesis/stm32f4/stm-idf/components/stm32f4xx_hal_driver/stm32f4xx_hal_i2s_ex.c **** #if (USE_HAL_I2S_REGISTER_CALLBACKS == 1U)
 928:/home/phong/Documents/thesis/stm32f4/stm-idf/components/stm32f4xx_hal_driver/stm32f4xx_hal_i2s_ex.c ****         hi2s->TxRxCpltCallback(hi2s);
 929:/home/phong/Documents/thesis/stm32f4/stm-idf/components/stm32f4xx_hal_driver/stm32f4xx_hal_i2s_ex.c **** #else
 930:/home/phong/Documents/thesis/stm32f4/stm-idf/components/stm32f4xx_hal_driver/stm32f4xx_hal_i2s_ex.c ****         HAL_I2SEx_TxRxCpltCallback(hi2s);
 931:/home/phong/Documents/thesis/stm32f4/stm-idf/components/stm32f4xx_hal_driver/stm32f4xx_hal_i2s_ex.c **** #endif /* USE_HAL_I2S_REGISTER_CALLBACKS */
 932:/home/phong/Documents/thesis/stm32f4/stm-idf/components/stm32f4xx_hal_driver/stm32f4xx_hal_i2s_ex.c ****       }
 933:/home/phong/Documents/thesis/stm32f4/stm-idf/components/stm32f4xx_hal_driver/stm32f4xx_hal_i2s_ex.c ****     }
 934:/home/phong/Documents/thesis/stm32f4/stm-idf/components/stm32f4xx_hal_driver/stm32f4xx_hal_i2s_ex.c ****   }
 935:/home/phong/Documents/thesis/stm32f4/stm-idf/components/stm32f4xx_hal_driver/stm32f4xx_hal_i2s_ex.c **** }
 936:/home/phong/Documents/thesis/stm32f4/stm-idf/components/stm32f4xx_hal_driver/stm32f4xx_hal_i2s_ex.c **** 
 937:/home/phong/Documents/thesis/stm32f4/stm-idf/components/stm32f4xx_hal_driver/stm32f4xx_hal_i2s_ex.c **** /**
 938:/home/phong/Documents/thesis/stm32f4/stm-idf/components/stm32f4xx_hal_driver/stm32f4xx_hal_i2s_ex.c ****   * @brief  DMA I2S communication error callback
 939:/home/phong/Documents/thesis/stm32f4/stm-idf/components/stm32f4xx_hal_driver/stm32f4xx_hal_i2s_ex.c ****   * @param  hdma DMA handle
 940:/home/phong/Documents/thesis/stm32f4/stm-idf/components/stm32f4xx_hal_driver/stm32f4xx_hal_i2s_ex.c ****   * @retval None
 941:/home/phong/Documents/thesis/stm32f4/stm-idf/components/stm32f4xx_hal_driver/stm32f4xx_hal_i2s_ex.c ****   */
 942:/home/phong/Documents/thesis/stm32f4/stm-idf/components/stm32f4xx_hal_driver/stm32f4xx_hal_i2s_ex.c **** static void I2SEx_TxRxDMAError(DMA_HandleTypeDef *hdma)
 943:/home/phong/Documents/thesis/stm32f4/stm-idf/components/stm32f4xx_hal_driver/stm32f4xx_hal_i2s_ex.c **** {
 944:/home/phong/Documents/thesis/stm32f4/stm-idf/components/stm32f4xx_hal_driver/stm32f4xx_hal_i2s_ex.c ****   I2S_HandleTypeDef *hi2s = (I2S_HandleTypeDef *)((DMA_HandleTypeDef *)hdma)->Parent;
ARM GAS  /tmp/ccyFKXfi.s 			page 18


 945:/home/phong/Documents/thesis/stm32f4/stm-idf/components/stm32f4xx_hal_driver/stm32f4xx_hal_i2s_ex.c **** 
 946:/home/phong/Documents/thesis/stm32f4/stm-idf/components/stm32f4xx_hal_driver/stm32f4xx_hal_i2s_ex.c ****   /* Disable Rx and Tx DMA Request */
 947:/home/phong/Documents/thesis/stm32f4/stm-idf/components/stm32f4xx_hal_driver/stm32f4xx_hal_i2s_ex.c ****   CLEAR_BIT(hi2s->Instance->CR2, (SPI_CR2_RXDMAEN | SPI_CR2_TXDMAEN));
 948:/home/phong/Documents/thesis/stm32f4/stm-idf/components/stm32f4xx_hal_driver/stm32f4xx_hal_i2s_ex.c ****   CLEAR_BIT(I2SxEXT(hi2s->Instance)->CR2, (SPI_CR2_RXDMAEN | SPI_CR2_TXDMAEN));
 949:/home/phong/Documents/thesis/stm32f4/stm-idf/components/stm32f4xx_hal_driver/stm32f4xx_hal_i2s_ex.c **** 
 950:/home/phong/Documents/thesis/stm32f4/stm-idf/components/stm32f4xx_hal_driver/stm32f4xx_hal_i2s_ex.c ****   hi2s->TxXferCount = 0U;
 951:/home/phong/Documents/thesis/stm32f4/stm-idf/components/stm32f4xx_hal_driver/stm32f4xx_hal_i2s_ex.c ****   hi2s->RxXferCount = 0U;
 952:/home/phong/Documents/thesis/stm32f4/stm-idf/components/stm32f4xx_hal_driver/stm32f4xx_hal_i2s_ex.c **** 
 953:/home/phong/Documents/thesis/stm32f4/stm-idf/components/stm32f4xx_hal_driver/stm32f4xx_hal_i2s_ex.c ****   hi2s->State = HAL_I2S_STATE_READY;
 954:/home/phong/Documents/thesis/stm32f4/stm-idf/components/stm32f4xx_hal_driver/stm32f4xx_hal_i2s_ex.c **** 
 955:/home/phong/Documents/thesis/stm32f4/stm-idf/components/stm32f4xx_hal_driver/stm32f4xx_hal_i2s_ex.c ****   /* Set the error code and execute error callback*/
 956:/home/phong/Documents/thesis/stm32f4/stm-idf/components/stm32f4xx_hal_driver/stm32f4xx_hal_i2s_ex.c ****   SET_BIT(hi2s->ErrorCode, HAL_I2S_ERROR_DMA);
 957:/home/phong/Documents/thesis/stm32f4/stm-idf/components/stm32f4xx_hal_driver/stm32f4xx_hal_i2s_ex.c ****   /* Call user error callback */
 958:/home/phong/Documents/thesis/stm32f4/stm-idf/components/stm32f4xx_hal_driver/stm32f4xx_hal_i2s_ex.c **** #if (USE_HAL_I2S_REGISTER_CALLBACKS == 1U)
 959:/home/phong/Documents/thesis/stm32f4/stm-idf/components/stm32f4xx_hal_driver/stm32f4xx_hal_i2s_ex.c ****   hi2s->ErrorCallback(hi2s);
 960:/home/phong/Documents/thesis/stm32f4/stm-idf/components/stm32f4xx_hal_driver/stm32f4xx_hal_i2s_ex.c **** #else
 961:/home/phong/Documents/thesis/stm32f4/stm-idf/components/stm32f4xx_hal_driver/stm32f4xx_hal_i2s_ex.c ****   HAL_I2S_ErrorCallback(hi2s);
 962:/home/phong/Documents/thesis/stm32f4/stm-idf/components/stm32f4xx_hal_driver/stm32f4xx_hal_i2s_ex.c **** #endif /* USE_HAL_I2S_REGISTER_CALLBACKS */
 963:/home/phong/Documents/thesis/stm32f4/stm-idf/components/stm32f4xx_hal_driver/stm32f4xx_hal_i2s_ex.c **** }
 964:/home/phong/Documents/thesis/stm32f4/stm-idf/components/stm32f4xx_hal_driver/stm32f4xx_hal_i2s_ex.c **** 
 965:/home/phong/Documents/thesis/stm32f4/stm-idf/components/stm32f4xx_hal_driver/stm32f4xx_hal_i2s_ex.c **** /**
 966:/home/phong/Documents/thesis/stm32f4/stm-idf/components/stm32f4xx_hal_driver/stm32f4xx_hal_i2s_ex.c ****   * @brief  I2S Full-Duplex IT handler transmit function
 967:/home/phong/Documents/thesis/stm32f4/stm-idf/components/stm32f4xx_hal_driver/stm32f4xx_hal_i2s_ex.c ****   * @param  hi2s I2S handle
 968:/home/phong/Documents/thesis/stm32f4/stm-idf/components/stm32f4xx_hal_driver/stm32f4xx_hal_i2s_ex.c ****   * @retval None
 969:/home/phong/Documents/thesis/stm32f4/stm-idf/components/stm32f4xx_hal_driver/stm32f4xx_hal_i2s_ex.c ****   */
 970:/home/phong/Documents/thesis/stm32f4/stm-idf/components/stm32f4xx_hal_driver/stm32f4xx_hal_i2s_ex.c **** static void I2SEx_TxISR_I2S(I2S_HandleTypeDef *hi2s)
 971:/home/phong/Documents/thesis/stm32f4/stm-idf/components/stm32f4xx_hal_driver/stm32f4xx_hal_i2s_ex.c **** {
 972:/home/phong/Documents/thesis/stm32f4/stm-idf/components/stm32f4xx_hal_driver/stm32f4xx_hal_i2s_ex.c ****   /* Write Data on DR register */
 973:/home/phong/Documents/thesis/stm32f4/stm-idf/components/stm32f4xx_hal_driver/stm32f4xx_hal_i2s_ex.c ****   hi2s->Instance->DR = (*hi2s->pTxBuffPtr++);
 974:/home/phong/Documents/thesis/stm32f4/stm-idf/components/stm32f4xx_hal_driver/stm32f4xx_hal_i2s_ex.c ****   hi2s->TxXferCount--;
 975:/home/phong/Documents/thesis/stm32f4/stm-idf/components/stm32f4xx_hal_driver/stm32f4xx_hal_i2s_ex.c **** 
 976:/home/phong/Documents/thesis/stm32f4/stm-idf/components/stm32f4xx_hal_driver/stm32f4xx_hal_i2s_ex.c ****   if (hi2s->TxXferCount == 0U)
 977:/home/phong/Documents/thesis/stm32f4/stm-idf/components/stm32f4xx_hal_driver/stm32f4xx_hal_i2s_ex.c ****   {
 978:/home/phong/Documents/thesis/stm32f4/stm-idf/components/stm32f4xx_hal_driver/stm32f4xx_hal_i2s_ex.c ****     /* Disable TXE and ERR interrupt */
 979:/home/phong/Documents/thesis/stm32f4/stm-idf/components/stm32f4xx_hal_driver/stm32f4xx_hal_i2s_ex.c ****     __HAL_I2S_DISABLE_IT(hi2s, (I2S_IT_TXE | I2S_IT_ERR));
 980:/home/phong/Documents/thesis/stm32f4/stm-idf/components/stm32f4xx_hal_driver/stm32f4xx_hal_i2s_ex.c **** 
 981:/home/phong/Documents/thesis/stm32f4/stm-idf/components/stm32f4xx_hal_driver/stm32f4xx_hal_i2s_ex.c ****     if (hi2s->RxXferCount == 0U)
 982:/home/phong/Documents/thesis/stm32f4/stm-idf/components/stm32f4xx_hal_driver/stm32f4xx_hal_i2s_ex.c ****     {
 983:/home/phong/Documents/thesis/stm32f4/stm-idf/components/stm32f4xx_hal_driver/stm32f4xx_hal_i2s_ex.c ****       hi2s->State = HAL_I2S_STATE_READY;
 984:/home/phong/Documents/thesis/stm32f4/stm-idf/components/stm32f4xx_hal_driver/stm32f4xx_hal_i2s_ex.c ****       /* Call user TxRx complete callback */
 985:/home/phong/Documents/thesis/stm32f4/stm-idf/components/stm32f4xx_hal_driver/stm32f4xx_hal_i2s_ex.c **** #if (USE_HAL_I2S_REGISTER_CALLBACKS == 1U)
 986:/home/phong/Documents/thesis/stm32f4/stm-idf/components/stm32f4xx_hal_driver/stm32f4xx_hal_i2s_ex.c ****       hi2s->TxRxCpltCallback(hi2s);
 987:/home/phong/Documents/thesis/stm32f4/stm-idf/components/stm32f4xx_hal_driver/stm32f4xx_hal_i2s_ex.c **** #else
 988:/home/phong/Documents/thesis/stm32f4/stm-idf/components/stm32f4xx_hal_driver/stm32f4xx_hal_i2s_ex.c ****       HAL_I2SEx_TxRxCpltCallback(hi2s);
 989:/home/phong/Documents/thesis/stm32f4/stm-idf/components/stm32f4xx_hal_driver/stm32f4xx_hal_i2s_ex.c **** #endif /* USE_HAL_I2S_REGISTER_CALLBACKS */
 990:/home/phong/Documents/thesis/stm32f4/stm-idf/components/stm32f4xx_hal_driver/stm32f4xx_hal_i2s_ex.c ****     }
 991:/home/phong/Documents/thesis/stm32f4/stm-idf/components/stm32f4xx_hal_driver/stm32f4xx_hal_i2s_ex.c ****   }
 992:/home/phong/Documents/thesis/stm32f4/stm-idf/components/stm32f4xx_hal_driver/stm32f4xx_hal_i2s_ex.c **** }
 993:/home/phong/Documents/thesis/stm32f4/stm-idf/components/stm32f4xx_hal_driver/stm32f4xx_hal_i2s_ex.c **** 
 994:/home/phong/Documents/thesis/stm32f4/stm-idf/components/stm32f4xx_hal_driver/stm32f4xx_hal_i2s_ex.c **** /**
 995:/home/phong/Documents/thesis/stm32f4/stm-idf/components/stm32f4xx_hal_driver/stm32f4xx_hal_i2s_ex.c ****   * @brief  I2SExt Full-Duplex IT handler transmit function
 996:/home/phong/Documents/thesis/stm32f4/stm-idf/components/stm32f4xx_hal_driver/stm32f4xx_hal_i2s_ex.c ****   * @param  hi2s I2S handle
 997:/home/phong/Documents/thesis/stm32f4/stm-idf/components/stm32f4xx_hal_driver/stm32f4xx_hal_i2s_ex.c ****   * @retval None
 998:/home/phong/Documents/thesis/stm32f4/stm-idf/components/stm32f4xx_hal_driver/stm32f4xx_hal_i2s_ex.c ****   */
 999:/home/phong/Documents/thesis/stm32f4/stm-idf/components/stm32f4xx_hal_driver/stm32f4xx_hal_i2s_ex.c **** static void I2SEx_TxISR_I2SExt(I2S_HandleTypeDef *hi2s)
1000:/home/phong/Documents/thesis/stm32f4/stm-idf/components/stm32f4xx_hal_driver/stm32f4xx_hal_i2s_ex.c **** {
1001:/home/phong/Documents/thesis/stm32f4/stm-idf/components/stm32f4xx_hal_driver/stm32f4xx_hal_i2s_ex.c ****   /* Write Data on DR register */
ARM GAS  /tmp/ccyFKXfi.s 			page 19


1002:/home/phong/Documents/thesis/stm32f4/stm-idf/components/stm32f4xx_hal_driver/stm32f4xx_hal_i2s_ex.c ****   I2SxEXT(hi2s->Instance)->DR = (*hi2s->pTxBuffPtr++);
1003:/home/phong/Documents/thesis/stm32f4/stm-idf/components/stm32f4xx_hal_driver/stm32f4xx_hal_i2s_ex.c ****   hi2s->TxXferCount--;
1004:/home/phong/Documents/thesis/stm32f4/stm-idf/components/stm32f4xx_hal_driver/stm32f4xx_hal_i2s_ex.c **** 
1005:/home/phong/Documents/thesis/stm32f4/stm-idf/components/stm32f4xx_hal_driver/stm32f4xx_hal_i2s_ex.c ****   if (hi2s->TxXferCount == 0U)
1006:/home/phong/Documents/thesis/stm32f4/stm-idf/components/stm32f4xx_hal_driver/stm32f4xx_hal_i2s_ex.c ****   {
1007:/home/phong/Documents/thesis/stm32f4/stm-idf/components/stm32f4xx_hal_driver/stm32f4xx_hal_i2s_ex.c ****     /* Disable I2Sext TXE and ERR interrupt */
1008:/home/phong/Documents/thesis/stm32f4/stm-idf/components/stm32f4xx_hal_driver/stm32f4xx_hal_i2s_ex.c ****     __HAL_I2SEXT_DISABLE_IT(hi2s, (I2S_IT_TXE | I2S_IT_ERR));
1009:/home/phong/Documents/thesis/stm32f4/stm-idf/components/stm32f4xx_hal_driver/stm32f4xx_hal_i2s_ex.c **** 
1010:/home/phong/Documents/thesis/stm32f4/stm-idf/components/stm32f4xx_hal_driver/stm32f4xx_hal_i2s_ex.c ****     if (hi2s->RxXferCount == 0U)
1011:/home/phong/Documents/thesis/stm32f4/stm-idf/components/stm32f4xx_hal_driver/stm32f4xx_hal_i2s_ex.c ****     {
1012:/home/phong/Documents/thesis/stm32f4/stm-idf/components/stm32f4xx_hal_driver/stm32f4xx_hal_i2s_ex.c ****       hi2s->State = HAL_I2S_STATE_READY;
1013:/home/phong/Documents/thesis/stm32f4/stm-idf/components/stm32f4xx_hal_driver/stm32f4xx_hal_i2s_ex.c ****       /* Call user TxRx complete callback */
1014:/home/phong/Documents/thesis/stm32f4/stm-idf/components/stm32f4xx_hal_driver/stm32f4xx_hal_i2s_ex.c **** #if (USE_HAL_I2S_REGISTER_CALLBACKS == 1U)
1015:/home/phong/Documents/thesis/stm32f4/stm-idf/components/stm32f4xx_hal_driver/stm32f4xx_hal_i2s_ex.c ****       hi2s->TxRxCpltCallback(hi2s);
1016:/home/phong/Documents/thesis/stm32f4/stm-idf/components/stm32f4xx_hal_driver/stm32f4xx_hal_i2s_ex.c **** #else
1017:/home/phong/Documents/thesis/stm32f4/stm-idf/components/stm32f4xx_hal_driver/stm32f4xx_hal_i2s_ex.c ****       HAL_I2SEx_TxRxCpltCallback(hi2s);
1018:/home/phong/Documents/thesis/stm32f4/stm-idf/components/stm32f4xx_hal_driver/stm32f4xx_hal_i2s_ex.c **** #endif /* USE_HAL_I2S_REGISTER_CALLBACKS */
1019:/home/phong/Documents/thesis/stm32f4/stm-idf/components/stm32f4xx_hal_driver/stm32f4xx_hal_i2s_ex.c ****     }
1020:/home/phong/Documents/thesis/stm32f4/stm-idf/components/stm32f4xx_hal_driver/stm32f4xx_hal_i2s_ex.c ****   }
1021:/home/phong/Documents/thesis/stm32f4/stm-idf/components/stm32f4xx_hal_driver/stm32f4xx_hal_i2s_ex.c **** }
1022:/home/phong/Documents/thesis/stm32f4/stm-idf/components/stm32f4xx_hal_driver/stm32f4xx_hal_i2s_ex.c **** 
1023:/home/phong/Documents/thesis/stm32f4/stm-idf/components/stm32f4xx_hal_driver/stm32f4xx_hal_i2s_ex.c **** /**
1024:/home/phong/Documents/thesis/stm32f4/stm-idf/components/stm32f4xx_hal_driver/stm32f4xx_hal_i2s_ex.c ****   * @brief  I2S Full-Duplex IT handler receive function
1025:/home/phong/Documents/thesis/stm32f4/stm-idf/components/stm32f4xx_hal_driver/stm32f4xx_hal_i2s_ex.c ****   * @param  hi2s I2S handle
1026:/home/phong/Documents/thesis/stm32f4/stm-idf/components/stm32f4xx_hal_driver/stm32f4xx_hal_i2s_ex.c ****   * @retval None
1027:/home/phong/Documents/thesis/stm32f4/stm-idf/components/stm32f4xx_hal_driver/stm32f4xx_hal_i2s_ex.c ****   */
1028:/home/phong/Documents/thesis/stm32f4/stm-idf/components/stm32f4xx_hal_driver/stm32f4xx_hal_i2s_ex.c **** static void I2SEx_RxISR_I2S(I2S_HandleTypeDef *hi2s)
1029:/home/phong/Documents/thesis/stm32f4/stm-idf/components/stm32f4xx_hal_driver/stm32f4xx_hal_i2s_ex.c **** {
1030:/home/phong/Documents/thesis/stm32f4/stm-idf/components/stm32f4xx_hal_driver/stm32f4xx_hal_i2s_ex.c ****   /* Read Data from DR register */
1031:/home/phong/Documents/thesis/stm32f4/stm-idf/components/stm32f4xx_hal_driver/stm32f4xx_hal_i2s_ex.c ****   (*hi2s->pRxBuffPtr++) = hi2s->Instance->DR;
1032:/home/phong/Documents/thesis/stm32f4/stm-idf/components/stm32f4xx_hal_driver/stm32f4xx_hal_i2s_ex.c ****   hi2s->RxXferCount--;
1033:/home/phong/Documents/thesis/stm32f4/stm-idf/components/stm32f4xx_hal_driver/stm32f4xx_hal_i2s_ex.c **** 
1034:/home/phong/Documents/thesis/stm32f4/stm-idf/components/stm32f4xx_hal_driver/stm32f4xx_hal_i2s_ex.c ****   if (hi2s->RxXferCount == 0U)
1035:/home/phong/Documents/thesis/stm32f4/stm-idf/components/stm32f4xx_hal_driver/stm32f4xx_hal_i2s_ex.c ****   {
1036:/home/phong/Documents/thesis/stm32f4/stm-idf/components/stm32f4xx_hal_driver/stm32f4xx_hal_i2s_ex.c ****     /* Disable RXNE and ERR interrupt */
1037:/home/phong/Documents/thesis/stm32f4/stm-idf/components/stm32f4xx_hal_driver/stm32f4xx_hal_i2s_ex.c ****     __HAL_I2S_DISABLE_IT(hi2s, (I2S_IT_RXNE | I2S_IT_ERR));
1038:/home/phong/Documents/thesis/stm32f4/stm-idf/components/stm32f4xx_hal_driver/stm32f4xx_hal_i2s_ex.c **** 
1039:/home/phong/Documents/thesis/stm32f4/stm-idf/components/stm32f4xx_hal_driver/stm32f4xx_hal_i2s_ex.c ****     if (hi2s->TxXferCount == 0U)
1040:/home/phong/Documents/thesis/stm32f4/stm-idf/components/stm32f4xx_hal_driver/stm32f4xx_hal_i2s_ex.c ****     {
1041:/home/phong/Documents/thesis/stm32f4/stm-idf/components/stm32f4xx_hal_driver/stm32f4xx_hal_i2s_ex.c ****       hi2s->State = HAL_I2S_STATE_READY;
1042:/home/phong/Documents/thesis/stm32f4/stm-idf/components/stm32f4xx_hal_driver/stm32f4xx_hal_i2s_ex.c ****       /* Call user TxRx complete callback */
1043:/home/phong/Documents/thesis/stm32f4/stm-idf/components/stm32f4xx_hal_driver/stm32f4xx_hal_i2s_ex.c **** #if (USE_HAL_I2S_REGISTER_CALLBACKS == 1U)
1044:/home/phong/Documents/thesis/stm32f4/stm-idf/components/stm32f4xx_hal_driver/stm32f4xx_hal_i2s_ex.c ****       hi2s->TxRxCpltCallback(hi2s);
1045:/home/phong/Documents/thesis/stm32f4/stm-idf/components/stm32f4xx_hal_driver/stm32f4xx_hal_i2s_ex.c **** #else
1046:/home/phong/Documents/thesis/stm32f4/stm-idf/components/stm32f4xx_hal_driver/stm32f4xx_hal_i2s_ex.c ****       HAL_I2SEx_TxRxCpltCallback(hi2s);
1047:/home/phong/Documents/thesis/stm32f4/stm-idf/components/stm32f4xx_hal_driver/stm32f4xx_hal_i2s_ex.c **** #endif /* USE_HAL_I2S_REGISTER_CALLBACKS */
1048:/home/phong/Documents/thesis/stm32f4/stm-idf/components/stm32f4xx_hal_driver/stm32f4xx_hal_i2s_ex.c ****     }
1049:/home/phong/Documents/thesis/stm32f4/stm-idf/components/stm32f4xx_hal_driver/stm32f4xx_hal_i2s_ex.c ****   }
1050:/home/phong/Documents/thesis/stm32f4/stm-idf/components/stm32f4xx_hal_driver/stm32f4xx_hal_i2s_ex.c **** }
1051:/home/phong/Documents/thesis/stm32f4/stm-idf/components/stm32f4xx_hal_driver/stm32f4xx_hal_i2s_ex.c **** 
1052:/home/phong/Documents/thesis/stm32f4/stm-idf/components/stm32f4xx_hal_driver/stm32f4xx_hal_i2s_ex.c **** /**
1053:/home/phong/Documents/thesis/stm32f4/stm-idf/components/stm32f4xx_hal_driver/stm32f4xx_hal_i2s_ex.c ****   * @brief  I2SExt Full-Duplex IT handler receive function
1054:/home/phong/Documents/thesis/stm32f4/stm-idf/components/stm32f4xx_hal_driver/stm32f4xx_hal_i2s_ex.c ****   * @param  hi2s I2S handle
1055:/home/phong/Documents/thesis/stm32f4/stm-idf/components/stm32f4xx_hal_driver/stm32f4xx_hal_i2s_ex.c ****   * @retval None
1056:/home/phong/Documents/thesis/stm32f4/stm-idf/components/stm32f4xx_hal_driver/stm32f4xx_hal_i2s_ex.c ****   */
1057:/home/phong/Documents/thesis/stm32f4/stm-idf/components/stm32f4xx_hal_driver/stm32f4xx_hal_i2s_ex.c **** static void I2SEx_RxISR_I2SExt(I2S_HandleTypeDef *hi2s)
1058:/home/phong/Documents/thesis/stm32f4/stm-idf/components/stm32f4xx_hal_driver/stm32f4xx_hal_i2s_ex.c **** {
ARM GAS  /tmp/ccyFKXfi.s 			page 20


1059:/home/phong/Documents/thesis/stm32f4/stm-idf/components/stm32f4xx_hal_driver/stm32f4xx_hal_i2s_ex.c ****   /* Read Data from DR register */
1060:/home/phong/Documents/thesis/stm32f4/stm-idf/components/stm32f4xx_hal_driver/stm32f4xx_hal_i2s_ex.c ****   (*hi2s->pRxBuffPtr++) = I2SxEXT(hi2s->Instance)->DR;
1061:/home/phong/Documents/thesis/stm32f4/stm-idf/components/stm32f4xx_hal_driver/stm32f4xx_hal_i2s_ex.c ****   hi2s->RxXferCount--;
1062:/home/phong/Documents/thesis/stm32f4/stm-idf/components/stm32f4xx_hal_driver/stm32f4xx_hal_i2s_ex.c **** 
1063:/home/phong/Documents/thesis/stm32f4/stm-idf/components/stm32f4xx_hal_driver/stm32f4xx_hal_i2s_ex.c ****   if (hi2s->RxXferCount == 0U)
1064:/home/phong/Documents/thesis/stm32f4/stm-idf/components/stm32f4xx_hal_driver/stm32f4xx_hal_i2s_ex.c ****   {
1065:/home/phong/Documents/thesis/stm32f4/stm-idf/components/stm32f4xx_hal_driver/stm32f4xx_hal_i2s_ex.c ****     /* Disable I2Sext RXNE and ERR interrupt */
1066:/home/phong/Documents/thesis/stm32f4/stm-idf/components/stm32f4xx_hal_driver/stm32f4xx_hal_i2s_ex.c ****     __HAL_I2SEXT_DISABLE_IT(hi2s, (I2S_IT_RXNE | I2S_IT_ERR));
1067:/home/phong/Documents/thesis/stm32f4/stm-idf/components/stm32f4xx_hal_driver/stm32f4xx_hal_i2s_ex.c **** 
1068:/home/phong/Documents/thesis/stm32f4/stm-idf/components/stm32f4xx_hal_driver/stm32f4xx_hal_i2s_ex.c ****     if (hi2s->TxXferCount == 0U)
1069:/home/phong/Documents/thesis/stm32f4/stm-idf/components/stm32f4xx_hal_driver/stm32f4xx_hal_i2s_ex.c ****     {
1070:/home/phong/Documents/thesis/stm32f4/stm-idf/components/stm32f4xx_hal_driver/stm32f4xx_hal_i2s_ex.c ****       hi2s->State = HAL_I2S_STATE_READY;
1071:/home/phong/Documents/thesis/stm32f4/stm-idf/components/stm32f4xx_hal_driver/stm32f4xx_hal_i2s_ex.c ****       /* Call user TxRx complete callback */
1072:/home/phong/Documents/thesis/stm32f4/stm-idf/components/stm32f4xx_hal_driver/stm32f4xx_hal_i2s_ex.c **** #if (USE_HAL_I2S_REGISTER_CALLBACKS == 1U)
1073:/home/phong/Documents/thesis/stm32f4/stm-idf/components/stm32f4xx_hal_driver/stm32f4xx_hal_i2s_ex.c ****       hi2s->TxRxCpltCallback(hi2s);
1074:/home/phong/Documents/thesis/stm32f4/stm-idf/components/stm32f4xx_hal_driver/stm32f4xx_hal_i2s_ex.c **** #else
1075:/home/phong/Documents/thesis/stm32f4/stm-idf/components/stm32f4xx_hal_driver/stm32f4xx_hal_i2s_ex.c ****       HAL_I2SEx_TxRxCpltCallback(hi2s);
1076:/home/phong/Documents/thesis/stm32f4/stm-idf/components/stm32f4xx_hal_driver/stm32f4xx_hal_i2s_ex.c **** #endif /* USE_HAL_I2S_REGISTER_CALLBACKS */
1077:/home/phong/Documents/thesis/stm32f4/stm-idf/components/stm32f4xx_hal_driver/stm32f4xx_hal_i2s_ex.c ****     }
1078:/home/phong/Documents/thesis/stm32f4/stm-idf/components/stm32f4xx_hal_driver/stm32f4xx_hal_i2s_ex.c ****   }
1079:/home/phong/Documents/thesis/stm32f4/stm-idf/components/stm32f4xx_hal_driver/stm32f4xx_hal_i2s_ex.c **** }
1080:/home/phong/Documents/thesis/stm32f4/stm-idf/components/stm32f4xx_hal_driver/stm32f4xx_hal_i2s_ex.c **** 
1081:/home/phong/Documents/thesis/stm32f4/stm-idf/components/stm32f4xx_hal_driver/stm32f4xx_hal_i2s_ex.c **** /**
1082:/home/phong/Documents/thesis/stm32f4/stm-idf/components/stm32f4xx_hal_driver/stm32f4xx_hal_i2s_ex.c ****   * @brief This function handles I2S Communication Timeout.
1083:/home/phong/Documents/thesis/stm32f4/stm-idf/components/stm32f4xx_hal_driver/stm32f4xx_hal_i2s_ex.c ****   * @param hi2s I2S handle
1084:/home/phong/Documents/thesis/stm32f4/stm-idf/components/stm32f4xx_hal_driver/stm32f4xx_hal_i2s_ex.c ****   * @param Flag Flag checked
1085:/home/phong/Documents/thesis/stm32f4/stm-idf/components/stm32f4xx_hal_driver/stm32f4xx_hal_i2s_ex.c ****   * @param State Value of the flag expected
1086:/home/phong/Documents/thesis/stm32f4/stm-idf/components/stm32f4xx_hal_driver/stm32f4xx_hal_i2s_ex.c ****   * @param Timeout Duration of the timeout
1087:/home/phong/Documents/thesis/stm32f4/stm-idf/components/stm32f4xx_hal_driver/stm32f4xx_hal_i2s_ex.c ****   * @param i2sUsed I2S instance reference
1088:/home/phong/Documents/thesis/stm32f4/stm-idf/components/stm32f4xx_hal_driver/stm32f4xx_hal_i2s_ex.c ****   * @retval HAL status
1089:/home/phong/Documents/thesis/stm32f4/stm-idf/components/stm32f4xx_hal_driver/stm32f4xx_hal_i2s_ex.c ****   */
1090:/home/phong/Documents/thesis/stm32f4/stm-idf/components/stm32f4xx_hal_driver/stm32f4xx_hal_i2s_ex.c **** static HAL_StatusTypeDef I2SEx_FullDuplexWaitFlagStateUntilTimeout(I2S_HandleTypeDef *hi2s, uint32_
1091:/home/phong/Documents/thesis/stm32f4/stm-idf/components/stm32f4xx_hal_driver/stm32f4xx_hal_i2s_ex.c ****                                                                    uint32_t State, uint32_t Timeout
1092:/home/phong/Documents/thesis/stm32f4/stm-idf/components/stm32f4xx_hal_driver/stm32f4xx_hal_i2s_ex.c **** {
  27              		.loc 1 1092 0
  28              		.cfi_startproc
  29              		@ args = 4, pretend = 0, frame = 0
  30              		@ frame_needed = 0, uses_anonymous_args = 0
  31              	.LVL0:
  32 0000 2DE9F843 		push	{r3, r4, r5, r6, r7, r8, r9, lr}
  33              	.LCFI0:
  34              		.cfi_def_cfa_offset 32
  35              		.cfi_offset 3, -32
  36              		.cfi_offset 4, -28
  37              		.cfi_offset 5, -24
  38              		.cfi_offset 6, -20
  39              		.cfi_offset 7, -16
  40              		.cfi_offset 8, -12
  41              		.cfi_offset 9, -8
  42              		.cfi_offset 14, -4
  43 0004 0546     		mov	r5, r0
  44 0006 0E46     		mov	r6, r1
  45 0008 1746     		mov	r7, r2
  46 000a 1C46     		mov	r4, r3
  47 000c 9DF82090 		ldrb	r9, [sp, #32]	@ zero_extendqisi2
1093:/home/phong/Documents/thesis/stm32f4/stm-idf/components/stm32f4xx_hal_driver/stm32f4xx_hal_i2s_ex.c ****   uint32_t tickstart = HAL_GetTick();
  48              		.loc 1 1093 0
ARM GAS  /tmp/ccyFKXfi.s 			page 21


  49 0010 FFF7FEFF 		bl	HAL_GetTick
  50              	.LVL1:
  51 0014 8046     		mov	r8, r0
  52              	.LVL2:
1094:/home/phong/Documents/thesis/stm32f4/stm-idf/components/stm32f4xx_hal_driver/stm32f4xx_hal_i2s_ex.c **** 
1095:/home/phong/Documents/thesis/stm32f4/stm-idf/components/stm32f4xx_hal_driver/stm32f4xx_hal_i2s_ex.c ****   if (i2sUsed == I2S_USE_I2S)
  53              		.loc 1 1095 0
  54 0016 B9F1000F 		cmp	r9, #0
  55 001a 16D0     		beq	.L4
  56 001c 38E0     		b	.L9
  57              	.LVL3:
  58              	.L19:
1096:/home/phong/Documents/thesis/stm32f4/stm-idf/components/stm32f4xx_hal_driver/stm32f4xx_hal_i2s_ex.c ****   {
1097:/home/phong/Documents/thesis/stm32f4/stm-idf/components/stm32f4xx_hal_driver/stm32f4xx_hal_i2s_ex.c ****     /* Wait until flag is reset */
1098:/home/phong/Documents/thesis/stm32f4/stm-idf/components/stm32f4xx_hal_driver/stm32f4xx_hal_i2s_ex.c ****     while (((__HAL_I2S_GET_FLAG(hi2s, Flag)) ? SET : RESET) != State)
1099:/home/phong/Documents/thesis/stm32f4/stm-idf/components/stm32f4xx_hal_driver/stm32f4xx_hal_i2s_ex.c ****     {
1100:/home/phong/Documents/thesis/stm32f4/stm-idf/components/stm32f4xx_hal_driver/stm32f4xx_hal_i2s_ex.c ****       if (Timeout != HAL_MAX_DELAY)
1101:/home/phong/Documents/thesis/stm32f4/stm-idf/components/stm32f4xx_hal_driver/stm32f4xx_hal_i2s_ex.c ****       {
1102:/home/phong/Documents/thesis/stm32f4/stm-idf/components/stm32f4xx_hal_driver/stm32f4xx_hal_i2s_ex.c ****         if ((Timeout == 0U) || ((HAL_GetTick() - tickstart) > Timeout))
  59              		.loc 1 1102 0
  60 001e 2CB1     		cbz	r4, .L5
  61              		.loc 1 1102 0 is_stmt 0 discriminator 1
  62 0020 FFF7FEFF 		bl	HAL_GetTick
  63              	.LVL4:
  64 0024 A0EB0800 		sub	r0, r0, r8
  65 0028 8442     		cmp	r4, r0
  66 002a 0ED2     		bcs	.L4
  67              	.L5:
1103:/home/phong/Documents/thesis/stm32f4/stm-idf/components/stm32f4xx_hal_driver/stm32f4xx_hal_i2s_ex.c ****         {
1104:/home/phong/Documents/thesis/stm32f4/stm-idf/components/stm32f4xx_hal_driver/stm32f4xx_hal_i2s_ex.c ****           /* Set the I2S State ready */
1105:/home/phong/Documents/thesis/stm32f4/stm-idf/components/stm32f4xx_hal_driver/stm32f4xx_hal_i2s_ex.c ****           hi2s->State = HAL_I2S_STATE_READY;
  68              		.loc 1 1105 0 is_stmt 1
  69 002c 0123     		movs	r3, #1
  70 002e 85F84130 		strb	r3, [r5, #65]
1106:/home/phong/Documents/thesis/stm32f4/stm-idf/components/stm32f4xx_hal_driver/stm32f4xx_hal_i2s_ex.c **** 
1107:/home/phong/Documents/thesis/stm32f4/stm-idf/components/stm32f4xx_hal_driver/stm32f4xx_hal_i2s_ex.c ****           /* Process Unlocked */
1108:/home/phong/Documents/thesis/stm32f4/stm-idf/components/stm32f4xx_hal_driver/stm32f4xx_hal_i2s_ex.c ****           __HAL_UNLOCK(hi2s);
  71              		.loc 1 1108 0
  72 0032 0023     		movs	r3, #0
  73 0034 85F84030 		strb	r3, [r5, #64]
1109:/home/phong/Documents/thesis/stm32f4/stm-idf/components/stm32f4xx_hal_driver/stm32f4xx_hal_i2s_ex.c **** 
1110:/home/phong/Documents/thesis/stm32f4/stm-idf/components/stm32f4xx_hal_driver/stm32f4xx_hal_i2s_ex.c ****           return HAL_TIMEOUT;
  74              		.loc 1 1110 0
  75 0038 0320     		movs	r0, #3
  76 003a BDE8F883 		pop	{r3, r4, r5, r6, r7, r8, r9, pc}
  77              	.LVL5:
  78              	.L20:
1098:/home/phong/Documents/thesis/stm32f4/stm-idf/components/stm32f4xx_hal_driver/stm32f4xx_hal_i2s_ex.c ****     {
  79              		.loc 1 1098 0
  80 003e 0123     		movs	r3, #1
  81              	.L7:
1098:/home/phong/Documents/thesis/stm32f4/stm-idf/components/stm32f4xx_hal_driver/stm32f4xx_hal_i2s_ex.c ****     {
  82              		.loc 1 1098 0 is_stmt 0 discriminator 4
  83 0040 BB42     		cmp	r3, r7
  84 0042 09D0     		beq	.L18
1100:/home/phong/Documents/thesis/stm32f4/stm-idf/components/stm32f4xx_hal_driver/stm32f4xx_hal_i2s_ex.c ****       {
  85              		.loc 1 1100 0 is_stmt 1
ARM GAS  /tmp/ccyFKXfi.s 			page 22


  86 0044 B4F1FF3F 		cmp	r4, #-1
  87 0048 E9D1     		bne	.L19
  88              	.L4:
1098:/home/phong/Documents/thesis/stm32f4/stm-idf/components/stm32f4xx_hal_driver/stm32f4xx_hal_i2s_ex.c ****     {
  89              		.loc 1 1098 0
  90 004a 2B68     		ldr	r3, [r5]
  91 004c 9B68     		ldr	r3, [r3, #8]
  92 004e 36EA0303 		bics	r3, r6, r3
  93 0052 F4D0     		beq	.L20
  94 0054 0023     		movs	r3, #0
  95 0056 F3E7     		b	.L7
  96              	.L18:
1111:/home/phong/Documents/thesis/stm32f4/stm-idf/components/stm32f4xx_hal_driver/stm32f4xx_hal_i2s_ex.c ****         }
1112:/home/phong/Documents/thesis/stm32f4/stm-idf/components/stm32f4xx_hal_driver/stm32f4xx_hal_i2s_ex.c ****       }
1113:/home/phong/Documents/thesis/stm32f4/stm-idf/components/stm32f4xx_hal_driver/stm32f4xx_hal_i2s_ex.c ****     }
1114:/home/phong/Documents/thesis/stm32f4/stm-idf/components/stm32f4xx_hal_driver/stm32f4xx_hal_i2s_ex.c ****   }
1115:/home/phong/Documents/thesis/stm32f4/stm-idf/components/stm32f4xx_hal_driver/stm32f4xx_hal_i2s_ex.c ****   else /* i2sUsed == I2S_USE_I2SEXT */
1116:/home/phong/Documents/thesis/stm32f4/stm-idf/components/stm32f4xx_hal_driver/stm32f4xx_hal_i2s_ex.c ****   {
1117:/home/phong/Documents/thesis/stm32f4/stm-idf/components/stm32f4xx_hal_driver/stm32f4xx_hal_i2s_ex.c ****     /* Wait until flag is reset */
1118:/home/phong/Documents/thesis/stm32f4/stm-idf/components/stm32f4xx_hal_driver/stm32f4xx_hal_i2s_ex.c ****     while (((__HAL_I2SEXT_GET_FLAG(hi2s, Flag)) ? SET : RESET) != State)
1119:/home/phong/Documents/thesis/stm32f4/stm-idf/components/stm32f4xx_hal_driver/stm32f4xx_hal_i2s_ex.c ****     {
1120:/home/phong/Documents/thesis/stm32f4/stm-idf/components/stm32f4xx_hal_driver/stm32f4xx_hal_i2s_ex.c ****       if (Timeout != HAL_MAX_DELAY)
1121:/home/phong/Documents/thesis/stm32f4/stm-idf/components/stm32f4xx_hal_driver/stm32f4xx_hal_i2s_ex.c ****       {
1122:/home/phong/Documents/thesis/stm32f4/stm-idf/components/stm32f4xx_hal_driver/stm32f4xx_hal_i2s_ex.c ****         if ((Timeout == 0U) || ((HAL_GetTick() - tickstart) > Timeout))
1123:/home/phong/Documents/thesis/stm32f4/stm-idf/components/stm32f4xx_hal_driver/stm32f4xx_hal_i2s_ex.c ****         {
1124:/home/phong/Documents/thesis/stm32f4/stm-idf/components/stm32f4xx_hal_driver/stm32f4xx_hal_i2s_ex.c ****           /* Set the I2S State ready */
1125:/home/phong/Documents/thesis/stm32f4/stm-idf/components/stm32f4xx_hal_driver/stm32f4xx_hal_i2s_ex.c ****           hi2s->State = HAL_I2S_STATE_READY;
1126:/home/phong/Documents/thesis/stm32f4/stm-idf/components/stm32f4xx_hal_driver/stm32f4xx_hal_i2s_ex.c **** 
1127:/home/phong/Documents/thesis/stm32f4/stm-idf/components/stm32f4xx_hal_driver/stm32f4xx_hal_i2s_ex.c ****           /* Process Unlocked */
1128:/home/phong/Documents/thesis/stm32f4/stm-idf/components/stm32f4xx_hal_driver/stm32f4xx_hal_i2s_ex.c ****           __HAL_UNLOCK(hi2s);
1129:/home/phong/Documents/thesis/stm32f4/stm-idf/components/stm32f4xx_hal_driver/stm32f4xx_hal_i2s_ex.c **** 
1130:/home/phong/Documents/thesis/stm32f4/stm-idf/components/stm32f4xx_hal_driver/stm32f4xx_hal_i2s_ex.c ****           return HAL_TIMEOUT;
1131:/home/phong/Documents/thesis/stm32f4/stm-idf/components/stm32f4xx_hal_driver/stm32f4xx_hal_i2s_ex.c ****         }
1132:/home/phong/Documents/thesis/stm32f4/stm-idf/components/stm32f4xx_hal_driver/stm32f4xx_hal_i2s_ex.c ****       }
1133:/home/phong/Documents/thesis/stm32f4/stm-idf/components/stm32f4xx_hal_driver/stm32f4xx_hal_i2s_ex.c ****     }
1134:/home/phong/Documents/thesis/stm32f4/stm-idf/components/stm32f4xx_hal_driver/stm32f4xx_hal_i2s_ex.c ****   }
1135:/home/phong/Documents/thesis/stm32f4/stm-idf/components/stm32f4xx_hal_driver/stm32f4xx_hal_i2s_ex.c ****   return HAL_OK;
  97              		.loc 1 1135 0
  98 0058 0020     		movs	r0, #0
  99 005a BDE8F883 		pop	{r3, r4, r5, r6, r7, r8, r9, pc}
 100              	.LVL6:
 101              	.L22:
1122:/home/phong/Documents/thesis/stm32f4/stm-idf/components/stm32f4xx_hal_driver/stm32f4xx_hal_i2s_ex.c ****         {
 102              		.loc 1 1122 0
 103 005e 2CB1     		cbz	r4, .L10
1122:/home/phong/Documents/thesis/stm32f4/stm-idf/components/stm32f4xx_hal_driver/stm32f4xx_hal_i2s_ex.c ****         {
 104              		.loc 1 1122 0 is_stmt 0 discriminator 1
 105 0060 FFF7FEFF 		bl	HAL_GetTick
 106              	.LVL7:
 107 0064 A0EB0800 		sub	r0, r0, r8
 108 0068 8442     		cmp	r4, r0
 109 006a 11D2     		bcs	.L9
 110              	.L10:
1125:/home/phong/Documents/thesis/stm32f4/stm-idf/components/stm32f4xx_hal_driver/stm32f4xx_hal_i2s_ex.c **** 
 111              		.loc 1 1125 0 is_stmt 1
 112 006c 0123     		movs	r3, #1
 113 006e 85F84130 		strb	r3, [r5, #65]
ARM GAS  /tmp/ccyFKXfi.s 			page 23


1128:/home/phong/Documents/thesis/stm32f4/stm-idf/components/stm32f4xx_hal_driver/stm32f4xx_hal_i2s_ex.c **** 
 114              		.loc 1 1128 0
 115 0072 0023     		movs	r3, #0
 116 0074 85F84030 		strb	r3, [r5, #64]
1130:/home/phong/Documents/thesis/stm32f4/stm-idf/components/stm32f4xx_hal_driver/stm32f4xx_hal_i2s_ex.c ****         }
 117              		.loc 1 1130 0
 118 0078 0320     		movs	r0, #3
 119 007a BDE8F883 		pop	{r3, r4, r5, r6, r7, r8, r9, pc}
 120              	.LVL8:
 121              	.L23:
1118:/home/phong/Documents/thesis/stm32f4/stm-idf/components/stm32f4xx_hal_driver/stm32f4xx_hal_i2s_ex.c ****     {
 122              		.loc 1 1118 0
 123 007e A3F58063 		sub	r3, r3, #1024
 124 0082 0BE0     		b	.L11
 125              	.L24:
 126 0084 0123     		movs	r3, #1
 127              	.L12:
1118:/home/phong/Documents/thesis/stm32f4/stm-idf/components/stm32f4xx_hal_driver/stm32f4xx_hal_i2s_ex.c ****     {
 128              		.loc 1 1118 0 is_stmt 0 discriminator 8
 129 0086 BB42     		cmp	r3, r7
 130 0088 0ED0     		beq	.L21
1120:/home/phong/Documents/thesis/stm32f4/stm-idf/components/stm32f4xx_hal_driver/stm32f4xx_hal_i2s_ex.c ****       {
 131              		.loc 1 1120 0 is_stmt 1
 132 008a B4F1FF3F 		cmp	r4, #-1
 133 008e E6D1     		bne	.L22
 134              	.L9:
1118:/home/phong/Documents/thesis/stm32f4/stm-idf/components/stm32f4xx_hal_driver/stm32f4xx_hal_i2s_ex.c ****     {
 135              		.loc 1 1118 0
 136 0090 2A68     		ldr	r2, [r5]
 137 0092 074B     		ldr	r3, .L25
 138 0094 9A42     		cmp	r2, r3
 139 0096 F2D0     		beq	.L23
 140 0098 4FF04023 		mov	r3, #1073758208
 141              	.L11:
1118:/home/phong/Documents/thesis/stm32f4/stm-idf/components/stm32f4xx_hal_driver/stm32f4xx_hal_i2s_ex.c ****     {
 142              		.loc 1 1118 0 is_stmt 0 discriminator 4
 143 009c 9B68     		ldr	r3, [r3, #8]
 144 009e 36EA0303 		bics	r3, r6, r3
 145 00a2 EFD0     		beq	.L24
1118:/home/phong/Documents/thesis/stm32f4/stm-idf/components/stm32f4xx_hal_driver/stm32f4xx_hal_i2s_ex.c ****     {
 146              		.loc 1 1118 0
 147 00a4 0023     		movs	r3, #0
 148 00a6 EEE7     		b	.L12
 149              	.L21:
 150              		.loc 1 1135 0 is_stmt 1
 151 00a8 0020     		movs	r0, #0
1136:/home/phong/Documents/thesis/stm32f4/stm-idf/components/stm32f4xx_hal_driver/stm32f4xx_hal_i2s_ex.c **** }
 152              		.loc 1 1136 0
 153 00aa BDE8F883 		pop	{r3, r4, r5, r6, r7, r8, r9, pc}
 154              	.LVL9:
 155              	.L26:
 156 00ae 00BF     		.align	2
 157              	.L25:
 158 00b0 00380040 		.word	1073756160
 159              		.cfi_endproc
 160              	.LFE143:
 162              		.section	.text.I2SEx_TxRxDMAError,"ax",%progbits
ARM GAS  /tmp/ccyFKXfi.s 			page 24


 163              		.align	1
 164              		.syntax unified
 165              		.thumb
 166              		.thumb_func
 167              		.fpu fpv4-sp-d16
 169              	I2SEx_TxRxDMAError:
 170              	.LFB138:
 943:/home/phong/Documents/thesis/stm32f4/stm-idf/components/stm32f4xx_hal_driver/stm32f4xx_hal_i2s_ex.c ****   I2S_HandleTypeDef *hi2s = (I2S_HandleTypeDef *)((DMA_HandleTypeDef *)hdma)->Parent;
 171              		.loc 1 943 0
 172              		.cfi_startproc
 173              		@ args = 0, pretend = 0, frame = 0
 174              		@ frame_needed = 0, uses_anonymous_args = 0
 175              	.LVL10:
 176 0000 08B5     		push	{r3, lr}
 177              	.LCFI1:
 178              		.cfi_def_cfa_offset 8
 179              		.cfi_offset 3, -8
 180              		.cfi_offset 14, -4
 944:/home/phong/Documents/thesis/stm32f4/stm-idf/components/stm32f4xx_hal_driver/stm32f4xx_hal_i2s_ex.c **** 
 181              		.loc 1 944 0
 182 0002 806B     		ldr	r0, [r0, #56]
 183              	.LVL11:
 947:/home/phong/Documents/thesis/stm32f4/stm-idf/components/stm32f4xx_hal_driver/stm32f4xx_hal_i2s_ex.c ****   CLEAR_BIT(I2SxEXT(hi2s->Instance)->CR2, (SPI_CR2_RXDMAEN | SPI_CR2_TXDMAEN));
 184              		.loc 1 947 0
 185 0004 0268     		ldr	r2, [r0]
 186 0006 5368     		ldr	r3, [r2, #4]
 187 0008 23F00303 		bic	r3, r3, #3
 188 000c 5360     		str	r3, [r2, #4]
 948:/home/phong/Documents/thesis/stm32f4/stm-idf/components/stm32f4xx_hal_driver/stm32f4xx_hal_i2s_ex.c **** 
 189              		.loc 1 948 0
 190 000e 0268     		ldr	r2, [r0]
 191 0010 0B4B     		ldr	r3, .L32
 192 0012 9A42     		cmp	r2, r3
 193 0014 12D0     		beq	.L31
 194 0016 4FF04022 		mov	r2, #1073758208
 195              	.L28:
 948:/home/phong/Documents/thesis/stm32f4/stm-idf/components/stm32f4xx_hal_driver/stm32f4xx_hal_i2s_ex.c **** 
 196              		.loc 1 948 0 is_stmt 0 discriminator 4
 197 001a 5368     		ldr	r3, [r2, #4]
 198 001c 23F00303 		bic	r3, r3, #3
 199 0020 5360     		str	r3, [r2, #4]
 950:/home/phong/Documents/thesis/stm32f4/stm-idf/components/stm32f4xx_hal_driver/stm32f4xx_hal_i2s_ex.c ****   hi2s->RxXferCount = 0U;
 200              		.loc 1 950 0 is_stmt 1 discriminator 4
 201 0022 0023     		movs	r3, #0
 202 0024 4385     		strh	r3, [r0, #42]	@ movhi
 951:/home/phong/Documents/thesis/stm32f4/stm-idf/components/stm32f4xx_hal_driver/stm32f4xx_hal_i2s_ex.c **** 
 203              		.loc 1 951 0 discriminator 4
 204 0026 4386     		strh	r3, [r0, #50]	@ movhi
 953:/home/phong/Documents/thesis/stm32f4/stm-idf/components/stm32f4xx_hal_driver/stm32f4xx_hal_i2s_ex.c **** 
 205              		.loc 1 953 0 discriminator 4
 206 0028 0123     		movs	r3, #1
 207 002a 80F84130 		strb	r3, [r0, #65]
 956:/home/phong/Documents/thesis/stm32f4/stm-idf/components/stm32f4xx_hal_driver/stm32f4xx_hal_i2s_ex.c ****   /* Call user error callback */
 208              		.loc 1 956 0 discriminator 4
 209 002e 436C     		ldr	r3, [r0, #68]
 210 0030 43F00803 		orr	r3, r3, #8
 211 0034 4364     		str	r3, [r0, #68]
ARM GAS  /tmp/ccyFKXfi.s 			page 25


 961:/home/phong/Documents/thesis/stm32f4/stm-idf/components/stm32f4xx_hal_driver/stm32f4xx_hal_i2s_ex.c **** #endif /* USE_HAL_I2S_REGISTER_CALLBACKS */
 212              		.loc 1 961 0 discriminator 4
 213 0036 FFF7FEFF 		bl	HAL_I2S_ErrorCallback
 214              	.LVL12:
 215 003a 08BD     		pop	{r3, pc}
 216              	.LVL13:
 217              	.L31:
 948:/home/phong/Documents/thesis/stm32f4/stm-idf/components/stm32f4xx_hal_driver/stm32f4xx_hal_i2s_ex.c **** 
 218              		.loc 1 948 0
 219 003c 014A     		ldr	r2, .L32+4
 220 003e ECE7     		b	.L28
 221              	.L33:
 222              		.align	2
 223              	.L32:
 224 0040 00380040 		.word	1073756160
 225 0044 00340040 		.word	1073755136
 226              		.cfi_endproc
 227              	.LFE138:
 229              		.section	.text.HAL_I2SEx_TransmitReceive,"ax",%progbits
 230              		.align	1
 231              		.global	HAL_I2SEx_TransmitReceive
 232              		.syntax unified
 233              		.thumb
 234              		.thumb_func
 235              		.fpu fpv4-sp-d16
 237              	HAL_I2SEx_TransmitReceive:
 238              	.LFB130:
 203:/home/phong/Documents/thesis/stm32f4/stm-idf/components/stm32f4xx_hal_driver/stm32f4xx_hal_i2s_ex.c ****   uint32_t tmp1 = 0U;
 239              		.loc 1 203 0
 240              		.cfi_startproc
 241              		@ args = 4, pretend = 0, frame = 24
 242              		@ frame_needed = 0, uses_anonymous_args = 0
 243              	.LVL14:
 244 0000 F0B5     		push	{r4, r5, r6, r7, lr}
 245              	.LCFI2:
 246              		.cfi_def_cfa_offset 20
 247              		.cfi_offset 4, -20
 248              		.cfi_offset 5, -16
 249              		.cfi_offset 6, -12
 250              		.cfi_offset 7, -8
 251              		.cfi_offset 14, -4
 252 0002 89B0     		sub	sp, sp, #36
 253              	.LCFI3:
 254              		.cfi_def_cfa_offset 56
 255 0004 0446     		mov	r4, r0
 256 0006 1546     		mov	r5, r2
 257              	.LVL15:
 207:/home/phong/Documents/thesis/stm32f4/stm-idf/components/stm32f4xx_hal_driver/stm32f4xx_hal_i2s_ex.c ****   {
 258              		.loc 1 207 0
 259 0008 90F84120 		ldrb	r2, [r0, #65]	@ zero_extendqisi2
 260              	.LVL16:
 261 000c D2B2     		uxtb	r2, r2
 262 000e 012A     		cmp	r2, #1
 263 0010 08D0     		beq	.L86
 209:/home/phong/Documents/thesis/stm32f4/stm-idf/components/stm32f4xx_hal_driver/stm32f4xx_hal_i2s_ex.c ****     goto error;
 264              		.loc 1 209 0
 265 0012 0220     		movs	r0, #2
ARM GAS  /tmp/ccyFKXfi.s 			page 26


 266              	.LVL17:
 267              	.L35:
 399:/home/phong/Documents/thesis/stm32f4/stm-idf/components/stm32f4xx_hal_driver/stm32f4xx_hal_i2s_ex.c ****   __HAL_UNLOCK(hi2s);
 268              		.loc 1 399 0
 269 0014 0123     		movs	r3, #1
 270 0016 84F84130 		strb	r3, [r4, #65]
 400:/home/phong/Documents/thesis/stm32f4/stm-idf/components/stm32f4xx_hal_driver/stm32f4xx_hal_i2s_ex.c ****   return errorcode;
 271              		.loc 1 400 0
 272 001a 0023     		movs	r3, #0
 273 001c 84F84030 		strb	r3, [r4, #64]
 274              	.LVL18:
 275              	.L36:
 402:/home/phong/Documents/thesis/stm32f4/stm-idf/components/stm32f4xx_hal_driver/stm32f4xx_hal_i2s_ex.c **** 
 276              		.loc 1 402 0
 277 0020 09B0     		add	sp, sp, #36
 278              	.LCFI4:
 279              		.cfi_remember_state
 280              		.cfi_def_cfa_offset 20
 281              		@ sp needed
 282 0022 F0BD     		pop	{r4, r5, r6, r7, pc}
 283              	.LVL19:
 284              	.L86:
 285              	.LCFI5:
 286              		.cfi_restore_state
 213:/home/phong/Documents/thesis/stm32f4/stm-idf/components/stm32f4xx_hal_driver/stm32f4xx_hal_i2s_ex.c ****   {
 287              		.loc 1 213 0
 288 0024 0029     		cmp	r1, #0
 289 0026 00F08F81 		beq	.L66
 213:/home/phong/Documents/thesis/stm32f4/stm-idf/components/stm32f4xx_hal_driver/stm32f4xx_hal_i2s_ex.c ****   {
 290              		.loc 1 213 0 is_stmt 0 discriminator 1
 291 002a 002D     		cmp	r5, #0
 292 002c 00F08E81 		beq	.L67
 213:/home/phong/Documents/thesis/stm32f4/stm-idf/components/stm32f4xx_hal_driver/stm32f4xx_hal_i2s_ex.c ****   {
 293              		.loc 1 213 0 discriminator 2
 294 0030 002B     		cmp	r3, #0
 295 0032 00F08D81 		beq	.L68
 219:/home/phong/Documents/thesis/stm32f4/stm-idf/components/stm32f4xx_hal_driver/stm32f4xx_hal_i2s_ex.c **** 
 296              		.loc 1 219 0 is_stmt 1
 297 0036 90F84020 		ldrb	r2, [r0, #64]	@ zero_extendqisi2
 298 003a D2B2     		uxtb	r2, r2
 299 003c 012A     		cmp	r2, #1
 300 003e 00F08981 		beq	.L69
 219:/home/phong/Documents/thesis/stm32f4/stm-idf/components/stm32f4xx_hal_driver/stm32f4xx_hal_i2s_ex.c **** 
 301              		.loc 1 219 0 is_stmt 0 discriminator 2
 302 0042 0122     		movs	r2, #1
 303 0044 80F84020 		strb	r2, [r0, #64]
 221:/home/phong/Documents/thesis/stm32f4/stm-idf/components/stm32f4xx_hal_driver/stm32f4xx_hal_i2s_ex.c ****   /* Check the Data format: When a 16-bit data frame or a 16-bit data frame extended
 304              		.loc 1 221 0 is_stmt 1 discriminator 2
 305 0048 0268     		ldr	r2, [r0]
 306 004a D269     		ldr	r2, [r2, #28]
 307 004c 02F00702 		and	r2, r2, #7
 308              	.LVL20:
 226:/home/phong/Documents/thesis/stm32f4/stm-idf/components/stm32f4xx_hal_driver/stm32f4xx_hal_i2s_ex.c ****   {
 309              		.loc 1 226 0 discriminator 2
 310 0050 032A     		cmp	r2, #3
 311 0052 3FD0     		beq	.L37
 226:/home/phong/Documents/thesis/stm32f4/stm-idf/components/stm32f4xx_hal_driver/stm32f4xx_hal_i2s_ex.c ****   {
ARM GAS  /tmp/ccyFKXfi.s 			page 27


 312              		.loc 1 226 0 is_stmt 0 discriminator 1
 313 0054 052A     		cmp	r2, #5
 314 0056 3DD0     		beq	.L37
 235:/home/phong/Documents/thesis/stm32f4/stm-idf/components/stm32f4xx_hal_driver/stm32f4xx_hal_i2s_ex.c ****     hi2s->TxXferCount = Size;
 315              		.loc 1 235 0 is_stmt 1
 316 0058 0385     		strh	r3, [r0, #40]	@ movhi
 236:/home/phong/Documents/thesis/stm32f4/stm-idf/components/stm32f4xx_hal_driver/stm32f4xx_hal_i2s_ex.c ****     hi2s->RxXferSize  = Size;
 317              		.loc 1 236 0
 318 005a 4385     		strh	r3, [r0, #42]	@ movhi
 237:/home/phong/Documents/thesis/stm32f4/stm-idf/components/stm32f4xx_hal_driver/stm32f4xx_hal_i2s_ex.c ****     hi2s->RxXferCount = Size;
 319              		.loc 1 237 0
 320 005c 0386     		strh	r3, [r0, #48]	@ movhi
 238:/home/phong/Documents/thesis/stm32f4/stm-idf/components/stm32f4xx_hal_driver/stm32f4xx_hal_i2s_ex.c ****   }
 321              		.loc 1 238 0
 322 005e 4386     		strh	r3, [r0, #50]	@ movhi
 323              	.LVL21:
 324              	.L39:
 242:/home/phong/Documents/thesis/stm32f4/stm-idf/components/stm32f4xx_hal_driver/stm32f4xx_hal_i2s_ex.c ****   hi2s->State = HAL_I2S_STATE_BUSY_TX_RX;
 325              		.loc 1 242 0
 326 0060 0023     		movs	r3, #0
 327 0062 6364     		str	r3, [r4, #68]
 243:/home/phong/Documents/thesis/stm32f4/stm-idf/components/stm32f4xx_hal_driver/stm32f4xx_hal_i2s_ex.c **** 
 328              		.loc 1 243 0
 329 0064 0523     		movs	r3, #5
 330 0066 84F84130 		strb	r3, [r4, #65]
 245:/home/phong/Documents/thesis/stm32f4/stm-idf/components/stm32f4xx_hal_driver/stm32f4xx_hal_i2s_ex.c ****   /* Check if the I2S_MODE_MASTER_TX or I2S_MODE_SLAVE_TX Mode is selected */
 331              		.loc 1 245 0
 332 006a 2368     		ldr	r3, [r4]
 333 006c DF69     		ldr	r7, [r3, #28]
 334 006e 07F44077 		and	r7, r7, #768
 335              	.LVL22:
 247:/home/phong/Documents/thesis/stm32f4/stm-idf/components/stm32f4xx_hal_driver/stm32f4xx_hal_i2s_ex.c ****   {
 336              		.loc 1 247 0
 337 0072 B7F5007F 		cmp	r7, #512
 338 0076 02D0     		beq	.L40
 247:/home/phong/Documents/thesis/stm32f4/stm-idf/components/stm32f4xx_hal_driver/stm32f4xx_hal_i2s_ex.c ****   {
 339              		.loc 1 247 0 is_stmt 0 discriminator 1
 340 0078 002F     		cmp	r7, #0
 341 007a 40F0B480 		bne	.L41
 342              	.L40:
 250:/home/phong/Documents/thesis/stm32f4/stm-idf/components/stm32f4xx_hal_driver/stm32f4xx_hal_i2s_ex.c ****     hi2s->TxXferCount--;
 343              		.loc 1 250 0 is_stmt 1
 344 007e 8E1C     		adds	r6, r1, #2
 345              	.LVL23:
 346 0080 0A88     		ldrh	r2, [r1]
 347 0082 DA60     		str	r2, [r3, #12]
 251:/home/phong/Documents/thesis/stm32f4/stm-idf/components/stm32f4xx_hal_driver/stm32f4xx_hal_i2s_ex.c **** 
 348              		.loc 1 251 0
 349 0084 638D     		ldrh	r3, [r4, #42]
 350 0086 9BB2     		uxth	r3, r3
 351 0088 013B     		subs	r3, r3, #1
 352 008a 9BB2     		uxth	r3, r3
 353 008c 6385     		strh	r3, [r4, #42]	@ movhi
 254:/home/phong/Documents/thesis/stm32f4/stm-idf/components/stm32f4xx_hal_driver/stm32f4xx_hal_i2s_ex.c **** 
 354              		.loc 1 254 0
 355 008e 2268     		ldr	r2, [r4]
 356 0090 944B     		ldr	r3, .L104
ARM GAS  /tmp/ccyFKXfi.s 			page 28


 357 0092 9A42     		cmp	r2, r3
 358 0094 25D0     		beq	.L87
 359 0096 4FF04022 		mov	r2, #1073758208
 360              	.L42:
 254:/home/phong/Documents/thesis/stm32f4/stm-idf/components/stm32f4xx_hal_driver/stm32f4xx_hal_i2s_ex.c **** 
 361              		.loc 1 254 0 is_stmt 0 discriminator 4
 362 009a D369     		ldr	r3, [r2, #28]
 363 009c 43F48063 		orr	r3, r3, #1024
 364 00a0 D361     		str	r3, [r2, #28]
 257:/home/phong/Documents/thesis/stm32f4/stm-idf/components/stm32f4xx_hal_driver/stm32f4xx_hal_i2s_ex.c **** 
 365              		.loc 1 257 0 is_stmt 1 discriminator 4
 366 00a2 2268     		ldr	r2, [r4]
 367 00a4 D369     		ldr	r3, [r2, #28]
 368 00a6 43F48063 		orr	r3, r3, #1024
 369 00aa D361     		str	r3, [r2, #28]
 260:/home/phong/Documents/thesis/stm32f4/stm-idf/components/stm32f4xx_hal_driver/stm32f4xx_hal_i2s_ex.c ****     {
 370              		.loc 1 260 0 discriminator 4
 371 00ac 2268     		ldr	r2, [r4]
 372 00ae D369     		ldr	r3, [r2, #28]
 373 00b0 03F44073 		and	r3, r3, #768
 374 00b4 B3F5007F 		cmp	r3, #512
 375 00b8 1FD1     		bne	.L45
 376              	.LBB2:
 264:/home/phong/Documents/thesis/stm32f4/stm-idf/components/stm32f4xx_hal_driver/stm32f4xx_hal_i2s_ex.c ****     }
 377              		.loc 1 264 0
 378 00ba 0023     		movs	r3, #0
 379 00bc 0293     		str	r3, [sp, #8]
 380 00be 894B     		ldr	r3, .L104
 381 00c0 9A42     		cmp	r2, r3
 382 00c2 10D0     		beq	.L88
 383 00c4 4FF04023 		mov	r3, #1073758208
 384              	.L44:
 264:/home/phong/Documents/thesis/stm32f4/stm-idf/components/stm32f4xx_hal_driver/stm32f4xx_hal_i2s_ex.c ****     }
 385              		.loc 1 264 0 is_stmt 0 discriminator 4
 386 00c8 DA68     		ldr	r2, [r3, #12]
 387 00ca 0292     		str	r2, [sp, #8]
 388 00cc 9B68     		ldr	r3, [r3, #8]
 389 00ce 0293     		str	r3, [sp, #8]
 390 00d0 029B     		ldr	r3, [sp, #8]
 391 00d2 12E0     		b	.L45
 392              	.LVL24:
 393              	.L37:
 394              	.LBE2:
 228:/home/phong/Documents/thesis/stm32f4/stm-idf/components/stm32f4xx_hal_driver/stm32f4xx_hal_i2s_ex.c ****     hi2s->TxXferCount = (Size << 1U);
 395              		.loc 1 228 0 is_stmt 1
 396 00d4 5B00     		lsls	r3, r3, #1
 397              	.LVL25:
 398 00d6 9BB2     		uxth	r3, r3
 399 00d8 2385     		strh	r3, [r4, #40]	@ movhi
 229:/home/phong/Documents/thesis/stm32f4/stm-idf/components/stm32f4xx_hal_driver/stm32f4xx_hal_i2s_ex.c ****     hi2s->RxXferSize  = (Size << 1U);
 400              		.loc 1 229 0
 401 00da 6385     		strh	r3, [r4, #42]	@ movhi
 230:/home/phong/Documents/thesis/stm32f4/stm-idf/components/stm32f4xx_hal_driver/stm32f4xx_hal_i2s_ex.c ****     hi2s->RxXferCount = (Size << 1U);
 402              		.loc 1 230 0
 403 00dc 2386     		strh	r3, [r4, #48]	@ movhi
 231:/home/phong/Documents/thesis/stm32f4/stm-idf/components/stm32f4xx_hal_driver/stm32f4xx_hal_i2s_ex.c ****   }
 404              		.loc 1 231 0
ARM GAS  /tmp/ccyFKXfi.s 			page 29


 405 00de 6386     		strh	r3, [r4, #50]	@ movhi
 406 00e0 BEE7     		b	.L39
 407              	.LVL26:
 408              	.L87:
 254:/home/phong/Documents/thesis/stm32f4/stm-idf/components/stm32f4xx_hal_driver/stm32f4xx_hal_i2s_ex.c **** 
 409              		.loc 1 254 0
 410 00e2 814A     		ldr	r2, .L104+4
 411 00e4 D9E7     		b	.L42
 412              	.L88:
 413              	.LBB3:
 264:/home/phong/Documents/thesis/stm32f4/stm-idf/components/stm32f4xx_hal_driver/stm32f4xx_hal_i2s_ex.c ****     }
 414              		.loc 1 264 0
 415 00e6 A3F58063 		sub	r3, r3, #1024
 416 00ea EDE7     		b	.L44
 417              	.LVL27:
 418              	.L52:
 419              	.LBE3:
 269:/home/phong/Documents/thesis/stm32f4/stm-idf/components/stm32f4xx_hal_driver/stm32f4xx_hal_i2s_ex.c ****       {
 420              		.loc 1 269 0
 421 00ec 638D     		ldrh	r3, [r4, #42]
 422 00ee 9BB2     		uxth	r3, r3
 423 00f0 8BB9     		cbnz	r3, .L89
 424              	.L46:
 293:/home/phong/Documents/thesis/stm32f4/stm-idf/components/stm32f4xx_hal_driver/stm32f4xx_hal_i2s_ex.c ****       {
 425              		.loc 1 293 0
 426 00f2 638E     		ldrh	r3, [r4, #50]
 427 00f4 9BB2     		uxth	r3, r3
 428 00f6 002B     		cmp	r3, #0
 429 00f8 3AD1     		bne	.L90
 430              	.L45:
 267:/home/phong/Documents/thesis/stm32f4/stm-idf/components/stm32f4xx_hal_driver/stm32f4xx_hal_i2s_ex.c ****     {
 431              		.loc 1 267 0
 432 00fa 638E     		ldrh	r3, [r4, #50]
 433 00fc 9BB2     		uxth	r3, r3
 434 00fe 002B     		cmp	r3, #0
 435 0100 F4D1     		bne	.L52
 267:/home/phong/Documents/thesis/stm32f4/stm-idf/components/stm32f4xx_hal_driver/stm32f4xx_hal_i2s_ex.c ****     {
 436              		.loc 1 267 0 is_stmt 0 discriminator 1
 437 0102 638D     		ldrh	r3, [r4, #42]
 438 0104 9BB2     		uxth	r3, r3
 439 0106 002B     		cmp	r3, #0
 440 0108 F0D1     		bne	.L52
 441              	.L53:
 393:/home/phong/Documents/thesis/stm32f4/stm-idf/components/stm32f4xx_hal_driver/stm32f4xx_hal_i2s_ex.c ****   {
 442              		.loc 1 393 0 is_stmt 1
 443 010a 636C     		ldr	r3, [r4, #68]
 444 010c 002B     		cmp	r3, #0
 445 010e 40F01981 		bne	.L84
 205:/home/phong/Documents/thesis/stm32f4/stm-idf/components/stm32f4xx_hal_driver/stm32f4xx_hal_i2s_ex.c **** 
 446              		.loc 1 205 0
 447 0112 0020     		movs	r0, #0
 448 0114 7EE7     		b	.L35
 449              	.L89:
 272:/home/phong/Documents/thesis/stm32f4/stm-idf/components/stm32f4xx_hal_driver/stm32f4xx_hal_i2s_ex.c ****         {
 450              		.loc 1 272 0
 451 0116 0023     		movs	r3, #0
 452 0118 0093     		str	r3, [sp]
ARM GAS  /tmp/ccyFKXfi.s 			page 30


 453 011a 0E9B     		ldr	r3, [sp, #56]
 454 011c 0122     		movs	r2, #1
 455 011e 0221     		movs	r1, #2
 456 0120 2046     		mov	r0, r4
 457 0122 FFF7FEFF 		bl	I2SEx_FullDuplexWaitFlagStateUntilTimeout
 458              	.LVL28:
 459 0126 C8B9     		cbnz	r0, .L91
 280:/home/phong/Documents/thesis/stm32f4/stm-idf/components/stm32f4xx_hal_driver/stm32f4xx_hal_i2s_ex.c ****         hi2s->TxXferCount--;
 460              		.loc 1 280 0
 461 0128 2368     		ldr	r3, [r4]
 462 012a B11C     		adds	r1, r6, #2
 463              	.LVL29:
 464 012c 3288     		ldrh	r2, [r6]
 465 012e DA60     		str	r2, [r3, #12]
 281:/home/phong/Documents/thesis/stm32f4/stm-idf/components/stm32f4xx_hal_driver/stm32f4xx_hal_i2s_ex.c **** 
 466              		.loc 1 281 0
 467 0130 638D     		ldrh	r3, [r4, #42]
 468 0132 9BB2     		uxth	r3, r3
 469 0134 013B     		subs	r3, r3, #1
 470 0136 9BB2     		uxth	r3, r3
 471 0138 6385     		strh	r3, [r4, #42]	@ movhi
 284:/home/phong/Documents/thesis/stm32f4/stm-idf/components/stm32f4xx_hal_driver/stm32f4xx_hal_i2s_ex.c ****         {
 472              		.loc 1 284 0
 473 013a 2368     		ldr	r3, [r4]
 474 013c 9A68     		ldr	r2, [r3, #8]
 475 013e 12F0080F 		tst	r2, #8
 476 0142 11D0     		beq	.L72
 284:/home/phong/Documents/thesis/stm32f4/stm-idf/components/stm32f4xx_hal_driver/stm32f4xx_hal_i2s_ex.c ****         {
 477              		.loc 1 284 0 is_stmt 0 discriminator 1
 478 0144 97B9     		cbnz	r7, .L73
 479              	.LBB4:
 287:/home/phong/Documents/thesis/stm32f4/stm-idf/components/stm32f4xx_hal_driver/stm32f4xx_hal_i2s_ex.c **** 
 480              		.loc 1 287 0 is_stmt 1
 481 0146 0022     		movs	r2, #0
 482 0148 0392     		str	r2, [sp, #12]
 483 014a 9B68     		ldr	r3, [r3, #8]
 484 014c 0393     		str	r3, [sp, #12]
 485 014e 039B     		ldr	r3, [sp, #12]
 486              	.LBE4:
 290:/home/phong/Documents/thesis/stm32f4/stm-idf/components/stm32f4xx_hal_driver/stm32f4xx_hal_i2s_ex.c ****         }
 487              		.loc 1 290 0
 488 0150 636C     		ldr	r3, [r4, #68]
 489 0152 43F00403 		orr	r3, r3, #4
 490 0156 6364     		str	r3, [r4, #68]
 280:/home/phong/Documents/thesis/stm32f4/stm-idf/components/stm32f4xx_hal_driver/stm32f4xx_hal_i2s_ex.c ****         hi2s->TxXferCount--;
 491              		.loc 1 280 0
 492 0158 0E46     		mov	r6, r1
 493 015a CAE7     		b	.L46
 494              	.LVL30:
 495              	.L91:
 275:/home/phong/Documents/thesis/stm32f4/stm-idf/components/stm32f4xx_hal_driver/stm32f4xx_hal_i2s_ex.c ****           errorcode = HAL_ERROR;
 496              		.loc 1 275 0
 497 015c 636C     		ldr	r3, [r4, #68]
 498 015e 43F00103 		orr	r3, r3, #1
 499 0162 6364     		str	r3, [r4, #68]
 500              	.LVL31:
 276:/home/phong/Documents/thesis/stm32f4/stm-idf/components/stm32f4xx_hal_driver/stm32f4xx_hal_i2s_ex.c ****           goto error;
ARM GAS  /tmp/ccyFKXfi.s 			page 31


 501              		.loc 1 276 0
 502 0164 0120     		movs	r0, #1
 277:/home/phong/Documents/thesis/stm32f4/stm-idf/components/stm32f4xx_hal_driver/stm32f4xx_hal_i2s_ex.c ****         }
 503              		.loc 1 277 0
 504 0166 55E7     		b	.L35
 505              	.LVL32:
 506              	.L72:
 280:/home/phong/Documents/thesis/stm32f4/stm-idf/components/stm32f4xx_hal_driver/stm32f4xx_hal_i2s_ex.c ****         hi2s->TxXferCount--;
 507              		.loc 1 280 0
 508 0168 0E46     		mov	r6, r1
 509 016a C2E7     		b	.L46
 510              	.L73:
 511 016c 0E46     		mov	r6, r1
 512 016e C0E7     		b	.L46
 513              	.LVL33:
 514              	.L90:
 296:/home/phong/Documents/thesis/stm32f4/stm-idf/components/stm32f4xx_hal_driver/stm32f4xx_hal_i2s_ex.c ****         {
 515              		.loc 1 296 0
 516 0170 0121     		movs	r1, #1
 517 0172 0091     		str	r1, [sp]
 518 0174 0E9B     		ldr	r3, [sp, #56]
 519 0176 0A46     		mov	r2, r1
 520 0178 2046     		mov	r0, r4
 521 017a FFF7FEFF 		bl	I2SEx_FullDuplexWaitFlagStateUntilTimeout
 522              	.LVL34:
 523 017e 20BB     		cbnz	r0, .L92
 304:/home/phong/Documents/thesis/stm32f4/stm-idf/components/stm32f4xx_hal_driver/stm32f4xx_hal_i2s_ex.c ****         hi2s->RxXferCount--;
 524              		.loc 1 304 0
 525 0180 AA1C     		adds	r2, r5, #2
 526              	.LVL35:
 527 0182 2168     		ldr	r1, [r4]
 528 0184 574B     		ldr	r3, .L104
 529 0186 9942     		cmp	r1, r3
 530 0188 25D0     		beq	.L93
 531 018a 4FF04023 		mov	r3, #1073758208
 532              	.L50:
 304:/home/phong/Documents/thesis/stm32f4/stm-idf/components/stm32f4xx_hal_driver/stm32f4xx_hal_i2s_ex.c ****         hi2s->RxXferCount--;
 533              		.loc 1 304 0 is_stmt 0 discriminator 4
 534 018e DB68     		ldr	r3, [r3, #12]
 535 0190 2B80     		strh	r3, [r5]	@ movhi
 305:/home/phong/Documents/thesis/stm32f4/stm-idf/components/stm32f4xx_hal_driver/stm32f4xx_hal_i2s_ex.c **** 
 536              		.loc 1 305 0 is_stmt 1 discriminator 4
 537 0192 638E     		ldrh	r3, [r4, #50]
 538 0194 9BB2     		uxth	r3, r3
 539 0196 013B     		subs	r3, r3, #1
 540 0198 9BB2     		uxth	r3, r3
 541 019a 6386     		strh	r3, [r4, #50]	@ movhi
 308:/home/phong/Documents/thesis/stm32f4/stm-idf/components/stm32f4xx_hal_driver/stm32f4xx_hal_i2s_ex.c ****         {
 542              		.loc 1 308 0 discriminator 4
 543 019c 2368     		ldr	r3, [r4]
 544 019e 5149     		ldr	r1, .L104
 545 01a0 8B42     		cmp	r3, r1
 546 01a2 1BD0     		beq	.L94
 308:/home/phong/Documents/thesis/stm32f4/stm-idf/components/stm32f4xx_hal_driver/stm32f4xx_hal_i2s_ex.c ****         {
 547              		.loc 1 308 0 is_stmt 0
 548 01a4 4FF04021 		mov	r1, #1073758208
 549              	.L51:
ARM GAS  /tmp/ccyFKXfi.s 			page 32


 308:/home/phong/Documents/thesis/stm32f4/stm-idf/components/stm32f4xx_hal_driver/stm32f4xx_hal_i2s_ex.c ****         {
 550              		.loc 1 308 0 discriminator 4
 551 01a8 8968     		ldr	r1, [r1, #8]
 552 01aa 11F0400F 		tst	r1, #64
 553 01ae 18D0     		beq	.L76
 554              	.LBB5:
 311:/home/phong/Documents/thesis/stm32f4/stm-idf/components/stm32f4xx_hal_driver/stm32f4xx_hal_i2s_ex.c **** 
 555              		.loc 1 311 0 is_stmt 1
 556 01b0 0021     		movs	r1, #0
 557 01b2 0491     		str	r1, [sp, #16]
 558 01b4 D968     		ldr	r1, [r3, #12]
 559 01b6 0491     		str	r1, [sp, #16]
 560 01b8 9B68     		ldr	r3, [r3, #8]
 561 01ba 0493     		str	r3, [sp, #16]
 562 01bc 049B     		ldr	r3, [sp, #16]
 563              	.LBE5:
 314:/home/phong/Documents/thesis/stm32f4/stm-idf/components/stm32f4xx_hal_driver/stm32f4xx_hal_i2s_ex.c ****         }
 564              		.loc 1 314 0
 565 01be 636C     		ldr	r3, [r4, #68]
 566 01c0 43F00203 		orr	r3, r3, #2
 567 01c4 6364     		str	r3, [r4, #68]
 304:/home/phong/Documents/thesis/stm32f4/stm-idf/components/stm32f4xx_hal_driver/stm32f4xx_hal_i2s_ex.c ****         hi2s->RxXferCount--;
 568              		.loc 1 304 0
 569 01c6 1546     		mov	r5, r2
 570 01c8 97E7     		b	.L45
 571              	.LVL36:
 572              	.L92:
 299:/home/phong/Documents/thesis/stm32f4/stm-idf/components/stm32f4xx_hal_driver/stm32f4xx_hal_i2s_ex.c ****           errorcode = HAL_ERROR;
 573              		.loc 1 299 0
 574 01ca 636C     		ldr	r3, [r4, #68]
 575 01cc 43F00103 		orr	r3, r3, #1
 576 01d0 6364     		str	r3, [r4, #68]
 577              	.LVL37:
 300:/home/phong/Documents/thesis/stm32f4/stm-idf/components/stm32f4xx_hal_driver/stm32f4xx_hal_i2s_ex.c ****           goto error;
 578              		.loc 1 300 0
 579 01d2 0120     		movs	r0, #1
 301:/home/phong/Documents/thesis/stm32f4/stm-idf/components/stm32f4xx_hal_driver/stm32f4xx_hal_i2s_ex.c ****         }
 580              		.loc 1 301 0
 581 01d4 1EE7     		b	.L35
 582              	.LVL38:
 583              	.L93:
 304:/home/phong/Documents/thesis/stm32f4/stm-idf/components/stm32f4xx_hal_driver/stm32f4xx_hal_i2s_ex.c ****         hi2s->RxXferCount--;
 584              		.loc 1 304 0
 585 01d6 A3F58063 		sub	r3, r3, #1024
 586 01da D8E7     		b	.L50
 587              	.L94:
 308:/home/phong/Documents/thesis/stm32f4/stm-idf/components/stm32f4xx_hal_driver/stm32f4xx_hal_i2s_ex.c ****         {
 588              		.loc 1 308 0
 589 01dc A1F58061 		sub	r1, r1, #1024
 590 01e0 E2E7     		b	.L51
 591              	.L76:
 304:/home/phong/Documents/thesis/stm32f4/stm-idf/components/stm32f4xx_hal_driver/stm32f4xx_hal_i2s_ex.c ****         hi2s->RxXferCount--;
 592              		.loc 1 304 0
 593 01e2 1546     		mov	r5, r2
 594 01e4 89E7     		b	.L45
 595              	.LVL39:
 596              	.L41:
ARM GAS  /tmp/ccyFKXfi.s 			page 33


 323:/home/phong/Documents/thesis/stm32f4/stm-idf/components/stm32f4xx_hal_driver/stm32f4xx_hal_i2s_ex.c ****     hi2s->TxXferCount--;
 597              		.loc 1 323 0
 598 01e6 3F4A     		ldr	r2, .L104
 599 01e8 9342     		cmp	r3, r2
 600 01ea 27D0     		beq	.L95
 601 01ec 4FF04022 		mov	r2, #1073758208
 602              	.L54:
 323:/home/phong/Documents/thesis/stm32f4/stm-idf/components/stm32f4xx_hal_driver/stm32f4xx_hal_i2s_ex.c ****     hi2s->TxXferCount--;
 603              		.loc 1 323 0 is_stmt 0 discriminator 4
 604 01f0 8E1C     		adds	r6, r1, #2
 605              	.LVL40:
 606 01f2 0B88     		ldrh	r3, [r1]
 607 01f4 D360     		str	r3, [r2, #12]
 324:/home/phong/Documents/thesis/stm32f4/stm-idf/components/stm32f4xx_hal_driver/stm32f4xx_hal_i2s_ex.c **** 
 608              		.loc 1 324 0 is_stmt 1 discriminator 4
 609 01f6 638D     		ldrh	r3, [r4, #42]
 610 01f8 9BB2     		uxth	r3, r3
 611 01fa 013B     		subs	r3, r3, #1
 612 01fc 9BB2     		uxth	r3, r3
 613 01fe 6385     		strh	r3, [r4, #42]	@ movhi
 327:/home/phong/Documents/thesis/stm32f4/stm-idf/components/stm32f4xx_hal_driver/stm32f4xx_hal_i2s_ex.c **** 
 614              		.loc 1 327 0 discriminator 4
 615 0200 2268     		ldr	r2, [r4]
 616 0202 384B     		ldr	r3, .L104
 617 0204 9A42     		cmp	r2, r3
 618 0206 1CD0     		beq	.L96
 327:/home/phong/Documents/thesis/stm32f4/stm-idf/components/stm32f4xx_hal_driver/stm32f4xx_hal_i2s_ex.c **** 
 619              		.loc 1 327 0 is_stmt 0
 620 0208 4FF04022 		mov	r2, #1073758208
 621              	.L55:
 327:/home/phong/Documents/thesis/stm32f4/stm-idf/components/stm32f4xx_hal_driver/stm32f4xx_hal_i2s_ex.c **** 
 622              		.loc 1 327 0 discriminator 4
 623 020c D369     		ldr	r3, [r2, #28]
 624 020e 43F48063 		orr	r3, r3, #1024
 625 0212 D361     		str	r3, [r2, #28]
 330:/home/phong/Documents/thesis/stm32f4/stm-idf/components/stm32f4xx_hal_driver/stm32f4xx_hal_i2s_ex.c **** 
 626              		.loc 1 330 0 is_stmt 1 discriminator 4
 627 0214 2268     		ldr	r2, [r4]
 628 0216 D369     		ldr	r3, [r2, #28]
 629 0218 43F48063 		orr	r3, r3, #1024
 630 021c D361     		str	r3, [r2, #28]
 333:/home/phong/Documents/thesis/stm32f4/stm-idf/components/stm32f4xx_hal_driver/stm32f4xx_hal_i2s_ex.c ****     {
 631              		.loc 1 333 0 discriminator 4
 632 021e 2268     		ldr	r2, [r4]
 633 0220 D369     		ldr	r3, [r2, #28]
 634 0222 03F44073 		and	r3, r3, #768
 635 0226 B3F5407F 		cmp	r3, #768
 636 022a 13D1     		bne	.L57
 637              	.LBB6:
 337:/home/phong/Documents/thesis/stm32f4/stm-idf/components/stm32f4xx_hal_driver/stm32f4xx_hal_i2s_ex.c ****     }
 638              		.loc 1 337 0
 639 022c 0023     		movs	r3, #0
 640 022e 0593     		str	r3, [sp, #20]
 641 0230 D368     		ldr	r3, [r2, #12]
 642 0232 0593     		str	r3, [sp, #20]
 643 0234 9368     		ldr	r3, [r2, #8]
 644 0236 0593     		str	r3, [sp, #20]
ARM GAS  /tmp/ccyFKXfi.s 			page 34


 645 0238 059B     		ldr	r3, [sp, #20]
 646 023a 0BE0     		b	.L57
 647              	.LVL41:
 648              	.L95:
 649              	.LBE6:
 323:/home/phong/Documents/thesis/stm32f4/stm-idf/components/stm32f4xx_hal_driver/stm32f4xx_hal_i2s_ex.c ****     hi2s->TxXferCount--;
 650              		.loc 1 323 0
 651 023c A2F58062 		sub	r2, r2, #1024
 652 0240 D6E7     		b	.L54
 653              	.LVL42:
 654              	.L96:
 327:/home/phong/Documents/thesis/stm32f4/stm-idf/components/stm32f4xx_hal_driver/stm32f4xx_hal_i2s_ex.c **** 
 655              		.loc 1 327 0
 656 0242 294A     		ldr	r2, .L104+4
 657 0244 E2E7     		b	.L55
 658              	.LVL43:
 659              	.L64:
 342:/home/phong/Documents/thesis/stm32f4/stm-idf/components/stm32f4xx_hal_driver/stm32f4xx_hal_i2s_ex.c ****       {
 660              		.loc 1 342 0
 661 0246 638D     		ldrh	r3, [r4, #42]
 662 0248 9BB2     		uxth	r3, r3
 663 024a 63B9     		cbnz	r3, .L97
 664              	.L58:
 366:/home/phong/Documents/thesis/stm32f4/stm-idf/components/stm32f4xx_hal_driver/stm32f4xx_hal_i2s_ex.c ****       {
 665              		.loc 1 366 0
 666 024c 638E     		ldrh	r3, [r4, #50]
 667 024e 9BB2     		uxth	r3, r3
 668 0250 002B     		cmp	r3, #0
 669 0252 4BD1     		bne	.L98
 670              	.L57:
 340:/home/phong/Documents/thesis/stm32f4/stm-idf/components/stm32f4xx_hal_driver/stm32f4xx_hal_i2s_ex.c ****     {
 671              		.loc 1 340 0
 672 0254 638E     		ldrh	r3, [r4, #50]
 673 0256 9BB2     		uxth	r3, r3
 674 0258 002B     		cmp	r3, #0
 675 025a F4D1     		bne	.L64
 340:/home/phong/Documents/thesis/stm32f4/stm-idf/components/stm32f4xx_hal_driver/stm32f4xx_hal_i2s_ex.c ****     {
 676              		.loc 1 340 0 is_stmt 0 discriminator 1
 677 025c 638D     		ldrh	r3, [r4, #42]
 678 025e 9BB2     		uxth	r3, r3
 679 0260 002B     		cmp	r3, #0
 680 0262 F0D1     		bne	.L64
 681 0264 51E7     		b	.L53
 682              	.L97:
 345:/home/phong/Documents/thesis/stm32f4/stm-idf/components/stm32f4xx_hal_driver/stm32f4xx_hal_i2s_ex.c ****         {
 683              		.loc 1 345 0 is_stmt 1
 684 0266 0122     		movs	r2, #1
 685 0268 0092     		str	r2, [sp]
 686 026a 0E9B     		ldr	r3, [sp, #56]
 687 026c 0221     		movs	r1, #2
 688 026e 2046     		mov	r0, r4
 689 0270 FFF7FEFF 		bl	I2SEx_FullDuplexWaitFlagStateUntilTimeout
 690              	.LVL44:
 691 0274 E0B9     		cbnz	r0, .L99
 353:/home/phong/Documents/thesis/stm32f4/stm-idf/components/stm32f4xx_hal_driver/stm32f4xx_hal_i2s_ex.c ****         hi2s->TxXferCount--;
 692              		.loc 1 353 0
 693 0276 2268     		ldr	r2, [r4]
ARM GAS  /tmp/ccyFKXfi.s 			page 35


 694 0278 1A4B     		ldr	r3, .L104
 695 027a 9A42     		cmp	r2, r3
 696 027c 1ED0     		beq	.L100
 697 027e 4FF04023 		mov	r3, #1073758208
 698              	.L60:
 353:/home/phong/Documents/thesis/stm32f4/stm-idf/components/stm32f4xx_hal_driver/stm32f4xx_hal_i2s_ex.c ****         hi2s->TxXferCount--;
 699              		.loc 1 353 0 is_stmt 0 discriminator 4
 700 0282 B21C     		adds	r2, r6, #2
 701              	.LVL45:
 702 0284 3188     		ldrh	r1, [r6]
 703 0286 D960     		str	r1, [r3, #12]
 354:/home/phong/Documents/thesis/stm32f4/stm-idf/components/stm32f4xx_hal_driver/stm32f4xx_hal_i2s_ex.c **** 
 704              		.loc 1 354 0 is_stmt 1 discriminator 4
 705 0288 638D     		ldrh	r3, [r4, #42]
 706 028a 9BB2     		uxth	r3, r3
 707 028c 013B     		subs	r3, r3, #1
 708 028e 9BB2     		uxth	r3, r3
 709 0290 6385     		strh	r3, [r4, #42]	@ movhi
 357:/home/phong/Documents/thesis/stm32f4/stm-idf/components/stm32f4xx_hal_driver/stm32f4xx_hal_i2s_ex.c ****         {
 710              		.loc 1 357 0 discriminator 4
 711 0292 2368     		ldr	r3, [r4]
 712 0294 1349     		ldr	r1, .L104
 713 0296 8B42     		cmp	r3, r1
 714 0298 13D0     		beq	.L101
 357:/home/phong/Documents/thesis/stm32f4/stm-idf/components/stm32f4xx_hal_driver/stm32f4xx_hal_i2s_ex.c ****         {
 715              		.loc 1 357 0 is_stmt 0
 716 029a 4FF04021 		mov	r1, #1073758208
 717              	.L61:
 357:/home/phong/Documents/thesis/stm32f4/stm-idf/components/stm32f4xx_hal_driver/stm32f4xx_hal_i2s_ex.c ****         {
 718              		.loc 1 357 0 discriminator 4
 719 029e 8968     		ldr	r1, [r1, #8]
 720 02a0 11F0080F 		tst	r1, #8
 721 02a4 1BD0     		beq	.L81
 357:/home/phong/Documents/thesis/stm32f4/stm-idf/components/stm32f4xx_hal_driver/stm32f4xx_hal_i2s_ex.c ****         {
 722              		.loc 1 357 0 discriminator 5
 723 02a6 B7F5807F 		cmp	r7, #256
 724 02aa 0DD0     		beq	.L102
 353:/home/phong/Documents/thesis/stm32f4/stm-idf/components/stm32f4xx_hal_driver/stm32f4xx_hal_i2s_ex.c ****         hi2s->TxXferCount--;
 725              		.loc 1 353 0 is_stmt 1
 726 02ac 1646     		mov	r6, r2
 727 02ae CDE7     		b	.L58
 728              	.LVL46:
 729              	.L99:
 348:/home/phong/Documents/thesis/stm32f4/stm-idf/components/stm32f4xx_hal_driver/stm32f4xx_hal_i2s_ex.c ****           errorcode = HAL_ERROR;
 730              		.loc 1 348 0
 731 02b0 636C     		ldr	r3, [r4, #68]
 732 02b2 43F00103 		orr	r3, r3, #1
 733 02b6 6364     		str	r3, [r4, #68]
 734              	.LVL47:
 349:/home/phong/Documents/thesis/stm32f4/stm-idf/components/stm32f4xx_hal_driver/stm32f4xx_hal_i2s_ex.c ****           goto error;
 735              		.loc 1 349 0
 736 02b8 0120     		movs	r0, #1
 350:/home/phong/Documents/thesis/stm32f4/stm-idf/components/stm32f4xx_hal_driver/stm32f4xx_hal_i2s_ex.c ****         }
 737              		.loc 1 350 0
 738 02ba ABE6     		b	.L35
 739              	.LVL48:
 740              	.L100:
ARM GAS  /tmp/ccyFKXfi.s 			page 36


 353:/home/phong/Documents/thesis/stm32f4/stm-idf/components/stm32f4xx_hal_driver/stm32f4xx_hal_i2s_ex.c ****         hi2s->TxXferCount--;
 741              		.loc 1 353 0
 742 02bc A3F58063 		sub	r3, r3, #1024
 743 02c0 DFE7     		b	.L60
 744              	.LVL49:
 745              	.L101:
 357:/home/phong/Documents/thesis/stm32f4/stm-idf/components/stm32f4xx_hal_driver/stm32f4xx_hal_i2s_ex.c ****         {
 746              		.loc 1 357 0
 747 02c2 A1F58061 		sub	r1, r1, #1024
 748 02c6 EAE7     		b	.L61
 749              	.L102:
 750              	.LBB7:
 360:/home/phong/Documents/thesis/stm32f4/stm-idf/components/stm32f4xx_hal_driver/stm32f4xx_hal_i2s_ex.c **** 
 751              		.loc 1 360 0
 752 02c8 0021     		movs	r1, #0
 753 02ca 0691     		str	r1, [sp, #24]
 754 02cc 9B68     		ldr	r3, [r3, #8]
 755 02ce 0693     		str	r3, [sp, #24]
 756 02d0 069B     		ldr	r3, [sp, #24]
 757              	.LBE7:
 363:/home/phong/Documents/thesis/stm32f4/stm-idf/components/stm32f4xx_hal_driver/stm32f4xx_hal_i2s_ex.c ****         }
 758              		.loc 1 363 0
 759 02d2 636C     		ldr	r3, [r4, #68]
 760 02d4 43F00403 		orr	r3, r3, #4
 761 02d8 6364     		str	r3, [r4, #68]
 353:/home/phong/Documents/thesis/stm32f4/stm-idf/components/stm32f4xx_hal_driver/stm32f4xx_hal_i2s_ex.c ****         hi2s->TxXferCount--;
 762              		.loc 1 353 0
 763 02da 1646     		mov	r6, r2
 764 02dc B6E7     		b	.L58
 765              	.L81:
 766 02de 1646     		mov	r6, r2
 767 02e0 B4E7     		b	.L58
 768              	.L105:
 769 02e2 00BF     		.align	2
 770              	.L104:
 771 02e4 00380040 		.word	1073756160
 772 02e8 00340040 		.word	1073755136
 773              	.LVL50:
 774              	.L98:
 369:/home/phong/Documents/thesis/stm32f4/stm-idf/components/stm32f4xx_hal_driver/stm32f4xx_hal_i2s_ex.c ****         {
 775              		.loc 1 369 0
 776 02ec 0023     		movs	r3, #0
 777 02ee 0093     		str	r3, [sp]
 778 02f0 0E9B     		ldr	r3, [sp, #56]
 779 02f2 0122     		movs	r2, #1
 780 02f4 1146     		mov	r1, r2
 781 02f6 2046     		mov	r0, r4
 782 02f8 FFF7FEFF 		bl	I2SEx_FullDuplexWaitFlagStateUntilTimeout
 783              	.LVL51:
 784 02fc D0B9     		cbnz	r0, .L103
 377:/home/phong/Documents/thesis/stm32f4/stm-idf/components/stm32f4xx_hal_driver/stm32f4xx_hal_i2s_ex.c ****         hi2s->RxXferCount--;
 785              		.loc 1 377 0
 786 02fe AA1C     		adds	r2, r5, #2
 787              	.LVL52:
 788 0300 2368     		ldr	r3, [r4]
 789 0302 DB68     		ldr	r3, [r3, #12]
 790 0304 2B80     		strh	r3, [r5]	@ movhi
ARM GAS  /tmp/ccyFKXfi.s 			page 37


 378:/home/phong/Documents/thesis/stm32f4/stm-idf/components/stm32f4xx_hal_driver/stm32f4xx_hal_i2s_ex.c **** 
 791              		.loc 1 378 0
 792 0306 638E     		ldrh	r3, [r4, #50]
 793 0308 9BB2     		uxth	r3, r3
 794 030a 013B     		subs	r3, r3, #1
 795 030c 9BB2     		uxth	r3, r3
 796 030e 6386     		strh	r3, [r4, #50]	@ movhi
 381:/home/phong/Documents/thesis/stm32f4/stm-idf/components/stm32f4xx_hal_driver/stm32f4xx_hal_i2s_ex.c ****         {
 797              		.loc 1 381 0
 798 0310 2368     		ldr	r3, [r4]
 799 0312 9968     		ldr	r1, [r3, #8]
 800 0314 11F0400F 		tst	r1, #64
 801 0318 12D0     		beq	.L83
 802              	.LBB8:
 384:/home/phong/Documents/thesis/stm32f4/stm-idf/components/stm32f4xx_hal_driver/stm32f4xx_hal_i2s_ex.c **** 
 803              		.loc 1 384 0
 804 031a 0021     		movs	r1, #0
 805 031c 0791     		str	r1, [sp, #28]
 806 031e D968     		ldr	r1, [r3, #12]
 807 0320 0791     		str	r1, [sp, #28]
 808 0322 9B68     		ldr	r3, [r3, #8]
 809 0324 0793     		str	r3, [sp, #28]
 810 0326 079B     		ldr	r3, [sp, #28]
 811              	.LBE8:
 387:/home/phong/Documents/thesis/stm32f4/stm-idf/components/stm32f4xx_hal_driver/stm32f4xx_hal_i2s_ex.c ****         }
 812              		.loc 1 387 0
 813 0328 636C     		ldr	r3, [r4, #68]
 814 032a 43F00203 		orr	r3, r3, #2
 815 032e 6364     		str	r3, [r4, #68]
 377:/home/phong/Documents/thesis/stm32f4/stm-idf/components/stm32f4xx_hal_driver/stm32f4xx_hal_i2s_ex.c ****         hi2s->RxXferCount--;
 816              		.loc 1 377 0
 817 0330 1546     		mov	r5, r2
 818 0332 8FE7     		b	.L57
 819              	.LVL53:
 820              	.L103:
 372:/home/phong/Documents/thesis/stm32f4/stm-idf/components/stm32f4xx_hal_driver/stm32f4xx_hal_i2s_ex.c ****           errorcode = HAL_ERROR;
 821              		.loc 1 372 0
 822 0334 636C     		ldr	r3, [r4, #68]
 823 0336 43F00103 		orr	r3, r3, #1
 824 033a 6364     		str	r3, [r4, #68]
 825              	.LVL54:
 373:/home/phong/Documents/thesis/stm32f4/stm-idf/components/stm32f4xx_hal_driver/stm32f4xx_hal_i2s_ex.c ****           goto error;
 826              		.loc 1 373 0
 827 033c 0120     		movs	r0, #1
 374:/home/phong/Documents/thesis/stm32f4/stm-idf/components/stm32f4xx_hal_driver/stm32f4xx_hal_i2s_ex.c ****         }
 828              		.loc 1 374 0
 829 033e 69E6     		b	.L35
 830              	.LVL55:
 831              	.L83:
 377:/home/phong/Documents/thesis/stm32f4/stm-idf/components/stm32f4xx_hal_driver/stm32f4xx_hal_i2s_ex.c ****         hi2s->RxXferCount--;
 832              		.loc 1 377 0
 833 0340 1546     		mov	r5, r2
 834 0342 87E7     		b	.L57
 835              	.LVL56:
 836              	.L84:
 395:/home/phong/Documents/thesis/stm32f4/stm-idf/components/stm32f4xx_hal_driver/stm32f4xx_hal_i2s_ex.c ****   }
 837              		.loc 1 395 0
ARM GAS  /tmp/ccyFKXfi.s 			page 38


 838 0344 0120     		movs	r0, #1
 839 0346 65E6     		b	.L35
 840              	.LVL57:
 841              	.L66:
 215:/home/phong/Documents/thesis/stm32f4/stm-idf/components/stm32f4xx_hal_driver/stm32f4xx_hal_i2s_ex.c ****   }
 842              		.loc 1 215 0
 843 0348 0120     		movs	r0, #1
 844              	.LVL58:
 845 034a 69E6     		b	.L36
 846              	.LVL59:
 847              	.L67:
 848 034c 0120     		movs	r0, #1
 849              	.LVL60:
 850 034e 67E6     		b	.L36
 851              	.LVL61:
 852              	.L68:
 853 0350 0120     		movs	r0, #1
 854              	.LVL62:
 855 0352 65E6     		b	.L36
 856              	.LVL63:
 857              	.L69:
 219:/home/phong/Documents/thesis/stm32f4/stm-idf/components/stm32f4xx_hal_driver/stm32f4xx_hal_i2s_ex.c **** 
 858              		.loc 1 219 0
 859 0354 0220     		movs	r0, #2
 860              	.LVL64:
 861 0356 63E6     		b	.L36
 862              		.cfi_endproc
 863              	.LFE130:
 865              		.section	.text.HAL_I2SEx_TransmitReceive_IT,"ax",%progbits
 866              		.align	1
 867              		.global	HAL_I2SEx_TransmitReceive_IT
 868              		.syntax unified
 869              		.thumb
 870              		.thumb_func
 871              		.fpu fpv4-sp-d16
 873              	HAL_I2SEx_TransmitReceive_IT:
 874              	.LFB131:
 421:/home/phong/Documents/thesis/stm32f4/stm-idf/components/stm32f4xx_hal_driver/stm32f4xx_hal_i2s_ex.c ****   uint32_t tmp1 = 0U;
 875              		.loc 1 421 0
 876              		.cfi_startproc
 877              		@ args = 0, pretend = 0, frame = 0
 878              		@ frame_needed = 0, uses_anonymous_args = 0
 879              		@ link register save eliminated.
 880              	.LVL65:
 881 0000 10B4     		push	{r4}
 882              	.LCFI6:
 883              		.cfi_def_cfa_offset 4
 884              		.cfi_offset 4, -4
 885              	.LVL66:
 425:/home/phong/Documents/thesis/stm32f4/stm-idf/components/stm32f4xx_hal_driver/stm32f4xx_hal_i2s_ex.c ****   {
 886              		.loc 1 425 0
 887 0002 90F84140 		ldrb	r4, [r0, #65]	@ zero_extendqisi2
 888 0006 E4B2     		uxtb	r4, r4
 889 0008 012C     		cmp	r4, #1
 890 000a 07D0     		beq	.L131
 427:/home/phong/Documents/thesis/stm32f4/stm-idf/components/stm32f4xx_hal_driver/stm32f4xx_hal_i2s_ex.c ****     goto error;
 891              		.loc 1 427 0
ARM GAS  /tmp/ccyFKXfi.s 			page 39


 892 000c 0223     		movs	r3, #2
 893              	.LVL67:
 894              	.L107:
 510:/home/phong/Documents/thesis/stm32f4/stm-idf/components/stm32f4xx_hal_driver/stm32f4xx_hal_i2s_ex.c ****   return errorcode;
 895              		.loc 1 510 0
 896 000e 0022     		movs	r2, #0
 897 0010 80F84020 		strb	r2, [r0, #64]
 898              	.LVL68:
 899              	.L108:
 512:/home/phong/Documents/thesis/stm32f4/stm-idf/components/stm32f4xx_hal_driver/stm32f4xx_hal_i2s_ex.c **** 
 900              		.loc 1 512 0
 901 0014 1846     		mov	r0, r3
 902              	.LVL69:
 903 0016 5DF8044B 		ldr	r4, [sp], #4
 904              	.LCFI7:
 905              		.cfi_remember_state
 906              		.cfi_restore 4
 907              		.cfi_def_cfa_offset 0
 908 001a 7047     		bx	lr
 909              	.LVL70:
 910              	.L131:
 911              	.LCFI8:
 912              		.cfi_restore_state
 431:/home/phong/Documents/thesis/stm32f4/stm-idf/components/stm32f4xx_hal_driver/stm32f4xx_hal_i2s_ex.c ****   {
 913              		.loc 1 431 0
 914 001c 0029     		cmp	r1, #0
 915 001e 00F09A80 		beq	.L121
 431:/home/phong/Documents/thesis/stm32f4/stm-idf/components/stm32f4xx_hal_driver/stm32f4xx_hal_i2s_ex.c ****   {
 916              		.loc 1 431 0 is_stmt 0 discriminator 1
 917 0022 002A     		cmp	r2, #0
 918 0024 00F09980 		beq	.L122
 431:/home/phong/Documents/thesis/stm32f4/stm-idf/components/stm32f4xx_hal_driver/stm32f4xx_hal_i2s_ex.c ****   {
 919              		.loc 1 431 0 discriminator 2
 920 0028 002B     		cmp	r3, #0
 921 002a 00F09880 		beq	.L123
 437:/home/phong/Documents/thesis/stm32f4/stm-idf/components/stm32f4xx_hal_driver/stm32f4xx_hal_i2s_ex.c **** 
 922              		.loc 1 437 0 is_stmt 1
 923 002e 90F84040 		ldrb	r4, [r0, #64]	@ zero_extendqisi2
 924 0032 E4B2     		uxtb	r4, r4
 925 0034 012C     		cmp	r4, #1
 926 0036 00F09480 		beq	.L124
 437:/home/phong/Documents/thesis/stm32f4/stm-idf/components/stm32f4xx_hal_driver/stm32f4xx_hal_i2s_ex.c **** 
 927              		.loc 1 437 0 is_stmt 0 discriminator 2
 928 003a 0124     		movs	r4, #1
 929 003c 80F84040 		strb	r4, [r0, #64]
 439:/home/phong/Documents/thesis/stm32f4/stm-idf/components/stm32f4xx_hal_driver/stm32f4xx_hal_i2s_ex.c ****   hi2s->pRxBuffPtr = pRxData;
 930              		.loc 1 439 0 is_stmt 1 discriminator 2
 931 0040 4162     		str	r1, [r0, #36]
 440:/home/phong/Documents/thesis/stm32f4/stm-idf/components/stm32f4xx_hal_driver/stm32f4xx_hal_i2s_ex.c **** 
 932              		.loc 1 440 0 discriminator 2
 933 0042 C262     		str	r2, [r0, #44]
 442:/home/phong/Documents/thesis/stm32f4/stm-idf/components/stm32f4xx_hal_driver/stm32f4xx_hal_i2s_ex.c ****   /* Check the Data format: When a 16-bit data frame or a 16-bit data frame extended
 934              		.loc 1 442 0 discriminator 2
 935 0044 0268     		ldr	r2, [r0]
 936              	.LVL71:
 937 0046 D269     		ldr	r2, [r2, #28]
 938 0048 02F00702 		and	r2, r2, #7
ARM GAS  /tmp/ccyFKXfi.s 			page 40


 939              	.LVL72:
 447:/home/phong/Documents/thesis/stm32f4/stm-idf/components/stm32f4xx_hal_driver/stm32f4xx_hal_i2s_ex.c ****   {
 940              		.loc 1 447 0 discriminator 2
 941 004c 032A     		cmp	r2, #3
 942 004e 43D0     		beq	.L109
 447:/home/phong/Documents/thesis/stm32f4/stm-idf/components/stm32f4xx_hal_driver/stm32f4xx_hal_i2s_ex.c ****   {
 943              		.loc 1 447 0 is_stmt 0 discriminator 1
 944 0050 052A     		cmp	r2, #5
 945 0052 41D0     		beq	.L109
 456:/home/phong/Documents/thesis/stm32f4/stm-idf/components/stm32f4xx_hal_driver/stm32f4xx_hal_i2s_ex.c ****     hi2s->TxXferCount = Size;
 946              		.loc 1 456 0 is_stmt 1
 947 0054 0385     		strh	r3, [r0, #40]	@ movhi
 457:/home/phong/Documents/thesis/stm32f4/stm-idf/components/stm32f4xx_hal_driver/stm32f4xx_hal_i2s_ex.c ****     hi2s->RxXferSize  = Size;
 948              		.loc 1 457 0
 949 0056 4385     		strh	r3, [r0, #42]	@ movhi
 458:/home/phong/Documents/thesis/stm32f4/stm-idf/components/stm32f4xx_hal_driver/stm32f4xx_hal_i2s_ex.c ****     hi2s->RxXferCount = Size;
 950              		.loc 1 458 0
 951 0058 0386     		strh	r3, [r0, #48]	@ movhi
 459:/home/phong/Documents/thesis/stm32f4/stm-idf/components/stm32f4xx_hal_driver/stm32f4xx_hal_i2s_ex.c ****   }
 952              		.loc 1 459 0
 953 005a 4386     		strh	r3, [r0, #50]	@ movhi
 954              	.LVL73:
 955              	.L111:
 462:/home/phong/Documents/thesis/stm32f4/stm-idf/components/stm32f4xx_hal_driver/stm32f4xx_hal_i2s_ex.c ****   hi2s->State     = HAL_I2S_STATE_BUSY_TX_RX;
 956              		.loc 1 462 0
 957 005c 0023     		movs	r3, #0
 958 005e 4364     		str	r3, [r0, #68]
 463:/home/phong/Documents/thesis/stm32f4/stm-idf/components/stm32f4xx_hal_driver/stm32f4xx_hal_i2s_ex.c **** 
 959              		.loc 1 463 0
 960 0060 0523     		movs	r3, #5
 961 0062 80F84130 		strb	r3, [r0, #65]
 466:/home/phong/Documents/thesis/stm32f4/stm-idf/components/stm32f4xx_hal_driver/stm32f4xx_hal_i2s_ex.c ****   {
 962              		.loc 1 466 0
 963 0066 4368     		ldr	r3, [r0, #4]
 964 0068 B3F5007F 		cmp	r3, #512
 965 006c 01D0     		beq	.L112
 466:/home/phong/Documents/thesis/stm32f4/stm-idf/components/stm32f4xx_hal_driver/stm32f4xx_hal_i2s_ex.c ****   {
 966              		.loc 1 466 0 is_stmt 0 discriminator 1
 967 006e 002B     		cmp	r3, #0
 968 0070 3BD1     		bne	.L113
 969              	.L112:
 469:/home/phong/Documents/thesis/stm32f4/stm-idf/components/stm32f4xx_hal_driver/stm32f4xx_hal_i2s_ex.c **** 
 970              		.loc 1 469 0 is_stmt 1
 971 0072 0268     		ldr	r2, [r0]
 972              	.LVL74:
 973 0074 3C4B     		ldr	r3, .L137
 974 0076 9A42     		cmp	r2, r3
 975 0078 35D0     		beq	.L132
 976 007a 4FF04022 		mov	r2, #1073758208
 977              	.L114:
 469:/home/phong/Documents/thesis/stm32f4/stm-idf/components/stm32f4xx_hal_driver/stm32f4xx_hal_i2s_ex.c **** 
 978              		.loc 1 469 0 is_stmt 0 discriminator 4
 979 007e 5368     		ldr	r3, [r2, #4]
 980 0080 43F06003 		orr	r3, r3, #96
 981 0084 5360     		str	r3, [r2, #4]
 982              	.LVL75:
 472:/home/phong/Documents/thesis/stm32f4/stm-idf/components/stm32f4xx_hal_driver/stm32f4xx_hal_i2s_ex.c **** 
ARM GAS  /tmp/ccyFKXfi.s 			page 41


 983              		.loc 1 472 0 is_stmt 1 discriminator 4
 984 0086 0268     		ldr	r2, [r0]
 985 0088 5368     		ldr	r3, [r2, #4]
 986 008a 43F0A003 		orr	r3, r3, #160
 987 008e 5360     		str	r3, [r2, #4]
 475:/home/phong/Documents/thesis/stm32f4/stm-idf/components/stm32f4xx_hal_driver/stm32f4xx_hal_i2s_ex.c ****     hi2s->TxXferCount--;
 988              		.loc 1 475 0 discriminator 4
 989 0090 0268     		ldr	r2, [r0]
 990 0092 436A     		ldr	r3, [r0, #36]
 991 0094 991C     		adds	r1, r3, #2
 992              	.LVL76:
 993 0096 4162     		str	r1, [r0, #36]
 994 0098 1B88     		ldrh	r3, [r3]
 995 009a D360     		str	r3, [r2, #12]
 476:/home/phong/Documents/thesis/stm32f4/stm-idf/components/stm32f4xx_hal_driver/stm32f4xx_hal_i2s_ex.c **** 
 996              		.loc 1 476 0 discriminator 4
 997 009c 438D     		ldrh	r3, [r0, #42]
 998 009e 9BB2     		uxth	r3, r3
 999 00a0 013B     		subs	r3, r3, #1
 1000 00a2 9BB2     		uxth	r3, r3
 1001 00a4 4385     		strh	r3, [r0, #42]	@ movhi
 478:/home/phong/Documents/thesis/stm32f4/stm-idf/components/stm32f4xx_hal_driver/stm32f4xx_hal_i2s_ex.c ****     {
 1002              		.loc 1 478 0 discriminator 4
 1003 00a6 438D     		ldrh	r3, [r0, #42]
 1004 00a8 9BB2     		uxth	r3, r3
 1005 00aa 23B9     		cbnz	r3, .L115
 481:/home/phong/Documents/thesis/stm32f4/stm-idf/components/stm32f4xx_hal_driver/stm32f4xx_hal_i2s_ex.c ****     }
 1006              		.loc 1 481 0
 1007 00ac 0268     		ldr	r2, [r0]
 1008 00ae 5368     		ldr	r3, [r2, #4]
 1009 00b0 23F0A003 		bic	r3, r3, #160
 1010 00b4 5360     		str	r3, [r2, #4]
 1011              	.L115:
 504:/home/phong/Documents/thesis/stm32f4/stm-idf/components/stm32f4xx_hal_driver/stm32f4xx_hal_i2s_ex.c **** 
 1012              		.loc 1 504 0
 1013 00b6 0268     		ldr	r2, [r0]
 1014 00b8 2B4B     		ldr	r3, .L137
 1015 00ba 9A42     		cmp	r2, r3
 1016 00bc 49D0     		beq	.L133
 1017 00be 4FF04022 		mov	r2, #1073758208
 1018              	.L119:
 504:/home/phong/Documents/thesis/stm32f4/stm-idf/components/stm32f4xx_hal_driver/stm32f4xx_hal_i2s_ex.c **** 
 1019              		.loc 1 504 0 is_stmt 0 discriminator 4
 1020 00c2 D369     		ldr	r3, [r2, #28]
 1021 00c4 43F48063 		orr	r3, r3, #1024
 1022 00c8 D361     		str	r3, [r2, #28]
 507:/home/phong/Documents/thesis/stm32f4/stm-idf/components/stm32f4xx_hal_driver/stm32f4xx_hal_i2s_ex.c **** 
 1023              		.loc 1 507 0 is_stmt 1 discriminator 4
 1024 00ca 0268     		ldr	r2, [r0]
 1025 00cc D369     		ldr	r3, [r2, #28]
 1026 00ce 43F48063 		orr	r3, r3, #1024
 1027 00d2 D361     		str	r3, [r2, #28]
 423:/home/phong/Documents/thesis/stm32f4/stm-idf/components/stm32f4xx_hal_driver/stm32f4xx_hal_i2s_ex.c **** 
 1028              		.loc 1 423 0 discriminator 4
 1029 00d4 0023     		movs	r3, #0
 1030 00d6 9AE7     		b	.L107
 1031              	.LVL77:
ARM GAS  /tmp/ccyFKXfi.s 			page 42


 1032              	.L109:
 449:/home/phong/Documents/thesis/stm32f4/stm-idf/components/stm32f4xx_hal_driver/stm32f4xx_hal_i2s_ex.c ****     hi2s->TxXferCount = (Size << 1U);
 1033              		.loc 1 449 0
 1034 00d8 5B00     		lsls	r3, r3, #1
 1035              	.LVL78:
 1036 00da 9BB2     		uxth	r3, r3
 1037 00dc 0385     		strh	r3, [r0, #40]	@ movhi
 450:/home/phong/Documents/thesis/stm32f4/stm-idf/components/stm32f4xx_hal_driver/stm32f4xx_hal_i2s_ex.c ****     hi2s->RxXferSize  = (Size << 1U);
 1038              		.loc 1 450 0
 1039 00de 4385     		strh	r3, [r0, #42]	@ movhi
 451:/home/phong/Documents/thesis/stm32f4/stm-idf/components/stm32f4xx_hal_driver/stm32f4xx_hal_i2s_ex.c ****     hi2s->RxXferCount = (Size << 1U);
 1040              		.loc 1 451 0
 1041 00e0 0386     		strh	r3, [r0, #48]	@ movhi
 452:/home/phong/Documents/thesis/stm32f4/stm-idf/components/stm32f4xx_hal_driver/stm32f4xx_hal_i2s_ex.c ****   }
 1042              		.loc 1 452 0
 1043 00e2 4386     		strh	r3, [r0, #50]	@ movhi
 1044 00e4 BAE7     		b	.L111
 1045              	.LVL79:
 1046              	.L132:
 469:/home/phong/Documents/thesis/stm32f4/stm-idf/components/stm32f4xx_hal_driver/stm32f4xx_hal_i2s_ex.c **** 
 1047              		.loc 1 469 0
 1048 00e6 214A     		ldr	r2, .L137+4
 1049 00e8 C9E7     		b	.L114
 1050              	.LVL80:
 1051              	.L113:
 487:/home/phong/Documents/thesis/stm32f4/stm-idf/components/stm32f4xx_hal_driver/stm32f4xx_hal_i2s_ex.c **** 
 1052              		.loc 1 487 0
 1053 00ea 0268     		ldr	r2, [r0]
 1054              	.LVL81:
 1055 00ec 1E4B     		ldr	r3, .L137
 1056 00ee 9A42     		cmp	r2, r3
 1057 00f0 29D0     		beq	.L134
 1058 00f2 4FF04022 		mov	r2, #1073758208
 1059              	.L116:
 487:/home/phong/Documents/thesis/stm32f4/stm-idf/components/stm32f4xx_hal_driver/stm32f4xx_hal_i2s_ex.c **** 
 1060              		.loc 1 487 0 is_stmt 0 discriminator 4
 1061 00f6 5368     		ldr	r3, [r2, #4]
 1062 00f8 43F0A003 		orr	r3, r3, #160
 1063 00fc 5360     		str	r3, [r2, #4]
 1064              	.LVL82:
 490:/home/phong/Documents/thesis/stm32f4/stm-idf/components/stm32f4xx_hal_driver/stm32f4xx_hal_i2s_ex.c **** 
 1065              		.loc 1 490 0 is_stmt 1 discriminator 4
 1066 00fe 0268     		ldr	r2, [r0]
 1067 0100 5368     		ldr	r3, [r2, #4]
 1068 0102 43F06003 		orr	r3, r3, #96
 1069 0106 5360     		str	r3, [r2, #4]
 493:/home/phong/Documents/thesis/stm32f4/stm-idf/components/stm32f4xx_hal_driver/stm32f4xx_hal_i2s_ex.c ****     hi2s->TxXferCount--;
 1070              		.loc 1 493 0 discriminator 4
 1071 0108 0268     		ldr	r2, [r0]
 1072 010a 174B     		ldr	r3, .L137
 1073 010c 9A42     		cmp	r2, r3
 1074 010e 1CD0     		beq	.L135
 493:/home/phong/Documents/thesis/stm32f4/stm-idf/components/stm32f4xx_hal_driver/stm32f4xx_hal_i2s_ex.c ****     hi2s->TxXferCount--;
 1075              		.loc 1 493 0 is_stmt 0
 1076 0110 4FF04022 		mov	r2, #1073758208
 1077              	.L117:
 493:/home/phong/Documents/thesis/stm32f4/stm-idf/components/stm32f4xx_hal_driver/stm32f4xx_hal_i2s_ex.c ****     hi2s->TxXferCount--;
ARM GAS  /tmp/ccyFKXfi.s 			page 43


 1078              		.loc 1 493 0 discriminator 4
 1079 0114 436A     		ldr	r3, [r0, #36]
 1080 0116 991C     		adds	r1, r3, #2
 1081              	.LVL83:
 1082 0118 4162     		str	r1, [r0, #36]
 1083 011a 1B88     		ldrh	r3, [r3]
 1084 011c D360     		str	r3, [r2, #12]
 494:/home/phong/Documents/thesis/stm32f4/stm-idf/components/stm32f4xx_hal_driver/stm32f4xx_hal_i2s_ex.c **** 
 1085              		.loc 1 494 0 is_stmt 1 discriminator 4
 1086 011e 438D     		ldrh	r3, [r0, #42]
 1087 0120 9BB2     		uxth	r3, r3
 1088 0122 013B     		subs	r3, r3, #1
 1089 0124 9BB2     		uxth	r3, r3
 1090 0126 4385     		strh	r3, [r0, #42]	@ movhi
 496:/home/phong/Documents/thesis/stm32f4/stm-idf/components/stm32f4xx_hal_driver/stm32f4xx_hal_i2s_ex.c ****     {
 1091              		.loc 1 496 0 discriminator 4
 1092 0128 438D     		ldrh	r3, [r0, #42]
 1093 012a 9BB2     		uxth	r3, r3
 1094 012c 002B     		cmp	r3, #0
 1095 012e C2D1     		bne	.L115
 499:/home/phong/Documents/thesis/stm32f4/stm-idf/components/stm32f4xx_hal_driver/stm32f4xx_hal_i2s_ex.c ****     }
 1096              		.loc 1 499 0
 1097 0130 0268     		ldr	r2, [r0]
 1098 0132 0D4B     		ldr	r3, .L137
 1099 0134 9A42     		cmp	r2, r3
 1100 0136 0AD0     		beq	.L136
 1101 0138 4FF04022 		mov	r2, #1073758208
 1102              	.L118:
 499:/home/phong/Documents/thesis/stm32f4/stm-idf/components/stm32f4xx_hal_driver/stm32f4xx_hal_i2s_ex.c ****     }
 1103              		.loc 1 499 0 is_stmt 0 discriminator 4
 1104 013c 5368     		ldr	r3, [r2, #4]
 1105 013e 23F0A003 		bic	r3, r3, #160
 1106 0142 5360     		str	r3, [r2, #4]
 1107 0144 B7E7     		b	.L115
 1108              	.LVL84:
 1109              	.L134:
 487:/home/phong/Documents/thesis/stm32f4/stm-idf/components/stm32f4xx_hal_driver/stm32f4xx_hal_i2s_ex.c **** 
 1110              		.loc 1 487 0 is_stmt 1
 1111 0146 094A     		ldr	r2, .L137+4
 1112 0148 D5E7     		b	.L116
 1113              	.LVL85:
 1114              	.L135:
 493:/home/phong/Documents/thesis/stm32f4/stm-idf/components/stm32f4xx_hal_driver/stm32f4xx_hal_i2s_ex.c ****     hi2s->TxXferCount--;
 1115              		.loc 1 493 0
 1116 014a 084A     		ldr	r2, .L137+4
 1117 014c E2E7     		b	.L117
 1118              	.LVL86:
 1119              	.L136:
 499:/home/phong/Documents/thesis/stm32f4/stm-idf/components/stm32f4xx_hal_driver/stm32f4xx_hal_i2s_ex.c ****     }
 1120              		.loc 1 499 0
 1121 014e 074A     		ldr	r2, .L137+4
 1122 0150 F4E7     		b	.L118
 1123              	.L133:
 504:/home/phong/Documents/thesis/stm32f4/stm-idf/components/stm32f4xx_hal_driver/stm32f4xx_hal_i2s_ex.c **** 
 1124              		.loc 1 504 0
 1125 0152 064A     		ldr	r2, .L137+4
 1126 0154 B5E7     		b	.L119
ARM GAS  /tmp/ccyFKXfi.s 			page 44


 1127              	.LVL87:
 1128              	.L121:
 433:/home/phong/Documents/thesis/stm32f4/stm-idf/components/stm32f4xx_hal_driver/stm32f4xx_hal_i2s_ex.c ****   }
 1129              		.loc 1 433 0
 1130 0156 0123     		movs	r3, #1
 1131              	.LVL88:
 1132 0158 5CE7     		b	.L108
 1133              	.LVL89:
 1134              	.L122:
 1135 015a 0123     		movs	r3, #1
 1136              	.LVL90:
 1137 015c 5AE7     		b	.L108
 1138              	.LVL91:
 1139              	.L123:
 1140 015e 0123     		movs	r3, #1
 1141              	.LVL92:
 1142 0160 58E7     		b	.L108
 1143              	.LVL93:
 1144              	.L124:
 437:/home/phong/Documents/thesis/stm32f4/stm-idf/components/stm32f4xx_hal_driver/stm32f4xx_hal_i2s_ex.c **** 
 1145              		.loc 1 437 0
 1146 0162 0223     		movs	r3, #2
 1147              	.LVL94:
 1148 0164 56E7     		b	.L108
 1149              	.L138:
 1150 0166 00BF     		.align	2
 1151              	.L137:
 1152 0168 00380040 		.word	1073756160
 1153 016c 00340040 		.word	1073755136
 1154              		.cfi_endproc
 1155              	.LFE131:
 1157              		.section	.text.HAL_I2SEx_TransmitReceive_DMA,"ax",%progbits
 1158              		.align	1
 1159              		.global	HAL_I2SEx_TransmitReceive_DMA
 1160              		.syntax unified
 1161              		.thumb
 1162              		.thumb_func
 1163              		.fpu fpv4-sp-d16
 1165              	HAL_I2SEx_TransmitReceive_DMA:
 1166              	.LFB132:
 531:/home/phong/Documents/thesis/stm32f4/stm-idf/components/stm32f4xx_hal_driver/stm32f4xx_hal_i2s_ex.c ****   uint32_t *tmp = NULL;
 1167              		.loc 1 531 0
 1168              		.cfi_startproc
 1169              		@ args = 0, pretend = 0, frame = 8
 1170              		@ frame_needed = 0, uses_anonymous_args = 0
 1171              	.LVL95:
 1172 0000 70B5     		push	{r4, r5, r6, lr}
 1173              	.LCFI9:
 1174              		.cfi_def_cfa_offset 16
 1175              		.cfi_offset 4, -16
 1176              		.cfi_offset 5, -12
 1177              		.cfi_offset 6, -8
 1178              		.cfi_offset 14, -4
 1179 0002 82B0     		sub	sp, sp, #8
 1180              	.LCFI10:
 1181              		.cfi_def_cfa_offset 24
 1182 0004 0446     		mov	r4, r0
ARM GAS  /tmp/ccyFKXfi.s 			page 45


 1183 0006 1646     		mov	r6, r2
 1184              	.LVL96:
 536:/home/phong/Documents/thesis/stm32f4/stm-idf/components/stm32f4xx_hal_driver/stm32f4xx_hal_i2s_ex.c ****   {
 1185              		.loc 1 536 0
 1186 0008 90F84120 		ldrb	r2, [r0, #65]	@ zero_extendqisi2
 1187              	.LVL97:
 1188 000c D2B2     		uxtb	r2, r2
 1189 000e 012A     		cmp	r2, #1
 1190 0010 05D0     		beq	.L168
 538:/home/phong/Documents/thesis/stm32f4/stm-idf/components/stm32f4xx_hal_driver/stm32f4xx_hal_i2s_ex.c ****     goto error;
 1191              		.loc 1 538 0
 1192 0012 0220     		movs	r0, #2
 1193              	.LVL98:
 1194              	.L140:
 656:/home/phong/Documents/thesis/stm32f4/stm-idf/components/stm32f4xx_hal_driver/stm32f4xx_hal_i2s_ex.c ****   return errorcode;
 1195              		.loc 1 656 0
 1196 0014 0023     		movs	r3, #0
 1197 0016 84F84030 		strb	r3, [r4, #64]
 1198              	.LVL99:
 1199              	.L141:
 658:/home/phong/Documents/thesis/stm32f4/stm-idf/components/stm32f4xx_hal_driver/stm32f4xx_hal_i2s_ex.c **** 
 1200              		.loc 1 658 0
 1201 001a 02B0     		add	sp, sp, #8
 1202              	.LCFI11:
 1203              		.cfi_remember_state
 1204              		.cfi_def_cfa_offset 16
 1205              		@ sp needed
 1206 001c 70BD     		pop	{r4, r5, r6, pc}
 1207              	.LVL100:
 1208              	.L168:
 1209              	.LCFI12:
 1210              		.cfi_restore_state
 1211 001e 0D46     		mov	r5, r1
 542:/home/phong/Documents/thesis/stm32f4/stm-idf/components/stm32f4xx_hal_driver/stm32f4xx_hal_i2s_ex.c ****   {
 1212              		.loc 1 542 0
 1213 0020 0029     		cmp	r1, #0
 1214 0022 00F0D180 		beq	.L155
 542:/home/phong/Documents/thesis/stm32f4/stm-idf/components/stm32f4xx_hal_driver/stm32f4xx_hal_i2s_ex.c ****   {
 1215              		.loc 1 542 0 is_stmt 0 discriminator 1
 1216 0026 002E     		cmp	r6, #0
 1217 0028 00F0D080 		beq	.L156
 542:/home/phong/Documents/thesis/stm32f4/stm-idf/components/stm32f4xx_hal_driver/stm32f4xx_hal_i2s_ex.c ****   {
 1218              		.loc 1 542 0 discriminator 2
 1219 002c 002B     		cmp	r3, #0
 1220 002e 00F0CF80 		beq	.L157
 548:/home/phong/Documents/thesis/stm32f4/stm-idf/components/stm32f4xx_hal_driver/stm32f4xx_hal_i2s_ex.c **** 
 1221              		.loc 1 548 0 is_stmt 1
 1222 0032 90F84020 		ldrb	r2, [r0, #64]	@ zero_extendqisi2
 1223 0036 D2B2     		uxtb	r2, r2
 1224 0038 012A     		cmp	r2, #1
 1225 003a 00F0CB80 		beq	.L158
 548:/home/phong/Documents/thesis/stm32f4/stm-idf/components/stm32f4xx_hal_driver/stm32f4xx_hal_i2s_ex.c **** 
 1226              		.loc 1 548 0 is_stmt 0 discriminator 2
 1227 003e 0122     		movs	r2, #1
 1228 0040 80F84020 		strb	r2, [r0, #64]
 550:/home/phong/Documents/thesis/stm32f4/stm-idf/components/stm32f4xx_hal_driver/stm32f4xx_hal_i2s_ex.c ****   hi2s->pRxBuffPtr = pRxData;
 1229              		.loc 1 550 0 is_stmt 1 discriminator 2
ARM GAS  /tmp/ccyFKXfi.s 			page 46


 1230 0044 6162     		str	r1, [r4, #36]
 551:/home/phong/Documents/thesis/stm32f4/stm-idf/components/stm32f4xx_hal_driver/stm32f4xx_hal_i2s_ex.c **** 
 1231              		.loc 1 551 0 discriminator 2
 1232 0046 C662     		str	r6, [r0, #44]
 553:/home/phong/Documents/thesis/stm32f4/stm-idf/components/stm32f4xx_hal_driver/stm32f4xx_hal_i2s_ex.c ****   /* Check the Data format: When a 16-bit data frame or a 16-bit data frame extended
 1233              		.loc 1 553 0 discriminator 2
 1234 0048 0268     		ldr	r2, [r0]
 1235 004a D269     		ldr	r2, [r2, #28]
 1236 004c 02F00702 		and	r2, r2, #7
 1237              	.LVL101:
 558:/home/phong/Documents/thesis/stm32f4/stm-idf/components/stm32f4xx_hal_driver/stm32f4xx_hal_i2s_ex.c ****   {
 1238              		.loc 1 558 0 discriminator 2
 1239 0050 032A     		cmp	r2, #3
 1240 0052 5AD0     		beq	.L142
 558:/home/phong/Documents/thesis/stm32f4/stm-idf/components/stm32f4xx_hal_driver/stm32f4xx_hal_i2s_ex.c ****   {
 1241              		.loc 1 558 0 is_stmt 0 discriminator 1
 1242 0054 052A     		cmp	r2, #5
 1243 0056 58D0     		beq	.L142
 567:/home/phong/Documents/thesis/stm32f4/stm-idf/components/stm32f4xx_hal_driver/stm32f4xx_hal_i2s_ex.c ****     hi2s->TxXferCount = Size;
 1244              		.loc 1 567 0 is_stmt 1
 1245 0058 0385     		strh	r3, [r0, #40]	@ movhi
 568:/home/phong/Documents/thesis/stm32f4/stm-idf/components/stm32f4xx_hal_driver/stm32f4xx_hal_i2s_ex.c ****     hi2s->RxXferSize  = Size;
 1246              		.loc 1 568 0
 1247 005a 4385     		strh	r3, [r0, #42]	@ movhi
 569:/home/phong/Documents/thesis/stm32f4/stm-idf/components/stm32f4xx_hal_driver/stm32f4xx_hal_i2s_ex.c ****     hi2s->RxXferCount = Size;
 1248              		.loc 1 569 0
 1249 005c 0386     		strh	r3, [r0, #48]	@ movhi
 570:/home/phong/Documents/thesis/stm32f4/stm-idf/components/stm32f4xx_hal_driver/stm32f4xx_hal_i2s_ex.c ****   }
 1250              		.loc 1 570 0
 1251 005e 4386     		strh	r3, [r0, #50]	@ movhi
 1252              	.LVL102:
 1253              	.L144:
 573:/home/phong/Documents/thesis/stm32f4/stm-idf/components/stm32f4xx_hal_driver/stm32f4xx_hal_i2s_ex.c ****   hi2s->State     = HAL_I2S_STATE_BUSY_TX_RX;
 1254              		.loc 1 573 0
 1255 0060 0023     		movs	r3, #0
 1256 0062 6364     		str	r3, [r4, #68]
 574:/home/phong/Documents/thesis/stm32f4/stm-idf/components/stm32f4xx_hal_driver/stm32f4xx_hal_i2s_ex.c **** 
 1257              		.loc 1 574 0
 1258 0064 0523     		movs	r3, #5
 1259 0066 84F84130 		strb	r3, [r4, #65]
 577:/home/phong/Documents/thesis/stm32f4/stm-idf/components/stm32f4xx_hal_driver/stm32f4xx_hal_i2s_ex.c **** 
 1260              		.loc 1 577 0
 1261 006a E36B     		ldr	r3, [r4, #60]
 1262 006c 5A49     		ldr	r1, .L176
 1263              	.LVL103:
 1264 006e 1964     		str	r1, [r3, #64]
 580:/home/phong/Documents/thesis/stm32f4/stm-idf/components/stm32f4xx_hal_driver/stm32f4xx_hal_i2s_ex.c **** 
 1265              		.loc 1 580 0
 1266 0070 E36B     		ldr	r3, [r4, #60]
 1267 0072 5A4A     		ldr	r2, .L176+4
 1268              	.LVL104:
 1269 0074 DA63     		str	r2, [r3, #60]
 583:/home/phong/Documents/thesis/stm32f4/stm-idf/components/stm32f4xx_hal_driver/stm32f4xx_hal_i2s_ex.c **** 
 1270              		.loc 1 583 0
 1271 0076 E06B     		ldr	r0, [r4, #60]
 1272              	.LVL105:
 1273 0078 594B     		ldr	r3, .L176+8
ARM GAS  /tmp/ccyFKXfi.s 			page 47


 1274 007a C364     		str	r3, [r0, #76]
 586:/home/phong/Documents/thesis/stm32f4/stm-idf/components/stm32f4xx_hal_driver/stm32f4xx_hal_i2s_ex.c **** 
 1275              		.loc 1 586 0
 1276 007c A06B     		ldr	r0, [r4, #56]
 1277 007e 0164     		str	r1, [r0, #64]
 589:/home/phong/Documents/thesis/stm32f4/stm-idf/components/stm32f4xx_hal_driver/stm32f4xx_hal_i2s_ex.c **** 
 1278              		.loc 1 589 0
 1279 0080 A16B     		ldr	r1, [r4, #56]
 1280 0082 CA63     		str	r2, [r1, #60]
 592:/home/phong/Documents/thesis/stm32f4/stm-idf/components/stm32f4xx_hal_driver/stm32f4xx_hal_i2s_ex.c **** 
 1281              		.loc 1 592 0
 1282 0084 A26B     		ldr	r2, [r4, #56]
 1283 0086 D364     		str	r3, [r2, #76]
 594:/home/phong/Documents/thesis/stm32f4/stm-idf/components/stm32f4xx_hal_driver/stm32f4xx_hal_i2s_ex.c ****   /* Check if the I2S_MODE_MASTER_TX or I2S_MODE_SLAVE_TX Mode is selected */
 1284              		.loc 1 594 0
 1285 0088 2268     		ldr	r2, [r4]
 1286 008a D369     		ldr	r3, [r2, #28]
 1287 008c 03F44073 		and	r3, r3, #768
 1288              	.LVL106:
 596:/home/phong/Documents/thesis/stm32f4/stm-idf/components/stm32f4xx_hal_driver/stm32f4xx_hal_i2s_ex.c ****   {
 1289              		.loc 1 596 0
 1290 0090 B3F5007F 		cmp	r3, #512
 1291 0094 01D0     		beq	.L145
 596:/home/phong/Documents/thesis/stm32f4/stm-idf/components/stm32f4xx_hal_driver/stm32f4xx_hal_i2s_ex.c ****   {
 1292              		.loc 1 596 0 is_stmt 0 discriminator 1
 1293 0096 002B     		cmp	r3, #0
 1294 0098 45D1     		bne	.L146
 1295              	.L145:
 1296              	.LVL107:
 600:/home/phong/Documents/thesis/stm32f4/stm-idf/components/stm32f4xx_hal_driver/stm32f4xx_hal_i2s_ex.c **** 
 1297              		.loc 1 600 0 is_stmt 1
 1298 009a E06B     		ldr	r0, [r4, #60]
 1299 009c 514B     		ldr	r3, .L176+12
 1300              	.LVL108:
 1301 009e 9A42     		cmp	r2, r3
 1302 00a0 3AD0     		beq	.L169
 1303 00a2 4FF04021 		mov	r1, #1073758208
 1304              	.L147:
 600:/home/phong/Documents/thesis/stm32f4/stm-idf/components/stm32f4xx_hal_driver/stm32f4xx_hal_i2s_ex.c **** 
 1305              		.loc 1 600 0 is_stmt 0 discriminator 4
 1306 00a6 238E     		ldrh	r3, [r4, #48]
 1307 00a8 9BB2     		uxth	r3, r3
 1308 00aa 3246     		mov	r2, r6
 1309 00ac 0C31     		adds	r1, r1, #12
 1310 00ae FFF7FEFF 		bl	HAL_DMA_Start_IT
 1311              	.LVL109:
 603:/home/phong/Documents/thesis/stm32f4/stm-idf/components/stm32f4xx_hal_driver/stm32f4xx_hal_i2s_ex.c **** 
 1312              		.loc 1 603 0 is_stmt 1 discriminator 4
 1313 00b2 2268     		ldr	r2, [r4]
 1314 00b4 4B4B     		ldr	r3, .L176+12
 1315 00b6 9A42     		cmp	r2, r3
 1316 00b8 30D0     		beq	.L170
 603:/home/phong/Documents/thesis/stm32f4/stm-idf/components/stm32f4xx_hal_driver/stm32f4xx_hal_i2s_ex.c **** 
 1317              		.loc 1 603 0 is_stmt 0
 1318 00ba 4FF04022 		mov	r2, #1073758208
 1319              	.L148:
 603:/home/phong/Documents/thesis/stm32f4/stm-idf/components/stm32f4xx_hal_driver/stm32f4xx_hal_i2s_ex.c **** 
ARM GAS  /tmp/ccyFKXfi.s 			page 48


 1320              		.loc 1 603 0 discriminator 4
 1321 00be 5368     		ldr	r3, [r2, #4]
 1322 00c0 43F00103 		orr	r3, r3, #1
 1323 00c4 5360     		str	r3, [r2, #4]
 1324              	.LVL110:
 607:/home/phong/Documents/thesis/stm32f4/stm-idf/components/stm32f4xx_hal_driver/stm32f4xx_hal_i2s_ex.c **** 
 1325              		.loc 1 607 0 is_stmt 1 discriminator 4
 1326 00c6 2268     		ldr	r2, [r4]
 1327 00c8 238D     		ldrh	r3, [r4, #40]
 1328 00ca 9BB2     		uxth	r3, r3
 1329 00cc 0C32     		adds	r2, r2, #12
 1330 00ce 2946     		mov	r1, r5
 1331 00d0 A06B     		ldr	r0, [r4, #56]
 1332 00d2 FFF7FEFF 		bl	HAL_DMA_Start_IT
 1333              	.LVL111:
 610:/home/phong/Documents/thesis/stm32f4/stm-idf/components/stm32f4xx_hal_driver/stm32f4xx_hal_i2s_ex.c **** 
 1334              		.loc 1 610 0 discriminator 4
 1335 00d6 2268     		ldr	r2, [r4]
 1336 00d8 5368     		ldr	r3, [r2, #4]
 1337 00da 43F00203 		orr	r3, r3, #2
 1338 00de 5360     		str	r3, [r2, #4]
 613:/home/phong/Documents/thesis/stm32f4/stm-idf/components/stm32f4xx_hal_driver/stm32f4xx_hal_i2s_ex.c ****     {
 1339              		.loc 1 613 0 discriminator 4
 1340 00e0 2368     		ldr	r3, [r4]
 1341 00e2 DA69     		ldr	r2, [r3, #28]
 1342 00e4 12F4806F 		tst	r2, #1024
 1343 00e8 6AD1     		bne	.L161
 616:/home/phong/Documents/thesis/stm32f4/stm-idf/components/stm32f4xx_hal_driver/stm32f4xx_hal_i2s_ex.c **** 
 1344              		.loc 1 616 0
 1345 00ea 3E4A     		ldr	r2, .L176+12
 1346 00ec 9342     		cmp	r3, r2
 1347 00ee 17D0     		beq	.L171
 1348 00f0 4FF04022 		mov	r2, #1073758208
 1349              	.L149:
 616:/home/phong/Documents/thesis/stm32f4/stm-idf/components/stm32f4xx_hal_driver/stm32f4xx_hal_i2s_ex.c **** 
 1350              		.loc 1 616 0 is_stmt 0 discriminator 4
 1351 00f4 D369     		ldr	r3, [r2, #28]
 1352 00f6 43F48063 		orr	r3, r3, #1024
 1353 00fa D361     		str	r3, [r2, #28]
 619:/home/phong/Documents/thesis/stm32f4/stm-idf/components/stm32f4xx_hal_driver/stm32f4xx_hal_i2s_ex.c ****     }
 1354              		.loc 1 619 0 is_stmt 1 discriminator 4
 1355 00fc 2268     		ldr	r2, [r4]
 1356 00fe D369     		ldr	r3, [r2, #28]
 1357 0100 43F48063 		orr	r3, r3, #1024
 1358 0104 D361     		str	r3, [r2, #28]
 534:/home/phong/Documents/thesis/stm32f4/stm-idf/components/stm32f4xx_hal_driver/stm32f4xx_hal_i2s_ex.c **** 
 1359              		.loc 1 534 0 discriminator 4
 1360 0106 0020     		movs	r0, #0
 1361 0108 84E7     		b	.L140
 1362              	.LVL112:
 1363              	.L142:
 560:/home/phong/Documents/thesis/stm32f4/stm-idf/components/stm32f4xx_hal_driver/stm32f4xx_hal_i2s_ex.c ****     hi2s->TxXferCount = (Size << 1U);
 1364              		.loc 1 560 0
 1365 010a 5B00     		lsls	r3, r3, #1
 1366              	.LVL113:
 1367 010c 9BB2     		uxth	r3, r3
 1368 010e 2385     		strh	r3, [r4, #40]	@ movhi
ARM GAS  /tmp/ccyFKXfi.s 			page 49


 561:/home/phong/Documents/thesis/stm32f4/stm-idf/components/stm32f4xx_hal_driver/stm32f4xx_hal_i2s_ex.c ****     hi2s->RxXferSize  = (Size << 1U);
 1369              		.loc 1 561 0
 1370 0110 6385     		strh	r3, [r4, #42]	@ movhi
 562:/home/phong/Documents/thesis/stm32f4/stm-idf/components/stm32f4xx_hal_driver/stm32f4xx_hal_i2s_ex.c ****     hi2s->RxXferCount = (Size << 1U);
 1371              		.loc 1 562 0
 1372 0112 2386     		strh	r3, [r4, #48]	@ movhi
 563:/home/phong/Documents/thesis/stm32f4/stm-idf/components/stm32f4xx_hal_driver/stm32f4xx_hal_i2s_ex.c ****   }
 1373              		.loc 1 563 0
 1374 0114 6386     		strh	r3, [r4, #50]	@ movhi
 1375 0116 A3E7     		b	.L144
 1376              	.LVL114:
 1377              	.L169:
 600:/home/phong/Documents/thesis/stm32f4/stm-idf/components/stm32f4xx_hal_driver/stm32f4xx_hal_i2s_ex.c **** 
 1378              		.loc 1 600 0
 1379 0118 3349     		ldr	r1, .L176+16
 1380 011a C4E7     		b	.L147
 1381              	.L170:
 603:/home/phong/Documents/thesis/stm32f4/stm-idf/components/stm32f4xx_hal_driver/stm32f4xx_hal_i2s_ex.c **** 
 1382              		.loc 1 603 0
 1383 011c 324A     		ldr	r2, .L176+16
 1384 011e CEE7     		b	.L148
 1385              	.LVL115:
 1386              	.L171:
 616:/home/phong/Documents/thesis/stm32f4/stm-idf/components/stm32f4xx_hal_driver/stm32f4xx_hal_i2s_ex.c **** 
 1387              		.loc 1 616 0
 1388 0120 A2F58062 		sub	r2, r2, #1024
 1389 0124 E6E7     		b	.L149
 1390              	.LVL116:
 1391              	.L146:
 625:/home/phong/Documents/thesis/stm32f4/stm-idf/components/stm32f4xx_hal_driver/stm32f4xx_hal_i2s_ex.c ****     {
 1392              		.loc 1 625 0
 1393 0126 D369     		ldr	r3, [r2, #28]
 1394              	.LVL117:
 1395 0128 03F44073 		and	r3, r3, #768
 1396 012c B3F5407F 		cmp	r3, #768
 1397 0130 37D0     		beq	.L172
 1398              	.L150:
 1399              	.LVL118:
 633:/home/phong/Documents/thesis/stm32f4/stm-idf/components/stm32f4xx_hal_driver/stm32f4xx_hal_i2s_ex.c **** 
 1400              		.loc 1 633 0
 1401 0132 A06B     		ldr	r0, [r4, #56]
 1402 0134 2B4B     		ldr	r3, .L176+12
 1403 0136 9A42     		cmp	r2, r3
 1404 0138 3BD0     		beq	.L173
 1405 013a 4FF04022 		mov	r2, #1073758208
 1406              	.L151:
 633:/home/phong/Documents/thesis/stm32f4/stm-idf/components/stm32f4xx_hal_driver/stm32f4xx_hal_i2s_ex.c **** 
 1407              		.loc 1 633 0 is_stmt 0 discriminator 4
 1408 013e 238D     		ldrh	r3, [r4, #40]
 1409 0140 9BB2     		uxth	r3, r3
 1410 0142 0C32     		adds	r2, r2, #12
 1411 0144 2946     		mov	r1, r5
 1412 0146 FFF7FEFF 		bl	HAL_DMA_Start_IT
 1413              	.LVL119:
 636:/home/phong/Documents/thesis/stm32f4/stm-idf/components/stm32f4xx_hal_driver/stm32f4xx_hal_i2s_ex.c **** 
 1414              		.loc 1 636 0 is_stmt 1 discriminator 4
 1415 014a 2268     		ldr	r2, [r4]
ARM GAS  /tmp/ccyFKXfi.s 			page 50


 1416 014c 254B     		ldr	r3, .L176+12
 1417 014e 9A42     		cmp	r2, r3
 1418 0150 31D0     		beq	.L174
 636:/home/phong/Documents/thesis/stm32f4/stm-idf/components/stm32f4xx_hal_driver/stm32f4xx_hal_i2s_ex.c **** 
 1419              		.loc 1 636 0 is_stmt 0
 1420 0152 4FF04022 		mov	r2, #1073758208
 1421              	.L152:
 636:/home/phong/Documents/thesis/stm32f4/stm-idf/components/stm32f4xx_hal_driver/stm32f4xx_hal_i2s_ex.c **** 
 1422              		.loc 1 636 0 discriminator 4
 1423 0156 5368     		ldr	r3, [r2, #4]
 1424 0158 43F00203 		orr	r3, r3, #2
 1425 015c 5360     		str	r3, [r2, #4]
 1426              	.LVL120:
 640:/home/phong/Documents/thesis/stm32f4/stm-idf/components/stm32f4xx_hal_driver/stm32f4xx_hal_i2s_ex.c **** 
 1427              		.loc 1 640 0 is_stmt 1 discriminator 4
 1428 015e 2168     		ldr	r1, [r4]
 1429 0160 238E     		ldrh	r3, [r4, #48]
 1430 0162 9BB2     		uxth	r3, r3
 1431 0164 3246     		mov	r2, r6
 1432 0166 0C31     		adds	r1, r1, #12
 1433 0168 E06B     		ldr	r0, [r4, #60]
 1434 016a FFF7FEFF 		bl	HAL_DMA_Start_IT
 1435              	.LVL121:
 643:/home/phong/Documents/thesis/stm32f4/stm-idf/components/stm32f4xx_hal_driver/stm32f4xx_hal_i2s_ex.c **** 
 1436              		.loc 1 643 0 discriminator 4
 1437 016e 2268     		ldr	r2, [r4]
 1438 0170 5368     		ldr	r3, [r2, #4]
 1439 0172 43F00103 		orr	r3, r3, #1
 1440 0176 5360     		str	r3, [r2, #4]
 646:/home/phong/Documents/thesis/stm32f4/stm-idf/components/stm32f4xx_hal_driver/stm32f4xx_hal_i2s_ex.c ****     {
 1441              		.loc 1 646 0 discriminator 4
 1442 0178 2368     		ldr	r3, [r4]
 1443 017a DA69     		ldr	r2, [r3, #28]
 1444 017c 12F4806F 		tst	r2, #1024
 1445 0180 20D1     		bne	.L165
 649:/home/phong/Documents/thesis/stm32f4/stm-idf/components/stm32f4xx_hal_driver/stm32f4xx_hal_i2s_ex.c ****       /* Enable I2S peripheral before the I2Sext */
 1446              		.loc 1 649 0
 1447 0182 184A     		ldr	r2, .L176+12
 1448 0184 9342     		cmp	r3, r2
 1449 0186 18D0     		beq	.L175
 1450 0188 4FF04022 		mov	r2, #1073758208
 1451              	.L153:
 649:/home/phong/Documents/thesis/stm32f4/stm-idf/components/stm32f4xx_hal_driver/stm32f4xx_hal_i2s_ex.c ****       /* Enable I2S peripheral before the I2Sext */
 1452              		.loc 1 649 0 is_stmt 0 discriminator 4
 1453 018c D369     		ldr	r3, [r2, #28]
 1454 018e 43F48063 		orr	r3, r3, #1024
 1455 0192 D361     		str	r3, [r2, #28]
 651:/home/phong/Documents/thesis/stm32f4/stm-idf/components/stm32f4xx_hal_driver/stm32f4xx_hal_i2s_ex.c ****     }
 1456              		.loc 1 651 0 is_stmt 1 discriminator 4
 1457 0194 2268     		ldr	r2, [r4]
 1458 0196 D369     		ldr	r3, [r2, #28]
 1459 0198 43F48063 		orr	r3, r3, #1024
 1460 019c D361     		str	r3, [r2, #28]
 534:/home/phong/Documents/thesis/stm32f4/stm-idf/components/stm32f4xx_hal_driver/stm32f4xx_hal_i2s_ex.c **** 
 1461              		.loc 1 534 0 discriminator 4
 1462 019e 0020     		movs	r0, #0
 1463 01a0 38E7     		b	.L140
ARM GAS  /tmp/ccyFKXfi.s 			page 51


 1464              	.LVL122:
 1465              	.L172:
 1466              	.LBB9:
 629:/home/phong/Documents/thesis/stm32f4/stm-idf/components/stm32f4xx_hal_driver/stm32f4xx_hal_i2s_ex.c ****     }
 1467              		.loc 1 629 0
 1468 01a2 0023     		movs	r3, #0
 1469 01a4 0193     		str	r3, [sp, #4]
 1470 01a6 D368     		ldr	r3, [r2, #12]
 1471 01a8 0193     		str	r3, [sp, #4]
 1472 01aa 9368     		ldr	r3, [r2, #8]
 1473 01ac 0193     		str	r3, [sp, #4]
 1474 01ae 019B     		ldr	r3, [sp, #4]
 1475 01b0 BFE7     		b	.L150
 1476              	.LVL123:
 1477              	.L173:
 1478              	.LBE9:
 633:/home/phong/Documents/thesis/stm32f4/stm-idf/components/stm32f4xx_hal_driver/stm32f4xx_hal_i2s_ex.c **** 
 1479              		.loc 1 633 0
 1480 01b2 0D4A     		ldr	r2, .L176+16
 1481 01b4 C3E7     		b	.L151
 1482              	.L174:
 636:/home/phong/Documents/thesis/stm32f4/stm-idf/components/stm32f4xx_hal_driver/stm32f4xx_hal_i2s_ex.c **** 
 1483              		.loc 1 636 0
 1484 01b6 0C4A     		ldr	r2, .L176+16
 1485 01b8 CDE7     		b	.L152
 1486              	.LVL124:
 1487              	.L175:
 649:/home/phong/Documents/thesis/stm32f4/stm-idf/components/stm32f4xx_hal_driver/stm32f4xx_hal_i2s_ex.c ****       /* Enable I2S peripheral before the I2Sext */
 1488              		.loc 1 649 0
 1489 01ba A2F58062 		sub	r2, r2, #1024
 1490 01be E5E7     		b	.L153
 1491              	.LVL125:
 1492              	.L161:
 534:/home/phong/Documents/thesis/stm32f4/stm-idf/components/stm32f4xx_hal_driver/stm32f4xx_hal_i2s_ex.c **** 
 1493              		.loc 1 534 0
 1494 01c0 0020     		movs	r0, #0
 1495 01c2 27E7     		b	.L140
 1496              	.LVL126:
 1497              	.L165:
 1498 01c4 0020     		movs	r0, #0
 1499 01c6 25E7     		b	.L140
 1500              	.LVL127:
 1501              	.L155:
 544:/home/phong/Documents/thesis/stm32f4/stm-idf/components/stm32f4xx_hal_driver/stm32f4xx_hal_i2s_ex.c ****   }
 1502              		.loc 1 544 0
 1503 01c8 0120     		movs	r0, #1
 1504              	.LVL128:
 1505 01ca 26E7     		b	.L141
 1506              	.LVL129:
 1507              	.L156:
 1508 01cc 0120     		movs	r0, #1
 1509              	.LVL130:
 1510 01ce 24E7     		b	.L141
 1511              	.LVL131:
 1512              	.L157:
 1513 01d0 0120     		movs	r0, #1
 1514              	.LVL132:
ARM GAS  /tmp/ccyFKXfi.s 			page 52


 1515 01d2 22E7     		b	.L141
 1516              	.LVL133:
 1517              	.L158:
 548:/home/phong/Documents/thesis/stm32f4/stm-idf/components/stm32f4xx_hal_driver/stm32f4xx_hal_i2s_ex.c **** 
 1518              		.loc 1 548 0
 1519 01d4 0220     		movs	r0, #2
 1520              	.LVL134:
 1521 01d6 20E7     		b	.L141
 1522              	.L177:
 1523              		.align	2
 1524              	.L176:
 1525 01d8 00000000 		.word	I2SEx_TxRxDMAHalfCplt
 1526 01dc 00000000 		.word	I2SEx_TxRxDMACplt
 1527 01e0 00000000 		.word	I2SEx_TxRxDMAError
 1528 01e4 00380040 		.word	1073756160
 1529 01e8 00340040 		.word	1073755136
 1530              		.cfi_endproc
 1531              	.LFE132:
 1533              		.section	.text.HAL_I2SEx_TxRxHalfCpltCallback,"ax",%progbits
 1534              		.align	1
 1535              		.weak	HAL_I2SEx_TxRxHalfCpltCallback
 1536              		.syntax unified
 1537              		.thumb
 1538              		.thumb_func
 1539              		.fpu fpv4-sp-d16
 1541              	HAL_I2SEx_TxRxHalfCpltCallback:
 1542              	.LFB134:
 812:/home/phong/Documents/thesis/stm32f4/stm-idf/components/stm32f4xx_hal_driver/stm32f4xx_hal_i2s_ex.c ****   /* Prevent unused argument(s) compilation warning */
 1543              		.loc 1 812 0
 1544              		.cfi_startproc
 1545              		@ args = 0, pretend = 0, frame = 0
 1546              		@ frame_needed = 0, uses_anonymous_args = 0
 1547              		@ link register save eliminated.
 1548              	.LVL135:
 1549 0000 7047     		bx	lr
 1550              		.cfi_endproc
 1551              	.LFE134:
 1553              		.section	.text.I2SEx_TxRxDMAHalfCplt,"ax",%progbits
 1554              		.align	1
 1555              		.syntax unified
 1556              		.thumb
 1557              		.thumb_func
 1558              		.fpu fpv4-sp-d16
 1560              	I2SEx_TxRxDMAHalfCplt:
 1561              	.LFB136:
 855:/home/phong/Documents/thesis/stm32f4/stm-idf/components/stm32f4xx_hal_driver/stm32f4xx_hal_i2s_ex.c ****   I2S_HandleTypeDef *hi2s = (I2S_HandleTypeDef *)((DMA_HandleTypeDef *)hdma)->Parent;
 1562              		.loc 1 855 0
 1563              		.cfi_startproc
 1564              		@ args = 0, pretend = 0, frame = 0
 1565              		@ frame_needed = 0, uses_anonymous_args = 0
 1566              	.LVL136:
 855:/home/phong/Documents/thesis/stm32f4/stm-idf/components/stm32f4xx_hal_driver/stm32f4xx_hal_i2s_ex.c ****   I2S_HandleTypeDef *hi2s = (I2S_HandleTypeDef *)((DMA_HandleTypeDef *)hdma)->Parent;
 1567              		.loc 1 855 0
 1568 0000 08B5     		push	{r3, lr}
 1569              	.LCFI13:
 1570              		.cfi_def_cfa_offset 8
 1571              		.cfi_offset 3, -8
ARM GAS  /tmp/ccyFKXfi.s 			page 53


 1572              		.cfi_offset 14, -4
 1573              	.LVL137:
 862:/home/phong/Documents/thesis/stm32f4/stm-idf/components/stm32f4xx_hal_driver/stm32f4xx_hal_i2s_ex.c **** #endif /* USE_HAL_I2S_REGISTER_CALLBACKS */
 1574              		.loc 1 862 0
 1575 0002 806B     		ldr	r0, [r0, #56]
 1576              	.LVL138:
 1577 0004 FFF7FEFF 		bl	HAL_I2SEx_TxRxHalfCpltCallback
 1578              	.LVL139:
 1579 0008 08BD     		pop	{r3, pc}
 1580              		.cfi_endproc
 1581              	.LFE136:
 1583              		.section	.text.HAL_I2SEx_TxRxCpltCallback,"ax",%progbits
 1584              		.align	1
 1585              		.weak	HAL_I2SEx_TxRxCpltCallback
 1586              		.syntax unified
 1587              		.thumb
 1588              		.thumb_func
 1589              		.fpu fpv4-sp-d16
 1591              	HAL_I2SEx_TxRxCpltCallback:
 1592              	.LFB135:
 827:/home/phong/Documents/thesis/stm32f4/stm-idf/components/stm32f4xx_hal_driver/stm32f4xx_hal_i2s_ex.c ****   /* Prevent unused argument(s) compilation warning */
 1593              		.loc 1 827 0
 1594              		.cfi_startproc
 1595              		@ args = 0, pretend = 0, frame = 0
 1596              		@ frame_needed = 0, uses_anonymous_args = 0
 1597              		@ link register save eliminated.
 1598              	.LVL140:
 1599 0000 7047     		bx	lr
 1600              		.cfi_endproc
 1601              	.LFE135:
 1603              		.section	.text.I2SEx_TxRxDMACplt,"ax",%progbits
 1604              		.align	1
 1605              		.syntax unified
 1606              		.thumb
 1607              		.thumb_func
 1608              		.fpu fpv4-sp-d16
 1610              	I2SEx_TxRxDMACplt:
 1611              	.LFB137:
 873:/home/phong/Documents/thesis/stm32f4/stm-idf/components/stm32f4xx_hal_driver/stm32f4xx_hal_i2s_ex.c ****   I2S_HandleTypeDef *hi2s = (I2S_HandleTypeDef *)((DMA_HandleTypeDef *)hdma)->Parent;
 1612              		.loc 1 873 0
 1613              		.cfi_startproc
 1614              		@ args = 0, pretend = 0, frame = 0
 1615              		@ frame_needed = 0, uses_anonymous_args = 0
 1616              	.LVL141:
 873:/home/phong/Documents/thesis/stm32f4/stm-idf/components/stm32f4xx_hal_driver/stm32f4xx_hal_i2s_ex.c ****   I2S_HandleTypeDef *hi2s = (I2S_HandleTypeDef *)((DMA_HandleTypeDef *)hdma)->Parent;
 1617              		.loc 1 873 0
 1618 0000 38B5     		push	{r3, r4, r5, lr}
 1619              	.LCFI14:
 1620              		.cfi_def_cfa_offset 16
 1621              		.cfi_offset 3, -16
 1622              		.cfi_offset 4, -12
 1623              		.cfi_offset 5, -8
 1624              		.cfi_offset 14, -4
 874:/home/phong/Documents/thesis/stm32f4/stm-idf/components/stm32f4xx_hal_driver/stm32f4xx_hal_i2s_ex.c **** 
 1625              		.loc 1 874 0
 1626 0002 856B     		ldr	r5, [r0, #56]
 1627              	.LVL142:
ARM GAS  /tmp/ccyFKXfi.s 			page 54


 877:/home/phong/Documents/thesis/stm32f4/stm-idf/components/stm32f4xx_hal_driver/stm32f4xx_hal_i2s_ex.c ****   {
 1628              		.loc 1 877 0
 1629 0004 C369     		ldr	r3, [r0, #28]
 1630 0006 33B9     		cbnz	r3, .L182
 1631 0008 0446     		mov	r4, r0
 879:/home/phong/Documents/thesis/stm32f4/stm-idf/components/stm32f4xx_hal_driver/stm32f4xx_hal_i2s_ex.c ****     {
 1632              		.loc 1 879 0
 1633 000a EB6B     		ldr	r3, [r5, #60]
 1634 000c 9842     		cmp	r0, r3
 1635 000e 03D0     		beq	.L196
 1636              	.LVL143:
 1637              	.L184:
 907:/home/phong/Documents/thesis/stm32f4/stm-idf/components/stm32f4xx_hal_driver/stm32f4xx_hal_i2s_ex.c ****     {
 1638              		.loc 1 907 0
 1639 0010 AB6B     		ldr	r3, [r5, #56]
 1640 0012 9C42     		cmp	r4, r3
 1641 0014 29D0     		beq	.L197
 1642              	.LVL144:
 1643              	.L182:
 1644 0016 38BD     		pop	{r3, r4, r5, pc}
 1645              	.LVL145:
 1646              	.L196:
 882:/home/phong/Documents/thesis/stm32f4/stm-idf/components/stm32f4xx_hal_driver/stm32f4xx_hal_i2s_ex.c ****           ((hi2s->Instance->I2SCFGR & SPI_I2SCFGR_I2SCFG) == I2S_MODE_SLAVE_TX))
 1647              		.loc 1 882 0
 1648 0018 2B68     		ldr	r3, [r5]
 1649 001a DA69     		ldr	r2, [r3, #28]
 1650 001c 02F44072 		and	r2, r2, #768
 1651 0020 B2F5007F 		cmp	r2, #512
 1652 0024 03D0     		beq	.L185
 883:/home/phong/Documents/thesis/stm32f4/stm-idf/components/stm32f4xx_hal_driver/stm32f4xx_hal_i2s_ex.c ****       {
 1653              		.loc 1 883 0 discriminator 1
 1654 0026 DA69     		ldr	r2, [r3, #28]
 882:/home/phong/Documents/thesis/stm32f4/stm-idf/components/stm32f4xx_hal_driver/stm32f4xx_hal_i2s_ex.c ****           ((hi2s->Instance->I2SCFGR & SPI_I2SCFGR_I2SCFG) == I2S_MODE_SLAVE_TX))
 1655              		.loc 1 882 0 discriminator 1
 1656 0028 12F4407F 		tst	r2, #768
 1657 002c 18D1     		bne	.L186
 1658              	.L185:
 885:/home/phong/Documents/thesis/stm32f4/stm-idf/components/stm32f4xx_hal_driver/stm32f4xx_hal_i2s_ex.c ****       }
 1659              		.loc 1 885 0
 1660 002e 234A     		ldr	r2, .L200
 1661 0030 9342     		cmp	r3, r2
 1662 0032 12D0     		beq	.L198
 1663 0034 4FF04022 		mov	r2, #1073758208
 1664              	.L187:
 885:/home/phong/Documents/thesis/stm32f4/stm-idf/components/stm32f4xx_hal_driver/stm32f4xx_hal_i2s_ex.c ****       }
 1665              		.loc 1 885 0 is_stmt 0 discriminator 4
 1666 0038 5368     		ldr	r3, [r2, #4]
 1667 003a 23F00103 		bic	r3, r3, #1
 1668 003e 5360     		str	r3, [r2, #4]
 1669              	.L188:
 892:/home/phong/Documents/thesis/stm32f4/stm-idf/components/stm32f4xx_hal_driver/stm32f4xx_hal_i2s_ex.c **** 
 1670              		.loc 1 892 0 is_stmt 1
 1671 0040 0023     		movs	r3, #0
 1672 0042 6B86     		strh	r3, [r5, #50]	@ movhi
 894:/home/phong/Documents/thesis/stm32f4/stm-idf/components/stm32f4xx_hal_driver/stm32f4xx_hal_i2s_ex.c ****       {
 1673              		.loc 1 894 0
 1674 0044 6B8D     		ldrh	r3, [r5, #42]
ARM GAS  /tmp/ccyFKXfi.s 			page 55


 1675 0046 9BB2     		uxth	r3, r3
 1676 0048 002B     		cmp	r3, #0
 1677 004a E1D1     		bne	.L184
 896:/home/phong/Documents/thesis/stm32f4/stm-idf/components/stm32f4xx_hal_driver/stm32f4xx_hal_i2s_ex.c **** 
 1678              		.loc 1 896 0
 1679 004c 0123     		movs	r3, #1
 1680 004e 85F84130 		strb	r3, [r5, #65]
 902:/home/phong/Documents/thesis/stm32f4/stm-idf/components/stm32f4xx_hal_driver/stm32f4xx_hal_i2s_ex.c **** #endif /* USE_HAL_I2S_REGISTER_CALLBACKS */
 1681              		.loc 1 902 0
 1682 0052 2846     		mov	r0, r5
 1683              	.LVL146:
 1684 0054 FFF7FEFF 		bl	HAL_I2SEx_TxRxCpltCallback
 1685              	.LVL147:
 1686 0058 DAE7     		b	.L184
 1687              	.LVL148:
 1688              	.L198:
 885:/home/phong/Documents/thesis/stm32f4/stm-idf/components/stm32f4xx_hal_driver/stm32f4xx_hal_i2s_ex.c ****       }
 1689              		.loc 1 885 0
 1690 005a A2F58062 		sub	r2, r2, #1024
 1691 005e EBE7     		b	.L187
 1692              	.L186:
 889:/home/phong/Documents/thesis/stm32f4/stm-idf/components/stm32f4xx_hal_driver/stm32f4xx_hal_i2s_ex.c ****       }
 1693              		.loc 1 889 0
 1694 0060 5A68     		ldr	r2, [r3, #4]
 1695 0062 22F00102 		bic	r2, r2, #1
 1696 0066 5A60     		str	r2, [r3, #4]
 1697 0068 EAE7     		b	.L188
 1698              	.LVL149:
 1699              	.L197:
 910:/home/phong/Documents/thesis/stm32f4/stm-idf/components/stm32f4xx_hal_driver/stm32f4xx_hal_i2s_ex.c ****           ((hi2s->Instance->I2SCFGR & SPI_I2SCFGR_I2SCFG) == I2S_MODE_SLAVE_TX))
 1700              		.loc 1 910 0
 1701 006a 2B68     		ldr	r3, [r5]
 1702 006c DA69     		ldr	r2, [r3, #28]
 1703 006e 02F44072 		and	r2, r2, #768
 1704 0072 B2F5007F 		cmp	r2, #512
 1705 0076 03D0     		beq	.L189
 911:/home/phong/Documents/thesis/stm32f4/stm-idf/components/stm32f4xx_hal_driver/stm32f4xx_hal_i2s_ex.c ****       {
 1706              		.loc 1 911 0 discriminator 1
 1707 0078 DA69     		ldr	r2, [r3, #28]
 910:/home/phong/Documents/thesis/stm32f4/stm-idf/components/stm32f4xx_hal_driver/stm32f4xx_hal_i2s_ex.c ****           ((hi2s->Instance->I2SCFGR & SPI_I2SCFGR_I2SCFG) == I2S_MODE_SLAVE_TX))
 1708              		.loc 1 910 0 discriminator 1
 1709 007a 12F4407F 		tst	r2, #768
 1710 007e 10D1     		bne	.L190
 1711              	.L189:
 913:/home/phong/Documents/thesis/stm32f4/stm-idf/components/stm32f4xx_hal_driver/stm32f4xx_hal_i2s_ex.c ****       }
 1712              		.loc 1 913 0
 1713 0080 5A68     		ldr	r2, [r3, #4]
 1714 0082 22F00202 		bic	r2, r2, #2
 1715 0086 5A60     		str	r2, [r3, #4]
 1716              	.L191:
 920:/home/phong/Documents/thesis/stm32f4/stm-idf/components/stm32f4xx_hal_driver/stm32f4xx_hal_i2s_ex.c **** 
 1717              		.loc 1 920 0
 1718 0088 0023     		movs	r3, #0
 1719 008a 6B85     		strh	r3, [r5, #42]	@ movhi
 922:/home/phong/Documents/thesis/stm32f4/stm-idf/components/stm32f4xx_hal_driver/stm32f4xx_hal_i2s_ex.c ****       {
 1720              		.loc 1 922 0
 1721 008c 6B8E     		ldrh	r3, [r5, #50]
ARM GAS  /tmp/ccyFKXfi.s 			page 56


 1722 008e 9BB2     		uxth	r3, r3
 1723 0090 002B     		cmp	r3, #0
 1724 0092 C0D1     		bne	.L182
 924:/home/phong/Documents/thesis/stm32f4/stm-idf/components/stm32f4xx_hal_driver/stm32f4xx_hal_i2s_ex.c **** 
 1725              		.loc 1 924 0
 1726 0094 0123     		movs	r3, #1
 1727 0096 85F84130 		strb	r3, [r5, #65]
 930:/home/phong/Documents/thesis/stm32f4/stm-idf/components/stm32f4xx_hal_driver/stm32f4xx_hal_i2s_ex.c **** #endif /* USE_HAL_I2S_REGISTER_CALLBACKS */
 1728              		.loc 1 930 0
 1729 009a 2846     		mov	r0, r5
 1730 009c FFF7FEFF 		bl	HAL_I2SEx_TxRxCpltCallback
 1731              	.LVL150:
 935:/home/phong/Documents/thesis/stm32f4/stm-idf/components/stm32f4xx_hal_driver/stm32f4xx_hal_i2s_ex.c **** 
 1732              		.loc 1 935 0
 1733 00a0 B9E7     		b	.L182
 1734              	.L190:
 917:/home/phong/Documents/thesis/stm32f4/stm-idf/components/stm32f4xx_hal_driver/stm32f4xx_hal_i2s_ex.c ****       }
 1735              		.loc 1 917 0
 1736 00a2 064A     		ldr	r2, .L200
 1737 00a4 9342     		cmp	r3, r2
 1738 00a6 06D0     		beq	.L199
 1739 00a8 4FF04022 		mov	r2, #1073758208
 1740              	.L192:
 917:/home/phong/Documents/thesis/stm32f4/stm-idf/components/stm32f4xx_hal_driver/stm32f4xx_hal_i2s_ex.c ****       }
 1741              		.loc 1 917 0 is_stmt 0 discriminator 4
 1742 00ac 5368     		ldr	r3, [r2, #4]
 1743 00ae 23F00203 		bic	r3, r3, #2
 1744 00b2 5360     		str	r3, [r2, #4]
 1745 00b4 E8E7     		b	.L191
 1746              	.L199:
 917:/home/phong/Documents/thesis/stm32f4/stm-idf/components/stm32f4xx_hal_driver/stm32f4xx_hal_i2s_ex.c ****       }
 1747              		.loc 1 917 0
 1748 00b6 A2F58062 		sub	r2, r2, #1024
 1749 00ba F7E7     		b	.L192
 1750              	.L201:
 1751              		.align	2
 1752              	.L200:
 1753 00bc 00380040 		.word	1073756160
 1754              		.cfi_endproc
 1755              	.LFE137:
 1757              		.section	.text.I2SEx_TxISR_I2S,"ax",%progbits
 1758              		.align	1
 1759              		.syntax unified
 1760              		.thumb
 1761              		.thumb_func
 1762              		.fpu fpv4-sp-d16
 1764              	I2SEx_TxISR_I2S:
 1765              	.LFB139:
 971:/home/phong/Documents/thesis/stm32f4/stm-idf/components/stm32f4xx_hal_driver/stm32f4xx_hal_i2s_ex.c ****   /* Write Data on DR register */
 1766              		.loc 1 971 0 is_stmt 1
 1767              		.cfi_startproc
 1768              		@ args = 0, pretend = 0, frame = 0
 1769              		@ frame_needed = 0, uses_anonymous_args = 0
 1770              	.LVL151:
 1771 0000 08B5     		push	{r3, lr}
 1772              	.LCFI15:
 1773              		.cfi_def_cfa_offset 8
ARM GAS  /tmp/ccyFKXfi.s 			page 57


 1774              		.cfi_offset 3, -8
 1775              		.cfi_offset 14, -4
 973:/home/phong/Documents/thesis/stm32f4/stm-idf/components/stm32f4xx_hal_driver/stm32f4xx_hal_i2s_ex.c ****   hi2s->TxXferCount--;
 1776              		.loc 1 973 0
 1777 0002 0268     		ldr	r2, [r0]
 1778 0004 436A     		ldr	r3, [r0, #36]
 1779 0006 991C     		adds	r1, r3, #2
 1780 0008 4162     		str	r1, [r0, #36]
 1781 000a 1B88     		ldrh	r3, [r3]
 1782 000c D360     		str	r3, [r2, #12]
 974:/home/phong/Documents/thesis/stm32f4/stm-idf/components/stm32f4xx_hal_driver/stm32f4xx_hal_i2s_ex.c **** 
 1783              		.loc 1 974 0
 1784 000e 438D     		ldrh	r3, [r0, #42]
 1785 0010 9BB2     		uxth	r3, r3
 1786 0012 013B     		subs	r3, r3, #1
 1787 0014 9BB2     		uxth	r3, r3
 1788 0016 4385     		strh	r3, [r0, #42]	@ movhi
 976:/home/phong/Documents/thesis/stm32f4/stm-idf/components/stm32f4xx_hal_driver/stm32f4xx_hal_i2s_ex.c ****   {
 1789              		.loc 1 976 0
 1790 0018 438D     		ldrh	r3, [r0, #42]
 1791 001a 9BB2     		uxth	r3, r3
 1792 001c 3BB9     		cbnz	r3, .L202
 979:/home/phong/Documents/thesis/stm32f4/stm-idf/components/stm32f4xx_hal_driver/stm32f4xx_hal_i2s_ex.c **** 
 1793              		.loc 1 979 0
 1794 001e 0268     		ldr	r2, [r0]
 1795 0020 5368     		ldr	r3, [r2, #4]
 1796 0022 23F0A003 		bic	r3, r3, #160
 1797 0026 5360     		str	r3, [r2, #4]
 981:/home/phong/Documents/thesis/stm32f4/stm-idf/components/stm32f4xx_hal_driver/stm32f4xx_hal_i2s_ex.c ****     {
 1798              		.loc 1 981 0
 1799 0028 438E     		ldrh	r3, [r0, #50]
 1800 002a 9BB2     		uxth	r3, r3
 1801 002c 03B1     		cbz	r3, .L205
 1802              	.LVL152:
 1803              	.L202:
 1804 002e 08BD     		pop	{r3, pc}
 1805              	.LVL153:
 1806              	.L205:
 983:/home/phong/Documents/thesis/stm32f4/stm-idf/components/stm32f4xx_hal_driver/stm32f4xx_hal_i2s_ex.c ****       /* Call user TxRx complete callback */
 1807              		.loc 1 983 0
 1808 0030 0123     		movs	r3, #1
 1809 0032 80F84130 		strb	r3, [r0, #65]
 988:/home/phong/Documents/thesis/stm32f4/stm-idf/components/stm32f4xx_hal_driver/stm32f4xx_hal_i2s_ex.c **** #endif /* USE_HAL_I2S_REGISTER_CALLBACKS */
 1810              		.loc 1 988 0
 1811 0036 FFF7FEFF 		bl	HAL_I2SEx_TxRxCpltCallback
 1812              	.LVL154:
 992:/home/phong/Documents/thesis/stm32f4/stm-idf/components/stm32f4xx_hal_driver/stm32f4xx_hal_i2s_ex.c **** 
 1813              		.loc 1 992 0
 1814 003a F8E7     		b	.L202
 1815              		.cfi_endproc
 1816              	.LFE139:
 1818              		.section	.text.I2SEx_RxISR_I2SExt,"ax",%progbits
 1819              		.align	1
 1820              		.syntax unified
 1821              		.thumb
 1822              		.thumb_func
 1823              		.fpu fpv4-sp-d16
ARM GAS  /tmp/ccyFKXfi.s 			page 58


 1825              	I2SEx_RxISR_I2SExt:
 1826              	.LFB142:
1058:/home/phong/Documents/thesis/stm32f4/stm-idf/components/stm32f4xx_hal_driver/stm32f4xx_hal_i2s_ex.c ****   /* Read Data from DR register */
 1827              		.loc 1 1058 0
 1828              		.cfi_startproc
 1829              		@ args = 0, pretend = 0, frame = 0
 1830              		@ frame_needed = 0, uses_anonymous_args = 0
 1831              	.LVL155:
 1832 0000 08B5     		push	{r3, lr}
 1833              	.LCFI16:
 1834              		.cfi_def_cfa_offset 8
 1835              		.cfi_offset 3, -8
 1836              		.cfi_offset 14, -4
1060:/home/phong/Documents/thesis/stm32f4/stm-idf/components/stm32f4xx_hal_driver/stm32f4xx_hal_i2s_ex.c ****   hi2s->RxXferCount--;
 1837              		.loc 1 1060 0
 1838 0002 C36A     		ldr	r3, [r0, #44]
 1839 0004 9A1C     		adds	r2, r3, #2
 1840 0006 C262     		str	r2, [r0, #44]
 1841 0008 0168     		ldr	r1, [r0]
 1842 000a 144A     		ldr	r2, .L216
 1843 000c 9142     		cmp	r1, r2
 1844 000e 19D0     		beq	.L213
 1845 0010 4FF04022 		mov	r2, #1073758208
 1846              	.L207:
1060:/home/phong/Documents/thesis/stm32f4/stm-idf/components/stm32f4xx_hal_driver/stm32f4xx_hal_i2s_ex.c ****   hi2s->RxXferCount--;
 1847              		.loc 1 1060 0 is_stmt 0 discriminator 4
 1848 0014 D268     		ldr	r2, [r2, #12]
 1849 0016 1A80     		strh	r2, [r3]	@ movhi
1061:/home/phong/Documents/thesis/stm32f4/stm-idf/components/stm32f4xx_hal_driver/stm32f4xx_hal_i2s_ex.c **** 
 1850              		.loc 1 1061 0 is_stmt 1 discriminator 4
 1851 0018 438E     		ldrh	r3, [r0, #50]
 1852 001a 9BB2     		uxth	r3, r3
 1853 001c 013B     		subs	r3, r3, #1
 1854 001e 9BB2     		uxth	r3, r3
 1855 0020 4386     		strh	r3, [r0, #50]	@ movhi
1063:/home/phong/Documents/thesis/stm32f4/stm-idf/components/stm32f4xx_hal_driver/stm32f4xx_hal_i2s_ex.c ****   {
 1856              		.loc 1 1063 0 discriminator 4
 1857 0022 438E     		ldrh	r3, [r0, #50]
 1858 0024 9BB2     		uxth	r3, r3
 1859 0026 63B9     		cbnz	r3, .L206
1066:/home/phong/Documents/thesis/stm32f4/stm-idf/components/stm32f4xx_hal_driver/stm32f4xx_hal_i2s_ex.c **** 
 1860              		.loc 1 1066 0
 1861 0028 0268     		ldr	r2, [r0]
 1862 002a 0C4B     		ldr	r3, .L216
 1863 002c 9A42     		cmp	r2, r3
 1864 002e 0CD0     		beq	.L214
 1865 0030 4FF04022 		mov	r2, #1073758208
 1866              	.L209:
1066:/home/phong/Documents/thesis/stm32f4/stm-idf/components/stm32f4xx_hal_driver/stm32f4xx_hal_i2s_ex.c **** 
 1867              		.loc 1 1066 0 is_stmt 0 discriminator 4
 1868 0034 5368     		ldr	r3, [r2, #4]
 1869 0036 23F06003 		bic	r3, r3, #96
 1870 003a 5360     		str	r3, [r2, #4]
1068:/home/phong/Documents/thesis/stm32f4/stm-idf/components/stm32f4xx_hal_driver/stm32f4xx_hal_i2s_ex.c ****     {
 1871              		.loc 1 1068 0 is_stmt 1 discriminator 4
 1872 003c 438D     		ldrh	r3, [r0, #42]
 1873 003e 9BB2     		uxth	r3, r3
ARM GAS  /tmp/ccyFKXfi.s 			page 59


 1874 0040 2BB1     		cbz	r3, .L215
 1875              	.LVL156:
 1876              	.L206:
 1877 0042 08BD     		pop	{r3, pc}
 1878              	.LVL157:
 1879              	.L213:
1060:/home/phong/Documents/thesis/stm32f4/stm-idf/components/stm32f4xx_hal_driver/stm32f4xx_hal_i2s_ex.c ****   hi2s->RxXferCount--;
 1880              		.loc 1 1060 0
 1881 0044 A2F58062 		sub	r2, r2, #1024
 1882 0048 E4E7     		b	.L207
 1883              	.L214:
1066:/home/phong/Documents/thesis/stm32f4/stm-idf/components/stm32f4xx_hal_driver/stm32f4xx_hal_i2s_ex.c **** 
 1884              		.loc 1 1066 0
 1885 004a 054A     		ldr	r2, .L216+4
 1886 004c F2E7     		b	.L209
 1887              	.L215:
1070:/home/phong/Documents/thesis/stm32f4/stm-idf/components/stm32f4xx_hal_driver/stm32f4xx_hal_i2s_ex.c ****       /* Call user TxRx complete callback */
 1888              		.loc 1 1070 0
 1889 004e 0123     		movs	r3, #1
 1890 0050 80F84130 		strb	r3, [r0, #65]
1075:/home/phong/Documents/thesis/stm32f4/stm-idf/components/stm32f4xx_hal_driver/stm32f4xx_hal_i2s_ex.c **** #endif /* USE_HAL_I2S_REGISTER_CALLBACKS */
 1891              		.loc 1 1075 0
 1892 0054 FFF7FEFF 		bl	HAL_I2SEx_TxRxCpltCallback
 1893              	.LVL158:
1079:/home/phong/Documents/thesis/stm32f4/stm-idf/components/stm32f4xx_hal_driver/stm32f4xx_hal_i2s_ex.c **** 
 1894              		.loc 1 1079 0
 1895 0058 F3E7     		b	.L206
 1896              	.L217:
 1897 005a 00BF     		.align	2
 1898              	.L216:
 1899 005c 00380040 		.word	1073756160
 1900 0060 00340040 		.word	1073755136
 1901              		.cfi_endproc
 1902              	.LFE142:
 1904              		.section	.text.I2SEx_TxISR_I2SExt,"ax",%progbits
 1905              		.align	1
 1906              		.syntax unified
 1907              		.thumb
 1908              		.thumb_func
 1909              		.fpu fpv4-sp-d16
 1911              	I2SEx_TxISR_I2SExt:
 1912              	.LFB140:
1000:/home/phong/Documents/thesis/stm32f4/stm-idf/components/stm32f4xx_hal_driver/stm32f4xx_hal_i2s_ex.c ****   /* Write Data on DR register */
 1913              		.loc 1 1000 0
 1914              		.cfi_startproc
 1915              		@ args = 0, pretend = 0, frame = 0
 1916              		@ frame_needed = 0, uses_anonymous_args = 0
 1917              	.LVL159:
 1918 0000 08B5     		push	{r3, lr}
 1919              	.LCFI17:
 1920              		.cfi_def_cfa_offset 8
 1921              		.cfi_offset 3, -8
 1922              		.cfi_offset 14, -4
1002:/home/phong/Documents/thesis/stm32f4/stm-idf/components/stm32f4xx_hal_driver/stm32f4xx_hal_i2s_ex.c ****   hi2s->TxXferCount--;
 1923              		.loc 1 1002 0
 1924 0002 0268     		ldr	r2, [r0]
 1925 0004 144B     		ldr	r3, .L228
ARM GAS  /tmp/ccyFKXfi.s 			page 60


 1926 0006 9A42     		cmp	r2, r3
 1927 0008 1CD0     		beq	.L225
 1928 000a 4FF04022 		mov	r2, #1073758208
 1929              	.L219:
1002:/home/phong/Documents/thesis/stm32f4/stm-idf/components/stm32f4xx_hal_driver/stm32f4xx_hal_i2s_ex.c ****   hi2s->TxXferCount--;
 1930              		.loc 1 1002 0 is_stmt 0 discriminator 4
 1931 000e 436A     		ldr	r3, [r0, #36]
 1932 0010 991C     		adds	r1, r3, #2
 1933 0012 4162     		str	r1, [r0, #36]
 1934 0014 1B88     		ldrh	r3, [r3]
 1935 0016 D360     		str	r3, [r2, #12]
1003:/home/phong/Documents/thesis/stm32f4/stm-idf/components/stm32f4xx_hal_driver/stm32f4xx_hal_i2s_ex.c **** 
 1936              		.loc 1 1003 0 is_stmt 1 discriminator 4
 1937 0018 438D     		ldrh	r3, [r0, #42]
 1938 001a 9BB2     		uxth	r3, r3
 1939 001c 013B     		subs	r3, r3, #1
 1940 001e 9BB2     		uxth	r3, r3
 1941 0020 4385     		strh	r3, [r0, #42]	@ movhi
1005:/home/phong/Documents/thesis/stm32f4/stm-idf/components/stm32f4xx_hal_driver/stm32f4xx_hal_i2s_ex.c ****   {
 1942              		.loc 1 1005 0 discriminator 4
 1943 0022 438D     		ldrh	r3, [r0, #42]
 1944 0024 9BB2     		uxth	r3, r3
 1945 0026 63B9     		cbnz	r3, .L218
1008:/home/phong/Documents/thesis/stm32f4/stm-idf/components/stm32f4xx_hal_driver/stm32f4xx_hal_i2s_ex.c **** 
 1946              		.loc 1 1008 0
 1947 0028 0268     		ldr	r2, [r0]
 1948 002a 0B4B     		ldr	r3, .L228
 1949 002c 9A42     		cmp	r2, r3
 1950 002e 0BD0     		beq	.L226
 1951 0030 4FF04022 		mov	r2, #1073758208
 1952              	.L221:
1008:/home/phong/Documents/thesis/stm32f4/stm-idf/components/stm32f4xx_hal_driver/stm32f4xx_hal_i2s_ex.c **** 
 1953              		.loc 1 1008 0 is_stmt 0 discriminator 4
 1954 0034 5368     		ldr	r3, [r2, #4]
 1955 0036 23F0A003 		bic	r3, r3, #160
 1956 003a 5360     		str	r3, [r2, #4]
1010:/home/phong/Documents/thesis/stm32f4/stm-idf/components/stm32f4xx_hal_driver/stm32f4xx_hal_i2s_ex.c ****     {
 1957              		.loc 1 1010 0 is_stmt 1 discriminator 4
 1958 003c 438E     		ldrh	r3, [r0, #50]
 1959 003e 9BB2     		uxth	r3, r3
 1960 0040 23B1     		cbz	r3, .L227
 1961              	.LVL160:
 1962              	.L218:
 1963 0042 08BD     		pop	{r3, pc}
 1964              	.LVL161:
 1965              	.L225:
1002:/home/phong/Documents/thesis/stm32f4/stm-idf/components/stm32f4xx_hal_driver/stm32f4xx_hal_i2s_ex.c ****   hi2s->TxXferCount--;
 1966              		.loc 1 1002 0
 1967 0044 054A     		ldr	r2, .L228+4
 1968 0046 E2E7     		b	.L219
 1969              	.L226:
1008:/home/phong/Documents/thesis/stm32f4/stm-idf/components/stm32f4xx_hal_driver/stm32f4xx_hal_i2s_ex.c **** 
 1970              		.loc 1 1008 0
 1971 0048 044A     		ldr	r2, .L228+4
 1972 004a F3E7     		b	.L221
 1973              	.L227:
1012:/home/phong/Documents/thesis/stm32f4/stm-idf/components/stm32f4xx_hal_driver/stm32f4xx_hal_i2s_ex.c ****       /* Call user TxRx complete callback */
ARM GAS  /tmp/ccyFKXfi.s 			page 61


 1974              		.loc 1 1012 0
 1975 004c 0123     		movs	r3, #1
 1976 004e 80F84130 		strb	r3, [r0, #65]
1017:/home/phong/Documents/thesis/stm32f4/stm-idf/components/stm32f4xx_hal_driver/stm32f4xx_hal_i2s_ex.c **** #endif /* USE_HAL_I2S_REGISTER_CALLBACKS */
 1977              		.loc 1 1017 0
 1978 0052 FFF7FEFF 		bl	HAL_I2SEx_TxRxCpltCallback
 1979              	.LVL162:
1021:/home/phong/Documents/thesis/stm32f4/stm-idf/components/stm32f4xx_hal_driver/stm32f4xx_hal_i2s_ex.c **** 
 1980              		.loc 1 1021 0
 1981 0056 F4E7     		b	.L218
 1982              	.L229:
 1983              		.align	2
 1984              	.L228:
 1985 0058 00380040 		.word	1073756160
 1986 005c 00340040 		.word	1073755136
 1987              		.cfi_endproc
 1988              	.LFE140:
 1990              		.section	.text.I2SEx_RxISR_I2S,"ax",%progbits
 1991              		.align	1
 1992              		.syntax unified
 1993              		.thumb
 1994              		.thumb_func
 1995              		.fpu fpv4-sp-d16
 1997              	I2SEx_RxISR_I2S:
 1998              	.LFB141:
1029:/home/phong/Documents/thesis/stm32f4/stm-idf/components/stm32f4xx_hal_driver/stm32f4xx_hal_i2s_ex.c ****   /* Read Data from DR register */
 1999              		.loc 1 1029 0
 2000              		.cfi_startproc
 2001              		@ args = 0, pretend = 0, frame = 0
 2002              		@ frame_needed = 0, uses_anonymous_args = 0
 2003              	.LVL163:
 2004 0000 08B5     		push	{r3, lr}
 2005              	.LCFI18:
 2006              		.cfi_def_cfa_offset 8
 2007              		.cfi_offset 3, -8
 2008              		.cfi_offset 14, -4
1031:/home/phong/Documents/thesis/stm32f4/stm-idf/components/stm32f4xx_hal_driver/stm32f4xx_hal_i2s_ex.c ****   hi2s->RxXferCount--;
 2009              		.loc 1 1031 0
 2010 0002 C36A     		ldr	r3, [r0, #44]
 2011 0004 9A1C     		adds	r2, r3, #2
 2012 0006 C262     		str	r2, [r0, #44]
 2013 0008 0268     		ldr	r2, [r0]
 2014 000a D268     		ldr	r2, [r2, #12]
 2015 000c 1A80     		strh	r2, [r3]	@ movhi
1032:/home/phong/Documents/thesis/stm32f4/stm-idf/components/stm32f4xx_hal_driver/stm32f4xx_hal_i2s_ex.c **** 
 2016              		.loc 1 1032 0
 2017 000e 438E     		ldrh	r3, [r0, #50]
 2018 0010 9BB2     		uxth	r3, r3
 2019 0012 013B     		subs	r3, r3, #1
 2020 0014 9BB2     		uxth	r3, r3
 2021 0016 4386     		strh	r3, [r0, #50]	@ movhi
1034:/home/phong/Documents/thesis/stm32f4/stm-idf/components/stm32f4xx_hal_driver/stm32f4xx_hal_i2s_ex.c ****   {
 2022              		.loc 1 1034 0
 2023 0018 438E     		ldrh	r3, [r0, #50]
 2024 001a 9BB2     		uxth	r3, r3
 2025 001c 3BB9     		cbnz	r3, .L230
1037:/home/phong/Documents/thesis/stm32f4/stm-idf/components/stm32f4xx_hal_driver/stm32f4xx_hal_i2s_ex.c **** 
ARM GAS  /tmp/ccyFKXfi.s 			page 62


 2026              		.loc 1 1037 0
 2027 001e 0268     		ldr	r2, [r0]
 2028 0020 5368     		ldr	r3, [r2, #4]
 2029 0022 23F06003 		bic	r3, r3, #96
 2030 0026 5360     		str	r3, [r2, #4]
1039:/home/phong/Documents/thesis/stm32f4/stm-idf/components/stm32f4xx_hal_driver/stm32f4xx_hal_i2s_ex.c ****     {
 2031              		.loc 1 1039 0
 2032 0028 438D     		ldrh	r3, [r0, #42]
 2033 002a 9BB2     		uxth	r3, r3
 2034 002c 03B1     		cbz	r3, .L233
 2035              	.LVL164:
 2036              	.L230:
 2037 002e 08BD     		pop	{r3, pc}
 2038              	.LVL165:
 2039              	.L233:
1041:/home/phong/Documents/thesis/stm32f4/stm-idf/components/stm32f4xx_hal_driver/stm32f4xx_hal_i2s_ex.c ****       /* Call user TxRx complete callback */
 2040              		.loc 1 1041 0
 2041 0030 0123     		movs	r3, #1
 2042 0032 80F84130 		strb	r3, [r0, #65]
1046:/home/phong/Documents/thesis/stm32f4/stm-idf/components/stm32f4xx_hal_driver/stm32f4xx_hal_i2s_ex.c **** #endif /* USE_HAL_I2S_REGISTER_CALLBACKS */
 2043              		.loc 1 1046 0
 2044 0036 FFF7FEFF 		bl	HAL_I2SEx_TxRxCpltCallback
 2045              	.LVL166:
1050:/home/phong/Documents/thesis/stm32f4/stm-idf/components/stm32f4xx_hal_driver/stm32f4xx_hal_i2s_ex.c **** 
 2046              		.loc 1 1050 0
 2047 003a F8E7     		b	.L230
 2048              		.cfi_endproc
 2049              	.LFE141:
 2051              		.section	.text.HAL_I2SEx_FullDuplex_IRQHandler,"ax",%progbits
 2052              		.align	1
 2053              		.global	HAL_I2SEx_FullDuplex_IRQHandler
 2054              		.syntax unified
 2055              		.thumb
 2056              		.thumb_func
 2057              		.fpu fpv4-sp-d16
 2059              	HAL_I2SEx_FullDuplex_IRQHandler:
 2060              	.LFB133:
 666:/home/phong/Documents/thesis/stm32f4/stm-idf/components/stm32f4xx_hal_driver/stm32f4xx_hal_i2s_ex.c ****   __IO uint32_t i2ssr     = hi2s->Instance->SR;
 2061              		.loc 1 666 0
 2062              		.cfi_startproc
 2063              		@ args = 0, pretend = 0, frame = 24
 2064              		@ frame_needed = 0, uses_anonymous_args = 0
 2065              	.LVL167:
 2066 0000 10B5     		push	{r4, lr}
 2067              	.LCFI19:
 2068              		.cfi_def_cfa_offset 8
 2069              		.cfi_offset 4, -8
 2070              		.cfi_offset 14, -4
 2071 0002 86B0     		sub	sp, sp, #24
 2072              	.LCFI20:
 2073              		.cfi_def_cfa_offset 32
 2074 0004 0446     		mov	r4, r0
 667:/home/phong/Documents/thesis/stm32f4/stm-idf/components/stm32f4xx_hal_driver/stm32f4xx_hal_i2s_ex.c ****   __IO uint32_t i2sextsr  = I2SxEXT(hi2s->Instance)->SR;
 2075              		.loc 1 667 0
 2076 0006 0368     		ldr	r3, [r0]
 2077 0008 9A68     		ldr	r2, [r3, #8]
 2078 000a 0592     		str	r2, [sp, #20]
ARM GAS  /tmp/ccyFKXfi.s 			page 63


 668:/home/phong/Documents/thesis/stm32f4/stm-idf/components/stm32f4xx_hal_driver/stm32f4xx_hal_i2s_ex.c ****   __IO uint32_t i2scr2    = hi2s->Instance->CR2;
 2079              		.loc 1 668 0
 2080 000c 704A     		ldr	r2, .L264
 2081 000e 9342     		cmp	r3, r2
 2082 0010 6FD0     		beq	.L255
 2083 0012 4FF04022 		mov	r2, #1073758208
 2084              	.L235:
 668:/home/phong/Documents/thesis/stm32f4/stm-idf/components/stm32f4xx_hal_driver/stm32f4xx_hal_i2s_ex.c ****   __IO uint32_t i2scr2    = hi2s->Instance->CR2;
 2085              		.loc 1 668 0 is_stmt 0 discriminator 4
 2086 0016 9168     		ldr	r1, [r2, #8]
 2087 0018 0491     		str	r1, [sp, #16]
 669:/home/phong/Documents/thesis/stm32f4/stm-idf/components/stm32f4xx_hal_driver/stm32f4xx_hal_i2s_ex.c ****   __IO uint32_t i2sextcr2 = I2SxEXT(hi2s->Instance)->CR2;
 2088              		.loc 1 669 0 is_stmt 1 discriminator 4
 2089 001a 5B68     		ldr	r3, [r3, #4]
 2090 001c 0393     		str	r3, [sp, #12]
 670:/home/phong/Documents/thesis/stm32f4/stm-idf/components/stm32f4xx_hal_driver/stm32f4xx_hal_i2s_ex.c **** 
 2091              		.loc 1 670 0 discriminator 4
 2092 001e 5368     		ldr	r3, [r2, #4]
 2093 0020 0293     		str	r3, [sp, #8]
 673:/home/phong/Documents/thesis/stm32f4/stm-idf/components/stm32f4xx_hal_driver/stm32f4xx_hal_i2s_ex.c ****   {
 2094              		.loc 1 673 0 discriminator 4
 2095 0022 6368     		ldr	r3, [r4, #4]
 2096 0024 B3F5007F 		cmp	r3, #512
 2097 0028 01D0     		beq	.L236
 673:/home/phong/Documents/thesis/stm32f4/stm-idf/components/stm32f4xx_hal_driver/stm32f4xx_hal_i2s_ex.c ****   {
 2098              		.loc 1 673 0 is_stmt 0 discriminator 1
 2099 002a 002B     		cmp	r3, #0
 2100 002c 70D1     		bne	.L237
 2101              	.L236:
 676:/home/phong/Documents/thesis/stm32f4/stm-idf/components/stm32f4xx_hal_driver/stm32f4xx_hal_i2s_ex.c ****     {
 2102              		.loc 1 676 0 is_stmt 1
 2103 002e 059B     		ldr	r3, [sp, #20]
 2104 0030 13F0020F 		tst	r3, #2
 2105 0034 03D0     		beq	.L238
 676:/home/phong/Documents/thesis/stm32f4/stm-idf/components/stm32f4xx_hal_driver/stm32f4xx_hal_i2s_ex.c ****     {
 2106              		.loc 1 676 0 is_stmt 0 discriminator 1
 2107 0036 039B     		ldr	r3, [sp, #12]
 2108 0038 13F0800F 		tst	r3, #128
 2109 003c 5CD1     		bne	.L256
 2110              	.LVL168:
 2111              	.L238:
 684:/home/phong/Documents/thesis/stm32f4/stm-idf/components/stm32f4xx_hal_driver/stm32f4xx_hal_i2s_ex.c ****     {
 2112              		.loc 1 684 0 is_stmt 1
 2113 003e 049B     		ldr	r3, [sp, #16]
 2114 0040 13F0010F 		tst	r3, #1
 2115 0044 03D0     		beq	.L239
 684:/home/phong/Documents/thesis/stm32f4/stm-idf/components/stm32f4xx_hal_driver/stm32f4xx_hal_i2s_ex.c ****     {
 2116              		.loc 1 684 0 is_stmt 0 discriminator 1
 2117 0046 029B     		ldr	r3, [sp, #8]
 2118 0048 13F0400F 		tst	r3, #64
 2119 004c 58D1     		bne	.L257
 2120              	.L239:
 692:/home/phong/Documents/thesis/stm32f4/stm-idf/components/stm32f4xx_hal_driver/stm32f4xx_hal_i2s_ex.c ****     {
 2121              		.loc 1 692 0 is_stmt 1
 2122 004e 049B     		ldr	r3, [sp, #16]
 2123 0050 13F0400F 		tst	r3, #64
 2124 0054 24D0     		beq	.L240
ARM GAS  /tmp/ccyFKXfi.s 			page 64


 692:/home/phong/Documents/thesis/stm32f4/stm-idf/components/stm32f4xx_hal_driver/stm32f4xx_hal_i2s_ex.c ****     {
 2125              		.loc 1 692 0 is_stmt 0 discriminator 1
 2126 0056 029B     		ldr	r3, [sp, #8]
 2127 0058 13F0200F 		tst	r3, #32
 2128 005c 20D0     		beq	.L240
 695:/home/phong/Documents/thesis/stm32f4/stm-idf/components/stm32f4xx_hal_driver/stm32f4xx_hal_i2s_ex.c **** 
 2129              		.loc 1 695 0 is_stmt 1
 2130 005e 2268     		ldr	r2, [r4]
 2131 0060 5B4B     		ldr	r3, .L264
 2132 0062 9A42     		cmp	r2, r3
 2133 0064 50D0     		beq	.L258
 2134 0066 4FF04022 		mov	r2, #1073758208
 2135              	.L241:
 695:/home/phong/Documents/thesis/stm32f4/stm-idf/components/stm32f4xx_hal_driver/stm32f4xx_hal_i2s_ex.c **** 
 2136              		.loc 1 695 0 is_stmt 0 discriminator 4
 2137 006a 5368     		ldr	r3, [r2, #4]
 2138 006c 23F06003 		bic	r3, r3, #96
 2139 0070 5360     		str	r3, [r2, #4]
 698:/home/phong/Documents/thesis/stm32f4/stm-idf/components/stm32f4xx_hal_driver/stm32f4xx_hal_i2s_ex.c **** 
 2140              		.loc 1 698 0 is_stmt 1 discriminator 4
 2141 0072 2268     		ldr	r2, [r4]
 2142 0074 5368     		ldr	r3, [r2, #4]
 2143 0076 23F0A003 		bic	r3, r3, #160
 2144 007a 5360     		str	r3, [r2, #4]
 2145              	.LBB10:
 701:/home/phong/Documents/thesis/stm32f4/stm-idf/components/stm32f4xx_hal_driver/stm32f4xx_hal_i2s_ex.c **** 
 2146              		.loc 1 701 0 discriminator 4
 2147 007c 0023     		movs	r3, #0
 2148 007e 0093     		str	r3, [sp]
 2149 0080 2368     		ldr	r3, [r4]
 2150 0082 DA68     		ldr	r2, [r3, #12]
 2151 0084 0092     		str	r2, [sp]
 2152 0086 9B68     		ldr	r3, [r3, #8]
 2153 0088 0093     		str	r3, [sp]
 2154 008a 009B     		ldr	r3, [sp]
 2155              	.LBE10:
 704:/home/phong/Documents/thesis/stm32f4/stm-idf/components/stm32f4xx_hal_driver/stm32f4xx_hal_i2s_ex.c **** 
 2156              		.loc 1 704 0 discriminator 4
 2157 008c 0123     		movs	r3, #1
 2158 008e 84F84130 		strb	r3, [r4, #65]
 707:/home/phong/Documents/thesis/stm32f4/stm-idf/components/stm32f4xx_hal_driver/stm32f4xx_hal_i2s_ex.c ****       /* Call user error callback */
 2159              		.loc 1 707 0 discriminator 4
 2160 0092 636C     		ldr	r3, [r4, #68]
 2161 0094 43F00203 		orr	r3, r3, #2
 2162 0098 6364     		str	r3, [r4, #68]
 712:/home/phong/Documents/thesis/stm32f4/stm-idf/components/stm32f4xx_hal_driver/stm32f4xx_hal_i2s_ex.c **** #endif /* USE_HAL_I2S_REGISTER_CALLBACKS */
 2163              		.loc 1 712 0 discriminator 4
 2164 009a 2046     		mov	r0, r4
 2165 009c FFF7FEFF 		bl	HAL_I2S_ErrorCallback
 2166              	.LVL169:
 2167              	.L240:
 717:/home/phong/Documents/thesis/stm32f4/stm-idf/components/stm32f4xx_hal_driver/stm32f4xx_hal_i2s_ex.c ****     {
 2168              		.loc 1 717 0
 2169 00a0 059B     		ldr	r3, [sp, #20]
 2170 00a2 13F0080F 		tst	r3, #8
 2171 00a6 22D0     		beq	.L234
 717:/home/phong/Documents/thesis/stm32f4/stm-idf/components/stm32f4xx_hal_driver/stm32f4xx_hal_i2s_ex.c ****     {
ARM GAS  /tmp/ccyFKXfi.s 			page 65


 2172              		.loc 1 717 0 is_stmt 0 discriminator 1
 2173 00a8 039B     		ldr	r3, [sp, #12]
 2174 00aa 13F0200F 		tst	r3, #32
 2175 00ae 1ED0     		beq	.L234
 720:/home/phong/Documents/thesis/stm32f4/stm-idf/components/stm32f4xx_hal_driver/stm32f4xx_hal_i2s_ex.c **** 
 2176              		.loc 1 720 0 is_stmt 1
 2177 00b0 2268     		ldr	r2, [r4]
 2178 00b2 5368     		ldr	r3, [r2, #4]
 2179 00b4 23F0A003 		bic	r3, r3, #160
 2180 00b8 5360     		str	r3, [r2, #4]
 723:/home/phong/Documents/thesis/stm32f4/stm-idf/components/stm32f4xx_hal_driver/stm32f4xx_hal_i2s_ex.c **** 
 2181              		.loc 1 723 0
 2182 00ba 2268     		ldr	r2, [r4]
 2183 00bc 444B     		ldr	r3, .L264
 2184 00be 9A42     		cmp	r2, r3
 2185 00c0 24D0     		beq	.L259
 2186 00c2 4FF04022 		mov	r2, #1073758208
 2187              	.L243:
 723:/home/phong/Documents/thesis/stm32f4/stm-idf/components/stm32f4xx_hal_driver/stm32f4xx_hal_i2s_ex.c **** 
 2188              		.loc 1 723 0 is_stmt 0 discriminator 4
 2189 00c6 5368     		ldr	r3, [r2, #4]
 2190 00c8 23F06003 		bic	r3, r3, #96
 2191 00cc 5360     		str	r3, [r2, #4]
 2192              	.LBB11:
 726:/home/phong/Documents/thesis/stm32f4/stm-idf/components/stm32f4xx_hal_driver/stm32f4xx_hal_i2s_ex.c **** 
 2193              		.loc 1 726 0 is_stmt 1 discriminator 4
 2194 00ce 0023     		movs	r3, #0
 2195 00d0 0193     		str	r3, [sp, #4]
 2196 00d2 2368     		ldr	r3, [r4]
 2197 00d4 9B68     		ldr	r3, [r3, #8]
 2198 00d6 0193     		str	r3, [sp, #4]
 2199 00d8 019B     		ldr	r3, [sp, #4]
 2200              	.LBE11:
 729:/home/phong/Documents/thesis/stm32f4/stm-idf/components/stm32f4xx_hal_driver/stm32f4xx_hal_i2s_ex.c **** 
 2201              		.loc 1 729 0 discriminator 4
 2202 00da 0123     		movs	r3, #1
 2203 00dc 84F84130 		strb	r3, [r4, #65]
 732:/home/phong/Documents/thesis/stm32f4/stm-idf/components/stm32f4xx_hal_driver/stm32f4xx_hal_i2s_ex.c ****       /* Call user error callback */
 2204              		.loc 1 732 0 discriminator 4
 2205 00e0 636C     		ldr	r3, [r4, #68]
 2206 00e2 43F00403 		orr	r3, r3, #4
 2207 00e6 6364     		str	r3, [r4, #68]
 737:/home/phong/Documents/thesis/stm32f4/stm-idf/components/stm32f4xx_hal_driver/stm32f4xx_hal_i2s_ex.c **** #endif /* USE_HAL_I2S_REGISTER_CALLBACKS */
 2208              		.loc 1 737 0 discriminator 4
 2209 00e8 2046     		mov	r0, r4
 2210 00ea FFF7FEFF 		bl	HAL_I2S_ErrorCallback
 2211              	.LVL170:
 2212              	.L234:
 804:/home/phong/Documents/thesis/stm32f4/stm-idf/components/stm32f4xx_hal_driver/stm32f4xx_hal_i2s_ex.c **** 
 2213              		.loc 1 804 0
 2214 00ee 06B0     		add	sp, sp, #24
 2215              	.LCFI21:
 2216              		.cfi_remember_state
 2217              		.cfi_def_cfa_offset 8
 2218              		@ sp needed
 2219 00f0 10BD     		pop	{r4, pc}
 2220              	.LVL171:
ARM GAS  /tmp/ccyFKXfi.s 			page 66


 2221              	.L255:
 2222              	.LCFI22:
 2223              		.cfi_restore_state
 668:/home/phong/Documents/thesis/stm32f4/stm-idf/components/stm32f4xx_hal_driver/stm32f4xx_hal_i2s_ex.c ****   __IO uint32_t i2scr2    = hi2s->Instance->CR2;
 2224              		.loc 1 668 0
 2225 00f2 A2F58062 		sub	r2, r2, #1024
 2226 00f6 8EE7     		b	.L235
 2227              	.L256:
 680:/home/phong/Documents/thesis/stm32f4/stm-idf/components/stm32f4xx_hal_driver/stm32f4xx_hal_i2s_ex.c ****     }
 2228              		.loc 1 680 0
 2229 00f8 2046     		mov	r0, r4
 2230              	.LVL172:
 2231 00fa FFF7FEFF 		bl	I2SEx_TxISR_I2S
 2232              	.LVL173:
 2233 00fe 9EE7     		b	.L238
 2234              	.L257:
 688:/home/phong/Documents/thesis/stm32f4/stm-idf/components/stm32f4xx_hal_driver/stm32f4xx_hal_i2s_ex.c ****     }
 2235              		.loc 1 688 0
 2236 0100 2046     		mov	r0, r4
 2237 0102 FFF7FEFF 		bl	I2SEx_RxISR_I2SExt
 2238              	.LVL174:
 2239 0106 A2E7     		b	.L239
 2240              	.L258:
 695:/home/phong/Documents/thesis/stm32f4/stm-idf/components/stm32f4xx_hal_driver/stm32f4xx_hal_i2s_ex.c **** 
 2241              		.loc 1 695 0
 2242 0108 324A     		ldr	r2, .L264+4
 2243 010a AEE7     		b	.L241
 2244              	.L259:
 723:/home/phong/Documents/thesis/stm32f4/stm-idf/components/stm32f4xx_hal_driver/stm32f4xx_hal_i2s_ex.c **** 
 2245              		.loc 1 723 0
 2246 010c 314A     		ldr	r2, .L264+4
 2247 010e DAE7     		b	.L243
 2248              	.LVL175:
 2249              	.L237:
 745:/home/phong/Documents/thesis/stm32f4/stm-idf/components/stm32f4xx_hal_driver/stm32f4xx_hal_i2s_ex.c ****     {
 2250              		.loc 1 745 0
 2251 0110 049B     		ldr	r3, [sp, #16]
 2252 0112 13F0020F 		tst	r3, #2
 2253 0116 03D0     		beq	.L244
 745:/home/phong/Documents/thesis/stm32f4/stm-idf/components/stm32f4xx_hal_driver/stm32f4xx_hal_i2s_ex.c ****     {
 2254              		.loc 1 745 0 is_stmt 0 discriminator 1
 2255 0118 029B     		ldr	r3, [sp, #8]
 2256 011a 13F0800F 		tst	r3, #128
 2257 011e 4AD1     		bne	.L260
 2258              	.LVL176:
 2259              	.L244:
 753:/home/phong/Documents/thesis/stm32f4/stm-idf/components/stm32f4xx_hal_driver/stm32f4xx_hal_i2s_ex.c ****     {
 2260              		.loc 1 753 0 is_stmt 1
 2261 0120 059B     		ldr	r3, [sp, #20]
 2262 0122 13F0010F 		tst	r3, #1
 2263 0126 03D0     		beq	.L245
 753:/home/phong/Documents/thesis/stm32f4/stm-idf/components/stm32f4xx_hal_driver/stm32f4xx_hal_i2s_ex.c ****     {
 2264              		.loc 1 753 0 is_stmt 0 discriminator 1
 2265 0128 039B     		ldr	r3, [sp, #12]
 2266 012a 13F0400F 		tst	r3, #64
 2267 012e 46D1     		bne	.L261
 2268              	.L245:
ARM GAS  /tmp/ccyFKXfi.s 			page 67


 761:/home/phong/Documents/thesis/stm32f4/stm-idf/components/stm32f4xx_hal_driver/stm32f4xx_hal_i2s_ex.c ****     {
 2269              		.loc 1 761 0 is_stmt 1
 2270 0130 059B     		ldr	r3, [sp, #20]
 2271 0132 13F0400F 		tst	r3, #64
 2272 0136 1CD0     		beq	.L246
 761:/home/phong/Documents/thesis/stm32f4/stm-idf/components/stm32f4xx_hal_driver/stm32f4xx_hal_i2s_ex.c ****     {
 2273              		.loc 1 761 0 is_stmt 0 discriminator 1
 2274 0138 039B     		ldr	r3, [sp, #12]
 2275 013a 13F0200F 		tst	r3, #32
 2276 013e 18D0     		beq	.L246
 764:/home/phong/Documents/thesis/stm32f4/stm-idf/components/stm32f4xx_hal_driver/stm32f4xx_hal_i2s_ex.c **** 
 2277              		.loc 1 764 0 is_stmt 1
 2278 0140 2268     		ldr	r2, [r4]
 2279 0142 5368     		ldr	r3, [r2, #4]
 2280 0144 23F06003 		bic	r3, r3, #96
 2281 0148 5360     		str	r3, [r2, #4]
 767:/home/phong/Documents/thesis/stm32f4/stm-idf/components/stm32f4xx_hal_driver/stm32f4xx_hal_i2s_ex.c **** 
 2282              		.loc 1 767 0
 2283 014a 2268     		ldr	r2, [r4]
 2284 014c 204B     		ldr	r3, .L264
 2285 014e 9A42     		cmp	r2, r3
 2286 0150 39D0     		beq	.L262
 2287 0152 4FF04022 		mov	r2, #1073758208
 2288              	.L247:
 767:/home/phong/Documents/thesis/stm32f4/stm-idf/components/stm32f4xx_hal_driver/stm32f4xx_hal_i2s_ex.c **** 
 2289              		.loc 1 767 0 is_stmt 0 discriminator 4
 2290 0156 5368     		ldr	r3, [r2, #4]
 2291 0158 23F0A003 		bic	r3, r3, #160
 2292 015c 5360     		str	r3, [r2, #4]
 770:/home/phong/Documents/thesis/stm32f4/stm-idf/components/stm32f4xx_hal_driver/stm32f4xx_hal_i2s_ex.c **** 
 2293              		.loc 1 770 0 is_stmt 1 discriminator 4
 2294 015e 0123     		movs	r3, #1
 2295 0160 84F84130 		strb	r3, [r4, #65]
 773:/home/phong/Documents/thesis/stm32f4/stm-idf/components/stm32f4xx_hal_driver/stm32f4xx_hal_i2s_ex.c ****       /* Call user error callback */
 2296              		.loc 1 773 0 discriminator 4
 2297 0164 636C     		ldr	r3, [r4, #68]
 2298 0166 43F00203 		orr	r3, r3, #2
 2299 016a 6364     		str	r3, [r4, #68]
 778:/home/phong/Documents/thesis/stm32f4/stm-idf/components/stm32f4xx_hal_driver/stm32f4xx_hal_i2s_ex.c **** #endif /* USE_HAL_I2S_REGISTER_CALLBACKS */
 2300              		.loc 1 778 0 discriminator 4
 2301 016c 2046     		mov	r0, r4
 2302 016e FFF7FEFF 		bl	HAL_I2S_ErrorCallback
 2303              	.LVL177:
 2304              	.L246:
 783:/home/phong/Documents/thesis/stm32f4/stm-idf/components/stm32f4xx_hal_driver/stm32f4xx_hal_i2s_ex.c ****     {
 2305              		.loc 1 783 0
 2306 0172 049B     		ldr	r3, [sp, #16]
 2307 0174 13F0080F 		tst	r3, #8
 2308 0178 B9D0     		beq	.L234
 783:/home/phong/Documents/thesis/stm32f4/stm-idf/components/stm32f4xx_hal_driver/stm32f4xx_hal_i2s_ex.c ****     {
 2309              		.loc 1 783 0 is_stmt 0 discriminator 1
 2310 017a 029B     		ldr	r3, [sp, #8]
 2311 017c 13F0200F 		tst	r3, #32
 2312 0180 B5D0     		beq	.L234
 786:/home/phong/Documents/thesis/stm32f4/stm-idf/components/stm32f4xx_hal_driver/stm32f4xx_hal_i2s_ex.c **** 
 2313              		.loc 1 786 0 is_stmt 1
 2314 0182 2268     		ldr	r2, [r4]
ARM GAS  /tmp/ccyFKXfi.s 			page 68


 2315 0184 124B     		ldr	r3, .L264
 2316 0186 9A42     		cmp	r2, r3
 2317 0188 1FD0     		beq	.L263
 2318 018a 4FF04022 		mov	r2, #1073758208
 2319              	.L248:
 786:/home/phong/Documents/thesis/stm32f4/stm-idf/components/stm32f4xx_hal_driver/stm32f4xx_hal_i2s_ex.c **** 
 2320              		.loc 1 786 0 is_stmt 0 discriminator 4
 2321 018e 5368     		ldr	r3, [r2, #4]
 2322 0190 23F0A003 		bic	r3, r3, #160
 2323 0194 5360     		str	r3, [r2, #4]
 789:/home/phong/Documents/thesis/stm32f4/stm-idf/components/stm32f4xx_hal_driver/stm32f4xx_hal_i2s_ex.c **** 
 2324              		.loc 1 789 0 is_stmt 1 discriminator 4
 2325 0196 2268     		ldr	r2, [r4]
 2326 0198 5368     		ldr	r3, [r2, #4]
 2327 019a 23F06003 		bic	r3, r3, #96
 2328 019e 5360     		str	r3, [r2, #4]
 792:/home/phong/Documents/thesis/stm32f4/stm-idf/components/stm32f4xx_hal_driver/stm32f4xx_hal_i2s_ex.c **** 
 2329              		.loc 1 792 0 discriminator 4
 2330 01a0 0123     		movs	r3, #1
 2331 01a2 84F84130 		strb	r3, [r4, #65]
 795:/home/phong/Documents/thesis/stm32f4/stm-idf/components/stm32f4xx_hal_driver/stm32f4xx_hal_i2s_ex.c ****       /* Call user error callback */
 2332              		.loc 1 795 0 discriminator 4
 2333 01a6 636C     		ldr	r3, [r4, #68]
 2334 01a8 43F00403 		orr	r3, r3, #4
 2335 01ac 6364     		str	r3, [r4, #68]
 800:/home/phong/Documents/thesis/stm32f4/stm-idf/components/stm32f4xx_hal_driver/stm32f4xx_hal_i2s_ex.c **** #endif /* USE_HAL_I2S_REGISTER_CALLBACKS */
 2336              		.loc 1 800 0 discriminator 4
 2337 01ae 2046     		mov	r0, r4
 2338 01b0 FFF7FEFF 		bl	HAL_I2S_ErrorCallback
 2339              	.LVL178:
 804:/home/phong/Documents/thesis/stm32f4/stm-idf/components/stm32f4xx_hal_driver/stm32f4xx_hal_i2s_ex.c **** 
 2340              		.loc 1 804 0 discriminator 4
 2341 01b4 9BE7     		b	.L234
 2342              	.LVL179:
 2343              	.L260:
 749:/home/phong/Documents/thesis/stm32f4/stm-idf/components/stm32f4xx_hal_driver/stm32f4xx_hal_i2s_ex.c ****     }
 2344              		.loc 1 749 0
 2345 01b6 2046     		mov	r0, r4
 2346              	.LVL180:
 2347 01b8 FFF7FEFF 		bl	I2SEx_TxISR_I2SExt
 2348              	.LVL181:
 2349 01bc B0E7     		b	.L244
 2350              	.L261:
 757:/home/phong/Documents/thesis/stm32f4/stm-idf/components/stm32f4xx_hal_driver/stm32f4xx_hal_i2s_ex.c ****     }
 2351              		.loc 1 757 0
 2352 01be 2046     		mov	r0, r4
 2353 01c0 FFF7FEFF 		bl	I2SEx_RxISR_I2S
 2354              	.LVL182:
 2355 01c4 B4E7     		b	.L245
 2356              	.L262:
 767:/home/phong/Documents/thesis/stm32f4/stm-idf/components/stm32f4xx_hal_driver/stm32f4xx_hal_i2s_ex.c **** 
 2357              		.loc 1 767 0
 2358 01c6 034A     		ldr	r2, .L264+4
 2359 01c8 C5E7     		b	.L247
 2360              	.L263:
 786:/home/phong/Documents/thesis/stm32f4/stm-idf/components/stm32f4xx_hal_driver/stm32f4xx_hal_i2s_ex.c **** 
 2361              		.loc 1 786 0
ARM GAS  /tmp/ccyFKXfi.s 			page 69


 2362 01ca 024A     		ldr	r2, .L264+4
 2363 01cc DFE7     		b	.L248
 2364              	.L265:
 2365 01ce 00BF     		.align	2
 2366              	.L264:
 2367 01d0 00380040 		.word	1073756160
 2368 01d4 00340040 		.word	1073755136
 2369              		.cfi_endproc
 2370              	.LFE133:
 2372              		.text
 2373              	.Letext0:
 2374              		.file 2 "/home/phong/Documents/thesis/stm32f4/stm-idf/components/newlib/include/machine/_default_t
 2375              		.file 3 "/home/phong/Documents/thesis/stm32f4/stm-idf/components/newlib/include/sys/_stdint.h"
 2376              		.file 4 "/home/phong/Documents/thesis/stm32f4/stm-idf/components/cmsis/include/core_cm4.h"
 2377              		.file 5 "/home/phong/Documents/thesis/stm32f4/stm-idf/components/cmsis/device/stm32/stm32f4xx/incl
 2378              		.file 6 "/home/phong/Documents/thesis/stm32f4/stm-idf/components/cmsis/device/stm32/stm32f4xx/incl
 2379              		.file 7 "/home/phong/Documents/thesis/stm32f4/stm-idf/components/cmsis/device/stm32/stm32f4xx/incl
 2380              		.file 8 "/home/phong/Documents/thesis/stm32f4/stm-idf/components/stm32f4xx_hal_driver/include/stm3
 2381              		.file 9 "/home/phong/Documents/thesis/stm32f4/stm-idf/components/stm32f4xx_hal_driver/include/stm3
 2382              		.file 10 "/home/phong/Documents/thesis/stm32f4/stm-idf/components/stm32f4xx_hal_driver/include/stm
 2383              		.file 11 "/home/phong/Documents/thesis/stm32f4/stm-idf/components/stm32f4xx_hal_driver/include/stm
ARM GAS  /tmp/ccyFKXfi.s 			page 70


DEFINED SYMBOLS
                            *ABS*:0000000000000000 stm32f4xx_hal_i2s_ex.c
     /tmp/ccyFKXfi.s:18     .text.I2SEx_FullDuplexWaitFlagStateUntilTimeout:0000000000000000 $t
     /tmp/ccyFKXfi.s:24     .text.I2SEx_FullDuplexWaitFlagStateUntilTimeout:0000000000000000 I2SEx_FullDuplexWaitFlagStateUntilTimeout
     /tmp/ccyFKXfi.s:158    .text.I2SEx_FullDuplexWaitFlagStateUntilTimeout:00000000000000b0 $d
     /tmp/ccyFKXfi.s:163    .text.I2SEx_TxRxDMAError:0000000000000000 $t
     /tmp/ccyFKXfi.s:169    .text.I2SEx_TxRxDMAError:0000000000000000 I2SEx_TxRxDMAError
     /tmp/ccyFKXfi.s:224    .text.I2SEx_TxRxDMAError:0000000000000040 $d
     /tmp/ccyFKXfi.s:230    .text.HAL_I2SEx_TransmitReceive:0000000000000000 $t
     /tmp/ccyFKXfi.s:237    .text.HAL_I2SEx_TransmitReceive:0000000000000000 HAL_I2SEx_TransmitReceive
     /tmp/ccyFKXfi.s:771    .text.HAL_I2SEx_TransmitReceive:00000000000002e4 $d
     /tmp/ccyFKXfi.s:776    .text.HAL_I2SEx_TransmitReceive:00000000000002ec $t
     /tmp/ccyFKXfi.s:866    .text.HAL_I2SEx_TransmitReceive_IT:0000000000000000 $t
     /tmp/ccyFKXfi.s:873    .text.HAL_I2SEx_TransmitReceive_IT:0000000000000000 HAL_I2SEx_TransmitReceive_IT
     /tmp/ccyFKXfi.s:1152   .text.HAL_I2SEx_TransmitReceive_IT:0000000000000168 $d
     /tmp/ccyFKXfi.s:1158   .text.HAL_I2SEx_TransmitReceive_DMA:0000000000000000 $t
     /tmp/ccyFKXfi.s:1165   .text.HAL_I2SEx_TransmitReceive_DMA:0000000000000000 HAL_I2SEx_TransmitReceive_DMA
     /tmp/ccyFKXfi.s:1525   .text.HAL_I2SEx_TransmitReceive_DMA:00000000000001d8 $d
     /tmp/ccyFKXfi.s:1560   .text.I2SEx_TxRxDMAHalfCplt:0000000000000000 I2SEx_TxRxDMAHalfCplt
     /tmp/ccyFKXfi.s:1610   .text.I2SEx_TxRxDMACplt:0000000000000000 I2SEx_TxRxDMACplt
     /tmp/ccyFKXfi.s:1534   .text.HAL_I2SEx_TxRxHalfCpltCallback:0000000000000000 $t
     /tmp/ccyFKXfi.s:1541   .text.HAL_I2SEx_TxRxHalfCpltCallback:0000000000000000 HAL_I2SEx_TxRxHalfCpltCallback
     /tmp/ccyFKXfi.s:1554   .text.I2SEx_TxRxDMAHalfCplt:0000000000000000 $t
     /tmp/ccyFKXfi.s:1584   .text.HAL_I2SEx_TxRxCpltCallback:0000000000000000 $t
     /tmp/ccyFKXfi.s:1591   .text.HAL_I2SEx_TxRxCpltCallback:0000000000000000 HAL_I2SEx_TxRxCpltCallback
     /tmp/ccyFKXfi.s:1604   .text.I2SEx_TxRxDMACplt:0000000000000000 $t
     /tmp/ccyFKXfi.s:1753   .text.I2SEx_TxRxDMACplt:00000000000000bc $d
     /tmp/ccyFKXfi.s:1758   .text.I2SEx_TxISR_I2S:0000000000000000 $t
     /tmp/ccyFKXfi.s:1764   .text.I2SEx_TxISR_I2S:0000000000000000 I2SEx_TxISR_I2S
     /tmp/ccyFKXfi.s:1819   .text.I2SEx_RxISR_I2SExt:0000000000000000 $t
     /tmp/ccyFKXfi.s:1825   .text.I2SEx_RxISR_I2SExt:0000000000000000 I2SEx_RxISR_I2SExt
     /tmp/ccyFKXfi.s:1899   .text.I2SEx_RxISR_I2SExt:000000000000005c $d
     /tmp/ccyFKXfi.s:1905   .text.I2SEx_TxISR_I2SExt:0000000000000000 $t
     /tmp/ccyFKXfi.s:1911   .text.I2SEx_TxISR_I2SExt:0000000000000000 I2SEx_TxISR_I2SExt
     /tmp/ccyFKXfi.s:1985   .text.I2SEx_TxISR_I2SExt:0000000000000058 $d
     /tmp/ccyFKXfi.s:1991   .text.I2SEx_RxISR_I2S:0000000000000000 $t
     /tmp/ccyFKXfi.s:1997   .text.I2SEx_RxISR_I2S:0000000000000000 I2SEx_RxISR_I2S
     /tmp/ccyFKXfi.s:2052   .text.HAL_I2SEx_FullDuplex_IRQHandler:0000000000000000 $t
     /tmp/ccyFKXfi.s:2059   .text.HAL_I2SEx_FullDuplex_IRQHandler:0000000000000000 HAL_I2SEx_FullDuplex_IRQHandler
     /tmp/ccyFKXfi.s:2367   .text.HAL_I2SEx_FullDuplex_IRQHandler:00000000000001d0 $d
                     .debug_frame:0000000000000010 $d

UNDEFINED SYMBOLS
HAL_GetTick
HAL_I2S_ErrorCallback
HAL_DMA_Start_IT
