ARM GAS  /tmp/cc6XjLyw.s 			page 1


   1              		.cpu cortex-m4
   2              		.eabi_attribute 27, 1
   3              		.eabi_attribute 28, 1
   4              		.eabi_attribute 20, 1
   5              		.eabi_attribute 21, 1
   6              		.eabi_attribute 23, 3
   7              		.eabi_attribute 24, 1
   8              		.eabi_attribute 25, 1
   9              		.eabi_attribute 26, 1
  10              		.eabi_attribute 30, 1
  11              		.eabi_attribute 34, 1
  12              		.eabi_attribute 18, 4
  13              		.file	"timer.c"
  14              		.text
  15              	.Ltext0:
  16              		.cfi_sections	.debug_frame
  17              		.section	.text._tim_pwm_get_hw_info,"ax",%progbits
  18              		.align	1
  19              		.syntax unified
  20              		.thumb
  21              		.thumb_func
  22              		.fpu fpv4-sp-d16
  24              	_tim_pwm_get_hw_info:
  25              	.LFB133:
  26              		.file 1 "/home/phong/Documents/thesis/stm32f4/stm-idf/components/driver/timer.c"
   1:/home/phong/Documents/thesis/stm32f4/stm-idf/components/driver/timer.c **** #include "driver/timer.h"
   2:/home/phong/Documents/thesis/stm32f4/stm-idf/components/driver/timer.c **** 
   3:/home/phong/Documents/thesis/stm32f4/stm-idf/components/driver/timer.c **** #define GPIO_MODE_DEFAULT           GPIO_MODE_AF_PP             /*!< Default GPIO mode */
   4:/home/phong/Documents/thesis/stm32f4/stm-idf/components/driver/timer.c **** #define GPIO_PULL_REG_DEFAULT       GPIO_NOPULL                 /*!< Default GPIO pull registor */
   5:/home/phong/Documents/thesis/stm32f4/stm-idf/components/driver/timer.c **** #define GPIO_SPEED_FREQ_DEFAULT     GPIO_SPEED_FREQ_VERY_HIGH   /*!< Default GPIO speed */
   6:/home/phong/Documents/thesis/stm32f4/stm-idf/components/driver/timer.c **** 
   7:/home/phong/Documents/thesis/stm32f4/stm-idf/components/driver/timer.c **** #define PWM_COUNTERMODE_DEFAULT     TIM_COUNTERMODE_UP          /*!< Default PWM counter mode */
   8:/home/phong/Documents/thesis/stm32f4/stm-idf/components/driver/timer.c **** #define PWM_TIM_CLOCK_DIV_DEFAULT   TIM_CLOCKDIVISION_DIV1      /*!< Default PWM timer clock divide
   9:/home/phong/Documents/thesis/stm32f4/stm-idf/components/driver/timer.c **** 
  10:/home/phong/Documents/thesis/stm32f4/stm-idf/components/driver/timer.c **** #define EXT_CNT_PRES_DEFAULT        0                           /*!< Default external counter presc
  11:/home/phong/Documents/thesis/stm32f4/stm-idf/components/driver/timer.c **** 
  12:/home/phong/Documents/thesis/stm32f4/stm-idf/components/driver/timer.c **** #define SYSTEM_CLOCK                168000000                   /*!< System clock */
  13:/home/phong/Documents/thesis/stm32f4/stm-idf/components/driver/timer.c **** #define APB1_CLOCK                  (SYSTEM_CLOCK/2)            /*!< APB1 clock */
  14:/home/phong/Documents/thesis/stm32f4/stm-idf/components/driver/timer.c **** #define APB2_CLOCK                  (SYSTEM_CLOCK)              /*!< APB2 clock */
  15:/home/phong/Documents/thesis/stm32f4/stm-idf/components/driver/timer.c **** 
  16:/home/phong/Documents/thesis/stm32f4/stm-idf/components/driver/timer.c **** #define TIMER_MAX_RELOAD            0xFFFF                      /*!< User timer max value (16bit va
  17:/home/phong/Documents/thesis/stm32f4/stm-idf/components/driver/timer.c **** 
  18:/home/phong/Documents/thesis/stm32f4/stm-idf/components/driver/timer.c **** #define TIMER_NUM_ERR_STR           "timer num error"
  19:/home/phong/Documents/thesis/stm32f4/stm-idf/components/driver/timer.c **** #define TIMER_PINS_PACK_ERR_STR     "timer pins pack error"
  20:/home/phong/Documents/thesis/stm32f4/stm-idf/components/driver/timer.c **** #define TIMER_CHANNEL_ERR_STR       "timer channel error"
  21:/home/phong/Documents/thesis/stm32f4/stm-idf/components/driver/timer.c **** 
  22:/home/phong/Documents/thesis/stm32f4/stm-idf/components/driver/timer.c **** #define PWM_INIT_ERR_STR            "pwn init error"
  23:/home/phong/Documents/thesis/stm32f4/stm-idf/components/driver/timer.c **** #define PWM_START_ERR_STR           "pwm start error"
  24:/home/phong/Documents/thesis/stm32f4/stm-idf/components/driver/timer.c **** #define PWM_STOP_ERR_STR            "pwm stop error"
  25:/home/phong/Documents/thesis/stm32f4/stm-idf/components/driver/timer.c **** #define PWM_SET_FREQ_ERR_STR        "pwm set frequency error"
  26:/home/phong/Documents/thesis/stm32f4/stm-idf/components/driver/timer.c **** #define PWM_SET_DUTYCYCLE_ERR_STR   "pwm set duty cycle error"
  27:/home/phong/Documents/thesis/stm32f4/stm-idf/components/driver/timer.c **** #define PWM_SET_PARAMS_ERR_STR      "pwm set params error"
  28:/home/phong/Documents/thesis/stm32f4/stm-idf/components/driver/timer.c **** #define PWM_FREQUENCY_ERR_STR       "pwm frequency error"
  29:/home/phong/Documents/thesis/stm32f4/stm-idf/components/driver/timer.c **** #define PWM_DUTYCYCLE_ERR_STR       "pwm duty cycle error"
  30:/home/phong/Documents/thesis/stm32f4/stm-idf/components/driver/timer.c **** 
  31:/home/phong/Documents/thesis/stm32f4/stm-idf/components/driver/timer.c **** #define ETR_INIT_ERR_STR            "etr init error"
  32:/home/phong/Documents/thesis/stm32f4/stm-idf/components/driver/timer.c **** #define ETR_START_ERR_STR           "etr start error"
ARM GAS  /tmp/cc6XjLyw.s 			page 2


  33:/home/phong/Documents/thesis/stm32f4/stm-idf/components/driver/timer.c **** #define ETR_STOP_ERR_STR            "etr stop error"
  34:/home/phong/Documents/thesis/stm32f4/stm-idf/components/driver/timer.c **** #define ETR_GET_VALUE_ERR_STR       "etr get value error"
  35:/home/phong/Documents/thesis/stm32f4/stm-idf/components/driver/timer.c **** #define ETR_SET_VALUE_ERR_STR       "etr set value error"
  36:/home/phong/Documents/thesis/stm32f4/stm-idf/components/driver/timer.c **** #define ETR_SET_MODE_ERR_STR        "etr set mode error"
  37:/home/phong/Documents/thesis/stm32f4/stm-idf/components/driver/timer.c **** 
  38:/home/phong/Documents/thesis/stm32f4/stm-idf/components/driver/timer.c **** static const char* TIMER_TAG = "DRIVER TIMER";
  39:/home/phong/Documents/thesis/stm32f4/stm-idf/components/driver/timer.c **** #define TIMER_CHECK(a, str, ret)  if(!(a)) {                                             \
  40:/home/phong/Documents/thesis/stm32f4/stm-idf/components/driver/timer.c ****         STM_LOGE(TIMER_TAG,"%s:%d (%s):%s", __FILE__, __LINE__, __FUNCTION__, str);      \
  41:/home/phong/Documents/thesis/stm32f4/stm-idf/components/driver/timer.c ****         return (ret);                                                                  \
  42:/home/phong/Documents/thesis/stm32f4/stm-idf/components/driver/timer.c ****         }
  43:/home/phong/Documents/thesis/stm32f4/stm-idf/components/driver/timer.c **** 
  44:/home/phong/Documents/thesis/stm32f4/stm-idf/components/driver/timer.c **** /*
  45:/home/phong/Documents/thesis/stm32f4/stm-idf/components/driver/timer.c ****  * Timer Hardware Information.
  46:/home/phong/Documents/thesis/stm32f4/stm-idf/components/driver/timer.c ****  */
  47:/home/phong/Documents/thesis/stm32f4/stm-idf/components/driver/timer.c **** #define TIM1_CH1_PP1_HW_INFO        {.rcc_apbenr_timen = RCC_APB2ENR_TIM1EN,    \
  48:/home/phong/Documents/thesis/stm32f4/stm-idf/components/driver/timer.c ****                                      .rcc_ahbenr_gpioen = RCC_AHB1ENR_GPIOAEN,  \
  49:/home/phong/Documents/thesis/stm32f4/stm-idf/components/driver/timer.c ****                                      .timer = TIM1,                             \
  50:/home/phong/Documents/thesis/stm32f4/stm-idf/components/driver/timer.c ****                                      .port = GPIOA,                             \
  51:/home/phong/Documents/thesis/stm32f4/stm-idf/components/driver/timer.c ****                                      .pin = GPIO_PIN_8,                         \
  52:/home/phong/Documents/thesis/stm32f4/stm-idf/components/driver/timer.c ****                                      .alternate_func = GPIO_AF1_TIM1}
  53:/home/phong/Documents/thesis/stm32f4/stm-idf/components/driver/timer.c **** 
  54:/home/phong/Documents/thesis/stm32f4/stm-idf/components/driver/timer.c **** #define TIM1_CH1_PP2_HW_INFO        {.rcc_apbenr_timen = RCC_APB2ENR_TIM1EN,    \
  55:/home/phong/Documents/thesis/stm32f4/stm-idf/components/driver/timer.c ****                                      .rcc_ahbenr_gpioen = RCC_AHB1ENR_GPIOEEN,  \
  56:/home/phong/Documents/thesis/stm32f4/stm-idf/components/driver/timer.c ****                                      .timer = TIM1,                             \
  57:/home/phong/Documents/thesis/stm32f4/stm-idf/components/driver/timer.c ****                                      .port = GPIOE,                             \
  58:/home/phong/Documents/thesis/stm32f4/stm-idf/components/driver/timer.c ****                                      .pin = GPIO_PIN_9,                         \
  59:/home/phong/Documents/thesis/stm32f4/stm-idf/components/driver/timer.c ****                                      .alternate_func = GPIO_AF1_TIM1}
  60:/home/phong/Documents/thesis/stm32f4/stm-idf/components/driver/timer.c **** 
  61:/home/phong/Documents/thesis/stm32f4/stm-idf/components/driver/timer.c **** #define TIM1_CH2_PP1_HW_INFO        {.rcc_apbenr_timen = RCC_APB2ENR_TIM1EN,    \
  62:/home/phong/Documents/thesis/stm32f4/stm-idf/components/driver/timer.c ****                                      .rcc_ahbenr_gpioen = RCC_AHB1ENR_GPIOAEN,  \
  63:/home/phong/Documents/thesis/stm32f4/stm-idf/components/driver/timer.c ****                                      .timer = TIM1,                             \
  64:/home/phong/Documents/thesis/stm32f4/stm-idf/components/driver/timer.c ****                                      .port = GPIOA,                             \
  65:/home/phong/Documents/thesis/stm32f4/stm-idf/components/driver/timer.c ****                                      .pin = GPIO_PIN_9,                         \
  66:/home/phong/Documents/thesis/stm32f4/stm-idf/components/driver/timer.c ****                                      .alternate_func = GPIO_AF1_TIM1}
  67:/home/phong/Documents/thesis/stm32f4/stm-idf/components/driver/timer.c **** 
  68:/home/phong/Documents/thesis/stm32f4/stm-idf/components/driver/timer.c **** #define TIM1_CH2_PP2_HW_INFO        {.rcc_apbenr_timen = RCC_APB2ENR_TIM1EN,    \
  69:/home/phong/Documents/thesis/stm32f4/stm-idf/components/driver/timer.c ****                                      .rcc_ahbenr_gpioen = RCC_AHB1ENR_GPIOEEN,  \
  70:/home/phong/Documents/thesis/stm32f4/stm-idf/components/driver/timer.c ****                                      .timer = TIM1,                             \
  71:/home/phong/Documents/thesis/stm32f4/stm-idf/components/driver/timer.c ****                                      .port = GPIOE,                             \
  72:/home/phong/Documents/thesis/stm32f4/stm-idf/components/driver/timer.c ****                                      .pin = GPIO_PIN_10,                        \
  73:/home/phong/Documents/thesis/stm32f4/stm-idf/components/driver/timer.c ****                                      .alternate_func = GPIO_AF1_TIM1}
  74:/home/phong/Documents/thesis/stm32f4/stm-idf/components/driver/timer.c **** 
  75:/home/phong/Documents/thesis/stm32f4/stm-idf/components/driver/timer.c **** #define TIM1_CH3_PP1_HW_INFO        {.rcc_apbenr_timen = RCC_APB2ENR_TIM1EN,    \
  76:/home/phong/Documents/thesis/stm32f4/stm-idf/components/driver/timer.c ****                                      .rcc_ahbenr_gpioen = RCC_AHB1ENR_GPIOAEN,  \
  77:/home/phong/Documents/thesis/stm32f4/stm-idf/components/driver/timer.c ****                                      .timer = TIM1,                             \
  78:/home/phong/Documents/thesis/stm32f4/stm-idf/components/driver/timer.c ****                                      .port = GPIOA,                             \
  79:/home/phong/Documents/thesis/stm32f4/stm-idf/components/driver/timer.c ****                                      .pin = GPIO_PIN_10,                        \
  80:/home/phong/Documents/thesis/stm32f4/stm-idf/components/driver/timer.c ****                                      .alternate_func = GPIO_AF1_TIM1}
  81:/home/phong/Documents/thesis/stm32f4/stm-idf/components/driver/timer.c **** 
  82:/home/phong/Documents/thesis/stm32f4/stm-idf/components/driver/timer.c **** #define TIM1_CH3_PP2_HW_INFO        {.rcc_apbenr_timen = RCC_APB2ENR_TIM1EN,    \
  83:/home/phong/Documents/thesis/stm32f4/stm-idf/components/driver/timer.c ****                                      .rcc_ahbenr_gpioen = RCC_AHB1ENR_GPIOEEN,  \
  84:/home/phong/Documents/thesis/stm32f4/stm-idf/components/driver/timer.c ****                                      .timer = TIM1,                             \
  85:/home/phong/Documents/thesis/stm32f4/stm-idf/components/driver/timer.c ****                                      .port = GPIOE,                             \
  86:/home/phong/Documents/thesis/stm32f4/stm-idf/components/driver/timer.c ****                                      .pin = GPIO_PIN_13,                        \
  87:/home/phong/Documents/thesis/stm32f4/stm-idf/components/driver/timer.c ****                                      .alternate_func = GPIO_AF1_TIM1}
  88:/home/phong/Documents/thesis/stm32f4/stm-idf/components/driver/timer.c **** 
  89:/home/phong/Documents/thesis/stm32f4/stm-idf/components/driver/timer.c **** #define TIM1_CH4_PP1_HW_INFO        {.rcc_apbenr_timen = RCC_APB2ENR_TIM1EN,    \
ARM GAS  /tmp/cc6XjLyw.s 			page 3


  90:/home/phong/Documents/thesis/stm32f4/stm-idf/components/driver/timer.c ****                                      .rcc_ahbenr_gpioen = RCC_AHB1ENR_GPIOAEN,  \
  91:/home/phong/Documents/thesis/stm32f4/stm-idf/components/driver/timer.c ****                                      .timer = TIM1,                             \
  92:/home/phong/Documents/thesis/stm32f4/stm-idf/components/driver/timer.c ****                                      .port = GPIOA,                             \
  93:/home/phong/Documents/thesis/stm32f4/stm-idf/components/driver/timer.c ****                                      .pin = GPIO_PIN_11,                        \
  94:/home/phong/Documents/thesis/stm32f4/stm-idf/components/driver/timer.c ****                                      .alternate_func = GPIO_AF1_TIM1}
  95:/home/phong/Documents/thesis/stm32f4/stm-idf/components/driver/timer.c **** 
  96:/home/phong/Documents/thesis/stm32f4/stm-idf/components/driver/timer.c **** #define TIM1_CH4_PP2_HW_INFO        {.rcc_apbenr_timen = RCC_APB2ENR_TIM1EN,    \
  97:/home/phong/Documents/thesis/stm32f4/stm-idf/components/driver/timer.c ****                                      .rcc_ahbenr_gpioen = RCC_AHB1ENR_GPIOEEN,  \
  98:/home/phong/Documents/thesis/stm32f4/stm-idf/components/driver/timer.c ****                                      .timer = TIM1,                             \
  99:/home/phong/Documents/thesis/stm32f4/stm-idf/components/driver/timer.c ****                                      .port = GPIOE,                             \
 100:/home/phong/Documents/thesis/stm32f4/stm-idf/components/driver/timer.c ****                                      .pin = GPIO_PIN_14,                        \
 101:/home/phong/Documents/thesis/stm32f4/stm-idf/components/driver/timer.c ****                                      .alternate_func = GPIO_AF1_TIM1}
 102:/home/phong/Documents/thesis/stm32f4/stm-idf/components/driver/timer.c **** 
 103:/home/phong/Documents/thesis/stm32f4/stm-idf/components/driver/timer.c **** #define TIM2_CH1_PP1_HW_INFO        {.rcc_apbenr_timen = RCC_APB1ENR_TIM2EN,    \
 104:/home/phong/Documents/thesis/stm32f4/stm-idf/components/driver/timer.c ****                                      .rcc_ahbenr_gpioen = RCC_AHB1ENR_GPIOAEN,  \
 105:/home/phong/Documents/thesis/stm32f4/stm-idf/components/driver/timer.c ****                                      .timer = TIM2,                             \
 106:/home/phong/Documents/thesis/stm32f4/stm-idf/components/driver/timer.c ****                                      .port = GPIOA,                             \
 107:/home/phong/Documents/thesis/stm32f4/stm-idf/components/driver/timer.c ****                                      .pin = GPIO_PIN_0,                         \
 108:/home/phong/Documents/thesis/stm32f4/stm-idf/components/driver/timer.c ****                                      .alternate_func = GPIO_AF1_TIM2}
 109:/home/phong/Documents/thesis/stm32f4/stm-idf/components/driver/timer.c **** 
 110:/home/phong/Documents/thesis/stm32f4/stm-idf/components/driver/timer.c **** #define TIM2_CH1_PP2_HW_INFO        {.rcc_apbenr_timen = RCC_APB1ENR_TIM2EN,    \
 111:/home/phong/Documents/thesis/stm32f4/stm-idf/components/driver/timer.c ****                                      .rcc_ahbenr_gpioen = RCC_AHB1ENR_GPIOAEN,  \
 112:/home/phong/Documents/thesis/stm32f4/stm-idf/components/driver/timer.c ****                                      .timer = TIM2,                             \
 113:/home/phong/Documents/thesis/stm32f4/stm-idf/components/driver/timer.c ****                                      .port = GPIOA,                             \
 114:/home/phong/Documents/thesis/stm32f4/stm-idf/components/driver/timer.c ****                                      .pin = GPIO_PIN_5,                         \
 115:/home/phong/Documents/thesis/stm32f4/stm-idf/components/driver/timer.c ****                                      .alternate_func = GPIO_AF1_TIM2}
 116:/home/phong/Documents/thesis/stm32f4/stm-idf/components/driver/timer.c **** 
 117:/home/phong/Documents/thesis/stm32f4/stm-idf/components/driver/timer.c **** #define TIM2_CH1_PP3_HW_INFO        {.rcc_apbenr_timen = RCC_APB1ENR_TIM2EN,    \
 118:/home/phong/Documents/thesis/stm32f4/stm-idf/components/driver/timer.c ****                                      .rcc_ahbenr_gpioen = RCC_AHB1ENR_GPIOAEN,  \
 119:/home/phong/Documents/thesis/stm32f4/stm-idf/components/driver/timer.c ****                                      .timer = TIM2,                             \
 120:/home/phong/Documents/thesis/stm32f4/stm-idf/components/driver/timer.c ****                                      .port = GPIOA,                             \
 121:/home/phong/Documents/thesis/stm32f4/stm-idf/components/driver/timer.c ****                                      .pin = GPIO_PIN_15,                        \
 122:/home/phong/Documents/thesis/stm32f4/stm-idf/components/driver/timer.c ****                                      .alternate_func = GPIO_AF1_TIM2}
 123:/home/phong/Documents/thesis/stm32f4/stm-idf/components/driver/timer.c **** 
 124:/home/phong/Documents/thesis/stm32f4/stm-idf/components/driver/timer.c **** #define TIM2_CH2_PP1_HW_INFO        {.rcc_apbenr_timen = RCC_APB1ENR_TIM2EN,    \
 125:/home/phong/Documents/thesis/stm32f4/stm-idf/components/driver/timer.c ****                                      .rcc_ahbenr_gpioen = RCC_AHB1ENR_GPIOAEN,  \
 126:/home/phong/Documents/thesis/stm32f4/stm-idf/components/driver/timer.c ****                                      .timer = TIM2,                             \
 127:/home/phong/Documents/thesis/stm32f4/stm-idf/components/driver/timer.c ****                                      .port = GPIOA,                             \
 128:/home/phong/Documents/thesis/stm32f4/stm-idf/components/driver/timer.c ****                                      .pin = GPIO_PIN_1,                         \
 129:/home/phong/Documents/thesis/stm32f4/stm-idf/components/driver/timer.c ****                                      .alternate_func = GPIO_AF1_TIM2}
 130:/home/phong/Documents/thesis/stm32f4/stm-idf/components/driver/timer.c **** 
 131:/home/phong/Documents/thesis/stm32f4/stm-idf/components/driver/timer.c **** #define TIM2_CH2_PP2_HW_INFO        {.rcc_apbenr_timen = RCC_APB1ENR_TIM2EN,    \
 132:/home/phong/Documents/thesis/stm32f4/stm-idf/components/driver/timer.c ****                                      .rcc_ahbenr_gpioen = RCC_AHB1ENR_GPIOBEN,  \
 133:/home/phong/Documents/thesis/stm32f4/stm-idf/components/driver/timer.c ****                                      .timer = TIM2,                             \
 134:/home/phong/Documents/thesis/stm32f4/stm-idf/components/driver/timer.c ****                                      .port = GPIOB,                             \
 135:/home/phong/Documents/thesis/stm32f4/stm-idf/components/driver/timer.c ****                                      .pin = GPIO_PIN_3,                         \
 136:/home/phong/Documents/thesis/stm32f4/stm-idf/components/driver/timer.c ****                                      .alternate_func = GPIO_AF1_TIM2}
 137:/home/phong/Documents/thesis/stm32f4/stm-idf/components/driver/timer.c **** 
 138:/home/phong/Documents/thesis/stm32f4/stm-idf/components/driver/timer.c **** #define TIM2_CH3_PP1_HW_INFO        {.rcc_apbenr_timen = RCC_APB1ENR_TIM2EN,    \
 139:/home/phong/Documents/thesis/stm32f4/stm-idf/components/driver/timer.c ****                                      .rcc_ahbenr_gpioen = RCC_AHB1ENR_GPIOAEN,  \
 140:/home/phong/Documents/thesis/stm32f4/stm-idf/components/driver/timer.c ****                                      .timer = TIM2,                             \
 141:/home/phong/Documents/thesis/stm32f4/stm-idf/components/driver/timer.c ****                                      .port = GPIOA,                             \
 142:/home/phong/Documents/thesis/stm32f4/stm-idf/components/driver/timer.c ****                                      .pin = GPIO_PIN_2,                         \
 143:/home/phong/Documents/thesis/stm32f4/stm-idf/components/driver/timer.c ****                                      .alternate_func = GPIO_AF1_TIM2}
 144:/home/phong/Documents/thesis/stm32f4/stm-idf/components/driver/timer.c **** 
 145:/home/phong/Documents/thesis/stm32f4/stm-idf/components/driver/timer.c **** #define TIM2_CH3_PP2_HW_INFO        {.rcc_apbenr_timen = RCC_APB1ENR_TIM2EN,    \
 146:/home/phong/Documents/thesis/stm32f4/stm-idf/components/driver/timer.c ****                                      .rcc_ahbenr_gpioen = RCC_AHB1ENR_GPIOBEN,  \
ARM GAS  /tmp/cc6XjLyw.s 			page 4


 147:/home/phong/Documents/thesis/stm32f4/stm-idf/components/driver/timer.c ****                                      .timer = TIM2,                             \
 148:/home/phong/Documents/thesis/stm32f4/stm-idf/components/driver/timer.c ****                                      .port = GPIOB,                             \
 149:/home/phong/Documents/thesis/stm32f4/stm-idf/components/driver/timer.c ****                                      .pin = GPIO_PIN_10,                        \
 150:/home/phong/Documents/thesis/stm32f4/stm-idf/components/driver/timer.c ****                                      .alternate_func = GPIO_AF1_TIM2}
 151:/home/phong/Documents/thesis/stm32f4/stm-idf/components/driver/timer.c **** 
 152:/home/phong/Documents/thesis/stm32f4/stm-idf/components/driver/timer.c **** #define TIM2_CH4_PP1_HW_INFO        {.rcc_apbenr_timen = RCC_APB1ENR_TIM2EN,    \
 153:/home/phong/Documents/thesis/stm32f4/stm-idf/components/driver/timer.c ****                                      .rcc_ahbenr_gpioen = RCC_AHB1ENR_GPIOAEN,  \
 154:/home/phong/Documents/thesis/stm32f4/stm-idf/components/driver/timer.c ****                                      .timer = TIM2,                             \
 155:/home/phong/Documents/thesis/stm32f4/stm-idf/components/driver/timer.c ****                                      .port = GPIOA,                             \
 156:/home/phong/Documents/thesis/stm32f4/stm-idf/components/driver/timer.c ****                                      .pin = GPIO_PIN_3,                         \
 157:/home/phong/Documents/thesis/stm32f4/stm-idf/components/driver/timer.c ****                                      .alternate_func = GPIO_AF1_TIM2}
 158:/home/phong/Documents/thesis/stm32f4/stm-idf/components/driver/timer.c **** 
 159:/home/phong/Documents/thesis/stm32f4/stm-idf/components/driver/timer.c **** #define TIM2_CH4_PP2_HW_INFO        {.rcc_apbenr_timen = RCC_APB1ENR_TIM2EN,    \
 160:/home/phong/Documents/thesis/stm32f4/stm-idf/components/driver/timer.c ****                                      .rcc_ahbenr_gpioen = RCC_AHB1ENR_GPIOBEN,  \
 161:/home/phong/Documents/thesis/stm32f4/stm-idf/components/driver/timer.c ****                                      .timer = TIM2,                             \
 162:/home/phong/Documents/thesis/stm32f4/stm-idf/components/driver/timer.c ****                                      .port = GPIOB,                             \
 163:/home/phong/Documents/thesis/stm32f4/stm-idf/components/driver/timer.c ****                                      .pin = GPIO_PIN_11,                        \
 164:/home/phong/Documents/thesis/stm32f4/stm-idf/components/driver/timer.c ****                                      .alternate_func = GPIO_AF1_TIM2}
 165:/home/phong/Documents/thesis/stm32f4/stm-idf/components/driver/timer.c **** 
 166:/home/phong/Documents/thesis/stm32f4/stm-idf/components/driver/timer.c **** #define TIM3_CH1_PP1_HW_INFO        {.rcc_apbenr_timen = RCC_APB1ENR_TIM3EN,    \
 167:/home/phong/Documents/thesis/stm32f4/stm-idf/components/driver/timer.c ****                                      .rcc_ahbenr_gpioen = RCC_AHB1ENR_GPIOAEN,  \
 168:/home/phong/Documents/thesis/stm32f4/stm-idf/components/driver/timer.c ****                                      .timer = TIM3,                             \
 169:/home/phong/Documents/thesis/stm32f4/stm-idf/components/driver/timer.c ****                                      .port = GPIOA,                             \
 170:/home/phong/Documents/thesis/stm32f4/stm-idf/components/driver/timer.c ****                                      .pin = GPIO_PIN_6,                         \
 171:/home/phong/Documents/thesis/stm32f4/stm-idf/components/driver/timer.c ****                                      .alternate_func = GPIO_AF2_TIM3}
 172:/home/phong/Documents/thesis/stm32f4/stm-idf/components/driver/timer.c **** 
 173:/home/phong/Documents/thesis/stm32f4/stm-idf/components/driver/timer.c **** #define TIM3_CH1_PP2_HW_INFO        {.rcc_apbenr_timen = RCC_APB1ENR_TIM3EN,    \
 174:/home/phong/Documents/thesis/stm32f4/stm-idf/components/driver/timer.c ****                                      .rcc_ahbenr_gpioen = RCC_AHB1ENR_GPIOBEN,  \
 175:/home/phong/Documents/thesis/stm32f4/stm-idf/components/driver/timer.c ****                                      .timer = TIM3,                             \
 176:/home/phong/Documents/thesis/stm32f4/stm-idf/components/driver/timer.c ****                                      .port = GPIOB,                             \
 177:/home/phong/Documents/thesis/stm32f4/stm-idf/components/driver/timer.c ****                                      .pin = GPIO_PIN_4,                         \
 178:/home/phong/Documents/thesis/stm32f4/stm-idf/components/driver/timer.c ****                                      .alternate_func = GPIO_AF2_TIM3}
 179:/home/phong/Documents/thesis/stm32f4/stm-idf/components/driver/timer.c **** 
 180:/home/phong/Documents/thesis/stm32f4/stm-idf/components/driver/timer.c **** #define TIM3_CH1_PP3_HW_INFO        {.rcc_apbenr_timen = RCC_APB1ENR_TIM3EN,    \
 181:/home/phong/Documents/thesis/stm32f4/stm-idf/components/driver/timer.c ****                                      .rcc_ahbenr_gpioen = RCC_AHB1ENR_GPIOCEN,  \
 182:/home/phong/Documents/thesis/stm32f4/stm-idf/components/driver/timer.c ****                                      .timer = TIM3,                             \
 183:/home/phong/Documents/thesis/stm32f4/stm-idf/components/driver/timer.c ****                                      .port = GPIOC,                             \
 184:/home/phong/Documents/thesis/stm32f4/stm-idf/components/driver/timer.c ****                                      .pin = GPIO_PIN_6,                         \
 185:/home/phong/Documents/thesis/stm32f4/stm-idf/components/driver/timer.c ****                                      .alternate_func = GPIO_AF2_TIM3}
 186:/home/phong/Documents/thesis/stm32f4/stm-idf/components/driver/timer.c **** 
 187:/home/phong/Documents/thesis/stm32f4/stm-idf/components/driver/timer.c **** #define TIM3_CH2_PP1_HW_INFO        {.rcc_apbenr_timen = RCC_APB1ENR_TIM3EN,    \
 188:/home/phong/Documents/thesis/stm32f4/stm-idf/components/driver/timer.c ****                                      .rcc_ahbenr_gpioen = RCC_AHB1ENR_GPIOAEN,  \
 189:/home/phong/Documents/thesis/stm32f4/stm-idf/components/driver/timer.c ****                                      .timer = TIM3,                             \
 190:/home/phong/Documents/thesis/stm32f4/stm-idf/components/driver/timer.c ****                                      .port = GPIOA,                             \
 191:/home/phong/Documents/thesis/stm32f4/stm-idf/components/driver/timer.c ****                                      .pin = GPIO_PIN_7,                         \
 192:/home/phong/Documents/thesis/stm32f4/stm-idf/components/driver/timer.c ****                                      .alternate_func = GPIO_AF2_TIM3}
 193:/home/phong/Documents/thesis/stm32f4/stm-idf/components/driver/timer.c **** 
 194:/home/phong/Documents/thesis/stm32f4/stm-idf/components/driver/timer.c **** #define TIM3_CH2_PP2_HW_INFO        {.rcc_apbenr_timen = RCC_APB1ENR_TIM3EN,    \
 195:/home/phong/Documents/thesis/stm32f4/stm-idf/components/driver/timer.c ****                                      .rcc_ahbenr_gpioen = RCC_AHB1ENR_GPIOBEN,  \
 196:/home/phong/Documents/thesis/stm32f4/stm-idf/components/driver/timer.c ****                                      .timer = TIM3,                             \
 197:/home/phong/Documents/thesis/stm32f4/stm-idf/components/driver/timer.c ****                                      .port = GPIOB,                             \
 198:/home/phong/Documents/thesis/stm32f4/stm-idf/components/driver/timer.c ****                                      .pin = GPIO_PIN_5,                         \
 199:/home/phong/Documents/thesis/stm32f4/stm-idf/components/driver/timer.c ****                                      .alternate_func = GPIO_AF2_TIM3}
 200:/home/phong/Documents/thesis/stm32f4/stm-idf/components/driver/timer.c **** 
 201:/home/phong/Documents/thesis/stm32f4/stm-idf/components/driver/timer.c **** #define TIM3_CH2_PP3_HW_INFO        {.rcc_apbenr_timen = RCC_APB1ENR_TIM3EN,    \
 202:/home/phong/Documents/thesis/stm32f4/stm-idf/components/driver/timer.c ****                                      .rcc_ahbenr_gpioen = RCC_AHB1ENR_GPIOCEN,  \
 203:/home/phong/Documents/thesis/stm32f4/stm-idf/components/driver/timer.c ****                                      .timer = TIM3,                             \
ARM GAS  /tmp/cc6XjLyw.s 			page 5


 204:/home/phong/Documents/thesis/stm32f4/stm-idf/components/driver/timer.c ****                                      .port = GPIOC,                             \
 205:/home/phong/Documents/thesis/stm32f4/stm-idf/components/driver/timer.c ****                                      .pin = GPIO_PIN_7,                         \
 206:/home/phong/Documents/thesis/stm32f4/stm-idf/components/driver/timer.c ****                                      .alternate_func = GPIO_AF2_TIM3}
 207:/home/phong/Documents/thesis/stm32f4/stm-idf/components/driver/timer.c **** 
 208:/home/phong/Documents/thesis/stm32f4/stm-idf/components/driver/timer.c **** #define TIM3_CH3_PP1_HW_INFO        {.rcc_apbenr_timen = RCC_APB1ENR_TIM3EN,    \
 209:/home/phong/Documents/thesis/stm32f4/stm-idf/components/driver/timer.c ****                                      .rcc_ahbenr_gpioen = RCC_AHB1ENR_GPIOBEN,  \
 210:/home/phong/Documents/thesis/stm32f4/stm-idf/components/driver/timer.c ****                                      .timer = TIM3,                             \
 211:/home/phong/Documents/thesis/stm32f4/stm-idf/components/driver/timer.c ****                                      .port = GPIOB,                             \
 212:/home/phong/Documents/thesis/stm32f4/stm-idf/components/driver/timer.c ****                                      .pin = GPIO_PIN_0,                         \
 213:/home/phong/Documents/thesis/stm32f4/stm-idf/components/driver/timer.c ****                                      .alternate_func = GPIO_AF2_TIM3}
 214:/home/phong/Documents/thesis/stm32f4/stm-idf/components/driver/timer.c **** 
 215:/home/phong/Documents/thesis/stm32f4/stm-idf/components/driver/timer.c **** #define TIM3_CH3_PP2_HW_INFO        {.rcc_apbenr_timen = RCC_APB1ENR_TIM3EN,    \
 216:/home/phong/Documents/thesis/stm32f4/stm-idf/components/driver/timer.c ****                                      .rcc_ahbenr_gpioen = RCC_AHB1ENR_GPIOCEN,  \
 217:/home/phong/Documents/thesis/stm32f4/stm-idf/components/driver/timer.c ****                                      .timer = TIM3,                             \
 218:/home/phong/Documents/thesis/stm32f4/stm-idf/components/driver/timer.c ****                                      .port = GPIOC,                             \
 219:/home/phong/Documents/thesis/stm32f4/stm-idf/components/driver/timer.c ****                                      .pin = GPIO_PIN_8,                         \
 220:/home/phong/Documents/thesis/stm32f4/stm-idf/components/driver/timer.c ****                                      .alternate_func = GPIO_AF2_TIM3}
 221:/home/phong/Documents/thesis/stm32f4/stm-idf/components/driver/timer.c **** 
 222:/home/phong/Documents/thesis/stm32f4/stm-idf/components/driver/timer.c **** #define TIM3_CH4_PP1_HW_INFO        {.rcc_apbenr_timen = RCC_APB1ENR_TIM3EN,    \
 223:/home/phong/Documents/thesis/stm32f4/stm-idf/components/driver/timer.c ****                                      .rcc_ahbenr_gpioen = RCC_AHB1ENR_GPIOBEN,  \
 224:/home/phong/Documents/thesis/stm32f4/stm-idf/components/driver/timer.c ****                                      .timer = TIM3,                             \
 225:/home/phong/Documents/thesis/stm32f4/stm-idf/components/driver/timer.c ****                                      .port = GPIOB,                             \
 226:/home/phong/Documents/thesis/stm32f4/stm-idf/components/driver/timer.c ****                                      .pin = GPIO_PIN_1,                         \
 227:/home/phong/Documents/thesis/stm32f4/stm-idf/components/driver/timer.c ****                                      .alternate_func = GPIO_AF2_TIM3}
 228:/home/phong/Documents/thesis/stm32f4/stm-idf/components/driver/timer.c **** 
 229:/home/phong/Documents/thesis/stm32f4/stm-idf/components/driver/timer.c **** #define TIM3_CH4_PP2_HW_INFO        {.rcc_apbenr_timen = RCC_APB1ENR_TIM3EN,    \
 230:/home/phong/Documents/thesis/stm32f4/stm-idf/components/driver/timer.c ****                                      .rcc_ahbenr_gpioen = RCC_AHB1ENR_GPIOCEN,  \
 231:/home/phong/Documents/thesis/stm32f4/stm-idf/components/driver/timer.c ****                                      .timer = TIM3,                             \
 232:/home/phong/Documents/thesis/stm32f4/stm-idf/components/driver/timer.c ****                                      .port = GPIOC,                             \
 233:/home/phong/Documents/thesis/stm32f4/stm-idf/components/driver/timer.c ****                                      .pin = GPIO_PIN_9,                         \
 234:/home/phong/Documents/thesis/stm32f4/stm-idf/components/driver/timer.c ****                                      .alternate_func = GPIO_AF2_TIM3}
 235:/home/phong/Documents/thesis/stm32f4/stm-idf/components/driver/timer.c **** 
 236:/home/phong/Documents/thesis/stm32f4/stm-idf/components/driver/timer.c **** 
 237:/home/phong/Documents/thesis/stm32f4/stm-idf/components/driver/timer.c **** #define TIM4_CH1_PP1_HW_INFO        {.rcc_apbenr_timen = RCC_APB1ENR_TIM4EN,    \
 238:/home/phong/Documents/thesis/stm32f4/stm-idf/components/driver/timer.c ****                                      .rcc_ahbenr_gpioen = RCC_AHB1ENR_GPIOBEN,  \
 239:/home/phong/Documents/thesis/stm32f4/stm-idf/components/driver/timer.c ****                                      .timer = TIM4,                             \
 240:/home/phong/Documents/thesis/stm32f4/stm-idf/components/driver/timer.c ****                                      .port = GPIOB,                             \
 241:/home/phong/Documents/thesis/stm32f4/stm-idf/components/driver/timer.c ****                                      .pin = GPIO_PIN_6,                         \
 242:/home/phong/Documents/thesis/stm32f4/stm-idf/components/driver/timer.c ****                                      .alternate_func = GPIO_AF2_TIM4}
 243:/home/phong/Documents/thesis/stm32f4/stm-idf/components/driver/timer.c **** 
 244:/home/phong/Documents/thesis/stm32f4/stm-idf/components/driver/timer.c **** #define TIM4_CH1_PP2_HW_INFO        {.rcc_apbenr_timen = RCC_APB1ENR_TIM4EN,    \
 245:/home/phong/Documents/thesis/stm32f4/stm-idf/components/driver/timer.c ****                                      .rcc_ahbenr_gpioen = RCC_AHB1ENR_GPIODEN,  \
 246:/home/phong/Documents/thesis/stm32f4/stm-idf/components/driver/timer.c ****                                      .timer = TIM4,                             \
 247:/home/phong/Documents/thesis/stm32f4/stm-idf/components/driver/timer.c ****                                      .port = GPIOD,                             \
 248:/home/phong/Documents/thesis/stm32f4/stm-idf/components/driver/timer.c ****                                      .pin = GPIO_PIN_12,                        \
 249:/home/phong/Documents/thesis/stm32f4/stm-idf/components/driver/timer.c ****                                      .alternate_func = GPIO_AF2_TIM4}
 250:/home/phong/Documents/thesis/stm32f4/stm-idf/components/driver/timer.c **** 
 251:/home/phong/Documents/thesis/stm32f4/stm-idf/components/driver/timer.c **** #define TIM4_CH2_PP1_HW_INFO        {.rcc_apbenr_timen = RCC_APB1ENR_TIM4EN,    \
 252:/home/phong/Documents/thesis/stm32f4/stm-idf/components/driver/timer.c ****                                      .rcc_ahbenr_gpioen = RCC_AHB1ENR_GPIOBEN,  \
 253:/home/phong/Documents/thesis/stm32f4/stm-idf/components/driver/timer.c ****                                      .timer = TIM4,                             \
 254:/home/phong/Documents/thesis/stm32f4/stm-idf/components/driver/timer.c ****                                      .port = GPIOB,                             \
 255:/home/phong/Documents/thesis/stm32f4/stm-idf/components/driver/timer.c ****                                      .pin = GPIO_PIN_7,                         \
 256:/home/phong/Documents/thesis/stm32f4/stm-idf/components/driver/timer.c ****                                      .alternate_func = GPIO_AF2_TIM4}
 257:/home/phong/Documents/thesis/stm32f4/stm-idf/components/driver/timer.c **** 
 258:/home/phong/Documents/thesis/stm32f4/stm-idf/components/driver/timer.c **** #define TIM4_CH2_PP2_HW_INFO        {.rcc_apbenr_timen = RCC_APB1ENR_TIM4EN,    \
 259:/home/phong/Documents/thesis/stm32f4/stm-idf/components/driver/timer.c ****                                      .rcc_ahbenr_gpioen = RCC_AHB1ENR_GPIODEN,  \
 260:/home/phong/Documents/thesis/stm32f4/stm-idf/components/driver/timer.c ****                                      .timer = TIM4,                             \
ARM GAS  /tmp/cc6XjLyw.s 			page 6


 261:/home/phong/Documents/thesis/stm32f4/stm-idf/components/driver/timer.c ****                                      .port = GPIOD,                             \
 262:/home/phong/Documents/thesis/stm32f4/stm-idf/components/driver/timer.c ****                                      .pin = GPIO_PIN_13,                        \
 263:/home/phong/Documents/thesis/stm32f4/stm-idf/components/driver/timer.c ****                                      .alternate_func = GPIO_AF2_TIM4}
 264:/home/phong/Documents/thesis/stm32f4/stm-idf/components/driver/timer.c **** 
 265:/home/phong/Documents/thesis/stm32f4/stm-idf/components/driver/timer.c **** #define TIM4_CH3_PP1_HW_INFO        {.rcc_apbenr_timen = RCC_APB1ENR_TIM4EN,    \
 266:/home/phong/Documents/thesis/stm32f4/stm-idf/components/driver/timer.c ****                                      .rcc_ahbenr_gpioen = RCC_AHB1ENR_GPIOBEN,  \
 267:/home/phong/Documents/thesis/stm32f4/stm-idf/components/driver/timer.c ****                                      .timer = TIM4,                             \
 268:/home/phong/Documents/thesis/stm32f4/stm-idf/components/driver/timer.c ****                                      .port = GPIOB,                             \
 269:/home/phong/Documents/thesis/stm32f4/stm-idf/components/driver/timer.c ****                                      .pin = GPIO_PIN_8,                         \
 270:/home/phong/Documents/thesis/stm32f4/stm-idf/components/driver/timer.c ****                                      .alternate_func = GPIO_AF2_TIM4}
 271:/home/phong/Documents/thesis/stm32f4/stm-idf/components/driver/timer.c **** 
 272:/home/phong/Documents/thesis/stm32f4/stm-idf/components/driver/timer.c **** #define TIM4_CH3_PP2_HW_INFO        {.rcc_apbenr_timen = RCC_APB1ENR_TIM4EN,    \
 273:/home/phong/Documents/thesis/stm32f4/stm-idf/components/driver/timer.c ****                                      .rcc_ahbenr_gpioen = RCC_AHB1ENR_GPIODEN,  \
 274:/home/phong/Documents/thesis/stm32f4/stm-idf/components/driver/timer.c ****                                      .timer = TIM4,                             \
 275:/home/phong/Documents/thesis/stm32f4/stm-idf/components/driver/timer.c ****                                      .port = GPIOD,                             \
 276:/home/phong/Documents/thesis/stm32f4/stm-idf/components/driver/timer.c ****                                      .pin = GPIO_PIN_14,                        \
 277:/home/phong/Documents/thesis/stm32f4/stm-idf/components/driver/timer.c ****                                      .alternate_func = GPIO_AF2_TIM4}
 278:/home/phong/Documents/thesis/stm32f4/stm-idf/components/driver/timer.c **** 
 279:/home/phong/Documents/thesis/stm32f4/stm-idf/components/driver/timer.c **** #define TIM4_CH4_PP1_HW_INFO        {.rcc_apbenr_timen = RCC_APB1ENR_TIM4EN,    \
 280:/home/phong/Documents/thesis/stm32f4/stm-idf/components/driver/timer.c ****                                      .rcc_ahbenr_gpioen = RCC_AHB1ENR_GPIOBEN,  \
 281:/home/phong/Documents/thesis/stm32f4/stm-idf/components/driver/timer.c ****                                      .timer = TIM4,                             \
 282:/home/phong/Documents/thesis/stm32f4/stm-idf/components/driver/timer.c ****                                      .port = GPIOB,                             \
 283:/home/phong/Documents/thesis/stm32f4/stm-idf/components/driver/timer.c ****                                      .pin = GPIO_PIN_9,                         \
 284:/home/phong/Documents/thesis/stm32f4/stm-idf/components/driver/timer.c ****                                      .alternate_func = GPIO_AF2_TIM4}
 285:/home/phong/Documents/thesis/stm32f4/stm-idf/components/driver/timer.c **** 
 286:/home/phong/Documents/thesis/stm32f4/stm-idf/components/driver/timer.c **** #define TIM4_CH4_PP2_HW_INFO        {.rcc_apbenr_timen = RCC_APB1ENR_TIM4EN,    \
 287:/home/phong/Documents/thesis/stm32f4/stm-idf/components/driver/timer.c ****                                      .rcc_ahbenr_gpioen = RCC_AHB1ENR_GPIODEN,  \
 288:/home/phong/Documents/thesis/stm32f4/stm-idf/components/driver/timer.c ****                                      .timer = TIM4,                             \
 289:/home/phong/Documents/thesis/stm32f4/stm-idf/components/driver/timer.c ****                                      .port = GPIOD,                             \
 290:/home/phong/Documents/thesis/stm32f4/stm-idf/components/driver/timer.c ****                                      .pin = GPIO_PIN_15,                        \
 291:/home/phong/Documents/thesis/stm32f4/stm-idf/components/driver/timer.c ****                                      .alternate_func = GPIO_AF2_TIM4}
 292:/home/phong/Documents/thesis/stm32f4/stm-idf/components/driver/timer.c **** 
 293:/home/phong/Documents/thesis/stm32f4/stm-idf/components/driver/timer.c **** #define TIM5_CH1_PP1_HW_INFO        {.rcc_apbenr_timen = RCC_APB1ENR_TIM5EN,    \
 294:/home/phong/Documents/thesis/stm32f4/stm-idf/components/driver/timer.c ****                                      .rcc_ahbenr_gpioen = RCC_AHB1ENR_GPIOAEN,  \
 295:/home/phong/Documents/thesis/stm32f4/stm-idf/components/driver/timer.c ****                                      .timer = TIM5,                             \
 296:/home/phong/Documents/thesis/stm32f4/stm-idf/components/driver/timer.c ****                                      .port = GPIOA,                             \
 297:/home/phong/Documents/thesis/stm32f4/stm-idf/components/driver/timer.c ****                                      .pin = GPIO_PIN_0,                         \
 298:/home/phong/Documents/thesis/stm32f4/stm-idf/components/driver/timer.c ****                                      .alternate_func = GPIO_AF2_TIM5}
 299:/home/phong/Documents/thesis/stm32f4/stm-idf/components/driver/timer.c **** 
 300:/home/phong/Documents/thesis/stm32f4/stm-idf/components/driver/timer.c **** #define TIM5_CH1_PP2_HW_INFO        {.rcc_apbenr_timen = RCC_APB1ENR_TIM5EN,    \
 301:/home/phong/Documents/thesis/stm32f4/stm-idf/components/driver/timer.c ****                                      .rcc_ahbenr_gpioen = RCC_AHB1ENR_GPIOHEN,  \
 302:/home/phong/Documents/thesis/stm32f4/stm-idf/components/driver/timer.c ****                                      .timer = TIM5,                             \
 303:/home/phong/Documents/thesis/stm32f4/stm-idf/components/driver/timer.c ****                                      .port = GPIOH,                             \
 304:/home/phong/Documents/thesis/stm32f4/stm-idf/components/driver/timer.c ****                                      .pin = GPIO_PIN_10,                        \
 305:/home/phong/Documents/thesis/stm32f4/stm-idf/components/driver/timer.c ****                                      .alternate_func = GPIO_AF2_TIM5}
 306:/home/phong/Documents/thesis/stm32f4/stm-idf/components/driver/timer.c **** 
 307:/home/phong/Documents/thesis/stm32f4/stm-idf/components/driver/timer.c **** #define TIM5_CH2_PP1_HW_INFO        {.rcc_apbenr_timen = RCC_APB1ENR_TIM5EN,    \
 308:/home/phong/Documents/thesis/stm32f4/stm-idf/components/driver/timer.c ****                                      .rcc_ahbenr_gpioen = RCC_AHB1ENR_GPIOAEN,  \
 309:/home/phong/Documents/thesis/stm32f4/stm-idf/components/driver/timer.c ****                                      .timer = TIM5,                             \
 310:/home/phong/Documents/thesis/stm32f4/stm-idf/components/driver/timer.c ****                                      .port = GPIOA,                     \
 311:/home/phong/Documents/thesis/stm32f4/stm-idf/components/driver/timer.c ****                                      .pin = GPIO_PIN_1,                         \
 312:/home/phong/Documents/thesis/stm32f4/stm-idf/components/driver/timer.c ****                                      .alternate_func = GPIO_AF2_TIM5}
 313:/home/phong/Documents/thesis/stm32f4/stm-idf/components/driver/timer.c **** 
 314:/home/phong/Documents/thesis/stm32f4/stm-idf/components/driver/timer.c **** #define TIM5_CH2_PP2_HW_INFO        {.rcc_apbenr_timen = RCC_APB1ENR_TIM5EN,    \
 315:/home/phong/Documents/thesis/stm32f4/stm-idf/components/driver/timer.c ****                                      .rcc_ahbenr_gpioen = RCC_AHB1ENR_GPIOHEN,  \
 316:/home/phong/Documents/thesis/stm32f4/stm-idf/components/driver/timer.c ****                                      .timer = TIM5,                             \
 317:/home/phong/Documents/thesis/stm32f4/stm-idf/components/driver/timer.c ****                                      .port = GPIOH,                             \
ARM GAS  /tmp/cc6XjLyw.s 			page 7


 318:/home/phong/Documents/thesis/stm32f4/stm-idf/components/driver/timer.c ****                                      .pin = GPIO_PIN_11,                        \
 319:/home/phong/Documents/thesis/stm32f4/stm-idf/components/driver/timer.c ****                                      .alternate_func = GPIO_AF2_TIM5}
 320:/home/phong/Documents/thesis/stm32f4/stm-idf/components/driver/timer.c **** 
 321:/home/phong/Documents/thesis/stm32f4/stm-idf/components/driver/timer.c **** #define TIM5_CH3_PP1_HW_INFO        {.rcc_apbenr_timen = RCC_APB1ENR_TIM5EN,    \
 322:/home/phong/Documents/thesis/stm32f4/stm-idf/components/driver/timer.c ****                                      .rcc_ahbenr_gpioen = RCC_AHB1ENR_GPIOAEN,  \
 323:/home/phong/Documents/thesis/stm32f4/stm-idf/components/driver/timer.c ****                                      .timer = TIM5,                             \
 324:/home/phong/Documents/thesis/stm32f4/stm-idf/components/driver/timer.c ****                                      .port = GPIOA,                             \
 325:/home/phong/Documents/thesis/stm32f4/stm-idf/components/driver/timer.c ****                                      .pin = GPIO_PIN_2,                         \
 326:/home/phong/Documents/thesis/stm32f4/stm-idf/components/driver/timer.c ****                                      .alternate_func = GPIO_AF2_TIM5}
 327:/home/phong/Documents/thesis/stm32f4/stm-idf/components/driver/timer.c **** 
 328:/home/phong/Documents/thesis/stm32f4/stm-idf/components/driver/timer.c **** #define TIM5_CH3_PP2_HW_INFO        {.rcc_apbenr_timen = RCC_APB1ENR_TIM5EN,    \
 329:/home/phong/Documents/thesis/stm32f4/stm-idf/components/driver/timer.c ****                                      .rcc_ahbenr_gpioen = RCC_AHB1ENR_GPIOHEN,  \
 330:/home/phong/Documents/thesis/stm32f4/stm-idf/components/driver/timer.c ****                                      .timer = TIM5,                             \
 331:/home/phong/Documents/thesis/stm32f4/stm-idf/components/driver/timer.c ****                                      .port = GPIOH,                             \
 332:/home/phong/Documents/thesis/stm32f4/stm-idf/components/driver/timer.c ****                                      .pin = GPIO_PIN_12,                        \
 333:/home/phong/Documents/thesis/stm32f4/stm-idf/components/driver/timer.c ****                                      .alternate_func = GPIO_AF2_TIM5}
 334:/home/phong/Documents/thesis/stm32f4/stm-idf/components/driver/timer.c **** 
 335:/home/phong/Documents/thesis/stm32f4/stm-idf/components/driver/timer.c **** #define TIM5_CH4_PP1_HW_INFO        {.rcc_apbenr_timen = RCC_APB1ENR_TIM5EN,    \
 336:/home/phong/Documents/thesis/stm32f4/stm-idf/components/driver/timer.c ****                                      .rcc_ahbenr_gpioen = RCC_AHB1ENR_GPIOAEN,  \
 337:/home/phong/Documents/thesis/stm32f4/stm-idf/components/driver/timer.c ****                                      .timer = TIM5,                             \
 338:/home/phong/Documents/thesis/stm32f4/stm-idf/components/driver/timer.c ****                                      .port = GPIOA,                             \
 339:/home/phong/Documents/thesis/stm32f4/stm-idf/components/driver/timer.c ****                                      .pin = GPIO_PIN_3,                         \
 340:/home/phong/Documents/thesis/stm32f4/stm-idf/components/driver/timer.c ****                                      .alternate_func = GPIO_AF2_TIM5}
 341:/home/phong/Documents/thesis/stm32f4/stm-idf/components/driver/timer.c **** 
 342:/home/phong/Documents/thesis/stm32f4/stm-idf/components/driver/timer.c **** #define TIM5_CH4_PP2_HW_INFO        {.rcc_apbenr_timen = RCC_APB1ENR_TIM5EN,    \
 343:/home/phong/Documents/thesis/stm32f4/stm-idf/components/driver/timer.c ****                                      .rcc_ahbenr_gpioen = RCC_AHB1ENR_GPIOIEN,  \
 344:/home/phong/Documents/thesis/stm32f4/stm-idf/components/driver/timer.c ****                                      .timer = TIM5,                             \
 345:/home/phong/Documents/thesis/stm32f4/stm-idf/components/driver/timer.c ****                                      .port = GPIOI,                             \
 346:/home/phong/Documents/thesis/stm32f4/stm-idf/components/driver/timer.c ****                                      .pin = GPIO_PIN_0,                         \
 347:/home/phong/Documents/thesis/stm32f4/stm-idf/components/driver/timer.c ****                                      .alternate_func = GPIO_AF2_TIM5}
 348:/home/phong/Documents/thesis/stm32f4/stm-idf/components/driver/timer.c **** 
 349:/home/phong/Documents/thesis/stm32f4/stm-idf/components/driver/timer.c **** #define TIM8_CH1_PP1_HW_INFO        {.rcc_apbenr_timen = RCC_APB2ENR_TIM8EN,    \
 350:/home/phong/Documents/thesis/stm32f4/stm-idf/components/driver/timer.c ****                                      .rcc_ahbenr_gpioen = RCC_AHB1ENR_GPIOCEN,  \
 351:/home/phong/Documents/thesis/stm32f4/stm-idf/components/driver/timer.c ****                                      .timer = TIM8,                             \
 352:/home/phong/Documents/thesis/stm32f4/stm-idf/components/driver/timer.c ****                                      .port = GPIOC,                             \
 353:/home/phong/Documents/thesis/stm32f4/stm-idf/components/driver/timer.c ****                                      .pin = GPIO_PIN_6,                         \
 354:/home/phong/Documents/thesis/stm32f4/stm-idf/components/driver/timer.c ****                                      .alternate_func = GPIO_AF3_TIM8}
 355:/home/phong/Documents/thesis/stm32f4/stm-idf/components/driver/timer.c **** 
 356:/home/phong/Documents/thesis/stm32f4/stm-idf/components/driver/timer.c **** #define TIM8_CH1_PP2_HW_INFO        {.rcc_apbenr_timen = RCC_APB2ENR_TIM8EN,    \
 357:/home/phong/Documents/thesis/stm32f4/stm-idf/components/driver/timer.c ****                                      .rcc_ahbenr_gpioen = RCC_AHB1ENR_GPIOIEN,  \
 358:/home/phong/Documents/thesis/stm32f4/stm-idf/components/driver/timer.c ****                                      .timer = TIM8,                             \
 359:/home/phong/Documents/thesis/stm32f4/stm-idf/components/driver/timer.c ****                                      .port = GPIOI,                             \
 360:/home/phong/Documents/thesis/stm32f4/stm-idf/components/driver/timer.c ****                                      .pin = GPIO_PIN_15,                        \
 361:/home/phong/Documents/thesis/stm32f4/stm-idf/components/driver/timer.c ****                                      .alternate_func = GPIO_AF3_TIM8}
 362:/home/phong/Documents/thesis/stm32f4/stm-idf/components/driver/timer.c **** 
 363:/home/phong/Documents/thesis/stm32f4/stm-idf/components/driver/timer.c **** #define TIM8_CH2_PP1_HW_INFO        {.rcc_apbenr_timen = RCC_APB2ENR_TIM8EN,    \
 364:/home/phong/Documents/thesis/stm32f4/stm-idf/components/driver/timer.c ****                                      .rcc_ahbenr_gpioen = RCC_AHB1ENR_GPIOCEN,  \
 365:/home/phong/Documents/thesis/stm32f4/stm-idf/components/driver/timer.c ****                                      .timer = TIM8,                             \
 366:/home/phong/Documents/thesis/stm32f4/stm-idf/components/driver/timer.c ****                                      .port = GPIOC,                             \
 367:/home/phong/Documents/thesis/stm32f4/stm-idf/components/driver/timer.c ****                                      .pin = GPIO_PIN_7,                         \
 368:/home/phong/Documents/thesis/stm32f4/stm-idf/components/driver/timer.c ****                                      .alternate_func = GPIO_AF3_TIM8}
 369:/home/phong/Documents/thesis/stm32f4/stm-idf/components/driver/timer.c **** 
 370:/home/phong/Documents/thesis/stm32f4/stm-idf/components/driver/timer.c **** #define TIM8_CH2_PP2_HW_INFO        {.rcc_apbenr_timen = RCC_APB2ENR_TIM8EN,    \
 371:/home/phong/Documents/thesis/stm32f4/stm-idf/components/driver/timer.c ****                                      .rcc_ahbenr_gpioen = RCC_AHB1ENR_GPIOIEN,  \
 372:/home/phong/Documents/thesis/stm32f4/stm-idf/components/driver/timer.c ****                                      .timer = TIM8,                             \
 373:/home/phong/Documents/thesis/stm32f4/stm-idf/components/driver/timer.c ****                                      .port = GPIOI,                             \
 374:/home/phong/Documents/thesis/stm32f4/stm-idf/components/driver/timer.c ****                                      .pin = GPIO_PIN_6,                         \
ARM GAS  /tmp/cc6XjLyw.s 			page 8


 375:/home/phong/Documents/thesis/stm32f4/stm-idf/components/driver/timer.c ****                                      .alternate_func = GPIO_AF3_TIM8}
 376:/home/phong/Documents/thesis/stm32f4/stm-idf/components/driver/timer.c **** 
 377:/home/phong/Documents/thesis/stm32f4/stm-idf/components/driver/timer.c **** #define TIM8_CH3_PP1_HW_INFO        {.rcc_apbenr_timen = RCC_APB2ENR_TIM8EN,    \
 378:/home/phong/Documents/thesis/stm32f4/stm-idf/components/driver/timer.c ****                                      .rcc_ahbenr_gpioen = RCC_AHB1ENR_GPIOCEN,  \
 379:/home/phong/Documents/thesis/stm32f4/stm-idf/components/driver/timer.c ****                                      .timer = TIM8,                             \
 380:/home/phong/Documents/thesis/stm32f4/stm-idf/components/driver/timer.c ****                                      .port = GPIOC,                             \
 381:/home/phong/Documents/thesis/stm32f4/stm-idf/components/driver/timer.c ****                                      .pin = GPIO_PIN_8,                         \
 382:/home/phong/Documents/thesis/stm32f4/stm-idf/components/driver/timer.c ****                                      .alternate_func = GPIO_AF3_TIM8}
 383:/home/phong/Documents/thesis/stm32f4/stm-idf/components/driver/timer.c **** 
 384:/home/phong/Documents/thesis/stm32f4/stm-idf/components/driver/timer.c **** #define TIM8_CH3_PP2_HW_INFO        {.rcc_apbenr_timen = RCC_APB2ENR_TIM8EN,    \
 385:/home/phong/Documents/thesis/stm32f4/stm-idf/components/driver/timer.c ****                                      .rcc_ahbenr_gpioen = RCC_AHB1ENR_GPIOIEN,  \
 386:/home/phong/Documents/thesis/stm32f4/stm-idf/components/driver/timer.c ****                                      .timer = TIM8,                             \
 387:/home/phong/Documents/thesis/stm32f4/stm-idf/components/driver/timer.c ****                                      .port = GPIOI,                             \
 388:/home/phong/Documents/thesis/stm32f4/stm-idf/components/driver/timer.c ****                                      .pin = GPIO_PIN_7,                         \
 389:/home/phong/Documents/thesis/stm32f4/stm-idf/components/driver/timer.c ****                                      .alternate_func = GPIO_AF3_TIM8}
 390:/home/phong/Documents/thesis/stm32f4/stm-idf/components/driver/timer.c **** 
 391:/home/phong/Documents/thesis/stm32f4/stm-idf/components/driver/timer.c **** #define TIM8_CH4_PP1_HW_INFO        {.rcc_apbenr_timen = RCC_APB2ENR_TIM8EN,    \
 392:/home/phong/Documents/thesis/stm32f4/stm-idf/components/driver/timer.c ****                                      .rcc_ahbenr_gpioen = RCC_AHB1ENR_GPIOCEN,  \
 393:/home/phong/Documents/thesis/stm32f4/stm-idf/components/driver/timer.c ****                                      .timer = TIM8,                             \
 394:/home/phong/Documents/thesis/stm32f4/stm-idf/components/driver/timer.c ****                                      .port = GPIOC,                             \
 395:/home/phong/Documents/thesis/stm32f4/stm-idf/components/driver/timer.c ****                                      .pin = GPIO_PIN_9,                         \
 396:/home/phong/Documents/thesis/stm32f4/stm-idf/components/driver/timer.c ****                                      .alternate_func = GPIO_AF3_TIM8}
 397:/home/phong/Documents/thesis/stm32f4/stm-idf/components/driver/timer.c **** 
 398:/home/phong/Documents/thesis/stm32f4/stm-idf/components/driver/timer.c **** #define TIM8_CH4_PP2_HW_INFO        {.rcc_apbenr_timen = RCC_APB2ENR_TIM8EN,    \
 399:/home/phong/Documents/thesis/stm32f4/stm-idf/components/driver/timer.c ****                                      .rcc_ahbenr_gpioen = RCC_AHB1ENR_GPIOIEN,  \
 400:/home/phong/Documents/thesis/stm32f4/stm-idf/components/driver/timer.c ****                                      .timer = TIM8,                             \
 401:/home/phong/Documents/thesis/stm32f4/stm-idf/components/driver/timer.c ****                                      .port = GPIOI,                             \
 402:/home/phong/Documents/thesis/stm32f4/stm-idf/components/driver/timer.c ****                                      .pin = GPIO_PIN_2,                         \
 403:/home/phong/Documents/thesis/stm32f4/stm-idf/components/driver/timer.c ****                                      .alternate_func = GPIO_AF3_TIM8}
 404:/home/phong/Documents/thesis/stm32f4/stm-idf/components/driver/timer.c **** 
 405:/home/phong/Documents/thesis/stm32f4/stm-idf/components/driver/timer.c **** #define TIM9_CH1_PP1_HW_INFO        {.rcc_apbenr_timen = RCC_APB2ENR_TIM9EN,    \
 406:/home/phong/Documents/thesis/stm32f4/stm-idf/components/driver/timer.c ****                                      .rcc_ahbenr_gpioen = RCC_AHB1ENR_GPIOAEN,  \
 407:/home/phong/Documents/thesis/stm32f4/stm-idf/components/driver/timer.c ****                                      .timer = TIM9,                             \
 408:/home/phong/Documents/thesis/stm32f4/stm-idf/components/driver/timer.c ****                                      .port = GPIOA,                             \
 409:/home/phong/Documents/thesis/stm32f4/stm-idf/components/driver/timer.c ****                                      .pin = GPIO_PIN_2,                         \
 410:/home/phong/Documents/thesis/stm32f4/stm-idf/components/driver/timer.c ****                                      .alternate_func = GPIO_AF3_TIM9}
 411:/home/phong/Documents/thesis/stm32f4/stm-idf/components/driver/timer.c **** 
 412:/home/phong/Documents/thesis/stm32f4/stm-idf/components/driver/timer.c **** #define TIM9_CH1_PP2_HW_INFO        {.rcc_apbenr_timen = RCC_APB2ENR_TIM9EN,    \
 413:/home/phong/Documents/thesis/stm32f4/stm-idf/components/driver/timer.c ****                                      .rcc_ahbenr_gpioen = RCC_AHB1ENR_GPIOEEN,  \
 414:/home/phong/Documents/thesis/stm32f4/stm-idf/components/driver/timer.c ****                                      .timer = TIM9,                             \
 415:/home/phong/Documents/thesis/stm32f4/stm-idf/components/driver/timer.c ****                                      .port = GPIOE,                             \
 416:/home/phong/Documents/thesis/stm32f4/stm-idf/components/driver/timer.c ****                                      .pin = GPIO_PIN_5,                         \
 417:/home/phong/Documents/thesis/stm32f4/stm-idf/components/driver/timer.c ****                                      .alternate_func = GPIO_AF3_TIM9}
 418:/home/phong/Documents/thesis/stm32f4/stm-idf/components/driver/timer.c **** 
 419:/home/phong/Documents/thesis/stm32f4/stm-idf/components/driver/timer.c **** #define TIM9_CH2_PP1_HW_INFO        {.rcc_apbenr_timen = RCC_APB2ENR_TIM9EN,    \
 420:/home/phong/Documents/thesis/stm32f4/stm-idf/components/driver/timer.c ****                                      .rcc_ahbenr_gpioen = RCC_AHB1ENR_GPIOAEN,  \
 421:/home/phong/Documents/thesis/stm32f4/stm-idf/components/driver/timer.c ****                                      .timer = TIM9,                             \
 422:/home/phong/Documents/thesis/stm32f4/stm-idf/components/driver/timer.c ****                                      .port = GPIOA,                             \
 423:/home/phong/Documents/thesis/stm32f4/stm-idf/components/driver/timer.c ****                                      .pin = GPIO_PIN_3,                         \
 424:/home/phong/Documents/thesis/stm32f4/stm-idf/components/driver/timer.c ****                                      .alternate_func = GPIO_AF3_TIM9}
 425:/home/phong/Documents/thesis/stm32f4/stm-idf/components/driver/timer.c **** 
 426:/home/phong/Documents/thesis/stm32f4/stm-idf/components/driver/timer.c **** #define TIM9_CH2_PP2_HW_INFO        {.rcc_apbenr_timen = RCC_APB2ENR_TIM9EN,    \
 427:/home/phong/Documents/thesis/stm32f4/stm-idf/components/driver/timer.c ****                                      .rcc_ahbenr_gpioen = RCC_AHB1ENR_GPIOEEN,  \
 428:/home/phong/Documents/thesis/stm32f4/stm-idf/components/driver/timer.c ****                                      .timer = TIM9,                             \
 429:/home/phong/Documents/thesis/stm32f4/stm-idf/components/driver/timer.c ****                                      .port = GPIOE,                             \
 430:/home/phong/Documents/thesis/stm32f4/stm-idf/components/driver/timer.c ****                                      .pin = GPIO_PIN_6,                         \
 431:/home/phong/Documents/thesis/stm32f4/stm-idf/components/driver/timer.c ****                                      .alternate_func = GPIO_AF3_TIM9}
ARM GAS  /tmp/cc6XjLyw.s 			page 9


 432:/home/phong/Documents/thesis/stm32f4/stm-idf/components/driver/timer.c **** 
 433:/home/phong/Documents/thesis/stm32f4/stm-idf/components/driver/timer.c **** #define TIM10_CH1_PP1_HW_INFO       {.rcc_apbenr_timen = RCC_APB2ENR_TIM10EN,   \
 434:/home/phong/Documents/thesis/stm32f4/stm-idf/components/driver/timer.c ****                                      .rcc_ahbenr_gpioen = RCC_AHB1ENR_GPIOBEN,  \
 435:/home/phong/Documents/thesis/stm32f4/stm-idf/components/driver/timer.c ****                                      .timer = TIM10,                            \
 436:/home/phong/Documents/thesis/stm32f4/stm-idf/components/driver/timer.c ****                                      .port = GPIOB,                             \
 437:/home/phong/Documents/thesis/stm32f4/stm-idf/components/driver/timer.c ****                                      .pin = GPIO_PIN_8,                         \
 438:/home/phong/Documents/thesis/stm32f4/stm-idf/components/driver/timer.c ****                                      .alternate_func = GPIO_AF3_TIM10}
 439:/home/phong/Documents/thesis/stm32f4/stm-idf/components/driver/timer.c **** 
 440:/home/phong/Documents/thesis/stm32f4/stm-idf/components/driver/timer.c **** #define TIM10_CH1_PP2_HW_INFO       {.rcc_apbenr_timen = RCC_APB2ENR_TIM10EN,   \
 441:/home/phong/Documents/thesis/stm32f4/stm-idf/components/driver/timer.c ****                                      .rcc_ahbenr_gpioen = RCC_AHB1ENR_GPIOFEN,  \
 442:/home/phong/Documents/thesis/stm32f4/stm-idf/components/driver/timer.c ****                                      .timer = TIM10,                            \
 443:/home/phong/Documents/thesis/stm32f4/stm-idf/components/driver/timer.c ****                                      .port = GPIOF,                             \
 444:/home/phong/Documents/thesis/stm32f4/stm-idf/components/driver/timer.c ****                                      .pin = GPIO_PIN_6,                         \
 445:/home/phong/Documents/thesis/stm32f4/stm-idf/components/driver/timer.c ****                                      .alternate_func = GPIO_AF3_TIM10}
 446:/home/phong/Documents/thesis/stm32f4/stm-idf/components/driver/timer.c **** 
 447:/home/phong/Documents/thesis/stm32f4/stm-idf/components/driver/timer.c **** #define TIM11_CH1_PP1_HW_INFO       {.rcc_apbenr_timen = RCC_APB2ENR_TIM11EN,   \
 448:/home/phong/Documents/thesis/stm32f4/stm-idf/components/driver/timer.c ****                                      .rcc_ahbenr_gpioen = RCC_AHB1ENR_GPIOBEN,  \
 449:/home/phong/Documents/thesis/stm32f4/stm-idf/components/driver/timer.c ****                                      .timer = TIM11,                            \
 450:/home/phong/Documents/thesis/stm32f4/stm-idf/components/driver/timer.c ****                                      .port = GPIOB,                             \
 451:/home/phong/Documents/thesis/stm32f4/stm-idf/components/driver/timer.c ****                                      .pin = GPIO_PIN_9,                         \
 452:/home/phong/Documents/thesis/stm32f4/stm-idf/components/driver/timer.c ****                                      .alternate_func = GPIO_AF3_TIM11}
 453:/home/phong/Documents/thesis/stm32f4/stm-idf/components/driver/timer.c **** 
 454:/home/phong/Documents/thesis/stm32f4/stm-idf/components/driver/timer.c **** #define TIM11_CH1_PP2_HW_INFO       {.rcc_apbenr_timen = RCC_APB2ENR_TIM11EN,   \
 455:/home/phong/Documents/thesis/stm32f4/stm-idf/components/driver/timer.c ****                                      .rcc_ahbenr_gpioen = RCC_AHB1ENR_GPIOFEN,  \
 456:/home/phong/Documents/thesis/stm32f4/stm-idf/components/driver/timer.c ****                                      .timer = TIM11,                            \
 457:/home/phong/Documents/thesis/stm32f4/stm-idf/components/driver/timer.c ****                                      .port = GPIOF,                             \
 458:/home/phong/Documents/thesis/stm32f4/stm-idf/components/driver/timer.c ****                                      .pin = GPIO_PIN_7,                         \
 459:/home/phong/Documents/thesis/stm32f4/stm-idf/components/driver/timer.c ****                                      .alternate_func = GPIO_AF3_TIM11}
 460:/home/phong/Documents/thesis/stm32f4/stm-idf/components/driver/timer.c **** 
 461:/home/phong/Documents/thesis/stm32f4/stm-idf/components/driver/timer.c **** #define TIM12_CH1_PP1_HW_INFO       {.rcc_apbenr_timen = RCC_APB1ENR_TIM12EN,   \
 462:/home/phong/Documents/thesis/stm32f4/stm-idf/components/driver/timer.c ****                                      .rcc_ahbenr_gpioen = RCC_AHB1ENR_GPIOBEN,  \
 463:/home/phong/Documents/thesis/stm32f4/stm-idf/components/driver/timer.c ****                                      .timer = TIM12,                            \
 464:/home/phong/Documents/thesis/stm32f4/stm-idf/components/driver/timer.c ****                                      .port = GPIOB,                             \
 465:/home/phong/Documents/thesis/stm32f4/stm-idf/components/driver/timer.c ****                                      .pin = GPIO_PIN_14,                        \
 466:/home/phong/Documents/thesis/stm32f4/stm-idf/components/driver/timer.c ****                                      .alternate_func = GPIO_AF9_TIM12}
 467:/home/phong/Documents/thesis/stm32f4/stm-idf/components/driver/timer.c **** 
 468:/home/phong/Documents/thesis/stm32f4/stm-idf/components/driver/timer.c **** #define TIM12_CH1_PP2_HW_INFO       {.rcc_apbenr_timen = RCC_APB1ENR_TIM12EN,   \
 469:/home/phong/Documents/thesis/stm32f4/stm-idf/components/driver/timer.c ****                                      .rcc_ahbenr_gpioen = RCC_AHB1ENR_GPIOHEN,  \
 470:/home/phong/Documents/thesis/stm32f4/stm-idf/components/driver/timer.c ****                                      .timer = TIM12,                            \
 471:/home/phong/Documents/thesis/stm32f4/stm-idf/components/driver/timer.c ****                                      .port = GPIOH,                             \
 472:/home/phong/Documents/thesis/stm32f4/stm-idf/components/driver/timer.c ****                                      .pin = GPIO_PIN_6,                         \
 473:/home/phong/Documents/thesis/stm32f4/stm-idf/components/driver/timer.c ****                                      .alternate_func = GPIO_AF9_TIM12}
 474:/home/phong/Documents/thesis/stm32f4/stm-idf/components/driver/timer.c **** 
 475:/home/phong/Documents/thesis/stm32f4/stm-idf/components/driver/timer.c **** #define TIM12_CH2_PP1_HW_INFO       {.rcc_apbenr_timen = RCC_APB1ENR_TIM12EN,   \
 476:/home/phong/Documents/thesis/stm32f4/stm-idf/components/driver/timer.c ****                                      .rcc_ahbenr_gpioen = RCC_AHB1ENR_GPIOBEN,  \
 477:/home/phong/Documents/thesis/stm32f4/stm-idf/components/driver/timer.c ****                                      .timer = TIM12,                            \
 478:/home/phong/Documents/thesis/stm32f4/stm-idf/components/driver/timer.c ****                                      .port = GPIOB,                             \
 479:/home/phong/Documents/thesis/stm32f4/stm-idf/components/driver/timer.c ****                                      .pin = GPIO_PIN_15,                        \
 480:/home/phong/Documents/thesis/stm32f4/stm-idf/components/driver/timer.c ****                                      .alternate_func = GPIO_AF9_TIM12}
 481:/home/phong/Documents/thesis/stm32f4/stm-idf/components/driver/timer.c **** 
 482:/home/phong/Documents/thesis/stm32f4/stm-idf/components/driver/timer.c **** #define TIM12_CH2_PP2_HW_INFO       {.rcc_apbenr_timen = RCC_APB1ENR_TIM12EN,   \
 483:/home/phong/Documents/thesis/stm32f4/stm-idf/components/driver/timer.c ****                                      .rcc_ahbenr_gpioen = RCC_AHB1ENR_GPIOHEN,  \
 484:/home/phong/Documents/thesis/stm32f4/stm-idf/components/driver/timer.c ****                                      .timer = TIM12,                            \
 485:/home/phong/Documents/thesis/stm32f4/stm-idf/components/driver/timer.c ****                                      .port = GPIOH,                             \
 486:/home/phong/Documents/thesis/stm32f4/stm-idf/components/driver/timer.c ****                                      .pin = GPIO_PIN_9,                         \
 487:/home/phong/Documents/thesis/stm32f4/stm-idf/components/driver/timer.c ****                                      .alternate_func = GPIO_AF9_TIM12}
 488:/home/phong/Documents/thesis/stm32f4/stm-idf/components/driver/timer.c **** 
ARM GAS  /tmp/cc6XjLyw.s 			page 10


 489:/home/phong/Documents/thesis/stm32f4/stm-idf/components/driver/timer.c **** #define TIM13_CH1_PP1_HW_INFO       {.rcc_apbenr_timen = RCC_APB1ENR_TIM13EN,   \
 490:/home/phong/Documents/thesis/stm32f4/stm-idf/components/driver/timer.c ****                                      .rcc_ahbenr_gpioen = RCC_AHB1ENR_GPIOAEN,  \
 491:/home/phong/Documents/thesis/stm32f4/stm-idf/components/driver/timer.c ****                                      .timer = TIM13,                            \
 492:/home/phong/Documents/thesis/stm32f4/stm-idf/components/driver/timer.c ****                                      .port = GPIOA,                             \
 493:/home/phong/Documents/thesis/stm32f4/stm-idf/components/driver/timer.c ****                                      .pin = GPIO_PIN_6,                         \
 494:/home/phong/Documents/thesis/stm32f4/stm-idf/components/driver/timer.c ****                                      .alternate_func = GPIO_AF9_TIM13}
 495:/home/phong/Documents/thesis/stm32f4/stm-idf/components/driver/timer.c **** 
 496:/home/phong/Documents/thesis/stm32f4/stm-idf/components/driver/timer.c **** #define TIM13_CH1_PP2_HW_INFO       {.rcc_apbenr_timen = RCC_APB1ENR_TIM13EN,   \
 497:/home/phong/Documents/thesis/stm32f4/stm-idf/components/driver/timer.c ****                                      .rcc_ahbenr_gpioen = RCC_AHB1ENR_GPIOFEN,  \
 498:/home/phong/Documents/thesis/stm32f4/stm-idf/components/driver/timer.c ****                                      .timer = TIM13,                            \
 499:/home/phong/Documents/thesis/stm32f4/stm-idf/components/driver/timer.c ****                                      .port = GPIOF,                             \
 500:/home/phong/Documents/thesis/stm32f4/stm-idf/components/driver/timer.c ****                                      .pin = GPIO_PIN_8,                         \
 501:/home/phong/Documents/thesis/stm32f4/stm-idf/components/driver/timer.c ****                                      .alternate_func = GPIO_AF9_TIM13}
 502:/home/phong/Documents/thesis/stm32f4/stm-idf/components/driver/timer.c **** 
 503:/home/phong/Documents/thesis/stm32f4/stm-idf/components/driver/timer.c **** #define TIM14_CH1_PP1_HW_INFO       {.rcc_apbenr_timen = RCC_APB1ENR_TIM14EN,   \
 504:/home/phong/Documents/thesis/stm32f4/stm-idf/components/driver/timer.c ****                                      .rcc_ahbenr_gpioen = RCC_AHB1ENR_GPIOAEN,  \
 505:/home/phong/Documents/thesis/stm32f4/stm-idf/components/driver/timer.c ****                                      .timer = TIM14,                            \
 506:/home/phong/Documents/thesis/stm32f4/stm-idf/components/driver/timer.c ****                                      .port = GPIOA,                             \
 507:/home/phong/Documents/thesis/stm32f4/stm-idf/components/driver/timer.c ****                                      .pin = GPIO_PIN_7,                         \
 508:/home/phong/Documents/thesis/stm32f4/stm-idf/components/driver/timer.c ****                                      .alternate_func = GPIO_AF9_TIM14}
 509:/home/phong/Documents/thesis/stm32f4/stm-idf/components/driver/timer.c **** 
 510:/home/phong/Documents/thesis/stm32f4/stm-idf/components/driver/timer.c **** #define TIM14_CH1_PP2_HW_INFO       {.rcc_apbenr_timen = RCC_APB1ENR_TIM14EN,   \
 511:/home/phong/Documents/thesis/stm32f4/stm-idf/components/driver/timer.c ****                                      .rcc_ahbenr_gpioen = RCC_AHB1ENR_GPIOFEN,  \
 512:/home/phong/Documents/thesis/stm32f4/stm-idf/components/driver/timer.c ****                                      .timer = TIM14,                            \
 513:/home/phong/Documents/thesis/stm32f4/stm-idf/components/driver/timer.c ****                                      .port = GPIOF,                             \
 514:/home/phong/Documents/thesis/stm32f4/stm-idf/components/driver/timer.c ****                                      .pin = GPIO_PIN_9,                         \
 515:/home/phong/Documents/thesis/stm32f4/stm-idf/components/driver/timer.c ****                                      .alternate_func = GPIO_AF9_TIM14}
 516:/home/phong/Documents/thesis/stm32f4/stm-idf/components/driver/timer.c **** 
 517:/home/phong/Documents/thesis/stm32f4/stm-idf/components/driver/timer.c **** /*
 518:/home/phong/Documents/thesis/stm32f4/stm-idf/components/driver/timer.c ****  * Timer External Counter Hardware Information.
 519:/home/phong/Documents/thesis/stm32f4/stm-idf/components/driver/timer.c ****  */
 520:/home/phong/Documents/thesis/stm32f4/stm-idf/components/driver/timer.c **** #define TIM1_PP1_ETR_HW_INFO        {.rcc_apbenr_timen = RCC_APB2ENR_TIM1EN,    \
 521:/home/phong/Documents/thesis/stm32f4/stm-idf/components/driver/timer.c ****                                      .rcc_ahbenr_gpioen = RCC_AHB1ENR_GPIOAEN,  \
 522:/home/phong/Documents/thesis/stm32f4/stm-idf/components/driver/timer.c ****                                      .timer = TIM1,                             \
 523:/home/phong/Documents/thesis/stm32f4/stm-idf/components/driver/timer.c ****                                      .port = GPIOA,                             \
 524:/home/phong/Documents/thesis/stm32f4/stm-idf/components/driver/timer.c ****                                      .pin = GPIO_PIN_12,                        \
 525:/home/phong/Documents/thesis/stm32f4/stm-idf/components/driver/timer.c ****                                      .alternate_func = GPIO_AF1_TIM1}
 526:/home/phong/Documents/thesis/stm32f4/stm-idf/components/driver/timer.c **** 
 527:/home/phong/Documents/thesis/stm32f4/stm-idf/components/driver/timer.c **** #define TIM1_PP2_ETR_HW_INFO        {.rcc_apbenr_timen = RCC_APB2ENR_TIM1EN,    \
 528:/home/phong/Documents/thesis/stm32f4/stm-idf/components/driver/timer.c ****                                      .rcc_ahbenr_gpioen = RCC_AHB1ENR_GPIOEEN,  \
 529:/home/phong/Documents/thesis/stm32f4/stm-idf/components/driver/timer.c ****                                      .timer = TIM1,                             \
 530:/home/phong/Documents/thesis/stm32f4/stm-idf/components/driver/timer.c ****                                      .port = GPIOE,                             \
 531:/home/phong/Documents/thesis/stm32f4/stm-idf/components/driver/timer.c ****                                      .pin = GPIO_PIN_7,                         \
 532:/home/phong/Documents/thesis/stm32f4/stm-idf/components/driver/timer.c ****                                      .alternate_func = GPIO_AF1_TIM1}
 533:/home/phong/Documents/thesis/stm32f4/stm-idf/components/driver/timer.c **** 
 534:/home/phong/Documents/thesis/stm32f4/stm-idf/components/driver/timer.c **** #define TIM2_PP1_ETR_HW_INFO        {.rcc_apbenr_timen = RCC_APB1ENR_TIM2EN,    \
 535:/home/phong/Documents/thesis/stm32f4/stm-idf/components/driver/timer.c ****                                      .rcc_ahbenr_gpioen = RCC_AHB1ENR_GPIOAEN,  \
 536:/home/phong/Documents/thesis/stm32f4/stm-idf/components/driver/timer.c ****                                      .timer = TIM2,                             \
 537:/home/phong/Documents/thesis/stm32f4/stm-idf/components/driver/timer.c ****                                      .port = GPIOA,                             \
 538:/home/phong/Documents/thesis/stm32f4/stm-idf/components/driver/timer.c ****                                      .pin = GPIO_PIN_0,                         \
 539:/home/phong/Documents/thesis/stm32f4/stm-idf/components/driver/timer.c ****                                      .alternate_func = GPIO_AF1_TIM2}
 540:/home/phong/Documents/thesis/stm32f4/stm-idf/components/driver/timer.c **** 
 541:/home/phong/Documents/thesis/stm32f4/stm-idf/components/driver/timer.c **** #define TIM2_PP2_ETR_HW_INFO        {.rcc_apbenr_timen = RCC_APB1ENR_TIM2EN,    \
 542:/home/phong/Documents/thesis/stm32f4/stm-idf/components/driver/timer.c ****                                      .rcc_ahbenr_gpioen = RCC_AHB1ENR_GPIOAEN,  \
 543:/home/phong/Documents/thesis/stm32f4/stm-idf/components/driver/timer.c ****                                      .timer = TIM2,                             \
 544:/home/phong/Documents/thesis/stm32f4/stm-idf/components/driver/timer.c ****                                      .port = GPIOA,                             \
 545:/home/phong/Documents/thesis/stm32f4/stm-idf/components/driver/timer.c ****                                      .pin = GPIO_PIN_5,                         \
ARM GAS  /tmp/cc6XjLyw.s 			page 11


 546:/home/phong/Documents/thesis/stm32f4/stm-idf/components/driver/timer.c ****                                      .alternate_func = GPIO_AF1_TIM2}
 547:/home/phong/Documents/thesis/stm32f4/stm-idf/components/driver/timer.c **** 
 548:/home/phong/Documents/thesis/stm32f4/stm-idf/components/driver/timer.c **** #define TIM2_PP3_ETR_HW_INFO        {.rcc_apbenr_timen = RCC_APB1ENR_TIM2EN,    \
 549:/home/phong/Documents/thesis/stm32f4/stm-idf/components/driver/timer.c ****                                      .rcc_ahbenr_gpioen = RCC_AHB1ENR_GPIOAEN,  \
 550:/home/phong/Documents/thesis/stm32f4/stm-idf/components/driver/timer.c ****                                      .timer = TIM2,                             \
 551:/home/phong/Documents/thesis/stm32f4/stm-idf/components/driver/timer.c ****                                      .port = GPIOA,                             \
 552:/home/phong/Documents/thesis/stm32f4/stm-idf/components/driver/timer.c ****                                      .pin = GPIO_PIN_15,                        \
 553:/home/phong/Documents/thesis/stm32f4/stm-idf/components/driver/timer.c ****                                      .alternate_func = GPIO_AF1_TIM2}
 554:/home/phong/Documents/thesis/stm32f4/stm-idf/components/driver/timer.c **** 
 555:/home/phong/Documents/thesis/stm32f4/stm-idf/components/driver/timer.c **** #define TIM3_PP1_ETR_HW_INFO        {.rcc_apbenr_timen = RCC_APB1ENR_TIM3EN,    \
 556:/home/phong/Documents/thesis/stm32f4/stm-idf/components/driver/timer.c ****                                      .rcc_ahbenr_gpioen = RCC_AHB1ENR_GPIODEN,  \
 557:/home/phong/Documents/thesis/stm32f4/stm-idf/components/driver/timer.c ****                                      .timer = TIM3,                             \
 558:/home/phong/Documents/thesis/stm32f4/stm-idf/components/driver/timer.c ****                                      .port = GPIOD,                             \
 559:/home/phong/Documents/thesis/stm32f4/stm-idf/components/driver/timer.c ****                                      .pin = GPIO_PIN_2,                         \
 560:/home/phong/Documents/thesis/stm32f4/stm-idf/components/driver/timer.c ****                                      .alternate_func = GPIO_AF2_TIM3}
 561:/home/phong/Documents/thesis/stm32f4/stm-idf/components/driver/timer.c **** 
 562:/home/phong/Documents/thesis/stm32f4/stm-idf/components/driver/timer.c **** #define TIM4_PP1_ETR_HW_INFO        {.rcc_apbenr_timen = RCC_APB1ENR_TIM4EN,    \
 563:/home/phong/Documents/thesis/stm32f4/stm-idf/components/driver/timer.c ****                                      .rcc_ahbenr_gpioen = RCC_AHB1ENR_GPIOEEN,  \
 564:/home/phong/Documents/thesis/stm32f4/stm-idf/components/driver/timer.c ****                                      .timer = TIM4,                             \
 565:/home/phong/Documents/thesis/stm32f4/stm-idf/components/driver/timer.c ****                                      .port = GPIOE,                             \
 566:/home/phong/Documents/thesis/stm32f4/stm-idf/components/driver/timer.c ****                                      .pin = GPIO_PIN_0,                         \
 567:/home/phong/Documents/thesis/stm32f4/stm-idf/components/driver/timer.c ****                                      .alternate_func = GPIO_AF2_TIM4}
 568:/home/phong/Documents/thesis/stm32f4/stm-idf/components/driver/timer.c **** 
 569:/home/phong/Documents/thesis/stm32f4/stm-idf/components/driver/timer.c **** #define TIM8_PP1_ETR_HW_INFO        {.rcc_apbenr_timen = RCC_APB2ENR_TIM8EN,    \
 570:/home/phong/Documents/thesis/stm32f4/stm-idf/components/driver/timer.c ****                                      .rcc_ahbenr_gpioen = RCC_AHB1ENR_GPIOAEN,  \
 571:/home/phong/Documents/thesis/stm32f4/stm-idf/components/driver/timer.c ****                                      .timer = TIM8,                             \
 572:/home/phong/Documents/thesis/stm32f4/stm-idf/components/driver/timer.c ****                                      .port = GPIOA,                             \
 573:/home/phong/Documents/thesis/stm32f4/stm-idf/components/driver/timer.c ****                                      .pin = GPIO_PIN_0,                         \
 574:/home/phong/Documents/thesis/stm32f4/stm-idf/components/driver/timer.c ****                                      .alternate_func = GPIO_AF3_TIM8}
 575:/home/phong/Documents/thesis/stm32f4/stm-idf/components/driver/timer.c **** /*
 576:/home/phong/Documents/thesis/stm32f4/stm-idf/components/driver/timer.c ****  * Timer Hardware Information.
 577:/home/phong/Documents/thesis/stm32f4/stm-idf/components/driver/timer.c ****  */
 578:/home/phong/Documents/thesis/stm32f4/stm-idf/components/driver/timer.c **** typedef struct {
 579:/home/phong/Documents/thesis/stm32f4/stm-idf/components/driver/timer.c ****     uint32_t        rcc_apbenr_timen;       /*!< Timer RCC APBENR register */
 580:/home/phong/Documents/thesis/stm32f4/stm-idf/components/driver/timer.c ****     uint32_t        rcc_ahbenr_gpioen;      /*!< GPIO RCC AHPENR register */
 581:/home/phong/Documents/thesis/stm32f4/stm-idf/components/driver/timer.c ****     TIM_TypeDef     *timer;                 /*!< TIM */
 582:/home/phong/Documents/thesis/stm32f4/stm-idf/components/driver/timer.c ****     GPIO_TypeDef    *port;                  /*!< General Purpose I/O */
 583:/home/phong/Documents/thesis/stm32f4/stm-idf/components/driver/timer.c ****     uint16_t        pin;                    /*!< Pin */
 584:/home/phong/Documents/thesis/stm32f4/stm-idf/components/driver/timer.c ****     uint8_t         alternate_func;         /*!< Alternative function */
 585:/home/phong/Documents/thesis/stm32f4/stm-idf/components/driver/timer.c **** } tim_hw_info_t;
 586:/home/phong/Documents/thesis/stm32f4/stm-idf/components/driver/timer.c **** 
 587:/home/phong/Documents/thesis/stm32f4/stm-idf/components/driver/timer.c **** /*
 588:/home/phong/Documents/thesis/stm32f4/stm-idf/components/driver/timer.c ****  * Timer Handle.
 589:/home/phong/Documents/thesis/stm32f4/stm-idf/components/driver/timer.c ****  */
 590:/home/phong/Documents/thesis/stm32f4/stm-idf/components/driver/timer.c **** static TIM_HandleTypeDef timer_handle[TIMER_NUM_MAX];
 591:/home/phong/Documents/thesis/stm32f4/stm-idf/components/driver/timer.c **** 
 592:/home/phong/Documents/thesis/stm32f4/stm-idf/components/driver/timer.c **** /*
 593:/home/phong/Documents/thesis/stm32f4/stm-idf/components/driver/timer.c ****  * Timer Channel Mapping Table.
 594:/home/phong/Documents/thesis/stm32f4/stm-idf/components/driver/timer.c ****  */
 595:/home/phong/Documents/thesis/stm32f4/stm-idf/components/driver/timer.c **** uint32_t TIM_CHANNEL_x_MAPPING[TIMER_CHANNEL_MAX] = {
 596:/home/phong/Documents/thesis/stm32f4/stm-idf/components/driver/timer.c ****     TIM_CHANNEL_1,      /*!< HAL Timer channel 1 define */
 597:/home/phong/Documents/thesis/stm32f4/stm-idf/components/driver/timer.c ****     TIM_CHANNEL_2,      /*!< HAL Timer channel 2 define */
 598:/home/phong/Documents/thesis/stm32f4/stm-idf/components/driver/timer.c ****     TIM_CHANNEL_3,      /*!< HAL Timer channel 3 define */
 599:/home/phong/Documents/thesis/stm32f4/stm-idf/components/driver/timer.c ****     TIM_CHANNEL_4       /*!< HAL Timer channel 4 define */
 600:/home/phong/Documents/thesis/stm32f4/stm-idf/components/driver/timer.c **** };
 601:/home/phong/Documents/thesis/stm32f4/stm-idf/components/driver/timer.c **** 
 602:/home/phong/Documents/thesis/stm32f4/stm-idf/components/driver/timer.c **** uint32_t TIMER_COUNTER_MODE_MAPPING[TIMER_COUNTER_MODE_MAX] = {
ARM GAS  /tmp/cc6XjLyw.s 			page 12


 603:/home/phong/Documents/thesis/stm32f4/stm-idf/components/driver/timer.c ****     TIM_COUNTERMODE_UP,
 604:/home/phong/Documents/thesis/stm32f4/stm-idf/components/driver/timer.c ****     TIM_COUNTERMODE_DOWN
 605:/home/phong/Documents/thesis/stm32f4/stm-idf/components/driver/timer.c **** };
 606:/home/phong/Documents/thesis/stm32f4/stm-idf/components/driver/timer.c **** 
 607:/home/phong/Documents/thesis/stm32f4/stm-idf/components/driver/timer.c **** /*
 608:/home/phong/Documents/thesis/stm32f4/stm-idf/components/driver/timer.c ****  * APB Clock Mapping Table.
 609:/home/phong/Documents/thesis/stm32f4/stm-idf/components/driver/timer.c ****  */
 610:/home/phong/Documents/thesis/stm32f4/stm-idf/components/driver/timer.c **** uint32_t APBx_CLOCK_MAPPING[TIMER_NUM_MAX] = {
 611:/home/phong/Documents/thesis/stm32f4/stm-idf/components/driver/timer.c ****     APB2_CLOCK,         /*!< Timer 1 APB clock frequency */
 612:/home/phong/Documents/thesis/stm32f4/stm-idf/components/driver/timer.c ****     APB1_CLOCK,         /*!< Timer 2 APB clock frequency */
 613:/home/phong/Documents/thesis/stm32f4/stm-idf/components/driver/timer.c ****     APB1_CLOCK,         /*!< Timer 3 APB clock frequency */
 614:/home/phong/Documents/thesis/stm32f4/stm-idf/components/driver/timer.c ****     APB1_CLOCK,         /*!< Timer 4 APB clock frequency */
 615:/home/phong/Documents/thesis/stm32f4/stm-idf/components/driver/timer.c ****     APB1_CLOCK,         /*!< Timer 5 APB clock frequency */
 616:/home/phong/Documents/thesis/stm32f4/stm-idf/components/driver/timer.c ****     APB1_CLOCK,         /*!< Timer 6 APB clock frequency */
 617:/home/phong/Documents/thesis/stm32f4/stm-idf/components/driver/timer.c ****     APB1_CLOCK,         /*!< Timer 7 APB clock frequency */
 618:/home/phong/Documents/thesis/stm32f4/stm-idf/components/driver/timer.c ****     APB1_CLOCK,         /*!< Timer 8 APB clock frequency */
 619:/home/phong/Documents/thesis/stm32f4/stm-idf/components/driver/timer.c ****     APB2_CLOCK,         /*!< Timer 9 APB clock frequency */
 620:/home/phong/Documents/thesis/stm32f4/stm-idf/components/driver/timer.c ****     APB2_CLOCK,         /*!< Timer 10 APB clock frequency */
 621:/home/phong/Documents/thesis/stm32f4/stm-idf/components/driver/timer.c ****     APB2_CLOCK,         /*!< Timer 11 APB clock frequency */
 622:/home/phong/Documents/thesis/stm32f4/stm-idf/components/driver/timer.c ****     APB1_CLOCK,         /*!< Timer 12 APB clock frequency */
 623:/home/phong/Documents/thesis/stm32f4/stm-idf/components/driver/timer.c ****     APB1_CLOCK,         /*!< Timer 13 APB clock frequency */
 624:/home/phong/Documents/thesis/stm32f4/stm-idf/components/driver/timer.c ****     APB1_CLOCK          /*!< Timer 14 APB clock frequency */
 625:/home/phong/Documents/thesis/stm32f4/stm-idf/components/driver/timer.c **** };
 626:/home/phong/Documents/thesis/stm32f4/stm-idf/components/driver/timer.c **** 
 627:/home/phong/Documents/thesis/stm32f4/stm-idf/components/driver/timer.c **** /*
 628:/home/phong/Documents/thesis/stm32f4/stm-idf/components/driver/timer.c ****  * Timer Hardware Information Mapping Table.
 629:/home/phong/Documents/thesis/stm32f4/stm-idf/components/driver/timer.c ****  */
 630:/home/phong/Documents/thesis/stm32f4/stm-idf/components/driver/timer.c **** tim_hw_info_t TIM_HW_INFO_MAPPING[TIMER_NUM_MAX][TIMER_CHANNEL_MAX][TIMER_PINS_PACK_MAX] = {
 631:/home/phong/Documents/thesis/stm32f4/stm-idf/components/driver/timer.c ****     {   {TIM1_CH1_PP1_HW_INFO , TIM1_CH1_PP2_HW_INFO ,                  {0}},
 632:/home/phong/Documents/thesis/stm32f4/stm-idf/components/driver/timer.c ****         {TIM1_CH2_PP1_HW_INFO , TIM1_CH2_PP2_HW_INFO ,                  {0}},
 633:/home/phong/Documents/thesis/stm32f4/stm-idf/components/driver/timer.c ****         {TIM1_CH3_PP1_HW_INFO , TIM1_CH3_PP2_HW_INFO ,                  {0}},
 634:/home/phong/Documents/thesis/stm32f4/stm-idf/components/driver/timer.c ****         {TIM1_CH4_PP1_HW_INFO , TIM1_CH4_PP2_HW_INFO ,                  {0}}
 635:/home/phong/Documents/thesis/stm32f4/stm-idf/components/driver/timer.c ****     },
 636:/home/phong/Documents/thesis/stm32f4/stm-idf/components/driver/timer.c **** 
 637:/home/phong/Documents/thesis/stm32f4/stm-idf/components/driver/timer.c ****     {   {TIM2_CH1_PP1_HW_INFO , TIM2_CH1_PP2_HW_INFO , TIM2_CH1_PP3_HW_INFO},
 638:/home/phong/Documents/thesis/stm32f4/stm-idf/components/driver/timer.c ****         {TIM2_CH2_PP1_HW_INFO , TIM2_CH2_PP2_HW_INFO ,                  {0}},
 639:/home/phong/Documents/thesis/stm32f4/stm-idf/components/driver/timer.c ****         {TIM2_CH3_PP1_HW_INFO , TIM2_CH3_PP2_HW_INFO ,                  {0}},
 640:/home/phong/Documents/thesis/stm32f4/stm-idf/components/driver/timer.c ****         {TIM2_CH4_PP1_HW_INFO , TIM2_CH4_PP2_HW_INFO ,                  {0}}
 641:/home/phong/Documents/thesis/stm32f4/stm-idf/components/driver/timer.c ****     },
 642:/home/phong/Documents/thesis/stm32f4/stm-idf/components/driver/timer.c **** 
 643:/home/phong/Documents/thesis/stm32f4/stm-idf/components/driver/timer.c ****     {   {TIM3_CH1_PP1_HW_INFO , TIM3_CH1_PP2_HW_INFO , TIM3_CH1_PP3_HW_INFO},
 644:/home/phong/Documents/thesis/stm32f4/stm-idf/components/driver/timer.c ****         {TIM3_CH2_PP1_HW_INFO , TIM3_CH2_PP2_HW_INFO , TIM3_CH2_PP3_HW_INFO},
 645:/home/phong/Documents/thesis/stm32f4/stm-idf/components/driver/timer.c ****         {TIM3_CH3_PP1_HW_INFO , TIM3_CH3_PP2_HW_INFO ,                  {0}},
 646:/home/phong/Documents/thesis/stm32f4/stm-idf/components/driver/timer.c ****         {TIM3_CH4_PP1_HW_INFO , TIM3_CH4_PP2_HW_INFO ,                  {0}}
 647:/home/phong/Documents/thesis/stm32f4/stm-idf/components/driver/timer.c ****     },
 648:/home/phong/Documents/thesis/stm32f4/stm-idf/components/driver/timer.c **** 
 649:/home/phong/Documents/thesis/stm32f4/stm-idf/components/driver/timer.c ****     {   {TIM4_CH1_PP1_HW_INFO , TIM4_CH1_PP2_HW_INFO ,                  {0}},
 650:/home/phong/Documents/thesis/stm32f4/stm-idf/components/driver/timer.c ****         {TIM4_CH2_PP1_HW_INFO , TIM4_CH2_PP2_HW_INFO ,                  {0}},
 651:/home/phong/Documents/thesis/stm32f4/stm-idf/components/driver/timer.c ****         {TIM4_CH3_PP1_HW_INFO , TIM4_CH3_PP2_HW_INFO ,                  {0}},
 652:/home/phong/Documents/thesis/stm32f4/stm-idf/components/driver/timer.c ****         {TIM4_CH4_PP1_HW_INFO , TIM4_CH4_PP2_HW_INFO ,                  {0}}
 653:/home/phong/Documents/thesis/stm32f4/stm-idf/components/driver/timer.c ****     },
 654:/home/phong/Documents/thesis/stm32f4/stm-idf/components/driver/timer.c **** 
 655:/home/phong/Documents/thesis/stm32f4/stm-idf/components/driver/timer.c ****     {   {TIM5_CH1_PP1_HW_INFO , TIM5_CH1_PP2_HW_INFO ,                  {0}},
 656:/home/phong/Documents/thesis/stm32f4/stm-idf/components/driver/timer.c ****         {TIM5_CH2_PP1_HW_INFO , TIM5_CH2_PP2_HW_INFO ,                  {0}},
 657:/home/phong/Documents/thesis/stm32f4/stm-idf/components/driver/timer.c ****         {TIM5_CH3_PP1_HW_INFO , TIM5_CH3_PP2_HW_INFO ,                  {0}},
 658:/home/phong/Documents/thesis/stm32f4/stm-idf/components/driver/timer.c ****         {TIM5_CH4_PP1_HW_INFO , TIM5_CH4_PP2_HW_INFO ,                  {0}}
 659:/home/phong/Documents/thesis/stm32f4/stm-idf/components/driver/timer.c ****     },
ARM GAS  /tmp/cc6XjLyw.s 			page 13


 660:/home/phong/Documents/thesis/stm32f4/stm-idf/components/driver/timer.c **** 
 661:/home/phong/Documents/thesis/stm32f4/stm-idf/components/driver/timer.c ****     {   {                  {0},                   {0},                  {0}},
 662:/home/phong/Documents/thesis/stm32f4/stm-idf/components/driver/timer.c ****         {                  {0},                   {0},                  {0}},
 663:/home/phong/Documents/thesis/stm32f4/stm-idf/components/driver/timer.c ****         {                  {0},                   {0},                  {0}},
 664:/home/phong/Documents/thesis/stm32f4/stm-idf/components/driver/timer.c ****         {                  {0},                   {0},                  {0}}
 665:/home/phong/Documents/thesis/stm32f4/stm-idf/components/driver/timer.c ****     },
 666:/home/phong/Documents/thesis/stm32f4/stm-idf/components/driver/timer.c **** 
 667:/home/phong/Documents/thesis/stm32f4/stm-idf/components/driver/timer.c ****     {   {                  {0},                   {0},                  {0}},
 668:/home/phong/Documents/thesis/stm32f4/stm-idf/components/driver/timer.c ****         {                  {0},                   {0},                  {0}},
 669:/home/phong/Documents/thesis/stm32f4/stm-idf/components/driver/timer.c ****         {                  {0},                   {0},                  {0}},
 670:/home/phong/Documents/thesis/stm32f4/stm-idf/components/driver/timer.c ****         {                  {0},                   {0},                  {0}}
 671:/home/phong/Documents/thesis/stm32f4/stm-idf/components/driver/timer.c ****     },
 672:/home/phong/Documents/thesis/stm32f4/stm-idf/components/driver/timer.c **** 
 673:/home/phong/Documents/thesis/stm32f4/stm-idf/components/driver/timer.c ****     {   {TIM8_CH1_PP1_HW_INFO , TIM8_CH1_PP2_HW_INFO ,                  {0}},
 674:/home/phong/Documents/thesis/stm32f4/stm-idf/components/driver/timer.c ****         {TIM8_CH2_PP1_HW_INFO , TIM8_CH2_PP2_HW_INFO ,                  {0}},
 675:/home/phong/Documents/thesis/stm32f4/stm-idf/components/driver/timer.c ****         {TIM8_CH3_PP1_HW_INFO , TIM8_CH3_PP2_HW_INFO ,                  {0}},
 676:/home/phong/Documents/thesis/stm32f4/stm-idf/components/driver/timer.c ****         {TIM8_CH4_PP1_HW_INFO , TIM8_CH4_PP2_HW_INFO ,                  {0}}
 677:/home/phong/Documents/thesis/stm32f4/stm-idf/components/driver/timer.c ****     },
 678:/home/phong/Documents/thesis/stm32f4/stm-idf/components/driver/timer.c **** 
 679:/home/phong/Documents/thesis/stm32f4/stm-idf/components/driver/timer.c ****     {   {TIM9_CH1_PP1_HW_INFO , TIM9_CH1_PP2_HW_INFO ,                  {0}},
 680:/home/phong/Documents/thesis/stm32f4/stm-idf/components/driver/timer.c ****         {TIM9_CH2_PP1_HW_INFO , TIM9_CH2_PP2_HW_INFO ,                  {0}},
 681:/home/phong/Documents/thesis/stm32f4/stm-idf/components/driver/timer.c ****         {                  {0},                   {0},                  {0}},
 682:/home/phong/Documents/thesis/stm32f4/stm-idf/components/driver/timer.c ****         {                  {0},                   {0},                  {0}}
 683:/home/phong/Documents/thesis/stm32f4/stm-idf/components/driver/timer.c ****     },
 684:/home/phong/Documents/thesis/stm32f4/stm-idf/components/driver/timer.c **** 
 685:/home/phong/Documents/thesis/stm32f4/stm-idf/components/driver/timer.c ****     {   {TIM10_CH1_PP1_HW_INFO, TIM10_CH1_PP2_HW_INFO,                  {0}},
 686:/home/phong/Documents/thesis/stm32f4/stm-idf/components/driver/timer.c ****         {                  {0},                   {0},                  {0}},
 687:/home/phong/Documents/thesis/stm32f4/stm-idf/components/driver/timer.c ****         {                  {0},                   {0},                  {0}},
 688:/home/phong/Documents/thesis/stm32f4/stm-idf/components/driver/timer.c ****         {                  {0},                   {0},                  {0}}
 689:/home/phong/Documents/thesis/stm32f4/stm-idf/components/driver/timer.c ****     },
 690:/home/phong/Documents/thesis/stm32f4/stm-idf/components/driver/timer.c **** 
 691:/home/phong/Documents/thesis/stm32f4/stm-idf/components/driver/timer.c ****     {   {TIM11_CH1_PP1_HW_INFO, TIM11_CH1_PP2_HW_INFO,                  {0}},
 692:/home/phong/Documents/thesis/stm32f4/stm-idf/components/driver/timer.c ****         {                  {0},                   {0},                  {0}},
 693:/home/phong/Documents/thesis/stm32f4/stm-idf/components/driver/timer.c ****         {                  {0},                   {0},                  {0}},
 694:/home/phong/Documents/thesis/stm32f4/stm-idf/components/driver/timer.c ****         {                  {0},                   {0},                  {0}}
 695:/home/phong/Documents/thesis/stm32f4/stm-idf/components/driver/timer.c ****     },
 696:/home/phong/Documents/thesis/stm32f4/stm-idf/components/driver/timer.c **** 
 697:/home/phong/Documents/thesis/stm32f4/stm-idf/components/driver/timer.c ****     {   {TIM12_CH1_PP1_HW_INFO, TIM12_CH1_PP2_HW_INFO,                  {0}},
 698:/home/phong/Documents/thesis/stm32f4/stm-idf/components/driver/timer.c ****         {TIM12_CH2_PP1_HW_INFO, TIM12_CH2_PP2_HW_INFO,                  {0}},
 699:/home/phong/Documents/thesis/stm32f4/stm-idf/components/driver/timer.c ****         {                  {0},                   {0},                  {0}},
 700:/home/phong/Documents/thesis/stm32f4/stm-idf/components/driver/timer.c ****         {                  {0},                   {0},                  {0}}
 701:/home/phong/Documents/thesis/stm32f4/stm-idf/components/driver/timer.c ****     },
 702:/home/phong/Documents/thesis/stm32f4/stm-idf/components/driver/timer.c **** 
 703:/home/phong/Documents/thesis/stm32f4/stm-idf/components/driver/timer.c ****     {   {TIM13_CH1_PP1_HW_INFO, TIM13_CH1_PP2_HW_INFO,                  {0}},
 704:/home/phong/Documents/thesis/stm32f4/stm-idf/components/driver/timer.c ****         {                  {0},                   {0},                  {0}},
 705:/home/phong/Documents/thesis/stm32f4/stm-idf/components/driver/timer.c ****         {                  {0},                   {0},                  {0}},
 706:/home/phong/Documents/thesis/stm32f4/stm-idf/components/driver/timer.c ****         {                  {0},                   {0},                  {0}}
 707:/home/phong/Documents/thesis/stm32f4/stm-idf/components/driver/timer.c ****     },
 708:/home/phong/Documents/thesis/stm32f4/stm-idf/components/driver/timer.c **** 
 709:/home/phong/Documents/thesis/stm32f4/stm-idf/components/driver/timer.c ****     {   {TIM14_CH1_PP1_HW_INFO, TIM14_CH1_PP2_HW_INFO,                     },
 710:/home/phong/Documents/thesis/stm32f4/stm-idf/components/driver/timer.c ****         {                  {0},                   {0},                  {0}},
 711:/home/phong/Documents/thesis/stm32f4/stm-idf/components/driver/timer.c ****         {                  {0},                   {0},                  {0}},
 712:/home/phong/Documents/thesis/stm32f4/stm-idf/components/driver/timer.c ****         {                  {0},                   {0},                  {0}}
 713:/home/phong/Documents/thesis/stm32f4/stm-idf/components/driver/timer.c ****     }
 714:/home/phong/Documents/thesis/stm32f4/stm-idf/components/driver/timer.c **** };
 715:/home/phong/Documents/thesis/stm32f4/stm-idf/components/driver/timer.c **** 
 716:/home/phong/Documents/thesis/stm32f4/stm-idf/components/driver/timer.c **** /*
ARM GAS  /tmp/cc6XjLyw.s 			page 14


 717:/home/phong/Documents/thesis/stm32f4/stm-idf/components/driver/timer.c ****  * External Counter Hardware Information Mapping Table.
 718:/home/phong/Documents/thesis/stm32f4/stm-idf/components/driver/timer.c ****  */
 719:/home/phong/Documents/thesis/stm32f4/stm-idf/components/driver/timer.c **** tim_hw_info_t TIM_ETR_HW_INFO_MAPPING[TIMER_NUM_MAX][TIMER_PINS_PACK_MAX] = {
 720:/home/phong/Documents/thesis/stm32f4/stm-idf/components/driver/timer.c ****     { TIM1_PP1_ETR_HW_INFO, TIM1_PP2_ETR_HW_INFO,                  {0}},
 721:/home/phong/Documents/thesis/stm32f4/stm-idf/components/driver/timer.c ****     { TIM2_PP1_ETR_HW_INFO, TIM2_PP2_ETR_HW_INFO, TIM2_PP3_ETR_HW_INFO},
 722:/home/phong/Documents/thesis/stm32f4/stm-idf/components/driver/timer.c ****     { TIM3_PP1_ETR_HW_INFO,                  {0},                  {0}},
 723:/home/phong/Documents/thesis/stm32f4/stm-idf/components/driver/timer.c ****     { TIM4_PP1_ETR_HW_INFO,                  {0},                  {0}},
 724:/home/phong/Documents/thesis/stm32f4/stm-idf/components/driver/timer.c ****     {                  {0},                  {0},                  {0}},
 725:/home/phong/Documents/thesis/stm32f4/stm-idf/components/driver/timer.c ****     {                  {0},                  {0},                  {0}},
 726:/home/phong/Documents/thesis/stm32f4/stm-idf/components/driver/timer.c ****     {                  {0},                  {0},                  {0}},
 727:/home/phong/Documents/thesis/stm32f4/stm-idf/components/driver/timer.c ****     { TIM8_PP1_ETR_HW_INFO,                  {0},                  {0}},
 728:/home/phong/Documents/thesis/stm32f4/stm-idf/components/driver/timer.c ****     {                  {0},                  {0},                  {0}},
 729:/home/phong/Documents/thesis/stm32f4/stm-idf/components/driver/timer.c ****     {                  {0},                  {0},                  {0}},
 730:/home/phong/Documents/thesis/stm32f4/stm-idf/components/driver/timer.c ****     {                  {0},                  {0},                  {0}},
 731:/home/phong/Documents/thesis/stm32f4/stm-idf/components/driver/timer.c ****     {                  {0},                  {0},                  {0}},
 732:/home/phong/Documents/thesis/stm32f4/stm-idf/components/driver/timer.c ****     {                  {0},                  {0},                  {0}},
 733:/home/phong/Documents/thesis/stm32f4/stm-idf/components/driver/timer.c ****     {                  {0},                  {0},                  {0}},
 734:/home/phong/Documents/thesis/stm32f4/stm-idf/components/driver/timer.c **** };
 735:/home/phong/Documents/thesis/stm32f4/stm-idf/components/driver/timer.c **** 
 736:/home/phong/Documents/thesis/stm32f4/stm-idf/components/driver/timer.c **** /* 
 737:/home/phong/Documents/thesis/stm32f4/stm-idf/components/driver/timer.c ****  * TIM Mapping Table 
 738:/home/phong/Documents/thesis/stm32f4/stm-idf/components/driver/timer.c ****  */
 739:/home/phong/Documents/thesis/stm32f4/stm-idf/components/driver/timer.c **** static TIM_TypeDef *TIM_MAPPING[TIMER_NUM_MAX] = {
 740:/home/phong/Documents/thesis/stm32f4/stm-idf/components/driver/timer.c ****     TIM1,
 741:/home/phong/Documents/thesis/stm32f4/stm-idf/components/driver/timer.c ****     TIM2,
 742:/home/phong/Documents/thesis/stm32f4/stm-idf/components/driver/timer.c ****     TIM3,
 743:/home/phong/Documents/thesis/stm32f4/stm-idf/components/driver/timer.c ****     TIM4,
 744:/home/phong/Documents/thesis/stm32f4/stm-idf/components/driver/timer.c ****     TIM5,
 745:/home/phong/Documents/thesis/stm32f4/stm-idf/components/driver/timer.c ****     TIM6,
 746:/home/phong/Documents/thesis/stm32f4/stm-idf/components/driver/timer.c ****     TIM7,
 747:/home/phong/Documents/thesis/stm32f4/stm-idf/components/driver/timer.c ****     TIM8,
 748:/home/phong/Documents/thesis/stm32f4/stm-idf/components/driver/timer.c ****     TIM9,
 749:/home/phong/Documents/thesis/stm32f4/stm-idf/components/driver/timer.c ****     TIM10,
 750:/home/phong/Documents/thesis/stm32f4/stm-idf/components/driver/timer.c ****     TIM11,
 751:/home/phong/Documents/thesis/stm32f4/stm-idf/components/driver/timer.c ****     TIM12,
 752:/home/phong/Documents/thesis/stm32f4/stm-idf/components/driver/timer.c ****     TIM13,
 753:/home/phong/Documents/thesis/stm32f4/stm-idf/components/driver/timer.c ****     TIM14
 754:/home/phong/Documents/thesis/stm32f4/stm-idf/components/driver/timer.c **** };
 755:/home/phong/Documents/thesis/stm32f4/stm-idf/components/driver/timer.c **** 
 756:/home/phong/Documents/thesis/stm32f4/stm-idf/components/driver/timer.c **** static tim_hw_info_t _tim_pwm_get_hw_info(timer_num_t timer_num, timer_channel_t timer_channel, tim
 757:/home/phong/Documents/thesis/stm32f4/stm-idf/components/driver/timer.c **** {
  27              		.loc 1 757 0
  28              		.cfi_startproc
  29              		@ args = 0, pretend = 0, frame = 0
  30              		@ frame_needed = 0, uses_anonymous_args = 0
  31              		@ link register save eliminated.
  32              	.LVL0:
  33 0000 70B4     		push	{r4, r5, r6}
  34              	.LCFI0:
  35              		.cfi_def_cfa_offset 12
  36              		.cfi_offset 4, -12
  37              		.cfi_offset 5, -8
  38              		.cfi_offset 6, -4
  39 0002 0646     		mov	r6, r0
 758:/home/phong/Documents/thesis/stm32f4/stm-idf/components/driver/timer.c ****     tim_hw_info_t hw_info;
 759:/home/phong/Documents/thesis/stm32f4/stm-idf/components/driver/timer.c ****     hw_info = TIM_HW_INFO_MAPPING[timer_num][timer_channel][timer_pins_pack];
  40              		.loc 1 759 0
ARM GAS  /tmp/cc6XjLyw.s 			page 15


  41 0004 03EB8303 		add	r3, r3, r3, lsl #2
  42              	.LVL1:
  43 0008 9C00     		lsls	r4, r3, #2
  44 000a C2EB0212 		rsb	r2, r2, r2, lsl #4
  45              	.LVL2:
  46 000e 9300     		lsls	r3, r2, #2
  47 0010 1C44     		add	r4, r4, r3
  48 0012 C1EB0111 		rsb	r1, r1, r1, lsl #4
  49              	.LVL3:
  50 0016 0B01     		lsls	r3, r1, #4
  51 0018 2344     		add	r3, r3, r4
  52 001a 0546     		mov	r5, r0
  53 001c 044C     		ldr	r4, .L3
  54 001e 1C44     		add	r4, r4, r3
  55 0020 0FCC     		ldmia	r4!, {r0, r1, r2, r3}
  56              	.LVL4:
  57 0022 0FC5     		stmia	r5!, {r0, r1, r2, r3}
  58              	.LVL5:
  59 0024 2368     		ldr	r3, [r4]
  60 0026 2B60     		str	r3, [r5]
 760:/home/phong/Documents/thesis/stm32f4/stm-idf/components/driver/timer.c **** 
 761:/home/phong/Documents/thesis/stm32f4/stm-idf/components/driver/timer.c ****     return hw_info;
 762:/home/phong/Documents/thesis/stm32f4/stm-idf/components/driver/timer.c **** }
  61              		.loc 1 762 0
  62 0028 3046     		mov	r0, r6
  63 002a 70BC     		pop	{r4, r5, r6}
  64              	.LCFI1:
  65              		.cfi_restore 6
  66              		.cfi_restore 5
  67              		.cfi_restore 4
  68              		.cfi_def_cfa_offset 0
  69              	.LVL6:
  70 002c 7047     		bx	lr
  71              	.L4:
  72 002e 00BF     		.align	2
  73              	.L3:
  74 0030 00000000 		.word	.LANCHOR0
  75              		.cfi_endproc
  76              	.LFE133:
  78              		.section	.text._tim_etr_get_hw_info,"ax",%progbits
  79              		.align	1
  80              		.syntax unified
  81              		.thumb
  82              		.thumb_func
  83              		.fpu fpv4-sp-d16
  85              	_tim_etr_get_hw_info:
  86              	.LFB134:
 763:/home/phong/Documents/thesis/stm32f4/stm-idf/components/driver/timer.c **** 
 764:/home/phong/Documents/thesis/stm32f4/stm-idf/components/driver/timer.c **** static tim_hw_info_t _tim_etr_get_hw_info(timer_num_t timer_num, timer_pins_pack_t timer_pins_pack)
 765:/home/phong/Documents/thesis/stm32f4/stm-idf/components/driver/timer.c **** {
  87              		.loc 1 765 0
  88              		.cfi_startproc
  89              		@ args = 0, pretend = 0, frame = 0
  90              		@ frame_needed = 0, uses_anonymous_args = 0
  91              		@ link register save eliminated.
  92              	.LVL7:
  93 0000 70B4     		push	{r4, r5, r6}
ARM GAS  /tmp/cc6XjLyw.s 			page 16


  94              	.LCFI2:
  95              		.cfi_def_cfa_offset 12
  96              		.cfi_offset 4, -12
  97              		.cfi_offset 5, -8
  98              		.cfi_offset 6, -4
  99 0002 0646     		mov	r6, r0
 766:/home/phong/Documents/thesis/stm32f4/stm-idf/components/driver/timer.c ****     tim_hw_info_t hw_info;
 767:/home/phong/Documents/thesis/stm32f4/stm-idf/components/driver/timer.c ****     hw_info = TIM_ETR_HW_INFO_MAPPING[timer_num][timer_pins_pack];
 100              		.loc 1 767 0
 101 0004 02EB8202 		add	r2, r2, r2, lsl #2
 102              	.LVL8:
 103 0008 9400     		lsls	r4, r2, #2
 104 000a C1EB0111 		rsb	r1, r1, r1, lsl #4
 105              	.LVL9:
 106 000e 8B00     		lsls	r3, r1, #2
 107 0010 2344     		add	r3, r3, r4
 108 0012 0546     		mov	r5, r0
 109 0014 044C     		ldr	r4, .L7
 110 0016 1C44     		add	r4, r4, r3
 111 0018 0FCC     		ldmia	r4!, {r0, r1, r2, r3}
 112              	.LVL10:
 113 001a 0FC5     		stmia	r5!, {r0, r1, r2, r3}
 114              	.LVL11:
 115 001c 2368     		ldr	r3, [r4]
 116 001e 2B60     		str	r3, [r5]
 768:/home/phong/Documents/thesis/stm32f4/stm-idf/components/driver/timer.c **** 
 769:/home/phong/Documents/thesis/stm32f4/stm-idf/components/driver/timer.c ****     return hw_info;
 770:/home/phong/Documents/thesis/stm32f4/stm-idf/components/driver/timer.c **** }
 117              		.loc 1 770 0
 118 0020 3046     		mov	r0, r6
 119 0022 70BC     		pop	{r4, r5, r6}
 120              	.LCFI3:
 121              		.cfi_restore 6
 122              		.cfi_restore 5
 123              		.cfi_restore 4
 124              		.cfi_def_cfa_offset 0
 125              	.LVL12:
 126 0024 7047     		bx	lr
 127              	.L8:
 128 0026 00BF     		.align	2
 129              	.L7:
 130 0028 00000000 		.word	.LANCHOR1
 131              		.cfi_endproc
 132              	.LFE134:
 134              		.section	.text.pwm_config,"ax",%progbits
 135              		.align	1
 136              		.global	pwm_config
 137              		.syntax unified
 138              		.thumb
 139              		.thumb_func
 140              		.fpu fpv4-sp-d16
 142              	pwm_config:
 143              	.LFB135:
 771:/home/phong/Documents/thesis/stm32f4/stm-idf/components/driver/timer.c **** 
 772:/home/phong/Documents/thesis/stm32f4/stm-idf/components/driver/timer.c **** stm_err_t pwm_config(pwm_config_t *config)
 773:/home/phong/Documents/thesis/stm32f4/stm-idf/components/driver/timer.c **** {
 144              		.loc 1 773 0
ARM GAS  /tmp/cc6XjLyw.s 			page 17


 145              		.cfi_startproc
 146              		@ args = 0, pretend = 0, frame = 96
 147              		@ frame_needed = 0, uses_anonymous_args = 0
 148              	.LVL13:
 149 0000 30B5     		push	{r4, r5, lr}
 150              	.LCFI4:
 151              		.cfi_def_cfa_offset 12
 152              		.cfi_offset 4, -12
 153              		.cfi_offset 5, -8
 154              		.cfi_offset 14, -4
 155 0002 9FB0     		sub	sp, sp, #124
 156              	.LCFI5:
 157              		.cfi_def_cfa_offset 136
 774:/home/phong/Documents/thesis/stm32f4/stm-idf/components/driver/timer.c ****     /* Check input condition */
 775:/home/phong/Documents/thesis/stm32f4/stm-idf/components/driver/timer.c ****     TIMER_CHECK(config, PWM_INIT_ERR_STR, STM_ERR_INVALID_ARG);
 158              		.loc 1 775 0
 159 0004 20B3     		cbz	r0, .L24
 160 0006 0446     		mov	r4, r0
 776:/home/phong/Documents/thesis/stm32f4/stm-idf/components/driver/timer.c ****     TIMER_CHECK(config->timer_num < TIMER_NUM_MAX, PWM_INIT_ERR_STR, STM_ERR_INVALID_ARG);
 161              		.loc 1 776 0
 162 0008 0178     		ldrb	r1, [r0]	@ zero_extendqisi2
 163 000a 0D29     		cmp	r1, #13
 164 000c 35D8     		bhi	.L25
 777:/home/phong/Documents/thesis/stm32f4/stm-idf/components/driver/timer.c ****     TIMER_CHECK(config->timer_pins_pack < TIMER_PINS_PACK_MAX, PWM_INIT_ERR_STR, STM_ERR_INVALID_AR
 165              		.loc 1 777 0
 166 000e 8378     		ldrb	r3, [r0, #2]	@ zero_extendqisi2
 167 0010 022B     		cmp	r3, #2
 168 0012 48D8     		bhi	.L26
 778:/home/phong/Documents/thesis/stm32f4/stm-idf/components/driver/timer.c ****     TIMER_CHECK(config->timer_channel < TIMER_CHANNEL_MAX, PWM_INIT_ERR_STR, STM_ERR_INVALID_ARG);
 169              		.loc 1 778 0
 170 0014 4278     		ldrb	r2, [r0, #1]	@ zero_extendqisi2
 171 0016 032A     		cmp	r2, #3
 172 0018 5AD8     		bhi	.L27
 779:/home/phong/Documents/thesis/stm32f4/stm-idf/components/driver/timer.c **** 
 780:/home/phong/Documents/thesis/stm32f4/stm-idf/components/driver/timer.c ****     /* Get hardware information */
 781:/home/phong/Documents/thesis/stm32f4/stm-idf/components/driver/timer.c ****     tim_hw_info_t hw_info = _tim_pwm_get_hw_info(config->timer_num, config->timer_channel, config->
 173              		.loc 1 781 0
 174 001a 19A8     		add	r0, sp, #100
 175              	.LVL14:
 176 001c FFF7FEFF 		bl	_tim_pwm_get_hw_info
 177              	.LVL15:
 782:/home/phong/Documents/thesis/stm32f4/stm-idf/components/driver/timer.c **** 
 783:/home/phong/Documents/thesis/stm32f4/stm-idf/components/driver/timer.c ****     int ret;
 784:/home/phong/Documents/thesis/stm32f4/stm-idf/components/driver/timer.c **** 
 785:/home/phong/Documents/thesis/stm32f4/stm-idf/components/driver/timer.c ****     /* Enable GPIO clock */
 786:/home/phong/Documents/thesis/stm32f4/stm-idf/components/driver/timer.c ****     uint32_t tmpreg = 0x00;
 787:/home/phong/Documents/thesis/stm32f4/stm-idf/components/driver/timer.c ****     SET_BIT(RCC->AHB1ENR, hw_info.rcc_ahbenr_gpioen);
 178              		.loc 1 787 0
 179 0020 9C4B     		ldr	r3, .L33
 180 0022 1A6B     		ldr	r2, [r3, #48]
 181 0024 1A99     		ldr	r1, [sp, #104]
 182 0026 0A43     		orrs	r2, r2, r1
 183 0028 1A63     		str	r2, [r3, #48]
 788:/home/phong/Documents/thesis/stm32f4/stm-idf/components/driver/timer.c ****     tmpreg = READ_BIT(RCC->AHB1ENR, hw_info.rcc_ahbenr_gpioen);
 184              		.loc 1 788 0
 185 002a 1B6B     		ldr	r3, [r3, #48]
 789:/home/phong/Documents/thesis/stm32f4/stm-idf/components/driver/timer.c ****     UNUSED(tmpreg);
ARM GAS  /tmp/cc6XjLyw.s 			page 18


 790:/home/phong/Documents/thesis/stm32f4/stm-idf/components/driver/timer.c **** 
 791:/home/phong/Documents/thesis/stm32f4/stm-idf/components/driver/timer.c ****     /* Enable timer clock */
 792:/home/phong/Documents/thesis/stm32f4/stm-idf/components/driver/timer.c ****     tmpreg = 0x00;
 793:/home/phong/Documents/thesis/stm32f4/stm-idf/components/driver/timer.c ****     if ((config->timer_num == TIMER_NUM_1) || (config->timer_num == TIMER_NUM_8) || (config->timer_
 186              		.loc 1 793 0
 187 002c 2378     		ldrb	r3, [r4]	@ zero_extendqisi2
 188 002e 002B     		cmp	r3, #0
 189 0030 63D0     		beq	.L15
 190              		.loc 1 793 0 is_stmt 0 discriminator 1
 191 0032 072B     		cmp	r3, #7
 192 0034 61D0     		beq	.L15
 193              		.loc 1 793 0 discriminator 2
 194 0036 082B     		cmp	r3, #8
 195 0038 5FD0     		beq	.L15
 196              		.loc 1 793 0 discriminator 3
 197 003a 092B     		cmp	r3, #9
 198 003c 5DD0     		beq	.L15
 199              		.loc 1 793 0 discriminator 4
 200 003e 0A2B     		cmp	r3, #10
 201 0040 5BD0     		beq	.L15
 794:/home/phong/Documents/thesis/stm32f4/stm-idf/components/driver/timer.c ****         SET_BIT(RCC->APB2ENR, hw_info.rcc_apbenr_timen);
 795:/home/phong/Documents/thesis/stm32f4/stm-idf/components/driver/timer.c ****         tmpreg = READ_BIT(RCC->APB2ENR, hw_info.rcc_apbenr_timen);
 796:/home/phong/Documents/thesis/stm32f4/stm-idf/components/driver/timer.c ****     }
 797:/home/phong/Documents/thesis/stm32f4/stm-idf/components/driver/timer.c ****     else {
 798:/home/phong/Documents/thesis/stm32f4/stm-idf/components/driver/timer.c ****         SET_BIT(RCC->APB1ENR, hw_info.rcc_apbenr_timen);
 202              		.loc 1 798 0 is_stmt 1
 203 0042 944B     		ldr	r3, .L33
 204 0044 1A6C     		ldr	r2, [r3, #64]
 205 0046 1999     		ldr	r1, [sp, #100]
 206 0048 0A43     		orrs	r2, r2, r1
 207 004a 1A64     		str	r2, [r3, #64]
 799:/home/phong/Documents/thesis/stm32f4/stm-idf/components/driver/timer.c ****         tmpreg = READ_BIT(RCC->APB1ENR, hw_info.rcc_apbenr_timen);
 208              		.loc 1 799 0
 209 004c 1B6C     		ldr	r3, [r3, #64]
 210              	.LVL16:
 211 004e 5AE0     		b	.L17
 212              	.LVL17:
 213              	.L24:
 775:/home/phong/Documents/thesis/stm32f4/stm-idf/components/driver/timer.c ****     TIMER_CHECK(config->timer_num < TIMER_NUM_MAX, PWM_INIT_ERR_STR, STM_ERR_INVALID_ARG);
 214              		.loc 1 775 0 discriminator 4
 215 0050 FFF7FEFF 		bl	stm_log_timestamp
 216              	.LVL18:
 217 0054 9049     		ldr	r1, .L33+4
 218 0056 914B     		ldr	r3, .L33+8
 219 0058 0493     		str	r3, [sp, #16]
 220 005a 914B     		ldr	r3, .L33+12
 221 005c 0393     		str	r3, [sp, #12]
 222 005e 40F20733 		movw	r3, #775
 223 0062 0293     		str	r3, [sp, #8]
 224 0064 8F4B     		ldr	r3, .L33+16
 225 0066 0193     		str	r3, [sp, #4]
 226 0068 0091     		str	r1, [sp]
 227 006a 0346     		mov	r3, r0
 228 006c 8E4A     		ldr	r2, .L33+20
 229 006e 0120     		movs	r0, #1
 230 0070 FFF7FEFF 		bl	stm_log_write
 231              	.LVL19:
ARM GAS  /tmp/cc6XjLyw.s 			page 19


 232 0074 4FF48170 		mov	r0, #258
 233 0078 13E0     		b	.L9
 234              	.LVL20:
 235              	.L25:
 776:/home/phong/Documents/thesis/stm32f4/stm-idf/components/driver/timer.c ****     TIMER_CHECK(config->timer_pins_pack < TIMER_PINS_PACK_MAX, PWM_INIT_ERR_STR, STM_ERR_INVALID_AR
 236              		.loc 1 776 0 discriminator 4
 237 007a FFF7FEFF 		bl	stm_log_timestamp
 238              	.LVL21:
 239 007e 8649     		ldr	r1, .L33+4
 240 0080 864B     		ldr	r3, .L33+8
 241 0082 0493     		str	r3, [sp, #16]
 242 0084 864B     		ldr	r3, .L33+12
 243 0086 0393     		str	r3, [sp, #12]
 244 0088 4FF44273 		mov	r3, #776
 245 008c 0293     		str	r3, [sp, #8]
 246 008e 854B     		ldr	r3, .L33+16
 247 0090 0193     		str	r3, [sp, #4]
 248 0092 0091     		str	r1, [sp]
 249 0094 0346     		mov	r3, r0
 250 0096 844A     		ldr	r2, .L33+20
 251 0098 0120     		movs	r0, #1
 252 009a FFF7FEFF 		bl	stm_log_write
 253              	.LVL22:
 254 009e 4FF48170 		mov	r0, #258
 255              	.LVL23:
 256              	.L9:
 800:/home/phong/Documents/thesis/stm32f4/stm-idf/components/driver/timer.c ****     }
 801:/home/phong/Documents/thesis/stm32f4/stm-idf/components/driver/timer.c ****     UNUSED(tmpreg);
 802:/home/phong/Documents/thesis/stm32f4/stm-idf/components/driver/timer.c **** 
 803:/home/phong/Documents/thesis/stm32f4/stm-idf/components/driver/timer.c ****     /* Configure GPIO Pin */
 804:/home/phong/Documents/thesis/stm32f4/stm-idf/components/driver/timer.c ****     GPIO_InitTypeDef GPIO_InitStruct = {0};
 805:/home/phong/Documents/thesis/stm32f4/stm-idf/components/driver/timer.c ****     GPIO_InitStruct.Pin = hw_info.pin;
 806:/home/phong/Documents/thesis/stm32f4/stm-idf/components/driver/timer.c ****     GPIO_InitStruct.Mode = GPIO_MODE_DEFAULT;
 807:/home/phong/Documents/thesis/stm32f4/stm-idf/components/driver/timer.c ****     GPIO_InitStruct.Pull = GPIO_PULL_REG_DEFAULT;
 808:/home/phong/Documents/thesis/stm32f4/stm-idf/components/driver/timer.c ****     GPIO_InitStruct.Speed = GPIO_SPEED_FREQ_DEFAULT;
 809:/home/phong/Documents/thesis/stm32f4/stm-idf/components/driver/timer.c ****     GPIO_InitStruct.Alternate = hw_info.alternate_func;
 810:/home/phong/Documents/thesis/stm32f4/stm-idf/components/driver/timer.c ****     HAL_GPIO_Init(hw_info.port, &GPIO_InitStruct);
 811:/home/phong/Documents/thesis/stm32f4/stm-idf/components/driver/timer.c **** 
 812:/home/phong/Documents/thesis/stm32f4/stm-idf/components/driver/timer.c ****     /* Configure Timer */
 813:/home/phong/Documents/thesis/stm32f4/stm-idf/components/driver/timer.c ****     timer_handle[config->timer_num].Instance                 = hw_info.timer;
 814:/home/phong/Documents/thesis/stm32f4/stm-idf/components/driver/timer.c ****     timer_handle[config->timer_num].Init.Prescaler           = 0;
 815:/home/phong/Documents/thesis/stm32f4/stm-idf/components/driver/timer.c ****     timer_handle[config->timer_num].Init.CounterMode         = PWM_COUNTERMODE_DEFAULT;
 816:/home/phong/Documents/thesis/stm32f4/stm-idf/components/driver/timer.c ****     timer_handle[config->timer_num].Init.Period              = 0;
 817:/home/phong/Documents/thesis/stm32f4/stm-idf/components/driver/timer.c ****     timer_handle[config->timer_num].Init.ClockDivision       = PWM_TIM_CLOCK_DIV_DEFAULT;
 818:/home/phong/Documents/thesis/stm32f4/stm-idf/components/driver/timer.c ****     timer_handle[config->timer_num].Init.AutoReloadPreload   = TIM_AUTORELOAD_PRELOAD_DISABLE;
 819:/home/phong/Documents/thesis/stm32f4/stm-idf/components/driver/timer.c ****     ret = HAL_TIM_Base_Init(&timer_handle[config->timer_num]);
 820:/home/phong/Documents/thesis/stm32f4/stm-idf/components/driver/timer.c ****     TIMER_CHECK(!ret, PWM_INIT_ERR_STR, STM_FAIL);
 821:/home/phong/Documents/thesis/stm32f4/stm-idf/components/driver/timer.c **** 
 822:/home/phong/Documents/thesis/stm32f4/stm-idf/components/driver/timer.c ****     /* Configure PWM */
 823:/home/phong/Documents/thesis/stm32f4/stm-idf/components/driver/timer.c ****     ret = HAL_TIM_PWM_Init(&timer_handle[config->timer_num]);
 824:/home/phong/Documents/thesis/stm32f4/stm-idf/components/driver/timer.c ****     TIMER_CHECK(!ret, PWM_INIT_ERR_STR, STM_FAIL);
 825:/home/phong/Documents/thesis/stm32f4/stm-idf/components/driver/timer.c **** 
 826:/home/phong/Documents/thesis/stm32f4/stm-idf/components/driver/timer.c ****     /* Configure Timer clock source */
 827:/home/phong/Documents/thesis/stm32f4/stm-idf/components/driver/timer.c ****     TIM_ClockConfigTypeDef sClockSourceConfig = {0};
 828:/home/phong/Documents/thesis/stm32f4/stm-idf/components/driver/timer.c ****     sClockSourceConfig.ClockSource = TIM_CLOCKSOURCE_INTERNAL;
 829:/home/phong/Documents/thesis/stm32f4/stm-idf/components/driver/timer.c ****     ret = HAL_TIM_ConfigClockSource(&timer_handle[config->timer_num], &sClockSourceConfig);
 830:/home/phong/Documents/thesis/stm32f4/stm-idf/components/driver/timer.c ****     TIMER_CHECK(!ret, PWM_INIT_ERR_STR, STM_FAIL);
ARM GAS  /tmp/cc6XjLyw.s 			page 20


 831:/home/phong/Documents/thesis/stm32f4/stm-idf/components/driver/timer.c **** 
 832:/home/phong/Documents/thesis/stm32f4/stm-idf/components/driver/timer.c ****     /* Configure Timer in master mode */
 833:/home/phong/Documents/thesis/stm32f4/stm-idf/components/driver/timer.c ****     TIM_MasterConfigTypeDef sMasterConfig = {0};
 834:/home/phong/Documents/thesis/stm32f4/stm-idf/components/driver/timer.c ****     sMasterConfig.MasterOutputTrigger = TIM_TRGO_RESET;
 835:/home/phong/Documents/thesis/stm32f4/stm-idf/components/driver/timer.c ****     sMasterConfig.MasterSlaveMode = TIM_MASTERSLAVEMODE_DISABLE;
 836:/home/phong/Documents/thesis/stm32f4/stm-idf/components/driver/timer.c ****     ret = HAL_TIMEx_MasterConfigSynchronization(&timer_handle[config->timer_num], &sMasterConfig);
 837:/home/phong/Documents/thesis/stm32f4/stm-idf/components/driver/timer.c ****     TIMER_CHECK(!ret, PWM_INIT_ERR_STR, STM_FAIL);
 838:/home/phong/Documents/thesis/stm32f4/stm-idf/components/driver/timer.c **** 
 839:/home/phong/Documents/thesis/stm32f4/stm-idf/components/driver/timer.c ****     /* Configure Timer PWM channel */
 840:/home/phong/Documents/thesis/stm32f4/stm-idf/components/driver/timer.c ****     TIM_OC_InitTypeDef sConfigOC = {0};
 841:/home/phong/Documents/thesis/stm32f4/stm-idf/components/driver/timer.c ****     sConfigOC.OCMode = TIM_OCMODE_PWM1;
 842:/home/phong/Documents/thesis/stm32f4/stm-idf/components/driver/timer.c ****     sConfigOC.Pulse = 0;
 843:/home/phong/Documents/thesis/stm32f4/stm-idf/components/driver/timer.c ****     sConfigOC.OCPolarity = TIM_OCPOLARITY_HIGH;
 844:/home/phong/Documents/thesis/stm32f4/stm-idf/components/driver/timer.c ****     sConfigOC.OCFastMode = TIM_OCFAST_DISABLE;
 845:/home/phong/Documents/thesis/stm32f4/stm-idf/components/driver/timer.c ****     ret = HAL_TIM_PWM_ConfigChannel(&timer_handle[config->timer_num], &sConfigOC, TIM_CHANNEL_x_MAP
 846:/home/phong/Documents/thesis/stm32f4/stm-idf/components/driver/timer.c ****     TIMER_CHECK(!ret, PWM_INIT_ERR_STR, STM_FAIL);
 847:/home/phong/Documents/thesis/stm32f4/stm-idf/components/driver/timer.c **** 
 848:/home/phong/Documents/thesis/stm32f4/stm-idf/components/driver/timer.c ****     HAL_TIM_Base_Start(&timer_handle[config->timer_num]);
 849:/home/phong/Documents/thesis/stm32f4/stm-idf/components/driver/timer.c ****     return STM_OK;
 850:/home/phong/Documents/thesis/stm32f4/stm-idf/components/driver/timer.c **** }
 257              		.loc 1 850 0
 258 00a2 1FB0     		add	sp, sp, #124
 259              	.LCFI6:
 260              		.cfi_remember_state
 261              		.cfi_def_cfa_offset 12
 262              		@ sp needed
 263 00a4 30BD     		pop	{r4, r5, pc}
 264              	.LVL24:
 265              	.L26:
 266              	.LCFI7:
 267              		.cfi_restore_state
 777:/home/phong/Documents/thesis/stm32f4/stm-idf/components/driver/timer.c ****     TIMER_CHECK(config->timer_channel < TIMER_CHANNEL_MAX, PWM_INIT_ERR_STR, STM_ERR_INVALID_ARG);
 268              		.loc 1 777 0 discriminator 4
 269 00a6 FFF7FEFF 		bl	stm_log_timestamp
 270              	.LVL25:
 271 00aa 7B49     		ldr	r1, .L33+4
 272 00ac 7B4B     		ldr	r3, .L33+8
 273 00ae 0493     		str	r3, [sp, #16]
 274 00b0 7B4B     		ldr	r3, .L33+12
 275 00b2 0393     		str	r3, [sp, #12]
 276 00b4 40F20933 		movw	r3, #777
 277 00b8 0293     		str	r3, [sp, #8]
 278 00ba 7A4B     		ldr	r3, .L33+16
 279 00bc 0193     		str	r3, [sp, #4]
 280 00be 0091     		str	r1, [sp]
 281 00c0 0346     		mov	r3, r0
 282 00c2 794A     		ldr	r2, .L33+20
 283 00c4 0120     		movs	r0, #1
 284 00c6 FFF7FEFF 		bl	stm_log_write
 285              	.LVL26:
 286 00ca 4FF48170 		mov	r0, #258
 287 00ce E8E7     		b	.L9
 288              	.LVL27:
 289              	.L27:
 778:/home/phong/Documents/thesis/stm32f4/stm-idf/components/driver/timer.c **** 
 290              		.loc 1 778 0 discriminator 4
 291 00d0 FFF7FEFF 		bl	stm_log_timestamp
ARM GAS  /tmp/cc6XjLyw.s 			page 21


 292              	.LVL28:
 293 00d4 7049     		ldr	r1, .L33+4
 294 00d6 714B     		ldr	r3, .L33+8
 295 00d8 0493     		str	r3, [sp, #16]
 296 00da 714B     		ldr	r3, .L33+12
 297 00dc 0393     		str	r3, [sp, #12]
 298 00de 40F20A33 		movw	r3, #778
 299 00e2 0293     		str	r3, [sp, #8]
 300 00e4 6F4B     		ldr	r3, .L33+16
 301 00e6 0193     		str	r3, [sp, #4]
 302 00e8 0091     		str	r1, [sp]
 303 00ea 0346     		mov	r3, r0
 304 00ec 6E4A     		ldr	r2, .L33+20
 305 00ee 0120     		movs	r0, #1
 306 00f0 FFF7FEFF 		bl	stm_log_write
 307              	.LVL29:
 308 00f4 4FF48170 		mov	r0, #258
 309 00f8 D3E7     		b	.L9
 310              	.LVL30:
 311              	.L15:
 794:/home/phong/Documents/thesis/stm32f4/stm-idf/components/driver/timer.c ****         tmpreg = READ_BIT(RCC->APB2ENR, hw_info.rcc_apbenr_timen);
 312              		.loc 1 794 0
 313 00fa 664B     		ldr	r3, .L33
 314 00fc 5A6C     		ldr	r2, [r3, #68]
 315 00fe 1999     		ldr	r1, [sp, #100]
 316 0100 0A43     		orrs	r2, r2, r1
 317 0102 5A64     		str	r2, [r3, #68]
 795:/home/phong/Documents/thesis/stm32f4/stm-idf/components/driver/timer.c ****     }
 318              		.loc 1 795 0
 319 0104 5B6C     		ldr	r3, [r3, #68]
 320              	.LVL31:
 321              	.L17:
 804:/home/phong/Documents/thesis/stm32f4/stm-idf/components/driver/timer.c ****     GPIO_InitStruct.Pin = hw_info.pin;
 322              		.loc 1 804 0
 323 0106 0025     		movs	r5, #0
 324 0108 1695     		str	r5, [sp, #88]
 805:/home/phong/Documents/thesis/stm32f4/stm-idf/components/driver/timer.c ****     GPIO_InitStruct.Mode = GPIO_MODE_DEFAULT;
 325              		.loc 1 805 0
 326 010a BDF87430 		ldrh	r3, [sp, #116]
 327 010e 1493     		str	r3, [sp, #80]
 806:/home/phong/Documents/thesis/stm32f4/stm-idf/components/driver/timer.c ****     GPIO_InitStruct.Pull = GPIO_PULL_REG_DEFAULT;
 328              		.loc 1 806 0
 329 0110 0223     		movs	r3, #2
 330 0112 1593     		str	r3, [sp, #84]
 808:/home/phong/Documents/thesis/stm32f4/stm-idf/components/driver/timer.c ****     GPIO_InitStruct.Alternate = hw_info.alternate_func;
 331              		.loc 1 808 0
 332 0114 0323     		movs	r3, #3
 333 0116 1793     		str	r3, [sp, #92]
 809:/home/phong/Documents/thesis/stm32f4/stm-idf/components/driver/timer.c ****     HAL_GPIO_Init(hw_info.port, &GPIO_InitStruct);
 334              		.loc 1 809 0
 335 0118 9DF87630 		ldrb	r3, [sp, #118]	@ zero_extendqisi2
 336 011c 1893     		str	r3, [sp, #96]
 810:/home/phong/Documents/thesis/stm32f4/stm-idf/components/driver/timer.c **** 
 337              		.loc 1 810 0
 338 011e 14A9     		add	r1, sp, #80
 339 0120 1C98     		ldr	r0, [sp, #112]
 340 0122 FFF7FEFF 		bl	HAL_GPIO_Init
ARM GAS  /tmp/cc6XjLyw.s 			page 22


 341              	.LVL32:
 813:/home/phong/Documents/thesis/stm32f4/stm-idf/components/driver/timer.c ****     timer_handle[config->timer_num].Init.Prescaler           = 0;
 342              		.loc 1 813 0
 343 0126 2278     		ldrb	r2, [r4]	@ zero_extendqisi2
 344 0128 604B     		ldr	r3, .L33+24
 345 012a 9201     		lsls	r2, r2, #6
 346 012c 1B99     		ldr	r1, [sp, #108]
 347 012e 9950     		str	r1, [r3, r2]
 814:/home/phong/Documents/thesis/stm32f4/stm-idf/components/driver/timer.c ****     timer_handle[config->timer_num].Init.CounterMode         = PWM_COUNTERMODE_DEFAULT;
 348              		.loc 1 814 0
 349 0130 2278     		ldrb	r2, [r4]	@ zero_extendqisi2
 350 0132 03EB8212 		add	r2, r3, r2, lsl #6
 351 0136 5560     		str	r5, [r2, #4]
 815:/home/phong/Documents/thesis/stm32f4/stm-idf/components/driver/timer.c ****     timer_handle[config->timer_num].Init.Period              = 0;
 352              		.loc 1 815 0
 353 0138 2278     		ldrb	r2, [r4]	@ zero_extendqisi2
 354 013a 03EB8212 		add	r2, r3, r2, lsl #6
 355 013e 9560     		str	r5, [r2, #8]
 816:/home/phong/Documents/thesis/stm32f4/stm-idf/components/driver/timer.c ****     timer_handle[config->timer_num].Init.ClockDivision       = PWM_TIM_CLOCK_DIV_DEFAULT;
 356              		.loc 1 816 0
 357 0140 2278     		ldrb	r2, [r4]	@ zero_extendqisi2
 358 0142 03EB8212 		add	r2, r3, r2, lsl #6
 359 0146 D560     		str	r5, [r2, #12]
 817:/home/phong/Documents/thesis/stm32f4/stm-idf/components/driver/timer.c ****     timer_handle[config->timer_num].Init.AutoReloadPreload   = TIM_AUTORELOAD_PRELOAD_DISABLE;
 360              		.loc 1 817 0
 361 0148 2278     		ldrb	r2, [r4]	@ zero_extendqisi2
 362 014a 03EB8212 		add	r2, r3, r2, lsl #6
 363 014e 1561     		str	r5, [r2, #16]
 818:/home/phong/Documents/thesis/stm32f4/stm-idf/components/driver/timer.c ****     ret = HAL_TIM_Base_Init(&timer_handle[config->timer_num]);
 364              		.loc 1 818 0
 365 0150 2278     		ldrb	r2, [r4]	@ zero_extendqisi2
 366 0152 03EB8212 		add	r2, r3, r2, lsl #6
 367 0156 9561     		str	r5, [r2, #24]
 819:/home/phong/Documents/thesis/stm32f4/stm-idf/components/driver/timer.c ****     TIMER_CHECK(!ret, PWM_INIT_ERR_STR, STM_FAIL);
 368              		.loc 1 819 0
 369 0158 2078     		ldrb	r0, [r4]	@ zero_extendqisi2
 370 015a 03EB8010 		add	r0, r3, r0, lsl #6
 371 015e FFF7FEFF 		bl	HAL_TIM_Base_Init
 372              	.LVL33:
 820:/home/phong/Documents/thesis/stm32f4/stm-idf/components/driver/timer.c **** 
 373              		.loc 1 820 0
 374 0162 0028     		cmp	r0, #0
 375 0164 41D1     		bne	.L28
 823:/home/phong/Documents/thesis/stm32f4/stm-idf/components/driver/timer.c ****     TIMER_CHECK(!ret, PWM_INIT_ERR_STR, STM_FAIL);
 376              		.loc 1 823 0
 377 0166 2078     		ldrb	r0, [r4]	@ zero_extendqisi2
 378              	.LVL34:
 379 0168 504B     		ldr	r3, .L33+24
 380 016a 03EB8010 		add	r0, r3, r0, lsl #6
 381 016e FFF7FEFF 		bl	HAL_TIM_PWM_Init
 382              	.LVL35:
 824:/home/phong/Documents/thesis/stm32f4/stm-idf/components/driver/timer.c **** 
 383              		.loc 1 824 0
 384 0172 0028     		cmp	r0, #0
 385 0174 4ED1     		bne	.L29
 827:/home/phong/Documents/thesis/stm32f4/stm-idf/components/driver/timer.c ****     sClockSourceConfig.ClockSource = TIM_CLOCKSOURCE_INTERNAL;
 386              		.loc 1 827 0
ARM GAS  /tmp/cc6XjLyw.s 			page 23


 387 0176 0023     		movs	r3, #0
 388 0178 1193     		str	r3, [sp, #68]
 389 017a 1293     		str	r3, [sp, #72]
 390 017c 1393     		str	r3, [sp, #76]
 828:/home/phong/Documents/thesis/stm32f4/stm-idf/components/driver/timer.c ****     ret = HAL_TIM_ConfigClockSource(&timer_handle[config->timer_num], &sClockSourceConfig);
 391              		.loc 1 828 0
 392 017e 4FF48053 		mov	r3, #4096
 393 0182 1093     		str	r3, [sp, #64]
 829:/home/phong/Documents/thesis/stm32f4/stm-idf/components/driver/timer.c ****     TIMER_CHECK(!ret, PWM_INIT_ERR_STR, STM_FAIL);
 394              		.loc 1 829 0
 395 0184 2078     		ldrb	r0, [r4]	@ zero_extendqisi2
 396              	.LVL36:
 397 0186 10A9     		add	r1, sp, #64
 398 0188 484B     		ldr	r3, .L33+24
 399 018a 03EB8010 		add	r0, r3, r0, lsl #6
 400 018e FFF7FEFF 		bl	HAL_TIM_ConfigClockSource
 401              	.LVL37:
 830:/home/phong/Documents/thesis/stm32f4/stm-idf/components/driver/timer.c **** 
 402              		.loc 1 830 0
 403 0192 0028     		cmp	r0, #0
 404 0194 53D1     		bne	.L30
 833:/home/phong/Documents/thesis/stm32f4/stm-idf/components/driver/timer.c ****     sMasterConfig.MasterOutputTrigger = TIM_TRGO_RESET;
 405              		.loc 1 833 0
 406 0196 0023     		movs	r3, #0
 407 0198 0E93     		str	r3, [sp, #56]
 408 019a 0F93     		str	r3, [sp, #60]
 836:/home/phong/Documents/thesis/stm32f4/stm-idf/components/driver/timer.c ****     TIMER_CHECK(!ret, PWM_INIT_ERR_STR, STM_FAIL);
 409              		.loc 1 836 0
 410 019c 2078     		ldrb	r0, [r4]	@ zero_extendqisi2
 411              	.LVL38:
 412 019e 0EA9     		add	r1, sp, #56
 413 01a0 424B     		ldr	r3, .L33+24
 414 01a2 03EB8010 		add	r0, r3, r0, lsl #6
 415 01a6 FFF7FEFF 		bl	HAL_TIMEx_MasterConfigSynchronization
 416              	.LVL39:
 837:/home/phong/Documents/thesis/stm32f4/stm-idf/components/driver/timer.c **** 
 417              		.loc 1 837 0
 418 01aa 0028     		cmp	r0, #0
 419 01ac 5CD1     		bne	.L31
 840:/home/phong/Documents/thesis/stm32f4/stm-idf/components/driver/timer.c ****     sConfigOC.OCMode = TIM_OCMODE_PWM1;
 420              		.loc 1 840 0
 421 01ae 0023     		movs	r3, #0
 422 01b0 0893     		str	r3, [sp, #32]
 423 01b2 0993     		str	r3, [sp, #36]
 424 01b4 0A93     		str	r3, [sp, #40]
 425 01b6 0B93     		str	r3, [sp, #44]
 426 01b8 0C93     		str	r3, [sp, #48]
 427 01ba 0D93     		str	r3, [sp, #52]
 841:/home/phong/Documents/thesis/stm32f4/stm-idf/components/driver/timer.c ****     sConfigOC.Pulse = 0;
 428              		.loc 1 841 0
 429 01bc 6023     		movs	r3, #96
 430 01be 0793     		str	r3, [sp, #28]
 845:/home/phong/Documents/thesis/stm32f4/stm-idf/components/driver/timer.c ****     TIMER_CHECK(!ret, PWM_INIT_ERR_STR, STM_FAIL);
 431              		.loc 1 845 0
 432 01c0 2078     		ldrb	r0, [r4]	@ zero_extendqisi2
 433              	.LVL40:
 434 01c2 6278     		ldrb	r2, [r4, #1]	@ zero_extendqisi2
ARM GAS  /tmp/cc6XjLyw.s 			page 24


 435 01c4 3A4B     		ldr	r3, .L33+28
 436 01c6 53F82220 		ldr	r2, [r3, r2, lsl #2]
 437 01ca 07A9     		add	r1, sp, #28
 438 01cc 374B     		ldr	r3, .L33+24
 439 01ce 03EB8010 		add	r0, r3, r0, lsl #6
 440 01d2 FFF7FEFF 		bl	HAL_TIM_PWM_ConfigChannel
 441              	.LVL41:
 846:/home/phong/Documents/thesis/stm32f4/stm-idf/components/driver/timer.c **** 
 442              		.loc 1 846 0
 443 01d6 0028     		cmp	r0, #0
 444 01d8 6CD1     		bne	.L32
 848:/home/phong/Documents/thesis/stm32f4/stm-idf/components/driver/timer.c ****     return STM_OK;
 445              		.loc 1 848 0
 446 01da 2078     		ldrb	r0, [r4]	@ zero_extendqisi2
 447              	.LVL42:
 448 01dc 334B     		ldr	r3, .L33+24
 449 01de 03EB8010 		add	r0, r3, r0, lsl #6
 450 01e2 FFF7FEFF 		bl	HAL_TIM_Base_Start
 451              	.LVL43:
 849:/home/phong/Documents/thesis/stm32f4/stm-idf/components/driver/timer.c **** }
 452              		.loc 1 849 0
 453 01e6 0020     		movs	r0, #0
 454 01e8 5BE7     		b	.L9
 455              	.LVL44:
 456              	.L28:
 820:/home/phong/Documents/thesis/stm32f4/stm-idf/components/driver/timer.c **** 
 457              		.loc 1 820 0 discriminator 4
 458 01ea FFF7FEFF 		bl	stm_log_timestamp
 459              	.LVL45:
 460 01ee 2A49     		ldr	r1, .L33+4
 461 01f0 2A4B     		ldr	r3, .L33+8
 462 01f2 0493     		str	r3, [sp, #16]
 463 01f4 2A4B     		ldr	r3, .L33+12
 464 01f6 0393     		str	r3, [sp, #12]
 465 01f8 4FF44D73 		mov	r3, #820
 466 01fc 0293     		str	r3, [sp, #8]
 467 01fe 294B     		ldr	r3, .L33+16
 468 0200 0193     		str	r3, [sp, #4]
 469 0202 0091     		str	r1, [sp]
 470 0204 0346     		mov	r3, r0
 471 0206 284A     		ldr	r2, .L33+20
 472 0208 0120     		movs	r0, #1
 473 020a FFF7FEFF 		bl	stm_log_write
 474              	.LVL46:
 475 020e 4FF0FF30 		mov	r0, #-1
 476 0212 46E7     		b	.L9
 477              	.LVL47:
 478              	.L29:
 824:/home/phong/Documents/thesis/stm32f4/stm-idf/components/driver/timer.c **** 
 479              		.loc 1 824 0 discriminator 4
 480 0214 FFF7FEFF 		bl	stm_log_timestamp
 481              	.LVL48:
 482 0218 1F49     		ldr	r1, .L33+4
 483 021a 204B     		ldr	r3, .L33+8
 484 021c 0493     		str	r3, [sp, #16]
 485 021e 204B     		ldr	r3, .L33+12
 486 0220 0393     		str	r3, [sp, #12]
ARM GAS  /tmp/cc6XjLyw.s 			page 25


 487 0222 4FF44E73 		mov	r3, #824
 488 0226 0293     		str	r3, [sp, #8]
 489 0228 1E4B     		ldr	r3, .L33+16
 490 022a 0193     		str	r3, [sp, #4]
 491 022c 0091     		str	r1, [sp]
 492 022e 0346     		mov	r3, r0
 493 0230 1D4A     		ldr	r2, .L33+20
 494 0232 0120     		movs	r0, #1
 495 0234 FFF7FEFF 		bl	stm_log_write
 496              	.LVL49:
 497 0238 4FF0FF30 		mov	r0, #-1
 498 023c 31E7     		b	.L9
 499              	.LVL50:
 500              	.L30:
 830:/home/phong/Documents/thesis/stm32f4/stm-idf/components/driver/timer.c **** 
 501              		.loc 1 830 0 discriminator 4
 502 023e FFF7FEFF 		bl	stm_log_timestamp
 503              	.LVL51:
 504 0242 1549     		ldr	r1, .L33+4
 505 0244 154B     		ldr	r3, .L33+8
 506 0246 0493     		str	r3, [sp, #16]
 507 0248 154B     		ldr	r3, .L33+12
 508 024a 0393     		str	r3, [sp, #12]
 509 024c 40F23E33 		movw	r3, #830
 510 0250 0293     		str	r3, [sp, #8]
 511 0252 144B     		ldr	r3, .L33+16
 512 0254 0193     		str	r3, [sp, #4]
 513 0256 0091     		str	r1, [sp]
 514 0258 0346     		mov	r3, r0
 515 025a 134A     		ldr	r2, .L33+20
 516 025c 0120     		movs	r0, #1
 517 025e FFF7FEFF 		bl	stm_log_write
 518              	.LVL52:
 519 0262 4FF0FF30 		mov	r0, #-1
 520 0266 1CE7     		b	.L9
 521              	.LVL53:
 522              	.L31:
 837:/home/phong/Documents/thesis/stm32f4/stm-idf/components/driver/timer.c **** 
 523              		.loc 1 837 0 discriminator 4
 524 0268 FFF7FEFF 		bl	stm_log_timestamp
 525              	.LVL54:
 526 026c 0A49     		ldr	r1, .L33+4
 527 026e 0B4B     		ldr	r3, .L33+8
 528 0270 0493     		str	r3, [sp, #16]
 529 0272 0B4B     		ldr	r3, .L33+12
 530 0274 0393     		str	r3, [sp, #12]
 531 0276 40F24533 		movw	r3, #837
 532 027a 0293     		str	r3, [sp, #8]
 533 027c 094B     		ldr	r3, .L33+16
 534 027e 0193     		str	r3, [sp, #4]
 535 0280 0091     		str	r1, [sp]
 536 0282 0346     		mov	r3, r0
 537 0284 084A     		ldr	r2, .L33+20
 538 0286 0120     		movs	r0, #1
 539 0288 FFF7FEFF 		bl	stm_log_write
 540              	.LVL55:
 541 028c 4FF0FF30 		mov	r0, #-1
ARM GAS  /tmp/cc6XjLyw.s 			page 26


 542 0290 07E7     		b	.L9
 543              	.L34:
 544 0292 00BF     		.align	2
 545              	.L33:
 546 0294 00380240 		.word	1073887232
 547 0298 28000000 		.word	.LC1
 548 029c 38000000 		.word	.LC2
 549 02a0 00000000 		.word	.LANCHOR2
 550 02a4 48000000 		.word	.LC3
 551 02a8 00000000 		.word	.LC0
 552 02ac 00000000 		.word	.LANCHOR3
 553 02b0 00000000 		.word	.LANCHOR4
 554              	.LVL56:
 555              	.L32:
 846:/home/phong/Documents/thesis/stm32f4/stm-idf/components/driver/timer.c **** 
 556              		.loc 1 846 0 discriminator 4
 557 02b4 FFF7FEFF 		bl	stm_log_timestamp
 558              	.LVL57:
 559 02b8 0949     		ldr	r1, .L35
 560 02ba 0A4B     		ldr	r3, .L35+4
 561 02bc 0493     		str	r3, [sp, #16]
 562 02be 0A4B     		ldr	r3, .L35+8
 563 02c0 0393     		str	r3, [sp, #12]
 564 02c2 40F24E33 		movw	r3, #846
 565 02c6 0293     		str	r3, [sp, #8]
 566 02c8 084B     		ldr	r3, .L35+12
 567 02ca 0193     		str	r3, [sp, #4]
 568 02cc 0091     		str	r1, [sp]
 569 02ce 0346     		mov	r3, r0
 570 02d0 074A     		ldr	r2, .L35+16
 571 02d2 0120     		movs	r0, #1
 572 02d4 FFF7FEFF 		bl	stm_log_write
 573              	.LVL58:
 574 02d8 4FF0FF30 		mov	r0, #-1
 575 02dc E1E6     		b	.L9
 576              	.L36:
 577 02de 00BF     		.align	2
 578              	.L35:
 579 02e0 28000000 		.word	.LC1
 580 02e4 38000000 		.word	.LC2
 581 02e8 00000000 		.word	.LANCHOR2
 582 02ec 48000000 		.word	.LC3
 583 02f0 00000000 		.word	.LC0
 584              		.cfi_endproc
 585              	.LFE135:
 587              		.section	.text.pwm_start,"ax",%progbits
 588              		.align	1
 589              		.global	pwm_start
 590              		.syntax unified
 591              		.thumb
 592              		.thumb_func
 593              		.fpu fpv4-sp-d16
 595              	pwm_start:
 596              	.LFB136:
 851:/home/phong/Documents/thesis/stm32f4/stm-idf/components/driver/timer.c **** 
 852:/home/phong/Documents/thesis/stm32f4/stm-idf/components/driver/timer.c **** stm_err_t pwm_start(timer_num_t timer_num, timer_channel_t timer_channel)
 853:/home/phong/Documents/thesis/stm32f4/stm-idf/components/driver/timer.c **** {
ARM GAS  /tmp/cc6XjLyw.s 			page 27


 597              		.loc 1 853 0
 598              		.cfi_startproc
 599              		@ args = 0, pretend = 0, frame = 0
 600              		@ frame_needed = 0, uses_anonymous_args = 0
 601              	.LVL59:
 602 0000 00B5     		push	{lr}
 603              	.LCFI8:
 604              		.cfi_def_cfa_offset 4
 605              		.cfi_offset 14, -4
 606 0002 87B0     		sub	sp, sp, #28
 607              	.LCFI9:
 608              		.cfi_def_cfa_offset 32
 854:/home/phong/Documents/thesis/stm32f4/stm-idf/components/driver/timer.c ****     TIMER_CHECK(timer_num < TIMER_NUM_MAX, PWM_START_ERR_STR, STM_ERR_INVALID_ARG);
 609              		.loc 1 854 0
 610 0004 0D28     		cmp	r0, #13
 611 0006 16D8     		bhi	.L42
 855:/home/phong/Documents/thesis/stm32f4/stm-idf/components/driver/timer.c ****     TIMER_CHECK(timer_channel < TIMER_CHANNEL_MAX, PWM_START_ERR_STR, STM_ERR_INVALID_ARG);
 612              		.loc 1 855 0
 613 0008 0329     		cmp	r1, #3
 614 000a 2BD9     		bls	.L40
 615              		.loc 1 855 0 is_stmt 0 discriminator 4
 616 000c FFF7FEFF 		bl	stm_log_timestamp
 617              	.LVL60:
 618 0010 1949     		ldr	r1, .L43
 619 0012 1A4B     		ldr	r3, .L43+4
 620 0014 0493     		str	r3, [sp, #16]
 621 0016 1A4B     		ldr	r3, .L43+8
 622 0018 0393     		str	r3, [sp, #12]
 623 001a 40F25733 		movw	r3, #855
 624 001e 0293     		str	r3, [sp, #8]
 625 0020 184B     		ldr	r3, .L43+12
 626 0022 0193     		str	r3, [sp, #4]
 627 0024 0091     		str	r1, [sp]
 628 0026 0346     		mov	r3, r0
 629 0028 174A     		ldr	r2, .L43+16
 630 002a 0120     		movs	r0, #1
 631 002c FFF7FEFF 		bl	stm_log_write
 632              	.LVL61:
 633 0030 4FF48170 		mov	r0, #258
 634 0034 13E0     		b	.L37
 635              	.LVL62:
 636              	.L42:
 854:/home/phong/Documents/thesis/stm32f4/stm-idf/components/driver/timer.c ****     TIMER_CHECK(timer_num < TIMER_NUM_MAX, PWM_START_ERR_STR, STM_ERR_INVALID_ARG);
 637              		.loc 1 854 0 is_stmt 1 discriminator 4
 638 0036 FFF7FEFF 		bl	stm_log_timestamp
 639              	.LVL63:
 640 003a 0F49     		ldr	r1, .L43
 641 003c 0F4B     		ldr	r3, .L43+4
 642 003e 0493     		str	r3, [sp, #16]
 643 0040 0F4B     		ldr	r3, .L43+8
 644 0042 0393     		str	r3, [sp, #12]
 645 0044 40F25633 		movw	r3, #854
 646 0048 0293     		str	r3, [sp, #8]
 647 004a 0E4B     		ldr	r3, .L43+12
 648 004c 0193     		str	r3, [sp, #4]
 649 004e 0091     		str	r1, [sp]
 650 0050 0346     		mov	r3, r0
ARM GAS  /tmp/cc6XjLyw.s 			page 28


 651 0052 0D4A     		ldr	r2, .L43+16
 652 0054 0120     		movs	r0, #1
 653 0056 FFF7FEFF 		bl	stm_log_write
 654              	.LVL64:
 655 005a 4FF48170 		mov	r0, #258
 656              	.L37:
 856:/home/phong/Documents/thesis/stm32f4/stm-idf/components/driver/timer.c **** 
 857:/home/phong/Documents/thesis/stm32f4/stm-idf/components/driver/timer.c ****     HAL_TIM_PWM_Start(&timer_handle[timer_num], TIM_CHANNEL_x_MAPPING[timer_channel]);
 858:/home/phong/Documents/thesis/stm32f4/stm-idf/components/driver/timer.c ****     return STM_OK;
 859:/home/phong/Documents/thesis/stm32f4/stm-idf/components/driver/timer.c **** }
 657              		.loc 1 859 0
 658 005e 07B0     		add	sp, sp, #28
 659              	.LCFI10:
 660              		.cfi_remember_state
 661              		.cfi_def_cfa_offset 4
 662              		@ sp needed
 663 0060 5DF804FB 		ldr	pc, [sp], #4
 664              	.LVL65:
 665              	.L40:
 666              	.LCFI11:
 667              		.cfi_restore_state
 857:/home/phong/Documents/thesis/stm32f4/stm-idf/components/driver/timer.c ****     return STM_OK;
 668              		.loc 1 857 0
 669 0064 094B     		ldr	r3, .L43+20
 670 0066 53F82110 		ldr	r1, [r3, r1, lsl #2]
 671              	.LVL66:
 672 006a 094B     		ldr	r3, .L43+24
 673 006c 03EB8010 		add	r0, r3, r0, lsl #6
 674              	.LVL67:
 675 0070 FFF7FEFF 		bl	HAL_TIM_PWM_Start
 676              	.LVL68:
 858:/home/phong/Documents/thesis/stm32f4/stm-idf/components/driver/timer.c **** }
 677              		.loc 1 858 0
 678 0074 0020     		movs	r0, #0
 679 0076 F2E7     		b	.L37
 680              	.L44:
 681              		.align	2
 682              	.L43:
 683 0078 28000000 		.word	.LC1
 684 007c 00000000 		.word	.LC4
 685 0080 00000000 		.word	.LANCHOR5
 686 0084 48000000 		.word	.LC3
 687 0088 00000000 		.word	.LC0
 688 008c 00000000 		.word	.LANCHOR4
 689 0090 00000000 		.word	.LANCHOR3
 690              		.cfi_endproc
 691              	.LFE136:
 693              		.section	.text.pwm_stop,"ax",%progbits
 694              		.align	1
 695              		.global	pwm_stop
 696              		.syntax unified
 697              		.thumb
 698              		.thumb_func
 699              		.fpu fpv4-sp-d16
 701              	pwm_stop:
 702              	.LFB137:
 860:/home/phong/Documents/thesis/stm32f4/stm-idf/components/driver/timer.c **** 
ARM GAS  /tmp/cc6XjLyw.s 			page 29


 861:/home/phong/Documents/thesis/stm32f4/stm-idf/components/driver/timer.c **** stm_err_t pwm_stop(timer_num_t timer_num, timer_channel_t timer_channel)
 862:/home/phong/Documents/thesis/stm32f4/stm-idf/components/driver/timer.c **** {
 703              		.loc 1 862 0
 704              		.cfi_startproc
 705              		@ args = 0, pretend = 0, frame = 0
 706              		@ frame_needed = 0, uses_anonymous_args = 0
 707              	.LVL69:
 708 0000 00B5     		push	{lr}
 709              	.LCFI12:
 710              		.cfi_def_cfa_offset 4
 711              		.cfi_offset 14, -4
 712 0002 87B0     		sub	sp, sp, #28
 713              	.LCFI13:
 714              		.cfi_def_cfa_offset 32
 863:/home/phong/Documents/thesis/stm32f4/stm-idf/components/driver/timer.c ****     TIMER_CHECK(timer_num < TIMER_NUM_MAX, PWM_STOP_ERR_STR, STM_ERR_INVALID_ARG);
 715              		.loc 1 863 0
 716 0004 0D28     		cmp	r0, #13
 717 0006 16D8     		bhi	.L50
 864:/home/phong/Documents/thesis/stm32f4/stm-idf/components/driver/timer.c ****     TIMER_CHECK(timer_channel < TIMER_CHANNEL_MAX, PWM_STOP_ERR_STR, STM_ERR_INVALID_ARG);
 718              		.loc 1 864 0
 719 0008 0329     		cmp	r1, #3
 720 000a 2BD9     		bls	.L48
 721              		.loc 1 864 0 is_stmt 0 discriminator 4
 722 000c FFF7FEFF 		bl	stm_log_timestamp
 723              	.LVL70:
 724 0010 1949     		ldr	r1, .L51
 725 0012 1A4B     		ldr	r3, .L51+4
 726 0014 0493     		str	r3, [sp, #16]
 727 0016 1A4B     		ldr	r3, .L51+8
 728 0018 0393     		str	r3, [sp, #12]
 729 001a 4FF45873 		mov	r3, #864
 730 001e 0293     		str	r3, [sp, #8]
 731 0020 184B     		ldr	r3, .L51+12
 732 0022 0193     		str	r3, [sp, #4]
 733 0024 0091     		str	r1, [sp]
 734 0026 0346     		mov	r3, r0
 735 0028 174A     		ldr	r2, .L51+16
 736 002a 0120     		movs	r0, #1
 737 002c FFF7FEFF 		bl	stm_log_write
 738              	.LVL71:
 739 0030 4FF48170 		mov	r0, #258
 740 0034 13E0     		b	.L45
 741              	.LVL72:
 742              	.L50:
 863:/home/phong/Documents/thesis/stm32f4/stm-idf/components/driver/timer.c ****     TIMER_CHECK(timer_num < TIMER_NUM_MAX, PWM_STOP_ERR_STR, STM_ERR_INVALID_ARG);
 743              		.loc 1 863 0 is_stmt 1 discriminator 4
 744 0036 FFF7FEFF 		bl	stm_log_timestamp
 745              	.LVL73:
 746 003a 0F49     		ldr	r1, .L51
 747 003c 0F4B     		ldr	r3, .L51+4
 748 003e 0493     		str	r3, [sp, #16]
 749 0040 0F4B     		ldr	r3, .L51+8
 750 0042 0393     		str	r3, [sp, #12]
 751 0044 40F25F33 		movw	r3, #863
 752 0048 0293     		str	r3, [sp, #8]
 753 004a 0E4B     		ldr	r3, .L51+12
 754 004c 0193     		str	r3, [sp, #4]
ARM GAS  /tmp/cc6XjLyw.s 			page 30


 755 004e 0091     		str	r1, [sp]
 756 0050 0346     		mov	r3, r0
 757 0052 0D4A     		ldr	r2, .L51+16
 758 0054 0120     		movs	r0, #1
 759 0056 FFF7FEFF 		bl	stm_log_write
 760              	.LVL74:
 761 005a 4FF48170 		mov	r0, #258
 762              	.L45:
 865:/home/phong/Documents/thesis/stm32f4/stm-idf/components/driver/timer.c **** 
 866:/home/phong/Documents/thesis/stm32f4/stm-idf/components/driver/timer.c ****     HAL_TIM_PWM_Stop(&timer_handle[timer_num], TIM_CHANNEL_x_MAPPING[timer_channel]);
 867:/home/phong/Documents/thesis/stm32f4/stm-idf/components/driver/timer.c ****     return STM_OK;
 868:/home/phong/Documents/thesis/stm32f4/stm-idf/components/driver/timer.c **** }
 763              		.loc 1 868 0
 764 005e 07B0     		add	sp, sp, #28
 765              	.LCFI14:
 766              		.cfi_remember_state
 767              		.cfi_def_cfa_offset 4
 768              		@ sp needed
 769 0060 5DF804FB 		ldr	pc, [sp], #4
 770              	.LVL75:
 771              	.L48:
 772              	.LCFI15:
 773              		.cfi_restore_state
 866:/home/phong/Documents/thesis/stm32f4/stm-idf/components/driver/timer.c ****     return STM_OK;
 774              		.loc 1 866 0
 775 0064 094B     		ldr	r3, .L51+20
 776 0066 53F82110 		ldr	r1, [r3, r1, lsl #2]
 777              	.LVL76:
 778 006a 094B     		ldr	r3, .L51+24
 779 006c 03EB8010 		add	r0, r3, r0, lsl #6
 780              	.LVL77:
 781 0070 FFF7FEFF 		bl	HAL_TIM_PWM_Stop
 782              	.LVL78:
 867:/home/phong/Documents/thesis/stm32f4/stm-idf/components/driver/timer.c **** }
 783              		.loc 1 867 0
 784 0074 0020     		movs	r0, #0
 785 0076 F2E7     		b	.L45
 786              	.L52:
 787              		.align	2
 788              	.L51:
 789 0078 28000000 		.word	.LC1
 790 007c 00000000 		.word	.LC5
 791 0080 00000000 		.word	.LANCHOR6
 792 0084 48000000 		.word	.LC3
 793 0088 00000000 		.word	.LC0
 794 008c 00000000 		.word	.LANCHOR4
 795 0090 00000000 		.word	.LANCHOR3
 796              		.cfi_endproc
 797              	.LFE137:
 799              		.section	.text.pwm_set_frequency,"ax",%progbits
 800              		.align	1
 801              		.global	pwm_set_frequency
 802              		.syntax unified
 803              		.thumb
 804              		.thumb_func
 805              		.fpu fpv4-sp-d16
 807              	pwm_set_frequency:
ARM GAS  /tmp/cc6XjLyw.s 			page 31


 808              	.LFB138:
 869:/home/phong/Documents/thesis/stm32f4/stm-idf/components/driver/timer.c **** 
 870:/home/phong/Documents/thesis/stm32f4/stm-idf/components/driver/timer.c **** stm_err_t pwm_set_frequency(timer_num_t timer_num, timer_channel_t timer_channel, uint32_t freq_hz)
 871:/home/phong/Documents/thesis/stm32f4/stm-idf/components/driver/timer.c **** {
 809              		.loc 1 871 0
 810              		.cfi_startproc
 811              		@ args = 0, pretend = 0, frame = 0
 812              		@ frame_needed = 0, uses_anonymous_args = 0
 813              	.LVL79:
 814 0000 F0B5     		push	{r4, r5, r6, r7, lr}
 815              	.LCFI16:
 816              		.cfi_def_cfa_offset 20
 817              		.cfi_offset 4, -20
 818              		.cfi_offset 5, -16
 819              		.cfi_offset 6, -12
 820              		.cfi_offset 7, -8
 821              		.cfi_offset 14, -4
 822 0002 87B0     		sub	sp, sp, #28
 823              	.LCFI17:
 824              		.cfi_def_cfa_offset 48
 872:/home/phong/Documents/thesis/stm32f4/stm-idf/components/driver/timer.c ****     TIMER_CHECK(timer_num < TIMER_NUM_MAX, PWM_SET_FREQ_ERR_STR, STM_ERR_INVALID_ARG);
 825              		.loc 1 872 0
 826 0004 0D28     		cmp	r0, #13
 827 0006 42D8     		bhi	.L65
 873:/home/phong/Documents/thesis/stm32f4/stm-idf/components/driver/timer.c ****     TIMER_CHECK(timer_channel < TIMER_CHANNEL_MAX, PWM_SET_FREQ_ERR_STR, STM_ERR_INVALID_ARG);
 828              		.loc 1 873 0
 829 0008 0329     		cmp	r1, #3
 830 000a 56D8     		bhi	.L66
 874:/home/phong/Documents/thesis/stm32f4/stm-idf/components/driver/timer.c **** 
 875:/home/phong/Documents/thesis/stm32f4/stm-idf/components/driver/timer.c ****     uint16_t cur_period = __HAL_TIM_GET_AUTORELOAD(&timer_handle[timer_num]);
 831              		.loc 1 875 0
 832 000c 8301     		lsls	r3, r0, #6
 833 000e 424C     		ldr	r4, .L72
 834 0010 E658     		ldr	r6, [r4, r3]
 835 0012 F36A     		ldr	r3, [r6, #44]
 836              	.LVL80:
 876:/home/phong/Documents/thesis/stm32f4/stm-idf/components/driver/timer.c ****     uint32_t cur_compare  = __HAL_TIM_GET_COMPARE(&timer_handle[timer_num], TIM_CHANNEL_x_MAPPING[t
 837              		.loc 1 876 0
 838 0014 414C     		ldr	r4, .L72+4
 839 0016 54F82140 		ldr	r4, [r4, r1, lsl #2]
 840 001a 002C     		cmp	r4, #0
 841 001c 62D1     		bne	.L57
 842              		.loc 1 876 0 is_stmt 0 discriminator 1
 843 001e 746B     		ldr	r4, [r6, #52]
 844              	.L58:
 845              	.LVL81:
 877:/home/phong/Documents/thesis/stm32f4/stm-idf/components/driver/timer.c ****     uint8_t cur_duty = (uint8_t)(cur_compare * 100 / cur_period);
 846              		.loc 1 877 0 is_stmt 1 discriminator 12
 847 0020 6425     		movs	r5, #100
 848 0022 05FB04F5 		mul	r5, r5, r4
 849 0026 9BB2     		uxth	r3, r3
 850 0028 B5FBF3F5 		udiv	r5, r5, r3
 851              	.LVL82:
 878:/home/phong/Documents/thesis/stm32f4/stm-idf/components/driver/timer.c **** 
 879:/home/phong/Documents/thesis/stm32f4/stm-idf/components/driver/timer.c ****     /* Calculate Timer PWM parameters. When change timer period you also
 880:/home/phong/Documents/thesis/stm32f4/stm-idf/components/driver/timer.c ****      * need to update timer compare value to keep duty cycle stable */
 881:/home/phong/Documents/thesis/stm32f4/stm-idf/components/driver/timer.c ****     uint32_t conduct = (uint32_t) (APBx_CLOCK_MAPPING[timer_num] / freq_hz);
ARM GAS  /tmp/cc6XjLyw.s 			page 32


 852              		.loc 1 881 0 discriminator 12
 853 002c 3C4B     		ldr	r3, .L72+8
 854              	.LVL83:
 855 002e 53F82030 		ldr	r3, [r3, r0, lsl #2]
 856 0032 B3FBF2F2 		udiv	r2, r3, r2
 857              	.LVL84:
 882:/home/phong/Documents/thesis/stm32f4/stm-idf/components/driver/timer.c ****     uint16_t timer_prescaler = conduct / TIMER_MAX_RELOAD + 1;
 858              		.loc 1 882 0 discriminator 12
 859 0036 3B4C     		ldr	r4, .L72+12
 860              	.LVL85:
 861 0038 A4FB0234 		umull	r3, r4, r4, r2
 862 003c C4F3CF34 		ubfx	r4, r4, #15, #16
 863 0040 0134     		adds	r4, r4, #1
 864 0042 A4B2     		uxth	r4, r4
 865              	.LVL86:
 883:/home/phong/Documents/thesis/stm32f4/stm-idf/components/driver/timer.c ****     uint16_t timer_period = (uint16_t)(conduct / (timer_prescaler + 1)) - 1;
 866              		.loc 1 883 0 discriminator 12
 867 0044 631C     		adds	r3, r4, #1
 868 0046 B2FBF3F3 		udiv	r3, r2, r3
 869 004a 9BB2     		uxth	r3, r3
 870 004c 013B     		subs	r3, r3, #1
 871 004e 9BB2     		uxth	r3, r3
 872              	.LVL87:
 884:/home/phong/Documents/thesis/stm32f4/stm-idf/components/driver/timer.c ****     uint32_t timer_compare_value = cur_duty * timer_period / 100;
 873              		.loc 1 884 0 discriminator 12
 874 0050 EAB2     		uxtb	r2, r5
 875              	.LVL88:
 876 0052 03FB02F2 		mul	r2, r3, r2
 877 0056 344D     		ldr	r5, .L72+16
 878              	.LVL89:
 879 0058 85FB0275 		smull	r7, r5, r5, r2
 880 005c D217     		asrs	r2, r2, #31
 881 005e C2EB6512 		rsb	r2, r2, r5, asr #5
 882              	.LVL90:
 885:/home/phong/Documents/thesis/stm32f4/stm-idf/components/driver/timer.c **** 
 886:/home/phong/Documents/thesis/stm32f4/stm-idf/components/driver/timer.c ****     /* Configure Timer PWM parameters */
 887:/home/phong/Documents/thesis/stm32f4/stm-idf/components/driver/timer.c ****     __HAL_TIM_SET_AUTORELOAD(&timer_handle[timer_num], timer_period);
 883              		.loc 1 887 0 discriminator 12
 884 0062 F362     		str	r3, [r6, #44]
 885              	.LVL91:
 886 0064 2C4E     		ldr	r6, .L72
 887 0066 8501     		lsls	r5, r0, #6
 888 0068 7719     		adds	r7, r6, r5
 889 006a FB60     		str	r3, [r7, #12]
 888:/home/phong/Documents/thesis/stm32f4/stm-idf/components/driver/timer.c ****     __HAL_TIM_SET_PRESCALER(&timer_handle[timer_num], timer_prescaler);
 890              		.loc 1 888 0 discriminator 12
 891 006c 7359     		ldr	r3, [r6, r5]
 892              	.LVL92:
 893 006e 9C62     		str	r4, [r3, #40]
 894              	.LVL93:
 889:/home/phong/Documents/thesis/stm32f4/stm-idf/components/driver/timer.c ****     __HAL_TIM_SET_COMPARE(&timer_handle[timer_num], TIM_CHANNEL_x_MAPPING[timer_channel], timer_com
 895              		.loc 1 889 0 discriminator 12
 896 0070 2A4B     		ldr	r3, .L72+4
 897 0072 53F82130 		ldr	r3, [r3, r1, lsl #2]
 898 0076 002B     		cmp	r3, #0
 899 0078 3ED0     		beq	.L67
 900              		.loc 1 889 0 is_stmt 0 discriminator 2
ARM GAS  /tmp/cc6XjLyw.s 			page 33


 901 007a 042B     		cmp	r3, #4
 902 007c 40D0     		beq	.L68
 903              		.loc 1 889 0 discriminator 4
 904 007e 082B     		cmp	r3, #8
 905 0080 44D0     		beq	.L69
 906              		.loc 1 889 0 discriminator 7
 907 0082 8001     		lsls	r0, r0, #6
 908              	.LVL94:
 909 0084 244B     		ldr	r3, .L72
 910 0086 1B58     		ldr	r3, [r3, r0]
 911 0088 1A64     		str	r2, [r3, #64]
 890:/home/phong/Documents/thesis/stm32f4/stm-idf/components/driver/timer.c ****     return STM_OK;
 912              		.loc 1 890 0 is_stmt 1 discriminator 7
 913 008a 0020     		movs	r0, #0
 914 008c 13E0     		b	.L53
 915              	.LVL95:
 916              	.L65:
 872:/home/phong/Documents/thesis/stm32f4/stm-idf/components/driver/timer.c ****     TIMER_CHECK(timer_channel < TIMER_CHANNEL_MAX, PWM_SET_FREQ_ERR_STR, STM_ERR_INVALID_ARG);
 917              		.loc 1 872 0 discriminator 4
 918 008e FFF7FEFF 		bl	stm_log_timestamp
 919              	.LVL96:
 920 0092 2649     		ldr	r1, .L72+20
 921 0094 264B     		ldr	r3, .L72+24
 922 0096 0493     		str	r3, [sp, #16]
 923 0098 264B     		ldr	r3, .L72+28
 924 009a 0393     		str	r3, [sp, #12]
 925 009c 4FF45A73 		mov	r3, #872
 926 00a0 0293     		str	r3, [sp, #8]
 927 00a2 254B     		ldr	r3, .L72+32
 928 00a4 0193     		str	r3, [sp, #4]
 929 00a6 0091     		str	r1, [sp]
 930 00a8 0346     		mov	r3, r0
 931 00aa 244A     		ldr	r2, .L72+36
 932 00ac 0120     		movs	r0, #1
 933 00ae FFF7FEFF 		bl	stm_log_write
 934              	.LVL97:
 935 00b2 4FF48170 		mov	r0, #258
 936              	.L53:
 891:/home/phong/Documents/thesis/stm32f4/stm-idf/components/driver/timer.c **** }
 937              		.loc 1 891 0
 938 00b6 07B0     		add	sp, sp, #28
 939              	.LCFI18:
 940              		.cfi_remember_state
 941              		.cfi_def_cfa_offset 20
 942              		@ sp needed
 943 00b8 F0BD     		pop	{r4, r5, r6, r7, pc}
 944              	.LVL98:
 945              	.L66:
 946              	.LCFI19:
 947              		.cfi_restore_state
 873:/home/phong/Documents/thesis/stm32f4/stm-idf/components/driver/timer.c **** 
 948              		.loc 1 873 0 discriminator 4
 949 00ba FFF7FEFF 		bl	stm_log_timestamp
 950              	.LVL99:
 951 00be 1B49     		ldr	r1, .L72+20
 952 00c0 1B4B     		ldr	r3, .L72+24
 953 00c2 0493     		str	r3, [sp, #16]
ARM GAS  /tmp/cc6XjLyw.s 			page 34


 954 00c4 1B4B     		ldr	r3, .L72+28
 955 00c6 0393     		str	r3, [sp, #12]
 956 00c8 40F26933 		movw	r3, #873
 957 00cc 0293     		str	r3, [sp, #8]
 958 00ce 1A4B     		ldr	r3, .L72+32
 959 00d0 0193     		str	r3, [sp, #4]
 960 00d2 0091     		str	r1, [sp]
 961 00d4 0346     		mov	r3, r0
 962 00d6 194A     		ldr	r2, .L72+36
 963 00d8 0120     		movs	r0, #1
 964 00da FFF7FEFF 		bl	stm_log_write
 965              	.LVL100:
 966 00de 4FF48170 		mov	r0, #258
 967 00e2 E8E7     		b	.L53
 968              	.LVL101:
 969              	.L57:
 876:/home/phong/Documents/thesis/stm32f4/stm-idf/components/driver/timer.c ****     uint8_t cur_duty = (uint8_t)(cur_compare * 100 / cur_period);
 970              		.loc 1 876 0 discriminator 2
 971 00e4 042C     		cmp	r4, #4
 972 00e6 03D0     		beq	.L70
 876:/home/phong/Documents/thesis/stm32f4/stm-idf/components/driver/timer.c ****     uint8_t cur_duty = (uint8_t)(cur_compare * 100 / cur_period);
 973              		.loc 1 876 0 is_stmt 0 discriminator 5
 974 00e8 082C     		cmp	r4, #8
 975 00ea 03D0     		beq	.L71
 876:/home/phong/Documents/thesis/stm32f4/stm-idf/components/driver/timer.c ****     uint8_t cur_duty = (uint8_t)(cur_compare * 100 / cur_period);
 976              		.loc 1 876 0 discriminator 8
 977 00ec 346C     		ldr	r4, [r6, #64]
 978 00ee 97E7     		b	.L58
 979              	.L70:
 876:/home/phong/Documents/thesis/stm32f4/stm-idf/components/driver/timer.c ****     uint8_t cur_duty = (uint8_t)(cur_compare * 100 / cur_period);
 980              		.loc 1 876 0 discriminator 4
 981 00f0 B46B     		ldr	r4, [r6, #56]
 982 00f2 95E7     		b	.L58
 983              	.L71:
 876:/home/phong/Documents/thesis/stm32f4/stm-idf/components/driver/timer.c ****     uint8_t cur_duty = (uint8_t)(cur_compare * 100 / cur_period);
 984              		.loc 1 876 0 discriminator 7
 985 00f4 F46B     		ldr	r4, [r6, #60]
 986 00f6 93E7     		b	.L58
 987              	.LVL102:
 988              	.L67:
 889:/home/phong/Documents/thesis/stm32f4/stm-idf/components/driver/timer.c ****     return STM_OK;
 989              		.loc 1 889 0 is_stmt 1 discriminator 1
 990 00f8 7359     		ldr	r3, [r6, r5]
 991 00fa 5A63     		str	r2, [r3, #52]
 890:/home/phong/Documents/thesis/stm32f4/stm-idf/components/driver/timer.c **** }
 992              		.loc 1 890 0 discriminator 1
 993 00fc 0020     		movs	r0, #0
 994              	.LVL103:
 995 00fe DAE7     		b	.L53
 996              	.LVL104:
 997              	.L68:
 889:/home/phong/Documents/thesis/stm32f4/stm-idf/components/driver/timer.c ****     return STM_OK;
 998              		.loc 1 889 0 discriminator 3
 999 0100 8001     		lsls	r0, r0, #6
 1000              	.LVL105:
 1001 0102 054B     		ldr	r3, .L72
 1002 0104 1B58     		ldr	r3, [r3, r0]
ARM GAS  /tmp/cc6XjLyw.s 			page 35


 1003 0106 9A63     		str	r2, [r3, #56]
 890:/home/phong/Documents/thesis/stm32f4/stm-idf/components/driver/timer.c **** }
 1004              		.loc 1 890 0 discriminator 3
 1005 0108 0020     		movs	r0, #0
 1006 010a D4E7     		b	.L53
 1007              	.LVL106:
 1008              	.L69:
 889:/home/phong/Documents/thesis/stm32f4/stm-idf/components/driver/timer.c ****     return STM_OK;
 1009              		.loc 1 889 0 discriminator 6
 1010 010c 8001     		lsls	r0, r0, #6
 1011              	.LVL107:
 1012 010e 024B     		ldr	r3, .L72
 1013 0110 1B58     		ldr	r3, [r3, r0]
 1014 0112 DA63     		str	r2, [r3, #60]
 890:/home/phong/Documents/thesis/stm32f4/stm-idf/components/driver/timer.c **** }
 1015              		.loc 1 890 0 discriminator 6
 1016 0114 0020     		movs	r0, #0
 1017 0116 CEE7     		b	.L53
 1018              	.L73:
 1019              		.align	2
 1020              	.L72:
 1021 0118 00000000 		.word	.LANCHOR3
 1022 011c 00000000 		.word	.LANCHOR4
 1023 0120 00000000 		.word	.LANCHOR8
 1024 0124 01800080 		.word	-2147450879
 1025 0128 1F85EB51 		.word	1374389535
 1026 012c 28000000 		.word	.LC1
 1027 0130 00000000 		.word	.LC6
 1028 0134 00000000 		.word	.LANCHOR7
 1029 0138 48000000 		.word	.LC3
 1030 013c 00000000 		.word	.LC0
 1031              		.cfi_endproc
 1032              	.LFE138:
 1034              		.section	.text.pwm_set_params,"ax",%progbits
 1035              		.align	1
 1036              		.global	pwm_set_params
 1037              		.syntax unified
 1038              		.thumb
 1039              		.thumb_func
 1040              		.fpu fpv4-sp-d16
 1042              	pwm_set_params:
 1043              	.LFB139:
 892:/home/phong/Documents/thesis/stm32f4/stm-idf/components/driver/timer.c **** 
 893:/home/phong/Documents/thesis/stm32f4/stm-idf/components/driver/timer.c **** stm_err_t pwm_set_params(timer_num_t timer_num, timer_channel_t timer_channel, uint32_t freq_hz, ui
 894:/home/phong/Documents/thesis/stm32f4/stm-idf/components/driver/timer.c **** {
 1044              		.loc 1 894 0
 1045              		.cfi_startproc
 1046              		@ args = 0, pretend = 0, frame = 0
 1047              		@ frame_needed = 0, uses_anonymous_args = 0
 1048              	.LVL108:
 1049 0000 F0B5     		push	{r4, r5, r6, r7, lr}
 1050              	.LCFI20:
 1051              		.cfi_def_cfa_offset 20
 1052              		.cfi_offset 4, -20
 1053              		.cfi_offset 5, -16
 1054              		.cfi_offset 6, -12
 1055              		.cfi_offset 7, -8
ARM GAS  /tmp/cc6XjLyw.s 			page 36


 1056              		.cfi_offset 14, -4
 1057 0002 87B0     		sub	sp, sp, #28
 1058              	.LCFI21:
 1059              		.cfi_def_cfa_offset 48
 895:/home/phong/Documents/thesis/stm32f4/stm-idf/components/driver/timer.c ****     TIMER_CHECK(timer_num < TIMER_NUM_MAX, PWM_SET_PARAMS_ERR_STR, STM_ERR_INVALID_ARG);
 1060              		.loc 1 895 0
 1061 0004 0D28     		cmp	r0, #13
 1062 0006 37D8     		bhi	.L82
 896:/home/phong/Documents/thesis/stm32f4/stm-idf/components/driver/timer.c ****     TIMER_CHECK(timer_channel < TIMER_CHANNEL_MAX, PWM_SET_PARAMS_ERR_STR, STM_ERR_INVALID_ARG);
 1063              		.loc 1 896 0
 1064 0008 0329     		cmp	r1, #3
 1065 000a 4BD8     		bhi	.L83
 897:/home/phong/Documents/thesis/stm32f4/stm-idf/components/driver/timer.c **** 
 898:/home/phong/Documents/thesis/stm32f4/stm-idf/components/driver/timer.c ****     /* Calculate Timer PWM parameters. When change timer period you also
 899:/home/phong/Documents/thesis/stm32f4/stm-idf/components/driver/timer.c ****      * need to update timer compare value to keep duty cycle stable */
 900:/home/phong/Documents/thesis/stm32f4/stm-idf/components/driver/timer.c ****     uint32_t conduct = (uint32_t) (APBx_CLOCK_MAPPING[timer_num] / freq_hz);
 1066              		.loc 1 900 0
 1067 000c 384C     		ldr	r4, .L87
 1068 000e 54F82040 		ldr	r4, [r4, r0, lsl #2]
 1069 0012 B4FBF2F2 		udiv	r2, r4, r2
 1070              	.LVL109:
 901:/home/phong/Documents/thesis/stm32f4/stm-idf/components/driver/timer.c ****     uint16_t timer_prescaler = conduct / TIMER_MAX_RELOAD + 1;
 1071              		.loc 1 901 0
 1072 0016 374C     		ldr	r4, .L87+4
 1073 0018 A4FB0254 		umull	r5, r4, r4, r2
 1074 001c C4F3CF34 		ubfx	r4, r4, #15, #16
 1075 0020 0134     		adds	r4, r4, #1
 1076 0022 A4B2     		uxth	r4, r4
 1077              	.LVL110:
 902:/home/phong/Documents/thesis/stm32f4/stm-idf/components/driver/timer.c ****     uint16_t timer_period = (uint16_t)(conduct / (timer_prescaler + 1)) - 1;
 1078              		.loc 1 902 0
 1079 0024 651C     		adds	r5, r4, #1
 1080 0026 B2FBF5F2 		udiv	r2, r2, r5
 1081              	.LVL111:
 1082 002a 92B2     		uxth	r2, r2
 1083 002c 013A     		subs	r2, r2, #1
 1084 002e 92B2     		uxth	r2, r2
 1085              	.LVL112:
 903:/home/phong/Documents/thesis/stm32f4/stm-idf/components/driver/timer.c ****     uint32_t timer_compare_value = duty_percent * timer_period / 100;
 1086              		.loc 1 903 0
 1087 0030 02FB03F3 		mul	r3, r2, r3
 1088              	.LVL113:
 1089 0034 304D     		ldr	r5, .L87+8
 1090 0036 85FB0365 		smull	r6, r5, r5, r3
 1091 003a DB17     		asrs	r3, r3, #31
 1092 003c C3EB6513 		rsb	r3, r3, r5, asr #5
 1093              	.LVL114:
 904:/home/phong/Documents/thesis/stm32f4/stm-idf/components/driver/timer.c **** 
 905:/home/phong/Documents/thesis/stm32f4/stm-idf/components/driver/timer.c ****     /* Configure Timer PWM parameters */
 906:/home/phong/Documents/thesis/stm32f4/stm-idf/components/driver/timer.c ****     __HAL_TIM_SET_AUTORELOAD(&timer_handle[timer_num], timer_period);
 1094              		.loc 1 906 0
 1095 0040 2E4E     		ldr	r6, .L87+12
 1096 0042 8501     		lsls	r5, r0, #6
 1097 0044 06EB050E 		add	lr, r6, r5
 1098 0048 7759     		ldr	r7, [r6, r5]
 1099 004a FA62     		str	r2, [r7, #44]
 1100              	.LVL115:
ARM GAS  /tmp/cc6XjLyw.s 			page 37


 1101 004c CEF80C20 		str	r2, [lr, #12]
 907:/home/phong/Documents/thesis/stm32f4/stm-idf/components/driver/timer.c ****     __HAL_TIM_SET_PRESCALER(&timer_handle[timer_num], timer_prescaler);
 1102              		.loc 1 907 0
 1103 0050 7259     		ldr	r2, [r6, r5]
 1104              	.LVL116:
 1105 0052 9462     		str	r4, [r2, #40]
 1106              	.LVL117:
 908:/home/phong/Documents/thesis/stm32f4/stm-idf/components/driver/timer.c ****     __HAL_TIM_SET_COMPARE(&timer_handle[timer_num], TIM_CHANNEL_x_MAPPING[timer_channel], timer_com
 1107              		.loc 1 908 0
 1108 0054 2A4A     		ldr	r2, .L87+16
 1109 0056 52F82120 		ldr	r2, [r2, r1, lsl #2]
 1110 005a 002A     		cmp	r2, #0
 1111 005c 37D0     		beq	.L84
 1112              		.loc 1 908 0 is_stmt 0 discriminator 2
 1113 005e 284A     		ldr	r2, .L87+16
 1114 0060 52F82120 		ldr	r2, [r2, r1, lsl #2]
 1115 0064 042A     		cmp	r2, #4
 1116 0066 36D0     		beq	.L85
 1117              		.loc 1 908 0 discriminator 4
 1118 0068 082A     		cmp	r2, #8
 1119 006a 3AD0     		beq	.L86
 1120              		.loc 1 908 0 discriminator 7
 1121 006c 8001     		lsls	r0, r0, #6
 1122              	.LVL118:
 1123 006e 234A     		ldr	r2, .L87+12
 1124 0070 1258     		ldr	r2, [r2, r0]
 1125 0072 1364     		str	r3, [r2, #64]
 909:/home/phong/Documents/thesis/stm32f4/stm-idf/components/driver/timer.c ****     return STM_OK;
 1126              		.loc 1 909 0 is_stmt 1 discriminator 7
 1127 0074 0020     		movs	r0, #0
 1128 0076 13E0     		b	.L74
 1129              	.LVL119:
 1130              	.L82:
 895:/home/phong/Documents/thesis/stm32f4/stm-idf/components/driver/timer.c ****     TIMER_CHECK(timer_channel < TIMER_CHANNEL_MAX, PWM_SET_PARAMS_ERR_STR, STM_ERR_INVALID_ARG);
 1131              		.loc 1 895 0 discriminator 4
 1132 0078 FFF7FEFF 		bl	stm_log_timestamp
 1133              	.LVL120:
 1134 007c 2149     		ldr	r1, .L87+20
 1135 007e 224B     		ldr	r3, .L87+24
 1136 0080 0493     		str	r3, [sp, #16]
 1137 0082 224B     		ldr	r3, .L87+28
 1138 0084 0393     		str	r3, [sp, #12]
 1139 0086 40F27F33 		movw	r3, #895
 1140 008a 0293     		str	r3, [sp, #8]
 1141 008c 204B     		ldr	r3, .L87+32
 1142 008e 0193     		str	r3, [sp, #4]
 1143 0090 0091     		str	r1, [sp]
 1144 0092 0346     		mov	r3, r0
 1145 0094 1F4A     		ldr	r2, .L87+36
 1146 0096 0120     		movs	r0, #1
 1147 0098 FFF7FEFF 		bl	stm_log_write
 1148              	.LVL121:
 1149 009c 4FF48170 		mov	r0, #258
 1150              	.L74:
 910:/home/phong/Documents/thesis/stm32f4/stm-idf/components/driver/timer.c **** }
 1151              		.loc 1 910 0
 1152 00a0 07B0     		add	sp, sp, #28
ARM GAS  /tmp/cc6XjLyw.s 			page 38


 1153              	.LCFI22:
 1154              		.cfi_remember_state
 1155              		.cfi_def_cfa_offset 20
 1156              		@ sp needed
 1157 00a2 F0BD     		pop	{r4, r5, r6, r7, pc}
 1158              	.LVL122:
 1159              	.L83:
 1160              	.LCFI23:
 1161              		.cfi_restore_state
 896:/home/phong/Documents/thesis/stm32f4/stm-idf/components/driver/timer.c **** 
 1162              		.loc 1 896 0 discriminator 4
 1163 00a4 FFF7FEFF 		bl	stm_log_timestamp
 1164              	.LVL123:
 1165 00a8 1649     		ldr	r1, .L87+20
 1166 00aa 174B     		ldr	r3, .L87+24
 1167 00ac 0493     		str	r3, [sp, #16]
 1168 00ae 174B     		ldr	r3, .L87+28
 1169 00b0 0393     		str	r3, [sp, #12]
 1170 00b2 4FF46073 		mov	r3, #896
 1171 00b6 0293     		str	r3, [sp, #8]
 1172 00b8 154B     		ldr	r3, .L87+32
 1173 00ba 0193     		str	r3, [sp, #4]
 1174 00bc 0091     		str	r1, [sp]
 1175 00be 0346     		mov	r3, r0
 1176 00c0 144A     		ldr	r2, .L87+36
 1177 00c2 0120     		movs	r0, #1
 1178 00c4 FFF7FEFF 		bl	stm_log_write
 1179              	.LVL124:
 1180 00c8 4FF48170 		mov	r0, #258
 1181 00cc E8E7     		b	.L74
 1182              	.LVL125:
 1183              	.L84:
 908:/home/phong/Documents/thesis/stm32f4/stm-idf/components/driver/timer.c ****     return STM_OK;
 1184              		.loc 1 908 0 discriminator 1
 1185 00ce 7259     		ldr	r2, [r6, r5]
 1186 00d0 5363     		str	r3, [r2, #52]
 909:/home/phong/Documents/thesis/stm32f4/stm-idf/components/driver/timer.c **** }
 1187              		.loc 1 909 0 discriminator 1
 1188 00d2 0020     		movs	r0, #0
 1189              	.LVL126:
 1190 00d4 E4E7     		b	.L74
 1191              	.LVL127:
 1192              	.L85:
 908:/home/phong/Documents/thesis/stm32f4/stm-idf/components/driver/timer.c ****     return STM_OK;
 1193              		.loc 1 908 0 discriminator 3
 1194 00d6 8001     		lsls	r0, r0, #6
 1195              	.LVL128:
 1196 00d8 084A     		ldr	r2, .L87+12
 1197 00da 1258     		ldr	r2, [r2, r0]
 1198 00dc 9363     		str	r3, [r2, #56]
 909:/home/phong/Documents/thesis/stm32f4/stm-idf/components/driver/timer.c **** }
 1199              		.loc 1 909 0 discriminator 3
 1200 00de 0020     		movs	r0, #0
 1201 00e0 DEE7     		b	.L74
 1202              	.LVL129:
 1203              	.L86:
 908:/home/phong/Documents/thesis/stm32f4/stm-idf/components/driver/timer.c ****     return STM_OK;
ARM GAS  /tmp/cc6XjLyw.s 			page 39


 1204              		.loc 1 908 0 discriminator 6
 1205 00e2 8001     		lsls	r0, r0, #6
 1206              	.LVL130:
 1207 00e4 054A     		ldr	r2, .L87+12
 1208 00e6 1258     		ldr	r2, [r2, r0]
 1209 00e8 D363     		str	r3, [r2, #60]
 909:/home/phong/Documents/thesis/stm32f4/stm-idf/components/driver/timer.c **** }
 1210              		.loc 1 909 0 discriminator 6
 1211 00ea 0020     		movs	r0, #0
 1212 00ec D8E7     		b	.L74
 1213              	.L88:
 1214 00ee 00BF     		.align	2
 1215              	.L87:
 1216 00f0 00000000 		.word	.LANCHOR8
 1217 00f4 01800080 		.word	-2147450879
 1218 00f8 1F85EB51 		.word	1374389535
 1219 00fc 00000000 		.word	.LANCHOR3
 1220 0100 00000000 		.word	.LANCHOR4
 1221 0104 28000000 		.word	.LC1
 1222 0108 00000000 		.word	.LC7
 1223 010c 00000000 		.word	.LANCHOR9
 1224 0110 48000000 		.word	.LC3
 1225 0114 00000000 		.word	.LC0
 1226              		.cfi_endproc
 1227              	.LFE139:
 1229              		.section	.text.pwm_set_duty,"ax",%progbits
 1230              		.align	1
 1231              		.global	pwm_set_duty
 1232              		.syntax unified
 1233              		.thumb
 1234              		.thumb_func
 1235              		.fpu fpv4-sp-d16
 1237              	pwm_set_duty:
 1238              	.LFB140:
 911:/home/phong/Documents/thesis/stm32f4/stm-idf/components/driver/timer.c **** 
 912:/home/phong/Documents/thesis/stm32f4/stm-idf/components/driver/timer.c **** stm_err_t pwm_set_duty(timer_num_t timer_num, timer_channel_t timer_channel, uint8_t duty_percent)
 913:/home/phong/Documents/thesis/stm32f4/stm-idf/components/driver/timer.c **** {
 1239              		.loc 1 913 0
 1240              		.cfi_startproc
 1241              		@ args = 0, pretend = 0, frame = 0
 1242              		@ frame_needed = 0, uses_anonymous_args = 0
 1243              	.LVL131:
 1244 0000 00B5     		push	{lr}
 1245              	.LCFI24:
 1246              		.cfi_def_cfa_offset 4
 1247              		.cfi_offset 14, -4
 1248 0002 87B0     		sub	sp, sp, #28
 1249              	.LCFI25:
 1250              		.cfi_def_cfa_offset 32
 914:/home/phong/Documents/thesis/stm32f4/stm-idf/components/driver/timer.c ****     TIMER_CHECK(timer_num < TIMER_NUM_MAX, PWM_SET_DUTYCYCLE_ERR_STR, STM_ERR_INVALID_ARG);
 1251              		.loc 1 914 0
 1252 0004 0D28     		cmp	r0, #13
 1253 0006 17D8     		bhi	.L97
 915:/home/phong/Documents/thesis/stm32f4/stm-idf/components/driver/timer.c ****     TIMER_CHECK(timer_channel < TIMER_CHANNEL_MAX, PWM_SET_DUTYCYCLE_ERR_STR, STM_ERR_INVALID_ARG);
 1254              		.loc 1 915 0
 1255 0008 0329     		cmp	r1, #3
 1256 000a 2CD8     		bhi	.L98
ARM GAS  /tmp/cc6XjLyw.s 			page 40


 916:/home/phong/Documents/thesis/stm32f4/stm-idf/components/driver/timer.c **** 
 917:/home/phong/Documents/thesis/stm32f4/stm-idf/components/driver/timer.c ****     /* Calculate PWM compare value */
 918:/home/phong/Documents/thesis/stm32f4/stm-idf/components/driver/timer.c ****     uint32_t compare_value;
 919:/home/phong/Documents/thesis/stm32f4/stm-idf/components/driver/timer.c ****     compare_value = duty_percent * (timer_handle[timer_num].Instance->ARR) / 100;
 1257              		.loc 1 919 0
 1258 000c 8001     		lsls	r0, r0, #6
 1259              	.LVL132:
 1260 000e 254B     		ldr	r3, .L102
 1261 0010 1858     		ldr	r0, [r3, r0]
 1262 0012 C36A     		ldr	r3, [r0, #44]
 1263 0014 03FB02F2 		mul	r2, r3, r2
 1264              	.LVL133:
 1265 0018 234B     		ldr	r3, .L102+4
 1266 001a A3FB0232 		umull	r3, r2, r3, r2
 1267 001e 5209     		lsrs	r2, r2, #5
 1268              	.LVL134:
 920:/home/phong/Documents/thesis/stm32f4/stm-idf/components/driver/timer.c **** 
 921:/home/phong/Documents/thesis/stm32f4/stm-idf/components/driver/timer.c ****     /* Configure PWM compare value */
 922:/home/phong/Documents/thesis/stm32f4/stm-idf/components/driver/timer.c ****     __HAL_TIM_SET_COMPARE(&timer_handle[timer_num], TIM_CHANNEL_x_MAPPING[timer_channel], compare_v
 1269              		.loc 1 922 0
 1270 0020 224B     		ldr	r3, .L102+8
 1271 0022 53F82130 		ldr	r3, [r3, r1, lsl #2]
 1272 0026 002B     		cmp	r3, #0
 1273 0028 32D0     		beq	.L99
 1274              		.loc 1 922 0 is_stmt 0 discriminator 2
 1275 002a 042B     		cmp	r3, #4
 1276 002c 33D0     		beq	.L100
 1277              		.loc 1 922 0 discriminator 4
 1278 002e 082B     		cmp	r3, #8
 1279 0030 34D0     		beq	.L101
 1280              		.loc 1 922 0 discriminator 7
 1281 0032 0264     		str	r2, [r0, #64]
 923:/home/phong/Documents/thesis/stm32f4/stm-idf/components/driver/timer.c ****     return STM_OK;
 1282              		.loc 1 923 0 is_stmt 1 discriminator 7
 1283 0034 0020     		movs	r0, #0
 1284 0036 13E0     		b	.L89
 1285              	.LVL135:
 1286              	.L97:
 914:/home/phong/Documents/thesis/stm32f4/stm-idf/components/driver/timer.c ****     TIMER_CHECK(timer_channel < TIMER_CHANNEL_MAX, PWM_SET_DUTYCYCLE_ERR_STR, STM_ERR_INVALID_ARG);
 1287              		.loc 1 914 0 discriminator 4
 1288 0038 FFF7FEFF 		bl	stm_log_timestamp
 1289              	.LVL136:
 1290 003c 1C49     		ldr	r1, .L102+12
 1291 003e 1D4B     		ldr	r3, .L102+16
 1292 0040 0493     		str	r3, [sp, #16]
 1293 0042 1D4B     		ldr	r3, .L102+20
 1294 0044 0393     		str	r3, [sp, #12]
 1295 0046 40F29233 		movw	r3, #914
 1296 004a 0293     		str	r3, [sp, #8]
 1297 004c 1B4B     		ldr	r3, .L102+24
 1298 004e 0193     		str	r3, [sp, #4]
 1299 0050 0091     		str	r1, [sp]
 1300 0052 0346     		mov	r3, r0
 1301 0054 1A4A     		ldr	r2, .L102+28
 1302 0056 0120     		movs	r0, #1
 1303 0058 FFF7FEFF 		bl	stm_log_write
 1304              	.LVL137:
ARM GAS  /tmp/cc6XjLyw.s 			page 41


 1305 005c 4FF48170 		mov	r0, #258
 1306              	.L89:
 924:/home/phong/Documents/thesis/stm32f4/stm-idf/components/driver/timer.c **** }
 1307              		.loc 1 924 0
 1308 0060 07B0     		add	sp, sp, #28
 1309              	.LCFI26:
 1310              		.cfi_remember_state
 1311              		.cfi_def_cfa_offset 4
 1312              		@ sp needed
 1313 0062 5DF804FB 		ldr	pc, [sp], #4
 1314              	.LVL138:
 1315              	.L98:
 1316              	.LCFI27:
 1317              		.cfi_restore_state
 915:/home/phong/Documents/thesis/stm32f4/stm-idf/components/driver/timer.c **** 
 1318              		.loc 1 915 0 discriminator 4
 1319 0066 FFF7FEFF 		bl	stm_log_timestamp
 1320              	.LVL139:
 1321 006a 1149     		ldr	r1, .L102+12
 1322 006c 114B     		ldr	r3, .L102+16
 1323 006e 0493     		str	r3, [sp, #16]
 1324 0070 114B     		ldr	r3, .L102+20
 1325 0072 0393     		str	r3, [sp, #12]
 1326 0074 40F29333 		movw	r3, #915
 1327 0078 0293     		str	r3, [sp, #8]
 1328 007a 104B     		ldr	r3, .L102+24
 1329 007c 0193     		str	r3, [sp, #4]
 1330 007e 0091     		str	r1, [sp]
 1331 0080 0346     		mov	r3, r0
 1332 0082 0F4A     		ldr	r2, .L102+28
 1333 0084 0120     		movs	r0, #1
 1334 0086 FFF7FEFF 		bl	stm_log_write
 1335              	.LVL140:
 1336 008a 4FF48170 		mov	r0, #258
 1337 008e E7E7     		b	.L89
 1338              	.LVL141:
 1339              	.L99:
 922:/home/phong/Documents/thesis/stm32f4/stm-idf/components/driver/timer.c ****     return STM_OK;
 1340              		.loc 1 922 0 discriminator 1
 1341 0090 4263     		str	r2, [r0, #52]
 923:/home/phong/Documents/thesis/stm32f4/stm-idf/components/driver/timer.c **** }
 1342              		.loc 1 923 0 discriminator 1
 1343 0092 0020     		movs	r0, #0
 1344 0094 E4E7     		b	.L89
 1345              	.L100:
 922:/home/phong/Documents/thesis/stm32f4/stm-idf/components/driver/timer.c ****     return STM_OK;
 1346              		.loc 1 922 0 discriminator 3
 1347 0096 8263     		str	r2, [r0, #56]
 923:/home/phong/Documents/thesis/stm32f4/stm-idf/components/driver/timer.c **** }
 1348              		.loc 1 923 0 discriminator 3
 1349 0098 0020     		movs	r0, #0
 1350 009a E1E7     		b	.L89
 1351              	.L101:
 922:/home/phong/Documents/thesis/stm32f4/stm-idf/components/driver/timer.c ****     return STM_OK;
 1352              		.loc 1 922 0 discriminator 6
 1353 009c C263     		str	r2, [r0, #60]
 923:/home/phong/Documents/thesis/stm32f4/stm-idf/components/driver/timer.c **** }
ARM GAS  /tmp/cc6XjLyw.s 			page 42


 1354              		.loc 1 923 0 discriminator 6
 1355 009e 0020     		movs	r0, #0
 1356 00a0 DEE7     		b	.L89
 1357              	.L103:
 1358 00a2 00BF     		.align	2
 1359              	.L102:
 1360 00a4 00000000 		.word	.LANCHOR3
 1361 00a8 1F85EB51 		.word	1374389535
 1362 00ac 00000000 		.word	.LANCHOR4
 1363 00b0 28000000 		.word	.LC1
 1364 00b4 00000000 		.word	.LC8
 1365 00b8 00000000 		.word	.LANCHOR10
 1366 00bc 48000000 		.word	.LC3
 1367 00c0 00000000 		.word	.LC0
 1368              		.cfi_endproc
 1369              	.LFE140:
 1371              		.section	.text.etr_config,"ax",%progbits
 1372              		.align	1
 1373              		.global	etr_config
 1374              		.syntax unified
 1375              		.thumb
 1376              		.thumb_func
 1377              		.fpu fpv4-sp-d16
 1379              	etr_config:
 1380              	.LFB141:
 925:/home/phong/Documents/thesis/stm32f4/stm-idf/components/driver/timer.c **** 
 926:/home/phong/Documents/thesis/stm32f4/stm-idf/components/driver/timer.c **** stm_err_t etr_config(etr_config_t *config)
 927:/home/phong/Documents/thesis/stm32f4/stm-idf/components/driver/timer.c **** {
 1381              		.loc 1 927 0
 1382              		.cfi_startproc
 1383              		@ args = 0, pretend = 0, frame = 64
 1384              		@ frame_needed = 0, uses_anonymous_args = 0
 1385              	.LVL142:
 1386 0000 30B5     		push	{r4, r5, lr}
 1387              	.LCFI28:
 1388              		.cfi_def_cfa_offset 12
 1389              		.cfi_offset 4, -12
 1390              		.cfi_offset 5, -8
 1391              		.cfi_offset 14, -4
 1392 0002 97B0     		sub	sp, sp, #92
 1393              	.LCFI29:
 1394              		.cfi_def_cfa_offset 104
 928:/home/phong/Documents/thesis/stm32f4/stm-idf/components/driver/timer.c ****     /* Check input condition */
 929:/home/phong/Documents/thesis/stm32f4/stm-idf/components/driver/timer.c ****     TIMER_CHECK(config, ETR_INIT_ERR_STR, STM_ERR_INVALID_ARG);
 1395              		.loc 1 929 0
 1396 0004 F0B1     		cbz	r0, .L117
 1397 0006 0446     		mov	r4, r0
 930:/home/phong/Documents/thesis/stm32f4/stm-idf/components/driver/timer.c ****     TIMER_CHECK(config->timer_num < TIMER_NUM_MAX, ETR_INIT_ERR_STR, STM_ERR_INVALID_ARG);
 1398              		.loc 1 930 0
 1399 0008 0178     		ldrb	r1, [r0]	@ zero_extendqisi2
 1400 000a 0D29     		cmp	r1, #13
 1401 000c 2FD8     		bhi	.L118
 931:/home/phong/Documents/thesis/stm32f4/stm-idf/components/driver/timer.c ****     TIMER_CHECK(config->timer_pins_pack < TIMER_PINS_PACK_MAX, ETR_INIT_ERR_STR, STM_ERR_INVALID_AR
 1402              		.loc 1 931 0
 1403 000e 4278     		ldrb	r2, [r0, #1]	@ zero_extendqisi2
 1404 0010 022A     		cmp	r2, #2
 1405 0012 42D8     		bhi	.L119
ARM GAS  /tmp/cc6XjLyw.s 			page 43


 932:/home/phong/Documents/thesis/stm32f4/stm-idf/components/driver/timer.c ****     TIMER_CHECK(config->counter_mode < TIMER_COUNTER_MODE_MAX, ETR_INIT_ERR_STR, STM_ERR_INVALID_AR
 1406              		.loc 1 932 0
 1407 0014 037A     		ldrb	r3, [r0, #8]	@ zero_extendqisi2
 1408 0016 012B     		cmp	r3, #1
 1409 0018 54D9     		bls	.L109
 1410              		.loc 1 932 0 is_stmt 0 discriminator 4
 1411 001a FFF7FEFF 		bl	stm_log_timestamp
 1412              	.LVL143:
 1413 001e 8149     		ldr	r1, .L123
 1414 0020 814B     		ldr	r3, .L123+4
 1415 0022 0493     		str	r3, [sp, #16]
 1416 0024 814B     		ldr	r3, .L123+8
 1417 0026 0393     		str	r3, [sp, #12]
 1418 0028 4FF46973 		mov	r3, #932
 1419 002c 0293     		str	r3, [sp, #8]
 1420 002e 804B     		ldr	r3, .L123+12
 1421 0030 0193     		str	r3, [sp, #4]
 1422 0032 0091     		str	r1, [sp]
 1423 0034 0346     		mov	r3, r0
 1424 0036 7F4A     		ldr	r2, .L123+16
 1425 0038 0120     		movs	r0, #1
 1426 003a FFF7FEFF 		bl	stm_log_write
 1427              	.LVL144:
 1428 003e 4FF48170 		mov	r0, #258
 1429 0042 28E0     		b	.L104
 1430              	.LVL145:
 1431              	.L117:
 929:/home/phong/Documents/thesis/stm32f4/stm-idf/components/driver/timer.c ****     TIMER_CHECK(config->timer_num < TIMER_NUM_MAX, ETR_INIT_ERR_STR, STM_ERR_INVALID_ARG);
 1432              		.loc 1 929 0 is_stmt 1 discriminator 4
 1433 0044 FFF7FEFF 		bl	stm_log_timestamp
 1434              	.LVL146:
 1435 0048 7649     		ldr	r1, .L123
 1436 004a 774B     		ldr	r3, .L123+4
 1437 004c 0493     		str	r3, [sp, #16]
 1438 004e 774B     		ldr	r3, .L123+8
 1439 0050 0393     		str	r3, [sp, #12]
 1440 0052 40F2A133 		movw	r3, #929
 1441 0056 0293     		str	r3, [sp, #8]
 1442 0058 754B     		ldr	r3, .L123+12
 1443 005a 0193     		str	r3, [sp, #4]
 1444 005c 0091     		str	r1, [sp]
 1445 005e 0346     		mov	r3, r0
 1446 0060 744A     		ldr	r2, .L123+16
 1447 0062 0120     		movs	r0, #1
 1448 0064 FFF7FEFF 		bl	stm_log_write
 1449              	.LVL147:
 1450 0068 4FF48170 		mov	r0, #258
 1451 006c 13E0     		b	.L104
 1452              	.LVL148:
 1453              	.L118:
 930:/home/phong/Documents/thesis/stm32f4/stm-idf/components/driver/timer.c ****     TIMER_CHECK(config->timer_pins_pack < TIMER_PINS_PACK_MAX, ETR_INIT_ERR_STR, STM_ERR_INVALID_AR
 1454              		.loc 1 930 0 discriminator 4
 1455 006e FFF7FEFF 		bl	stm_log_timestamp
 1456              	.LVL149:
 1457 0072 6C49     		ldr	r1, .L123
 1458 0074 6C4B     		ldr	r3, .L123+4
 1459 0076 0493     		str	r3, [sp, #16]
ARM GAS  /tmp/cc6XjLyw.s 			page 44


 1460 0078 6C4B     		ldr	r3, .L123+8
 1461 007a 0393     		str	r3, [sp, #12]
 1462 007c 40F2A233 		movw	r3, #930
 1463 0080 0293     		str	r3, [sp, #8]
 1464 0082 6B4B     		ldr	r3, .L123+12
 1465 0084 0193     		str	r3, [sp, #4]
 1466 0086 0091     		str	r1, [sp]
 1467 0088 0346     		mov	r3, r0
 1468 008a 6A4A     		ldr	r2, .L123+16
 1469 008c 0120     		movs	r0, #1
 1470 008e FFF7FEFF 		bl	stm_log_write
 1471              	.LVL150:
 1472 0092 4FF48170 		mov	r0, #258
 1473              	.LVL151:
 1474              	.L104:
 933:/home/phong/Documents/thesis/stm32f4/stm-idf/components/driver/timer.c **** 
 934:/home/phong/Documents/thesis/stm32f4/stm-idf/components/driver/timer.c ****     /* Get hardware information */
 935:/home/phong/Documents/thesis/stm32f4/stm-idf/components/driver/timer.c ****     tim_hw_info_t hw_info = _tim_etr_get_hw_info(config->timer_num, config->timer_pins_pack);
 936:/home/phong/Documents/thesis/stm32f4/stm-idf/components/driver/timer.c **** 
 937:/home/phong/Documents/thesis/stm32f4/stm-idf/components/driver/timer.c ****     int ret;
 938:/home/phong/Documents/thesis/stm32f4/stm-idf/components/driver/timer.c **** 
 939:/home/phong/Documents/thesis/stm32f4/stm-idf/components/driver/timer.c ****     /* Enable GPIO clock */
 940:/home/phong/Documents/thesis/stm32f4/stm-idf/components/driver/timer.c ****     uint32_t tmpreg = 0x00;
 941:/home/phong/Documents/thesis/stm32f4/stm-idf/components/driver/timer.c ****     SET_BIT(RCC->AHB1ENR, hw_info.rcc_ahbenr_gpioen);
 942:/home/phong/Documents/thesis/stm32f4/stm-idf/components/driver/timer.c ****     tmpreg = READ_BIT(RCC->AHB1ENR, hw_info.rcc_ahbenr_gpioen);
 943:/home/phong/Documents/thesis/stm32f4/stm-idf/components/driver/timer.c ****     UNUSED(tmpreg);
 944:/home/phong/Documents/thesis/stm32f4/stm-idf/components/driver/timer.c **** 
 945:/home/phong/Documents/thesis/stm32f4/stm-idf/components/driver/timer.c ****     /* Enable timer clock */
 946:/home/phong/Documents/thesis/stm32f4/stm-idf/components/driver/timer.c ****     tmpreg = 0x00;
 947:/home/phong/Documents/thesis/stm32f4/stm-idf/components/driver/timer.c ****     if ((config->timer_num == TIMER_NUM_1) || (config->timer_num == TIMER_NUM_8) || (config->timer_
 948:/home/phong/Documents/thesis/stm32f4/stm-idf/components/driver/timer.c ****         SET_BIT(RCC->APB2ENR, hw_info.rcc_apbenr_timen);
 949:/home/phong/Documents/thesis/stm32f4/stm-idf/components/driver/timer.c ****         tmpreg = READ_BIT(RCC->APB2ENR, hw_info.rcc_apbenr_timen);
 950:/home/phong/Documents/thesis/stm32f4/stm-idf/components/driver/timer.c ****     }
 951:/home/phong/Documents/thesis/stm32f4/stm-idf/components/driver/timer.c ****     else {
 952:/home/phong/Documents/thesis/stm32f4/stm-idf/components/driver/timer.c ****         SET_BIT(RCC->APB1ENR, hw_info.rcc_apbenr_timen);
 953:/home/phong/Documents/thesis/stm32f4/stm-idf/components/driver/timer.c ****         tmpreg = READ_BIT(RCC->APB1ENR, hw_info.rcc_apbenr_timen);
 954:/home/phong/Documents/thesis/stm32f4/stm-idf/components/driver/timer.c ****     }
 955:/home/phong/Documents/thesis/stm32f4/stm-idf/components/driver/timer.c ****     UNUSED(tmpreg);
 956:/home/phong/Documents/thesis/stm32f4/stm-idf/components/driver/timer.c **** 
 957:/home/phong/Documents/thesis/stm32f4/stm-idf/components/driver/timer.c ****     /* Configure GPIO pin */
 958:/home/phong/Documents/thesis/stm32f4/stm-idf/components/driver/timer.c ****     GPIO_InitTypeDef GPIO_InitStruct = {0};
 959:/home/phong/Documents/thesis/stm32f4/stm-idf/components/driver/timer.c ****     GPIO_InitStruct.Pin = hw_info.pin;
 960:/home/phong/Documents/thesis/stm32f4/stm-idf/components/driver/timer.c ****     GPIO_InitStruct.Mode = GPIO_MODE_DEFAULT;
 961:/home/phong/Documents/thesis/stm32f4/stm-idf/components/driver/timer.c ****     GPIO_InitStruct.Pull = GPIO_PULL_REG_DEFAULT;
 962:/home/phong/Documents/thesis/stm32f4/stm-idf/components/driver/timer.c ****     GPIO_InitStruct.Speed = GPIO_SPEED_FREQ_DEFAULT;
 963:/home/phong/Documents/thesis/stm32f4/stm-idf/components/driver/timer.c ****     GPIO_InitStruct.Alternate = hw_info.alternate_func;
 964:/home/phong/Documents/thesis/stm32f4/stm-idf/components/driver/timer.c ****     HAL_GPIO_Init(hw_info.port, &GPIO_InitStruct);
 965:/home/phong/Documents/thesis/stm32f4/stm-idf/components/driver/timer.c **** 
 966:/home/phong/Documents/thesis/stm32f4/stm-idf/components/driver/timer.c ****     /* Configure Timer */
 967:/home/phong/Documents/thesis/stm32f4/stm-idf/components/driver/timer.c ****     timer_handle[config->timer_num].Instance                 = hw_info.timer;
 968:/home/phong/Documents/thesis/stm32f4/stm-idf/components/driver/timer.c ****     timer_handle[config->timer_num].Init.Prescaler           = EXT_CNT_PRES_DEFAULT;
 969:/home/phong/Documents/thesis/stm32f4/stm-idf/components/driver/timer.c ****     timer_handle[config->timer_num].Init.CounterMode         = TIMER_COUNTER_MODE_MAPPING[config->c
 970:/home/phong/Documents/thesis/stm32f4/stm-idf/components/driver/timer.c ****     timer_handle[config->timer_num].Init.Period              = config->max_reload;
 971:/home/phong/Documents/thesis/stm32f4/stm-idf/components/driver/timer.c ****     timer_handle[config->timer_num].Init.ClockDivision       = PWM_TIM_CLOCK_DIV_DEFAULT;
 972:/home/phong/Documents/thesis/stm32f4/stm-idf/components/driver/timer.c ****     timer_handle[config->timer_num].Init.AutoReloadPreload   = TIM_AUTORELOAD_PRELOAD_DISABLE;
 973:/home/phong/Documents/thesis/stm32f4/stm-idf/components/driver/timer.c ****     ret = HAL_TIM_Base_Init(&timer_handle[config->timer_num]);
 974:/home/phong/Documents/thesis/stm32f4/stm-idf/components/driver/timer.c ****     TIMER_CHECK(!ret, ETR_INIT_ERR_STR, STM_FAIL);
ARM GAS  /tmp/cc6XjLyw.s 			page 45


 975:/home/phong/Documents/thesis/stm32f4/stm-idf/components/driver/timer.c **** 
 976:/home/phong/Documents/thesis/stm32f4/stm-idf/components/driver/timer.c ****     /* Configure Timer clock source */
 977:/home/phong/Documents/thesis/stm32f4/stm-idf/components/driver/timer.c ****     TIM_ClockConfigTypeDef sClockSourceConfig = {0};
 978:/home/phong/Documents/thesis/stm32f4/stm-idf/components/driver/timer.c ****     sClockSourceConfig.ClockSource = TIM_CLOCKSOURCE_ETRMODE2;
 979:/home/phong/Documents/thesis/stm32f4/stm-idf/components/driver/timer.c ****     sClockSourceConfig.ClockPolarity = TIM_CLOCKPOLARITY_NONINVERTED;
 980:/home/phong/Documents/thesis/stm32f4/stm-idf/components/driver/timer.c ****     sClockSourceConfig.ClockPrescaler = TIM_CLOCKPRESCALER_DIV1;
 981:/home/phong/Documents/thesis/stm32f4/stm-idf/components/driver/timer.c ****     sClockSourceConfig.ClockFilter = 0;
 982:/home/phong/Documents/thesis/stm32f4/stm-idf/components/driver/timer.c ****     ret = HAL_TIM_ConfigClockSource(&timer_handle[config->timer_num], &sClockSourceConfig);
 983:/home/phong/Documents/thesis/stm32f4/stm-idf/components/driver/timer.c ****     TIMER_CHECK(!ret, ETR_INIT_ERR_STR, STM_FAIL);
 984:/home/phong/Documents/thesis/stm32f4/stm-idf/components/driver/timer.c **** 
 985:/home/phong/Documents/thesis/stm32f4/stm-idf/components/driver/timer.c ****     /* Configure Timer in master mode */
 986:/home/phong/Documents/thesis/stm32f4/stm-idf/components/driver/timer.c ****     TIM_MasterConfigTypeDef sMasterConfig = {0};
 987:/home/phong/Documents/thesis/stm32f4/stm-idf/components/driver/timer.c ****     sMasterConfig.MasterOutputTrigger = TIM_TRGO_RESET;
 988:/home/phong/Documents/thesis/stm32f4/stm-idf/components/driver/timer.c ****     sMasterConfig.MasterSlaveMode = TIM_MASTERSLAVEMODE_DISABLE;
 989:/home/phong/Documents/thesis/stm32f4/stm-idf/components/driver/timer.c ****     ret = HAL_TIMEx_MasterConfigSynchronization(&timer_handle[config->timer_num], &sMasterConfig);
 990:/home/phong/Documents/thesis/stm32f4/stm-idf/components/driver/timer.c ****     TIMER_CHECK(!ret, ETR_INIT_ERR_STR, STM_FAIL);
 991:/home/phong/Documents/thesis/stm32f4/stm-idf/components/driver/timer.c **** 
 992:/home/phong/Documents/thesis/stm32f4/stm-idf/components/driver/timer.c ****     return STM_OK;
 993:/home/phong/Documents/thesis/stm32f4/stm-idf/components/driver/timer.c **** }
 1475              		.loc 1 993 0
 1476 0096 17B0     		add	sp, sp, #92
 1477              	.LCFI30:
 1478              		.cfi_remember_state
 1479              		.cfi_def_cfa_offset 12
 1480              		@ sp needed
 1481 0098 30BD     		pop	{r4, r5, pc}
 1482              	.LVL152:
 1483              	.L119:
 1484              	.LCFI31:
 1485              		.cfi_restore_state
 931:/home/phong/Documents/thesis/stm32f4/stm-idf/components/driver/timer.c ****     TIMER_CHECK(config->counter_mode < TIMER_COUNTER_MODE_MAX, ETR_INIT_ERR_STR, STM_ERR_INVALID_AR
 1486              		.loc 1 931 0 discriminator 4
 1487 009a FFF7FEFF 		bl	stm_log_timestamp
 1488              	.LVL153:
 1489 009e 6149     		ldr	r1, .L123
 1490 00a0 614B     		ldr	r3, .L123+4
 1491 00a2 0493     		str	r3, [sp, #16]
 1492 00a4 614B     		ldr	r3, .L123+8
 1493 00a6 0393     		str	r3, [sp, #12]
 1494 00a8 40F2A333 		movw	r3, #931
 1495 00ac 0293     		str	r3, [sp, #8]
 1496 00ae 604B     		ldr	r3, .L123+12
 1497 00b0 0193     		str	r3, [sp, #4]
 1498 00b2 0091     		str	r1, [sp]
 1499 00b4 0346     		mov	r3, r0
 1500 00b6 5F4A     		ldr	r2, .L123+16
 1501 00b8 0120     		movs	r0, #1
 1502 00ba FFF7FEFF 		bl	stm_log_write
 1503              	.LVL154:
 1504 00be 4FF48170 		mov	r0, #258
 1505 00c2 E8E7     		b	.L104
 1506              	.LVL155:
 1507              	.L109:
 935:/home/phong/Documents/thesis/stm32f4/stm-idf/components/driver/timer.c **** 
 1508              		.loc 1 935 0
 1509 00c4 11A8     		add	r0, sp, #68
 1510              	.LVL156:
ARM GAS  /tmp/cc6XjLyw.s 			page 46


 1511 00c6 FFF7FEFF 		bl	_tim_etr_get_hw_info
 1512              	.LVL157:
 941:/home/phong/Documents/thesis/stm32f4/stm-idf/components/driver/timer.c ****     tmpreg = READ_BIT(RCC->AHB1ENR, hw_info.rcc_ahbenr_gpioen);
 1513              		.loc 1 941 0
 1514 00ca 5B4B     		ldr	r3, .L123+20
 1515 00cc 1A6B     		ldr	r2, [r3, #48]
 1516 00ce 1299     		ldr	r1, [sp, #72]
 1517 00d0 0A43     		orrs	r2, r2, r1
 1518 00d2 1A63     		str	r2, [r3, #48]
 942:/home/phong/Documents/thesis/stm32f4/stm-idf/components/driver/timer.c ****     UNUSED(tmpreg);
 1519              		.loc 1 942 0
 1520 00d4 1B6B     		ldr	r3, [r3, #48]
 947:/home/phong/Documents/thesis/stm32f4/stm-idf/components/driver/timer.c ****         SET_BIT(RCC->APB2ENR, hw_info.rcc_apbenr_timen);
 1521              		.loc 1 947 0
 1522 00d6 2378     		ldrb	r3, [r4]	@ zero_extendqisi2
 1523 00d8 73B1     		cbz	r3, .L110
 947:/home/phong/Documents/thesis/stm32f4/stm-idf/components/driver/timer.c ****         SET_BIT(RCC->APB2ENR, hw_info.rcc_apbenr_timen);
 1524              		.loc 1 947 0 is_stmt 0 discriminator 1
 1525 00da 072B     		cmp	r3, #7
 1526 00dc 0CD0     		beq	.L110
 947:/home/phong/Documents/thesis/stm32f4/stm-idf/components/driver/timer.c ****         SET_BIT(RCC->APB2ENR, hw_info.rcc_apbenr_timen);
 1527              		.loc 1 947 0 discriminator 2
 1528 00de 082B     		cmp	r3, #8
 1529 00e0 0AD0     		beq	.L110
 947:/home/phong/Documents/thesis/stm32f4/stm-idf/components/driver/timer.c ****         SET_BIT(RCC->APB2ENR, hw_info.rcc_apbenr_timen);
 1530              		.loc 1 947 0 discriminator 3
 1531 00e2 092B     		cmp	r3, #9
 1532 00e4 08D0     		beq	.L110
 947:/home/phong/Documents/thesis/stm32f4/stm-idf/components/driver/timer.c ****         SET_BIT(RCC->APB2ENR, hw_info.rcc_apbenr_timen);
 1533              		.loc 1 947 0 discriminator 4
 1534 00e6 0A2B     		cmp	r3, #10
 1535 00e8 06D0     		beq	.L110
 952:/home/phong/Documents/thesis/stm32f4/stm-idf/components/driver/timer.c ****         tmpreg = READ_BIT(RCC->APB1ENR, hw_info.rcc_apbenr_timen);
 1536              		.loc 1 952 0 is_stmt 1
 1537 00ea 534B     		ldr	r3, .L123+20
 1538 00ec 1A6C     		ldr	r2, [r3, #64]
 1539 00ee 1199     		ldr	r1, [sp, #68]
 1540 00f0 0A43     		orrs	r2, r2, r1
 1541 00f2 1A64     		str	r2, [r3, #64]
 953:/home/phong/Documents/thesis/stm32f4/stm-idf/components/driver/timer.c ****     }
 1542              		.loc 1 953 0
 1543 00f4 1B6C     		ldr	r3, [r3, #64]
 1544              	.LVL158:
 1545 00f6 05E0     		b	.L112
 1546              	.LVL159:
 1547              	.L110:
 948:/home/phong/Documents/thesis/stm32f4/stm-idf/components/driver/timer.c ****         tmpreg = READ_BIT(RCC->APB2ENR, hw_info.rcc_apbenr_timen);
 1548              		.loc 1 948 0
 1549 00f8 4F4B     		ldr	r3, .L123+20
 1550 00fa 5A6C     		ldr	r2, [r3, #68]
 1551 00fc 1199     		ldr	r1, [sp, #68]
 1552 00fe 0A43     		orrs	r2, r2, r1
 1553 0100 5A64     		str	r2, [r3, #68]
 949:/home/phong/Documents/thesis/stm32f4/stm-idf/components/driver/timer.c ****     }
 1554              		.loc 1 949 0
 1555 0102 5B6C     		ldr	r3, [r3, #68]
 1556              	.LVL160:
ARM GAS  /tmp/cc6XjLyw.s 			page 47


 1557              	.L112:
 958:/home/phong/Documents/thesis/stm32f4/stm-idf/components/driver/timer.c ****     GPIO_InitStruct.Pin = hw_info.pin;
 1558              		.loc 1 958 0
 1559 0104 0025     		movs	r5, #0
 1560 0106 0E95     		str	r5, [sp, #56]
 959:/home/phong/Documents/thesis/stm32f4/stm-idf/components/driver/timer.c ****     GPIO_InitStruct.Mode = GPIO_MODE_DEFAULT;
 1561              		.loc 1 959 0
 1562 0108 BDF85430 		ldrh	r3, [sp, #84]
 1563 010c 0C93     		str	r3, [sp, #48]
 960:/home/phong/Documents/thesis/stm32f4/stm-idf/components/driver/timer.c ****     GPIO_InitStruct.Pull = GPIO_PULL_REG_DEFAULT;
 1564              		.loc 1 960 0
 1565 010e 0223     		movs	r3, #2
 1566 0110 0D93     		str	r3, [sp, #52]
 962:/home/phong/Documents/thesis/stm32f4/stm-idf/components/driver/timer.c ****     GPIO_InitStruct.Alternate = hw_info.alternate_func;
 1567              		.loc 1 962 0
 1568 0112 0323     		movs	r3, #3
 1569 0114 0F93     		str	r3, [sp, #60]
 963:/home/phong/Documents/thesis/stm32f4/stm-idf/components/driver/timer.c ****     HAL_GPIO_Init(hw_info.port, &GPIO_InitStruct);
 1570              		.loc 1 963 0
 1571 0116 9DF85630 		ldrb	r3, [sp, #86]	@ zero_extendqisi2
 1572 011a 1093     		str	r3, [sp, #64]
 964:/home/phong/Documents/thesis/stm32f4/stm-idf/components/driver/timer.c **** 
 1573              		.loc 1 964 0
 1574 011c 0CA9     		add	r1, sp, #48
 1575 011e 1498     		ldr	r0, [sp, #80]
 1576 0120 FFF7FEFF 		bl	HAL_GPIO_Init
 1577              	.LVL161:
 967:/home/phong/Documents/thesis/stm32f4/stm-idf/components/driver/timer.c ****     timer_handle[config->timer_num].Init.Prescaler           = EXT_CNT_PRES_DEFAULT;
 1578              		.loc 1 967 0
 1579 0124 2278     		ldrb	r2, [r4]	@ zero_extendqisi2
 1580 0126 454B     		ldr	r3, .L123+24
 1581 0128 9201     		lsls	r2, r2, #6
 1582 012a 1399     		ldr	r1, [sp, #76]
 1583 012c 9950     		str	r1, [r3, r2]
 968:/home/phong/Documents/thesis/stm32f4/stm-idf/components/driver/timer.c ****     timer_handle[config->timer_num].Init.CounterMode         = TIMER_COUNTER_MODE_MAPPING[config->c
 1584              		.loc 1 968 0
 1585 012e 2278     		ldrb	r2, [r4]	@ zero_extendqisi2
 1586 0130 03EB8212 		add	r2, r3, r2, lsl #6
 1587 0134 5560     		str	r5, [r2, #4]
 969:/home/phong/Documents/thesis/stm32f4/stm-idf/components/driver/timer.c ****     timer_handle[config->timer_num].Init.Period              = config->max_reload;
 1588              		.loc 1 969 0
 1589 0136 2278     		ldrb	r2, [r4]	@ zero_extendqisi2
 1590 0138 207A     		ldrb	r0, [r4, #8]	@ zero_extendqisi2
 1591 013a 4149     		ldr	r1, .L123+28
 1592 013c 51F82010 		ldr	r1, [r1, r0, lsl #2]
 1593 0140 03EB8212 		add	r2, r3, r2, lsl #6
 1594 0144 9160     		str	r1, [r2, #8]
 970:/home/phong/Documents/thesis/stm32f4/stm-idf/components/driver/timer.c ****     timer_handle[config->timer_num].Init.ClockDivision       = PWM_TIM_CLOCK_DIV_DEFAULT;
 1595              		.loc 1 970 0
 1596 0146 2278     		ldrb	r2, [r4]	@ zero_extendqisi2
 1597 0148 6168     		ldr	r1, [r4, #4]
 1598 014a 03EB8212 		add	r2, r3, r2, lsl #6
 1599 014e D160     		str	r1, [r2, #12]
 971:/home/phong/Documents/thesis/stm32f4/stm-idf/components/driver/timer.c ****     timer_handle[config->timer_num].Init.AutoReloadPreload   = TIM_AUTORELOAD_PRELOAD_DISABLE;
 1600              		.loc 1 971 0
 1601 0150 2278     		ldrb	r2, [r4]	@ zero_extendqisi2
 1602 0152 03EB8212 		add	r2, r3, r2, lsl #6
ARM GAS  /tmp/cc6XjLyw.s 			page 48


 1603 0156 1561     		str	r5, [r2, #16]
 972:/home/phong/Documents/thesis/stm32f4/stm-idf/components/driver/timer.c ****     ret = HAL_TIM_Base_Init(&timer_handle[config->timer_num]);
 1604              		.loc 1 972 0
 1605 0158 2278     		ldrb	r2, [r4]	@ zero_extendqisi2
 1606 015a 03EB8212 		add	r2, r3, r2, lsl #6
 1607 015e 9561     		str	r5, [r2, #24]
 973:/home/phong/Documents/thesis/stm32f4/stm-idf/components/driver/timer.c ****     TIMER_CHECK(!ret, ETR_INIT_ERR_STR, STM_FAIL);
 1608              		.loc 1 973 0
 1609 0160 2078     		ldrb	r0, [r4]	@ zero_extendqisi2
 1610 0162 03EB8010 		add	r0, r3, r0, lsl #6
 1611 0166 FFF7FEFF 		bl	HAL_TIM_Base_Init
 1612              	.LVL162:
 974:/home/phong/Documents/thesis/stm32f4/stm-idf/components/driver/timer.c **** 
 1613              		.loc 1 974 0
 1614 016a D8B9     		cbnz	r0, .L120
 977:/home/phong/Documents/thesis/stm32f4/stm-idf/components/driver/timer.c ****     sClockSourceConfig.ClockSource = TIM_CLOCKSOURCE_ETRMODE2;
 1615              		.loc 1 977 0
 1616 016c 0023     		movs	r3, #0
 1617 016e 0993     		str	r3, [sp, #36]
 1618 0170 0A93     		str	r3, [sp, #40]
 1619 0172 0B93     		str	r3, [sp, #44]
 978:/home/phong/Documents/thesis/stm32f4/stm-idf/components/driver/timer.c ****     sClockSourceConfig.ClockPolarity = TIM_CLOCKPOLARITY_NONINVERTED;
 1620              		.loc 1 978 0
 1621 0174 4FF40053 		mov	r3, #8192
 1622 0178 0893     		str	r3, [sp, #32]
 982:/home/phong/Documents/thesis/stm32f4/stm-idf/components/driver/timer.c ****     TIMER_CHECK(!ret, ETR_INIT_ERR_STR, STM_FAIL);
 1623              		.loc 1 982 0
 1624 017a 2078     		ldrb	r0, [r4]	@ zero_extendqisi2
 1625              	.LVL163:
 1626 017c 08A9     		add	r1, sp, #32
 1627 017e 2F4B     		ldr	r3, .L123+24
 1628 0180 03EB8010 		add	r0, r3, r0, lsl #6
 1629 0184 FFF7FEFF 		bl	HAL_TIM_ConfigClockSource
 1630              	.LVL164:
 983:/home/phong/Documents/thesis/stm32f4/stm-idf/components/driver/timer.c **** 
 1631              		.loc 1 983 0
 1632 0188 08BB     		cbnz	r0, .L121
 986:/home/phong/Documents/thesis/stm32f4/stm-idf/components/driver/timer.c ****     sMasterConfig.MasterOutputTrigger = TIM_TRGO_RESET;
 1633              		.loc 1 986 0
 1634 018a 0023     		movs	r3, #0
 1635 018c 0693     		str	r3, [sp, #24]
 1636 018e 0793     		str	r3, [sp, #28]
 989:/home/phong/Documents/thesis/stm32f4/stm-idf/components/driver/timer.c ****     TIMER_CHECK(!ret, ETR_INIT_ERR_STR, STM_FAIL);
 1637              		.loc 1 989 0
 1638 0190 2078     		ldrb	r0, [r4]	@ zero_extendqisi2
 1639              	.LVL165:
 1640 0192 06A9     		add	r1, sp, #24
 1641 0194 294B     		ldr	r3, .L123+24
 1642 0196 03EB8010 		add	r0, r3, r0, lsl #6
 1643 019a FFF7FEFF 		bl	HAL_TIMEx_MasterConfigSynchronization
 1644              	.LVL166:
 990:/home/phong/Documents/thesis/stm32f4/stm-idf/components/driver/timer.c **** 
 1645              		.loc 1 990 0
 1646 019e 58BB     		cbnz	r0, .L122
 992:/home/phong/Documents/thesis/stm32f4/stm-idf/components/driver/timer.c **** }
 1647              		.loc 1 992 0
 1648 01a0 0020     		movs	r0, #0
ARM GAS  /tmp/cc6XjLyw.s 			page 49


 1649              	.LVL167:
 1650 01a2 78E7     		b	.L104
 1651              	.LVL168:
 1652              	.L120:
 974:/home/phong/Documents/thesis/stm32f4/stm-idf/components/driver/timer.c **** 
 1653              		.loc 1 974 0 discriminator 4
 1654 01a4 FFF7FEFF 		bl	stm_log_timestamp
 1655              	.LVL169:
 1656 01a8 1E49     		ldr	r1, .L123
 1657 01aa 1F4B     		ldr	r3, .L123+4
 1658 01ac 0493     		str	r3, [sp, #16]
 1659 01ae 1F4B     		ldr	r3, .L123+8
 1660 01b0 0393     		str	r3, [sp, #12]
 1661 01b2 40F2CE33 		movw	r3, #974
 1662 01b6 0293     		str	r3, [sp, #8]
 1663 01b8 1D4B     		ldr	r3, .L123+12
 1664 01ba 0193     		str	r3, [sp, #4]
 1665 01bc 0091     		str	r1, [sp]
 1666 01be 0346     		mov	r3, r0
 1667 01c0 1C4A     		ldr	r2, .L123+16
 1668 01c2 0120     		movs	r0, #1
 1669 01c4 FFF7FEFF 		bl	stm_log_write
 1670              	.LVL170:
 1671 01c8 4FF0FF30 		mov	r0, #-1
 1672 01cc 63E7     		b	.L104
 1673              	.LVL171:
 1674              	.L121:
 983:/home/phong/Documents/thesis/stm32f4/stm-idf/components/driver/timer.c **** 
 1675              		.loc 1 983 0 discriminator 4
 1676 01ce FFF7FEFF 		bl	stm_log_timestamp
 1677              	.LVL172:
 1678 01d2 1449     		ldr	r1, .L123
 1679 01d4 144B     		ldr	r3, .L123+4
 1680 01d6 0493     		str	r3, [sp, #16]
 1681 01d8 144B     		ldr	r3, .L123+8
 1682 01da 0393     		str	r3, [sp, #12]
 1683 01dc 40F2D733 		movw	r3, #983
 1684 01e0 0293     		str	r3, [sp, #8]
 1685 01e2 134B     		ldr	r3, .L123+12
 1686 01e4 0193     		str	r3, [sp, #4]
 1687 01e6 0091     		str	r1, [sp]
 1688 01e8 0346     		mov	r3, r0
 1689 01ea 124A     		ldr	r2, .L123+16
 1690 01ec 0120     		movs	r0, #1
 1691 01ee FFF7FEFF 		bl	stm_log_write
 1692              	.LVL173:
 1693 01f2 4FF0FF30 		mov	r0, #-1
 1694 01f6 4EE7     		b	.L104
 1695              	.LVL174:
 1696              	.L122:
 990:/home/phong/Documents/thesis/stm32f4/stm-idf/components/driver/timer.c **** 
 1697              		.loc 1 990 0 discriminator 4
 1698 01f8 FFF7FEFF 		bl	stm_log_timestamp
 1699              	.LVL175:
 1700 01fc 0949     		ldr	r1, .L123
 1701 01fe 0A4B     		ldr	r3, .L123+4
 1702 0200 0493     		str	r3, [sp, #16]
ARM GAS  /tmp/cc6XjLyw.s 			page 50


 1703 0202 0A4B     		ldr	r3, .L123+8
 1704 0204 0393     		str	r3, [sp, #12]
 1705 0206 40F2DE33 		movw	r3, #990
 1706 020a 0293     		str	r3, [sp, #8]
 1707 020c 084B     		ldr	r3, .L123+12
 1708 020e 0193     		str	r3, [sp, #4]
 1709 0210 0091     		str	r1, [sp]
 1710 0212 0346     		mov	r3, r0
 1711 0214 074A     		ldr	r2, .L123+16
 1712 0216 0120     		movs	r0, #1
 1713 0218 FFF7FEFF 		bl	stm_log_write
 1714              	.LVL176:
 1715 021c 4FF0FF30 		mov	r0, #-1
 1716 0220 39E7     		b	.L104
 1717              	.L124:
 1718 0222 00BF     		.align	2
 1719              	.L123:
 1720 0224 28000000 		.word	.LC1
 1721 0228 00000000 		.word	.LC9
 1722 022c 00000000 		.word	.LANCHOR11
 1723 0230 48000000 		.word	.LC3
 1724 0234 00000000 		.word	.LC0
 1725 0238 00380240 		.word	1073887232
 1726 023c 00000000 		.word	.LANCHOR3
 1727 0240 00000000 		.word	.LANCHOR12
 1728              		.cfi_endproc
 1729              	.LFE141:
 1731              		.section	.text.etr_start,"ax",%progbits
 1732              		.align	1
 1733              		.global	etr_start
 1734              		.syntax unified
 1735              		.thumb
 1736              		.thumb_func
 1737              		.fpu fpv4-sp-d16
 1739              	etr_start:
 1740              	.LFB142:
 994:/home/phong/Documents/thesis/stm32f4/stm-idf/components/driver/timer.c **** 
 995:/home/phong/Documents/thesis/stm32f4/stm-idf/components/driver/timer.c **** stm_err_t etr_start(timer_num_t timer_num)
 996:/home/phong/Documents/thesis/stm32f4/stm-idf/components/driver/timer.c **** {
 1741              		.loc 1 996 0
 1742              		.cfi_startproc
 1743              		@ args = 0, pretend = 0, frame = 0
 1744              		@ frame_needed = 0, uses_anonymous_args = 0
 1745              	.LVL177:
 1746 0000 00B5     		push	{lr}
 1747              	.LCFI32:
 1748              		.cfi_def_cfa_offset 4
 1749              		.cfi_offset 14, -4
 1750 0002 87B0     		sub	sp, sp, #28
 1751              	.LCFI33:
 1752              		.cfi_def_cfa_offset 32
 997:/home/phong/Documents/thesis/stm32f4/stm-idf/components/driver/timer.c ****     TIMER_CHECK(timer_num < TIMER_NUM_MAX, ETR_START_ERR_STR, STM_ERR_INVALID_ARG);
 1753              		.loc 1 997 0
 1754 0004 0D28     		cmp	r0, #13
 1755 0006 16D9     		bls	.L126
 1756              		.loc 1 997 0 is_stmt 0 discriminator 4
 1757 0008 FFF7FEFF 		bl	stm_log_timestamp
ARM GAS  /tmp/cc6XjLyw.s 			page 51


 1758              	.LVL178:
 1759 000c 0D49     		ldr	r1, .L129
 1760 000e 0E4B     		ldr	r3, .L129+4
 1761 0010 0493     		str	r3, [sp, #16]
 1762 0012 0E4B     		ldr	r3, .L129+8
 1763 0014 0393     		str	r3, [sp, #12]
 1764 0016 40F2E533 		movw	r3, #997
 1765 001a 0293     		str	r3, [sp, #8]
 1766 001c 0C4B     		ldr	r3, .L129+12
 1767 001e 0193     		str	r3, [sp, #4]
 1768 0020 0091     		str	r1, [sp]
 1769 0022 0346     		mov	r3, r0
 1770 0024 0B4A     		ldr	r2, .L129+16
 1771 0026 0120     		movs	r0, #1
 1772 0028 FFF7FEFF 		bl	stm_log_write
 1773              	.LVL179:
 1774 002c 4FF48170 		mov	r0, #258
 1775              	.L125:
 998:/home/phong/Documents/thesis/stm32f4/stm-idf/components/driver/timer.c **** 
 999:/home/phong/Documents/thesis/stm32f4/stm-idf/components/driver/timer.c ****     /* Start timer base */
1000:/home/phong/Documents/thesis/stm32f4/stm-idf/components/driver/timer.c ****     HAL_TIM_Base_Start(&timer_handle[timer_num]);
1001:/home/phong/Documents/thesis/stm32f4/stm-idf/components/driver/timer.c ****     return STM_OK;
1002:/home/phong/Documents/thesis/stm32f4/stm-idf/components/driver/timer.c **** }
 1776              		.loc 1 1002 0 is_stmt 1
 1777 0030 07B0     		add	sp, sp, #28
 1778              	.LCFI34:
 1779              		.cfi_remember_state
 1780              		.cfi_def_cfa_offset 4
 1781              		@ sp needed
 1782 0032 5DF804FB 		ldr	pc, [sp], #4
 1783              	.LVL180:
 1784              	.L126:
 1785              	.LCFI35:
 1786              		.cfi_restore_state
1000:/home/phong/Documents/thesis/stm32f4/stm-idf/components/driver/timer.c ****     return STM_OK;
 1787              		.loc 1 1000 0
 1788 0036 084B     		ldr	r3, .L129+20
 1789 0038 03EB8010 		add	r0, r3, r0, lsl #6
 1790              	.LVL181:
 1791 003c FFF7FEFF 		bl	HAL_TIM_Base_Start
 1792              	.LVL182:
1001:/home/phong/Documents/thesis/stm32f4/stm-idf/components/driver/timer.c **** }
 1793              		.loc 1 1001 0
 1794 0040 0020     		movs	r0, #0
 1795 0042 F5E7     		b	.L125
 1796              	.L130:
 1797              		.align	2
 1798              	.L129:
 1799 0044 28000000 		.word	.LC1
 1800 0048 00000000 		.word	.LC10
 1801 004c 00000000 		.word	.LANCHOR13
 1802 0050 48000000 		.word	.LC3
 1803 0054 00000000 		.word	.LC0
 1804 0058 00000000 		.word	.LANCHOR3
 1805              		.cfi_endproc
 1806              	.LFE142:
 1808              		.section	.text.etr_stop,"ax",%progbits
ARM GAS  /tmp/cc6XjLyw.s 			page 52


 1809              		.align	1
 1810              		.global	etr_stop
 1811              		.syntax unified
 1812              		.thumb
 1813              		.thumb_func
 1814              		.fpu fpv4-sp-d16
 1816              	etr_stop:
 1817              	.LFB143:
1003:/home/phong/Documents/thesis/stm32f4/stm-idf/components/driver/timer.c **** 
1004:/home/phong/Documents/thesis/stm32f4/stm-idf/components/driver/timer.c **** stm_err_t etr_stop(timer_num_t timer_num)
1005:/home/phong/Documents/thesis/stm32f4/stm-idf/components/driver/timer.c **** {
 1818              		.loc 1 1005 0
 1819              		.cfi_startproc
 1820              		@ args = 0, pretend = 0, frame = 0
 1821              		@ frame_needed = 0, uses_anonymous_args = 0
 1822              	.LVL183:
 1823 0000 00B5     		push	{lr}
 1824              	.LCFI36:
 1825              		.cfi_def_cfa_offset 4
 1826              		.cfi_offset 14, -4
 1827 0002 87B0     		sub	sp, sp, #28
 1828              	.LCFI37:
 1829              		.cfi_def_cfa_offset 32
1006:/home/phong/Documents/thesis/stm32f4/stm-idf/components/driver/timer.c ****     TIMER_CHECK(timer_num < TIMER_NUM_MAX, ETR_STOP_ERR_STR, STM_ERR_INVALID_ARG);
 1830              		.loc 1 1006 0
 1831 0004 0D28     		cmp	r0, #13
 1832 0006 16D9     		bls	.L132
 1833              		.loc 1 1006 0 is_stmt 0 discriminator 4
 1834 0008 FFF7FEFF 		bl	stm_log_timestamp
 1835              	.LVL184:
 1836 000c 0D49     		ldr	r1, .L135
 1837 000e 0E4B     		ldr	r3, .L135+4
 1838 0010 0493     		str	r3, [sp, #16]
 1839 0012 0E4B     		ldr	r3, .L135+8
 1840 0014 0393     		str	r3, [sp, #12]
 1841 0016 40F2EE33 		movw	r3, #1006
 1842 001a 0293     		str	r3, [sp, #8]
 1843 001c 0C4B     		ldr	r3, .L135+12
 1844 001e 0193     		str	r3, [sp, #4]
 1845 0020 0091     		str	r1, [sp]
 1846 0022 0346     		mov	r3, r0
 1847 0024 0B4A     		ldr	r2, .L135+16
 1848 0026 0120     		movs	r0, #1
 1849 0028 FFF7FEFF 		bl	stm_log_write
 1850              	.LVL185:
 1851 002c 4FF48170 		mov	r0, #258
 1852              	.L131:
1007:/home/phong/Documents/thesis/stm32f4/stm-idf/components/driver/timer.c **** 
1008:/home/phong/Documents/thesis/stm32f4/stm-idf/components/driver/timer.c ****     /* Stop time base */
1009:/home/phong/Documents/thesis/stm32f4/stm-idf/components/driver/timer.c ****     HAL_TIM_Base_Stop(&timer_handle[timer_num]);
1010:/home/phong/Documents/thesis/stm32f4/stm-idf/components/driver/timer.c ****     return STM_OK;
1011:/home/phong/Documents/thesis/stm32f4/stm-idf/components/driver/timer.c **** }
 1853              		.loc 1 1011 0 is_stmt 1
 1854 0030 07B0     		add	sp, sp, #28
 1855              	.LCFI38:
 1856              		.cfi_remember_state
 1857              		.cfi_def_cfa_offset 4
ARM GAS  /tmp/cc6XjLyw.s 			page 53


 1858              		@ sp needed
 1859 0032 5DF804FB 		ldr	pc, [sp], #4
 1860              	.LVL186:
 1861              	.L132:
 1862              	.LCFI39:
 1863              		.cfi_restore_state
1009:/home/phong/Documents/thesis/stm32f4/stm-idf/components/driver/timer.c ****     return STM_OK;
 1864              		.loc 1 1009 0
 1865 0036 084B     		ldr	r3, .L135+20
 1866 0038 03EB8010 		add	r0, r3, r0, lsl #6
 1867              	.LVL187:
 1868 003c FFF7FEFF 		bl	HAL_TIM_Base_Stop
 1869              	.LVL188:
1010:/home/phong/Documents/thesis/stm32f4/stm-idf/components/driver/timer.c **** }
 1870              		.loc 1 1010 0
 1871 0040 0020     		movs	r0, #0
 1872 0042 F5E7     		b	.L131
 1873              	.L136:
 1874              		.align	2
 1875              	.L135:
 1876 0044 28000000 		.word	.LC1
 1877 0048 00000000 		.word	.LC11
 1878 004c 00000000 		.word	.LANCHOR14
 1879 0050 48000000 		.word	.LC3
 1880 0054 00000000 		.word	.LC0
 1881 0058 00000000 		.word	.LANCHOR3
 1882              		.cfi_endproc
 1883              	.LFE143:
 1885              		.section	.text.etr_get_value,"ax",%progbits
 1886              		.align	1
 1887              		.global	etr_get_value
 1888              		.syntax unified
 1889              		.thumb
 1890              		.thumb_func
 1891              		.fpu fpv4-sp-d16
 1893              	etr_get_value:
 1894              	.LFB144:
1012:/home/phong/Documents/thesis/stm32f4/stm-idf/components/driver/timer.c **** 
1013:/home/phong/Documents/thesis/stm32f4/stm-idf/components/driver/timer.c **** stm_err_t etr_get_value(timer_num_t timer_num, uint32_t *value)
1014:/home/phong/Documents/thesis/stm32f4/stm-idf/components/driver/timer.c **** {
 1895              		.loc 1 1014 0
 1896              		.cfi_startproc
 1897              		@ args = 0, pretend = 0, frame = 0
 1898              		@ frame_needed = 0, uses_anonymous_args = 0
 1899              	.LVL189:
1015:/home/phong/Documents/thesis/stm32f4/stm-idf/components/driver/timer.c ****     TIMER_CHECK(timer_num < TIMER_NUM_MAX, ETR_GET_VALUE_ERR_STR, STM_ERR_INVALID_ARG);
 1900              		.loc 1 1015 0
 1901 0000 0D28     		cmp	r0, #13
 1902 0002 06D8     		bhi	.L144
1016:/home/phong/Documents/thesis/stm32f4/stm-idf/components/driver/timer.c **** 
1017:/home/phong/Documents/thesis/stm32f4/stm-idf/components/driver/timer.c ****     /* Get counter value */
1018:/home/phong/Documents/thesis/stm32f4/stm-idf/components/driver/timer.c ****     *value = __HAL_TIM_GET_COUNTER(&timer_handle[timer_num]);
 1903              		.loc 1 1018 0
 1904 0004 8001     		lsls	r0, r0, #6
 1905              	.LVL190:
 1906 0006 0F4B     		ldr	r3, .L145
 1907 0008 1B58     		ldr	r3, [r3, r0]
ARM GAS  /tmp/cc6XjLyw.s 			page 54


 1908 000a 5B6A     		ldr	r3, [r3, #36]
 1909 000c 0B60     		str	r3, [r1]
1019:/home/phong/Documents/thesis/stm32f4/stm-idf/components/driver/timer.c ****     return STM_OK;
 1910              		.loc 1 1019 0
 1911 000e 0020     		movs	r0, #0
 1912 0010 7047     		bx	lr
 1913              	.LVL191:
 1914              	.L144:
1014:/home/phong/Documents/thesis/stm32f4/stm-idf/components/driver/timer.c ****     TIMER_CHECK(timer_num < TIMER_NUM_MAX, ETR_GET_VALUE_ERR_STR, STM_ERR_INVALID_ARG);
 1915              		.loc 1 1014 0 discriminator 4
 1916 0012 00B5     		push	{lr}
 1917              	.LCFI40:
 1918              		.cfi_def_cfa_offset 4
 1919              		.cfi_offset 14, -4
 1920 0014 87B0     		sub	sp, sp, #28
 1921              	.LCFI41:
 1922              		.cfi_def_cfa_offset 32
1015:/home/phong/Documents/thesis/stm32f4/stm-idf/components/driver/timer.c **** 
 1923              		.loc 1 1015 0 discriminator 4
 1924 0016 FFF7FEFF 		bl	stm_log_timestamp
 1925              	.LVL192:
 1926 001a 0B49     		ldr	r1, .L145+4
 1927 001c 0B4B     		ldr	r3, .L145+8
 1928 001e 0493     		str	r3, [sp, #16]
 1929 0020 0B4B     		ldr	r3, .L145+12
 1930 0022 0393     		str	r3, [sp, #12]
 1931 0024 40F2F733 		movw	r3, #1015
 1932 0028 0293     		str	r3, [sp, #8]
 1933 002a 0A4B     		ldr	r3, .L145+16
 1934 002c 0193     		str	r3, [sp, #4]
 1935 002e 0091     		str	r1, [sp]
 1936 0030 0346     		mov	r3, r0
 1937 0032 094A     		ldr	r2, .L145+20
 1938 0034 0120     		movs	r0, #1
 1939 0036 FFF7FEFF 		bl	stm_log_write
 1940              	.LVL193:
 1941 003a 4FF48170 		mov	r0, #258
1020:/home/phong/Documents/thesis/stm32f4/stm-idf/components/driver/timer.c **** }
 1942              		.loc 1 1020 0 discriminator 4
 1943 003e 07B0     		add	sp, sp, #28
 1944              	.LCFI42:
 1945              		.cfi_def_cfa_offset 4
 1946              		@ sp needed
 1947 0040 5DF804FB 		ldr	pc, [sp], #4
 1948              	.L146:
 1949              		.align	2
 1950              	.L145:
 1951 0044 00000000 		.word	.LANCHOR3
 1952 0048 28000000 		.word	.LC1
 1953 004c 00000000 		.word	.LC12
 1954 0050 00000000 		.word	.LANCHOR15
 1955 0054 48000000 		.word	.LC3
 1956 0058 00000000 		.word	.LC0
 1957              		.cfi_endproc
 1958              	.LFE144:
 1960              		.section	.text.etr_set_value,"ax",%progbits
 1961              		.align	1
ARM GAS  /tmp/cc6XjLyw.s 			page 55


 1962              		.global	etr_set_value
 1963              		.syntax unified
 1964              		.thumb
 1965              		.thumb_func
 1966              		.fpu fpv4-sp-d16
 1968              	etr_set_value:
 1969              	.LFB145:
1021:/home/phong/Documents/thesis/stm32f4/stm-idf/components/driver/timer.c **** 
1022:/home/phong/Documents/thesis/stm32f4/stm-idf/components/driver/timer.c **** stm_err_t etr_set_value(timer_num_t timer_num, uint32_t value)
1023:/home/phong/Documents/thesis/stm32f4/stm-idf/components/driver/timer.c **** {
 1970              		.loc 1 1023 0
 1971              		.cfi_startproc
 1972              		@ args = 0, pretend = 0, frame = 0
 1973              		@ frame_needed = 0, uses_anonymous_args = 0
 1974              	.LVL194:
1024:/home/phong/Documents/thesis/stm32f4/stm-idf/components/driver/timer.c ****     TIMER_CHECK(timer_num < TIMER_NUM_MAX, ETR_SET_VALUE_ERR_STR, STM_ERR_INVALID_ARG);
 1975              		.loc 1 1024 0
 1976 0000 0D28     		cmp	r0, #13
 1977 0002 05D8     		bhi	.L154
1025:/home/phong/Documents/thesis/stm32f4/stm-idf/components/driver/timer.c **** 
1026:/home/phong/Documents/thesis/stm32f4/stm-idf/components/driver/timer.c ****     /* Set counter value */
1027:/home/phong/Documents/thesis/stm32f4/stm-idf/components/driver/timer.c ****     __HAL_TIM_SET_COUNTER(&timer_handle[timer_num], value);
 1978              		.loc 1 1027 0
 1979 0004 8001     		lsls	r0, r0, #6
 1980              	.LVL195:
 1981 0006 0F4B     		ldr	r3, .L155
 1982 0008 1B58     		ldr	r3, [r3, r0]
 1983 000a 5962     		str	r1, [r3, #36]
1028:/home/phong/Documents/thesis/stm32f4/stm-idf/components/driver/timer.c ****     return STM_OK;
 1984              		.loc 1 1028 0
 1985 000c 0020     		movs	r0, #0
 1986 000e 7047     		bx	lr
 1987              	.LVL196:
 1988              	.L154:
1023:/home/phong/Documents/thesis/stm32f4/stm-idf/components/driver/timer.c ****     TIMER_CHECK(timer_num < TIMER_NUM_MAX, ETR_SET_VALUE_ERR_STR, STM_ERR_INVALID_ARG);
 1989              		.loc 1 1023 0 discriminator 4
 1990 0010 00B5     		push	{lr}
 1991              	.LCFI43:
 1992              		.cfi_def_cfa_offset 4
 1993              		.cfi_offset 14, -4
 1994 0012 87B0     		sub	sp, sp, #28
 1995              	.LCFI44:
 1996              		.cfi_def_cfa_offset 32
1024:/home/phong/Documents/thesis/stm32f4/stm-idf/components/driver/timer.c **** 
 1997              		.loc 1 1024 0 discriminator 4
 1998 0014 FFF7FEFF 		bl	stm_log_timestamp
 1999              	.LVL197:
 2000 0018 0B49     		ldr	r1, .L155+4
 2001 001a 0C4B     		ldr	r3, .L155+8
 2002 001c 0493     		str	r3, [sp, #16]
 2003 001e 0C4B     		ldr	r3, .L155+12
 2004 0020 0393     		str	r3, [sp, #12]
 2005 0022 4FF48063 		mov	r3, #1024
 2006 0026 0293     		str	r3, [sp, #8]
 2007 0028 0A4B     		ldr	r3, .L155+16
 2008 002a 0193     		str	r3, [sp, #4]
 2009 002c 0091     		str	r1, [sp]
ARM GAS  /tmp/cc6XjLyw.s 			page 56


 2010 002e 0346     		mov	r3, r0
 2011 0030 094A     		ldr	r2, .L155+20
 2012 0032 0120     		movs	r0, #1
 2013 0034 FFF7FEFF 		bl	stm_log_write
 2014              	.LVL198:
 2015 0038 4FF48170 		mov	r0, #258
1029:/home/phong/Documents/thesis/stm32f4/stm-idf/components/driver/timer.c **** }
 2016              		.loc 1 1029 0 discriminator 4
 2017 003c 07B0     		add	sp, sp, #28
 2018              	.LCFI45:
 2019              		.cfi_def_cfa_offset 4
 2020              		@ sp needed
 2021 003e 5DF804FB 		ldr	pc, [sp], #4
 2022              	.L156:
 2023 0042 00BF     		.align	2
 2024              	.L155:
 2025 0044 00000000 		.word	.LANCHOR3
 2026 0048 28000000 		.word	.LC1
 2027 004c 00000000 		.word	.LC13
 2028 0050 00000000 		.word	.LANCHOR16
 2029 0054 48000000 		.word	.LC3
 2030 0058 00000000 		.word	.LC0
 2031              		.cfi_endproc
 2032              	.LFE145:
 2034              		.section	.text.etr_set_mode,"ax",%progbits
 2035              		.align	1
 2036              		.global	etr_set_mode
 2037              		.syntax unified
 2038              		.thumb
 2039              		.thumb_func
 2040              		.fpu fpv4-sp-d16
 2042              	etr_set_mode:
 2043              	.LFB146:
1030:/home/phong/Documents/thesis/stm32f4/stm-idf/components/driver/timer.c **** 
1031:/home/phong/Documents/thesis/stm32f4/stm-idf/components/driver/timer.c **** stm_err_t etr_set_mode(timer_num_t timer_num, timer_counter_mode_t counter_mode)
1032:/home/phong/Documents/thesis/stm32f4/stm-idf/components/driver/timer.c **** {
 2044              		.loc 1 1032 0
 2045              		.cfi_startproc
 2046              		@ args = 0, pretend = 0, frame = 0
 2047              		@ frame_needed = 0, uses_anonymous_args = 0
 2048              	.LVL199:
 2049 0000 30B5     		push	{r4, r5, lr}
 2050              	.LCFI46:
 2051              		.cfi_def_cfa_offset 12
 2052              		.cfi_offset 4, -12
 2053              		.cfi_offset 5, -8
 2054              		.cfi_offset 14, -4
 2055 0002 87B0     		sub	sp, sp, #28
 2056              	.LCFI47:
 2057              		.cfi_def_cfa_offset 40
1033:/home/phong/Documents/thesis/stm32f4/stm-idf/components/driver/timer.c ****     TIMER_CHECK(timer_num < TIMER_NUM_MAX, ETR_SET_MODE_ERR_STR, STM_ERR_INVALID_ARG);
 2058              		.loc 1 1033 0
 2059 0004 0D28     		cmp	r0, #13
 2060 0006 18D8     		bhi	.L163
 2061 0008 0446     		mov	r4, r0
1034:/home/phong/Documents/thesis/stm32f4/stm-idf/components/driver/timer.c ****     TIMER_CHECK(counter_mode < TIMER_COUNTER_MODE_MAX, ETR_SET_MODE_ERR_STR, STM_ERR_INVALID_ARG);
 2062              		.loc 1 1034 0
ARM GAS  /tmp/cc6XjLyw.s 			page 57


 2063 000a 0129     		cmp	r1, #1
 2064 000c 2AD9     		bls	.L160
 2065              		.loc 1 1034 0 is_stmt 0 discriminator 4
 2066 000e FFF7FEFF 		bl	stm_log_timestamp
 2067              	.LVL200:
 2068 0012 2C49     		ldr	r1, .L165
 2069 0014 2C4B     		ldr	r3, .L165+4
 2070 0016 0493     		str	r3, [sp, #16]
 2071 0018 2C4B     		ldr	r3, .L165+8
 2072 001a 0393     		str	r3, [sp, #12]
 2073 001c 40F20A43 		movw	r3, #1034
 2074 0020 0293     		str	r3, [sp, #8]
 2075 0022 2B4B     		ldr	r3, .L165+12
 2076 0024 0193     		str	r3, [sp, #4]
 2077 0026 0091     		str	r1, [sp]
 2078 0028 0346     		mov	r3, r0
 2079 002a 2A4A     		ldr	r2, .L165+16
 2080 002c 0120     		movs	r0, #1
 2081 002e FFF7FEFF 		bl	stm_log_write
 2082              	.LVL201:
 2083 0032 4FF48170 		mov	r0, #258
 2084              	.L157:
1035:/home/phong/Documents/thesis/stm32f4/stm-idf/components/driver/timer.c **** 
1036:/home/phong/Documents/thesis/stm32f4/stm-idf/components/driver/timer.c ****     /* Reconfigure timer init parameters */
1037:/home/phong/Documents/thesis/stm32f4/stm-idf/components/driver/timer.c ****     timer_handle[timer_num].Instance                 = TIM_MAPPING[timer_num];
1038:/home/phong/Documents/thesis/stm32f4/stm-idf/components/driver/timer.c ****     timer_handle[timer_num].Init.Prescaler           = EXT_CNT_PRES_DEFAULT;
1039:/home/phong/Documents/thesis/stm32f4/stm-idf/components/driver/timer.c ****     timer_handle[timer_num].Init.CounterMode         = TIMER_COUNTER_MODE_MAPPING[counter_mode];
1040:/home/phong/Documents/thesis/stm32f4/stm-idf/components/driver/timer.c ****     timer_handle[timer_num].Init.Period              = __HAL_TIM_GET_AUTORELOAD(&timer_handle[timer
1041:/home/phong/Documents/thesis/stm32f4/stm-idf/components/driver/timer.c ****     timer_handle[timer_num].Init.ClockDivision       = PWM_TIM_CLOCK_DIV_DEFAULT;
1042:/home/phong/Documents/thesis/stm32f4/stm-idf/components/driver/timer.c ****     timer_handle[timer_num].Init.AutoReloadPreload   = TIM_AUTORELOAD_PRELOAD_DISABLE;
1043:/home/phong/Documents/thesis/stm32f4/stm-idf/components/driver/timer.c **** 
1044:/home/phong/Documents/thesis/stm32f4/stm-idf/components/driver/timer.c ****     /* Keep last counter value */
1045:/home/phong/Documents/thesis/stm32f4/stm-idf/components/driver/timer.c ****     uint32_t last_counter_val = __HAL_TIM_GET_COUNTER(&timer_handle[timer_num]);
1046:/home/phong/Documents/thesis/stm32f4/stm-idf/components/driver/timer.c **** 
1047:/home/phong/Documents/thesis/stm32f4/stm-idf/components/driver/timer.c ****     /* Set timer counter mode */
1048:/home/phong/Documents/thesis/stm32f4/stm-idf/components/driver/timer.c ****     int ret = HAL_TIM_Base_Init(&timer_handle[timer_num]);
1049:/home/phong/Documents/thesis/stm32f4/stm-idf/components/driver/timer.c ****     TIMER_CHECK(!ret, ETR_SET_MODE_ERR_STR, STM_FAIL);
1050:/home/phong/Documents/thesis/stm32f4/stm-idf/components/driver/timer.c **** 
1051:/home/phong/Documents/thesis/stm32f4/stm-idf/components/driver/timer.c ****     /* Set timer last counter value */
1052:/home/phong/Documents/thesis/stm32f4/stm-idf/components/driver/timer.c ****     __HAL_TIM_SET_COUNTER(&timer_handle[timer_num], last_counter_val);
1053:/home/phong/Documents/thesis/stm32f4/stm-idf/components/driver/timer.c **** 
1054:/home/phong/Documents/thesis/stm32f4/stm-idf/components/driver/timer.c ****     return STM_OK;
1055:/home/phong/Documents/thesis/stm32f4/stm-idf/components/driver/timer.c **** }
 2085              		.loc 1 1055 0 is_stmt 1
 2086 0036 07B0     		add	sp, sp, #28
 2087              	.LCFI48:
 2088              		.cfi_remember_state
 2089              		.cfi_def_cfa_offset 12
 2090              		@ sp needed
 2091 0038 30BD     		pop	{r4, r5, pc}
 2092              	.LVL202:
 2093              	.L163:
 2094              	.LCFI49:
 2095              		.cfi_restore_state
1033:/home/phong/Documents/thesis/stm32f4/stm-idf/components/driver/timer.c ****     TIMER_CHECK(counter_mode < TIMER_COUNTER_MODE_MAX, ETR_SET_MODE_ERR_STR, STM_ERR_INVALID_ARG);
 2096              		.loc 1 1033 0 discriminator 4
 2097 003a FFF7FEFF 		bl	stm_log_timestamp
ARM GAS  /tmp/cc6XjLyw.s 			page 58


 2098              	.LVL203:
 2099 003e 2149     		ldr	r1, .L165
 2100 0040 214B     		ldr	r3, .L165+4
 2101 0042 0493     		str	r3, [sp, #16]
 2102 0044 214B     		ldr	r3, .L165+8
 2103 0046 0393     		str	r3, [sp, #12]
 2104 0048 40F20943 		movw	r3, #1033
 2105 004c 0293     		str	r3, [sp, #8]
 2106 004e 204B     		ldr	r3, .L165+12
 2107 0050 0193     		str	r3, [sp, #4]
 2108 0052 0091     		str	r1, [sp]
 2109 0054 0346     		mov	r3, r0
 2110 0056 1F4A     		ldr	r2, .L165+16
 2111 0058 0120     		movs	r0, #1
 2112 005a FFF7FEFF 		bl	stm_log_write
 2113              	.LVL204:
 2114 005e 4FF48170 		mov	r0, #258
 2115 0062 E8E7     		b	.L157
 2116              	.LVL205:
 2117              	.L160:
1037:/home/phong/Documents/thesis/stm32f4/stm-idf/components/driver/timer.c ****     timer_handle[timer_num].Init.Prescaler           = EXT_CNT_PRES_DEFAULT;
 2118              		.loc 1 1037 0
 2119 0064 1C4B     		ldr	r3, .L165+20
 2120 0066 53F82030 		ldr	r3, [r3, r0, lsl #2]
 2121 006a 1C4D     		ldr	r5, .L165+24
 2122 006c 8201     		lsls	r2, r0, #6
 2123 006e A818     		adds	r0, r5, r2
 2124              	.LVL206:
 2125 0070 AB50     		str	r3, [r5, r2]
1038:/home/phong/Documents/thesis/stm32f4/stm-idf/components/driver/timer.c ****     timer_handle[timer_num].Init.CounterMode         = TIMER_COUNTER_MODE_MAPPING[counter_mode];
 2126              		.loc 1 1038 0
 2127 0072 0022     		movs	r2, #0
 2128 0074 4260     		str	r2, [r0, #4]
1039:/home/phong/Documents/thesis/stm32f4/stm-idf/components/driver/timer.c ****     timer_handle[timer_num].Init.Period              = __HAL_TIM_GET_AUTORELOAD(&timer_handle[timer
 2129              		.loc 1 1039 0
 2130 0076 1A4D     		ldr	r5, .L165+28
 2131 0078 55F82110 		ldr	r1, [r5, r1, lsl #2]
 2132              	.LVL207:
 2133 007c 8160     		str	r1, [r0, #8]
1040:/home/phong/Documents/thesis/stm32f4/stm-idf/components/driver/timer.c ****     timer_handle[timer_num].Init.ClockDivision       = PWM_TIM_CLOCK_DIV_DEFAULT;
 2134              		.loc 1 1040 0
 2135 007e D96A     		ldr	r1, [r3, #44]
 2136 0080 C160     		str	r1, [r0, #12]
1041:/home/phong/Documents/thesis/stm32f4/stm-idf/components/driver/timer.c ****     timer_handle[timer_num].Init.AutoReloadPreload   = TIM_AUTORELOAD_PRELOAD_DISABLE;
 2137              		.loc 1 1041 0
 2138 0082 0261     		str	r2, [r0, #16]
1042:/home/phong/Documents/thesis/stm32f4/stm-idf/components/driver/timer.c **** 
 2139              		.loc 1 1042 0
 2140 0084 8261     		str	r2, [r0, #24]
1045:/home/phong/Documents/thesis/stm32f4/stm-idf/components/driver/timer.c **** 
 2141              		.loc 1 1045 0
 2142 0086 5D6A     		ldr	r5, [r3, #36]
 2143              	.LVL208:
1048:/home/phong/Documents/thesis/stm32f4/stm-idf/components/driver/timer.c ****     TIMER_CHECK(!ret, ETR_SET_MODE_ERR_STR, STM_FAIL);
 2144              		.loc 1 1048 0
 2145 0088 FFF7FEFF 		bl	HAL_TIM_Base_Init
 2146              	.LVL209:
ARM GAS  /tmp/cc6XjLyw.s 			page 59


1049:/home/phong/Documents/thesis/stm32f4/stm-idf/components/driver/timer.c **** 
 2147              		.loc 1 1049 0
 2148 008c 28B9     		cbnz	r0, .L164
1052:/home/phong/Documents/thesis/stm32f4/stm-idf/components/driver/timer.c **** 
 2149              		.loc 1 1052 0
 2150 008e A401     		lsls	r4, r4, #6
 2151 0090 124B     		ldr	r3, .L165+24
 2152 0092 1B59     		ldr	r3, [r3, r4]
 2153 0094 5D62     		str	r5, [r3, #36]
1054:/home/phong/Documents/thesis/stm32f4/stm-idf/components/driver/timer.c **** }
 2154              		.loc 1 1054 0
 2155 0096 0020     		movs	r0, #0
 2156              	.LVL210:
 2157 0098 CDE7     		b	.L157
 2158              	.LVL211:
 2159              	.L164:
1049:/home/phong/Documents/thesis/stm32f4/stm-idf/components/driver/timer.c **** 
 2160              		.loc 1 1049 0 discriminator 4
 2161 009a FFF7FEFF 		bl	stm_log_timestamp
 2162              	.LVL212:
 2163 009e 0949     		ldr	r1, .L165
 2164 00a0 094B     		ldr	r3, .L165+4
 2165 00a2 0493     		str	r3, [sp, #16]
 2166 00a4 094B     		ldr	r3, .L165+8
 2167 00a6 0393     		str	r3, [sp, #12]
 2168 00a8 40F21943 		movw	r3, #1049
 2169 00ac 0293     		str	r3, [sp, #8]
 2170 00ae 084B     		ldr	r3, .L165+12
 2171 00b0 0193     		str	r3, [sp, #4]
 2172 00b2 0091     		str	r1, [sp]
 2173 00b4 0346     		mov	r3, r0
 2174 00b6 074A     		ldr	r2, .L165+16
 2175 00b8 0120     		movs	r0, #1
 2176 00ba FFF7FEFF 		bl	stm_log_write
 2177              	.LVL213:
 2178 00be 4FF0FF30 		mov	r0, #-1
 2179 00c2 B8E7     		b	.L157
 2180              	.L166:
 2181              		.align	2
 2182              	.L165:
 2183 00c4 28000000 		.word	.LC1
 2184 00c8 00000000 		.word	.LC14
 2185 00cc 00000000 		.word	.LANCHOR17
 2186 00d0 48000000 		.word	.LC3
 2187 00d4 00000000 		.word	.LC0
 2188 00d8 00000000 		.word	.LANCHOR18
 2189 00dc 00000000 		.word	.LANCHOR3
 2190 00e0 00000000 		.word	.LANCHOR12
 2191              		.cfi_endproc
 2192              	.LFE146:
 2194              		.global	TIM_ETR_HW_INFO_MAPPING
 2195              		.global	TIM_HW_INFO_MAPPING
 2196              		.global	APBx_CLOCK_MAPPING
 2197              		.global	TIMER_COUNTER_MODE_MAPPING
 2198              		.global	TIM_CHANNEL_x_MAPPING
 2199              		.section	.bss.timer_handle,"aw",%nobits
 2200              		.align	2
ARM GAS  /tmp/cc6XjLyw.s 			page 60


 2201              		.set	.LANCHOR3,. + 0
 2204              	timer_handle:
 2205 0000 00000000 		.space	896
 2205      00000000 
 2205      00000000 
 2205      00000000 
 2205      00000000 
 2206              		.section	.data.APBx_CLOCK_MAPPING,"aw",%progbits
 2207              		.align	2
 2208              		.set	.LANCHOR8,. + 0
 2211              	APBx_CLOCK_MAPPING:
 2212 0000 007A030A 		.word	168000000
 2213 0004 00BD0105 		.word	84000000
 2214 0008 00BD0105 		.word	84000000
 2215 000c 00BD0105 		.word	84000000
 2216 0010 00BD0105 		.word	84000000
 2217 0014 00BD0105 		.word	84000000
 2218 0018 00BD0105 		.word	84000000
 2219 001c 00BD0105 		.word	84000000
 2220 0020 007A030A 		.word	168000000
 2221 0024 007A030A 		.word	168000000
 2222 0028 007A030A 		.word	168000000
 2223 002c 00BD0105 		.word	84000000
 2224 0030 00BD0105 		.word	84000000
 2225 0034 00BD0105 		.word	84000000
 2226              		.section	.data.TIMER_COUNTER_MODE_MAPPING,"aw",%progbits
 2227              		.align	2
 2228              		.set	.LANCHOR12,. + 0
 2231              	TIMER_COUNTER_MODE_MAPPING:
 2232 0000 00000000 		.word	0
 2233 0004 10000000 		.word	16
 2234              		.section	.data.TIM_CHANNEL_x_MAPPING,"aw",%progbits
 2235              		.align	2
 2236              		.set	.LANCHOR4,. + 0
 2239              	TIM_CHANNEL_x_MAPPING:
 2240 0000 00000000 		.word	0
 2241 0004 04000000 		.word	4
 2242 0008 08000000 		.word	8
 2243 000c 0C000000 		.word	12
 2244              		.section	.data.TIM_ETR_HW_INFO_MAPPING,"aw",%progbits
 2245              		.align	2
 2246              		.set	.LANCHOR1,. + 0
 2249              	TIM_ETR_HW_INFO_MAPPING:
 2250 0000 01000000 		.word	1
 2251 0004 01000000 		.word	1
 2252 0008 00000140 		.word	1073807360
 2253 000c 00000240 		.word	1073872896
 2254 0010 0010     		.short	4096
 2255 0012 01       		.byte	1
 2256 0013 00       		.space	1
 2257 0014 01000000 		.word	1
 2258 0018 10000000 		.word	16
 2259 001c 00000140 		.word	1073807360
 2260 0020 00100240 		.word	1073876992
 2261 0024 8000     		.short	128
 2262 0026 01       		.byte	1
 2263 0027 00       		.space	1
ARM GAS  /tmp/cc6XjLyw.s 			page 61


 2264 0028 00000000 		.word	0
 2265 002c 00000000 		.space	16
 2265      00000000 
 2265      00000000 
 2265      00000000 
 2266 003c 01000000 		.word	1
 2267 0040 01000000 		.word	1
 2268 0044 00000040 		.word	1073741824
 2269 0048 00000240 		.word	1073872896
 2270 004c 0100     		.short	1
 2271 004e 01       		.byte	1
 2272 004f 00       		.space	1
 2273 0050 01000000 		.word	1
 2274 0054 01000000 		.word	1
 2275 0058 00000040 		.word	1073741824
 2276 005c 00000240 		.word	1073872896
 2277 0060 2000     		.short	32
 2278 0062 01       		.byte	1
 2279 0063 00       		.space	1
 2280 0064 01000000 		.word	1
 2281 0068 01000000 		.word	1
 2282 006c 00000040 		.word	1073741824
 2283 0070 00000240 		.word	1073872896
 2284 0074 0080     		.short	-32768
 2285 0076 01       		.byte	1
 2286 0077 00       		.space	1
 2287 0078 02000000 		.word	2
 2288 007c 08000000 		.word	8
 2289 0080 00040040 		.word	1073742848
 2290 0084 000C0240 		.word	1073875968
 2291 0088 0400     		.short	4
 2292 008a 02       		.byte	2
 2293 008b 00       		.space	1
 2294 008c 00000000 		.word	0
 2295 0090 00000000 		.space	16
 2295      00000000 
 2295      00000000 
 2295      00000000 
 2296 00a0 00000000 		.word	0
 2297 00a4 00000000 		.space	16
 2297      00000000 
 2297      00000000 
 2297      00000000 
 2298 00b4 04000000 		.word	4
 2299 00b8 10000000 		.word	16
 2300 00bc 00080040 		.word	1073743872
 2301 00c0 00100240 		.word	1073876992
 2302 00c4 0100     		.short	1
 2303 00c6 02       		.byte	2
 2304 00c7 00       		.space	1
 2305 00c8 00000000 		.word	0
 2306 00cc 00000000 		.space	16
 2306      00000000 
 2306      00000000 
 2306      00000000 
 2307 00dc 00000000 		.word	0
 2308 00e0 00000000 		.space	16
ARM GAS  /tmp/cc6XjLyw.s 			page 62


 2308      00000000 
 2308      00000000 
 2308      00000000 
 2309 00f0 00000000 		.word	0
 2310 00f4 00000000 		.space	16
 2310      00000000 
 2310      00000000 
 2310      00000000 
 2311 0104 00000000 		.word	0
 2312 0108 00000000 		.space	16
 2312      00000000 
 2312      00000000 
 2312      00000000 
 2313 0118 00000000 		.word	0
 2314 011c 00000000 		.space	16
 2314      00000000 
 2314      00000000 
 2314      00000000 
 2315 012c 00000000 		.word	0
 2316 0130 00000000 		.space	16
 2316      00000000 
 2316      00000000 
 2316      00000000 
 2317 0140 00000000 		.word	0
 2318 0144 00000000 		.space	16
 2318      00000000 
 2318      00000000 
 2318      00000000 
 2319 0154 00000000 		.word	0
 2320 0158 00000000 		.space	16
 2320      00000000 
 2320      00000000 
 2320      00000000 
 2321 0168 00000000 		.word	0
 2322 016c 00000000 		.space	16
 2322      00000000 
 2322      00000000 
 2322      00000000 
 2323 017c 00000000 		.word	0
 2324 0180 00000000 		.space	16
 2324      00000000 
 2324      00000000 
 2324      00000000 
 2325 0190 00000000 		.word	0
 2326 0194 00000000 		.space	16
 2326      00000000 
 2326      00000000 
 2326      00000000 
 2327 01a4 02000000 		.word	2
 2328 01a8 01000000 		.word	1
 2329 01ac 00040140 		.word	1073808384
 2330 01b0 00000240 		.word	1073872896
 2331 01b4 0100     		.short	1
 2332 01b6 03       		.byte	3
 2333 01b7 00       		.space	1
 2334 01b8 00000000 		.word	0
 2335 01bc 00000000 		.space	16
ARM GAS  /tmp/cc6XjLyw.s 			page 63


 2335      00000000 
 2335      00000000 
 2335      00000000 
 2336 01cc 00000000 		.word	0
 2337 01d0 00000000 		.space	16
 2337      00000000 
 2337      00000000 
 2337      00000000 
 2338 01e0 00000000 		.word	0
 2339 01e4 00000000 		.space	16
 2339      00000000 
 2339      00000000 
 2339      00000000 
 2340 01f4 00000000 		.word	0
 2341 01f8 00000000 		.space	16
 2341      00000000 
 2341      00000000 
 2341      00000000 
 2342 0208 00000000 		.word	0
 2343 020c 00000000 		.space	16
 2343      00000000 
 2343      00000000 
 2343      00000000 
 2344 021c 00000000 		.word	0
 2345 0220 00000000 		.space	16
 2345      00000000 
 2345      00000000 
 2345      00000000 
 2346 0230 00000000 		.word	0
 2347 0234 00000000 		.space	16
 2347      00000000 
 2347      00000000 
 2347      00000000 
 2348 0244 00000000 		.word	0
 2349 0248 00000000 		.space	16
 2349      00000000 
 2349      00000000 
 2349      00000000 
 2350 0258 00000000 		.word	0
 2351 025c 00000000 		.space	16
 2351      00000000 
 2351      00000000 
 2351      00000000 
 2352 026c 00000000 		.word	0
 2353 0270 00000000 		.space	16
 2353      00000000 
 2353      00000000 
 2353      00000000 
 2354 0280 00000000 		.word	0
 2355 0284 00000000 		.space	16
 2355      00000000 
 2355      00000000 
 2355      00000000 
 2356 0294 00000000 		.word	0
 2357 0298 00000000 		.space	16
 2357      00000000 
 2357      00000000 
ARM GAS  /tmp/cc6XjLyw.s 			page 64


 2357      00000000 
 2358 02a8 00000000 		.word	0
 2359 02ac 00000000 		.space	16
 2359      00000000 
 2359      00000000 
 2359      00000000 
 2360 02bc 00000000 		.word	0
 2361 02c0 00000000 		.space	16
 2361      00000000 
 2361      00000000 
 2361      00000000 
 2362 02d0 00000000 		.word	0
 2363 02d4 00000000 		.space	16
 2363      00000000 
 2363      00000000 
 2363      00000000 
 2364 02e4 00000000 		.word	0
 2365 02e8 00000000 		.space	16
 2365      00000000 
 2365      00000000 
 2365      00000000 
 2366 02f8 00000000 		.word	0
 2367 02fc 00000000 		.space	16
 2367      00000000 
 2367      00000000 
 2367      00000000 
 2368 030c 00000000 		.word	0
 2369 0310 00000000 		.space	16
 2369      00000000 
 2369      00000000 
 2369      00000000 
 2370 0320 00000000 		.word	0
 2371 0324 00000000 		.space	16
 2371      00000000 
 2371      00000000 
 2371      00000000 
 2372 0334 00000000 		.word	0
 2373 0338 00000000 		.space	16
 2373      00000000 
 2373      00000000 
 2373      00000000 
 2374              		.section	.data.TIM_HW_INFO_MAPPING,"aw",%progbits
 2375              		.align	2
 2376              		.set	.LANCHOR0,. + 0
 2379              	TIM_HW_INFO_MAPPING:
 2380 0000 01000000 		.word	1
 2381 0004 01000000 		.word	1
 2382 0008 00000140 		.word	1073807360
 2383 000c 00000240 		.word	1073872896
 2384 0010 0001     		.short	256
 2385 0012 01       		.byte	1
 2386 0013 00       		.space	1
 2387 0014 01000000 		.word	1
 2388 0018 10000000 		.word	16
 2389 001c 00000140 		.word	1073807360
 2390 0020 00100240 		.word	1073876992
 2391 0024 0002     		.short	512
ARM GAS  /tmp/cc6XjLyw.s 			page 65


 2392 0026 01       		.byte	1
 2393 0027 00       		.space	1
 2394 0028 00000000 		.word	0
 2395 002c 00000000 		.space	16
 2395      00000000 
 2395      00000000 
 2395      00000000 
 2396 003c 01000000 		.word	1
 2397 0040 01000000 		.word	1
 2398 0044 00000140 		.word	1073807360
 2399 0048 00000240 		.word	1073872896
 2400 004c 0002     		.short	512
 2401 004e 01       		.byte	1
 2402 004f 00       		.space	1
 2403 0050 01000000 		.word	1
 2404 0054 10000000 		.word	16
 2405 0058 00000140 		.word	1073807360
 2406 005c 00100240 		.word	1073876992
 2407 0060 0004     		.short	1024
 2408 0062 01       		.byte	1
 2409 0063 00       		.space	1
 2410 0064 00000000 		.word	0
 2411 0068 00000000 		.space	16
 2411      00000000 
 2411      00000000 
 2411      00000000 
 2412 0078 01000000 		.word	1
 2413 007c 01000000 		.word	1
 2414 0080 00000140 		.word	1073807360
 2415 0084 00000240 		.word	1073872896
 2416 0088 0004     		.short	1024
 2417 008a 01       		.byte	1
 2418 008b 00       		.space	1
 2419 008c 01000000 		.word	1
 2420 0090 10000000 		.word	16
 2421 0094 00000140 		.word	1073807360
 2422 0098 00100240 		.word	1073876992
 2423 009c 0020     		.short	8192
 2424 009e 01       		.byte	1
 2425 009f 00       		.space	1
 2426 00a0 00000000 		.word	0
 2427 00a4 00000000 		.space	16
 2427      00000000 
 2427      00000000 
 2427      00000000 
 2428 00b4 01000000 		.word	1
 2429 00b8 01000000 		.word	1
 2430 00bc 00000140 		.word	1073807360
 2431 00c0 00000240 		.word	1073872896
 2432 00c4 0008     		.short	2048
 2433 00c6 01       		.byte	1
 2434 00c7 00       		.space	1
 2435 00c8 01000000 		.word	1
 2436 00cc 10000000 		.word	16
 2437 00d0 00000140 		.word	1073807360
 2438 00d4 00100240 		.word	1073876992
 2439 00d8 0040     		.short	16384
ARM GAS  /tmp/cc6XjLyw.s 			page 66


 2440 00da 01       		.byte	1
 2441 00db 00       		.space	1
 2442 00dc 00000000 		.word	0
 2443 00e0 00000000 		.space	16
 2443      00000000 
 2443      00000000 
 2443      00000000 
 2444 00f0 01000000 		.word	1
 2445 00f4 01000000 		.word	1
 2446 00f8 00000040 		.word	1073741824
 2447 00fc 00000240 		.word	1073872896
 2448 0100 0100     		.short	1
 2449 0102 01       		.byte	1
 2450 0103 00       		.space	1
 2451 0104 01000000 		.word	1
 2452 0108 01000000 		.word	1
 2453 010c 00000040 		.word	1073741824
 2454 0110 00000240 		.word	1073872896
 2455 0114 2000     		.short	32
 2456 0116 01       		.byte	1
 2457 0117 00       		.space	1
 2458 0118 01000000 		.word	1
 2459 011c 01000000 		.word	1
 2460 0120 00000040 		.word	1073741824
 2461 0124 00000240 		.word	1073872896
 2462 0128 0080     		.short	-32768
 2463 012a 01       		.byte	1
 2464 012b 00       		.space	1
 2465 012c 01000000 		.word	1
 2466 0130 01000000 		.word	1
 2467 0134 00000040 		.word	1073741824
 2468 0138 00000240 		.word	1073872896
 2469 013c 0200     		.short	2
 2470 013e 01       		.byte	1
 2471 013f 00       		.space	1
 2472 0140 01000000 		.word	1
 2473 0144 02000000 		.word	2
 2474 0148 00000040 		.word	1073741824
 2475 014c 00040240 		.word	1073873920
 2476 0150 0800     		.short	8
 2477 0152 01       		.byte	1
 2478 0153 00       		.space	1
 2479 0154 00000000 		.word	0
 2480 0158 00000000 		.space	16
 2480      00000000 
 2480      00000000 
 2480      00000000 
 2481 0168 01000000 		.word	1
 2482 016c 01000000 		.word	1
 2483 0170 00000040 		.word	1073741824
 2484 0174 00000240 		.word	1073872896
 2485 0178 0400     		.short	4
 2486 017a 01       		.byte	1
 2487 017b 00       		.space	1
 2488 017c 01000000 		.word	1
 2489 0180 02000000 		.word	2
 2490 0184 00000040 		.word	1073741824
ARM GAS  /tmp/cc6XjLyw.s 			page 67


 2491 0188 00040240 		.word	1073873920
 2492 018c 0004     		.short	1024
 2493 018e 01       		.byte	1
 2494 018f 00       		.space	1
 2495 0190 00000000 		.word	0
 2496 0194 00000000 		.space	16
 2496      00000000 
 2496      00000000 
 2496      00000000 
 2497 01a4 01000000 		.word	1
 2498 01a8 01000000 		.word	1
 2499 01ac 00000040 		.word	1073741824
 2500 01b0 00000240 		.word	1073872896
 2501 01b4 0800     		.short	8
 2502 01b6 01       		.byte	1
 2503 01b7 00       		.space	1
 2504 01b8 01000000 		.word	1
 2505 01bc 02000000 		.word	2
 2506 01c0 00000040 		.word	1073741824
 2507 01c4 00040240 		.word	1073873920
 2508 01c8 0008     		.short	2048
 2509 01ca 01       		.byte	1
 2510 01cb 00       		.space	1
 2511 01cc 00000000 		.word	0
 2512 01d0 00000000 		.space	16
 2512      00000000 
 2512      00000000 
 2512      00000000 
 2513 01e0 02000000 		.word	2
 2514 01e4 01000000 		.word	1
 2515 01e8 00040040 		.word	1073742848
 2516 01ec 00000240 		.word	1073872896
 2517 01f0 4000     		.short	64
 2518 01f2 02       		.byte	2
 2519 01f3 00       		.space	1
 2520 01f4 02000000 		.word	2
 2521 01f8 02000000 		.word	2
 2522 01fc 00040040 		.word	1073742848
 2523 0200 00040240 		.word	1073873920
 2524 0204 1000     		.short	16
 2525 0206 02       		.byte	2
 2526 0207 00       		.space	1
 2527 0208 02000000 		.word	2
 2528 020c 04000000 		.word	4
 2529 0210 00040040 		.word	1073742848
 2530 0214 00080240 		.word	1073874944
 2531 0218 4000     		.short	64
 2532 021a 02       		.byte	2
 2533 021b 00       		.space	1
 2534 021c 02000000 		.word	2
 2535 0220 01000000 		.word	1
 2536 0224 00040040 		.word	1073742848
 2537 0228 00000240 		.word	1073872896
 2538 022c 8000     		.short	128
 2539 022e 02       		.byte	2
 2540 022f 00       		.space	1
 2541 0230 02000000 		.word	2
ARM GAS  /tmp/cc6XjLyw.s 			page 68


 2542 0234 02000000 		.word	2
 2543 0238 00040040 		.word	1073742848
 2544 023c 00040240 		.word	1073873920
 2545 0240 2000     		.short	32
 2546 0242 02       		.byte	2
 2547 0243 00       		.space	1
 2548 0244 02000000 		.word	2
 2549 0248 04000000 		.word	4
 2550 024c 00040040 		.word	1073742848
 2551 0250 00080240 		.word	1073874944
 2552 0254 8000     		.short	128
 2553 0256 02       		.byte	2
 2554 0257 00       		.space	1
 2555 0258 02000000 		.word	2
 2556 025c 02000000 		.word	2
 2557 0260 00040040 		.word	1073742848
 2558 0264 00040240 		.word	1073873920
 2559 0268 0100     		.short	1
 2560 026a 02       		.byte	2
 2561 026b 00       		.space	1
 2562 026c 02000000 		.word	2
 2563 0270 04000000 		.word	4
 2564 0274 00040040 		.word	1073742848
 2565 0278 00080240 		.word	1073874944
 2566 027c 0001     		.short	256
 2567 027e 02       		.byte	2
 2568 027f 00       		.space	1
 2569 0280 00000000 		.word	0
 2570 0284 00000000 		.space	16
 2570      00000000 
 2570      00000000 
 2570      00000000 
 2571 0294 02000000 		.word	2
 2572 0298 02000000 		.word	2
 2573 029c 00040040 		.word	1073742848
 2574 02a0 00040240 		.word	1073873920
 2575 02a4 0200     		.short	2
 2576 02a6 02       		.byte	2
 2577 02a7 00       		.space	1
 2578 02a8 02000000 		.word	2
 2579 02ac 04000000 		.word	4
 2580 02b0 00040040 		.word	1073742848
 2581 02b4 00080240 		.word	1073874944
 2582 02b8 0002     		.short	512
 2583 02ba 02       		.byte	2
 2584 02bb 00       		.space	1
 2585 02bc 00000000 		.word	0
 2586 02c0 00000000 		.space	16
 2586      00000000 
 2586      00000000 
 2586      00000000 
 2587 02d0 04000000 		.word	4
 2588 02d4 02000000 		.word	2
 2589 02d8 00080040 		.word	1073743872
 2590 02dc 00040240 		.word	1073873920
 2591 02e0 4000     		.short	64
 2592 02e2 02       		.byte	2
ARM GAS  /tmp/cc6XjLyw.s 			page 69


 2593 02e3 00       		.space	1
 2594 02e4 04000000 		.word	4
 2595 02e8 08000000 		.word	8
 2596 02ec 00080040 		.word	1073743872
 2597 02f0 000C0240 		.word	1073875968
 2598 02f4 0010     		.short	4096
 2599 02f6 02       		.byte	2
 2600 02f7 00       		.space	1
 2601 02f8 00000000 		.word	0
 2602 02fc 00000000 		.space	16
 2602      00000000 
 2602      00000000 
 2602      00000000 
 2603 030c 04000000 		.word	4
 2604 0310 02000000 		.word	2
 2605 0314 00080040 		.word	1073743872
 2606 0318 00040240 		.word	1073873920
 2607 031c 8000     		.short	128
 2608 031e 02       		.byte	2
 2609 031f 00       		.space	1
 2610 0320 04000000 		.word	4
 2611 0324 08000000 		.word	8
 2612 0328 00080040 		.word	1073743872
 2613 032c 000C0240 		.word	1073875968
 2614 0330 0020     		.short	8192
 2615 0332 02       		.byte	2
 2616 0333 00       		.space	1
 2617 0334 00000000 		.word	0
 2618 0338 00000000 		.space	16
 2618      00000000 
 2618      00000000 
 2618      00000000 
 2619 0348 04000000 		.word	4
 2620 034c 02000000 		.word	2
 2621 0350 00080040 		.word	1073743872
 2622 0354 00040240 		.word	1073873920
 2623 0358 0001     		.short	256
 2624 035a 02       		.byte	2
 2625 035b 00       		.space	1
 2626 035c 04000000 		.word	4
 2627 0360 08000000 		.word	8
 2628 0364 00080040 		.word	1073743872
 2629 0368 000C0240 		.word	1073875968
 2630 036c 0040     		.short	16384
 2631 036e 02       		.byte	2
 2632 036f 00       		.space	1
 2633 0370 00000000 		.word	0
 2634 0374 00000000 		.space	16
 2634      00000000 
 2634      00000000 
 2634      00000000 
 2635 0384 04000000 		.word	4
 2636 0388 02000000 		.word	2
 2637 038c 00080040 		.word	1073743872
 2638 0390 00040240 		.word	1073873920
 2639 0394 0002     		.short	512
 2640 0396 02       		.byte	2
ARM GAS  /tmp/cc6XjLyw.s 			page 70


 2641 0397 00       		.space	1
 2642 0398 04000000 		.word	4
 2643 039c 08000000 		.word	8
 2644 03a0 00080040 		.word	1073743872
 2645 03a4 000C0240 		.word	1073875968
 2646 03a8 0080     		.short	-32768
 2647 03aa 02       		.byte	2
 2648 03ab 00       		.space	1
 2649 03ac 00000000 		.word	0
 2650 03b0 00000000 		.space	16
 2650      00000000 
 2650      00000000 
 2650      00000000 
 2651 03c0 08000000 		.word	8
 2652 03c4 01000000 		.word	1
 2653 03c8 000C0040 		.word	1073744896
 2654 03cc 00000240 		.word	1073872896
 2655 03d0 0100     		.short	1
 2656 03d2 02       		.byte	2
 2657 03d3 00       		.space	1
 2658 03d4 08000000 		.word	8
 2659 03d8 80000000 		.word	128
 2660 03dc 000C0040 		.word	1073744896
 2661 03e0 001C0240 		.word	1073880064
 2662 03e4 0004     		.short	1024
 2663 03e6 02       		.byte	2
 2664 03e7 00       		.space	1
 2665 03e8 00000000 		.word	0
 2666 03ec 00000000 		.space	16
 2666      00000000 
 2666      00000000 
 2666      00000000 
 2667 03fc 08000000 		.word	8
 2668 0400 01000000 		.word	1
 2669 0404 000C0040 		.word	1073744896
 2670 0408 00000240 		.word	1073872896
 2671 040c 0200     		.short	2
 2672 040e 02       		.byte	2
 2673 040f 00       		.space	1
 2674 0410 08000000 		.word	8
 2675 0414 80000000 		.word	128
 2676 0418 000C0040 		.word	1073744896
 2677 041c 001C0240 		.word	1073880064
 2678 0420 0008     		.short	2048
 2679 0422 02       		.byte	2
 2680 0423 00       		.space	1
 2681 0424 00000000 		.word	0
 2682 0428 00000000 		.space	16
 2682      00000000 
 2682      00000000 
 2682      00000000 
 2683 0438 08000000 		.word	8
 2684 043c 01000000 		.word	1
 2685 0440 000C0040 		.word	1073744896
 2686 0444 00000240 		.word	1073872896
 2687 0448 0400     		.short	4
 2688 044a 02       		.byte	2
ARM GAS  /tmp/cc6XjLyw.s 			page 71


 2689 044b 00       		.space	1
 2690 044c 08000000 		.word	8
 2691 0450 80000000 		.word	128
 2692 0454 000C0040 		.word	1073744896
 2693 0458 001C0240 		.word	1073880064
 2694 045c 0010     		.short	4096
 2695 045e 02       		.byte	2
 2696 045f 00       		.space	1
 2697 0460 00000000 		.word	0
 2698 0464 00000000 		.space	16
 2698      00000000 
 2698      00000000 
 2698      00000000 
 2699 0474 08000000 		.word	8
 2700 0478 01000000 		.word	1
 2701 047c 000C0040 		.word	1073744896
 2702 0480 00000240 		.word	1073872896
 2703 0484 0800     		.short	8
 2704 0486 02       		.byte	2
 2705 0487 00       		.space	1
 2706 0488 08000000 		.word	8
 2707 048c 00010000 		.word	256
 2708 0490 000C0040 		.word	1073744896
 2709 0494 00200240 		.word	1073881088
 2710 0498 0100     		.short	1
 2711 049a 02       		.byte	2
 2712 049b 00       		.space	1
 2713 049c 00000000 		.word	0
 2714 04a0 00000000 		.space	16
 2714      00000000 
 2714      00000000 
 2714      00000000 
 2715 04b0 00000000 		.word	0
 2716 04b4 00000000 		.space	16
 2716      00000000 
 2716      00000000 
 2716      00000000 
 2717 04c4 00000000 		.word	0
 2718 04c8 00000000 		.space	16
 2718      00000000 
 2718      00000000 
 2718      00000000 
 2719 04d8 00000000 		.word	0
 2720 04dc 00000000 		.space	16
 2720      00000000 
 2720      00000000 
 2720      00000000 
 2721 04ec 00000000 		.word	0
 2722 04f0 00000000 		.space	16
 2722      00000000 
 2722      00000000 
 2722      00000000 
 2723 0500 00000000 		.word	0
 2724 0504 00000000 		.space	16
 2724      00000000 
 2724      00000000 
 2724      00000000 
ARM GAS  /tmp/cc6XjLyw.s 			page 72


 2725 0514 00000000 		.word	0
 2726 0518 00000000 		.space	16
 2726      00000000 
 2726      00000000 
 2726      00000000 
 2727 0528 00000000 		.word	0
 2728 052c 00000000 		.space	16
 2728      00000000 
 2728      00000000 
 2728      00000000 
 2729 053c 00000000 		.word	0
 2730 0540 00000000 		.space	16
 2730      00000000 
 2730      00000000 
 2730      00000000 
 2731 0550 00000000 		.word	0
 2732 0554 00000000 		.space	16
 2732      00000000 
 2732      00000000 
 2732      00000000 
 2733 0564 00000000 		.word	0
 2734 0568 00000000 		.space	16
 2734      00000000 
 2734      00000000 
 2734      00000000 
 2735 0578 00000000 		.word	0
 2736 057c 00000000 		.space	16
 2736      00000000 
 2736      00000000 
 2736      00000000 
 2737 058c 00000000 		.word	0
 2738 0590 00000000 		.space	16
 2738      00000000 
 2738      00000000 
 2738      00000000 
 2739 05a0 00000000 		.word	0
 2740 05a4 00000000 		.space	16
 2740      00000000 
 2740      00000000 
 2740      00000000 
 2741 05b4 00000000 		.word	0
 2742 05b8 00000000 		.space	16
 2742      00000000 
 2742      00000000 
 2742      00000000 
 2743 05c8 00000000 		.word	0
 2744 05cc 00000000 		.space	16
 2744      00000000 
 2744      00000000 
 2744      00000000 
 2745 05dc 00000000 		.word	0
 2746 05e0 00000000 		.space	16
 2746      00000000 
 2746      00000000 
 2746      00000000 
 2747 05f0 00000000 		.word	0
 2748 05f4 00000000 		.space	16
ARM GAS  /tmp/cc6XjLyw.s 			page 73


 2748      00000000 
 2748      00000000 
 2748      00000000 
 2749 0604 00000000 		.word	0
 2750 0608 00000000 		.space	16
 2750      00000000 
 2750      00000000 
 2750      00000000 
 2751 0618 00000000 		.word	0
 2752 061c 00000000 		.space	16
 2752      00000000 
 2752      00000000 
 2752      00000000 
 2753 062c 00000000 		.word	0
 2754 0630 00000000 		.space	16
 2754      00000000 
 2754      00000000 
 2754      00000000 
 2755 0640 00000000 		.word	0
 2756 0644 00000000 		.space	16
 2756      00000000 
 2756      00000000 
 2756      00000000 
 2757 0654 00000000 		.word	0
 2758 0658 00000000 		.space	16
 2758      00000000 
 2758      00000000 
 2758      00000000 
 2759 0668 00000000 		.word	0
 2760 066c 00000000 		.space	16
 2760      00000000 
 2760      00000000 
 2760      00000000 
 2761 067c 00000000 		.word	0
 2762 0680 00000000 		.space	16
 2762      00000000 
 2762      00000000 
 2762      00000000 
 2763 0690 02000000 		.word	2
 2764 0694 04000000 		.word	4
 2765 0698 00040140 		.word	1073808384
 2766 069c 00080240 		.word	1073874944
 2767 06a0 4000     		.short	64
 2768 06a2 03       		.byte	3
 2769 06a3 00       		.space	1
 2770 06a4 02000000 		.word	2
 2771 06a8 00010000 		.word	256
 2772 06ac 00040140 		.word	1073808384
 2773 06b0 00200240 		.word	1073881088
 2774 06b4 0080     		.short	-32768
 2775 06b6 03       		.byte	3
 2776 06b7 00       		.space	1
 2777 06b8 00000000 		.word	0
 2778 06bc 00000000 		.space	16
 2778      00000000 
 2778      00000000 
 2778      00000000 
ARM GAS  /tmp/cc6XjLyw.s 			page 74


 2779 06cc 02000000 		.word	2
 2780 06d0 04000000 		.word	4
 2781 06d4 00040140 		.word	1073808384
 2782 06d8 00080240 		.word	1073874944
 2783 06dc 8000     		.short	128
 2784 06de 03       		.byte	3
 2785 06df 00       		.space	1
 2786 06e0 02000000 		.word	2
 2787 06e4 00010000 		.word	256
 2788 06e8 00040140 		.word	1073808384
 2789 06ec 00200240 		.word	1073881088
 2790 06f0 4000     		.short	64
 2791 06f2 03       		.byte	3
 2792 06f3 00       		.space	1
 2793 06f4 00000000 		.word	0
 2794 06f8 00000000 		.space	16
 2794      00000000 
 2794      00000000 
 2794      00000000 
 2795 0708 02000000 		.word	2
 2796 070c 04000000 		.word	4
 2797 0710 00040140 		.word	1073808384
 2798 0714 00080240 		.word	1073874944
 2799 0718 0001     		.short	256
 2800 071a 03       		.byte	3
 2801 071b 00       		.space	1
 2802 071c 02000000 		.word	2
 2803 0720 00010000 		.word	256
 2804 0724 00040140 		.word	1073808384
 2805 0728 00200240 		.word	1073881088
 2806 072c 8000     		.short	128
 2807 072e 03       		.byte	3
 2808 072f 00       		.space	1
 2809 0730 00000000 		.word	0
 2810 0734 00000000 		.space	16
 2810      00000000 
 2810      00000000 
 2810      00000000 
 2811 0744 02000000 		.word	2
 2812 0748 04000000 		.word	4
 2813 074c 00040140 		.word	1073808384
 2814 0750 00080240 		.word	1073874944
 2815 0754 0002     		.short	512
 2816 0756 03       		.byte	3
 2817 0757 00       		.space	1
 2818 0758 02000000 		.word	2
 2819 075c 00010000 		.word	256
 2820 0760 00040140 		.word	1073808384
 2821 0764 00200240 		.word	1073881088
 2822 0768 0400     		.short	4
 2823 076a 03       		.byte	3
 2824 076b 00       		.space	1
 2825 076c 00000000 		.word	0
 2826 0770 00000000 		.space	16
 2826      00000000 
 2826      00000000 
 2826      00000000 
ARM GAS  /tmp/cc6XjLyw.s 			page 75


 2827 0780 00000100 		.word	65536
 2828 0784 01000000 		.word	1
 2829 0788 00400140 		.word	1073823744
 2830 078c 00000240 		.word	1073872896
 2831 0790 0400     		.short	4
 2832 0792 03       		.byte	3
 2833 0793 00       		.space	1
 2834 0794 00000100 		.word	65536
 2835 0798 10000000 		.word	16
 2836 079c 00400140 		.word	1073823744
 2837 07a0 00100240 		.word	1073876992
 2838 07a4 2000     		.short	32
 2839 07a6 03       		.byte	3
 2840 07a7 00       		.space	1
 2841 07a8 00000000 		.word	0
 2842 07ac 00000000 		.space	16
 2842      00000000 
 2842      00000000 
 2842      00000000 
 2843 07bc 00000100 		.word	65536
 2844 07c0 01000000 		.word	1
 2845 07c4 00400140 		.word	1073823744
 2846 07c8 00000240 		.word	1073872896
 2847 07cc 0800     		.short	8
 2848 07ce 03       		.byte	3
 2849 07cf 00       		.space	1
 2850 07d0 00000100 		.word	65536
 2851 07d4 10000000 		.word	16
 2852 07d8 00400140 		.word	1073823744
 2853 07dc 00100240 		.word	1073876992
 2854 07e0 4000     		.short	64
 2855 07e2 03       		.byte	3
 2856 07e3 00       		.space	1
 2857 07e4 00000000 		.word	0
 2858 07e8 00000000 		.space	16
 2858      00000000 
 2858      00000000 
 2858      00000000 
 2859 07f8 00000000 		.word	0
 2860 07fc 00000000 		.space	16
 2860      00000000 
 2860      00000000 
 2860      00000000 
 2861 080c 00000000 		.word	0
 2862 0810 00000000 		.space	16
 2862      00000000 
 2862      00000000 
 2862      00000000 
 2863 0820 00000000 		.word	0
 2864 0824 00000000 		.space	16
 2864      00000000 
 2864      00000000 
 2864      00000000 
 2865 0834 00000000 		.word	0
 2866 0838 00000000 		.space	16
 2866      00000000 
 2866      00000000 
ARM GAS  /tmp/cc6XjLyw.s 			page 76


 2866      00000000 
 2867 0848 00000000 		.word	0
 2868 084c 00000000 		.space	16
 2868      00000000 
 2868      00000000 
 2868      00000000 
 2869 085c 00000000 		.word	0
 2870 0860 00000000 		.space	16
 2870      00000000 
 2870      00000000 
 2870      00000000 
 2871 0870 00000200 		.word	131072
 2872 0874 02000000 		.word	2
 2873 0878 00440140 		.word	1073824768
 2874 087c 00040240 		.word	1073873920
 2875 0880 0001     		.short	256
 2876 0882 03       		.byte	3
 2877 0883 00       		.space	1
 2878 0884 00000200 		.word	131072
 2879 0888 20000000 		.word	32
 2880 088c 00440140 		.word	1073824768
 2881 0890 00140240 		.word	1073878016
 2882 0894 4000     		.short	64
 2883 0896 03       		.byte	3
 2884 0897 00       		.space	1
 2885 0898 00000000 		.word	0
 2886 089c 00000000 		.space	16
 2886      00000000 
 2886      00000000 
 2886      00000000 
 2887 08ac 00000000 		.word	0
 2888 08b0 00000000 		.space	16
 2888      00000000 
 2888      00000000 
 2888      00000000 
 2889 08c0 00000000 		.word	0
 2890 08c4 00000000 		.space	16
 2890      00000000 
 2890      00000000 
 2890      00000000 
 2891 08d4 00000000 		.word	0
 2892 08d8 00000000 		.space	16
 2892      00000000 
 2892      00000000 
 2892      00000000 
 2893 08e8 00000000 		.word	0
 2894 08ec 00000000 		.space	16
 2894      00000000 
 2894      00000000 
 2894      00000000 
 2895 08fc 00000000 		.word	0
 2896 0900 00000000 		.space	16
 2896      00000000 
 2896      00000000 
 2896      00000000 
 2897 0910 00000000 		.word	0
 2898 0914 00000000 		.space	16
ARM GAS  /tmp/cc6XjLyw.s 			page 77


 2898      00000000 
 2898      00000000 
 2898      00000000 
 2899 0924 00000000 		.word	0
 2900 0928 00000000 		.space	16
 2900      00000000 
 2900      00000000 
 2900      00000000 
 2901 0938 00000000 		.word	0
 2902 093c 00000000 		.space	16
 2902      00000000 
 2902      00000000 
 2902      00000000 
 2903 094c 00000000 		.word	0
 2904 0950 00000000 		.space	16
 2904      00000000 
 2904      00000000 
 2904      00000000 
 2905 0960 00000400 		.word	262144
 2906 0964 02000000 		.word	2
 2907 0968 00480140 		.word	1073825792
 2908 096c 00040240 		.word	1073873920
 2909 0970 0002     		.short	512
 2910 0972 03       		.byte	3
 2911 0973 00       		.space	1
 2912 0974 00000400 		.word	262144
 2913 0978 20000000 		.word	32
 2914 097c 00480140 		.word	1073825792
 2915 0980 00140240 		.word	1073878016
 2916 0984 8000     		.short	128
 2917 0986 03       		.byte	3
 2918 0987 00       		.space	1
 2919 0988 00000000 		.word	0
 2920 098c 00000000 		.space	16
 2920      00000000 
 2920      00000000 
 2920      00000000 
 2921 099c 00000000 		.word	0
 2922 09a0 00000000 		.space	16
 2922      00000000 
 2922      00000000 
 2922      00000000 
 2923 09b0 00000000 		.word	0
 2924 09b4 00000000 		.space	16
 2924      00000000 
 2924      00000000 
 2924      00000000 
 2925 09c4 00000000 		.word	0
 2926 09c8 00000000 		.space	16
 2926      00000000 
 2926      00000000 
 2926      00000000 
 2927 09d8 00000000 		.word	0
 2928 09dc 00000000 		.space	16
 2928      00000000 
 2928      00000000 
 2928      00000000 
ARM GAS  /tmp/cc6XjLyw.s 			page 78


 2929 09ec 00000000 		.word	0
 2930 09f0 00000000 		.space	16
 2930      00000000 
 2930      00000000 
 2930      00000000 
 2931 0a00 00000000 		.word	0
 2932 0a04 00000000 		.space	16
 2932      00000000 
 2932      00000000 
 2932      00000000 
 2933 0a14 00000000 		.word	0
 2934 0a18 00000000 		.space	16
 2934      00000000 
 2934      00000000 
 2934      00000000 
 2935 0a28 00000000 		.word	0
 2936 0a2c 00000000 		.space	16
 2936      00000000 
 2936      00000000 
 2936      00000000 
 2937 0a3c 00000000 		.word	0
 2938 0a40 00000000 		.space	16
 2938      00000000 
 2938      00000000 
 2938      00000000 
 2939 0a50 40000000 		.word	64
 2940 0a54 02000000 		.word	2
 2941 0a58 00180040 		.word	1073747968
 2942 0a5c 00040240 		.word	1073873920
 2943 0a60 0040     		.short	16384
 2944 0a62 09       		.byte	9
 2945 0a63 00       		.space	1
 2946 0a64 40000000 		.word	64
 2947 0a68 80000000 		.word	128
 2948 0a6c 00180040 		.word	1073747968
 2949 0a70 001C0240 		.word	1073880064
 2950 0a74 4000     		.short	64
 2951 0a76 09       		.byte	9
 2952 0a77 00       		.space	1
 2953 0a78 00000000 		.word	0
 2954 0a7c 00000000 		.space	16
 2954      00000000 
 2954      00000000 
 2954      00000000 
 2955 0a8c 40000000 		.word	64
 2956 0a90 02000000 		.word	2
 2957 0a94 00180040 		.word	1073747968
 2958 0a98 00040240 		.word	1073873920
 2959 0a9c 0080     		.short	-32768
 2960 0a9e 09       		.byte	9
 2961 0a9f 00       		.space	1
 2962 0aa0 40000000 		.word	64
 2963 0aa4 80000000 		.word	128
 2964 0aa8 00180040 		.word	1073747968
 2965 0aac 001C0240 		.word	1073880064
 2966 0ab0 0002     		.short	512
 2967 0ab2 09       		.byte	9
ARM GAS  /tmp/cc6XjLyw.s 			page 79


 2968 0ab3 00       		.space	1
 2969 0ab4 00000000 		.word	0
 2970 0ab8 00000000 		.space	16
 2970      00000000 
 2970      00000000 
 2970      00000000 
 2971 0ac8 00000000 		.word	0
 2972 0acc 00000000 		.space	16
 2972      00000000 
 2972      00000000 
 2972      00000000 
 2973 0adc 00000000 		.word	0
 2974 0ae0 00000000 		.space	16
 2974      00000000 
 2974      00000000 
 2974      00000000 
 2975 0af0 00000000 		.word	0
 2976 0af4 00000000 		.space	16
 2976      00000000 
 2976      00000000 
 2976      00000000 
 2977 0b04 00000000 		.word	0
 2978 0b08 00000000 		.space	16
 2978      00000000 
 2978      00000000 
 2978      00000000 
 2979 0b18 00000000 		.word	0
 2980 0b1c 00000000 		.space	16
 2980      00000000 
 2980      00000000 
 2980      00000000 
 2981 0b2c 00000000 		.word	0
 2982 0b30 00000000 		.space	16
 2982      00000000 
 2982      00000000 
 2982      00000000 
 2983 0b40 80000000 		.word	128
 2984 0b44 01000000 		.word	1
 2985 0b48 001C0040 		.word	1073748992
 2986 0b4c 00000240 		.word	1073872896
 2987 0b50 4000     		.short	64
 2988 0b52 09       		.byte	9
 2989 0b53 00       		.space	1
 2990 0b54 80000000 		.word	128
 2991 0b58 20000000 		.word	32
 2992 0b5c 001C0040 		.word	1073748992
 2993 0b60 00140240 		.word	1073878016
 2994 0b64 0001     		.short	256
 2995 0b66 09       		.byte	9
 2996 0b67 00       		.space	1
 2997 0b68 00000000 		.word	0
 2998 0b6c 00000000 		.space	16
 2998      00000000 
 2998      00000000 
 2998      00000000 
 2999 0b7c 00000000 		.word	0
 3000 0b80 00000000 		.space	16
ARM GAS  /tmp/cc6XjLyw.s 			page 80


 3000      00000000 
 3000      00000000 
 3000      00000000 
 3001 0b90 00000000 		.word	0
 3002 0b94 00000000 		.space	16
 3002      00000000 
 3002      00000000 
 3002      00000000 
 3003 0ba4 00000000 		.word	0
 3004 0ba8 00000000 		.space	16
 3004      00000000 
 3004      00000000 
 3004      00000000 
 3005 0bb8 00000000 		.word	0
 3006 0bbc 00000000 		.space	16
 3006      00000000 
 3006      00000000 
 3006      00000000 
 3007 0bcc 00000000 		.word	0
 3008 0bd0 00000000 		.space	16
 3008      00000000 
 3008      00000000 
 3008      00000000 
 3009 0be0 00000000 		.word	0
 3010 0be4 00000000 		.space	16
 3010      00000000 
 3010      00000000 
 3010      00000000 
 3011 0bf4 00000000 		.word	0
 3012 0bf8 00000000 		.space	16
 3012      00000000 
 3012      00000000 
 3012      00000000 
 3013 0c08 00000000 		.word	0
 3014 0c0c 00000000 		.space	16
 3014      00000000 
 3014      00000000 
 3014      00000000 
 3015 0c1c 00000000 		.word	0
 3016 0c20 00000000 		.space	16
 3016      00000000 
 3016      00000000 
 3016      00000000 
 3017 0c30 00010000 		.word	256
 3018 0c34 01000000 		.word	1
 3019 0c38 00200040 		.word	1073750016
 3020 0c3c 00000240 		.word	1073872896
 3021 0c40 8000     		.short	128
 3022 0c42 09       		.byte	9
 3023 0c43 00       		.space	1
 3024 0c44 00010000 		.word	256
 3025 0c48 20000000 		.word	32
 3026 0c4c 00200040 		.word	1073750016
 3027 0c50 00140240 		.word	1073878016
 3028 0c54 0002     		.short	512
 3029 0c56 09       		.byte	9
 3030 0c57 00       		.space	1
ARM GAS  /tmp/cc6XjLyw.s 			page 81


 3031 0c58 00000000 		.space	20
 3031      00000000 
 3031      00000000 
 3031      00000000 
 3031      00000000 
 3032 0c6c 00000000 		.word	0
 3033 0c70 00000000 		.space	16
 3033      00000000 
 3033      00000000 
 3033      00000000 
 3034 0c80 00000000 		.word	0
 3035 0c84 00000000 		.space	16
 3035      00000000 
 3035      00000000 
 3035      00000000 
 3036 0c94 00000000 		.word	0
 3037 0c98 00000000 		.space	16
 3037      00000000 
 3037      00000000 
 3037      00000000 
 3038 0ca8 00000000 		.word	0
 3039 0cac 00000000 		.space	16
 3039      00000000 
 3039      00000000 
 3039      00000000 
 3040 0cbc 00000000 		.word	0
 3041 0cc0 00000000 		.space	16
 3041      00000000 
 3041      00000000 
 3041      00000000 
 3042 0cd0 00000000 		.word	0
 3043 0cd4 00000000 		.space	16
 3043      00000000 
 3043      00000000 
 3043      00000000 
 3044 0ce4 00000000 		.word	0
 3045 0ce8 00000000 		.space	16
 3045      00000000 
 3045      00000000 
 3045      00000000 
 3046 0cf8 00000000 		.word	0
 3047 0cfc 00000000 		.space	16
 3047      00000000 
 3047      00000000 
 3047      00000000 
 3048 0d0c 00000000 		.word	0
 3049 0d10 00000000 		.space	16
 3049      00000000 
 3049      00000000 
 3049      00000000 
 3050              		.section	.rodata.TIM_MAPPING,"a",%progbits
 3051              		.align	2
 3052              		.set	.LANCHOR18,. + 0
 3055              	TIM_MAPPING:
 3056 0000 00000140 		.word	1073807360
 3057 0004 00000040 		.word	1073741824
 3058 0008 00040040 		.word	1073742848
ARM GAS  /tmp/cc6XjLyw.s 			page 82


 3059 000c 00080040 		.word	1073743872
 3060 0010 000C0040 		.word	1073744896
 3061 0014 00100040 		.word	1073745920
 3062 0018 00140040 		.word	1073746944
 3063 001c 00040140 		.word	1073808384
 3064 0020 00400140 		.word	1073823744
 3065 0024 00440140 		.word	1073824768
 3066 0028 00480140 		.word	1073825792
 3067 002c 00180040 		.word	1073747968
 3068 0030 001C0040 		.word	1073748992
 3069 0034 00200040 		.word	1073750016
 3070              		.section	.rodata.__FUNCTION__.12213,"a",%progbits
 3071              		.align	2
 3072              		.set	.LANCHOR2,. + 0
 3075              	__FUNCTION__.12213:
 3076 0000 70776D5F 		.ascii	"pwm_config\000"
 3076      636F6E66 
 3076      696700
 3077              		.section	.rodata.__FUNCTION__.12225,"a",%progbits
 3078              		.align	2
 3079              		.set	.LANCHOR5,. + 0
 3082              	__FUNCTION__.12225:
 3083 0000 70776D5F 		.ascii	"pwm_start\000"
 3083      73746172 
 3083      7400
 3084              		.section	.rodata.__FUNCTION__.12230,"a",%progbits
 3085              		.align	2
 3086              		.set	.LANCHOR6,. + 0
 3089              	__FUNCTION__.12230:
 3090 0000 70776D5F 		.ascii	"pwm_stop\000"
 3090      73746F70 
 3090      00
 3091              		.section	.rodata.__FUNCTION__.12236,"a",%progbits
 3092              		.align	2
 3093              		.set	.LANCHOR7,. + 0
 3096              	__FUNCTION__.12236:
 3097 0000 70776D5F 		.ascii	"pwm_set_frequency\000"
 3097      7365745F 
 3097      66726571 
 3097      75656E63 
 3097      7900
 3098              		.section	.rodata.__FUNCTION__.12250,"a",%progbits
 3099              		.align	2
 3100              		.set	.LANCHOR9,. + 0
 3103              	__FUNCTION__.12250:
 3104 0000 70776D5F 		.ascii	"pwm_set_params\000"
 3104      7365745F 
 3104      70617261 
 3104      6D7300
 3105              		.section	.rodata.__FUNCTION__.12260,"a",%progbits
 3106              		.align	2
 3107              		.set	.LANCHOR10,. + 0
 3110              	__FUNCTION__.12260:
 3111 0000 70776D5F 		.ascii	"pwm_set_duty\000"
 3111      7365745F 
 3111      64757479 
 3111      00
ARM GAS  /tmp/cc6XjLyw.s 			page 83


 3112              		.section	.rodata.__FUNCTION__.12265,"a",%progbits
 3113              		.align	2
 3114              		.set	.LANCHOR11,. + 0
 3117              	__FUNCTION__.12265:
 3118 0000 6574725F 		.ascii	"etr_config\000"
 3118      636F6E66 
 3118      696700
 3119              		.section	.rodata.__FUNCTION__.12275,"a",%progbits
 3120              		.align	2
 3121              		.set	.LANCHOR13,. + 0
 3124              	__FUNCTION__.12275:
 3125 0000 6574725F 		.ascii	"etr_start\000"
 3125      73746172 
 3125      7400
 3126              		.section	.rodata.__FUNCTION__.12279,"a",%progbits
 3127              		.align	2
 3128              		.set	.LANCHOR14,. + 0
 3131              	__FUNCTION__.12279:
 3132 0000 6574725F 		.ascii	"etr_stop\000"
 3132      73746F70 
 3132      00
 3133              		.section	.rodata.__FUNCTION__.12284,"a",%progbits
 3134              		.align	2
 3135              		.set	.LANCHOR15,. + 0
 3138              	__FUNCTION__.12284:
 3139 0000 6574725F 		.ascii	"etr_get_value\000"
 3139      6765745F 
 3139      76616C75 
 3139      6500
 3140              		.section	.rodata.__FUNCTION__.12289,"a",%progbits
 3141              		.align	2
 3142              		.set	.LANCHOR16,. + 0
 3145              	__FUNCTION__.12289:
 3146 0000 6574725F 		.ascii	"etr_set_value\000"
 3146      7365745F 
 3146      76616C75 
 3146      6500
 3147              		.section	.rodata.__FUNCTION__.12294,"a",%progbits
 3148              		.align	2
 3149              		.set	.LANCHOR17,. + 0
 3152              	__FUNCTION__.12294:
 3153 0000 6574725F 		.ascii	"etr_set_mode\000"
 3153      7365745F 
 3153      6D6F6465 
 3153      00
 3154              		.section	.rodata.etr_config.str1.4,"aMS",%progbits,1
 3155              		.align	2
 3156              	.LC9:
 3157 0000 65747220 		.ascii	"etr init error\000"
 3157      696E6974 
 3157      20657272 
 3157      6F7200
 3158              		.section	.rodata.etr_get_value.str1.4,"aMS",%progbits,1
 3159              		.align	2
 3160              	.LC12:
 3161 0000 65747220 		.ascii	"etr get value error\000"
 3161      67657420 
ARM GAS  /tmp/cc6XjLyw.s 			page 84


 3161      76616C75 
 3161      65206572 
 3161      726F7200 
 3162              		.section	.rodata.etr_set_mode.str1.4,"aMS",%progbits,1
 3163              		.align	2
 3164              	.LC14:
 3165 0000 65747220 		.ascii	"etr set mode error\000"
 3165      73657420 
 3165      6D6F6465 
 3165      20657272 
 3165      6F7200
 3166              		.section	.rodata.etr_set_value.str1.4,"aMS",%progbits,1
 3167              		.align	2
 3168              	.LC13:
 3169 0000 65747220 		.ascii	"etr set value error\000"
 3169      73657420 
 3169      76616C75 
 3169      65206572 
 3169      726F7200 
 3170              		.section	.rodata.etr_start.str1.4,"aMS",%progbits,1
 3171              		.align	2
 3172              	.LC10:
 3173 0000 65747220 		.ascii	"etr start error\000"
 3173      73746172 
 3173      74206572 
 3173      726F7200 
 3174              		.section	.rodata.etr_stop.str1.4,"aMS",%progbits,1
 3175              		.align	2
 3176              	.LC11:
 3177 0000 65747220 		.ascii	"etr stop error\000"
 3177      73746F70 
 3177      20657272 
 3177      6F7200
 3178              		.section	.rodata.pwm_config.str1.4,"aMS",%progbits,1
 3179              		.align	2
 3180              	.LC0:
 3181 0000 1B5B303B 		.ascii	"\033[0;31mE (%d) %s: %s:%d (%s):%s\033[0m\015\012\000"
 3181      33316D45 
 3181      20282564 
 3181      29202573 
 3181      3A202573 
 3182 0026 0000     		.space	2
 3183              	.LC1:
 3184 0028 44524956 		.ascii	"DRIVER TIMER\000"
 3184      45522054 
 3184      494D4552 
 3184      00
 3185 0035 000000   		.space	3
 3186              	.LC2:
 3187 0038 70776E20 		.ascii	"pwn init error\000"
 3187      696E6974 
 3187      20657272 
 3187      6F7200
 3188 0047 00       		.space	1
 3189              	.LC3:
 3190 0048 2F686F6D 		.ascii	"/home/phong/Documents/thesis/stm32f4/stm-idf/compon"
 3190      652F7068 
ARM GAS  /tmp/cc6XjLyw.s 			page 85


 3190      6F6E672F 
 3190      446F6375 
 3190      6D656E74 
 3191 007b 656E7473 		.ascii	"ents/driver/timer.c\000"
 3191      2F647269 
 3191      7665722F 
 3191      74696D65 
 3191      722E6300 
 3192              		.section	.rodata.pwm_set_duty.str1.4,"aMS",%progbits,1
 3193              		.align	2
 3194              	.LC8:
 3195 0000 70776D20 		.ascii	"pwm set duty cycle error\000"
 3195      73657420 
 3195      64757479 
 3195      20637963 
 3195      6C652065 
 3196              		.section	.rodata.pwm_set_frequency.str1.4,"aMS",%progbits,1
 3197              		.align	2
 3198              	.LC6:
 3199 0000 70776D20 		.ascii	"pwm set frequency error\000"
 3199      73657420 
 3199      66726571 
 3199      75656E63 
 3199      79206572 
 3200              		.section	.rodata.pwm_set_params.str1.4,"aMS",%progbits,1
 3201              		.align	2
 3202              	.LC7:
 3203 0000 70776D20 		.ascii	"pwm set params error\000"
 3203      73657420 
 3203      70617261 
 3203      6D732065 
 3203      72726F72 
 3204              		.section	.rodata.pwm_start.str1.4,"aMS",%progbits,1
 3205              		.align	2
 3206              	.LC4:
 3207 0000 70776D20 		.ascii	"pwm start error\000"
 3207      73746172 
 3207      74206572 
 3207      726F7200 
 3208              		.section	.rodata.pwm_stop.str1.4,"aMS",%progbits,1
 3209              		.align	2
 3210              	.LC5:
 3211 0000 70776D20 		.ascii	"pwm stop error\000"
 3211      73746F70 
 3211      20657272 
 3211      6F7200
 3212              		.text
 3213              	.Letext0:
 3214              		.file 2 "/home/phong/Documents/thesis/stm32f4/stm-idf/components/newlib/include/machine/_default_t
 3215              		.file 3 "/home/phong/Documents/thesis/stm32f4/stm-idf/components/newlib/include/sys/_stdint.h"
 3216              		.file 4 "/home/phong/Documents/thesis/stm32f4/stm-idf/components/newlib/include/sys/lock.h"
 3217              		.file 5 "/home/phong/Documents/thesis/stm32f4/stm-idf/components/newlib/include/sys/_types.h"
 3218              		.file 6 "/usr/lib/gcc/arm-none-eabi/6.3.1/include/stddef.h"
 3219              		.file 7 "/home/phong/Documents/thesis/stm32f4/stm-idf/components/newlib/include/sys/reent.h"
 3220              		.file 8 "/home/phong/Documents/thesis/stm32f4/stm-idf/components/newlib/include/stdlib.h"
 3221              		.file 9 "/home/phong/Documents/thesis/stm32f4/stm-idf/components/cmsis/include/core_cm4.h"
 3222              		.file 10 "/home/phong/Documents/thesis/stm32f4/stm-idf/components/cmsis/device/stm32/stm32f4xx/inc
ARM GAS  /tmp/cc6XjLyw.s 			page 86


 3223              		.file 11 "/home/phong/Documents/thesis/stm32f4/stm-idf/components/cmsis/device/stm32/stm32f4xx/inc
 3224              		.file 12 "/home/phong/Documents/thesis/stm32f4/stm-idf/components/stm32f4xx_hal_driver/include/stm
 3225              		.file 13 "/home/phong/Documents/thesis/stm32f4/stm-idf/components/stm32f4xx_hal_driver/include/stm
 3226              		.file 14 "/home/phong/Documents/thesis/stm32f4/stm-idf/components/stm32f4xx_hal_driver/include/stm
 3227              		.file 15 "/home/phong/Documents/thesis/stm32f4/stm-idf/components/stm32f4xx_hal_driver/include/stm
 3228              		.file 16 "/home/phong/Documents/thesis/stm32f4/stm-idf/components/stm32f4xx_hal_driver/include/stm
 3229              		.file 17 "/home/phong/Documents/thesis/stm32f4/stm-idf/components/stm_common/include/stm_err.h"
 3230              		.file 18 "/home/phong/Documents/thesis/stm32f4/stm-idf/components/log/include/stm_log.h"
 3231              		.file 19 "/home/phong/Documents/thesis/stm32f4/stm-idf/components/driver/include/driver/timer.h"
 3232              		.file 20 "/home/phong/Documents/thesis/stm32f4/stm-idf/components/stm32f4xx_hal_driver/include/stm
ARM GAS  /tmp/cc6XjLyw.s 			page 87


DEFINED SYMBOLS
                            *ABS*:0000000000000000 timer.c
     /tmp/cc6XjLyw.s:18     .text._tim_pwm_get_hw_info:0000000000000000 $t
     /tmp/cc6XjLyw.s:24     .text._tim_pwm_get_hw_info:0000000000000000 _tim_pwm_get_hw_info
     /tmp/cc6XjLyw.s:74     .text._tim_pwm_get_hw_info:0000000000000030 $d
     /tmp/cc6XjLyw.s:79     .text._tim_etr_get_hw_info:0000000000000000 $t
     /tmp/cc6XjLyw.s:85     .text._tim_etr_get_hw_info:0000000000000000 _tim_etr_get_hw_info
     /tmp/cc6XjLyw.s:130    .text._tim_etr_get_hw_info:0000000000000028 $d
     /tmp/cc6XjLyw.s:135    .text.pwm_config:0000000000000000 $t
     /tmp/cc6XjLyw.s:142    .text.pwm_config:0000000000000000 pwm_config
     /tmp/cc6XjLyw.s:546    .text.pwm_config:0000000000000294 $d
     /tmp/cc6XjLyw.s:557    .text.pwm_config:00000000000002b4 $t
     /tmp/cc6XjLyw.s:579    .text.pwm_config:00000000000002e0 $d
     /tmp/cc6XjLyw.s:588    .text.pwm_start:0000000000000000 $t
     /tmp/cc6XjLyw.s:595    .text.pwm_start:0000000000000000 pwm_start
     /tmp/cc6XjLyw.s:683    .text.pwm_start:0000000000000078 $d
     /tmp/cc6XjLyw.s:694    .text.pwm_stop:0000000000000000 $t
     /tmp/cc6XjLyw.s:701    .text.pwm_stop:0000000000000000 pwm_stop
     /tmp/cc6XjLyw.s:789    .text.pwm_stop:0000000000000078 $d
     /tmp/cc6XjLyw.s:800    .text.pwm_set_frequency:0000000000000000 $t
     /tmp/cc6XjLyw.s:807    .text.pwm_set_frequency:0000000000000000 pwm_set_frequency
     /tmp/cc6XjLyw.s:1021   .text.pwm_set_frequency:0000000000000118 $d
     /tmp/cc6XjLyw.s:1035   .text.pwm_set_params:0000000000000000 $t
     /tmp/cc6XjLyw.s:1042   .text.pwm_set_params:0000000000000000 pwm_set_params
     /tmp/cc6XjLyw.s:1216   .text.pwm_set_params:00000000000000f0 $d
     /tmp/cc6XjLyw.s:1230   .text.pwm_set_duty:0000000000000000 $t
     /tmp/cc6XjLyw.s:1237   .text.pwm_set_duty:0000000000000000 pwm_set_duty
     /tmp/cc6XjLyw.s:1360   .text.pwm_set_duty:00000000000000a4 $d
     /tmp/cc6XjLyw.s:1372   .text.etr_config:0000000000000000 $t
     /tmp/cc6XjLyw.s:1379   .text.etr_config:0000000000000000 etr_config
     /tmp/cc6XjLyw.s:1720   .text.etr_config:0000000000000224 $d
     /tmp/cc6XjLyw.s:1732   .text.etr_start:0000000000000000 $t
     /tmp/cc6XjLyw.s:1739   .text.etr_start:0000000000000000 etr_start
     /tmp/cc6XjLyw.s:1799   .text.etr_start:0000000000000044 $d
     /tmp/cc6XjLyw.s:1809   .text.etr_stop:0000000000000000 $t
     /tmp/cc6XjLyw.s:1816   .text.etr_stop:0000000000000000 etr_stop
     /tmp/cc6XjLyw.s:1876   .text.etr_stop:0000000000000044 $d
     /tmp/cc6XjLyw.s:1886   .text.etr_get_value:0000000000000000 $t
     /tmp/cc6XjLyw.s:1893   .text.etr_get_value:0000000000000000 etr_get_value
     /tmp/cc6XjLyw.s:1951   .text.etr_get_value:0000000000000044 $d
     /tmp/cc6XjLyw.s:1961   .text.etr_set_value:0000000000000000 $t
     /tmp/cc6XjLyw.s:1968   .text.etr_set_value:0000000000000000 etr_set_value
     /tmp/cc6XjLyw.s:2025   .text.etr_set_value:0000000000000044 $d
     /tmp/cc6XjLyw.s:2035   .text.etr_set_mode:0000000000000000 $t
     /tmp/cc6XjLyw.s:2042   .text.etr_set_mode:0000000000000000 etr_set_mode
     /tmp/cc6XjLyw.s:2183   .text.etr_set_mode:00000000000000c4 $d
     /tmp/cc6XjLyw.s:2249   .data.TIM_ETR_HW_INFO_MAPPING:0000000000000000 TIM_ETR_HW_INFO_MAPPING
     /tmp/cc6XjLyw.s:2379   .data.TIM_HW_INFO_MAPPING:0000000000000000 TIM_HW_INFO_MAPPING
     /tmp/cc6XjLyw.s:2211   .data.APBx_CLOCK_MAPPING:0000000000000000 APBx_CLOCK_MAPPING
     /tmp/cc6XjLyw.s:2231   .data.TIMER_COUNTER_MODE_MAPPING:0000000000000000 TIMER_COUNTER_MODE_MAPPING
     /tmp/cc6XjLyw.s:2239   .data.TIM_CHANNEL_x_MAPPING:0000000000000000 TIM_CHANNEL_x_MAPPING
     /tmp/cc6XjLyw.s:2200   .bss.timer_handle:0000000000000000 $d
     /tmp/cc6XjLyw.s:2204   .bss.timer_handle:0000000000000000 timer_handle
     /tmp/cc6XjLyw.s:2207   .data.APBx_CLOCK_MAPPING:0000000000000000 $d
     /tmp/cc6XjLyw.s:2227   .data.TIMER_COUNTER_MODE_MAPPING:0000000000000000 $d
     /tmp/cc6XjLyw.s:2235   .data.TIM_CHANNEL_x_MAPPING:0000000000000000 $d
     /tmp/cc6XjLyw.s:2245   .data.TIM_ETR_HW_INFO_MAPPING:0000000000000000 $d
ARM GAS  /tmp/cc6XjLyw.s 			page 88


     /tmp/cc6XjLyw.s:2375   .data.TIM_HW_INFO_MAPPING:0000000000000000 $d
     /tmp/cc6XjLyw.s:3051   .rodata.TIM_MAPPING:0000000000000000 $d
     /tmp/cc6XjLyw.s:3055   .rodata.TIM_MAPPING:0000000000000000 TIM_MAPPING
     /tmp/cc6XjLyw.s:3071   .rodata.__FUNCTION__.12213:0000000000000000 $d
     /tmp/cc6XjLyw.s:3075   .rodata.__FUNCTION__.12213:0000000000000000 __FUNCTION__.12213
     /tmp/cc6XjLyw.s:3078   .rodata.__FUNCTION__.12225:0000000000000000 $d
     /tmp/cc6XjLyw.s:3082   .rodata.__FUNCTION__.12225:0000000000000000 __FUNCTION__.12225
     /tmp/cc6XjLyw.s:3085   .rodata.__FUNCTION__.12230:0000000000000000 $d
     /tmp/cc6XjLyw.s:3089   .rodata.__FUNCTION__.12230:0000000000000000 __FUNCTION__.12230
     /tmp/cc6XjLyw.s:3092   .rodata.__FUNCTION__.12236:0000000000000000 $d
     /tmp/cc6XjLyw.s:3096   .rodata.__FUNCTION__.12236:0000000000000000 __FUNCTION__.12236
     /tmp/cc6XjLyw.s:3099   .rodata.__FUNCTION__.12250:0000000000000000 $d
     /tmp/cc6XjLyw.s:3103   .rodata.__FUNCTION__.12250:0000000000000000 __FUNCTION__.12250
     /tmp/cc6XjLyw.s:3106   .rodata.__FUNCTION__.12260:0000000000000000 $d
     /tmp/cc6XjLyw.s:3110   .rodata.__FUNCTION__.12260:0000000000000000 __FUNCTION__.12260
     /tmp/cc6XjLyw.s:3113   .rodata.__FUNCTION__.12265:0000000000000000 $d
     /tmp/cc6XjLyw.s:3117   .rodata.__FUNCTION__.12265:0000000000000000 __FUNCTION__.12265
     /tmp/cc6XjLyw.s:3120   .rodata.__FUNCTION__.12275:0000000000000000 $d
     /tmp/cc6XjLyw.s:3124   .rodata.__FUNCTION__.12275:0000000000000000 __FUNCTION__.12275
     /tmp/cc6XjLyw.s:3127   .rodata.__FUNCTION__.12279:0000000000000000 $d
     /tmp/cc6XjLyw.s:3131   .rodata.__FUNCTION__.12279:0000000000000000 __FUNCTION__.12279
     /tmp/cc6XjLyw.s:3134   .rodata.__FUNCTION__.12284:0000000000000000 $d
     /tmp/cc6XjLyw.s:3138   .rodata.__FUNCTION__.12284:0000000000000000 __FUNCTION__.12284
     /tmp/cc6XjLyw.s:3141   .rodata.__FUNCTION__.12289:0000000000000000 $d
     /tmp/cc6XjLyw.s:3145   .rodata.__FUNCTION__.12289:0000000000000000 __FUNCTION__.12289
     /tmp/cc6XjLyw.s:3148   .rodata.__FUNCTION__.12294:0000000000000000 $d
     /tmp/cc6XjLyw.s:3152   .rodata.__FUNCTION__.12294:0000000000000000 __FUNCTION__.12294
     /tmp/cc6XjLyw.s:3155   .rodata.etr_config.str1.4:0000000000000000 $d
     /tmp/cc6XjLyw.s:3159   .rodata.etr_get_value.str1.4:0000000000000000 $d
     /tmp/cc6XjLyw.s:3163   .rodata.etr_set_mode.str1.4:0000000000000000 $d
     /tmp/cc6XjLyw.s:3167   .rodata.etr_set_value.str1.4:0000000000000000 $d
     /tmp/cc6XjLyw.s:3171   .rodata.etr_start.str1.4:0000000000000000 $d
     /tmp/cc6XjLyw.s:3175   .rodata.etr_stop.str1.4:0000000000000000 $d
     /tmp/cc6XjLyw.s:3179   .rodata.pwm_config.str1.4:0000000000000000 $d
     /tmp/cc6XjLyw.s:3193   .rodata.pwm_set_duty.str1.4:0000000000000000 $d
     /tmp/cc6XjLyw.s:3197   .rodata.pwm_set_frequency.str1.4:0000000000000000 $d
     /tmp/cc6XjLyw.s:3201   .rodata.pwm_set_params.str1.4:0000000000000000 $d
     /tmp/cc6XjLyw.s:3205   .rodata.pwm_start.str1.4:0000000000000000 $d
     /tmp/cc6XjLyw.s:3209   .rodata.pwm_stop.str1.4:0000000000000000 $d
                     .debug_frame:0000000000000010 $d

UNDEFINED SYMBOLS
stm_log_timestamp
stm_log_write
HAL_GPIO_Init
HAL_TIM_Base_Init
HAL_TIM_PWM_Init
HAL_TIM_ConfigClockSource
HAL_TIMEx_MasterConfigSynchronization
HAL_TIM_PWM_ConfigChannel
HAL_TIM_Base_Start
HAL_TIM_PWM_Start
HAL_TIM_PWM_Stop
HAL_TIM_Base_Stop
