ARM GAS  /tmp/cc1LYktN.s 			page 1


   1              		.cpu cortex-m4
   2              		.eabi_attribute 27, 1
   3              		.eabi_attribute 28, 1
   4              		.eabi_attribute 20, 1
   5              		.eabi_attribute 21, 1
   6              		.eabi_attribute 23, 3
   7              		.eabi_attribute 24, 1
   8              		.eabi_attribute 25, 1
   9              		.eabi_attribute 26, 1
  10              		.eabi_attribute 30, 1
  11              		.eabi_attribute 34, 1
  12              		.eabi_attribute 18, 4
  13              		.file	"time.cpp"
  14              		.section	.text._ZN3ros16normalizeSecNSecERmS0_,"ax",%progbits
  15              		.align	1
  16              		.global	_ZN3ros16normalizeSecNSecERmS0_
  17              		.syntax unified
  18              		.thumb
  19              		.thumb_func
  20              		.fpu fpv4-sp-d16
  22              	_ZN3ros16normalizeSecNSecERmS0_:
  23              		.fnstart
  24              	.LFB17:
  25              		@ args = 0, pretend = 0, frame = 0
  26              		@ frame_needed = 0, uses_anonymous_args = 0
  27              		@ link register save eliminated.
  28 0000 30B4     		push	{r4, r5}
  29 0002 0C68     		ldr	r4, [r1]
  30 0004 630A     		lsrs	r3, r4, #9
  31 0006 074A     		ldr	r2, .L3
  32 0008 A2FB0323 		umull	r2, r3, r2, r3
  33 000c DA09     		lsrs	r2, r3, #7
  34 000e 064D     		ldr	r5, .L3+4
  35 0010 05FB1242 		mls	r2, r5, r2, r4
  36 0014 0468     		ldr	r4, [r0]
  37 0016 04EBD313 		add	r3, r4, r3, lsr #7
  38 001a 0360     		str	r3, [r0]
  39 001c 0A60     		str	r2, [r1]
  40 001e 30BC     		pop	{r4, r5}
  41 0020 7047     		bx	lr
  42              	.L4:
  43 0022 00BF     		.align	2
  44              	.L3:
  45 0024 834B0400 		.word	281475
  46 0028 00CA9A3B 		.word	1000000000
  47              		.cantunwind
  48              		.fnend
  50              		.section	.text._ZN3ros4Time8fromNSecEl,"ax",%progbits
  51              		.align	1
  52              		.global	_ZN3ros4Time8fromNSecEl
  53              		.syntax unified
  54              		.thumb
  55              		.thumb_func
  56              		.fpu fpv4-sp-d16
  58              	_ZN3ros4Time8fromNSecEl:
  59              		.fnstart
  60              	.LFB18:
ARM GAS  /tmp/cc1LYktN.s 			page 2


  61              		@ args = 0, pretend = 0, frame = 0
  62              		@ frame_needed = 0, uses_anonymous_args = 0
  63 0000 10B5     		push	{r4, lr}
  64 0002 0446     		mov	r4, r0
  65 0004 084A     		ldr	r2, .L7
  66 0006 82FB0132 		smull	r3, r2, r2, r1
  67 000a CB17     		asrs	r3, r1, #31
  68 000c C3EB2273 		rsb	r3, r3, r2, asr #28
  69 0010 0360     		str	r3, [r0]
  70 0012 064A     		ldr	r2, .L7+4
  71 0014 02FB1312 		mls	r2, r2, r3, r1
  72 0018 0146     		mov	r1, r0
  73 001a 41F8042F 		str	r2, [r1, #4]!
  74 001e FFF7FEFF 		bl	_ZN3ros16normalizeSecNSecERmS0_
  75 0022 2046     		mov	r0, r4
  76 0024 10BD     		pop	{r4, pc}
  77              	.L8:
  78 0026 00BF     		.align	2
  79              	.L7:
  80 0028 A12FB844 		.word	1152921505
  81 002c 00CA9A3B 		.word	1000000000
  82              		.cantunwind
  83              		.fnend
  85              		.section	.text._ZN3ros4TimepLERKNS_8DurationE,"ax",%progbits
  86              		.align	1
  87              		.global	_ZN3ros4TimepLERKNS_8DurationE
  88              		.syntax unified
  89              		.thumb
  90              		.thumb_func
  91              		.fpu fpv4-sp-d16
  93              	_ZN3ros4TimepLERKNS_8DurationE:
  94              		.fnstart
  95              	.LFB19:
  96              		@ args = 0, pretend = 0, frame = 0
  97              		@ frame_needed = 0, uses_anonymous_args = 0
  98 0000 10B5     		push	{r4, lr}
  99 0002 0446     		mov	r4, r0
 100 0004 0368     		ldr	r3, [r0]
 101 0006 0A68     		ldr	r2, [r1]
 102 0008 1344     		add	r3, r3, r2
 103 000a 0360     		str	r3, [r0]
 104 000c 4368     		ldr	r3, [r0, #4]
 105 000e 4A68     		ldr	r2, [r1, #4]
 106 0010 1344     		add	r3, r3, r2
 107 0012 0146     		mov	r1, r0
 108 0014 41F8043F 		str	r3, [r1, #4]!
 109 0018 FFF7FEFF 		bl	_ZN3ros16normalizeSecNSecERmS0_
 110 001c 2046     		mov	r0, r4
 111 001e 10BD     		pop	{r4, pc}
 112              		.cantunwind
 113              		.fnend
 115              		.section	.text._ZN3ros4TimemIERKNS_8DurationE,"ax",%progbits
 116              		.align	1
 117              		.global	_ZN3ros4TimemIERKNS_8DurationE
 118              		.syntax unified
 119              		.thumb
 120              		.thumb_func
ARM GAS  /tmp/cc1LYktN.s 			page 3


 121              		.fpu fpv4-sp-d16
 123              	_ZN3ros4TimemIERKNS_8DurationE:
 124              		.fnstart
 125              	.LFB20:
 126              		@ args = 0, pretend = 0, frame = 0
 127              		@ frame_needed = 0, uses_anonymous_args = 0
 128 0000 10B5     		push	{r4, lr}
 129 0002 0446     		mov	r4, r0
 130 0004 0368     		ldr	r3, [r0]
 131 0006 0A68     		ldr	r2, [r1]
 132 0008 9B1A     		subs	r3, r3, r2
 133 000a 0360     		str	r3, [r0]
 134 000c 4368     		ldr	r3, [r0, #4]
 135 000e 4A68     		ldr	r2, [r1, #4]
 136 0010 9B1A     		subs	r3, r3, r2
 137 0012 0146     		mov	r1, r0
 138 0014 41F8043F 		str	r3, [r1, #4]!
 139 0018 FFF7FEFF 		bl	_ZN3ros16normalizeSecNSecERmS0_
 140 001c 2046     		mov	r0, r4
 141 001e 10BD     		pop	{r4, pc}
 142              		.cantunwind
 143              		.fnend
 145              		.ident	"GCC: (15:6.3.1+svn253039-1build1) 6.3.1 20170620"
ARM GAS  /tmp/cc1LYktN.s 			page 4

